ARM GAS  C:\Users\CNous\AppData\Local\Temp\cctm7WC3.s 			page 1


   1              		.syntax unified
   2              		.cpu cortex-m4
   3              		.eabi_attribute 27, 3	@ Tag_ABI_HardFP_use
   4              		.eabi_attribute 28, 1	@ Tag_ABI_VFP_args
   5              		.fpu fpv4-sp-d16
   6              		.eabi_attribute 20, 1	@ Tag_ABI_FP_denormal
   7              		.eabi_attribute 21, 1	@ Tag_ABI_FP_exceptions
   8              		.eabi_attribute 23, 3	@ Tag_ABI_FP_number_model
   9              		.eabi_attribute 24, 1	@ Tag_ABI_align8_needed
  10              		.eabi_attribute 25, 1	@ Tag_ABI_align8_preserved
  11              		.eabi_attribute 26, 1	@ Tag_ABI_enum_size
  12              		.eabi_attribute 30, 2	@ Tag_ABI_optimization_goals
  13              		.eabi_attribute 34, 1	@ Tag_CPU_unaligned_access
  14              		.eabi_attribute 18, 4	@ Tag_ABI_PCS_wchar_t
  15              		.file	"misc.c"
  16              	@ GNU C (GNU Tools for ARM Embedded Processors) version 4.7.3 20121207 (release) [ARM/embedded-4_7-
  17              	@	compiled by GNU C version 4.2.1-sjlj (mingw32-2), GMP version 4.3.2, MPFR version 2.4.2, MPC vers
  18              	@ GGC heuristics: --param ggc-min-expand=100 --param ggc-min-heapsize=131072
  19              	@ options passed:  -I . -I ./inc -I ./cmsis/core -I ./cmsis/device
  20              	@ -imultilib armv7e-m/fpu
  21              	@ -iprefix c:\gnutoolsarmembedded\4.7-2012q4\bin\../lib/gcc/arm-none-eabi/4.7.3/
  22              	@ -isysroot c:\gnutoolsarmembedded\4.7-2012q4\bin\../arm-none-eabi
  23              	@ -MD cmsis/device/misc.d -MF .dep/misc.o.d -MP -MQ cmsis/device/misc.o
  24              	@ -D__USES_INITFINI__ -D __FPU_USED=1 -D __arm__ -D __ASSEMBLY__
  25              	@ -D USE_STDPERIPH_DRIVER -D STM32F4XX -D HSE_VALUE=8000000
  26              	@ -D __FPU_PRESENT=1 -D STM32F407VG -D RUN_FROM_FLASH=1 cmsis/device/misc.c
  27              	@ -mthumb -mcpu=cortex-m4 -mfloat-abi=hard -mfpu=fpv4-sp-d16
  28              	@ -auxbase-strip cmsis/device/misc.o -gdwarf-2 -O2 -Wall
  29              	@ -Wstrict-prototypes -fverbose-asm -ffunction-sections -fdata-sections
  30              	@ options enabled:  -fauto-inc-dec -fbranch-count-reg -fcaller-saves
  31              	@ -fcombine-stack-adjustments -fcommon -fcompare-elim -fcprop-registers
  32              	@ -fcrossjumping -fcse-follow-jumps -fdata-sections -fdebug-types-section
  33              	@ -fdefer-pop -fdelete-null-pointer-checks -fdevirtualize -fdwarf2-cfi-asm
  34              	@ -fearly-inlining -feliminate-unused-debug-types -fexpensive-optimizations
  35              	@ -fforward-propagate -ffunction-cse -ffunction-sections -fgcse -fgcse-lm
  36              	@ -fgnu-runtime -fguess-branch-probability -fident -fif-conversion
  37              	@ -fif-conversion2 -findirect-inlining -finline -finline-atomics
  38              	@ -finline-functions-called-once -finline-small-functions -fipa-cp
  39              	@ -fipa-profile -fipa-pure-const -fipa-reference -fipa-sra
  40              	@ -fira-share-save-slots -fira-share-spill-slots -fivopts
  41              	@ -fkeep-static-consts -fleading-underscore -fmath-errno -fmerge-constants
  42              	@ -fmerge-debug-strings -fmove-loop-invariants -fomit-frame-pointer
  43              	@ -foptimize-register-move -foptimize-sibling-calls -foptimize-strlen
  44              	@ -fpartial-inlining -fpeephole -fpeephole2 -fprefetch-loop-arrays
  45              	@ -freg-struct-return -fregmove -frename-registers -freorder-blocks
  46              	@ -freorder-functions -frerun-cse-after-loop
  47              	@ -fsched-critical-path-heuristic -fsched-dep-count-heuristic
  48              	@ -fsched-group-heuristic -fsched-interblock -fsched-last-insn-heuristic
  49              	@ -fsched-rank-heuristic -fsched-spec -fsched-spec-insn-heuristic
  50              	@ -fsched-stalled-insns-dep -fschedule-insns -fschedule-insns2
  51              	@ -fsection-anchors -fshow-column -fshrink-wrap -fsigned-zeros
  52              	@ -fsplit-ivs-in-unroller -fsplit-wide-types -fstrict-aliasing
  53              	@ -fstrict-overflow -fstrict-volatile-bitfields -fthread-jumps
  54              	@ -ftoplevel-reorder -ftrapping-math -ftree-bit-ccp -ftree-builtin-call-dce
  55              	@ -ftree-ccp -ftree-ch -ftree-copy-prop -ftree-copyrename -ftree-cselim
  56              	@ -ftree-dce -ftree-dominator-opts -ftree-dse -ftree-forwprop -ftree-fre
  57              	@ -ftree-loop-if-convert -ftree-loop-im -ftree-loop-ivcanon
ARM GAS  C:\Users\CNous\AppData\Local\Temp\cctm7WC3.s 			page 2


  58              	@ -ftree-loop-optimize -ftree-parallelize-loops= -ftree-phiprop -ftree-pre
  59              	@ -ftree-pta -ftree-reassoc -ftree-scev-cprop -ftree-sink
  60              	@ -ftree-slp-vectorize -ftree-sra -ftree-switch-conversion
  61              	@ -ftree-tail-merge -ftree-ter -ftree-vect-loop-version -ftree-vrp
  62              	@ -funit-at-a-time -funroll-loops -fvar-tracking -fvar-tracking-assignments
  63              	@ -fverbose-asm -fweb -fzero-initialized-in-bss -mlittle-endian
  64              	@ -msched-prolog -mthumb -munaligned-access -mvectorize-with-neon-quad
  65              	
  66              		.text
  67              	.Ltext0:
  68              		.cfi_sections	.debug_frame
  69              		.section	.text.NVIC_PriorityGroupConfig,"ax",%progbits
  70              		.align	2
  71              		.global	NVIC_PriorityGroupConfig
  72              		.thumb
  73              		.thumb_func
  74              		.type	NVIC_PriorityGroupConfig, %function
  75              	NVIC_PriorityGroupConfig:
  76              	.LFB110:
  77              		.file 1 "cmsis/device/misc.c"
   1:cmsis/device/misc.c **** /**
   2:cmsis/device/misc.c ****   ******************************************************************************
   3:cmsis/device/misc.c ****   * @file    misc.c
   4:cmsis/device/misc.c ****   * @author  MCD Application Team
   5:cmsis/device/misc.c ****   * @version V1.0.0
   6:cmsis/device/misc.c ****   * @date    30-September-2011
   7:cmsis/device/misc.c ****   * @brief   This file provides all the miscellaneous firmware functions (add-on
   8:cmsis/device/misc.c ****   *          to CMSIS functions).
   9:cmsis/device/misc.c ****   *          
  10:cmsis/device/misc.c ****   *  @verbatim   
  11:cmsis/device/misc.c ****   *                               
  12:cmsis/device/misc.c ****   *          ===================================================================      
  13:cmsis/device/misc.c ****   *                        How to configure Interrupts using driver 
  14:cmsis/device/misc.c ****   *          ===================================================================      
  15:cmsis/device/misc.c ****   * 
  16:cmsis/device/misc.c ****   *            This section provide functions allowing to configure the NVIC interrupts (IRQ).
  17:cmsis/device/misc.c ****   *            The Cortex-M4 exceptions are managed by CMSIS functions.
  18:cmsis/device/misc.c ****   *
  19:cmsis/device/misc.c ****   *            1. Configure the NVIC Priority Grouping using NVIC_PriorityGroupConfig()
  20:cmsis/device/misc.c ****   *                function according to the following table.
  21:cmsis/device/misc.c ****  
  22:cmsis/device/misc.c ****   *  The table below gives the allowed values of the pre-emption priority and subpriority according
  23:cmsis/device/misc.c ****   *  to the Priority Grouping configuration performed by NVIC_PriorityGroupConfig function
  24:cmsis/device/misc.c ****   *    ============================================================================================
  25:cmsis/device/misc.c ****   *      NVIC_PriorityGroup   | NVIC_IRQChannelPreemptionPriority | NVIC_IRQChannelSubPriority  |  
  26:cmsis/device/misc.c ****   *    ============================================================================================
  27:cmsis/device/misc.c ****   *     NVIC_PriorityGroup_0  |                0                  |            0-15             | 0
  28:cmsis/device/misc.c ****   *                           |                                   |                             | 4
  29:cmsis/device/misc.c ****   *    --------------------------------------------------------------------------------------------
  30:cmsis/device/misc.c ****   *     NVIC_PriorityGroup_1  |                0-1                |            0-7              | 1
  31:cmsis/device/misc.c ****   *                           |                                   |                             | 3
  32:cmsis/device/misc.c ****   *    --------------------------------------------------------------------------------------------
  33:cmsis/device/misc.c ****   *     NVIC_PriorityGroup_2  |                0-3                |            0-3              | 2
  34:cmsis/device/misc.c ****   *                           |                                   |                             | 2
  35:cmsis/device/misc.c ****   *    --------------------------------------------------------------------------------------------
  36:cmsis/device/misc.c ****   *     NVIC_PriorityGroup_3  |                0-7                |            0-1              | 3
  37:cmsis/device/misc.c ****   *                           |                                   |                             | 1
ARM GAS  C:\Users\CNous\AppData\Local\Temp\cctm7WC3.s 			page 3


  38:cmsis/device/misc.c ****   *    --------------------------------------------------------------------------------------------
  39:cmsis/device/misc.c ****   *     NVIC_PriorityGroup_4  |                0-15               |            0                | 4
  40:cmsis/device/misc.c ****   *                           |                                   |                             | 0
  41:cmsis/device/misc.c ****   *    ============================================================================================
  42:cmsis/device/misc.c ****   *
  43:cmsis/device/misc.c ****   *            2. Enable and Configure the priority of the selected IRQ Channels using NVIC_Init() 
  44:cmsis/device/misc.c ****   *
  45:cmsis/device/misc.c ****   * @note  When the NVIC_PriorityGroup_0 is selected, IRQ pre-emption is no more possible. 
  46:cmsis/device/misc.c ****   *        The pending IRQ priority will be managed only by the subpriority.
  47:cmsis/device/misc.c ****   *
  48:cmsis/device/misc.c ****   * @note  IRQ priority order (sorted by highest to lowest priority):
  49:cmsis/device/misc.c ****   *         - Lowest pre-emption priority
  50:cmsis/device/misc.c ****   *         - Lowest subpriority
  51:cmsis/device/misc.c ****   *         - Lowest hardware priority (IRQ number)
  52:cmsis/device/misc.c ****   *
  53:cmsis/device/misc.c ****   *  @endverbatim
  54:cmsis/device/misc.c ****   *
  55:cmsis/device/misc.c ****   ******************************************************************************
  56:cmsis/device/misc.c ****   * @attention
  57:cmsis/device/misc.c ****   *
  58:cmsis/device/misc.c ****   * THE PRESENT FIRMWARE WHICH IS FOR GUIDANCE ONLY AIMS AT PROVIDING CUSTOMERS
  59:cmsis/device/misc.c ****   * WITH CODING INFORMATION REGARDING THEIR PRODUCTS IN ORDER FOR THEM TO SAVE
  60:cmsis/device/misc.c ****   * TIME. AS A RESULT, STMICROELECTRONICS SHALL NOT BE HELD LIABLE FOR ANY
  61:cmsis/device/misc.c ****   * DIRECT, INDIRECT OR CONSEQUENTIAL DAMAGES WITH RESPECT TO ANY CLAIMS ARISING
  62:cmsis/device/misc.c ****   * FROM THE CONTENT OF SUCH FIRMWARE AND/OR THE USE MADE BY CUSTOMERS OF THE
  63:cmsis/device/misc.c ****   * CODING INFORMATION CONTAINED HEREIN IN CONNECTION WITH THEIR PRODUCTS.
  64:cmsis/device/misc.c ****   *
  65:cmsis/device/misc.c ****   * <h2><center>&copy; COPYRIGHT 2011 STMicroelectronics</center></h2>
  66:cmsis/device/misc.c ****   ******************************************************************************
  67:cmsis/device/misc.c ****   */
  68:cmsis/device/misc.c **** 
  69:cmsis/device/misc.c **** /* Includes ------------------------------------------------------------------*/
  70:cmsis/device/misc.c **** #include "misc.h"
  71:cmsis/device/misc.c **** 
  72:cmsis/device/misc.c **** /** @addtogroup STM32F4xx_StdPeriph_Driver
  73:cmsis/device/misc.c ****   * @{
  74:cmsis/device/misc.c ****   */
  75:cmsis/device/misc.c **** 
  76:cmsis/device/misc.c **** /** @defgroup MISC 
  77:cmsis/device/misc.c ****   * @brief MISC driver modules
  78:cmsis/device/misc.c ****   * @{
  79:cmsis/device/misc.c ****   */
  80:cmsis/device/misc.c **** 
  81:cmsis/device/misc.c **** /* Private typedef -----------------------------------------------------------*/
  82:cmsis/device/misc.c **** /* Private define ------------------------------------------------------------*/
  83:cmsis/device/misc.c **** #define AIRCR_VECTKEY_MASK    ((uint32_t)0x05FA0000)
  84:cmsis/device/misc.c **** 
  85:cmsis/device/misc.c **** /* Private macro -------------------------------------------------------------*/
  86:cmsis/device/misc.c **** /* Private variables ---------------------------------------------------------*/
  87:cmsis/device/misc.c **** /* Private function prototypes -----------------------------------------------*/
  88:cmsis/device/misc.c **** /* Private functions ---------------------------------------------------------*/
  89:cmsis/device/misc.c **** 
  90:cmsis/device/misc.c **** /** @defgroup MISC_Private_Functions
  91:cmsis/device/misc.c ****   * @{
  92:cmsis/device/misc.c ****   */
  93:cmsis/device/misc.c **** 
  94:cmsis/device/misc.c **** /**
ARM GAS  C:\Users\CNous\AppData\Local\Temp\cctm7WC3.s 			page 4


  95:cmsis/device/misc.c ****   * @brief  Configures the priority grouping: pre-emption priority and subpriority.
  96:cmsis/device/misc.c ****   * @param  NVIC_PriorityGroup: specifies the priority grouping bits length. 
  97:cmsis/device/misc.c ****   *   This parameter can be one of the following values:
  98:cmsis/device/misc.c ****   *     @arg NVIC_PriorityGroup_0: 0 bits for pre-emption priority
  99:cmsis/device/misc.c ****   *                                4 bits for subpriority
 100:cmsis/device/misc.c ****   *     @arg NVIC_PriorityGroup_1: 1 bits for pre-emption priority
 101:cmsis/device/misc.c ****   *                                3 bits for subpriority
 102:cmsis/device/misc.c ****   *     @arg NVIC_PriorityGroup_2: 2 bits for pre-emption priority
 103:cmsis/device/misc.c ****   *                                2 bits for subpriority
 104:cmsis/device/misc.c ****   *     @arg NVIC_PriorityGroup_3: 3 bits for pre-emption priority
 105:cmsis/device/misc.c ****   *                                1 bits for subpriority
 106:cmsis/device/misc.c ****   *     @arg NVIC_PriorityGroup_4: 4 bits for pre-emption priority
 107:cmsis/device/misc.c ****   *                                0 bits for subpriority
 108:cmsis/device/misc.c ****   * @note   When the NVIC_PriorityGroup_0 is selected, IRQ pre-emption is no more possible. 
 109:cmsis/device/misc.c ****   *         The pending IRQ priority will be managed only by the subpriority. 
 110:cmsis/device/misc.c ****   * @retval None
 111:cmsis/device/misc.c ****   */
 112:cmsis/device/misc.c **** void NVIC_PriorityGroupConfig(uint32_t NVIC_PriorityGroup)
 113:cmsis/device/misc.c **** {
  78              		.loc 1 113 0
  79              		.cfi_startproc
  80              		@ args = 0, pretend = 0, frame = 0
  81              		@ frame_needed = 0, uses_anonymous_args = 0
  82              		@ link register save eliminated.
  83              	.LVL0:
 114:cmsis/device/misc.c ****   /* Check the parameters */
 115:cmsis/device/misc.c ****   assert_param(IS_NVIC_PRIORITY_GROUP(NVIC_PriorityGroup));
 116:cmsis/device/misc.c ****   
 117:cmsis/device/misc.c ****   /* Set the PRIGROUP[10:8] bits according to NVIC_PriorityGroup value */
 118:cmsis/device/misc.c ****   SCB->AIRCR = AIRCR_VECTKEY_MASK | NVIC_PriorityGroup;
  84              		.loc 1 118 0
  85 0000 4FF46D43 		mov	r3, #60672	@ tmp138,
  86 0004 40F0BF60 		orr	r0, r0, #100139008	@ tmp136, NVIC_PriorityGroup,
  87              	.LVL1:
  88 0008 CEF20003 		movt	r3, 57344	@ tmp138,
  89 000c 40F40031 		orr	r1, r0, #131072	@ D.6574, tmp136,
  90 0010 D960     		str	r1, [r3, #12]	@ D.6574, MEM[(struct SCB_Type *)3758157056B].AIRCR
  91 0012 7047     		bx	lr	@
  92              		.cfi_endproc
  93              	.LFE110:
  94              		.size	NVIC_PriorityGroupConfig, .-NVIC_PriorityGroupConfig
  95              		.section	.text.NVIC_Init,"ax",%progbits
  96              		.align	2
  97              		.global	NVIC_Init
  98              		.thumb
  99              		.thumb_func
 100              		.type	NVIC_Init, %function
 101              	NVIC_Init:
 102              	.LFB111:
 119:cmsis/device/misc.c **** }
 120:cmsis/device/misc.c **** 
 121:cmsis/device/misc.c **** /**
 122:cmsis/device/misc.c ****   * @brief  Initializes the NVIC peripheral according to the specified
 123:cmsis/device/misc.c ****   *         parameters in the NVIC_InitStruct.
 124:cmsis/device/misc.c ****   * @note   To configure interrupts priority correctly, the NVIC_PriorityGroupConfig()
 125:cmsis/device/misc.c ****   *         function should be called before. 
 126:cmsis/device/misc.c ****   * @param  NVIC_InitStruct: pointer to a NVIC_InitTypeDef structure that contains
ARM GAS  C:\Users\CNous\AppData\Local\Temp\cctm7WC3.s 			page 5


 127:cmsis/device/misc.c ****   *         the configuration information for the specified NVIC peripheral.
 128:cmsis/device/misc.c ****   * @retval None
 129:cmsis/device/misc.c ****   */
 130:cmsis/device/misc.c **** void NVIC_Init(NVIC_InitTypeDef* NVIC_InitStruct)
 131:cmsis/device/misc.c **** {
 103              		.loc 1 131 0
 104              		.cfi_startproc
 105              		@ args = 0, pretend = 0, frame = 0
 106              		@ frame_needed = 0, uses_anonymous_args = 0
 107              		@ link register save eliminated.
 108              	.LVL2:
 132:cmsis/device/misc.c ****   uint8_t tmppriority = 0x00, tmppre = 0x00, tmpsub = 0x0F;
 133:cmsis/device/misc.c ****   
 134:cmsis/device/misc.c ****   /* Check the parameters */
 135:cmsis/device/misc.c ****   assert_param(IS_FUNCTIONAL_STATE(NVIC_InitStruct->NVIC_IRQChannelCmd));
 136:cmsis/device/misc.c ****   assert_param(IS_NVIC_PREEMPTION_PRIORITY(NVIC_InitStruct->NVIC_IRQChannelPreemptionPriority));  
 137:cmsis/device/misc.c ****   assert_param(IS_NVIC_SUB_PRIORITY(NVIC_InitStruct->NVIC_IRQChannelSubPriority));
 138:cmsis/device/misc.c ****     
 139:cmsis/device/misc.c ****   if (NVIC_InitStruct->NVIC_IRQChannelCmd != DISABLE)
 109              		.loc 1 139 0
 110 0000 C378     		ldrb	r3, [r0, #3]	@ zero_extendqisi2	@ NVIC_InitStruct_4(D)->NVIC_IRQChannelCmd, NVIC_InitStruct_4
 131:cmsis/device/misc.c **** {
 111              		.loc 1 131 0
 112 0002 30B4     		push	{r4, r5}	@
 113              	.LCFI0:
 114              		.cfi_def_cfa_offset 8
 115              		.cfi_offset 4, -8
 116              		.cfi_offset 5, -4
 117              		.loc 1 139 0
 118 0004 7BB9     		cbnz	r3, .L6	@ NVIC_InitStruct_4(D)->NVIC_IRQChannelCmd,
 140:cmsis/device/misc.c ****   {
 141:cmsis/device/misc.c ****     /* Compute the Corresponding IRQ Priority --------------------------------*/    
 142:cmsis/device/misc.c ****     tmppriority = (0x700 - ((SCB->AIRCR) & (uint32_t)0x700))>> 0x08;
 143:cmsis/device/misc.c ****     tmppre = (0x4 - tmppriority);
 144:cmsis/device/misc.c ****     tmpsub = tmpsub >> tmppriority;
 145:cmsis/device/misc.c **** 
 146:cmsis/device/misc.c ****     tmppriority = NVIC_InitStruct->NVIC_IRQChannelPreemptionPriority << tmppre;
 147:cmsis/device/misc.c ****     tmppriority |=  (uint8_t)(NVIC_InitStruct->NVIC_IRQChannelSubPriority & tmpsub);
 148:cmsis/device/misc.c ****         
 149:cmsis/device/misc.c ****     tmppriority = tmppriority << 0x04;
 150:cmsis/device/misc.c ****         
 151:cmsis/device/misc.c ****     NVIC->IP[NVIC_InitStruct->NVIC_IRQChannel] = tmppriority;
 152:cmsis/device/misc.c ****     
 153:cmsis/device/misc.c ****     /* Enable the Selected IRQ Channels --------------------------------------*/
 154:cmsis/device/misc.c ****     NVIC->ISER[NVIC_InitStruct->NVIC_IRQChannel >> 0x05] =
 155:cmsis/device/misc.c ****       (uint32_t)0x01 << (NVIC_InitStruct->NVIC_IRQChannel & (uint8_t)0x1F);
 156:cmsis/device/misc.c ****   }
 157:cmsis/device/misc.c ****   else
 158:cmsis/device/misc.c ****   {
 159:cmsis/device/misc.c ****     /* Disable the Selected IRQ Channels -------------------------------------*/
 160:cmsis/device/misc.c ****     NVIC->ICER[NVIC_InitStruct->NVIC_IRQChannel >> 0x05] =
 119              		.loc 1 160 0
 120 0006 0278     		ldrb	r2, [r0, #0]	@ zero_extendqisi2	@ D.6566, NVIC_InitStruct_4(D)->NVIC_IRQChannel
 121 0008 4FF46143 		mov	r3, #57600	@ tmp197,
 122 000c 5109     		lsrs	r1, r2, #5	@ D.6569, D.6566,
 123 000e CEF20003 		movt	r3, 57344	@ tmp197,
 161:cmsis/device/misc.c ****       (uint32_t)0x01 << (NVIC_InitStruct->NVIC_IRQChannel & (uint8_t)0x1F);
ARM GAS  C:\Users\CNous\AppData\Local\Temp\cctm7WC3.s 			page 6


 124              		.loc 1 161 0
 125 0012 02F01F02 		and	r2, r2, #31	@ tmp195, D.6566,
 160:cmsis/device/misc.c ****     NVIC->ICER[NVIC_InitStruct->NVIC_IRQChannel >> 0x05] =
 126              		.loc 1 160 0
 127 0016 2031     		adds	r1, r1, #32	@ tmp198, D.6569,
 128              		.loc 1 161 0
 129 0018 0120     		movs	r0, #1	@ tmp196,
 130              	.LVL3:
 131 001a 00FA02F2 		lsl	r2, r0, r2	@ D.6571, tmp196, tmp195
 160:cmsis/device/misc.c ****     NVIC->ICER[NVIC_InitStruct->NVIC_IRQChannel >> 0x05] =
 132              		.loc 1 160 0
 133 001e 43F82120 		str	r2, [r3, r1, lsl #2]	@ D.6571,
 134              	.LVL4:
 135              	.L2:
 162:cmsis/device/misc.c ****   }
 163:cmsis/device/misc.c **** }
 136              		.loc 1 163 0
 137 0022 30BC     		pop	{r4, r5}
 138 0024 7047     		bx	lr
 139              	.LVL5:
 140              	.L6:
 142:cmsis/device/misc.c ****     tmppriority = (0x700 - ((SCB->AIRCR) & (uint32_t)0x700))>> 0x08;
 141              		.loc 1 142 0
 142 0026 4FF46D44 		mov	r4, #60672	@ tmp169,
 143 002a CEF20004 		movt	r4, 57344	@ tmp169,
 146:cmsis/device/misc.c ****     tmppriority = NVIC_InitStruct->NVIC_IRQChannelPreemptionPriority << tmppre;
 144              		.loc 1 146 0
 145 002e 4578     		ldrb	r5, [r0, #1]	@ zero_extendqisi2	@ NVIC_InitStruct_4(D)->NVIC_IRQChannelPreemptionPriority, NV
 142:cmsis/device/misc.c ****     tmppriority = (0x700 - ((SCB->AIRCR) & (uint32_t)0x700))>> 0x08;
 146              		.loc 1 142 0
 147 0030 E168     		ldr	r1, [r4, #12]	@ D.6552, MEM[(struct SCB_Type *)3758157056B].AIRCR
 147:cmsis/device/misc.c ****     tmppriority |=  (uint8_t)(NVIC_InitStruct->NVIC_IRQChannelSubPriority & tmpsub);
 148              		.loc 1 147 0
 149 0032 8478     		ldrb	r4, [r0, #2]	@ zero_extendqisi2	@ NVIC_InitStruct_4(D)->NVIC_IRQChannelSubPriority, NVIC_Init
 151:cmsis/device/misc.c ****     NVIC->IP[NVIC_InitStruct->NVIC_IRQChannel] = tmppriority;
 150              		.loc 1 151 0
 151 0034 0378     		ldrb	r3, [r0, #0]	@ zero_extendqisi2	@ D.6567, NVIC_InitStruct_4(D)->NVIC_IRQChannel
 142:cmsis/device/misc.c ****     tmppriority = (0x700 - ((SCB->AIRCR) & (uint32_t)0x700))>> 0x08;
 152              		.loc 1 142 0
 153 0036 CA43     		mvns	r2, r1	@ tmp170, D.6552
 154 0038 C2F30222 		ubfx	r2, r2, #8, #3	@ D.6578, tmp170,,
 155              	.LVL6:
 143:cmsis/device/misc.c ****     tmppre = (0x4 - tmppriority);
 156              		.loc 1 143 0
 157 003c C2F10401 		rsb	r1, r2, #4	@ tmp174, D.6578,
 146:cmsis/device/misc.c ****     tmppriority = NVIC_InitStruct->NVIC_IRQChannelPreemptionPriority << tmppre;
 158              		.loc 1 146 0
 159 0040 C9B2     		uxtb	r1, r1	@ tmp175, tmp174
 160 0042 05FA01F1 		lsl	r1, r5, r1	@ D.6562, NVIC_InitStruct_4(D)->NVIC_IRQChannelPreemptionPriority, tmp175
 144:cmsis/device/misc.c ****     tmpsub = tmpsub >> tmppriority;
 161              		.loc 1 144 0
 162 0046 0F25     		movs	r5, #15	@ tmp177,
 163 0048 45FA02F2 		asr	r2, r5, r2	@ tmp176, tmp177, D.6578
 164              	.LVL7:
 146:cmsis/device/misc.c ****     tmppriority = NVIC_InitStruct->NVIC_IRQChannelPreemptionPriority << tmppre;
 165              		.loc 1 146 0
 166 004c C9B2     		uxtb	r1, r1	@ tmppriority, D.6562
ARM GAS  C:\Users\CNous\AppData\Local\Temp\cctm7WC3.s 			page 7


 167              	.LVL8:
 147:cmsis/device/misc.c ****     tmppriority |=  (uint8_t)(NVIC_InitStruct->NVIC_IRQChannelSubPriority & tmpsub);
 168              		.loc 1 147 0
 169 004e 2240     		ands	r2, r2, r4	@, tmp181, tmp176, NVIC_InitStruct_4(D)->NVIC_IRQChannelSubPriority
 170 0050 0A43     		orrs	r2, r2, r1	@, tmppriority, tmp181, tmppriority
 171              	.LVL9:
 151:cmsis/device/misc.c ****     NVIC->IP[NVIC_InitStruct->NVIC_IRQChannel] = tmppriority;
 172              		.loc 1 151 0
 173 0052 03F16043 		add	r3, r3, #-536870912	@ tmp186, D.6567,
 149:cmsis/device/misc.c ****     tmppriority = tmppriority << 0x04;
 174              		.loc 1 149 0
 175 0056 1101     		lsls	r1, r2, #4	@ tmp184, tmppriority,
 151:cmsis/device/misc.c ****     NVIC->IP[NVIC_InitStruct->NVIC_IRQChannel] = tmppriority;
 176              		.loc 1 151 0
 177 0058 03F56143 		add	r3, r3, #57600	@ tmp186, tmp186,
 149:cmsis/device/misc.c ****     tmppriority = tmppriority << 0x04;
 178              		.loc 1 149 0
 179 005c CAB2     		uxtb	r2, r1	@ tmppriority, tmp184
 180              	.LVL10:
 151:cmsis/device/misc.c ****     NVIC->IP[NVIC_InitStruct->NVIC_IRQChannel] = tmppriority;
 181              		.loc 1 151 0
 182 005e 83F80023 		strb	r2, [r3, #768]	@ tmppriority, MEM[(struct NVIC_Type *)3758153984B].IP
 154:cmsis/device/misc.c ****     NVIC->ISER[NVIC_InitStruct->NVIC_IRQChannel >> 0x05] =
 183              		.loc 1 154 0
 184 0062 0078     		ldrb	r0, [r0, #0]	@ zero_extendqisi2	@ D.6566, NVIC_InitStruct_4(D)->NVIC_IRQChannel
 185              	.LVL11:
 151:cmsis/device/misc.c ****     NVIC->IP[NVIC_InitStruct->NVIC_IRQChannel] = tmppriority;
 186              		.loc 1 151 0
 187 0064 4FF46143 		mov	r3, #57600	@ tmp185,
 154:cmsis/device/misc.c ****     NVIC->ISER[NVIC_InitStruct->NVIC_IRQChannel >> 0x05] =
 188              		.loc 1 154 0
 189 0068 4109     		lsrs	r1, r0, #5	@ D.6569, D.6566,
 190              	.LVL12:
 155:cmsis/device/misc.c ****       (uint32_t)0x01 << (NVIC_InitStruct->NVIC_IRQChannel & (uint8_t)0x1F);
 191              		.loc 1 155 0
 192 006a 00F01F02 		and	r2, r0, #31	@ tmp190, D.6566,
 193              	.LVL13:
 151:cmsis/device/misc.c ****     NVIC->IP[NVIC_InitStruct->NVIC_IRQChannel] = tmppriority;
 194              		.loc 1 151 0
 195 006e CEF20003 		movt	r3, 57344	@ tmp185,
 155:cmsis/device/misc.c ****       (uint32_t)0x01 << (NVIC_InitStruct->NVIC_IRQChannel & (uint8_t)0x1F);
 196              		.loc 1 155 0
 197 0072 0120     		movs	r0, #1	@ tmp191,
 198 0074 00FA02F2 		lsl	r2, r0, r2	@ D.6571, tmp191, tmp190
 154:cmsis/device/misc.c ****     NVIC->ISER[NVIC_InitStruct->NVIC_IRQChannel >> 0x05] =
 199              		.loc 1 154 0
 200 0078 43F82120 		str	r2, [r3, r1, lsl #2]	@ D.6571,
 201 007c D1E7     		b	.L2	@
 202              		.cfi_endproc
 203              	.LFE111:
 204              		.size	NVIC_Init, .-NVIC_Init
 205 007e 00BF     		.section	.text.NVIC_SetVectorTable,"ax",%progbits
 206              		.align	2
 207              		.global	NVIC_SetVectorTable
 208              		.thumb
 209              		.thumb_func
 210              		.type	NVIC_SetVectorTable, %function
ARM GAS  C:\Users\CNous\AppData\Local\Temp\cctm7WC3.s 			page 8


 211              	NVIC_SetVectorTable:
 212              	.LFB112:
 164:cmsis/device/misc.c **** 
 165:cmsis/device/misc.c **** /**
 166:cmsis/device/misc.c ****   * @brief  Sets the vector table location and Offset.
 167:cmsis/device/misc.c ****   * @param  NVIC_VectTab: specifies if the vector table is in RAM or FLASH memory.
 168:cmsis/device/misc.c ****   *   This parameter can be one of the following values:
 169:cmsis/device/misc.c ****   *     @arg NVIC_VectTab_RAM: Vector Table in internal SRAM.
 170:cmsis/device/misc.c ****   *     @arg NVIC_VectTab_FLASH: Vector Table in internal FLASH.
 171:cmsis/device/misc.c ****   * @param  Offset: Vector Table base offset field. This value must be a multiple of 0x200.
 172:cmsis/device/misc.c ****   * @retval None
 173:cmsis/device/misc.c ****   */
 174:cmsis/device/misc.c **** void NVIC_SetVectorTable(uint32_t NVIC_VectTab, uint32_t Offset)
 175:cmsis/device/misc.c **** { 
 213              		.loc 1 175 0
 214              		.cfi_startproc
 215              		@ args = 0, pretend = 0, frame = 0
 216              		@ frame_needed = 0, uses_anonymous_args = 0
 217              		@ link register save eliminated.
 218              	.LVL14:
 176:cmsis/device/misc.c ****   /* Check the parameters */
 177:cmsis/device/misc.c ****   assert_param(IS_NVIC_VECTTAB(NVIC_VectTab));
 178:cmsis/device/misc.c ****   assert_param(IS_NVIC_OFFSET(Offset));  
 179:cmsis/device/misc.c ****    
 180:cmsis/device/misc.c ****   SCB->VTOR = NVIC_VectTab | (Offset & (uint32_t)0x1FFFFF80);
 219              		.loc 1 180 0
 220 0000 21F06041 		bic	r1, r1, #-536870912	@ tmp139, Offset,
 221              	.LVL15:
 222 0004 4FF46D43 		mov	r3, #60672	@ tmp141,
 223 0008 21F07F02 		bic	r2, r1, #127	@ tmp138, tmp139,
 224 000c CEF20003 		movt	r3, 57344	@ tmp141,
 225 0010 1043     		orrs	r0, r0, r2	@, D.6547, NVIC_VectTab, tmp138
 226              	.LVL16:
 227 0012 9860     		str	r0, [r3, #8]	@ D.6547, MEM[(struct SCB_Type *)3758157056B].VTOR
 228 0014 7047     		bx	lr	@
 229              		.cfi_endproc
 230              	.LFE112:
 231              		.size	NVIC_SetVectorTable, .-NVIC_SetVectorTable
 232 0016 00BF     		.section	.text.NVIC_SystemLPConfig,"ax",%progbits
 233              		.align	2
 234              		.global	NVIC_SystemLPConfig
 235              		.thumb
 236              		.thumb_func
 237              		.type	NVIC_SystemLPConfig, %function
 238              	NVIC_SystemLPConfig:
 239              	.LFB113:
 181:cmsis/device/misc.c **** }
 182:cmsis/device/misc.c **** 
 183:cmsis/device/misc.c **** /**
 184:cmsis/device/misc.c ****   * @brief  Selects the condition for the system to enter low power mode.
 185:cmsis/device/misc.c ****   * @param  LowPowerMode: Specifies the new mode for the system to enter low power mode.
 186:cmsis/device/misc.c ****   *   This parameter can be one of the following values:
 187:cmsis/device/misc.c ****   *     @arg NVIC_LP_SEVONPEND: Low Power SEV on Pend.
 188:cmsis/device/misc.c ****   *     @arg NVIC_LP_SLEEPDEEP: Low Power DEEPSLEEP request.
 189:cmsis/device/misc.c ****   *     @arg NVIC_LP_SLEEPONEXIT: Low Power Sleep on Exit.
 190:cmsis/device/misc.c ****   * @param  NewState: new state of LP condition. This parameter can be: ENABLE or DISABLE.
 191:cmsis/device/misc.c ****   * @retval None
ARM GAS  C:\Users\CNous\AppData\Local\Temp\cctm7WC3.s 			page 9


 192:cmsis/device/misc.c ****   */
 193:cmsis/device/misc.c **** void NVIC_SystemLPConfig(uint8_t LowPowerMode, FunctionalState NewState)
 194:cmsis/device/misc.c **** {
 240              		.loc 1 194 0
 241              		.cfi_startproc
 242              		@ args = 0, pretend = 0, frame = 0
 243              		@ frame_needed = 0, uses_anonymous_args = 0
 244              		@ link register save eliminated.
 245              	.LVL17:
 195:cmsis/device/misc.c ****   /* Check the parameters */
 196:cmsis/device/misc.c ****   assert_param(IS_NVIC_LP(LowPowerMode));
 197:cmsis/device/misc.c ****   assert_param(IS_FUNCTIONAL_STATE(NewState));  
 198:cmsis/device/misc.c ****   
 199:cmsis/device/misc.c ****   if (NewState != DISABLE)
 200:cmsis/device/misc.c ****   {
 201:cmsis/device/misc.c ****     SCB->SCR |= LowPowerMode;
 246              		.loc 1 201 0
 247 0000 4FF46D43 		mov	r3, #60672	@ tmp143,
 248 0004 CEF20003 		movt	r3, 57344	@ tmp143,
 249 0008 1A69     		ldr	r2, [r3, #16]	@ D.6538,
 199:cmsis/device/misc.c ****   if (NewState != DISABLE)
 250              		.loc 1 199 0
 251 000a 19B9     		cbnz	r1, .L11	@ NewState,
 202:cmsis/device/misc.c ****   }
 203:cmsis/device/misc.c ****   else
 204:cmsis/device/misc.c ****   {
 205:cmsis/device/misc.c ****     SCB->SCR &= (uint32_t)(~(uint32_t)LowPowerMode);
 252              		.loc 1 205 0
 253 000c 22EA0000 		bic	r0, r2, r0	@ D.6544, D.6542, LowPowerMode
 254              	.LVL18:
 255 0010 1861     		str	r0, [r3, #16]	@ D.6544,
 256 0012 7047     		bx	lr	@
 257              	.LVL19:
 258              	.L11:
 201:cmsis/device/misc.c ****     SCB->SCR |= LowPowerMode;
 259              		.loc 1 201 0
 260 0014 1043     		orrs	r0, r0, r2	@, D.6540, LowPowerMode, D.6538
 261              	.LVL20:
 262 0016 1861     		str	r0, [r3, #16]	@ D.6540,
 263 0018 7047     		bx	lr	@
 264              		.cfi_endproc
 265              	.LFE113:
 266              		.size	NVIC_SystemLPConfig, .-NVIC_SystemLPConfig
 267 001a 00BF     		.section	.text.SysTick_CLKSourceConfig,"ax",%progbits
 268              		.align	2
 269              		.global	SysTick_CLKSourceConfig
 270              		.thumb
 271              		.thumb_func
 272              		.type	SysTick_CLKSourceConfig, %function
 273              	SysTick_CLKSourceConfig:
 274              	.LFB114:
 206:cmsis/device/misc.c ****   }
 207:cmsis/device/misc.c **** }
 208:cmsis/device/misc.c **** 
 209:cmsis/device/misc.c **** /**
 210:cmsis/device/misc.c ****   * @brief  Configures the SysTick clock source.
 211:cmsis/device/misc.c ****   * @param  SysTick_CLKSource: specifies the SysTick clock source.
ARM GAS  C:\Users\CNous\AppData\Local\Temp\cctm7WC3.s 			page 10


 212:cmsis/device/misc.c ****   *   This parameter can be one of the following values:
 213:cmsis/device/misc.c ****   *     @arg SysTick_CLKSource_HCLK_Div8: AHB clock divided by 8 selected as SysTick clock source.
 214:cmsis/device/misc.c ****   *     @arg SysTick_CLKSource_HCLK: AHB clock selected as SysTick clock source.
 215:cmsis/device/misc.c ****   * @retval None
 216:cmsis/device/misc.c ****   */
 217:cmsis/device/misc.c **** void SysTick_CLKSourceConfig(uint32_t SysTick_CLKSource)
 218:cmsis/device/misc.c **** {
 275              		.loc 1 218 0
 276              		.cfi_startproc
 277              		@ args = 0, pretend = 0, frame = 0
 278              		@ frame_needed = 0, uses_anonymous_args = 0
 279              		@ link register save eliminated.
 280              	.LVL21:
 219:cmsis/device/misc.c ****   /* Check the parameters */
 220:cmsis/device/misc.c ****   assert_param(IS_SYSTICK_CLK_SOURCE(SysTick_CLKSource));
 221:cmsis/device/misc.c ****   if (SysTick_CLKSource == SysTick_CLKSource_HCLK)
 222:cmsis/device/misc.c ****   {
 223:cmsis/device/misc.c ****     SysTick->CTRL |= SysTick_CLKSource_HCLK;
 281              		.loc 1 223 0
 282 0000 4EF21003 		movw	r3, #57360	@ tmp139,
 283 0004 CEF20003 		movt	r3, 57344	@ tmp139,
 221:cmsis/device/misc.c ****   if (SysTick_CLKSource == SysTick_CLKSource_HCLK)
 284              		.loc 1 221 0
 285 0008 0428     		cmp	r0, #4	@ SysTick_CLKSource,
 286              		.loc 1 223 0
 287 000a 1A68     		ldr	r2, [r3, #0]	@ D.6530,
 288 000c 0CBF     		ite	eq
 289 000e 42F00402 		orreq	r2, r2, #4	@ D.6531, D.6530,
 224:cmsis/device/misc.c ****   }
 225:cmsis/device/misc.c ****   else
 226:cmsis/device/misc.c ****   {
 227:cmsis/device/misc.c ****     SysTick->CTRL &= SysTick_CLKSource_HCLK_Div8;
 290              		.loc 1 227 0
 291 0012 22F00402 		bicne	r2, r2, #4	@ D.6534, D.6533,
 292 0016 1A60     		str	r2, [r3, #0]	@ D.6534,
 293 0018 7047     		bx	lr	@
 294              		.cfi_endproc
 295              	.LFE114:
 296              		.size	SysTick_CLKSourceConfig, .-SysTick_CLKSourceConfig
 297 001a 00BF     		.text
 298              	.Letext0:
 299              		.file 2 "c:\\gnutoolsarmembedded\\4.7-2012q4\\bin\\../lib/gcc/arm-none-eabi/4.7.3/../../../../arm-
 300              		.file 3 "./cmsis/core/core_cm4.h"
 301              		.file 4 "cmsis/device/stm32f4xx.h"
 302              		.file 5 "cmsis/device/misc.h"
 303              		.section	.debug_info,"",%progbits
 304              	.Ldebug_info0:
 305 0000 94050000 		.4byte	0x594
 306 0004 0200     		.2byte	0x2
 307 0006 00000000 		.4byte	.Ldebug_abbrev0
 308 000a 04       		.byte	0x4
 309 000b 01       		.uleb128 0x1
 310 000c C5020000 		.4byte	.LASF68
 311 0010 01       		.byte	0x1
 312 0011 F9000000 		.4byte	.LASF69
 313 0015 87010000 		.4byte	.LASF70
 314 0019 00000000 		.4byte	.Ldebug_ranges0+0
ARM GAS  C:\Users\CNous\AppData\Local\Temp\cctm7WC3.s 			page 11


 315 001d 00000000 		.4byte	0
 316 0021 00000000 		.4byte	0
 317 0025 00000000 		.4byte	.Ldebug_line0
 318 0029 02       		.uleb128 0x2
 319 002a 01       		.byte	0x1
 320 002b 06       		.byte	0x6
 321 002c 3F010000 		.4byte	.LASF0
 322 0030 03       		.uleb128 0x3
 323 0031 9C000000 		.4byte	.LASF4
 324 0035 02       		.byte	0x2
 325 0036 2A       		.byte	0x2a
 326 0037 3B000000 		.4byte	0x3b
 327 003b 02       		.uleb128 0x2
 328 003c 01       		.byte	0x1
 329 003d 08       		.byte	0x8
 330 003e 13010000 		.4byte	.LASF1
 331 0042 02       		.uleb128 0x2
 332 0043 02       		.byte	0x2
 333 0044 05       		.byte	0x5
 334 0045 6D000000 		.4byte	.LASF2
 335 0049 02       		.uleb128 0x2
 336 004a 02       		.byte	0x2
 337 004b 07       		.byte	0x7
 338 004c E5010000 		.4byte	.LASF3
 339 0050 03       		.uleb128 0x3
 340 0051 09020000 		.4byte	.LASF5
 341 0055 02       		.byte	0x2
 342 0056 4F       		.byte	0x4f
 343 0057 5B000000 		.4byte	0x5b
 344 005b 02       		.uleb128 0x2
 345 005c 04       		.byte	0x4
 346 005d 05       		.byte	0x5
 347 005e EB000000 		.4byte	.LASF6
 348 0062 03       		.uleb128 0x3
 349 0063 00000000 		.4byte	.LASF7
 350 0067 02       		.byte	0x2
 351 0068 50       		.byte	0x50
 352 0069 6D000000 		.4byte	0x6d
 353 006d 02       		.uleb128 0x2
 354 006e 04       		.byte	0x4
 355 006f 07       		.byte	0x7
 356 0070 87020000 		.4byte	.LASF8
 357 0074 02       		.uleb128 0x2
 358 0075 08       		.byte	0x8
 359 0076 05       		.byte	0x5
 360 0077 D1000000 		.4byte	.LASF9
 361 007b 02       		.uleb128 0x2
 362 007c 08       		.byte	0x8
 363 007d 07       		.byte	0x7
 364 007e 4B010000 		.4byte	.LASF10
 365 0082 04       		.uleb128 0x4
 366 0083 04       		.byte	0x4
 367 0084 05       		.byte	0x5
 368 0085 696E7400 		.ascii	"int\000"
 369 0089 02       		.uleb128 0x2
 370 008a 04       		.byte	0x4
 371 008b 07       		.byte	0x7
ARM GAS  C:\Users\CNous\AppData\Local\Temp\cctm7WC3.s 			page 12


 372 008c 6E010000 		.4byte	.LASF11
 373 0090 05       		.uleb128 0x5
 374 0091 040E     		.2byte	0xe04
 375 0093 03       		.byte	0x3
 376 0094 2F01     		.2byte	0x12f
 377 0096 68010000 		.4byte	0x168
 378 009a 06       		.uleb128 0x6
 379 009b 97000000 		.4byte	.LASF12
 380 009f 03       		.byte	0x3
 381 00a0 3101     		.2byte	0x131
 382 00a2 7F010000 		.4byte	0x17f
 383 00a6 02       		.byte	0x2
 384 00a7 23       		.byte	0x23
 385 00a8 00       		.uleb128 0
 386 00a9 06       		.uleb128 0x6
 387 00aa 55020000 		.4byte	.LASF13
 388 00ae 03       		.byte	0x3
 389 00af 3201     		.2byte	0x132
 390 00b1 84010000 		.4byte	0x184
 391 00b5 02       		.byte	0x2
 392 00b6 23       		.byte	0x23
 393 00b7 20       		.uleb128 0x20
 394 00b8 06       		.uleb128 0x6
 395 00b9 7B010000 		.4byte	.LASF14
 396 00bd 03       		.byte	0x3
 397 00be 3301     		.2byte	0x133
 398 00c0 94010000 		.4byte	0x194
 399 00c4 03       		.byte	0x3
 400 00c5 23       		.byte	0x23
 401 00c6 8001     		.uleb128 0x80
 402 00c8 06       		.uleb128 0x6
 403 00c9 C8000000 		.4byte	.LASF15
 404 00cd 03       		.byte	0x3
 405 00ce 3401     		.2byte	0x134
 406 00d0 84010000 		.4byte	0x184
 407 00d4 03       		.byte	0x3
 408 00d5 23       		.byte	0x23
 409 00d6 A001     		.uleb128 0xa0
 410 00d8 06       		.uleb128 0x6
 411 00d9 16020000 		.4byte	.LASF16
 412 00dd 03       		.byte	0x3
 413 00de 3501     		.2byte	0x135
 414 00e0 99010000 		.4byte	0x199
 415 00e4 03       		.byte	0x3
 416 00e5 23       		.byte	0x23
 417 00e6 8002     		.uleb128 0x100
 418 00e8 06       		.uleb128 0x6
 419 00e9 5F020000 		.4byte	.LASF17
 420 00ed 03       		.byte	0x3
 421 00ee 3601     		.2byte	0x136
 422 00f0 84010000 		.4byte	0x184
 423 00f4 03       		.byte	0x3
 424 00f5 23       		.byte	0x23
 425 00f6 A002     		.uleb128 0x120
 426 00f8 06       		.uleb128 0x6
 427 00f9 3A010000 		.4byte	.LASF18
 428 00fd 03       		.byte	0x3
ARM GAS  C:\Users\CNous\AppData\Local\Temp\cctm7WC3.s 			page 13


 429 00fe 3701     		.2byte	0x137
 430 0100 9E010000 		.4byte	0x19e
 431 0104 03       		.byte	0x3
 432 0105 23       		.byte	0x23
 433 0106 8003     		.uleb128 0x180
 434 0108 06       		.uleb128 0x6
 435 0109 69020000 		.4byte	.LASF19
 436 010d 03       		.byte	0x3
 437 010e 3801     		.2byte	0x138
 438 0110 84010000 		.4byte	0x184
 439 0114 03       		.byte	0x3
 440 0115 23       		.byte	0x23
 441 0116 A003     		.uleb128 0x1a0
 442 0118 06       		.uleb128 0x6
 443 0119 09000000 		.4byte	.LASF20
 444 011d 03       		.byte	0x3
 445 011e 3901     		.2byte	0x139
 446 0120 A3010000 		.4byte	0x1a3
 447 0124 03       		.byte	0x3
 448 0125 23       		.byte	0x23
 449 0126 8004     		.uleb128 0x200
 450 0128 06       		.uleb128 0x6
 451 0129 73020000 		.4byte	.LASF21
 452 012d 03       		.byte	0x3
 453 012e 3A01     		.2byte	0x13a
 454 0130 A8010000 		.4byte	0x1a8
 455 0134 03       		.byte	0x3
 456 0135 23       		.byte	0x23
 457 0136 A004     		.uleb128 0x220
 458 0138 07       		.uleb128 0x7
 459 0139 495000   		.ascii	"IP\000"
 460 013c 03       		.byte	0x3
 461 013d 3B01     		.2byte	0x13b
 462 013f C8010000 		.4byte	0x1c8
 463 0143 03       		.byte	0x3
 464 0144 23       		.byte	0x23
 465 0145 8006     		.uleb128 0x300
 466 0147 06       		.uleb128 0x6
 467 0148 7D020000 		.4byte	.LASF22
 468 014c 03       		.byte	0x3
 469 014d 3C01     		.2byte	0x13c
 470 014f CD010000 		.4byte	0x1cd
 471 0153 03       		.byte	0x3
 472 0154 23       		.byte	0x23
 473 0155 F007     		.uleb128 0x3f0
 474 0157 06       		.uleb128 0x6
 475 0158 B6000000 		.4byte	.LASF23
 476 015c 03       		.byte	0x3
 477 015d 3D01     		.2byte	0x13d
 478 015f DE010000 		.4byte	0x1de
 479 0163 03       		.byte	0x3
 480 0164 23       		.byte	0x23
 481 0165 801C     		.uleb128 0xe00
 482 0167 00       		.byte	0
 483 0168 08       		.uleb128 0x8
 484 0169 62000000 		.4byte	0x62
 485 016d 78010000 		.4byte	0x178
ARM GAS  C:\Users\CNous\AppData\Local\Temp\cctm7WC3.s 			page 14


 486 0171 09       		.uleb128 0x9
 487 0172 78010000 		.4byte	0x178
 488 0176 07       		.byte	0x7
 489 0177 00       		.byte	0
 490 0178 02       		.uleb128 0x2
 491 0179 04       		.byte	0x4
 492 017a 07       		.byte	0x7
 493 017b 77000000 		.4byte	.LASF24
 494 017f 0A       		.uleb128 0xa
 495 0180 68010000 		.4byte	0x168
 496 0184 08       		.uleb128 0x8
 497 0185 62000000 		.4byte	0x62
 498 0189 94010000 		.4byte	0x194
 499 018d 09       		.uleb128 0x9
 500 018e 78010000 		.4byte	0x178
 501 0192 17       		.byte	0x17
 502 0193 00       		.byte	0
 503 0194 0A       		.uleb128 0xa
 504 0195 68010000 		.4byte	0x168
 505 0199 0A       		.uleb128 0xa
 506 019a 68010000 		.4byte	0x168
 507 019e 0A       		.uleb128 0xa
 508 019f 68010000 		.4byte	0x168
 509 01a3 0A       		.uleb128 0xa
 510 01a4 68010000 		.4byte	0x168
 511 01a8 08       		.uleb128 0x8
 512 01a9 62000000 		.4byte	0x62
 513 01ad B8010000 		.4byte	0x1b8
 514 01b1 09       		.uleb128 0x9
 515 01b2 78010000 		.4byte	0x178
 516 01b6 37       		.byte	0x37
 517 01b7 00       		.byte	0
 518 01b8 08       		.uleb128 0x8
 519 01b9 30000000 		.4byte	0x30
 520 01bd C8010000 		.4byte	0x1c8
 521 01c1 09       		.uleb128 0x9
 522 01c2 78010000 		.4byte	0x178
 523 01c6 EF       		.byte	0xef
 524 01c7 00       		.byte	0
 525 01c8 0A       		.uleb128 0xa
 526 01c9 B8010000 		.4byte	0x1b8
 527 01cd 08       		.uleb128 0x8
 528 01ce 62000000 		.4byte	0x62
 529 01d2 DE010000 		.4byte	0x1de
 530 01d6 0B       		.uleb128 0xb
 531 01d7 78010000 		.4byte	0x178
 532 01db 8302     		.2byte	0x283
 533 01dd 00       		.byte	0
 534 01de 0A       		.uleb128 0xa
 535 01df 62000000 		.4byte	0x62
 536 01e3 0C       		.uleb128 0xc
 537 01e4 99020000 		.4byte	.LASF25
 538 01e8 03       		.byte	0x3
 539 01e9 3E01     		.2byte	0x13e
 540 01eb 90000000 		.4byte	0x90
 541 01ef 0D       		.uleb128 0xd
 542 01f0 8C       		.byte	0x8c
ARM GAS  C:\Users\CNous\AppData\Local\Temp\cctm7WC3.s 			page 15


 543 01f1 03       		.byte	0x3
 544 01f2 4F01     		.2byte	0x14f
 545 01f4 35030000 		.4byte	0x335
 546 01f8 06       		.uleb128 0x6
 547 01f9 91000000 		.4byte	.LASF26
 548 01fd 03       		.byte	0x3
 549 01fe 5101     		.2byte	0x151
 550 0200 35030000 		.4byte	0x335
 551 0204 02       		.byte	0x2
 552 0205 23       		.byte	0x23
 553 0206 00       		.uleb128 0
 554 0207 06       		.uleb128 0x6
 555 0208 C3000000 		.4byte	.LASF27
 556 020c 03       		.byte	0x3
 557 020d 5201     		.2byte	0x152
 558 020f DE010000 		.4byte	0x1de
 559 0213 02       		.byte	0x2
 560 0214 23       		.byte	0x23
 561 0215 04       		.uleb128 0x4
 562 0216 06       		.uleb128 0x6
 563 0217 04020000 		.4byte	.LASF28
 564 021b 03       		.byte	0x3
 565 021c 5301     		.2byte	0x153
 566 021e DE010000 		.4byte	0x1de
 567 0222 02       		.byte	0x2
 568 0223 23       		.byte	0x23
 569 0224 08       		.uleb128 0x8
 570 0225 06       		.uleb128 0x6
 571 0226 0D010000 		.4byte	.LASF29
 572 022a 03       		.byte	0x3
 573 022b 5401     		.2byte	0x154
 574 022d DE010000 		.4byte	0x1de
 575 0231 02       		.byte	0x2
 576 0232 23       		.byte	0x23
 577 0233 0C       		.uleb128 0xc
 578 0234 07       		.uleb128 0x7
 579 0235 53435200 		.ascii	"SCR\000"
 580 0239 03       		.byte	0x3
 581 023a 5501     		.2byte	0x155
 582 023c DE010000 		.4byte	0x1de
 583 0240 02       		.byte	0x2
 584 0241 23       		.byte	0x23
 585 0242 10       		.uleb128 0x10
 586 0243 07       		.uleb128 0x7
 587 0244 43435200 		.ascii	"CCR\000"
 588 0248 03       		.byte	0x3
 589 0249 5601     		.2byte	0x156
 590 024b DE010000 		.4byte	0x1de
 591 024f 02       		.byte	0x2
 592 0250 23       		.byte	0x23
 593 0251 14       		.uleb128 0x14
 594 0252 07       		.uleb128 0x7
 595 0253 53485000 		.ascii	"SHP\000"
 596 0257 03       		.byte	0x3
 597 0258 5701     		.2byte	0x157
 598 025a 4A030000 		.4byte	0x34a
 599 025e 02       		.byte	0x2
ARM GAS  C:\Users\CNous\AppData\Local\Temp\cctm7WC3.s 			page 16


 600 025f 23       		.byte	0x23
 601 0260 18       		.uleb128 0x18
 602 0261 06       		.uleb128 0x6
 603 0262 68010000 		.4byte	.LASF30
 604 0266 03       		.byte	0x3
 605 0267 5801     		.2byte	0x158
 606 0269 DE010000 		.4byte	0x1de
 607 026d 02       		.byte	0x2
 608 026e 23       		.byte	0x23
 609 026f 24       		.uleb128 0x24
 610 0270 06       		.uleb128 0x6
 611 0271 F4000000 		.4byte	.LASF31
 612 0275 03       		.byte	0x3
 613 0276 5901     		.2byte	0x159
 614 0278 DE010000 		.4byte	0x1de
 615 027c 02       		.byte	0x2
 616 027d 23       		.byte	0x23
 617 027e 28       		.uleb128 0x28
 618 027f 06       		.uleb128 0x6
 619 0280 4B020000 		.4byte	.LASF32
 620 0284 03       		.byte	0x3
 621 0285 5A01     		.2byte	0x15a
 622 0287 DE010000 		.4byte	0x1de
 623 028b 02       		.byte	0x2
 624 028c 23       		.byte	0x23
 625 028d 2C       		.uleb128 0x2c
 626 028e 06       		.uleb128 0x6
 627 028f 1B020000 		.4byte	.LASF33
 628 0293 03       		.byte	0x3
 629 0294 5B01     		.2byte	0x15b
 630 0296 DE010000 		.4byte	0x1de
 631 029a 02       		.byte	0x2
 632 029b 23       		.byte	0x23
 633 029c 30       		.uleb128 0x30
 634 029d 06       		.uleb128 0x6
 635 029e 67000000 		.4byte	.LASF34
 636 02a2 03       		.byte	0x3
 637 02a3 5C01     		.2byte	0x15c
 638 02a5 DE010000 		.4byte	0x1de
 639 02a9 02       		.byte	0x2
 640 02aa 23       		.byte	0x23
 641 02ab 34       		.uleb128 0x34
 642 02ac 06       		.uleb128 0x6
 643 02ad E6000000 		.4byte	.LASF35
 644 02b1 03       		.byte	0x3
 645 02b2 5D01     		.2byte	0x15d
 646 02b4 DE010000 		.4byte	0x1de
 647 02b8 02       		.byte	0x2
 648 02b9 23       		.byte	0x23
 649 02ba 38       		.uleb128 0x38
 650 02bb 06       		.uleb128 0x6
 651 02bc 30030000 		.4byte	.LASF36
 652 02c0 03       		.byte	0x3
 653 02c1 5E01     		.2byte	0x15e
 654 02c3 DE010000 		.4byte	0x1de
 655 02c7 02       		.byte	0x2
 656 02c8 23       		.byte	0x23
ARM GAS  C:\Users\CNous\AppData\Local\Temp\cctm7WC3.s 			page 17


 657 02c9 3C       		.uleb128 0x3c
 658 02ca 07       		.uleb128 0x7
 659 02cb 50465200 		.ascii	"PFR\000"
 660 02cf 03       		.byte	0x3
 661 02d0 5F01     		.2byte	0x15f
 662 02d2 5F030000 		.4byte	0x35f
 663 02d6 02       		.byte	0x2
 664 02d7 23       		.byte	0x23
 665 02d8 40       		.uleb128 0x40
 666 02d9 07       		.uleb128 0x7
 667 02da 44465200 		.ascii	"DFR\000"
 668 02de 03       		.byte	0x3
 669 02df 6001     		.2byte	0x160
 670 02e1 35030000 		.4byte	0x335
 671 02e5 02       		.byte	0x2
 672 02e6 23       		.byte	0x23
 673 02e7 48       		.uleb128 0x48
 674 02e8 07       		.uleb128 0x7
 675 02e9 41445200 		.ascii	"ADR\000"
 676 02ed 03       		.byte	0x3
 677 02ee 6101     		.2byte	0x161
 678 02f0 35030000 		.4byte	0x335
 679 02f4 02       		.byte	0x2
 680 02f5 23       		.byte	0x23
 681 02f6 4C       		.uleb128 0x4c
 682 02f7 06       		.uleb128 0x6
 683 02f8 50020000 		.4byte	.LASF37
 684 02fc 03       		.byte	0x3
 685 02fd 6201     		.2byte	0x162
 686 02ff 79030000 		.4byte	0x379
 687 0303 02       		.byte	0x2
 688 0304 23       		.byte	0x23
 689 0305 50       		.uleb128 0x50
 690 0306 06       		.uleb128 0x6
 691 0307 11020000 		.4byte	.LASF38
 692 030b 03       		.byte	0x3
 693 030c 6301     		.2byte	0x163
 694 030e 93030000 		.4byte	0x393
 695 0312 02       		.byte	0x2
 696 0313 23       		.byte	0x23
 697 0314 60       		.uleb128 0x60
 698 0315 06       		.uleb128 0x6
 699 0316 55020000 		.4byte	.LASF13
 700 031a 03       		.byte	0x3
 701 031b 6401     		.2byte	0x164
 702 031d 83030000 		.4byte	0x383
 703 0321 02       		.byte	0x2
 704 0322 23       		.byte	0x23
 705 0323 74       		.uleb128 0x74
 706 0324 06       		.uleb128 0x6
 707 0325 4F030000 		.4byte	.LASF39
 708 0329 03       		.byte	0x3
 709 032a 6501     		.2byte	0x165
 710 032c DE010000 		.4byte	0x1de
 711 0330 03       		.byte	0x3
 712 0331 23       		.byte	0x23
 713 0332 8801     		.uleb128 0x88
ARM GAS  C:\Users\CNous\AppData\Local\Temp\cctm7WC3.s 			page 18


 714 0334 00       		.byte	0
 715 0335 0E       		.uleb128 0xe
 716 0336 DE010000 		.4byte	0x1de
 717 033a 08       		.uleb128 0x8
 718 033b 30000000 		.4byte	0x30
 719 033f 4A030000 		.4byte	0x34a
 720 0343 09       		.uleb128 0x9
 721 0344 78010000 		.4byte	0x178
 722 0348 0B       		.byte	0xb
 723 0349 00       		.byte	0
 724 034a 0A       		.uleb128 0xa
 725 034b 3A030000 		.4byte	0x33a
 726 034f 08       		.uleb128 0x8
 727 0350 62000000 		.4byte	0x62
 728 0354 5F030000 		.4byte	0x35f
 729 0358 09       		.uleb128 0x9
 730 0359 78010000 		.4byte	0x178
 731 035d 01       		.byte	0x1
 732 035e 00       		.byte	0
 733 035f 0E       		.uleb128 0xe
 734 0360 64030000 		.4byte	0x364
 735 0364 0A       		.uleb128 0xa
 736 0365 4F030000 		.4byte	0x34f
 737 0369 08       		.uleb128 0x8
 738 036a 62000000 		.4byte	0x62
 739 036e 79030000 		.4byte	0x379
 740 0372 09       		.uleb128 0x9
 741 0373 78010000 		.4byte	0x178
 742 0377 03       		.byte	0x3
 743 0378 00       		.byte	0
 744 0379 0E       		.uleb128 0xe
 745 037a 7E030000 		.4byte	0x37e
 746 037e 0A       		.uleb128 0xa
 747 037f 69030000 		.4byte	0x369
 748 0383 08       		.uleb128 0x8
 749 0384 62000000 		.4byte	0x62
 750 0388 93030000 		.4byte	0x393
 751 038c 09       		.uleb128 0x9
 752 038d 78010000 		.4byte	0x178
 753 0391 04       		.byte	0x4
 754 0392 00       		.byte	0
 755 0393 0E       		.uleb128 0xe
 756 0394 98030000 		.4byte	0x398
 757 0398 0A       		.uleb128 0xa
 758 0399 83030000 		.4byte	0x383
 759 039d 0C       		.uleb128 0xc
 760 039e A4000000 		.4byte	.LASF40
 761 03a2 03       		.byte	0x3
 762 03a3 6601     		.2byte	0x166
 763 03a5 EF010000 		.4byte	0x1ef
 764 03a9 0D       		.uleb128 0xd
 765 03aa 10       		.byte	0x10
 766 03ab 03       		.byte	0x3
 767 03ac 4E02     		.2byte	0x24e
 768 03ae EF030000 		.4byte	0x3ef
 769 03b2 06       		.uleb128 0x6
 770 03b3 21010000 		.4byte	.LASF41
ARM GAS  C:\Users\CNous\AppData\Local\Temp\cctm7WC3.s 			page 19


 771 03b7 03       		.byte	0x3
 772 03b8 5002     		.2byte	0x250
 773 03ba DE010000 		.4byte	0x1de
 774 03be 02       		.byte	0x2
 775 03bf 23       		.byte	0x23
 776 03c0 00       		.uleb128 0
 777 03c1 06       		.uleb128 0x6
 778 03c2 2B030000 		.4byte	.LASF42
 779 03c6 03       		.byte	0x3
 780 03c7 5102     		.2byte	0x251
 781 03c9 DE010000 		.4byte	0x1de
 782 03cd 02       		.byte	0x2
 783 03ce 23       		.byte	0x23
 784 03cf 04       		.uleb128 0x4
 785 03d0 07       		.uleb128 0x7
 786 03d1 56414C00 		.ascii	"VAL\000"
 787 03d5 03       		.byte	0x3
 788 03d6 5202     		.2byte	0x252
 789 03d8 DE010000 		.4byte	0x1de
 790 03dc 02       		.byte	0x2
 791 03dd 23       		.byte	0x23
 792 03de 08       		.uleb128 0x8
 793 03df 06       		.uleb128 0x6
 794 03e0 62010000 		.4byte	.LASF43
 795 03e4 03       		.byte	0x3
 796 03e5 5302     		.2byte	0x253
 797 03e7 35030000 		.4byte	0x335
 798 03eb 02       		.byte	0x2
 799 03ec 23       		.byte	0x23
 800 03ed 0C       		.uleb128 0xc
 801 03ee 00       		.byte	0
 802 03ef 0C       		.uleb128 0xc
 803 03f0 D8010000 		.4byte	.LASF44
 804 03f4 03       		.byte	0x3
 805 03f5 5402     		.2byte	0x254
 806 03f7 A9030000 		.4byte	0x3a9
 807 03fb 0A       		.uleb128 0xa
 808 03fc 50000000 		.4byte	0x50
 809 0400 0F       		.uleb128 0xf
 810 0401 01       		.byte	0x1
 811 0402 04       		.byte	0x4
 812 0403 1A01     		.2byte	0x11a
 813 0405 16040000 		.4byte	0x416
 814 0409 10       		.uleb128 0x10
 815 040a BB000000 		.4byte	.LASF45
 816 040e 00       		.sleb128 0
 817 040f 10       		.uleb128 0x10
 818 0410 55030000 		.4byte	.LASF46
 819 0414 01       		.sleb128 1
 820 0415 00       		.byte	0
 821 0416 0C       		.uleb128 0xc
 822 0417 0E030000 		.4byte	.LASF47
 823 041b 04       		.byte	0x4
 824 041c 1A01     		.2byte	0x11a
 825 041e 00040000 		.4byte	0x400
 826 0422 11       		.uleb128 0x11
 827 0423 04       		.byte	0x4
ARM GAS  C:\Users\CNous\AppData\Local\Temp\cctm7WC3.s 			page 20


 828 0424 05       		.byte	0x5
 829 0425 30       		.byte	0x30
 830 0426 63040000 		.4byte	0x463
 831 042a 12       		.uleb128 0x12
 832 042b 20020000 		.4byte	.LASF48
 833 042f 05       		.byte	0x5
 834 0430 32       		.byte	0x32
 835 0431 30000000 		.4byte	0x30
 836 0435 02       		.byte	0x2
 837 0436 23       		.byte	0x23
 838 0437 00       		.uleb128 0
 839 0438 12       		.uleb128 0x12
 840 0439 A3020000 		.4byte	.LASF49
 841 043d 05       		.byte	0x5
 842 043e 37       		.byte	0x37
 843 043f 30000000 		.4byte	0x30
 844 0443 02       		.byte	0x2
 845 0444 23       		.byte	0x23
 846 0445 01       		.uleb128 0x1
 847 0446 12       		.uleb128 0x12
 848 0447 30020000 		.4byte	.LASF50
 849 044b 05       		.byte	0x5
 850 044c 3C       		.byte	0x3c
 851 044d 30000000 		.4byte	0x30
 852 0451 02       		.byte	0x2
 853 0452 23       		.byte	0x23
 854 0453 02       		.uleb128 0x2
 855 0454 12       		.uleb128 0x12
 856 0455 1F000000 		.4byte	.LASF51
 857 0459 05       		.byte	0x5
 858 045a 41       		.byte	0x41
 859 045b 16040000 		.4byte	0x416
 860 045f 02       		.byte	0x2
 861 0460 23       		.byte	0x23
 862 0461 03       		.uleb128 0x3
 863 0462 00       		.byte	0
 864 0463 03       		.uleb128 0x3
 865 0464 0E000000 		.4byte	.LASF52
 866 0468 05       		.byte	0x5
 867 0469 44       		.byte	0x44
 868 046a 22040000 		.4byte	0x422
 869 046e 13       		.uleb128 0x13
 870 046f 01       		.byte	0x1
 871 0470 5C030000 		.4byte	.LASF53
 872 0474 01       		.byte	0x1
 873 0475 70       		.byte	0x70
 874 0476 01       		.byte	0x1
 875 0477 00000000 		.4byte	.LFB110
 876 047b 14000000 		.4byte	.LFE110
 877 047f 02       		.byte	0x2
 878 0480 7D       		.byte	0x7d
 879 0481 00       		.sleb128 0
 880 0482 01       		.byte	0x1
 881 0483 97040000 		.4byte	0x497
 882 0487 14       		.uleb128 0x14
 883 0488 54000000 		.4byte	.LASF55
 884 048c 01       		.byte	0x1
ARM GAS  C:\Users\CNous\AppData\Local\Temp\cctm7WC3.s 			page 21


 885 048d 70       		.byte	0x70
 886 048e 62000000 		.4byte	0x62
 887 0492 00000000 		.4byte	.LLST0
 888 0496 00       		.byte	0
 889 0497 15       		.uleb128 0x15
 890 0498 01       		.byte	0x1
 891 0499 80000000 		.4byte	.LASF54
 892 049d 01       		.byte	0x1
 893 049e 82       		.byte	0x82
 894 049f 01       		.byte	0x1
 895 04a0 00000000 		.4byte	.LFB111
 896 04a4 7E000000 		.4byte	.LFE111
 897 04a8 21000000 		.4byte	.LLST1
 898 04ac 01       		.byte	0x1
 899 04ad EE040000 		.4byte	0x4ee
 900 04b1 14       		.uleb128 0x14
 901 04b2 44000000 		.4byte	.LASF56
 902 04b6 01       		.byte	0x1
 903 04b7 82       		.byte	0x82
 904 04b8 EE040000 		.4byte	0x4ee
 905 04bc 41000000 		.4byte	.LLST2
 906 04c0 16       		.uleb128 0x16
 907 04c1 F8010000 		.4byte	.LASF57
 908 04c5 01       		.byte	0x1
 909 04c6 84       		.byte	0x84
 910 04c7 30000000 		.4byte	0x30
 911 04cb 7B000000 		.4byte	.LLST3
 912 04cf 16       		.uleb128 0x16
 913 04d0 8A000000 		.4byte	.LASF58
 914 04d4 01       		.byte	0x1
 915 04d5 84       		.byte	0x84
 916 04d6 30000000 		.4byte	0x30
 917 04da D2000000 		.4byte	.LLST4
 918 04de 16       		.uleb128 0x16
 919 04df 80010000 		.4byte	.LASF59
 920 04e3 01       		.byte	0x1
 921 04e4 84       		.byte	0x84
 922 04e5 30000000 		.4byte	0x30
 923 04e9 01010000 		.4byte	.LLST5
 924 04ed 00       		.byte	0
 925 04ee 17       		.uleb128 0x17
 926 04ef 04       		.byte	0x4
 927 04f0 63040000 		.4byte	0x463
 928 04f4 13       		.uleb128 0x13
 929 04f5 01       		.byte	0x1
 930 04f6 26010000 		.4byte	.LASF60
 931 04fa 01       		.byte	0x1
 932 04fb AE       		.byte	0xae
 933 04fc 01       		.byte	0x1
 934 04fd 00000000 		.4byte	.LFB112
 935 0501 16000000 		.4byte	.LFE112
 936 0505 02       		.byte	0x2
 937 0506 7D       		.byte	0x7d
 938 0507 00       		.sleb128 0
 939 0508 01       		.byte	0x1
 940 0509 2C050000 		.4byte	0x52c
 941 050d 14       		.uleb128 0x14
ARM GAS  C:\Users\CNous\AppData\Local\Temp\cctm7WC3.s 			page 22


 942 050e 1E030000 		.4byte	.LASF61
 943 0512 01       		.byte	0x1
 944 0513 AE       		.byte	0xae
 945 0514 62000000 		.4byte	0x62
 946 0518 30010000 		.4byte	.LLST6
 947 051c 14       		.uleb128 0x14
 948 051d DF000000 		.4byte	.LASF62
 949 0521 01       		.byte	0x1
 950 0522 AE       		.byte	0xae
 951 0523 62000000 		.4byte	0x62
 952 0527 51010000 		.4byte	.LLST7
 953 052b 00       		.byte	0
 954 052c 13       		.uleb128 0x13
 955 052d 01       		.byte	0x1
 956 052e AC010000 		.4byte	.LASF63
 957 0532 01       		.byte	0x1
 958 0533 C1       		.byte	0xc1
 959 0534 01       		.byte	0x1
 960 0535 00000000 		.4byte	.LFB113
 961 0539 1A000000 		.4byte	.LFE113
 962 053d 02       		.byte	0x2
 963 053e 7D       		.byte	0x7d
 964 053f 00       		.sleb128 0
 965 0540 01       		.byte	0x1
 966 0541 62050000 		.4byte	0x562
 967 0545 14       		.uleb128 0x14
 968 0546 35030000 		.4byte	.LASF64
 969 054a 01       		.byte	0x1
 970 054b C1       		.byte	0xc1
 971 054c 30000000 		.4byte	0x30
 972 0550 72010000 		.4byte	.LLST8
 973 0554 18       		.uleb128 0x18
 974 0555 AD000000 		.4byte	.LASF65
 975 0559 01       		.byte	0x1
 976 055a C1       		.byte	0xc1
 977 055b 16040000 		.4byte	0x416
 978 055f 01       		.byte	0x1
 979 0560 51       		.byte	0x51
 980 0561 00       		.byte	0
 981 0562 13       		.uleb128 0x13
 982 0563 01       		.byte	0x1
 983 0564 C0010000 		.4byte	.LASF66
 984 0568 01       		.byte	0x1
 985 0569 D9       		.byte	0xd9
 986 056a 01       		.byte	0x1
 987 056b 00000000 		.4byte	.LFB114
 988 056f 1A000000 		.4byte	.LFE114
 989 0573 02       		.byte	0x2
 990 0574 7D       		.byte	0x7d
 991 0575 00       		.sleb128 0
 992 0576 01       		.byte	0x1
 993 0577 89050000 		.4byte	0x589
 994 057b 18       		.uleb128 0x18
 995 057c 32000000 		.4byte	.LASF67
 996 0580 01       		.byte	0x1
 997 0581 D9       		.byte	0xd9
 998 0582 62000000 		.4byte	0x62
ARM GAS  C:\Users\CNous\AppData\Local\Temp\cctm7WC3.s 			page 23


 999 0586 01       		.byte	0x1
 1000 0587 50       		.byte	0x50
 1001 0588 00       		.byte	0
 1002 0589 19       		.uleb128 0x19
 1003 058a 42030000 		.4byte	.LASF71
 1004 058e 03       		.byte	0x3
 1005 058f 1A05     		.2byte	0x51a
 1006 0591 FB030000 		.4byte	0x3fb
 1007 0595 01       		.byte	0x1
 1008 0596 01       		.byte	0x1
 1009 0597 00       		.byte	0
 1010              		.section	.debug_abbrev,"",%progbits
 1011              	.Ldebug_abbrev0:
 1012 0000 01       		.uleb128 0x1
 1013 0001 11       		.uleb128 0x11
 1014 0002 01       		.byte	0x1
 1015 0003 25       		.uleb128 0x25
 1016 0004 0E       		.uleb128 0xe
 1017 0005 13       		.uleb128 0x13
 1018 0006 0B       		.uleb128 0xb
 1019 0007 03       		.uleb128 0x3
 1020 0008 0E       		.uleb128 0xe
 1021 0009 1B       		.uleb128 0x1b
 1022 000a 0E       		.uleb128 0xe
 1023 000b 55       		.uleb128 0x55
 1024 000c 06       		.uleb128 0x6
 1025 000d 11       		.uleb128 0x11
 1026 000e 01       		.uleb128 0x1
 1027 000f 52       		.uleb128 0x52
 1028 0010 01       		.uleb128 0x1
 1029 0011 10       		.uleb128 0x10
 1030 0012 06       		.uleb128 0x6
 1031 0013 00       		.byte	0
 1032 0014 00       		.byte	0
 1033 0015 02       		.uleb128 0x2
 1034 0016 24       		.uleb128 0x24
 1035 0017 00       		.byte	0
 1036 0018 0B       		.uleb128 0xb
 1037 0019 0B       		.uleb128 0xb
 1038 001a 3E       		.uleb128 0x3e
 1039 001b 0B       		.uleb128 0xb
 1040 001c 03       		.uleb128 0x3
 1041 001d 0E       		.uleb128 0xe
 1042 001e 00       		.byte	0
 1043 001f 00       		.byte	0
 1044 0020 03       		.uleb128 0x3
 1045 0021 16       		.uleb128 0x16
 1046 0022 00       		.byte	0
 1047 0023 03       		.uleb128 0x3
 1048 0024 0E       		.uleb128 0xe
 1049 0025 3A       		.uleb128 0x3a
 1050 0026 0B       		.uleb128 0xb
 1051 0027 3B       		.uleb128 0x3b
 1052 0028 0B       		.uleb128 0xb
 1053 0029 49       		.uleb128 0x49
 1054 002a 13       		.uleb128 0x13
 1055 002b 00       		.byte	0
ARM GAS  C:\Users\CNous\AppData\Local\Temp\cctm7WC3.s 			page 24


 1056 002c 00       		.byte	0
 1057 002d 04       		.uleb128 0x4
 1058 002e 24       		.uleb128 0x24
 1059 002f 00       		.byte	0
 1060 0030 0B       		.uleb128 0xb
 1061 0031 0B       		.uleb128 0xb
 1062 0032 3E       		.uleb128 0x3e
 1063 0033 0B       		.uleb128 0xb
 1064 0034 03       		.uleb128 0x3
 1065 0035 08       		.uleb128 0x8
 1066 0036 00       		.byte	0
 1067 0037 00       		.byte	0
 1068 0038 05       		.uleb128 0x5
 1069 0039 13       		.uleb128 0x13
 1070 003a 01       		.byte	0x1
 1071 003b 0B       		.uleb128 0xb
 1072 003c 05       		.uleb128 0x5
 1073 003d 3A       		.uleb128 0x3a
 1074 003e 0B       		.uleb128 0xb
 1075 003f 3B       		.uleb128 0x3b
 1076 0040 05       		.uleb128 0x5
 1077 0041 01       		.uleb128 0x1
 1078 0042 13       		.uleb128 0x13
 1079 0043 00       		.byte	0
 1080 0044 00       		.byte	0
 1081 0045 06       		.uleb128 0x6
 1082 0046 0D       		.uleb128 0xd
 1083 0047 00       		.byte	0
 1084 0048 03       		.uleb128 0x3
 1085 0049 0E       		.uleb128 0xe
 1086 004a 3A       		.uleb128 0x3a
 1087 004b 0B       		.uleb128 0xb
 1088 004c 3B       		.uleb128 0x3b
 1089 004d 05       		.uleb128 0x5
 1090 004e 49       		.uleb128 0x49
 1091 004f 13       		.uleb128 0x13
 1092 0050 38       		.uleb128 0x38
 1093 0051 0A       		.uleb128 0xa
 1094 0052 00       		.byte	0
 1095 0053 00       		.byte	0
 1096 0054 07       		.uleb128 0x7
 1097 0055 0D       		.uleb128 0xd
 1098 0056 00       		.byte	0
 1099 0057 03       		.uleb128 0x3
 1100 0058 08       		.uleb128 0x8
 1101 0059 3A       		.uleb128 0x3a
 1102 005a 0B       		.uleb128 0xb
 1103 005b 3B       		.uleb128 0x3b
 1104 005c 05       		.uleb128 0x5
 1105 005d 49       		.uleb128 0x49
 1106 005e 13       		.uleb128 0x13
 1107 005f 38       		.uleb128 0x38
 1108 0060 0A       		.uleb128 0xa
 1109 0061 00       		.byte	0
 1110 0062 00       		.byte	0
 1111 0063 08       		.uleb128 0x8
 1112 0064 01       		.uleb128 0x1
ARM GAS  C:\Users\CNous\AppData\Local\Temp\cctm7WC3.s 			page 25


 1113 0065 01       		.byte	0x1
 1114 0066 49       		.uleb128 0x49
 1115 0067 13       		.uleb128 0x13
 1116 0068 01       		.uleb128 0x1
 1117 0069 13       		.uleb128 0x13
 1118 006a 00       		.byte	0
 1119 006b 00       		.byte	0
 1120 006c 09       		.uleb128 0x9
 1121 006d 21       		.uleb128 0x21
 1122 006e 00       		.byte	0
 1123 006f 49       		.uleb128 0x49
 1124 0070 13       		.uleb128 0x13
 1125 0071 2F       		.uleb128 0x2f
 1126 0072 0B       		.uleb128 0xb
 1127 0073 00       		.byte	0
 1128 0074 00       		.byte	0
 1129 0075 0A       		.uleb128 0xa
 1130 0076 35       		.uleb128 0x35
 1131 0077 00       		.byte	0
 1132 0078 49       		.uleb128 0x49
 1133 0079 13       		.uleb128 0x13
 1134 007a 00       		.byte	0
 1135 007b 00       		.byte	0
 1136 007c 0B       		.uleb128 0xb
 1137 007d 21       		.uleb128 0x21
 1138 007e 00       		.byte	0
 1139 007f 49       		.uleb128 0x49
 1140 0080 13       		.uleb128 0x13
 1141 0081 2F       		.uleb128 0x2f
 1142 0082 05       		.uleb128 0x5
 1143 0083 00       		.byte	0
 1144 0084 00       		.byte	0
 1145 0085 0C       		.uleb128 0xc
 1146 0086 16       		.uleb128 0x16
 1147 0087 00       		.byte	0
 1148 0088 03       		.uleb128 0x3
 1149 0089 0E       		.uleb128 0xe
 1150 008a 3A       		.uleb128 0x3a
 1151 008b 0B       		.uleb128 0xb
 1152 008c 3B       		.uleb128 0x3b
 1153 008d 05       		.uleb128 0x5
 1154 008e 49       		.uleb128 0x49
 1155 008f 13       		.uleb128 0x13
 1156 0090 00       		.byte	0
 1157 0091 00       		.byte	0
 1158 0092 0D       		.uleb128 0xd
 1159 0093 13       		.uleb128 0x13
 1160 0094 01       		.byte	0x1
 1161 0095 0B       		.uleb128 0xb
 1162 0096 0B       		.uleb128 0xb
 1163 0097 3A       		.uleb128 0x3a
 1164 0098 0B       		.uleb128 0xb
 1165 0099 3B       		.uleb128 0x3b
 1166 009a 05       		.uleb128 0x5
 1167 009b 01       		.uleb128 0x1
 1168 009c 13       		.uleb128 0x13
 1169 009d 00       		.byte	0
ARM GAS  C:\Users\CNous\AppData\Local\Temp\cctm7WC3.s 			page 26


 1170 009e 00       		.byte	0
 1171 009f 0E       		.uleb128 0xe
 1172 00a0 26       		.uleb128 0x26
 1173 00a1 00       		.byte	0
 1174 00a2 49       		.uleb128 0x49
 1175 00a3 13       		.uleb128 0x13
 1176 00a4 00       		.byte	0
 1177 00a5 00       		.byte	0
 1178 00a6 0F       		.uleb128 0xf
 1179 00a7 04       		.uleb128 0x4
 1180 00a8 01       		.byte	0x1
 1181 00a9 0B       		.uleb128 0xb
 1182 00aa 0B       		.uleb128 0xb
 1183 00ab 3A       		.uleb128 0x3a
 1184 00ac 0B       		.uleb128 0xb
 1185 00ad 3B       		.uleb128 0x3b
 1186 00ae 05       		.uleb128 0x5
 1187 00af 01       		.uleb128 0x1
 1188 00b0 13       		.uleb128 0x13
 1189 00b1 00       		.byte	0
 1190 00b2 00       		.byte	0
 1191 00b3 10       		.uleb128 0x10
 1192 00b4 28       		.uleb128 0x28
 1193 00b5 00       		.byte	0
 1194 00b6 03       		.uleb128 0x3
 1195 00b7 0E       		.uleb128 0xe
 1196 00b8 1C       		.uleb128 0x1c
 1197 00b9 0D       		.uleb128 0xd
 1198 00ba 00       		.byte	0
 1199 00bb 00       		.byte	0
 1200 00bc 11       		.uleb128 0x11
 1201 00bd 13       		.uleb128 0x13
 1202 00be 01       		.byte	0x1
 1203 00bf 0B       		.uleb128 0xb
 1204 00c0 0B       		.uleb128 0xb
 1205 00c1 3A       		.uleb128 0x3a
 1206 00c2 0B       		.uleb128 0xb
 1207 00c3 3B       		.uleb128 0x3b
 1208 00c4 0B       		.uleb128 0xb
 1209 00c5 01       		.uleb128 0x1
 1210 00c6 13       		.uleb128 0x13
 1211 00c7 00       		.byte	0
 1212 00c8 00       		.byte	0
 1213 00c9 12       		.uleb128 0x12
 1214 00ca 0D       		.uleb128 0xd
 1215 00cb 00       		.byte	0
 1216 00cc 03       		.uleb128 0x3
 1217 00cd 0E       		.uleb128 0xe
 1218 00ce 3A       		.uleb128 0x3a
 1219 00cf 0B       		.uleb128 0xb
 1220 00d0 3B       		.uleb128 0x3b
 1221 00d1 0B       		.uleb128 0xb
 1222 00d2 49       		.uleb128 0x49
 1223 00d3 13       		.uleb128 0x13
 1224 00d4 38       		.uleb128 0x38
 1225 00d5 0A       		.uleb128 0xa
 1226 00d6 00       		.byte	0
ARM GAS  C:\Users\CNous\AppData\Local\Temp\cctm7WC3.s 			page 27


 1227 00d7 00       		.byte	0
 1228 00d8 13       		.uleb128 0x13
 1229 00d9 2E       		.uleb128 0x2e
 1230 00da 01       		.byte	0x1
 1231 00db 3F       		.uleb128 0x3f
 1232 00dc 0C       		.uleb128 0xc
 1233 00dd 03       		.uleb128 0x3
 1234 00de 0E       		.uleb128 0xe
 1235 00df 3A       		.uleb128 0x3a
 1236 00e0 0B       		.uleb128 0xb
 1237 00e1 3B       		.uleb128 0x3b
 1238 00e2 0B       		.uleb128 0xb
 1239 00e3 27       		.uleb128 0x27
 1240 00e4 0C       		.uleb128 0xc
 1241 00e5 11       		.uleb128 0x11
 1242 00e6 01       		.uleb128 0x1
 1243 00e7 12       		.uleb128 0x12
 1244 00e8 01       		.uleb128 0x1
 1245 00e9 40       		.uleb128 0x40
 1246 00ea 0A       		.uleb128 0xa
 1247 00eb 9742     		.uleb128 0x2117
 1248 00ed 0C       		.uleb128 0xc
 1249 00ee 01       		.uleb128 0x1
 1250 00ef 13       		.uleb128 0x13
 1251 00f0 00       		.byte	0
 1252 00f1 00       		.byte	0
 1253 00f2 14       		.uleb128 0x14
 1254 00f3 05       		.uleb128 0x5
 1255 00f4 00       		.byte	0
 1256 00f5 03       		.uleb128 0x3
 1257 00f6 0E       		.uleb128 0xe
 1258 00f7 3A       		.uleb128 0x3a
 1259 00f8 0B       		.uleb128 0xb
 1260 00f9 3B       		.uleb128 0x3b
 1261 00fa 0B       		.uleb128 0xb
 1262 00fb 49       		.uleb128 0x49
 1263 00fc 13       		.uleb128 0x13
 1264 00fd 02       		.uleb128 0x2
 1265 00fe 06       		.uleb128 0x6
 1266 00ff 00       		.byte	0
 1267 0100 00       		.byte	0
 1268 0101 15       		.uleb128 0x15
 1269 0102 2E       		.uleb128 0x2e
 1270 0103 01       		.byte	0x1
 1271 0104 3F       		.uleb128 0x3f
 1272 0105 0C       		.uleb128 0xc
 1273 0106 03       		.uleb128 0x3
 1274 0107 0E       		.uleb128 0xe
 1275 0108 3A       		.uleb128 0x3a
 1276 0109 0B       		.uleb128 0xb
 1277 010a 3B       		.uleb128 0x3b
 1278 010b 0B       		.uleb128 0xb
 1279 010c 27       		.uleb128 0x27
 1280 010d 0C       		.uleb128 0xc
 1281 010e 11       		.uleb128 0x11
 1282 010f 01       		.uleb128 0x1
 1283 0110 12       		.uleb128 0x12
ARM GAS  C:\Users\CNous\AppData\Local\Temp\cctm7WC3.s 			page 28


 1284 0111 01       		.uleb128 0x1
 1285 0112 40       		.uleb128 0x40
 1286 0113 06       		.uleb128 0x6
 1287 0114 9742     		.uleb128 0x2117
 1288 0116 0C       		.uleb128 0xc
 1289 0117 01       		.uleb128 0x1
 1290 0118 13       		.uleb128 0x13
 1291 0119 00       		.byte	0
 1292 011a 00       		.byte	0
 1293 011b 16       		.uleb128 0x16
 1294 011c 34       		.uleb128 0x34
 1295 011d 00       		.byte	0
 1296 011e 03       		.uleb128 0x3
 1297 011f 0E       		.uleb128 0xe
 1298 0120 3A       		.uleb128 0x3a
 1299 0121 0B       		.uleb128 0xb
 1300 0122 3B       		.uleb128 0x3b
 1301 0123 0B       		.uleb128 0xb
 1302 0124 49       		.uleb128 0x49
 1303 0125 13       		.uleb128 0x13
 1304 0126 02       		.uleb128 0x2
 1305 0127 06       		.uleb128 0x6
 1306 0128 00       		.byte	0
 1307 0129 00       		.byte	0
 1308 012a 17       		.uleb128 0x17
 1309 012b 0F       		.uleb128 0xf
 1310 012c 00       		.byte	0
 1311 012d 0B       		.uleb128 0xb
 1312 012e 0B       		.uleb128 0xb
 1313 012f 49       		.uleb128 0x49
 1314 0130 13       		.uleb128 0x13
 1315 0131 00       		.byte	0
 1316 0132 00       		.byte	0
 1317 0133 18       		.uleb128 0x18
 1318 0134 05       		.uleb128 0x5
 1319 0135 00       		.byte	0
 1320 0136 03       		.uleb128 0x3
 1321 0137 0E       		.uleb128 0xe
 1322 0138 3A       		.uleb128 0x3a
 1323 0139 0B       		.uleb128 0xb
 1324 013a 3B       		.uleb128 0x3b
 1325 013b 0B       		.uleb128 0xb
 1326 013c 49       		.uleb128 0x49
 1327 013d 13       		.uleb128 0x13
 1328 013e 02       		.uleb128 0x2
 1329 013f 0A       		.uleb128 0xa
 1330 0140 00       		.byte	0
 1331 0141 00       		.byte	0
 1332 0142 19       		.uleb128 0x19
 1333 0143 34       		.uleb128 0x34
 1334 0144 00       		.byte	0
 1335 0145 03       		.uleb128 0x3
 1336 0146 0E       		.uleb128 0xe
 1337 0147 3A       		.uleb128 0x3a
 1338 0148 0B       		.uleb128 0xb
 1339 0149 3B       		.uleb128 0x3b
 1340 014a 05       		.uleb128 0x5
ARM GAS  C:\Users\CNous\AppData\Local\Temp\cctm7WC3.s 			page 29


 1341 014b 49       		.uleb128 0x49
 1342 014c 13       		.uleb128 0x13
 1343 014d 3F       		.uleb128 0x3f
 1344 014e 0C       		.uleb128 0xc
 1345 014f 3C       		.uleb128 0x3c
 1346 0150 0C       		.uleb128 0xc
 1347 0151 00       		.byte	0
 1348 0152 00       		.byte	0
 1349 0153 00       		.byte	0
 1350              		.section	.debug_loc,"",%progbits
 1351              	.Ldebug_loc0:
 1352              	.LLST0:
 1353 0000 00000000 		.4byte	.LVL0
 1354 0004 08000000 		.4byte	.LVL1
 1355 0008 0100     		.2byte	0x1
 1356 000a 50       		.byte	0x50
 1357 000b 08000000 		.4byte	.LVL1
 1358 000f 14000000 		.4byte	.LFE110
 1359 0013 0400     		.2byte	0x4
 1360 0015 F3       		.byte	0xf3
 1361 0016 01       		.uleb128 0x1
 1362 0017 50       		.byte	0x50
 1363 0018 9F       		.byte	0x9f
 1364 0019 00000000 		.4byte	0
 1365 001d 00000000 		.4byte	0
 1366              	.LLST1:
 1367 0021 00000000 		.4byte	.LFB111
 1368 0025 04000000 		.4byte	.LCFI0
 1369 0029 0200     		.2byte	0x2
 1370 002b 7D       		.byte	0x7d
 1371 002c 00       		.sleb128 0
 1372 002d 04000000 		.4byte	.LCFI0
 1373 0031 7E000000 		.4byte	.LFE111
 1374 0035 0200     		.2byte	0x2
 1375 0037 7D       		.byte	0x7d
 1376 0038 08       		.sleb128 8
 1377 0039 00000000 		.4byte	0
 1378 003d 00000000 		.4byte	0
 1379              	.LLST2:
 1380 0041 00000000 		.4byte	.LVL2
 1381 0045 1A000000 		.4byte	.LVL3
 1382 0049 0100     		.2byte	0x1
 1383 004b 50       		.byte	0x50
 1384 004c 1A000000 		.4byte	.LVL3
 1385 0050 26000000 		.4byte	.LVL5
 1386 0054 0400     		.2byte	0x4
 1387 0056 F3       		.byte	0xf3
 1388 0057 01       		.uleb128 0x1
 1389 0058 50       		.byte	0x50
 1390 0059 9F       		.byte	0x9f
 1391 005a 26000000 		.4byte	.LVL5
 1392 005e 64000000 		.4byte	.LVL11
 1393 0062 0100     		.2byte	0x1
 1394 0064 50       		.byte	0x50
 1395 0065 64000000 		.4byte	.LVL11
 1396 0069 7E000000 		.4byte	.LFE111
 1397 006d 0400     		.2byte	0x4
ARM GAS  C:\Users\CNous\AppData\Local\Temp\cctm7WC3.s 			page 30


 1398 006f F3       		.byte	0xf3
 1399 0070 01       		.uleb128 0x1
 1400 0071 50       		.byte	0x50
 1401 0072 9F       		.byte	0x9f
 1402 0073 00000000 		.4byte	0
 1403 0077 00000000 		.4byte	0
 1404              	.LLST3:
 1405 007b 00000000 		.4byte	.LVL2
 1406 007f 22000000 		.4byte	.LVL4
 1407 0083 0200     		.2byte	0x2
 1408 0085 30       		.byte	0x30
 1409 0086 9F       		.byte	0x9f
 1410 0087 26000000 		.4byte	.LVL5
 1411 008b 3C000000 		.4byte	.LVL6
 1412 008f 0200     		.2byte	0x2
 1413 0091 30       		.byte	0x30
 1414 0092 9F       		.byte	0x9f
 1415 0093 3C000000 		.4byte	.LVL6
 1416 0097 4C000000 		.4byte	.LVL7
 1417 009b 0100     		.2byte	0x1
 1418 009d 52       		.byte	0x52
 1419 009e 4E000000 		.4byte	.LVL8
 1420 00a2 52000000 		.4byte	.LVL9
 1421 00a6 0100     		.2byte	0x1
 1422 00a8 51       		.byte	0x51
 1423 00a9 52000000 		.4byte	.LVL9
 1424 00ad 5E000000 		.4byte	.LVL10
 1425 00b1 0100     		.2byte	0x1
 1426 00b3 52       		.byte	0x52
 1427 00b4 5E000000 		.4byte	.LVL10
 1428 00b8 6A000000 		.4byte	.LVL12
 1429 00bc 0100     		.2byte	0x1
 1430 00be 51       		.byte	0x51
 1431 00bf 6A000000 		.4byte	.LVL12
 1432 00c3 6E000000 		.4byte	.LVL13
 1433 00c7 0100     		.2byte	0x1
 1434 00c9 52       		.byte	0x52
 1435 00ca 00000000 		.4byte	0
 1436 00ce 00000000 		.4byte	0
 1437              	.LLST4:
 1438 00d2 00000000 		.4byte	.LVL2
 1439 00d6 22000000 		.4byte	.LVL4
 1440 00da 0200     		.2byte	0x2
 1441 00dc 30       		.byte	0x30
 1442 00dd 9F       		.byte	0x9f
 1443 00de 26000000 		.4byte	.LVL5
 1444 00e2 3C000000 		.4byte	.LVL6
 1445 00e6 0200     		.2byte	0x2
 1446 00e8 30       		.byte	0x30
 1447 00e9 9F       		.byte	0x9f
 1448 00ea 3C000000 		.4byte	.LVL6
 1449 00ee 4C000000 		.4byte	.LVL7
 1450 00f2 0500     		.2byte	0x5
 1451 00f4 34       		.byte	0x34
 1452 00f5 72       		.byte	0x72
 1453 00f6 00       		.sleb128 0
 1454 00f7 1C       		.byte	0x1c
ARM GAS  C:\Users\CNous\AppData\Local\Temp\cctm7WC3.s 			page 31


 1455 00f8 9F       		.byte	0x9f
 1456 00f9 00000000 		.4byte	0
 1457 00fd 00000000 		.4byte	0
 1458              	.LLST5:
 1459 0101 00000000 		.4byte	.LVL2
 1460 0105 22000000 		.4byte	.LVL4
 1461 0109 0200     		.2byte	0x2
 1462 010b 3F       		.byte	0x3f
 1463 010c 9F       		.byte	0x9f
 1464 010d 26000000 		.4byte	.LVL5
 1465 0111 3C000000 		.4byte	.LVL6
 1466 0115 0200     		.2byte	0x2
 1467 0117 3F       		.byte	0x3f
 1468 0118 9F       		.byte	0x9f
 1469 0119 3C000000 		.4byte	.LVL6
 1470 011d 4C000000 		.4byte	.LVL7
 1471 0121 0500     		.2byte	0x5
 1472 0123 3F       		.byte	0x3f
 1473 0124 72       		.byte	0x72
 1474 0125 00       		.sleb128 0
 1475 0126 26       		.byte	0x26
 1476 0127 9F       		.byte	0x9f
 1477 0128 00000000 		.4byte	0
 1478 012c 00000000 		.4byte	0
 1479              	.LLST6:
 1480 0130 00000000 		.4byte	.LVL14
 1481 0134 12000000 		.4byte	.LVL16
 1482 0138 0100     		.2byte	0x1
 1483 013a 50       		.byte	0x50
 1484 013b 12000000 		.4byte	.LVL16
 1485 013f 16000000 		.4byte	.LFE112
 1486 0143 0400     		.2byte	0x4
 1487 0145 F3       		.byte	0xf3
 1488 0146 01       		.uleb128 0x1
 1489 0147 50       		.byte	0x50
 1490 0148 9F       		.byte	0x9f
 1491 0149 00000000 		.4byte	0
 1492 014d 00000000 		.4byte	0
 1493              	.LLST7:
 1494 0151 00000000 		.4byte	.LVL14
 1495 0155 04000000 		.4byte	.LVL15
 1496 0159 0100     		.2byte	0x1
 1497 015b 51       		.byte	0x51
 1498 015c 04000000 		.4byte	.LVL15
 1499 0160 16000000 		.4byte	.LFE112
 1500 0164 0400     		.2byte	0x4
 1501 0166 F3       		.byte	0xf3
 1502 0167 01       		.uleb128 0x1
 1503 0168 51       		.byte	0x51
 1504 0169 9F       		.byte	0x9f
 1505 016a 00000000 		.4byte	0
 1506 016e 00000000 		.4byte	0
 1507              	.LLST8:
 1508 0172 00000000 		.4byte	.LVL17
 1509 0176 10000000 		.4byte	.LVL18
 1510 017a 0100     		.2byte	0x1
 1511 017c 50       		.byte	0x50
ARM GAS  C:\Users\CNous\AppData\Local\Temp\cctm7WC3.s 			page 32


 1512 017d 10000000 		.4byte	.LVL18
 1513 0181 14000000 		.4byte	.LVL19
 1514 0185 0400     		.2byte	0x4
 1515 0187 F3       		.byte	0xf3
 1516 0188 01       		.uleb128 0x1
 1517 0189 50       		.byte	0x50
 1518 018a 9F       		.byte	0x9f
 1519 018b 14000000 		.4byte	.LVL19
 1520 018f 16000000 		.4byte	.LVL20
 1521 0193 0100     		.2byte	0x1
 1522 0195 50       		.byte	0x50
 1523 0196 16000000 		.4byte	.LVL20
 1524 019a 1A000000 		.4byte	.LFE113
 1525 019e 0400     		.2byte	0x4
 1526 01a0 F3       		.byte	0xf3
 1527 01a1 01       		.uleb128 0x1
 1528 01a2 50       		.byte	0x50
 1529 01a3 9F       		.byte	0x9f
 1530 01a4 00000000 		.4byte	0
 1531 01a8 00000000 		.4byte	0
 1532              		.section	.debug_aranges,"",%progbits
 1533 0000 3C000000 		.4byte	0x3c
 1534 0004 0200     		.2byte	0x2
 1535 0006 00000000 		.4byte	.Ldebug_info0
 1536 000a 04       		.byte	0x4
 1537 000b 00       		.byte	0
 1538 000c 0000     		.2byte	0
 1539 000e 0000     		.2byte	0
 1540 0010 00000000 		.4byte	.LFB110
 1541 0014 14000000 		.4byte	.LFE110-.LFB110
 1542 0018 00000000 		.4byte	.LFB111
 1543 001c 7E000000 		.4byte	.LFE111-.LFB111
 1544 0020 00000000 		.4byte	.LFB112
 1545 0024 16000000 		.4byte	.LFE112-.LFB112
 1546 0028 00000000 		.4byte	.LFB113
 1547 002c 1A000000 		.4byte	.LFE113-.LFB113
 1548 0030 00000000 		.4byte	.LFB114
 1549 0034 1A000000 		.4byte	.LFE114-.LFB114
 1550 0038 00000000 		.4byte	0
 1551 003c 00000000 		.4byte	0
 1552              		.section	.debug_ranges,"",%progbits
 1553              	.Ldebug_ranges0:
 1554 0000 00000000 		.4byte	.LFB110
 1555 0004 14000000 		.4byte	.LFE110
 1556 0008 00000000 		.4byte	.LFB111
 1557 000c 7E000000 		.4byte	.LFE111
 1558 0010 00000000 		.4byte	.LFB112
 1559 0014 16000000 		.4byte	.LFE112
 1560 0018 00000000 		.4byte	.LFB113
 1561 001c 1A000000 		.4byte	.LFE113
 1562 0020 00000000 		.4byte	.LFB114
 1563 0024 1A000000 		.4byte	.LFE114
 1564 0028 00000000 		.4byte	0
 1565 002c 00000000 		.4byte	0
 1566              		.section	.debug_line,"",%progbits
 1567              	.Ldebug_line0:
 1568 0000 59010000 		.section	.debug_str,"MS",%progbits,1
ARM GAS  C:\Users\CNous\AppData\Local\Temp\cctm7WC3.s 			page 33


 1568      0200D100 
 1568      00000201 
 1568      FB0E0D00 
 1568      01010101 
 1569              	.LASF7:
 1570 0000 75696E74 		.ascii	"uint32_t\000"
 1570      33325F74 
 1570      00
 1571              	.LASF20:
 1572 0009 49414252 		.ascii	"IABR\000"
 1572      00
 1573              	.LASF52:
 1574 000e 4E564943 		.ascii	"NVIC_InitTypeDef\000"
 1574      5F496E69 
 1574      74547970 
 1574      65446566 
 1574      00
 1575              	.LASF51:
 1576 001f 4E564943 		.ascii	"NVIC_IRQChannelCmd\000"
 1576      5F495251 
 1576      4368616E 
 1576      6E656C43 
 1576      6D6400
 1577              	.LASF67:
 1578 0032 53797354 		.ascii	"SysTick_CLKSource\000"
 1578      69636B5F 
 1578      434C4B53 
 1578      6F757263 
 1578      6500
 1579              	.LASF56:
 1580 0044 4E564943 		.ascii	"NVIC_InitStruct\000"
 1580      5F496E69 
 1580      74537472 
 1580      75637400 
 1581              	.LASF55:
 1582 0054 4E564943 		.ascii	"NVIC_PriorityGroup\000"
 1582      5F507269 
 1582      6F726974 
 1582      7947726F 
 1582      757000
 1583              	.LASF34:
 1584 0067 4D4D4641 		.ascii	"MMFAR\000"
 1584      5200
 1585              	.LASF2:
 1586 006d 73686F72 		.ascii	"short int\000"
 1586      7420696E 
 1586      7400
 1587              	.LASF24:
 1588 0077 73697A65 		.ascii	"sizetype\000"
 1588      74797065 
 1588      00
 1589              	.LASF54:
 1590 0080 4E564943 		.ascii	"NVIC_Init\000"
 1590      5F496E69 
 1590      7400
 1591              	.LASF58:
 1592 008a 746D7070 		.ascii	"tmppre\000"
ARM GAS  C:\Users\CNous\AppData\Local\Temp\cctm7WC3.s 			page 34


 1592      726500
 1593              	.LASF26:
 1594 0091 43505549 		.ascii	"CPUID\000"
 1594      4400
 1595              	.LASF12:
 1596 0097 49534552 		.ascii	"ISER\000"
 1596      00
 1597              	.LASF4:
 1598 009c 75696E74 		.ascii	"uint8_t\000"
 1598      385F7400 
 1599              	.LASF40:
 1600 00a4 5343425F 		.ascii	"SCB_Type\000"
 1600      54797065 
 1600      00
 1601              	.LASF65:
 1602 00ad 4E657753 		.ascii	"NewState\000"
 1602      74617465 
 1602      00
 1603              	.LASF23:
 1604 00b6 53544952 		.ascii	"STIR\000"
 1604      00
 1605              	.LASF45:
 1606 00bb 44495341 		.ascii	"DISABLE\000"
 1606      424C4500 
 1607              	.LASF27:
 1608 00c3 49435352 		.ascii	"ICSR\000"
 1608      00
 1609              	.LASF15:
 1610 00c8 52534552 		.ascii	"RSERVED1\000"
 1610      56454431 
 1610      00
 1611              	.LASF9:
 1612 00d1 6C6F6E67 		.ascii	"long long int\000"
 1612      206C6F6E 
 1612      6720696E 
 1612      7400
 1613              	.LASF62:
 1614 00df 4F666673 		.ascii	"Offset\000"
 1614      657400
 1615              	.LASF35:
 1616 00e6 42464152 		.ascii	"BFAR\000"
 1616      00
 1617              	.LASF6:
 1618 00eb 6C6F6E67 		.ascii	"long int\000"
 1618      20696E74 
 1618      00
 1619              	.LASF31:
 1620 00f4 43465352 		.ascii	"CFSR\000"
 1620      00
 1621              	.LASF69:
 1622 00f9 636D7369 		.ascii	"cmsis/device/misc.c\000"
 1622      732F6465 
 1622      76696365 
 1622      2F6D6973 
 1622      632E6300 
 1623              	.LASF29:
 1624 010d 41495243 		.ascii	"AIRCR\000"
ARM GAS  C:\Users\CNous\AppData\Local\Temp\cctm7WC3.s 			page 35


 1624      5200
 1625              	.LASF1:
 1626 0113 756E7369 		.ascii	"unsigned char\000"
 1626      676E6564 
 1626      20636861 
 1626      7200
 1627              	.LASF41:
 1628 0121 4354524C 		.ascii	"CTRL\000"
 1628      00
 1629              	.LASF60:
 1630 0126 4E564943 		.ascii	"NVIC_SetVectorTable\000"
 1630      5F536574 
 1630      56656374 
 1630      6F725461 
 1630      626C6500 
 1631              	.LASF18:
 1632 013a 49435052 		.ascii	"ICPR\000"
 1632      00
 1633              	.LASF0:
 1634 013f 7369676E 		.ascii	"signed char\000"
 1634      65642063 
 1634      68617200 
 1635              	.LASF10:
 1636 014b 6C6F6E67 		.ascii	"long long unsigned int\000"
 1636      206C6F6E 
 1636      6720756E 
 1636      7369676E 
 1636      65642069 
 1637              	.LASF43:
 1638 0162 43414C49 		.ascii	"CALIB\000"
 1638      4200
 1639              	.LASF30:
 1640 0168 53484353 		.ascii	"SHCSR\000"
 1640      5200
 1641              	.LASF11:
 1642 016e 756E7369 		.ascii	"unsigned int\000"
 1642      676E6564 
 1642      20696E74 
 1642      00
 1643              	.LASF14:
 1644 017b 49434552 		.ascii	"ICER\000"
 1644      00
 1645              	.LASF59:
 1646 0180 746D7073 		.ascii	"tmpsub\000"
 1646      756200
 1647              	.LASF70:
 1648 0187 433A5C78 		.ascii	"C:\\xav_dev\\eclipse\\ambiantiseur-make\000"
 1648      61765F64 
 1648      65765C65 
 1648      636C6970 
 1648      73655C61 
 1649              	.LASF63:
 1650 01ac 4E564943 		.ascii	"NVIC_SystemLPConfig\000"
 1650      5F537973 
 1650      74656D4C 
 1650      50436F6E 
 1650      66696700 
ARM GAS  C:\Users\CNous\AppData\Local\Temp\cctm7WC3.s 			page 36


 1651              	.LASF66:
 1652 01c0 53797354 		.ascii	"SysTick_CLKSourceConfig\000"
 1652      69636B5F 
 1652      434C4B53 
 1652      6F757263 
 1652      65436F6E 
 1653              	.LASF44:
 1654 01d8 53797354 		.ascii	"SysTick_Type\000"
 1654      69636B5F 
 1654      54797065 
 1654      00
 1655              	.LASF3:
 1656 01e5 73686F72 		.ascii	"short unsigned int\000"
 1656      7420756E 
 1656      7369676E 
 1656      65642069 
 1656      6E7400
 1657              	.LASF57:
 1658 01f8 746D7070 		.ascii	"tmppriority\000"
 1658      72696F72 
 1658      69747900 
 1659              	.LASF28:
 1660 0204 56544F52 		.ascii	"VTOR\000"
 1660      00
 1661              	.LASF5:
 1662 0209 696E7433 		.ascii	"int32_t\000"
 1662      325F7400 
 1663              	.LASF38:
 1664 0211 49534152 		.ascii	"ISAR\000"
 1664      00
 1665              	.LASF16:
 1666 0216 49535052 		.ascii	"ISPR\000"
 1666      00
 1667              	.LASF33:
 1668 021b 44465352 		.ascii	"DFSR\000"
 1668      00
 1669              	.LASF48:
 1670 0220 4E564943 		.ascii	"NVIC_IRQChannel\000"
 1670      5F495251 
 1670      4368616E 
 1670      6E656C00 
 1671              	.LASF50:
 1672 0230 4E564943 		.ascii	"NVIC_IRQChannelSubPriority\000"
 1672      5F495251 
 1672      4368616E 
 1672      6E656C53 
 1672      75625072 
 1673              	.LASF32:
 1674 024b 48465352 		.ascii	"HFSR\000"
 1674      00
 1675              	.LASF37:
 1676 0250 4D4D4652 		.ascii	"MMFR\000"
 1676      00
 1677              	.LASF13:
 1678 0255 52455345 		.ascii	"RESERVED0\000"
 1678      52564544 
 1678      3000
ARM GAS  C:\Users\CNous\AppData\Local\Temp\cctm7WC3.s 			page 37


 1679              	.LASF17:
 1680 025f 52455345 		.ascii	"RESERVED2\000"
 1680      52564544 
 1680      3200
 1681              	.LASF19:
 1682 0269 52455345 		.ascii	"RESERVED3\000"
 1682      52564544 
 1682      3300
 1683              	.LASF21:
 1684 0273 52455345 		.ascii	"RESERVED4\000"
 1684      52564544 
 1684      3400
 1685              	.LASF22:
 1686 027d 52455345 		.ascii	"RESERVED5\000"
 1686      52564544 
 1686      3500
 1687              	.LASF8:
 1688 0287 6C6F6E67 		.ascii	"long unsigned int\000"
 1688      20756E73 
 1688      69676E65 
 1688      6420696E 
 1688      7400
 1689              	.LASF25:
 1690 0299 4E564943 		.ascii	"NVIC_Type\000"
 1690      5F547970 
 1690      6500
 1691              	.LASF49:
 1692 02a3 4E564943 		.ascii	"NVIC_IRQChannelPreemptionPriority\000"
 1692      5F495251 
 1692      4368616E 
 1692      6E656C50 
 1692      7265656D 
 1693              	.LASF68:
 1694 02c5 474E5520 		.ascii	"GNU C 4.7.3 20121207 (release) [ARM/embedded-4_7-br"
 1694      4320342E 
 1694      372E3320 
 1694      32303132 
 1694      31323037 
 1695 02f8 616E6368 		.ascii	"anch revision 194305]\000"
 1695      20726576 
 1695      6973696F 
 1695      6E203139 
 1695      34333035 
 1696              	.LASF47:
 1697 030e 46756E63 		.ascii	"FunctionalState\000"
 1697      74696F6E 
 1697      616C5374 
 1697      61746500 
 1698              	.LASF61:
 1699 031e 4E564943 		.ascii	"NVIC_VectTab\000"
 1699      5F566563 
 1699      74546162 
 1699      00
 1700              	.LASF42:
 1701 032b 4C4F4144 		.ascii	"LOAD\000"
 1701      00
 1702              	.LASF36:
ARM GAS  C:\Users\CNous\AppData\Local\Temp\cctm7WC3.s 			page 38


 1703 0330 41465352 		.ascii	"AFSR\000"
 1703      00
 1704              	.LASF64:
 1705 0335 4C6F7750 		.ascii	"LowPowerMode\000"
 1705      6F776572 
 1705      4D6F6465 
 1705      00
 1706              	.LASF71:
 1707 0342 49544D5F 		.ascii	"ITM_RxBuffer\000"
 1707      52784275 
 1707      66666572 
 1707      00
 1708              	.LASF39:
 1709 034f 43504143 		.ascii	"CPACR\000"
 1709      5200
 1710              	.LASF46:
 1711 0355 454E4142 		.ascii	"ENABLE\000"
 1711      4C4500
 1712              	.LASF53:
 1713 035c 4E564943 		.ascii	"NVIC_PriorityGroupConfig\000"
 1713      5F507269 
 1713      6F726974 
 1713      7947726F 
 1713      7570436F 
 1714              		.ident	"GCC: (GNU Tools for ARM Embedded Processors) 4.7.3 20121207 (release) [ARM/embedded-4_7-br
ARM GAS  C:\Users\CNous\AppData\Local\Temp\cctm7WC3.s 			page 39


DEFINED SYMBOLS
                            *ABS*:00000000 misc.c
C:\Users\CNous\AppData\Local\Temp\cctm7WC3.s:70     .text.NVIC_PriorityGroupConfig:00000000 $t
C:\Users\CNous\AppData\Local\Temp\cctm7WC3.s:75     .text.NVIC_PriorityGroupConfig:00000000 NVIC_PriorityGroupConfig
C:\Users\CNous\AppData\Local\Temp\cctm7WC3.s:96     .text.NVIC_Init:00000000 $t
C:\Users\CNous\AppData\Local\Temp\cctm7WC3.s:101    .text.NVIC_Init:00000000 NVIC_Init
C:\Users\CNous\AppData\Local\Temp\cctm7WC3.s:206    .text.NVIC_SetVectorTable:00000000 $t
C:\Users\CNous\AppData\Local\Temp\cctm7WC3.s:211    .text.NVIC_SetVectorTable:00000000 NVIC_SetVectorTable
C:\Users\CNous\AppData\Local\Temp\cctm7WC3.s:233    .text.NVIC_SystemLPConfig:00000000 $t
C:\Users\CNous\AppData\Local\Temp\cctm7WC3.s:238    .text.NVIC_SystemLPConfig:00000000 NVIC_SystemLPConfig
C:\Users\CNous\AppData\Local\Temp\cctm7WC3.s:268    .text.SysTick_CLKSourceConfig:00000000 $t
C:\Users\CNous\AppData\Local\Temp\cctm7WC3.s:273    .text.SysTick_CLKSourceConfig:00000000 SysTick_CLKSourceConfig
                     .debug_frame:00000010 $d

NO UNDEFINED SYMBOLS
