ARM GAS  C:\Users\CNous\AppData\Local\Temp\cctm7WC3.s 			page 1


   1              		.syntax unified
   2              		.cpu cortex-m4
   3              		.eabi_attribute 27, 3	@ Tag_ABI_HardFP_use
   4              		.eabi_attribute 28, 1	@ Tag_ABI_VFP_args
   5              		.fpu fpv4-sp-d16
   6              		.eabi_attribute 20, 1	@ Tag_ABI_FP_denormal
   7              		.eabi_attribute 21, 1	@ Tag_ABI_FP_exceptions
   8              		.eabi_attribute 23, 3	@ Tag_ABI_FP_number_model
   9              		.eabi_attribute 24, 1	@ Tag_ABI_align8_needed
  10              		.eabi_attribute 25, 1	@ Tag_ABI_align8_preserved
  11              		.eabi_attribute 26, 1	@ Tag_ABI_enum_size
  12              		.eabi_attribute 30, 2	@ Tag_ABI_optimization_goals
  13              		.eabi_attribute 34, 1	@ Tag_CPU_unaligned_access
  14              		.eabi_attribute 18, 4	@ Tag_ABI_PCS_wchar_t
  15              		.file	"misc.c"
  16              	@ GNU C (GNU Tools for ARM Embedded Processors) version 4.7.3 20121207 (release) [ARM/embedded-4_7-
  17              	@	compiled by GNU C version 4.2.1-sjlj (mingw32-2), GMP version 4.3.2, MPFR version 2.4.2, MPC vers
  18              	@ GGC heuristics: --param ggc-min-expand=100 --param ggc-min-heapsize=131072
  19              	@ options passed:  -I . -I ./inc -I ./cmsis/core -I ./cmsis/device
  20              	@ -imultilib armv7e-m/fpu
  21              	@ -iprefix c:\gnutoolsarmembedded\4.7-2012q4\bin\../lib/gcc/arm-none-eabi/4.7.3/
  22              	@ -isysroot c:\gnutoolsarmembedded\4.7-2012q4\bin\../arm-none-eabi
  23              	@ -MD cmsis/device/misc.d -MF .dep/misc.o.d -MP -MQ cmsis/device/misc.o
  24              	@ -D__USES_INITFINI__ -D __FPU_USED=1 -D __arm__ -D __ASSEMBLY__
  25              	@ -D USE_STDPERIPH_DRIVER -D STM32F4XX -D HSE_VALUE=8000000
  26              	@ -D __FPU_PRESENT=1 -D STM32F407VG -D RUN_FROM_FLASH=1 cmsis/device/misc.c
  27              	@ -mthumb -mcpu=cortex-m4 -mfloat-abi=hard -mfpu=fpv4-sp-d16
  28              	@ -auxbase-strip cmsis/device/misc.o -gdwarf-2 -O2 -Wall
  29              	@ -Wstrict-prototypes -fverbose-asm -ffunction-sections -fdata-sections
  30              	@ options enabled:  -fauto-inc-dec -fbranch-count-reg -fcaller-saves
  31              	@ -fcombine-stack-adjustments -fcommon -fcompare-elim -fcprop-registers
  32              	@ -fcrossjumping -fcse-follow-jumps -fdata-sections -fdebug-types-section
  33              	@ -fdefer-pop -fdelete-null-pointer-checks -fdevirtualize -fdwarf2-cfi-asm
  34              	@ -fearly-inlining -feliminate-unused-debug-types -fexpensive-optimizations
  35              	@ -fforward-propagate -ffunction-cse -ffunction-sections -fgcse -fgcse-lm
  36              	@ -fgnu-runtime -fguess-branch-probability -fident -fif-conversion
  37              	@ -fif-conversion2 -findirect-inlining -finline -finline-atomics
  38              	@ -finline-functions-called-once -finline-small-functions -fipa-cp
  39              	@ -fipa-profile -fipa-pure-const -fipa-reference -fipa-sra
  40              	@ -fira-share-save-slots -fira-share-spill-slots -fivopts
  41              	@ -fkeep-static-consts -fleading-underscore -fmath-errno -fmerge-constants
  42              	@ -fmerge-debug-strings -fmove-loop-invariants -fomit-frame-pointer
  43              	@ -foptimize-register-move -foptimize-sibling-calls -foptimize-strlen
  44              	@ -fpartial-inlining -fpeephole -fpeephole2 -fprefetch-loop-arrays
  45              	@ -freg-struct-return -fregmove -frename-registers -freorder-blocks
  46              	@ -freorder-functions -frerun-cse-after-loop
  47              	@ -fsched-critical-path-heuristic -fsched-dep-count-heuristic
  48              	@ -fsched-group-heuristic -fsched-interblock -fsched-last-insn-heuristic
  49              	@ -fsched-rank-heuristic -fsched-spec -fsched-spec-insn-heuristic
  50              	@ -fsched-stalled-insns-dep -fschedule-insns -fschedule-insns2
  51              	@ -fsection-anchors -fshow-column -fshrink-wrap -fsigned-zeros
  52              	@ -fsplit-ivs-in-unroller -fsplit-wide-types -fstrict-aliasing
  53              	@ -fstrict-overflow -fstrict-volatile-bitfields -fthread-jumps
  54              	@ -ftoplevel-reorder -ftrapping-math -ftree-bit-ccp -ftree-builtin-call-dce
  55              	@ -ftree-ccp -ftree-ch -ftree-copy-prop -ftree-copyrename -ftree-cselim
  56              	@ -ftree-dce -ftree-dominator-opts -ftree-dse -ftree-forwprop -ftree-fre
  57              	@ -ftree-loop-if-convert -ftree-loop-im -ftree-loop-ivcanon
ARM GAS  C:\Users\CNous\AppData\Local\Temp\cctm7WC3.s 			page 2


  58              	@ -ftree-loop-optimize -ftree-parallelize-loops= -ftree-phiprop -ftree-pre
  59              	@ -ftree-pta -ftree-reassoc -ftree-scev-cprop -ftree-sink
  60              	@ -ftree-slp-vectorize -ftree-sra -ftree-switch-conversion
  61              	@ -ftree-tail-merge -ftree-ter -ftree-vect-loop-version -ftree-vrp
  62              	@ -funit-at-a-time -funroll-loops -fvar-tracking -fvar-tracking-assignments
  63              	@ -fverbose-asm -fweb -fzero-initialized-in-bss -mlittle-endian
  64              	@ -msched-prolog -mthumb -munaligned-access -mvectorize-with-neon-quad
  65              	
  66              		.text
  67              	.Ltext0:
  68              		.cfi_sections	.debug_frame
  69              		.section	.text.NVIC_PriorityGroupConfig,"ax",%progbits
  70              		.align	2
  71              		.global	NVIC_PriorityGroupConfig
  72              		.thumb
  73              		.thumb_func
  74              		.type	NVIC_PriorityGroupConfig, %function
  75              	NVIC_PriorityGroupConfig:
  76              	.LFB110:
  77              		.file 1 "cmsis/device/misc.c"
   1:cmsis/device/misc.c **** /**
   2:cmsis/device/misc.c ****   ******************************************************************************
   3:cmsis/device/misc.c ****   * @file    misc.c
   4:cmsis/device/misc.c ****   * @author  MCD Application Team
   5:cmsis/device/misc.c ****   * @version V1.0.0
   6:cmsis/device/misc.c ****   * @date    30-September-2011
   7:cmsis/device/misc.c ****   * @brief   This file provides all the miscellaneous firmware functions (add-on
   8:cmsis/device/misc.c ****   *          to CMSIS functions).
   9:cmsis/device/misc.c ****   *          
  10:cmsis/device/misc.c ****   *  @verbatim   
  11:cmsis/device/misc.c ****   *                               
  12:cmsis/device/misc.c ****   *          ===================================================================      
  13:cmsis/device/misc.c ****   *                        How to configure Interrupts using driver 
  14:cmsis/device/misc.c ****   *          ===================================================================      
  15:cmsis/device/misc.c ****   * 
  16:cmsis/device/misc.c ****   *            This section provide functions allowing to configure the NVIC interrupts (IRQ).
  17:cmsis/device/misc.c ****   *            The Cortex-M4 exceptions are managed by CMSIS functions.
  18:cmsis/device/misc.c ****   *
  19:cmsis/device/misc.c ****   *            1. Configure the NVIC Priority Grouping using NVIC_PriorityGroupConfig()
  20:cmsis/device/misc.c ****   *                function according to the following table.
  21:cmsis/device/misc.c ****  
  22:cmsis/device/misc.c ****   *  The table below gives the allowed values of the pre-emption priority and subpriority according
  23:cmsis/device/misc.c ****   *  to the Priority Grouping configuration performed by NVIC_PriorityGroupConfig function
  24:cmsis/device/misc.c ****   *    ============================================================================================
  25:cmsis/device/misc.c ****   *      NVIC_PriorityGroup   | NVIC_IRQChannelPreemptionPriority | NVIC_IRQChannelSubPriority  |  
  26:cmsis/device/misc.c ****   *    ============================================================================================
  27:cmsis/device/misc.c ****   *     NVIC_PriorityGroup_0  |                0                  |            0-15             | 0
  28:cmsis/device/misc.c ****   *                           |                                   |                             | 4
  29:cmsis/device/misc.c ****   *    --------------------------------------------------------------------------------------------
  30:cmsis/device/misc.c ****   *     NVIC_PriorityGroup_1  |                0-1                |            0-7              | 1
  31:cmsis/device/misc.c ****   *                           |                                   |                             | 3
  32:cmsis/device/misc.c ****   *    --------------------------------------------------------------------------------------------
  33:cmsis/device/misc.c ****   *     NVIC_PriorityGroup_2  |                0-3                |            0-3              | 2
  34:cmsis/device/misc.c ****   *                           |                                   |                             | 2
  35:cmsis/device/misc.c ****   *    --------------------------------------------------------------------------------------------
  36:cmsis/device/misc.c ****   *     NVIC_PriorityGroup_3  |                0-7                |            0-1              | 3
  37:cmsis/device/misc.c ****   *                           |                                   |                             | 1
ARM GAS  C:\Users\CNous\AppData\Local\Temp\cctm7WC3.s 			page 3


  38:cmsis/device/misc.c ****   *    --------------------------------------------------------------------------------------------
  39:cmsis/device/misc.c ****   *     NVIC_PriorityGroup_4  |                0-15               |            0                | 4
  40:cmsis/device/misc.c ****   *                           |                                   |                             | 0
  41:cmsis/device/misc.c ****   *    ============================================================================================
  42:cmsis/device/misc.c ****   *
  43:cmsis/device/misc.c ****   *            2. Enable and Configure the priority of the selected IRQ Channels using NVIC_Init() 
  44:cmsis/device/misc.c ****   *
  45:cmsis/device/misc.c ****   * @note  When the NVIC_PriorityGroup_0 is selected, IRQ pre-emption is no more possible. 
  46:cmsis/device/misc.c ****   *        The pending IRQ priority will be managed only by the subpriority.
  47:cmsis/device/misc.c ****   *
  48:cmsis/device/misc.c ****   * @note  IRQ priority order (sorted by highest to lowest priority):
  49:cmsis/device/misc.c ****   *         - Lowest pre-emption priority
  50:cmsis/device/misc.c ****   *         - Lowest subpriority
  51:cmsis/device/misc.c ****   *         - Lowest hardware priority (IRQ number)
  52:cmsis/device/misc.c ****   *
  53:cmsis/device/misc.c ****   *  @endverbatim
  54:cmsis/device/misc.c ****   *
  55:cmsis/device/misc.c ****   ******************************************************************************
  56:cmsis/device/misc.c ****   * @attention
  57:cmsis/device/misc.c ****   *
  58:cmsis/device/misc.c ****   * THE PRESENT FIRMWARE WHICH IS FOR GUIDANCE ONLY AIMS AT PROVIDING CUSTOMERS
  59:cmsis/device/misc.c ****   * WITH CODING INFORMATION REGARDING THEIR PRODUCTS IN ORDER FOR THEM TO SAVE
  60:cmsis/device/misc.c ****   * TIME. AS A RESULT, STMICROELECTRONICS SHALL NOT BE HELD LIABLE FOR ANY
  61:cmsis/device/misc.c ****   * DIRECT, INDIRECT OR CONSEQUENTIAL DAMAGES WITH RESPECT TO ANY CLAIMS ARISING
  62:cmsis/device/misc.c ****   * FROM THE CONTENT OF SUCH FIRMWARE AND/OR THE USE MADE BY CUSTOMERS OF THE
  63:cmsis/device/misc.c ****   * CODING INFORMATION CONTAINED HEREIN IN CONNECTION WITH THEIR PRODUCTS.
  64:cmsis/device/misc.c ****   *
  65:cmsis/device/misc.c ****   * <h2><center>&copy; COPYRIGHT 2011 STMicroelectronics</center></h2>
  66:cmsis/device/misc.c ****   ******************************************************************************
  67:cmsis/device/misc.c ****   */
  68:cmsis/device/misc.c **** 
  69:cmsis/device/misc.c **** /* Includes ------------------------------------------------------------------*/
  70:cmsis/device/misc.c **** #include "misc.h"
  71:cmsis/device/misc.c **** 
  72:cmsis/device/misc.c **** /** @addtogroup STM32F4xx_StdPeriph_Driver
  73:cmsis/device/misc.c ****   * @{
  74:cmsis/device/misc.c ****   */
  75:cmsis/device/misc.c **** 
  76:cmsis/device/misc.c **** /** @defgroup MISC 
  77:cmsis/device/misc.c ****   * @brief MISC driver modules
  78:cmsis/device/misc.c ****   * @{
  79:cmsis/device/misc.c ****   */
  80:cmsis/device/misc.c **** 
  81:cmsis/device/misc.c **** /* Private typedef -----------------------------------------------------------*/
  82:cmsis/device/misc.c **** /* Private define ------------------------------------------------------------*/
  83:cmsis/device/misc.c **** #define AIRCR_VECTKEY_MASK    ((uint32_t)0x05FA0000)
  84:cmsis/device/misc.c **** 
  85:cmsis/device/misc.c **** /* Private macro -------------------------------------------------------------*/
  86:cmsis/device/misc.c **** /* Private variables ---------------------------------------------------------*/
  87:cmsis/device/misc.c **** /* Private function prototypes -----------------------------------------------*/
  88:cmsis/device/misc.c **** /* Private functions ---------------------------------------------------------*/
  89:cmsis/device/misc.c **** 
  90:cmsis/device/misc.c **** /** @defgroup MISC_Private_Functions
  91:cmsis/device/misc.c ****   * @{
  92:cmsis/device/misc.c ****   */
  93:cmsis/device/misc.c **** 
  94:cmsis/device/misc.c **** /**
ARM GAS  C:\Users\CNous\AppData\Local\Temp\cctm7WC3.s 			page 4


  95:cmsis/device/misc.c ****   * @brief  Configures the priority grouping: pre-emption priority and subpriority.
  96:cmsis/device/misc.c ****   * @param  NVIC_PriorityGroup: specifies the priority grouping bits length. 
  97:cmsis/device/misc.c ****   *   This parameter can be one of the following values:
  98:cmsis/device/misc.c ****   *     @arg NVIC_PriorityGroup_0: 0 bits for pre-emption priority
  99:cmsis/device/misc.c ****   *                                4 bits for subpriority
 100:cmsis/device/misc.c ****   *     @arg NVIC_PriorityGroup_1: 1 bits for pre-emption priority
 101:cmsis/device/misc.c ****   *                                3 bits for subpriority
 102:cmsis/device/misc.c ****   *     @arg NVIC_PriorityGroup_2: 2 bits for pre-emption priority
 103:cmsis/device/misc.c ****   *                                2 bits for subpriority
 104:cmsis/device/misc.c ****   *     @arg NVIC_PriorityGroup_3: 3 bits for pre-emption priority
 105:cmsis/device/misc.c ****   *                                1 bits for subpriority
 106:cmsis/device/misc.c ****   *     @arg NVIC_PriorityGroup_4: 4 bits for pre-emption priority
 107:cmsis/device/misc.c ****   *                                0 bits for subpriority
 108:cmsis/device/misc.c ****   * @note   When the NVIC_PriorityGroup_0 is selected, IRQ pre-emption is no more possible. 
 109:cmsis/device/misc.c ****   *         The pending IRQ priority will be managed only by the subpriority. 
 110:cmsis/device/misc.c ****   * @retval None
 111:cmsis/device/misc.c ****   */
 112:cmsis/device/misc.c **** void NVIC_PriorityGroupConfig(uint32_t NVIC_PriorityGroup)
 113:cmsis/device/misc.c **** {
  78              		.loc 1 113 0
  79              		.cfi_startproc
  80              		@ args = 0, pretend = 0, frame = 0
  81              		@ frame_needed = 0, uses_anonymous_args = 0
  82              		@ link register save eliminated.
  83              	.LVL0:
 114:cmsis/device/misc.c ****   /* Check the parameters */
 115:cmsis/device/misc.c ****   assert_param(IS_NVIC_PRIORITY_GROUP(NVIC_PriorityGroup));
 116:cmsis/device/misc.c ****   
 117:cmsis/device/misc.c ****   /* Set the PRIGROUP[10:8] bits according to NVIC_PriorityGroup value */
 118:cmsis/device/misc.c ****   SCB->AIRCR = AIRCR_VECTKEY_MASK | NVIC_PriorityGroup;
  84              		.loc 1 118 0
  85 0000 4FF46D43 		mov	r3, #60672	@ tmp138,
  86 0004 40F0BF60 		orr	r0, r0, #100139008	@ tmp136, NVIC_PriorityGroup,
  87              	.LVL1:
  88 0008 CEF20003 		movt	r3, 57344	@ tmp138,
  89 000c 40F40031 		orr	r1, r0, #131072	@ D.6574, tmp136,
  90 0010 D960     		str	r1, [r3, #12]	@ D.6574, MEM[(struct SCB_Type *)3758157056B].AIRCR
  91 0012 7047     		bx	lr	@
  92              		.cfi_endproc
  93              	.LFE110:
  94              		.size	NVIC_PriorityGroupConfig, .-NVIC_PriorityGroupConfig
  95              		.section	.text.NVIC_Init,"ax",%progbits
  96              		.align	2
  97              		.global	NVIC_Init
  98              		.thumb
  99              		.thumb_func
 100              		.type	NVIC_Init, %function
 101              	NVIC_Init:
 102              	.LFB111:
 119:cmsis/device/misc.c **** }
 120:cmsis/device/misc.c **** 
 121:cmsis/device/misc.c **** /**
 122:cmsis/device/misc.c ****   * @brief  Initializes the NVIC peripheral according to the specified
 123:cmsis/device/misc.c ****   *         parameters in the NVIC_InitStruct.
 124:cmsis/device/misc.c ****   * @note   To configure interrupts priority correctly, the NVIC_PriorityGroupConfig()
 125:cmsis/device/misc.c ****   *         function should be called before. 
 126:cmsis/device/misc.c ****   * @param  NVIC_InitStruct: pointer to a NVIC_InitTypeDef structure that contains
ARM GAS  C:\Users\CNous\AppData\Local\Temp\cctm7WC3.s 			page 5


 127:cmsis/device/misc.c ****   *         the configuration information for the specified NVIC peripheral.
 128:cmsis/device/misc.c ****   * @retval None
 129:cmsis/device/misc.c ****   */
 130:cmsis/device/misc.c **** void NVIC_Init(NVIC_InitTypeDef* NVIC_InitStruct)
 131:cmsis/device/misc.c **** {
 103              		.loc 1 131 0
 104              		.cfi_startproc
 105              		@ args = 0, pretend = 0, frame = 0
 106              		@ frame_needed = 0, uses_anonymous_args = 0
 107              		@ link register save eliminated.
 108              	.LVL2:
 132:cmsis/device/misc.c ****   uint8_t tmppriority = 0x00, tmppre = 0x00, tmpsub = 0x0F;
 133:cmsis/device/misc.c ****   
 134:cmsis/device/misc.c ****   /* Check the parameters */
 135:cmsis/device/misc.c ****   assert_param(IS_FUNCTIONAL_STATE(NVIC_InitStruct->NVIC_IRQChannelCmd));
 136:cmsis/device/misc.c ****   assert_param(IS_NVIC_PREEMPTION_PRIORITY(NVIC_InitStruct->NVIC_IRQChannelPreemptionPriority));  
 137:cmsis/device/misc.c ****   assert_param(IS_NVIC_SUB_PRIORITY(NVIC_InitStruct->NVIC_IRQChannelSubPriority));
 138:cmsis/device/misc.c ****     
 139:cmsis/device/misc.c ****   if (NVIC_InitStruct->NVIC_IRQChannelCmd != DISABLE)
 109              		.loc 1 139 0
 110 0000 C378     		ldrb	r3, [r0, #3]	@ zero_extendqisi2	@ NVIC_InitStruct_4(D)->NVIC_IRQChannelCmd, NVIC_InitStruct_4
 131:cmsis/device/misc.c **** {
 111              		.loc 1 131 0
 112 0002 30B4     		push	{r4, r5}	@
 113              	.LCFI0:
 114              		.cfi_def_cfa_offset 8
 115              		.cfi_offset 4, -8
 116              		.cfi_offset 5, -4
 117              		.loc 1 139 0
 118 0004 7BB9     		cbnz	r3, .L6	@ NVIC_InitStruct_4(D)->NVIC_IRQChannelCmd,
 140:cmsis/device/misc.c ****   {
 141:cmsis/device/misc.c ****     /* Compute the Corresponding IRQ Priority --------------------------------*/    
 142:cmsis/device/misc.c ****     tmppriority = (0x700 - ((SCB->AIRCR) & (uint32_t)0x700))>> 0x08;
 143:cmsis/device/misc.c ****     tmppre = (0x4 - tmppriority);
 144:cmsis/device/misc.c ****     tmpsub = tmpsub >> tmppriority;
 145:cmsis/device/misc.c **** 
 146:cmsis/device/misc.c ****     tmppriority = NVIC_InitStruct->NVIC_IRQChannelPreemptionPriority << tmppre;
 147:cmsis/device/misc.c ****     tmppriority |=  (uint8_t)(NVIC_InitStruct->NVIC_IRQChannelSubPriority & tmpsub);
 148:cmsis/device/misc.c ****         
 149:cmsis/device/misc.c ****     tmppriority = tmppriority << 0x04;
 150:cmsis/device/misc.c ****         
 151:cmsis/device/misc.c ****     NVIC->IP[NVIC_InitStruct->NVIC_IRQChannel] = tmppriority;
 152:cmsis/device/misc.c ****     
 153:cmsis/device/misc.c ****     /* Enable the Selected IRQ Channels --------------------------------------*/
 154:cmsis/device/misc.c ****     NVIC->ISER[NVIC_InitStruct->NVIC_IRQChannel >> 0x05] =
 155:cmsis/device/misc.c ****       (uint32_t)0x01 << (NVIC_InitStruct->NVIC_IRQChannel & (uint8_t)0x1F);
 156:cmsis/device/misc.c ****   }
 157:cmsis/device/misc.c ****   else
 158:cmsis/device/misc.c ****   {
 159:cmsis/device/misc.c ****     /* Disable the Selected IRQ Channels -------------------------------------*/
 160:cmsis/device/misc.c ****     NVIC->ICER[NVIC_InitStruct->NVIC_IRQChannel >> 0x05] =
 119              		.loc 1 160 0
 120 0006 0278     		ldrb	r2, [r0, #0]	@ zero_extendqisi2	@ D.6566, NVIC_InitStruct_4(D)->NVIC_IRQChannel
 121 0008 4FF46143 		mov	r3, #57600	@ tmp197,
 122 000c 5109     		lsrs	r1, r2, #5	@ D.6569, D.6566,
 123 000e CEF20003 		movt	r3, 57344	@ tmp197,
 161:cmsis/device/misc.c ****       (uint32_t)0x01 << (NVIC_InitStruct->NVIC_IRQChannel & (uint8_t)0x1F);
ARM GAS  C:\Users\CNous\AppData\Local\Temp\cctm7WC3.s 			page 6


 124              		.loc 1 161 0
 125 0012 02F01F02 		and	r2, r2, #31	@ tmp195, D.6566,
 160:cmsis/device/misc.c ****     NVIC->ICER[NVIC_InitStruct->NVIC_IRQChannel >> 0x05] =
 126              		.loc 1 160 0
 127 0016 2031     		adds	r1, r1, #32	@ tmp198, D.6569,
 128              		.loc 1 161 0
 129 0018 0120     		movs	r0, #1	@ tmp196,
 130              	.LVL3:
 131 001a 00FA02F2 		lsl	r2, r0, r2	@ D.6571, tmp196, tmp195
 160:cmsis/device/misc.c ****     NVIC->ICER[NVIC_InitStruct->NVIC_IRQChannel >> 0x05] =
 132              		.loc 1 160 0
 133 001e 43F82120 		str	r2, [r3, r1, lsl #2]	@ D.6571,
 134              	.LVL4:
 135              	.L2:
 162:cmsis/device/misc.c ****   }
 163:cmsis/device/misc.c **** }
 136              		.loc 1 163 0
 137 0022 30BC     		pop	{r4, r5}
 138 0024 7047     		bx	lr
 139              	.LVL5:
 140              	.L6:
 142:cmsis/device/misc.c ****     tmppriority = (0x700 - ((SCB->AIRCR) & (uint32_t)0x700))>> 0x08;
 141              		.loc 1 142 0
 142 0026 4FF46D44 		mov	r4, #60672	@ tmp169,
 143 002a CEF20004 		movt	r4, 57344	@ tmp169,
 146:cmsis/device/misc.c ****     tmppriority = NVIC_InitStruct->NVIC_IRQChannelPreemptionPriority << tmppre;
 144              		.loc 1 146 0
 145 002e 4578     		ldrb	r5, [r0, #1]	@ zero_extendqisi2	@ NVIC_InitStruct_4(D)->NVIC_IRQChannelPreemptionPriority, NV
 142:cmsis/device/misc.c ****     tmppriority = (0x700 - ((SCB->AIRCR) & (uint32_t)0x700))>> 0x08;
 146              		.loc 1 142 0
 147 0030 E168     		ldr	r1, [r4, #12]	@ D.6552, MEM[(struct SCB_Type *)3758157056B].AIRCR
 147:cmsis/device/misc.c ****     tmppriority |=  (uint8_t)(NVIC_InitStruct->NVIC_IRQChannelSubPriority & tmpsub);
 148              		.loc 1 147 0
 149 0032 8478     		ldrb	r4, [r0, #2]	@ zero_extendqisi2	@ NVIC_InitStruct_4(D)->NVIC_IRQChannelSubPriority, NVIC_Init
 151:cmsis/device/misc.c ****     NVIC->IP[NVIC_InitStruct->NVIC_IRQChannel] = tmppriority;
 150              		.loc 1 151 0
 151 0034 0378     		ldrb	r3, [r0, #0]	@ zero_extendqisi2	@ D.6567, NVIC_InitStruct_4(D)->NVIC_IRQChannel
 142:cmsis/device/misc.c ****     tmppriority = (0x700 - ((SCB->AIRCR) & (uint32_t)0x700))>> 0x08;
 152              		.loc 1 142 0
 153 0036 CA43     		mvns	r2, r1	@ tmp170, D.6552
 154 0038 C2F30222 		ubfx	r2, r2, #8, #3	@ D.6578, tmp170,,
 155              	.LVL6:
 143:cmsis/device/misc.c ****     tmppre = (0x4 - tmppriority);
 156              		.loc 1 143 0
 157 003c C2F10401 		rsb	r1, r2, #4	@ tmp174, D.6578,
 146:cmsis/device/misc.c ****     tmppriority = NVIC_InitStruct->NVIC_IRQChannelPreemptionPriority << tmppre;
 158              		.loc 1 146 0
 159 0040 C9B2     		uxtb	r1, r1	@ tmp175, tmp174
 160 0042 05FA01F1 		lsl	r1, r5, r1	@ D.6562, NVIC_InitStruct_4(D)->NVIC_IRQChannelPreemptionPriority, tmp175
 144:cmsis/device/misc.c ****     tmpsub = tmpsub >> tmppriority;
 161              		.loc 1 144 0
 162 0046 0F25     		movs	r5, #15	@ tmp177,
 163 0048 45FA02F2 		asr	r2, r5, r2	@ tmp176, tmp177, D.6578
 164              	.LVL7:
 146:cmsis/device/misc.c ****     tmppriority = NVIC_InitStruct->NVIC_IRQChannelPreemptionPriority << tmppre;
 165              		.loc 1 146 0
 166 004c C9B2     		uxtb	r1, r1	@ tmppriority, D.6562
ARM GAS  C:\Users\CNous\AppData\Local\Temp\cctm7WC3.s 			page 7


 167              	.LVL8:
 147:cmsis/device/misc.c ****     tmppriority |=  (uint8_t)(NVIC_InitStruct->NVIC_IRQChannelSubPriority & tmpsub);
 168              		.loc 1 147 0
 169 004e 2240     		ands	r2, r2, r4	@, tmp181, tmp176, NVIC_InitStruct_4(D)->NVIC_IRQChannelSubPriority
 170 0050 0A43     		orrs	r2, r2, r1	@, tmppriority, tmp181, tmppriority
 171              	.LVL9:
 151:cmsis/device/misc.c ****     NVIC->IP[NVIC_InitStruct->NVIC_IRQChannel] = tmppriority;
 172              		.loc 1 151 0
 173 0052 03F16043 		add	r3, r3, #-536870912	@ tmp186, D.6567,
 149:cmsis/device/misc.c ****     tmppriority = tmppriority << 0x04;
 174              		.loc 1 149 0
 175 0056 1101     		lsls	r1, r2, #4	@ tmp184, tmppriority,
 151:cmsis/device/misc.c ****     NVIC->IP[NVIC_InitStruct->NVIC_IRQChannel] = tmppriority;
 176              		.loc 1 151 0
 177 0058 03F56143 		add	r3, r3, #57600	@ tmp186, tmp186,
 149:cmsis/device/misc.c ****     tmppriority = tmppriority << 0x04;
 178              		.loc 1 149 0
 179 005c CAB2     		uxtb	r2, r1	@ tmppriority, tmp184
 180              	.LVL10:
 151:cmsis/device/misc.c ****     NVIC->IP[NVIC_InitStruct->NVIC_IRQChannel] = tmppriority;
 181              		.loc 1 151 0
 182 005e 83F80023 		strb	r2, [r3, #768]	@ tmppriority, MEM[(struct NVIC_Type *)3758153984B].IP
 154:cmsis/device/misc.c ****     NVIC->ISER[NVIC_InitStruct->NVIC_IRQChannel >> 0x05] =
 183              		.loc 1 154 0
 184 0062 0078     		ldrb	r0, [r0, #0]	@ zero_extendqisi2	@ D.6566, NVIC_InitStruct_4(D)->NVIC_IRQChannel
 185              	.LVL11:
 151:cmsis/device/misc.c ****     NVIC->IP[NVIC_InitStruct->NVIC_IRQChannel] = tmppriority;
 186              		.loc 1 151 0
 187 0064 4FF46143 		mov	r3, #57600	@ tmp185,
 154:cmsis/device/misc.c ****     NVIC->ISER[NVIC_InitStruct->NVIC_IRQChannel >> 0x05] =
 188              		.loc 1 154 0
 189 0068 4109     		lsrs	r1, r0, #5	@ D.6569, D.6566,
 190              	.LVL12:
 155:cmsis/device/misc.c ****       (uint32_t)0x01 << (NVIC_InitStruct->NVIC_IRQChannel & (uint8_t)0x1F);
 191              		.loc 1 155 0
 192 006a 00F01F02 		and	r2, r0, #31	@ tmp190, D.6566,
 193              	.LVL13:
 151:cmsis/device/misc.c ****     NVIC->IP[NVIC_InitStruct->NVIC_IRQChannel] = tmppriority;
 194              		.loc 1 151 0
 195 006e CEF20003 		movt	r3, 57344	@ tmp185,
 155:cmsis/device/misc.c ****       (uint32_t)0x01 << (NVIC_InitStruct->NVIC_IRQChannel & (uint8_t)0x1F);
 196              		.loc 1 155 0
 197 0072 0120     		movs	r0, #1	@ tmp191,
 198 0074 00FA02F2 		lsl	r2, r0, r2	@ D.6571, tmp191, tmp190
 154:cmsis/device/misc.c ****     NVIC->ISER[NVIC_InitStruct->NVIC_IRQChannel >> 0x05] =
 199              		.loc 1 154 0
 200 0078 43F82120 		str	r2, [r3, r1, lsl #2]	@ D.6571,
 201 007c D1E7     		b	.L2	@
 202              		.cfi_endproc
 203              	.LFE111:
 204              		.size	NVIC_Init, .-NVIC_Init
 205 007e 00BF     		.section	.text.NVIC_SetVectorTable,"ax",%progbits
 206              		.align	2
 207              		.global	NVIC_SetVectorTable
 208              		.thumb
 209              		.thumb_func
 210              		.type	NVIC_SetVectorTable, %function
ARM GAS  C:\Users\CNous\AppData\Local\Temp\cctm7WC3.s 			page 8


 211              	NVIC_SetVectorTable:
 212              	.LFB112:
 164:cmsis/device/misc.c **** 
 165:cmsis/device/misc.c **** /**
 166:cmsis/device/misc.c ****   * @brief  Sets the vector table location and Offset.
 167:cmsis/device/misc.c ****   * @param  NVIC_VectTab: specifies if the vector table is in RAM or FLASH memory.
 168:cmsis/device/misc.c ****   *   This parameter can be one of the following values:
 169:cmsis/device/misc.c ****   *     @arg NVIC_VectTab_RAM: Vector Table in internal SRAM.
 170:cmsis/device/misc.c ****   *     @arg NVIC_VectTab_FLASH: Vector Table in internal FLASH.
 171:cmsis/device/misc.c ****   * @param  Offset: Vector Table base offset field. This value must be a multiple of 0x200.
 172:cmsis/device/misc.c ****   * @retval None
 173:cmsis/device/misc.c ****   */
 174:cmsis/device/misc.c **** void NVIC_SetVectorTable(uint32_t NVIC_VectTab, uint32_t Offset)
 175:cmsis/device/misc.c **** { 
 213              		.loc 1 175 0
 214              		.cfi_startproc
 215              		@ args = 0, pretend = 0, frame = 0
 216              		@ frame_needed = 0, uses_anonymous_args = 0
 217              		@ link register save eliminated.
 218              	.LVL14:
 176:cmsis/device/misc.c ****   /* Check the parameters */
 177:cmsis/device/misc.c ****   assert_param(IS_NVIC_VECTTAB(NVIC_VectTab));
 178:cmsis/device/misc.c ****   assert_param(IS_NVIC_OFFSET(Offset));  
 179:cmsis/device/misc.c ****    
 180:cmsis/device/misc.c ****   SCB->VTOR = NVIC_VectTab | (Offset & (uint32_t)0x1FFFFF80);
 219              		.loc 1 180 0
 220 0000 21F06041 		bic	r1, r1, #-536870912	@ tmp139, Offset,
 221              	.LVL15:
 222 0004 4FF46D43 		mov	r3, #60672	@ tmp141,
 223 0008 21F07F02 		bic	r2, r1, #127	@ tmp138, tmp139,
 224 000c CEF20003 		movt	r3, 57344	@ tmp141,
 225 0010 1043     		orrs	r0, r0, r2	@, D.6547, NVIC_VectTab, tmp138
 226              	.LVL16:
 227 0012 9860     		str	r0, [r3, #8]	@ D.6547, MEM[(struct SCB_Type *)3758157056B].VTOR
 228 0014 7047     		bx	lr	@
 229              		.cfi_endproc
 230              	.LFE112:
 231              		.size	NVIC_SetVectorTable, .-NVIC_SetVectorTable
 232 0016 00BF     		.section	.text.NVIC_SystemLPConfig,"ax",%progbits
 233              		.align	2
 234              		.global	NVIC_SystemLPConfig
 235              		.thumb
 236              		.thumb_func
 237              		.type	NVIC_SystemLPConfig, %function
 238              	NVIC_SystemLPConfig:
 239              	.LFB113:
 181:cmsis/device/misc.c **** }
 182:cmsis/device/misc.c **** 
 183:cmsis/device/misc.c **** /**
 184:cmsis/device/misc.c ****   * @brief  Selects the condition for the system to enter low power mode.
 185:cmsis/device/misc.c ****   * @param  LowPowerMode: Specifies the new mode for the system to enter low power mode.
 186:cmsis/device/misc.c ****   *   This parameter can be one of the following values:
 187:cmsis/device/misc.c ****   *     @arg NVIC_LP_SEVONPEND: Low Power SEV on Pend.
 188:cmsis/device/misc.c ****   *     @arg NVIC_LP_SLEEPDEEP: Low Power DEEPSLEEP request.
 189:cmsis/device/misc.c ****   *     @arg NVIC_LP_SLEEPONEXIT: Low Power Sleep on Exit.
 190:cmsis/device/misc.c ****   * @param  NewState: new state of LP condition. This parameter can be: ENABLE or DISABLE.
 191:cmsis/device/misc.c ****   * @retval None
ARM GAS  C:\Users\CNous\AppData\Local\Temp\cctm7WC3.s 			page 9


 192:cmsis/device/misc.c ****   */
 193:cmsis/device/misc.c **** void NVIC_SystemLPConfig(uint8_t LowPowerMode, FunctionalState NewState)
 194:cmsis/device/misc.c **** {
 240              		.loc 1 194 0
 241              		.cfi_startproc
 242              		@ args = 0, pretend = 0, frame = 0
 243              		@ frame_needed = 0, uses_anonymous_args = 0
 244              		@ link register save eliminated.
 245              	.LVL17:
 195:cmsis/device/misc.c ****   /* Check the parameters */
 196:cmsis/device/misc.c ****   assert_param(IS_NVIC_LP(LowPowerMode));
 197:cmsis/device/misc.c ****   assert_param(IS_FUNCTIONAL_STATE(NewState));  
 198:cmsis/device/misc.c ****   
 199:cmsis/device/misc.c ****   if (NewState != DISABLE)
 200:cmsis/device/misc.c ****   {
 201:cmsis/device/misc.c ****     SCB->SCR |= LowPowerMode;
 246              		.loc 1 201 0
 247 0000 4FF46D43 		mov	r3, #60672	@ tmp143,
 248 0004 CEF20003 		movt	r3, 57344	@ tmp143,
 249 0008 1A69     		ldr	r2, [r3, #16]	@ D.6538,
 199:cmsis/device/misc.c ****   if (NewState != DISABLE)
 250              		.loc 1 199 0
 251 000a 19B9     		cbnz	r1, .L11	@ NewState,
 202:cmsis/device/misc.c ****   }
 203:cmsis/device/misc.c ****   else
 204:cmsis/device/misc.c ****   {
 205:cmsis/device/misc.c ****     SCB->SCR &= (uint32_t)(~(uint32_t)LowPowerMode);
 252              		.loc 1 205 0
 253 000c 22EA0000 		bic	r0, r2, r0	@ D.6544, D.6542, LowPowerMode
 254              	.LVL18:
 255 0010 1861     		str	r0, [r3, #16]	@ D.6544,
 256 0012 7047     		bx	lr	@
 257              	.LVL19:
 258              	.L11:
 201:cmsis/device/misc.c ****     SCB->SCR |= LowPowerMode;
 259              		.loc 1 201 0
 260 0014 1043     		orrs	r0, r0, r2	@, D.6540, LowPowerMode, D.6538
 261              	.LVL20:
 262 0016 1861     		str	r0, [r3, #16]	@ D.6540,
 263 0018 7047     		bx	lr	@
 264              		.cfi_endproc
 265              	.LFE113:
 266              		.size	NVIC_SystemLPConfig, .-NVIC_SystemLPConfig
 267 001a 00BF     		.section	.text.SysTick_CLKSourceConfig,"ax",%progbits
 268              		.align	2
 269              		.global	SysTick_CLKSourceConfig
 270              		.thumb
 271              		.thumb_func
 272              		.type	SysTick_CLKSourceConfig, %function
 273              	SysTick_CLKSourceConfig:
 274              	.LFB114:
 206:cmsis/device/misc.c ****   }
 207:cmsis/device/misc.c **** }
 208:cmsis/device/misc.c **** 
 209:cmsis/device/misc.c **** /**
 210:cmsis/device/misc.c ****   * @brief  Configures the SysTick clock source.
 211:cmsis/device/misc.c ****   * @param  SysTick_CLKSource: specifies the SysTick clock source.
ARM GAS  C:\Users\CNous\AppData\Local\Temp\cctm7WC3.s 			page 10


 212:cmsis/device/misc.c ****   *   This parameter can be one of the following values:
 213:cmsis/device/misc.c ****   *     @arg SysTick_CLKSource_HCLK_Div8: AHB clock divided by 8 selected as SysTick clock source.
 214:cmsis/device/misc.c ****   *     @arg SysTick_CLKSource_HCLK: AHB clock selected as SysTick clock source.
 215:cmsis/device/misc.c ****   * @retval None
 216:cmsis/device/misc.c ****   */
 217:cmsis/device/misc.c **** void SysTick_CLKSourceConfig(uint32_t SysTick_CLKSource)
 218:cmsis/device/misc.c **** {
 275              		.loc 1 218 0
 276              		.cfi_startproc
 277              		@ args = 0, pretend = 0, frame = 0
 278              		@ frame_needed = 0, uses_anonymous_args = 0
 279              		@ link register save eliminated.
 280              	.LVL21:
 219:cmsis/device/misc.c ****   /* Check the parameters */
 220:cmsis/device/misc.c ****   assert_param(IS_SYSTICK_CLK_SOURCE(SysTick_CLKSource));
 221:cmsis/device/misc.c ****   if (SysTick_CLKSource == SysTick_CLKSource_HCLK)
 222:cmsis/device/misc.c ****   {
 223:cmsis/device/misc.c ****     SysTick->CTRL |= SysTick_CLKSource_HCLK;
 281              		.loc 1 223 0
 282 0000 4EF21003 		movw	r3, #57360	@ tmp139,
 283 0004 CEF20003 		movt	r3, 57344	@ tmp139,
 221:cmsis/device/misc.c ****   if (SysTick_CLKSource == SysTick_CLKSource_HCLK)
 284              		.loc 1 221 0
 285 0008 0428     		cmp	r0, #4	@ SysTick_CLKSource,
 286              		.loc 1 223 0
 287 000a 1A68     		ldr	r2, [r3, #0]	@ D.6530,
 288 000c 0CBF     		ite	eq
 289 000e 42F00402 		orreq	r2, r2, #4	@ D.6531, D.6530,
 224:cmsis/device/misc.c ****   }
 225:cmsis/device/misc.c ****   else
 226:cmsis/device/misc.c ****   {
 227:cmsis/device/misc.c ****     SysTick->CTRL &= SysTick_CLKSource_HCLK_Div8;
 290              		.loc 1 227 0
 291 0012 22F00402 		bicne	r2, r2, #4	@ D.6534, D.6533,
 292 0016 1A60     		str	r2, [r3, #0]	@ D.6534,
 293 0018 7047     		bx	lr	@
 294              		.cfi_endproc
 295              	.LFE114:
 296              		.size	SysTick_CLKSourceConfig, .-SysTick_CLKSourceConfig
 297 001a 00BF     		.text
 298              	.Letext0:
 299              		.file 2 "c:\\gnutoolsarmembedded\\4.7-2012q4\\bin\\../lib/gcc/arm-none-eabi/4.7.3/../../../../arm-
 300              		.file 3 "./cmsis/core/core_cm4.h"
 301              		.file 4 "cmsis/device/stm32f4xx.h"
 302              		.file 5 "cmsis/device/misc.h"