ARM GAS  C:\Users\CNous\AppData\Local\Temp\ccZZVbMp.s 			page 1


   1              		.syntax unified
   2              		.cpu cortex-m4
   3              		.eabi_attribute 27, 3	@ Tag_ABI_HardFP_use
   4              		.eabi_attribute 28, 1	@ Tag_ABI_VFP_args
   5              		.fpu fpv4-sp-d16
   6              		.eabi_attribute 20, 1	@ Tag_ABI_FP_denormal
   7              		.eabi_attribute 21, 1	@ Tag_ABI_FP_exceptions
   8              		.eabi_attribute 23, 3	@ Tag_ABI_FP_number_model
   9              		.eabi_attribute 24, 1	@ Tag_ABI_align8_needed
  10              		.eabi_attribute 25, 1	@ Tag_ABI_align8_preserved
  11              		.eabi_attribute 26, 1	@ Tag_ABI_enum_size
  12              		.eabi_attribute 30, 2	@ Tag_ABI_optimization_goals
  13              		.eabi_attribute 34, 1	@ Tag_CPU_unaligned_access
  14              		.eabi_attribute 18, 4	@ Tag_ABI_PCS_wchar_t
  15              		.file	"stm32f4xx_exti.c"
  16              	@ GNU C (GNU Tools for ARM Embedded Processors) version 4.7.3 20121207 (release) [ARM/embedded-4_7-
  17              	@	compiled by GNU C version 4.2.1-sjlj (mingw32-2), GMP version 4.3.2, MPFR version 2.4.2, MPC vers
  18              	@ GGC heuristics: --param ggc-min-expand=100 --param ggc-min-heapsize=131072
  19              	@ options passed:  -I . -I ./inc -I ./cmsis/core -I ./cmsis/device
  20              	@ -imultilib armv7e-m/fpu
  21              	@ -iprefix c:\gnutoolsarmembedded\4.7-2012q4\bin\../lib/gcc/arm-none-eabi/4.7.3/
  22              	@ -isysroot c:\gnutoolsarmembedded\4.7-2012q4\bin\../arm-none-eabi
  23              	@ -MD cmsis/device/stm32f4xx_exti.d -MF .dep/stm32f4xx_exti.o.d -MP
  24              	@ -MQ cmsis/device/stm32f4xx_exti.o -D__USES_INITFINI__ -D __FPU_USED=1
  25              	@ -D __arm__ -D __ASSEMBLY__ -D USE_STDPERIPH_DRIVER -D STM32F4XX
  26              	@ -D HSE_VALUE=8000000 -D __FPU_PRESENT=1 -D STM32F407VG
  27              	@ -D RUN_FROM_FLASH=1 cmsis/device/stm32f4xx_exti.c -mthumb -mcpu=cortex-m4
  28              	@ -mfloat-abi=hard -mfpu=fpv4-sp-d16
  29              	@ -auxbase-strip cmsis/device/stm32f4xx_exti.o -gdwarf-2 -O2 -Wall
  30              	@ -Wstrict-prototypes -fverbose-asm -ffunction-sections -fdata-sections
  31              	@ options enabled:  -fauto-inc-dec -fbranch-count-reg -fcaller-saves
  32              	@ -fcombine-stack-adjustments -fcommon -fcompare-elim -fcprop-registers
  33              	@ -fcrossjumping -fcse-follow-jumps -fdata-sections -fdebug-types-section
  34              	@ -fdefer-pop -fdelete-null-pointer-checks -fdevirtualize -fdwarf2-cfi-asm
  35              	@ -fearly-inlining -feliminate-unused-debug-types -fexpensive-optimizations
  36              	@ -fforward-propagate -ffunction-cse -ffunction-sections -fgcse -fgcse-lm
  37              	@ -fgnu-runtime -fguess-branch-probability -fident -fif-conversion
  38              	@ -fif-conversion2 -findirect-inlining -finline -finline-atomics
  39              	@ -finline-functions-called-once -finline-small-functions -fipa-cp
  40              	@ -fipa-profile -fipa-pure-const -fipa-reference -fipa-sra
  41              	@ -fira-share-save-slots -fira-share-spill-slots -fivopts
  42              	@ -fkeep-static-consts -fleading-underscore -fmath-errno -fmerge-constants
  43              	@ -fmerge-debug-strings -fmove-loop-invariants -fomit-frame-pointer
  44              	@ -foptimize-register-move -foptimize-sibling-calls -foptimize-strlen
  45              	@ -fpartial-inlining -fpeephole -fpeephole2 -fprefetch-loop-arrays
  46              	@ -freg-struct-return -fregmove -frename-registers -freorder-blocks
  47              	@ -freorder-functions -frerun-cse-after-loop
  48              	@ -fsched-critical-path-heuristic -fsched-dep-count-heuristic
  49              	@ -fsched-group-heuristic -fsched-interblock -fsched-last-insn-heuristic
  50              	@ -fsched-rank-heuristic -fsched-spec -fsched-spec-insn-heuristic
  51              	@ -fsched-stalled-insns-dep -fschedule-insns -fschedule-insns2
  52              	@ -fsection-anchors -fshow-column -fshrink-wrap -fsigned-zeros
  53              	@ -fsplit-ivs-in-unroller -fsplit-wide-types -fstrict-aliasing
  54              	@ -fstrict-overflow -fstrict-volatile-bitfields -fthread-jumps
  55              	@ -ftoplevel-reorder -ftrapping-math -ftree-bit-ccp -ftree-builtin-call-dce
  56              	@ -ftree-ccp -ftree-ch -ftree-copy-prop -ftree-copyrename -ftree-cselim
  57              	@ -ftree-dce -ftree-dominator-opts -ftree-dse -ftree-forwprop -ftree-fre
ARM GAS  C:\Users\CNous\AppData\Local\Temp\ccZZVbMp.s 			page 2


  58              	@ -ftree-loop-if-convert -ftree-loop-im -ftree-loop-ivcanon
  59              	@ -ftree-loop-optimize -ftree-parallelize-loops= -ftree-phiprop -ftree-pre
  60              	@ -ftree-pta -ftree-reassoc -ftree-scev-cprop -ftree-sink
  61              	@ -ftree-slp-vectorize -ftree-sra -ftree-switch-conversion
  62              	@ -ftree-tail-merge -ftree-ter -ftree-vect-loop-version -ftree-vrp
  63              	@ -funit-at-a-time -funroll-loops -fvar-tracking -fvar-tracking-assignments
  64              	@ -fverbose-asm -fweb -fzero-initialized-in-bss -mlittle-endian
  65              	@ -msched-prolog -mthumb -munaligned-access -mvectorize-with-neon-quad
  66              	
  67              		.text
  68              	.Ltext0:
  69              		.cfi_sections	.debug_frame
  70              		.section	.text.EXTI_DeInit,"ax",%progbits
  71              		.align	2
  72              		.global	EXTI_DeInit
  73              		.thumb
  74              		.thumb_func
  75              		.type	EXTI_DeInit, %function
  76              	EXTI_DeInit:
  77              	.LFB110:
  78              		.file 1 "cmsis/device/stm32f4xx_exti.c"
   1:cmsis/device/stm32f4xx_exti.c **** /**
   2:cmsis/device/stm32f4xx_exti.c ****   ******************************************************************************
   3:cmsis/device/stm32f4xx_exti.c ****   * @file    stm32f4xx_exti.c
   4:cmsis/device/stm32f4xx_exti.c ****   * @author  MCD Application Team
   5:cmsis/device/stm32f4xx_exti.c ****   * @version V1.0.0
   6:cmsis/device/stm32f4xx_exti.c ****   * @date    30-September-2011
   7:cmsis/device/stm32f4xx_exti.c ****   * @brief   This file provides firmware functions to manage the following 
   8:cmsis/device/stm32f4xx_exti.c ****   *          functionalities of the EXTI peripheral:           
   9:cmsis/device/stm32f4xx_exti.c ****   *           - Initialization and Configuration
  10:cmsis/device/stm32f4xx_exti.c ****   *           - Interrupts and flags management
  11:cmsis/device/stm32f4xx_exti.c ****   *
  12:cmsis/device/stm32f4xx_exti.c ****   *  @verbatim  
  13:cmsis/device/stm32f4xx_exti.c ****   *  
  14:cmsis/device/stm32f4xx_exti.c ****   *          ===================================================================
  15:cmsis/device/stm32f4xx_exti.c ****   *                                     EXTI features
  16:cmsis/device/stm32f4xx_exti.c ****   *          ===================================================================
  17:cmsis/device/stm32f4xx_exti.c ****   *    
  18:cmsis/device/stm32f4xx_exti.c ****   *          External interrupt/event lines are mapped as following:
  19:cmsis/device/stm32f4xx_exti.c ****   *            1- All available GPIO pins are connected to the 16 external 
  20:cmsis/device/stm32f4xx_exti.c ****   *               interrupt/event lines from EXTI0 to EXTI15.
  21:cmsis/device/stm32f4xx_exti.c ****   *            2- EXTI line 16 is connected to the PVD Output
  22:cmsis/device/stm32f4xx_exti.c ****   *            3- EXTI line 17 is connected to the RTC Alarm event
  23:cmsis/device/stm32f4xx_exti.c ****   *            4- EXTI line 18 is connected to the USB OTG FS Wakeup from suspend event            
  24:cmsis/device/stm32f4xx_exti.c ****   *            5- EXTI line 19 is connected to the Ethernet Wakeup event
  25:cmsis/device/stm32f4xx_exti.c ****   *            6- EXTI line 20 is connected to the USB OTG HS (configured in FS) Wakeup event 
  26:cmsis/device/stm32f4xx_exti.c ****   *            7- EXTI line 21 is connected to the RTC Tamper and Time Stamp events                
  27:cmsis/device/stm32f4xx_exti.c ****   *            8- EXTI line 22 is connected to the RTC Wakeup event
  28:cmsis/device/stm32f4xx_exti.c ****   *        
  29:cmsis/device/stm32f4xx_exti.c ****   *          ===================================================================
  30:cmsis/device/stm32f4xx_exti.c ****   *                                 How to use this driver
  31:cmsis/device/stm32f4xx_exti.c ****   *          ===================================================================  
  32:cmsis/device/stm32f4xx_exti.c ****   *              
  33:cmsis/device/stm32f4xx_exti.c ****   *          In order to use an I/O pin as an external interrupt source, follow
  34:cmsis/device/stm32f4xx_exti.c ****   *          steps below:
  35:cmsis/device/stm32f4xx_exti.c ****   *            1- Configure the I/O in input mode using GPIO_Init()
  36:cmsis/device/stm32f4xx_exti.c ****   *            2- Select the input source pin for the EXTI line using SYSCFG_EXTILineConfig()
ARM GAS  C:\Users\CNous\AppData\Local\Temp\ccZZVbMp.s 			page 3


  37:cmsis/device/stm32f4xx_exti.c ****   *            3- Select the mode(interrupt, event) and configure the trigger 
  38:cmsis/device/stm32f4xx_exti.c ****   *               selection (Rising, falling or both) using EXTI_Init()
  39:cmsis/device/stm32f4xx_exti.c ****   *            4- Configure NVIC IRQ channel mapped to the EXTI line using NVIC_Init()
  40:cmsis/device/stm32f4xx_exti.c ****   *   
  41:cmsis/device/stm32f4xx_exti.c ****   *  @note  SYSCFG APB clock must be enabled to get write access to SYSCFG_EXTICRx
  42:cmsis/device/stm32f4xx_exti.c ****   *         registers using RCC_APB2PeriphClockCmd(RCC_APB2Periph_SYSCFG, ENABLE);
  43:cmsis/device/stm32f4xx_exti.c ****   *          
  44:cmsis/device/stm32f4xx_exti.c ****   *  @endverbatim                  
  45:cmsis/device/stm32f4xx_exti.c ****   *
  46:cmsis/device/stm32f4xx_exti.c ****   ******************************************************************************
  47:cmsis/device/stm32f4xx_exti.c ****   * @attention
  48:cmsis/device/stm32f4xx_exti.c ****   *
  49:cmsis/device/stm32f4xx_exti.c ****   * THE PRESENT FIRMWARE WHICH IS FOR GUIDANCE ONLY AIMS AT PROVIDING CUSTOMERS
  50:cmsis/device/stm32f4xx_exti.c ****   * WITH CODING INFORMATION REGARDING THEIR PRODUCTS IN ORDER FOR THEM TO SAVE
  51:cmsis/device/stm32f4xx_exti.c ****   * TIME. AS A RESULT, STMICROELECTRONICS SHALL NOT BE HELD LIABLE FOR ANY
  52:cmsis/device/stm32f4xx_exti.c ****   * DIRECT, INDIRECT OR CONSEQUENTIAL DAMAGES WITH RESPECT TO ANY CLAIMS ARISING
  53:cmsis/device/stm32f4xx_exti.c ****   * FROM THE CONTENT OF SUCH FIRMWARE AND/OR THE USE MADE BY CUSTOMERS OF THE
  54:cmsis/device/stm32f4xx_exti.c ****   * CODING INFORMATION CONTAINED HEREIN IN CONNECTION WITH THEIR PRODUCTS.
  55:cmsis/device/stm32f4xx_exti.c ****   *
  56:cmsis/device/stm32f4xx_exti.c ****   * <h2><center>&copy; COPYRIGHT 2011 STMicroelectronics</center></h2>
  57:cmsis/device/stm32f4xx_exti.c ****   ******************************************************************************
  58:cmsis/device/stm32f4xx_exti.c ****   */
  59:cmsis/device/stm32f4xx_exti.c **** 
  60:cmsis/device/stm32f4xx_exti.c **** /* Includes ------------------------------------------------------------------*/
  61:cmsis/device/stm32f4xx_exti.c **** #include "stm32f4xx_exti.h"
  62:cmsis/device/stm32f4xx_exti.c **** 
  63:cmsis/device/stm32f4xx_exti.c **** /** @addtogroup STM32F4xx_StdPeriph_Driver
  64:cmsis/device/stm32f4xx_exti.c ****   * @{
  65:cmsis/device/stm32f4xx_exti.c ****   */
  66:cmsis/device/stm32f4xx_exti.c **** 
  67:cmsis/device/stm32f4xx_exti.c **** /** @defgroup EXTI 
  68:cmsis/device/stm32f4xx_exti.c ****   * @brief EXTI driver modules
  69:cmsis/device/stm32f4xx_exti.c ****   * @{
  70:cmsis/device/stm32f4xx_exti.c ****   */
  71:cmsis/device/stm32f4xx_exti.c **** 
  72:cmsis/device/stm32f4xx_exti.c **** /* Private typedef -----------------------------------------------------------*/
  73:cmsis/device/stm32f4xx_exti.c **** /* Private define ------------------------------------------------------------*/
  74:cmsis/device/stm32f4xx_exti.c **** 
  75:cmsis/device/stm32f4xx_exti.c **** #define EXTI_LINENONE    ((uint32_t)0x00000)  /* No interrupt selected */
  76:cmsis/device/stm32f4xx_exti.c **** 
  77:cmsis/device/stm32f4xx_exti.c **** /* Private macro -------------------------------------------------------------*/
  78:cmsis/device/stm32f4xx_exti.c **** /* Private variables ---------------------------------------------------------*/
  79:cmsis/device/stm32f4xx_exti.c **** /* Private function prototypes -----------------------------------------------*/
  80:cmsis/device/stm32f4xx_exti.c **** /* Private functions ---------------------------------------------------------*/
  81:cmsis/device/stm32f4xx_exti.c **** 
  82:cmsis/device/stm32f4xx_exti.c **** /** @defgroup EXTI_Private_Functions
  83:cmsis/device/stm32f4xx_exti.c ****   * @{
  84:cmsis/device/stm32f4xx_exti.c ****   */
  85:cmsis/device/stm32f4xx_exti.c **** 
  86:cmsis/device/stm32f4xx_exti.c **** /** @defgroup EXTI_Group1 Initialization and Configuration functions
  87:cmsis/device/stm32f4xx_exti.c ****  *  @brief   Initialization and Configuration functions 
  88:cmsis/device/stm32f4xx_exti.c ****  *
  89:cmsis/device/stm32f4xx_exti.c **** @verbatim   
  90:cmsis/device/stm32f4xx_exti.c ****  ===============================================================================
  91:cmsis/device/stm32f4xx_exti.c ****                   Initialization and Configuration functions
  92:cmsis/device/stm32f4xx_exti.c ****  ===============================================================================  
  93:cmsis/device/stm32f4xx_exti.c **** 
ARM GAS  C:\Users\CNous\AppData\Local\Temp\ccZZVbMp.s 			page 4


  94:cmsis/device/stm32f4xx_exti.c **** @endverbatim
  95:cmsis/device/stm32f4xx_exti.c ****   * @{
  96:cmsis/device/stm32f4xx_exti.c ****   */
  97:cmsis/device/stm32f4xx_exti.c **** 
  98:cmsis/device/stm32f4xx_exti.c **** /**
  99:cmsis/device/stm32f4xx_exti.c ****   * @brief  Deinitializes the EXTI peripheral registers to their default reset values.
 100:cmsis/device/stm32f4xx_exti.c ****   * @param  None
 101:cmsis/device/stm32f4xx_exti.c ****   * @retval None
 102:cmsis/device/stm32f4xx_exti.c ****   */
 103:cmsis/device/stm32f4xx_exti.c **** void EXTI_DeInit(void)
 104:cmsis/device/stm32f4xx_exti.c **** {
  79              		.loc 1 104 0
  80              		.cfi_startproc
  81              		@ args = 0, pretend = 0, frame = 0
  82              		@ frame_needed = 0, uses_anonymous_args = 0
  83              		@ link register save eliminated.
 105:cmsis/device/stm32f4xx_exti.c ****   EXTI->IMR = 0x00000000;
  84              		.loc 1 105 0
  85 0000 4FF47053 		mov	r3, #15360	@ tmp134,
  86 0004 C4F20103 		movt	r3, 16385	@ tmp134,
 106:cmsis/device/stm32f4xx_exti.c ****   EXTI->EMR = 0x00000000;
 107:cmsis/device/stm32f4xx_exti.c ****   EXTI->RTSR = 0x00000000;
 108:cmsis/device/stm32f4xx_exti.c ****   EXTI->FTSR = 0x00000000;
 109:cmsis/device/stm32f4xx_exti.c ****   EXTI->PR = 0x007FFFFF;
  87              		.loc 1 109 0
  88 0008 4FF6FF71 		movw	r1, #65535	@ tmp143,
 105:cmsis/device/stm32f4xx_exti.c ****   EXTI->IMR = 0x00000000;
  89              		.loc 1 105 0
  90 000c 0022     		movs	r2, #0	@ tmp135,
  91              		.loc 1 109 0
  92 000e C0F27F01 		movt	r1, 127	@ tmp143,
 105:cmsis/device/stm32f4xx_exti.c ****   EXTI->IMR = 0x00000000;
  93              		.loc 1 105 0
  94 0012 1A60     		str	r2, [r3, #0]	@ tmp135, MEM[(struct EXTI_TypeDef *)1073822720B].IMR
 106:cmsis/device/stm32f4xx_exti.c ****   EXTI->EMR = 0x00000000;
  95              		.loc 1 106 0
  96 0014 5A60     		str	r2, [r3, #4]	@ tmp135, MEM[(struct EXTI_TypeDef *)1073822720B].EMR
 107:cmsis/device/stm32f4xx_exti.c ****   EXTI->RTSR = 0x00000000;
  97              		.loc 1 107 0
  98 0016 9A60     		str	r2, [r3, #8]	@ tmp135, MEM[(struct EXTI_TypeDef *)1073822720B].RTSR
 108:cmsis/device/stm32f4xx_exti.c ****   EXTI->FTSR = 0x00000000;
  99              		.loc 1 108 0
 100 0018 DA60     		str	r2, [r3, #12]	@ tmp135, MEM[(struct EXTI_TypeDef *)1073822720B].FTSR
 101              		.loc 1 109 0
 102 001a 5961     		str	r1, [r3, #20]	@ tmp143, MEM[(struct EXTI_TypeDef *)1073822720B].PR
 103 001c 7047     		bx	lr	@
 104              		.cfi_endproc
 105              	.LFE110:
 106              		.size	EXTI_DeInit, .-EXTI_DeInit
 107 001e 00BF     		.section	.text.EXTI_Init,"ax",%progbits
 108              		.align	2
 109              		.global	EXTI_Init
 110              		.thumb
 111              		.thumb_func
 112              		.type	EXTI_Init, %function
 113              	EXTI_Init:
 114              	.LFB111:
ARM GAS  C:\Users\CNous\AppData\Local\Temp\ccZZVbMp.s 			page 5


 110:cmsis/device/stm32f4xx_exti.c **** }
 111:cmsis/device/stm32f4xx_exti.c **** 
 112:cmsis/device/stm32f4xx_exti.c **** /**
 113:cmsis/device/stm32f4xx_exti.c ****   * @brief  Initializes the EXTI peripheral according to the specified
 114:cmsis/device/stm32f4xx_exti.c ****   *         parameters in the EXTI_InitStruct.
 115:cmsis/device/stm32f4xx_exti.c ****   * @param  EXTI_InitStruct: pointer to a EXTI_InitTypeDef structure
 116:cmsis/device/stm32f4xx_exti.c ****   *         that contains the configuration information for the EXTI peripheral.
 117:cmsis/device/stm32f4xx_exti.c ****   * @retval None
 118:cmsis/device/stm32f4xx_exti.c ****   */
 119:cmsis/device/stm32f4xx_exti.c **** void EXTI_Init(EXTI_InitTypeDef* EXTI_InitStruct)
 120:cmsis/device/stm32f4xx_exti.c **** {
 115              		.loc 1 120 0
 116              		.cfi_startproc
 117              		@ args = 0, pretend = 0, frame = 0
 118              		@ frame_needed = 0, uses_anonymous_args = 0
 119              		@ link register save eliminated.
 120              	.LVL0:
 121:cmsis/device/stm32f4xx_exti.c ****   uint32_t tmp = 0;
 122:cmsis/device/stm32f4xx_exti.c **** 
 123:cmsis/device/stm32f4xx_exti.c ****   /* Check the parameters */
 124:cmsis/device/stm32f4xx_exti.c ****   assert_param(IS_EXTI_MODE(EXTI_InitStruct->EXTI_Mode));
 125:cmsis/device/stm32f4xx_exti.c ****   assert_param(IS_EXTI_TRIGGER(EXTI_InitStruct->EXTI_Trigger));
 126:cmsis/device/stm32f4xx_exti.c ****   assert_param(IS_EXTI_LINE(EXTI_InitStruct->EXTI_Line));  
 127:cmsis/device/stm32f4xx_exti.c ****   assert_param(IS_FUNCTIONAL_STATE(EXTI_InitStruct->EXTI_LineCmd));
 128:cmsis/device/stm32f4xx_exti.c **** 
 129:cmsis/device/stm32f4xx_exti.c ****   tmp = (uint32_t)EXTI_BASE;
 130:cmsis/device/stm32f4xx_exti.c ****      
 131:cmsis/device/stm32f4xx_exti.c ****   if (EXTI_InitStruct->EXTI_LineCmd != DISABLE)
 121              		.loc 1 131 0
 122 0000 8379     		ldrb	r3, [r0, #6]	@ zero_extendqisi2	@ EXTI_InitStruct_3(D)->EXTI_LineCmd, EXTI_InitStruct_3(D)->E
 120:cmsis/device/stm32f4xx_exti.c **** {
 123              		.loc 1 120 0
 124 0002 70B4     		push	{r4, r5, r6}	@
 125              	.LCFI0:
 126              		.cfi_def_cfa_offset 12
 127              		.cfi_offset 4, -12
 128              		.cfi_offset 5, -8
 129              		.cfi_offset 6, -4
 130              		.loc 1 131 0
 131 0004 3BB3     		cbz	r3, .L3	@ EXTI_InitStruct_3(D)->EXTI_LineCmd,
 132:cmsis/device/stm32f4xx_exti.c ****   {
 133:cmsis/device/stm32f4xx_exti.c ****     /* Clear EXTI line configuration */
 134:cmsis/device/stm32f4xx_exti.c ****     EXTI->IMR &= ~EXTI_InitStruct->EXTI_Line;
 132              		.loc 1 134 0
 133 0006 4FF47053 		mov	r3, #15360	@ tmp173,
 134 000a C4F20103 		movt	r3, 16385	@ tmp173,
 135 000e 0168     		ldr	r1, [r0, #0]	@ D.6563, EXTI_InitStruct_3(D)->EXTI_Line
 136 0010 1E68     		ldr	r6, [r3, #0]	@ D.6562, MEM[(struct EXTI_TypeDef *)1073822720B].IMR
 135:cmsis/device/stm32f4xx_exti.c ****     EXTI->EMR &= ~EXTI_InitStruct->EXTI_Line;
 136:cmsis/device/stm32f4xx_exti.c ****     
 137:cmsis/device/stm32f4xx_exti.c ****     tmp += EXTI_InitStruct->EXTI_Mode;
 137              		.loc 1 137 0
 138 0012 0279     		ldrb	r2, [r0, #4]	@ zero_extendqisi2	@ EXTI_InitStruct_3(D)->EXTI_Mode, EXTI_InitStruct_3(D)->EXTI
 138:cmsis/device/stm32f4xx_exti.c **** 
 139:cmsis/device/stm32f4xx_exti.c ****     *(__IO uint32_t *) tmp |= EXTI_InitStruct->EXTI_Line;
 140:cmsis/device/stm32f4xx_exti.c **** 
 141:cmsis/device/stm32f4xx_exti.c ****     /* Clear Rising Falling edge configuration */
ARM GAS  C:\Users\CNous\AppData\Local\Temp\ccZZVbMp.s 			page 6


 142:cmsis/device/stm32f4xx_exti.c ****     EXTI->RTSR &= ~EXTI_InitStruct->EXTI_Line;
 143:cmsis/device/stm32f4xx_exti.c ****     EXTI->FTSR &= ~EXTI_InitStruct->EXTI_Line;
 144:cmsis/device/stm32f4xx_exti.c ****     
 145:cmsis/device/stm32f4xx_exti.c ****     /* Select the trigger for the selected external interrupts */
 146:cmsis/device/stm32f4xx_exti.c ****     if (EXTI_InitStruct->EXTI_Trigger == EXTI_Trigger_Rising_Falling)
 139              		.loc 1 146 0
 140 0014 4579     		ldrb	r5, [r0, #5]	@ zero_extendqisi2	@ D.6577, EXTI_InitStruct_3(D)->EXTI_Trigger
 134:cmsis/device/stm32f4xx_exti.c ****     EXTI->IMR &= ~EXTI_InitStruct->EXTI_Line;
 141              		.loc 1 134 0
 142 0016 CC43     		mvns	r4, r1	@ D.6564, D.6563
 143 0018 2640     		ands	r6, r6, r4	@, D.6565, D.6562, D.6564
 144 001a 1E60     		str	r6, [r3, #0]	@ D.6565, MEM[(struct EXTI_TypeDef *)1073822720B].IMR
 135:cmsis/device/stm32f4xx_exti.c ****     EXTI->EMR &= ~EXTI_InitStruct->EXTI_Line;
 145              		.loc 1 135 0
 146 001c 5E68     		ldr	r6, [r3, #4]	@ D.6566, MEM[(struct EXTI_TypeDef *)1073822720B].EMR
 137:cmsis/device/stm32f4xx_exti.c ****     tmp += EXTI_InitStruct->EXTI_Mode;
 147              		.loc 1 137 0
 148 001e 02F18042 		add	r2, r2, #1073741824	@ tmp178, EXTI_InitStruct_3(D)->EXTI_Mode,
 149 0022 02F59E32 		add	r2, r2, #80896	@ tmp.0, tmp178,
 135:cmsis/device/stm32f4xx_exti.c ****     EXTI->EMR &= ~EXTI_InitStruct->EXTI_Line;
 150              		.loc 1 135 0
 151 0026 3440     		ands	r4, r4, r6	@, D.6567, D.6564, D.6566
 152 0028 5C60     		str	r4, [r3, #4]	@ D.6567, MEM[(struct EXTI_TypeDef *)1073822720B].EMR
 153              	.LVL1:
 139:cmsis/device/stm32f4xx_exti.c ****     *(__IO uint32_t *) tmp |= EXTI_InitStruct->EXTI_Line;
 154              		.loc 1 139 0
 155 002a 1468     		ldr	r4, [r2, #0]	@ D.6571, *tmp.0_21
 156 002c 2143     		orrs	r1, r1, r4	@, D.6572, D.6563, D.6571
 157 002e 1160     		str	r1, [r2, #0]	@ D.6572, *tmp.0_21
 142:cmsis/device/stm32f4xx_exti.c ****     EXTI->RTSR &= ~EXTI_InitStruct->EXTI_Line;
 158              		.loc 1 142 0
 159 0030 0268     		ldr	r2, [r0, #0]	@ D.6563, EXTI_InitStruct_3(D)->EXTI_Line
 160 0032 9868     		ldr	r0, [r3, #8]	@ D.6573, MEM[(struct EXTI_TypeDef *)1073822720B].RTSR
 161              	.LVL2:
 162 0034 D143     		mvns	r1, r2	@ D.6564, D.6563
 163 0036 0840     		ands	r0, r0, r1	@, D.6574, D.6573, D.6564
 164 0038 9860     		str	r0, [r3, #8]	@ D.6574, MEM[(struct EXTI_TypeDef *)1073822720B].RTSR
 143:cmsis/device/stm32f4xx_exti.c ****     EXTI->FTSR &= ~EXTI_InitStruct->EXTI_Line;
 165              		.loc 1 143 0
 166 003a D868     		ldr	r0, [r3, #12]	@ D.6575, MEM[(struct EXTI_TypeDef *)1073822720B].FTSR
 167              		.loc 1 146 0
 168 003c 102D     		cmp	r5, #16	@ D.6577,
 143:cmsis/device/stm32f4xx_exti.c ****     EXTI->FTSR &= ~EXTI_InitStruct->EXTI_Line;
 169              		.loc 1 143 0
 170 003e 01EA0001 		and	r1, r1, r0	@ D.6576, D.6564, D.6575
 171 0042 D960     		str	r1, [r3, #12]	@ D.6576, MEM[(struct EXTI_TypeDef *)1073822720B].FTSR
 172              		.loc 1 146 0
 173 0044 13D0     		beq	.L7	@,
 174              	.LVL3:
 147:cmsis/device/stm32f4xx_exti.c ****     {
 148:cmsis/device/stm32f4xx_exti.c ****       /* Rising Falling edge */
 149:cmsis/device/stm32f4xx_exti.c ****       EXTI->RTSR |= EXTI_InitStruct->EXTI_Line;
 150:cmsis/device/stm32f4xx_exti.c ****       EXTI->FTSR |= EXTI_InitStruct->EXTI_Line;
 151:cmsis/device/stm32f4xx_exti.c ****     }
 152:cmsis/device/stm32f4xx_exti.c ****     else
 153:cmsis/device/stm32f4xx_exti.c ****     {
 154:cmsis/device/stm32f4xx_exti.c ****       tmp = (uint32_t)EXTI_BASE;
ARM GAS  C:\Users\CNous\AppData\Local\Temp\ccZZVbMp.s 			page 7


 155:cmsis/device/stm32f4xx_exti.c ****       tmp += EXTI_InitStruct->EXTI_Trigger;
 175              		.loc 1 155 0
 176 0046 05F18045 		add	r5, r5, #1073741824	@ tmp187, D.6577,
 177              	.LVL4:
 178 004a 05F59E35 		add	r5, r5, #80896	@ tmp.0, tmp187,
 179              	.LVL5:
 156:cmsis/device/stm32f4xx_exti.c **** 
 157:cmsis/device/stm32f4xx_exti.c ****       *(__IO uint32_t *) tmp |= EXTI_InitStruct->EXTI_Line;
 180              		.loc 1 157 0
 181 004e 2B68     		ldr	r3, [r5, #0]	@ D.6586, *tmp.0_53
 182 0050 1A43     		orrs	r2, r2, r3	@, D.6587, D.6563, D.6586
 183 0052 2A60     		str	r2, [r5, #0]	@ D.6587, *tmp.0_53
 184 0054 09E0     		b	.L2	@
 185              	.LVL6:
 186              	.L3:
 158:cmsis/device/stm32f4xx_exti.c ****     }
 159:cmsis/device/stm32f4xx_exti.c ****   }
 160:cmsis/device/stm32f4xx_exti.c ****   else
 161:cmsis/device/stm32f4xx_exti.c ****   {
 162:cmsis/device/stm32f4xx_exti.c ****     tmp += EXTI_InitStruct->EXTI_Mode;
 187              		.loc 1 162 0
 188 0056 0279     		ldrb	r2, [r0, #4]	@ zero_extendqisi2	@ EXTI_InitStruct_3(D)->EXTI_Mode, EXTI_InitStruct_3(D)->EXTI
 163:cmsis/device/stm32f4xx_exti.c **** 
 164:cmsis/device/stm32f4xx_exti.c ****     /* Disable the selected external lines */
 165:cmsis/device/stm32f4xx_exti.c ****     *(__IO uint32_t *) tmp &= ~EXTI_InitStruct->EXTI_Line;
 189              		.loc 1 165 0
 190 0058 0168     		ldr	r1, [r0, #0]	@ EXTI_InitStruct_3(D)->EXTI_Line, EXTI_InitStruct_3(D)->EXTI_Line
 162:cmsis/device/stm32f4xx_exti.c ****     tmp += EXTI_InitStruct->EXTI_Mode;
 191              		.loc 1 162 0
 192 005a 02F18040 		add	r0, r2, #1073741824	@ tmp189, EXTI_InitStruct_3(D)->EXTI_Mode,
 193              	.LVL7:
 194 005e 00F59E33 		add	r3, r0, #80896	@ tmp.0, tmp189,
 195              		.loc 1 165 0
 196 0062 1A68     		ldr	r2, [r3, #0]	@ D.6589, *tmp.0_61
 197 0064 22EA0102 		bic	r2, r2, r1	@ D.6590, D.6589, EXTI_InitStruct_3(D)->EXTI_Line
 198 0068 1A60     		str	r2, [r3, #0]	@ D.6590, *tmp.0_61
 199              	.LVL8:
 200              	.L2:
 166:cmsis/device/stm32f4xx_exti.c ****   }
 167:cmsis/device/stm32f4xx_exti.c **** }
 201              		.loc 1 167 0
 202 006a 70BC     		pop	{r4, r5, r6}
 203 006c 7047     		bx	lr
 204              	.LVL9:
 205              	.L7:
 149:cmsis/device/stm32f4xx_exti.c ****       EXTI->RTSR |= EXTI_InitStruct->EXTI_Line;
 206              		.loc 1 149 0
 207 006e 9968     		ldr	r1, [r3, #8]	@ D.6580, MEM[(struct EXTI_TypeDef *)1073822720B].RTSR
 208 0070 1143     		orrs	r1, r1, r2	@, D.6581, D.6580, D.6563
 209 0072 9960     		str	r1, [r3, #8]	@ D.6581, MEM[(struct EXTI_TypeDef *)1073822720B].RTSR
 150:cmsis/device/stm32f4xx_exti.c ****       EXTI->FTSR |= EXTI_InitStruct->EXTI_Line;
 210              		.loc 1 150 0
 211 0074 D868     		ldr	r0, [r3, #12]	@ D.6582, MEM[(struct EXTI_TypeDef *)1073822720B].FTSR
 212 0076 0243     		orrs	r2, r2, r0	@, D.6583, D.6563, D.6582
 213 0078 DA60     		str	r2, [r3, #12]	@ D.6583, MEM[(struct EXTI_TypeDef *)1073822720B].FTSR
 214 007a F6E7     		b	.L2	@
 215              		.cfi_endproc
ARM GAS  C:\Users\CNous\AppData\Local\Temp\ccZZVbMp.s 			page 8


 216              	.LFE111:
 217              		.size	EXTI_Init, .-EXTI_Init
 218              		.section	.text.EXTI_StructInit,"ax",%progbits
 219              		.align	2
 220              		.global	EXTI_StructInit
 221              		.thumb
 222              		.thumb_func
 223              		.type	EXTI_StructInit, %function
 224              	EXTI_StructInit:
 225              	.LFB112:
 168:cmsis/device/stm32f4xx_exti.c **** 
 169:cmsis/device/stm32f4xx_exti.c **** /**
 170:cmsis/device/stm32f4xx_exti.c ****   * @brief  Fills each EXTI_InitStruct member with its reset value.
 171:cmsis/device/stm32f4xx_exti.c ****   * @param  EXTI_InitStruct: pointer to a EXTI_InitTypeDef structure which will
 172:cmsis/device/stm32f4xx_exti.c ****   *         be initialized.
 173:cmsis/device/stm32f4xx_exti.c ****   * @retval None
 174:cmsis/device/stm32f4xx_exti.c ****   */
 175:cmsis/device/stm32f4xx_exti.c **** void EXTI_StructInit(EXTI_InitTypeDef* EXTI_InitStruct)
 176:cmsis/device/stm32f4xx_exti.c **** {
 226              		.loc 1 176 0
 227              		.cfi_startproc
 228              		@ args = 0, pretend = 0, frame = 0
 229              		@ frame_needed = 0, uses_anonymous_args = 0
 230              		@ link register save eliminated.
 231              	.LVL10:
 177:cmsis/device/stm32f4xx_exti.c ****   EXTI_InitStruct->EXTI_Line = EXTI_LINENONE;
 232              		.loc 1 177 0
 233 0000 0023     		movs	r3, #0	@ tmp135,
 178:cmsis/device/stm32f4xx_exti.c ****   EXTI_InitStruct->EXTI_Mode = EXTI_Mode_Interrupt;
 179:cmsis/device/stm32f4xx_exti.c ****   EXTI_InitStruct->EXTI_Trigger = EXTI_Trigger_Falling;
 234              		.loc 1 179 0
 235 0002 0C22     		movs	r2, #12	@ tmp138,
 177:cmsis/device/stm32f4xx_exti.c ****   EXTI_InitStruct->EXTI_Line = EXTI_LINENONE;
 236              		.loc 1 177 0
 237 0004 0360     		str	r3, [r0, #0]	@ tmp135, EXTI_InitStruct_1(D)->EXTI_Line
 178:cmsis/device/stm32f4xx_exti.c ****   EXTI_InitStruct->EXTI_Mode = EXTI_Mode_Interrupt;
 238              		.loc 1 178 0
 239 0006 0371     		strb	r3, [r0, #4]	@ tmp135, EXTI_InitStruct_1(D)->EXTI_Mode
 240              		.loc 1 179 0
 241 0008 4271     		strb	r2, [r0, #5]	@ tmp138, EXTI_InitStruct_1(D)->EXTI_Trigger
 180:cmsis/device/stm32f4xx_exti.c ****   EXTI_InitStruct->EXTI_LineCmd = DISABLE;
 242              		.loc 1 180 0
 243 000a 8371     		strb	r3, [r0, #6]	@ tmp135, EXTI_InitStruct_1(D)->EXTI_LineCmd
 244 000c 7047     		bx	lr	@
 245              		.cfi_endproc
 246              	.LFE112:
 247              		.size	EXTI_StructInit, .-EXTI_StructInit
 248 000e 00BF     		.section	.text.EXTI_GenerateSWInterrupt,"ax",%progbits
 249              		.align	2
 250              		.global	EXTI_GenerateSWInterrupt
 251              		.thumb
 252              		.thumb_func
 253              		.type	EXTI_GenerateSWInterrupt, %function
 254              	EXTI_GenerateSWInterrupt:
 255              	.LFB113:
 181:cmsis/device/stm32f4xx_exti.c **** }
 182:cmsis/device/stm32f4xx_exti.c **** 
ARM GAS  C:\Users\CNous\AppData\Local\Temp\ccZZVbMp.s 			page 9


 183:cmsis/device/stm32f4xx_exti.c **** /**
 184:cmsis/device/stm32f4xx_exti.c ****   * @brief  Generates a Software interrupt on selected EXTI line.
 185:cmsis/device/stm32f4xx_exti.c ****   * @param  EXTI_Line: specifies the EXTI line on which the software interrupt
 186:cmsis/device/stm32f4xx_exti.c ****   *         will be generated.
 187:cmsis/device/stm32f4xx_exti.c ****   *         This parameter can be any combination of EXTI_Linex where x can be (0..22)
 188:cmsis/device/stm32f4xx_exti.c ****   * @retval None
 189:cmsis/device/stm32f4xx_exti.c ****   */
 190:cmsis/device/stm32f4xx_exti.c **** void EXTI_GenerateSWInterrupt(uint32_t EXTI_Line)
 191:cmsis/device/stm32f4xx_exti.c **** {
 256              		.loc 1 191 0
 257              		.cfi_startproc
 258              		@ args = 0, pretend = 0, frame = 0
 259              		@ frame_needed = 0, uses_anonymous_args = 0
 260              		@ link register save eliminated.
 261              	.LVL11:
 192:cmsis/device/stm32f4xx_exti.c ****   /* Check the parameters */
 193:cmsis/device/stm32f4xx_exti.c ****   assert_param(IS_EXTI_LINE(EXTI_Line));
 194:cmsis/device/stm32f4xx_exti.c ****   
 195:cmsis/device/stm32f4xx_exti.c ****   EXTI->SWIER |= EXTI_Line;
 262              		.loc 1 195 0
 263 0000 4FF47053 		mov	r3, #15360	@ tmp137,
 264 0004 C4F20103 		movt	r3, 16385	@ tmp137,
 265 0008 1A69     		ldr	r2, [r3, #16]	@ D.6556, MEM[(struct EXTI_TypeDef *)1073822720B].SWIER
 266 000a 1043     		orrs	r0, r0, r2	@, D.6557, EXTI_Line, D.6556
 267              	.LVL12:
 268 000c 1861     		str	r0, [r3, #16]	@ D.6557, MEM[(struct EXTI_TypeDef *)1073822720B].SWIER
 269 000e 7047     		bx	lr	@
 270              		.cfi_endproc
 271              	.LFE113:
 272              		.size	EXTI_GenerateSWInterrupt, .-EXTI_GenerateSWInterrupt
 273              		.section	.text.EXTI_GetFlagStatus,"ax",%progbits
 274              		.align	2
 275              		.global	EXTI_GetFlagStatus
 276              		.thumb
 277              		.thumb_func
 278              		.type	EXTI_GetFlagStatus, %function
 279              	EXTI_GetFlagStatus:
 280              	.LFB114:
 196:cmsis/device/stm32f4xx_exti.c **** }
 197:cmsis/device/stm32f4xx_exti.c **** 
 198:cmsis/device/stm32f4xx_exti.c **** /**
 199:cmsis/device/stm32f4xx_exti.c ****   * @}
 200:cmsis/device/stm32f4xx_exti.c ****   */
 201:cmsis/device/stm32f4xx_exti.c **** 
 202:cmsis/device/stm32f4xx_exti.c **** /** @defgroup EXTI_Group2 Interrupts and flags management functions
 203:cmsis/device/stm32f4xx_exti.c ****  *  @brief   Interrupts and flags management functions 
 204:cmsis/device/stm32f4xx_exti.c ****  *
 205:cmsis/device/stm32f4xx_exti.c **** @verbatim   
 206:cmsis/device/stm32f4xx_exti.c ****  ===============================================================================
 207:cmsis/device/stm32f4xx_exti.c ****                   Interrupts and flags management functions
 208:cmsis/device/stm32f4xx_exti.c ****  ===============================================================================  
 209:cmsis/device/stm32f4xx_exti.c **** 
 210:cmsis/device/stm32f4xx_exti.c **** @endverbatim
 211:cmsis/device/stm32f4xx_exti.c ****   * @{
 212:cmsis/device/stm32f4xx_exti.c ****   */
 213:cmsis/device/stm32f4xx_exti.c **** 
 214:cmsis/device/stm32f4xx_exti.c **** /**
ARM GAS  C:\Users\CNous\AppData\Local\Temp\ccZZVbMp.s 			page 10


 215:cmsis/device/stm32f4xx_exti.c ****   * @brief  Checks whether the specified EXTI line flag is set or not.
 216:cmsis/device/stm32f4xx_exti.c ****   * @param  EXTI_Line: specifies the EXTI line flag to check.
 217:cmsis/device/stm32f4xx_exti.c ****   *          This parameter can be EXTI_Linex where x can be(0..22)
 218:cmsis/device/stm32f4xx_exti.c ****   * @retval The new state of EXTI_Line (SET or RESET).
 219:cmsis/device/stm32f4xx_exti.c ****   */
 220:cmsis/device/stm32f4xx_exti.c **** FlagStatus EXTI_GetFlagStatus(uint32_t EXTI_Line)
 221:cmsis/device/stm32f4xx_exti.c **** {
 281              		.loc 1 221 0
 282              		.cfi_startproc
 283              		@ args = 0, pretend = 0, frame = 0
 284              		@ frame_needed = 0, uses_anonymous_args = 0
 285              		@ link register save eliminated.
 286              	.LVL13:
 222:cmsis/device/stm32f4xx_exti.c ****   FlagStatus bitstatus = RESET;
 223:cmsis/device/stm32f4xx_exti.c ****   /* Check the parameters */
 224:cmsis/device/stm32f4xx_exti.c ****   assert_param(IS_GET_EXTI_LINE(EXTI_Line));
 225:cmsis/device/stm32f4xx_exti.c ****   
 226:cmsis/device/stm32f4xx_exti.c ****   if ((EXTI->PR & EXTI_Line) != (uint32_t)RESET)
 287              		.loc 1 226 0
 288 0000 4FF47053 		mov	r3, #15360	@ tmp140,
 289 0004 C4F20103 		movt	r3, 16385	@ tmp140,
 290 0008 5969     		ldr	r1, [r3, #20]	@ D.6548, MEM[(struct EXTI_TypeDef *)1073822720B].PR
 291              	.LVL14:
 292 000a 0842     		tst	r0, r1	@ EXTI_Line, D.6548
 227:cmsis/device/stm32f4xx_exti.c ****   {
 228:cmsis/device/stm32f4xx_exti.c ****     bitstatus = SET;
 229:cmsis/device/stm32f4xx_exti.c ****   }
 230:cmsis/device/stm32f4xx_exti.c ****   else
 231:cmsis/device/stm32f4xx_exti.c ****   {
 232:cmsis/device/stm32f4xx_exti.c ****     bitstatus = RESET;
 233:cmsis/device/stm32f4xx_exti.c ****   }
 234:cmsis/device/stm32f4xx_exti.c ****   return bitstatus;
 235:cmsis/device/stm32f4xx_exti.c **** }
 293              		.loc 1 235 0
 294 000c 0CBF     		ite	eq	@
 295 000e 0020     		moveq	r0, #0	@,
 296 0010 0120     		movne	r0, #1	@,
 297              	.LVL15:
 298 0012 7047     		bx	lr	@
 299              		.cfi_endproc
 300              	.LFE114:
 301              		.size	EXTI_GetFlagStatus, .-EXTI_GetFlagStatus
 302              		.section	.text.EXTI_ClearFlag,"ax",%progbits
 303              		.align	2
 304              		.global	EXTI_ClearFlag
 305              		.thumb
 306              		.thumb_func
 307              		.type	EXTI_ClearFlag, %function
 308              	EXTI_ClearFlag:
 309              	.LFB115:
 236:cmsis/device/stm32f4xx_exti.c **** 
 237:cmsis/device/stm32f4xx_exti.c **** /**
 238:cmsis/device/stm32f4xx_exti.c ****   * @brief  Clears the EXTI's line pending flags.
 239:cmsis/device/stm32f4xx_exti.c ****   * @param  EXTI_Line: specifies the EXTI lines flags to clear.
 240:cmsis/device/stm32f4xx_exti.c ****   *          This parameter can be any combination of EXTI_Linex where x can be (0..22)
 241:cmsis/device/stm32f4xx_exti.c ****   * @retval None
 242:cmsis/device/stm32f4xx_exti.c ****   */
ARM GAS  C:\Users\CNous\AppData\Local\Temp\ccZZVbMp.s 			page 11


 243:cmsis/device/stm32f4xx_exti.c **** void EXTI_ClearFlag(uint32_t EXTI_Line)
 244:cmsis/device/stm32f4xx_exti.c **** {
 310              		.loc 1 244 0
 311              		.cfi_startproc
 312              		@ args = 0, pretend = 0, frame = 0
 313              		@ frame_needed = 0, uses_anonymous_args = 0
 314              		@ link register save eliminated.
 315              	.LVL16:
 245:cmsis/device/stm32f4xx_exti.c ****   /* Check the parameters */
 246:cmsis/device/stm32f4xx_exti.c ****   assert_param(IS_EXTI_LINE(EXTI_Line));
 247:cmsis/device/stm32f4xx_exti.c ****   
 248:cmsis/device/stm32f4xx_exti.c ****   EXTI->PR = EXTI_Line;
 316              		.loc 1 248 0
 317 0000 4FF47053 		mov	r3, #15360	@ tmp136,
 318 0004 C4F20103 		movt	r3, 16385	@ tmp136,
 319 0008 5861     		str	r0, [r3, #20]	@ EXTI_Line, MEM[(struct EXTI_TypeDef *)1073822720B].PR
 320 000a 7047     		bx	lr	@
 321              		.cfi_endproc
 322              	.LFE115:
 323              		.size	EXTI_ClearFlag, .-EXTI_ClearFlag
 324              		.section	.text.EXTI_GetITStatus,"ax",%progbits
 325              		.align	2
 326              		.global	EXTI_GetITStatus
 327              		.thumb
 328              		.thumb_func
 329              		.type	EXTI_GetITStatus, %function
 330              	EXTI_GetITStatus:
 331              	.LFB116:
 249:cmsis/device/stm32f4xx_exti.c **** }
 250:cmsis/device/stm32f4xx_exti.c **** 
 251:cmsis/device/stm32f4xx_exti.c **** /**
 252:cmsis/device/stm32f4xx_exti.c ****   * @brief  Checks whether the specified EXTI line is asserted or not.
 253:cmsis/device/stm32f4xx_exti.c ****   * @param  EXTI_Line: specifies the EXTI line to check.
 254:cmsis/device/stm32f4xx_exti.c ****   *          This parameter can be EXTI_Linex where x can be(0..22)
 255:cmsis/device/stm32f4xx_exti.c ****   * @retval The new state of EXTI_Line (SET or RESET).
 256:cmsis/device/stm32f4xx_exti.c ****   */
 257:cmsis/device/stm32f4xx_exti.c **** ITStatus EXTI_GetITStatus(uint32_t EXTI_Line)
 258:cmsis/device/stm32f4xx_exti.c **** {
 332              		.loc 1 258 0
 333              		.cfi_startproc
 334              		@ args = 0, pretend = 0, frame = 0
 335              		@ frame_needed = 0, uses_anonymous_args = 0
 336              		@ link register save eliminated.
 337              	.LVL17:
 259:cmsis/device/stm32f4xx_exti.c ****   ITStatus bitstatus = RESET;
 260:cmsis/device/stm32f4xx_exti.c ****   uint32_t enablestatus = 0;
 261:cmsis/device/stm32f4xx_exti.c ****   /* Check the parameters */
 262:cmsis/device/stm32f4xx_exti.c ****   assert_param(IS_GET_EXTI_LINE(EXTI_Line));
 263:cmsis/device/stm32f4xx_exti.c ****   
 264:cmsis/device/stm32f4xx_exti.c ****   enablestatus =  EXTI->IMR & EXTI_Line;
 338              		.loc 1 264 0
 339 0000 4FF47053 		mov	r3, #15360	@ tmp142,
 340 0004 C4F20103 		movt	r3, 16385	@ tmp142,
 341 0008 1A68     		ldr	r2, [r3, #0]	@ D.6537, MEM[(struct EXTI_TypeDef *)1073822720B].IMR
 342              	.LVL18:
 265:cmsis/device/stm32f4xx_exti.c ****   if (((EXTI->PR & EXTI_Line) != (uint32_t)RESET) && (enablestatus != (uint32_t)RESET))
 343              		.loc 1 265 0
ARM GAS  C:\Users\CNous\AppData\Local\Temp\ccZZVbMp.s 			page 12


 344 000a 5969     		ldr	r1, [r3, #20]	@ D.6540, MEM[(struct EXTI_TypeDef *)1073822720B].PR
 345 000c 10EA0103 		ands	r3, r0, r1	@ tmp144, EXTI_Line, D.6540
 346 0010 04D0     		beq	.L14	@,
 347              		.loc 1 265 0 is_stmt 0 discriminator 1
 348 0012 1042     		tst	r0, r2	@ EXTI_Line, D.6537
 266:cmsis/device/stm32f4xx_exti.c ****   {
 267:cmsis/device/stm32f4xx_exti.c ****     bitstatus = SET;
 349              		.loc 1 267 0 is_stmt 1 discriminator 1
 350 0014 0CBF     		ite	eq	@
 351 0016 0020     		moveq	r0, #0	@, bitstatus
 352 0018 0120     		movne	r0, #1	@, bitstatus
 353              	.LVL19:
 354 001a 7047     		bx	lr	@
 355              	.LVL20:
 356              	.L14:
 268:cmsis/device/stm32f4xx_exti.c ****   }
 269:cmsis/device/stm32f4xx_exti.c ****   else
 270:cmsis/device/stm32f4xx_exti.c ****   {
 271:cmsis/device/stm32f4xx_exti.c ****     bitstatus = RESET;
 357              		.loc 1 271 0
 358 001c 1846     		mov	r0, r3	@ bitstatus, tmp144
 359              	.LVL21:
 272:cmsis/device/stm32f4xx_exti.c ****   }
 273:cmsis/device/stm32f4xx_exti.c ****   return bitstatus;
 274:cmsis/device/stm32f4xx_exti.c **** }
 360              		.loc 1 274 0
 361 001e 7047     		bx	lr	@
 362              		.cfi_endproc
 363              	.LFE116:
 364              		.size	EXTI_GetITStatus, .-EXTI_GetITStatus
 365              		.section	.text.EXTI_ClearITPendingBit,"ax",%progbits
 366              		.align	2
 367              		.global	EXTI_ClearITPendingBit
 368              		.thumb
 369              		.thumb_func
 370              		.type	EXTI_ClearITPendingBit, %function
 371              	EXTI_ClearITPendingBit:
 372              	.LFB117:
 275:cmsis/device/stm32f4xx_exti.c **** 
 276:cmsis/device/stm32f4xx_exti.c **** /**
 277:cmsis/device/stm32f4xx_exti.c ****   * @brief  Clears the EXTI's line pending bits.
 278:cmsis/device/stm32f4xx_exti.c ****   * @param  EXTI_Line: specifies the EXTI lines to clear.
 279:cmsis/device/stm32f4xx_exti.c ****   *          This parameter can be any combination of EXTI_Linex where x can be (0..22)
 280:cmsis/device/stm32f4xx_exti.c ****   * @retval None
 281:cmsis/device/stm32f4xx_exti.c ****   */
 282:cmsis/device/stm32f4xx_exti.c **** void EXTI_ClearITPendingBit(uint32_t EXTI_Line)
 283:cmsis/device/stm32f4xx_exti.c **** {
 373              		.loc 1 283 0
 374              		.cfi_startproc
 375              		@ args = 0, pretend = 0, frame = 0
 376              		@ frame_needed = 0, uses_anonymous_args = 0
 377              		@ link register save eliminated.
 378              	.LVL22:
 284:cmsis/device/stm32f4xx_exti.c ****   /* Check the parameters */
 285:cmsis/device/stm32f4xx_exti.c ****   assert_param(IS_EXTI_LINE(EXTI_Line));
 286:cmsis/device/stm32f4xx_exti.c ****   
 287:cmsis/device/stm32f4xx_exti.c ****   EXTI->PR = EXTI_Line;
ARM GAS  C:\Users\CNous\AppData\Local\Temp\ccZZVbMp.s 			page 13


 379              		.loc 1 287 0
 380 0000 4FF47053 		mov	r3, #15360	@ tmp136,
 381 0004 C4F20103 		movt	r3, 16385	@ tmp136,
 382 0008 5861     		str	r0, [r3, #20]	@ EXTI_Line, MEM[(struct EXTI_TypeDef *)1073822720B].PR
 383 000a 7047     		bx	lr	@
 384              		.cfi_endproc
 385              	.LFE117:
 386              		.size	EXTI_ClearITPendingBit, .-EXTI_ClearITPendingBit
 387              		.text
 388              	.Letext0:
 389              		.file 2 "c:\\gnutoolsarmembedded\\4.7-2012q4\\bin\\../lib/gcc/arm-none-eabi/4.7.3/../../../../arm-
 390              		.file 3 "cmsis/device/stm32f4xx.h"
 391              		.file 4 "cmsis/device/stm32f4xx_exti.h"
 392              		.file 5 "./cmsis/core/core_cm4.h"