ARM GAS  C:\Users\CNous\AppData\Local\Temp\ccJl4JfT.s 			page 1


   1              		.syntax unified
   2              		.cpu cortex-m4
   3              		.eabi_attribute 27, 3	@ Tag_ABI_HardFP_use
   4              		.eabi_attribute 28, 1	@ Tag_ABI_VFP_args
   5              		.fpu fpv4-sp-d16
   6              		.eabi_attribute 20, 1	@ Tag_ABI_FP_denormal
   7              		.eabi_attribute 21, 1	@ Tag_ABI_FP_exceptions
   8              		.eabi_attribute 23, 3	@ Tag_ABI_FP_number_model
   9              		.eabi_attribute 24, 1	@ Tag_ABI_align8_needed
  10              		.eabi_attribute 25, 1	@ Tag_ABI_align8_preserved
  11              		.eabi_attribute 26, 1	@ Tag_ABI_enum_size
  12              		.eabi_attribute 30, 2	@ Tag_ABI_optimization_goals
  13              		.eabi_attribute 34, 1	@ Tag_CPU_unaligned_access
  14              		.eabi_attribute 18, 4	@ Tag_ABI_PCS_wchar_t
  15              		.file	"stm32f4xx_rcc.c"
  16              	@ GNU C (GNU Tools for ARM Embedded Processors) version 4.7.3 20121207 (release) [ARM/embedded-4_7-
  17              	@	compiled by GNU C version 4.2.1-sjlj (mingw32-2), GMP version 4.3.2, MPFR version 2.4.2, MPC vers
  18              	@ GGC heuristics: --param ggc-min-expand=100 --param ggc-min-heapsize=131072
  19              	@ options passed:  -I . -I ./inc -I ./cmsis/core -I ./cmsis/device
  20              	@ -imultilib armv7e-m/fpu
  21              	@ -iprefix c:\gnutoolsarmembedded\4.7-2012q4\bin\../lib/gcc/arm-none-eabi/4.7.3/
  22              	@ -isysroot c:\gnutoolsarmembedded\4.7-2012q4\bin\../arm-none-eabi
  23              	@ -MD cmsis/device/stm32f4xx_rcc.d -MF .dep/stm32f4xx_rcc.o.d -MP
  24              	@ -MQ cmsis/device/stm32f4xx_rcc.o -D__USES_INITFINI__ -D __FPU_USED=1
  25              	@ -D __arm__ -D __ASSEMBLY__ -D USE_STDPERIPH_DRIVER -D STM32F4XX
  26              	@ -D HSE_VALUE=8000000 -D __FPU_PRESENT=1 -D STM32F407VG
  27              	@ -D RUN_FROM_FLASH=1 cmsis/device/stm32f4xx_rcc.c -mthumb -mcpu=cortex-m4
  28              	@ -mfloat-abi=hard -mfpu=fpv4-sp-d16
  29              	@ -auxbase-strip cmsis/device/stm32f4xx_rcc.o -gdwarf-2 -O2 -Wall
  30              	@ -Wstrict-prototypes -fverbose-asm -ffunction-sections -fdata-sections
  31              	@ options enabled:  -fauto-inc-dec -fbranch-count-reg -fcaller-saves
  32              	@ -fcombine-stack-adjustments -fcommon -fcompare-elim -fcprop-registers
  33              	@ -fcrossjumping -fcse-follow-jumps -fdata-sections -fdebug-types-section
  34              	@ -fdefer-pop -fdelete-null-pointer-checks -fdevirtualize -fdwarf2-cfi-asm
  35              	@ -fearly-inlining -feliminate-unused-debug-types -fexpensive-optimizations
  36              	@ -fforward-propagate -ffunction-cse -ffunction-sections -fgcse -fgcse-lm
  37              	@ -fgnu-runtime -fguess-branch-probability -fident -fif-conversion
  38              	@ -fif-conversion2 -findirect-inlining -finline -finline-atomics
  39              	@ -finline-functions-called-once -finline-small-functions -fipa-cp
  40              	@ -fipa-profile -fipa-pure-const -fipa-reference -fipa-sra
  41              	@ -fira-share-save-slots -fira-share-spill-slots -fivopts
  42              	@ -fkeep-static-consts -fleading-underscore -fmath-errno -fmerge-constants
  43              	@ -fmerge-debug-strings -fmove-loop-invariants -fomit-frame-pointer
  44              	@ -foptimize-register-move -foptimize-sibling-calls -foptimize-strlen
  45              	@ -fpartial-inlining -fpeephole -fpeephole2 -fprefetch-loop-arrays
  46              	@ -freg-struct-return -fregmove -frename-registers -freorder-blocks
  47              	@ -freorder-functions -frerun-cse-after-loop
  48              	@ -fsched-critical-path-heuristic -fsched-dep-count-heuristic
  49              	@ -fsched-group-heuristic -fsched-interblock -fsched-last-insn-heuristic
  50              	@ -fsched-rank-heuristic -fsched-spec -fsched-spec-insn-heuristic
  51              	@ -fsched-stalled-insns-dep -fschedule-insns -fschedule-insns2
  52              	@ -fsection-anchors -fshow-column -fshrink-wrap -fsigned-zeros
  53              	@ -fsplit-ivs-in-unroller -fsplit-wide-types -fstrict-aliasing
  54              	@ -fstrict-overflow -fstrict-volatile-bitfields -fthread-jumps
  55              	@ -ftoplevel-reorder -ftrapping-math -ftree-bit-ccp -ftree-builtin-call-dce
  56              	@ -ftree-ccp -ftree-ch -ftree-copy-prop -ftree-copyrename -ftree-cselim
  57              	@ -ftree-dce -ftree-dominator-opts -ftree-dse -ftree-forwprop -ftree-fre
ARM GAS  C:\Users\CNous\AppData\Local\Temp\ccJl4JfT.s 			page 2


  58              	@ -ftree-loop-if-convert -ftree-loop-im -ftree-loop-ivcanon
  59              	@ -ftree-loop-optimize -ftree-parallelize-loops= -ftree-phiprop -ftree-pre
  60              	@ -ftree-pta -ftree-reassoc -ftree-scev-cprop -ftree-sink
  61              	@ -ftree-slp-vectorize -ftree-sra -ftree-switch-conversion
  62              	@ -ftree-tail-merge -ftree-ter -ftree-vect-loop-version -ftree-vrp
  63              	@ -funit-at-a-time -funroll-loops -fvar-tracking -fvar-tracking-assignments
  64              	@ -fverbose-asm -fweb -fzero-initialized-in-bss -mlittle-endian
  65              	@ -msched-prolog -mthumb -munaligned-access -mvectorize-with-neon-quad
  66              	
  67              		.text
  68              	.Ltext0:
  69              		.cfi_sections	.debug_frame
  70              		.section	.text.RCC_DeInit,"ax",%progbits
  71              		.align	2
  72              		.global	RCC_DeInit
  73              		.thumb
  74              		.thumb_func
  75              		.type	RCC_DeInit, %function
  76              	RCC_DeInit:
  77              	.LFB110:
  78              		.file 1 "cmsis/device/stm32f4xx_rcc.c"
   1:cmsis/device/stm32f4xx_rcc.c **** /**
   2:cmsis/device/stm32f4xx_rcc.c ****   ******************************************************************************
   3:cmsis/device/stm32f4xx_rcc.c ****   * @file    stm32f4xx_rcc.c
   4:cmsis/device/stm32f4xx_rcc.c ****   * @author  MCD Application Team
   5:cmsis/device/stm32f4xx_rcc.c ****   * @version V1.0.0
   6:cmsis/device/stm32f4xx_rcc.c ****   * @date    30-September-2011
   7:cmsis/device/stm32f4xx_rcc.c ****   * @brief   This file provides firmware functions to manage the following 
   8:cmsis/device/stm32f4xx_rcc.c ****   *          functionalities of the Reset and clock control (RCC) peripheral:
   9:cmsis/device/stm32f4xx_rcc.c ****   *           - Internal/external clocks, PLL, CSS and MCO configuration
  10:cmsis/device/stm32f4xx_rcc.c ****   *           - System, AHB and APB busses clocks configuration
  11:cmsis/device/stm32f4xx_rcc.c ****   *           - Peripheral clocks configuration
  12:cmsis/device/stm32f4xx_rcc.c ****   *           - Interrupts and flags management
  13:cmsis/device/stm32f4xx_rcc.c ****   *
  14:cmsis/device/stm32f4xx_rcc.c ****   *  @verbatim
  15:cmsis/device/stm32f4xx_rcc.c ****   *               
  16:cmsis/device/stm32f4xx_rcc.c ****   *          ===================================================================
  17:cmsis/device/stm32f4xx_rcc.c ****   *                               RCC specific features
  18:cmsis/device/stm32f4xx_rcc.c ****   *          ===================================================================
  19:cmsis/device/stm32f4xx_rcc.c ****   *    
  20:cmsis/device/stm32f4xx_rcc.c ****   *          After reset the device is running from Internal High Speed oscillator 
  21:cmsis/device/stm32f4xx_rcc.c ****   *          (HSI 16MHz) with Flash 0 wait state, Flash prefetch buffer, D-Cache 
  22:cmsis/device/stm32f4xx_rcc.c ****   *          and I-Cache are disabled, and all peripherals are off except internal
  23:cmsis/device/stm32f4xx_rcc.c ****   *          SRAM, Flash and JTAG.
  24:cmsis/device/stm32f4xx_rcc.c ****   *           - There is no prescaler on High speed (AHB) and Low speed (APB) busses;
  25:cmsis/device/stm32f4xx_rcc.c ****   *             all peripherals mapped on these busses are running at HSI speed.
  26:cmsis/device/stm32f4xx_rcc.c ****   *       	  - The clock for all peripherals is switched off, except the SRAM and FLASH.
  27:cmsis/device/stm32f4xx_rcc.c ****   *           - All GPIOs are in input floating state, except the JTAG pins which
  28:cmsis/device/stm32f4xx_rcc.c ****   *             are assigned to be used for debug purpose.
  29:cmsis/device/stm32f4xx_rcc.c ****   *        
  30:cmsis/device/stm32f4xx_rcc.c ****   *          Once the device started from reset, the user application has to:        
  31:cmsis/device/stm32f4xx_rcc.c ****   *           - Configure the clock source to be used to drive the System clock
  32:cmsis/device/stm32f4xx_rcc.c ****   *             (if the application needs higher frequency/performance)
  33:cmsis/device/stm32f4xx_rcc.c ****   *           - Configure the System clock frequency and Flash settings  
  34:cmsis/device/stm32f4xx_rcc.c ****   *           - Configure the AHB and APB busses prescalers
  35:cmsis/device/stm32f4xx_rcc.c ****   *           - Enable the clock for the peripheral(s) to be used
  36:cmsis/device/stm32f4xx_rcc.c ****   *           - Configure the clock source(s) for peripherals which clocks are not
ARM GAS  C:\Users\CNous\AppData\Local\Temp\ccJl4JfT.s 			page 3


  37:cmsis/device/stm32f4xx_rcc.c ****   *             derived from the System clock (I2S, RTC, ADC, USB OTG FS/SDIO/RNG)      
  38:cmsis/device/stm32f4xx_rcc.c ****   *                        
  39:cmsis/device/stm32f4xx_rcc.c ****   *  @endverbatim
  40:cmsis/device/stm32f4xx_rcc.c ****   *    
  41:cmsis/device/stm32f4xx_rcc.c ****   ******************************************************************************
  42:cmsis/device/stm32f4xx_rcc.c ****   * @attention
  43:cmsis/device/stm32f4xx_rcc.c ****   *
  44:cmsis/device/stm32f4xx_rcc.c ****   * THE PRESENT FIRMWARE WHICH IS FOR GUIDANCE ONLY AIMS AT PROVIDING CUSTOMERS
  45:cmsis/device/stm32f4xx_rcc.c ****   * WITH CODING INFORMATION REGARDING THEIR PRODUCTS IN ORDER FOR THEM TO SAVE
  46:cmsis/device/stm32f4xx_rcc.c ****   * TIME. AS A RESULT, STMICROELECTRONICS SHALL NOT BE HELD LIABLE FOR ANY
  47:cmsis/device/stm32f4xx_rcc.c ****   * DIRECT, INDIRECT OR CONSEQUENTIAL DAMAGES WITH RESPECT TO ANY CLAIMS ARISING
  48:cmsis/device/stm32f4xx_rcc.c ****   * FROM THE CONTENT OF SUCH FIRMWARE AND/OR THE USE MADE BY CUSTOMERS OF THE
  49:cmsis/device/stm32f4xx_rcc.c ****   * CODING INFORMATION CONTAINED HEREIN IN CONNECTION WITH THEIR PRODUCTS.
  50:cmsis/device/stm32f4xx_rcc.c ****   *
  51:cmsis/device/stm32f4xx_rcc.c ****   * <h2><center>&copy; COPYRIGHT 2011 STMicroelectronics</center></h2>
  52:cmsis/device/stm32f4xx_rcc.c ****   ******************************************************************************
  53:cmsis/device/stm32f4xx_rcc.c ****   */
  54:cmsis/device/stm32f4xx_rcc.c **** 
  55:cmsis/device/stm32f4xx_rcc.c **** /* Includes ------------------------------------------------------------------*/
  56:cmsis/device/stm32f4xx_rcc.c **** #include "stm32f4xx_rcc.h"
  57:cmsis/device/stm32f4xx_rcc.c **** 
  58:cmsis/device/stm32f4xx_rcc.c **** /** @addtogroup STM32F4xx_StdPeriph_Driver
  59:cmsis/device/stm32f4xx_rcc.c ****   * @{
  60:cmsis/device/stm32f4xx_rcc.c ****   */
  61:cmsis/device/stm32f4xx_rcc.c **** 
  62:cmsis/device/stm32f4xx_rcc.c **** /** @defgroup RCC 
  63:cmsis/device/stm32f4xx_rcc.c ****   * @brief RCC driver modules
  64:cmsis/device/stm32f4xx_rcc.c ****   * @{
  65:cmsis/device/stm32f4xx_rcc.c ****   */ 
  66:cmsis/device/stm32f4xx_rcc.c **** 
  67:cmsis/device/stm32f4xx_rcc.c **** /* Private typedef -----------------------------------------------------------*/
  68:cmsis/device/stm32f4xx_rcc.c **** /* Private define ------------------------------------------------------------*/
  69:cmsis/device/stm32f4xx_rcc.c **** /* ------------ RCC registers bit address in the alias region ----------- */
  70:cmsis/device/stm32f4xx_rcc.c **** #define RCC_OFFSET                (RCC_BASE - PERIPH_BASE)
  71:cmsis/device/stm32f4xx_rcc.c **** /* --- CR Register ---*/
  72:cmsis/device/stm32f4xx_rcc.c **** /* Alias word address of HSION bit */
  73:cmsis/device/stm32f4xx_rcc.c **** #define CR_OFFSET                 (RCC_OFFSET + 0x00)
  74:cmsis/device/stm32f4xx_rcc.c **** #define HSION_BitNumber           0x00
  75:cmsis/device/stm32f4xx_rcc.c **** #define CR_HSION_BB               (PERIPH_BB_BASE + (CR_OFFSET * 32) + (HSION_BitNumber * 4))
  76:cmsis/device/stm32f4xx_rcc.c **** /* Alias word address of CSSON bit */
  77:cmsis/device/stm32f4xx_rcc.c **** #define CSSON_BitNumber           0x13
  78:cmsis/device/stm32f4xx_rcc.c **** #define CR_CSSON_BB               (PERIPH_BB_BASE + (CR_OFFSET * 32) + (CSSON_BitNumber * 4))
  79:cmsis/device/stm32f4xx_rcc.c **** /* Alias word address of PLLON bit */
  80:cmsis/device/stm32f4xx_rcc.c **** #define PLLON_BitNumber           0x18
  81:cmsis/device/stm32f4xx_rcc.c **** #define CR_PLLON_BB               (PERIPH_BB_BASE + (CR_OFFSET * 32) + (PLLON_BitNumber * 4))
  82:cmsis/device/stm32f4xx_rcc.c **** /* Alias word address of PLLI2SON bit */
  83:cmsis/device/stm32f4xx_rcc.c **** #define PLLI2SON_BitNumber        0x1A
  84:cmsis/device/stm32f4xx_rcc.c **** #define CR_PLLI2SON_BB            (PERIPH_BB_BASE + (CR_OFFSET * 32) + (PLLI2SON_BitNumber * 4))
  85:cmsis/device/stm32f4xx_rcc.c **** 
  86:cmsis/device/stm32f4xx_rcc.c **** /* --- CFGR Register ---*/
  87:cmsis/device/stm32f4xx_rcc.c **** /* Alias word address of I2SSRC bit */
  88:cmsis/device/stm32f4xx_rcc.c **** #define CFGR_OFFSET               (RCC_OFFSET + 0x08)
  89:cmsis/device/stm32f4xx_rcc.c **** #define I2SSRC_BitNumber          0x17
  90:cmsis/device/stm32f4xx_rcc.c **** #define CFGR_I2SSRC_BB            (PERIPH_BB_BASE + (CFGR_OFFSET * 32) + (I2SSRC_BitNumber * 4))
  91:cmsis/device/stm32f4xx_rcc.c **** 
  92:cmsis/device/stm32f4xx_rcc.c **** /* --- BDCR Register ---*/
  93:cmsis/device/stm32f4xx_rcc.c **** /* Alias word address of RTCEN bit */
ARM GAS  C:\Users\CNous\AppData\Local\Temp\ccJl4JfT.s 			page 4


  94:cmsis/device/stm32f4xx_rcc.c **** #define BDCR_OFFSET               (RCC_OFFSET + 0x70)
  95:cmsis/device/stm32f4xx_rcc.c **** #define RTCEN_BitNumber           0x0F
  96:cmsis/device/stm32f4xx_rcc.c **** #define BDCR_RTCEN_BB             (PERIPH_BB_BASE + (BDCR_OFFSET * 32) + (RTCEN_BitNumber * 4))
  97:cmsis/device/stm32f4xx_rcc.c **** /* Alias word address of BDRST bit */
  98:cmsis/device/stm32f4xx_rcc.c **** #define BDRST_BitNumber           0x10
  99:cmsis/device/stm32f4xx_rcc.c **** #define BDCR_BDRST_BB             (PERIPH_BB_BASE + (BDCR_OFFSET * 32) + (BDRST_BitNumber * 4))
 100:cmsis/device/stm32f4xx_rcc.c **** /* --- CSR Register ---*/
 101:cmsis/device/stm32f4xx_rcc.c **** /* Alias word address of LSION bit */
 102:cmsis/device/stm32f4xx_rcc.c **** #define CSR_OFFSET                (RCC_OFFSET + 0x74)
 103:cmsis/device/stm32f4xx_rcc.c **** #define LSION_BitNumber           0x00
 104:cmsis/device/stm32f4xx_rcc.c **** #define CSR_LSION_BB              (PERIPH_BB_BASE + (CSR_OFFSET * 32) + (LSION_BitNumber * 4))
 105:cmsis/device/stm32f4xx_rcc.c **** /* ---------------------- RCC registers bit mask ------------------------ */
 106:cmsis/device/stm32f4xx_rcc.c **** /* CFGR register bit mask */
 107:cmsis/device/stm32f4xx_rcc.c **** #define CFGR_MCO2_RESET_MASK      ((uint32_t)0x07FFFFFF)
 108:cmsis/device/stm32f4xx_rcc.c **** #define CFGR_MCO1_RESET_MASK      ((uint32_t)0xF89FFFFF)
 109:cmsis/device/stm32f4xx_rcc.c **** 
 110:cmsis/device/stm32f4xx_rcc.c **** /* RCC Flag Mask */
 111:cmsis/device/stm32f4xx_rcc.c **** #define FLAG_MASK                 ((uint8_t)0x1F)
 112:cmsis/device/stm32f4xx_rcc.c **** 
 113:cmsis/device/stm32f4xx_rcc.c **** /* CR register byte 3 (Bits[23:16]) base address */
 114:cmsis/device/stm32f4xx_rcc.c **** #define CR_BYTE3_ADDRESS          ((uint32_t)0x40023802)
 115:cmsis/device/stm32f4xx_rcc.c **** 
 116:cmsis/device/stm32f4xx_rcc.c **** /* CIR register byte 2 (Bits[15:8]) base address */
 117:cmsis/device/stm32f4xx_rcc.c **** #define CIR_BYTE2_ADDRESS         ((uint32_t)(RCC_BASE + 0x0C + 0x01))
 118:cmsis/device/stm32f4xx_rcc.c **** 
 119:cmsis/device/stm32f4xx_rcc.c **** /* CIR register byte 3 (Bits[23:16]) base address */
 120:cmsis/device/stm32f4xx_rcc.c **** #define CIR_BYTE3_ADDRESS         ((uint32_t)(RCC_BASE + 0x0C + 0x02))
 121:cmsis/device/stm32f4xx_rcc.c **** 
 122:cmsis/device/stm32f4xx_rcc.c **** /* BDCR register base address */
 123:cmsis/device/stm32f4xx_rcc.c **** #define BDCR_ADDRESS              (PERIPH_BASE + BDCR_OFFSET)
 124:cmsis/device/stm32f4xx_rcc.c **** 
 125:cmsis/device/stm32f4xx_rcc.c **** /* Private macro -------------------------------------------------------------*/
 126:cmsis/device/stm32f4xx_rcc.c **** /* Private variables ---------------------------------------------------------*/
 127:cmsis/device/stm32f4xx_rcc.c **** static __I uint8_t APBAHBPrescTable[16] = {0, 0, 0, 0, 1, 2, 3, 4, 1, 2, 3, 4, 6, 7, 8, 9};
 128:cmsis/device/stm32f4xx_rcc.c **** 
 129:cmsis/device/stm32f4xx_rcc.c **** /* Private function prototypes -----------------------------------------------*/
 130:cmsis/device/stm32f4xx_rcc.c **** /* Private functions ---------------------------------------------------------*/
 131:cmsis/device/stm32f4xx_rcc.c **** 
 132:cmsis/device/stm32f4xx_rcc.c **** /** @defgroup RCC_Private_Functions
 133:cmsis/device/stm32f4xx_rcc.c ****   * @{
 134:cmsis/device/stm32f4xx_rcc.c ****   */ 
 135:cmsis/device/stm32f4xx_rcc.c **** 
 136:cmsis/device/stm32f4xx_rcc.c **** /** @defgroup RCC_Group1 Internal and external clocks, PLL, CSS and MCO configuration functions
 137:cmsis/device/stm32f4xx_rcc.c ****  *  @brief   Internal and external clocks, PLL, CSS and MCO configuration functions 
 138:cmsis/device/stm32f4xx_rcc.c ****  *
 139:cmsis/device/stm32f4xx_rcc.c **** @verbatim   
 140:cmsis/device/stm32f4xx_rcc.c ****  ===============================================================================
 141:cmsis/device/stm32f4xx_rcc.c ****       Internal/external clocks, PLL, CSS and MCO configuration functions
 142:cmsis/device/stm32f4xx_rcc.c ****  ===============================================================================  
 143:cmsis/device/stm32f4xx_rcc.c **** 
 144:cmsis/device/stm32f4xx_rcc.c ****   This section provide functions allowing to configure the internal/external clocks,
 145:cmsis/device/stm32f4xx_rcc.c ****   PLLs, CSS and MCO pins.
 146:cmsis/device/stm32f4xx_rcc.c ****   
 147:cmsis/device/stm32f4xx_rcc.c ****   1. HSI (high-speed internal), 16 MHz factory-trimmed RC used directly or through
 148:cmsis/device/stm32f4xx_rcc.c ****      the PLL as System clock source.
 149:cmsis/device/stm32f4xx_rcc.c **** 
 150:cmsis/device/stm32f4xx_rcc.c ****   2. LSI (low-speed internal), 32 KHz low consumption RC used as IWDG and/or RTC
ARM GAS  C:\Users\CNous\AppData\Local\Temp\ccJl4JfT.s 			page 5


 151:cmsis/device/stm32f4xx_rcc.c ****      clock source.
 152:cmsis/device/stm32f4xx_rcc.c **** 
 153:cmsis/device/stm32f4xx_rcc.c ****   3. HSE (high-speed external), 4 to 26 MHz crystal oscillator used directly or
 154:cmsis/device/stm32f4xx_rcc.c ****      through the PLL as System clock source. Can be used also as RTC clock source.
 155:cmsis/device/stm32f4xx_rcc.c **** 
 156:cmsis/device/stm32f4xx_rcc.c ****   4. LSE (low-speed external), 32 KHz oscillator used as RTC clock source.   
 157:cmsis/device/stm32f4xx_rcc.c **** 
 158:cmsis/device/stm32f4xx_rcc.c ****   5. PLL (clocked by HSI or HSE), featuring two different output clocks:
 159:cmsis/device/stm32f4xx_rcc.c ****       - The first output is used to generate the high speed system clock (up to 168 MHz)
 160:cmsis/device/stm32f4xx_rcc.c ****       - The second output is used to generate the clock for the USB OTG FS (48 MHz),
 161:cmsis/device/stm32f4xx_rcc.c ****         the random analog generator (<=48 MHz) and the SDIO (<= 48 MHz).
 162:cmsis/device/stm32f4xx_rcc.c **** 
 163:cmsis/device/stm32f4xx_rcc.c ****   6. PLLI2S (clocked by HSI or HSE), used to generate an accurate clock to achieve 
 164:cmsis/device/stm32f4xx_rcc.c ****      high-quality audio performance on the I2S interface.
 165:cmsis/device/stm32f4xx_rcc.c ****   
 166:cmsis/device/stm32f4xx_rcc.c ****   7. CSS (Clock security system), once enable and if a HSE clock failure occurs 
 167:cmsis/device/stm32f4xx_rcc.c ****      (HSE used directly or through PLL as System clock source), the System clock
 168:cmsis/device/stm32f4xx_rcc.c ****      is automatically switched to HSI and an interrupt is generated if enabled. 
 169:cmsis/device/stm32f4xx_rcc.c ****      The interrupt is linked to the Cortex-M4 NMI (Non-Maskable Interrupt) 
 170:cmsis/device/stm32f4xx_rcc.c ****      exception vector.   
 171:cmsis/device/stm32f4xx_rcc.c **** 
 172:cmsis/device/stm32f4xx_rcc.c ****   8. MCO1 (microcontroller clock output), used to output HSI, LSE, HSE or PLL
 173:cmsis/device/stm32f4xx_rcc.c ****      clock (through a configurable prescaler) on PA8 pin.
 174:cmsis/device/stm32f4xx_rcc.c **** 
 175:cmsis/device/stm32f4xx_rcc.c ****   9. MCO2 (microcontroller clock output), used to output HSE, PLL, SYSCLK or PLLI2S
 176:cmsis/device/stm32f4xx_rcc.c ****      clock (through a configurable prescaler) on PC9 pin.
 177:cmsis/device/stm32f4xx_rcc.c **** 
 178:cmsis/device/stm32f4xx_rcc.c **** @endverbatim
 179:cmsis/device/stm32f4xx_rcc.c ****   * @{
 180:cmsis/device/stm32f4xx_rcc.c ****   */
 181:cmsis/device/stm32f4xx_rcc.c **** 
 182:cmsis/device/stm32f4xx_rcc.c **** /**
 183:cmsis/device/stm32f4xx_rcc.c ****   * @brief  Resets the RCC clock configuration to the default reset state.
 184:cmsis/device/stm32f4xx_rcc.c ****   * @note   The default reset state of the clock configuration is given below:
 185:cmsis/device/stm32f4xx_rcc.c ****   *            - HSI ON and used as system clock source
 186:cmsis/device/stm32f4xx_rcc.c ****   *            - HSE, PLL and PLLI2S OFF
 187:cmsis/device/stm32f4xx_rcc.c ****   *            - AHB, APB1 and APB2 prescaler set to 1.
 188:cmsis/device/stm32f4xx_rcc.c ****   *            - CSS, MCO1 and MCO2 OFF
 189:cmsis/device/stm32f4xx_rcc.c ****   *            - All interrupts disabled
 190:cmsis/device/stm32f4xx_rcc.c ****   * @note   This function doesn't modify the configuration of the
 191:cmsis/device/stm32f4xx_rcc.c ****   *            - Peripheral clocks
 192:cmsis/device/stm32f4xx_rcc.c ****   *            - LSI, LSE and RTC clocks 
 193:cmsis/device/stm32f4xx_rcc.c ****   * @param  None
 194:cmsis/device/stm32f4xx_rcc.c ****   * @retval None
 195:cmsis/device/stm32f4xx_rcc.c ****   */
 196:cmsis/device/stm32f4xx_rcc.c **** void RCC_DeInit(void)
 197:cmsis/device/stm32f4xx_rcc.c **** {
  79              		.loc 1 197 0
  80              		.cfi_startproc
  81              		@ args = 0, pretend = 0, frame = 0
  82              		@ frame_needed = 0, uses_anonymous_args = 0
  83              		@ link register save eliminated.
 198:cmsis/device/stm32f4xx_rcc.c ****   /* Set HSION bit */
 199:cmsis/device/stm32f4xx_rcc.c ****   RCC->CR |= (uint32_t)0x00000001;
  84              		.loc 1 199 0
  85 0000 4FF46053 		mov	r3, #14336	@ tmp140,
  86 0004 C4F20203 		movt	r3, 16386	@ tmp140,
ARM GAS  C:\Users\CNous\AppData\Local\Temp\ccJl4JfT.s 			page 6


 200:cmsis/device/stm32f4xx_rcc.c **** 
 201:cmsis/device/stm32f4xx_rcc.c ****   /* Reset CFGR register */
 202:cmsis/device/stm32f4xx_rcc.c ****   RCC->CFGR = 0x00000000;
  87              		.loc 1 202 0
  88 0008 0022     		movs	r2, #0	@ tmp143,
 199:cmsis/device/stm32f4xx_rcc.c ****   RCC->CR |= (uint32_t)0x00000001;
  89              		.loc 1 199 0
  90 000a 1968     		ldr	r1, [r3, #0]	@ D.6970, MEM[(struct RCC_TypeDef *)1073887232B].CR
  91 000c 41F00100 		orr	r0, r1, #1	@ D.6971, D.6970,
  92 0010 1860     		str	r0, [r3, #0]	@ D.6971, MEM[(struct RCC_TypeDef *)1073887232B].CR
  93              		.loc 1 202 0
  94 0012 9A60     		str	r2, [r3, #8]	@ tmp143, MEM[(struct RCC_TypeDef *)1073887232B].CFGR
 203:cmsis/device/stm32f4xx_rcc.c **** 
 204:cmsis/device/stm32f4xx_rcc.c ****   /* Reset HSEON, CSSON and PLLON bits */
 205:cmsis/device/stm32f4xx_rcc.c ****   RCC->CR &= (uint32_t)0xFEF6FFFF;
  95              		.loc 1 205 0
  96 0014 1868     		ldr	r0, [r3, #0]	@ D.6972, MEM[(struct RCC_TypeDef *)1073887232B].CR
 206:cmsis/device/stm32f4xx_rcc.c **** 
 207:cmsis/device/stm32f4xx_rcc.c ****   /* Reset PLLCFGR register */
 208:cmsis/device/stm32f4xx_rcc.c ****   RCC->PLLCFGR = 0x24003010;
  97              		.loc 1 208 0
  98 0016 43F21001 		movw	r1, #12304	@ tmp148,
 205:cmsis/device/stm32f4xx_rcc.c ****   RCC->CR &= (uint32_t)0xFEF6FFFF;
  99              		.loc 1 205 0
 100 001a 20F08470 		bic	r0, r0, #17301504	@ tmp145, D.6972,
 101 001e 20F48030 		bic	r0, r0, #65536	@ D.6973, tmp145,
 102              		.loc 1 208 0
 103 0022 C2F20041 		movt	r1, 9216	@ tmp148,
 205:cmsis/device/stm32f4xx_rcc.c ****   RCC->CR &= (uint32_t)0xFEF6FFFF;
 104              		.loc 1 205 0
 105 0026 1860     		str	r0, [r3, #0]	@ D.6973, MEM[(struct RCC_TypeDef *)1073887232B].CR
 106              		.loc 1 208 0
 107 0028 5960     		str	r1, [r3, #4]	@ tmp148, MEM[(struct RCC_TypeDef *)1073887232B].PLLCFGR
 209:cmsis/device/stm32f4xx_rcc.c **** 
 210:cmsis/device/stm32f4xx_rcc.c ****   /* Reset HSEBYP bit */
 211:cmsis/device/stm32f4xx_rcc.c ****   RCC->CR &= (uint32_t)0xFFFBFFFF;
 108              		.loc 1 211 0
 109 002a 1968     		ldr	r1, [r3, #0]	@ D.6974, MEM[(struct RCC_TypeDef *)1073887232B].CR
 110 002c 21F48020 		bic	r0, r1, #262144	@ D.6975, D.6974,
 111 0030 1860     		str	r0, [r3, #0]	@ D.6975, MEM[(struct RCC_TypeDef *)1073887232B].CR
 212:cmsis/device/stm32f4xx_rcc.c **** 
 213:cmsis/device/stm32f4xx_rcc.c ****   /* Disable all interrupts */
 214:cmsis/device/stm32f4xx_rcc.c ****   RCC->CIR = 0x00000000;
 112              		.loc 1 214 0
 113 0032 DA60     		str	r2, [r3, #12]	@ tmp143, MEM[(struct RCC_TypeDef *)1073887232B].CIR
 114 0034 7047     		bx	lr	@
 115              		.cfi_endproc
 116              	.LFE110:
 117              		.size	RCC_DeInit, .-RCC_DeInit
 118 0036 00BF     		.section	.text.RCC_HSEConfig,"ax",%progbits
 119              		.align	2
 120              		.global	RCC_HSEConfig
 121              		.thumb
 122              		.thumb_func
 123              		.type	RCC_HSEConfig, %function
 124              	RCC_HSEConfig:
 125              	.LFB111:
ARM GAS  C:\Users\CNous\AppData\Local\Temp\ccJl4JfT.s 			page 7


 215:cmsis/device/stm32f4xx_rcc.c **** }
 216:cmsis/device/stm32f4xx_rcc.c **** 
 217:cmsis/device/stm32f4xx_rcc.c **** /**
 218:cmsis/device/stm32f4xx_rcc.c ****   * @brief  Configures the External High Speed oscillator (HSE).
 219:cmsis/device/stm32f4xx_rcc.c ****   * @note   After enabling the HSE (RCC_HSE_ON or RCC_HSE_Bypass), the application
 220:cmsis/device/stm32f4xx_rcc.c ****   *         software should wait on HSERDY flag to be set indicating that HSE clock
 221:cmsis/device/stm32f4xx_rcc.c ****   *         is stable and can be used to clock the PLL and/or system clock.
 222:cmsis/device/stm32f4xx_rcc.c ****   * @note   HSE state can not be changed if it is used directly or through the
 223:cmsis/device/stm32f4xx_rcc.c ****   *         PLL as system clock. In this case, you have to select another source
 224:cmsis/device/stm32f4xx_rcc.c ****   *         of the system clock then change the HSE state (ex. disable it).
 225:cmsis/device/stm32f4xx_rcc.c ****   * @note   The HSE is stopped by hardware when entering STOP and STANDBY modes.  
 226:cmsis/device/stm32f4xx_rcc.c ****   * @note   This function reset the CSSON bit, so if the Clock security system(CSS)
 227:cmsis/device/stm32f4xx_rcc.c ****   *         was previously enabled you have to enable it again after calling this
 228:cmsis/device/stm32f4xx_rcc.c ****   *         function.    
 229:cmsis/device/stm32f4xx_rcc.c ****   * @param  RCC_HSE: specifies the new state of the HSE.
 230:cmsis/device/stm32f4xx_rcc.c ****   *          This parameter can be one of the following values:
 231:cmsis/device/stm32f4xx_rcc.c ****   *            @arg RCC_HSE_OFF: turn OFF the HSE oscillator, HSERDY flag goes low after
 232:cmsis/device/stm32f4xx_rcc.c ****   *                              6 HSE oscillator clock cycles.
 233:cmsis/device/stm32f4xx_rcc.c ****   *            @arg RCC_HSE_ON: turn ON the HSE oscillator
 234:cmsis/device/stm32f4xx_rcc.c ****   *            @arg RCC_HSE_Bypass: HSE oscillator bypassed with external clock
 235:cmsis/device/stm32f4xx_rcc.c ****   * @retval None
 236:cmsis/device/stm32f4xx_rcc.c ****   */
 237:cmsis/device/stm32f4xx_rcc.c **** void RCC_HSEConfig(uint8_t RCC_HSE)
 238:cmsis/device/stm32f4xx_rcc.c **** {
 126              		.loc 1 238 0
 127              		.cfi_startproc
 128              		@ args = 0, pretend = 0, frame = 0
 129              		@ frame_needed = 0, uses_anonymous_args = 0
 130              		@ link register save eliminated.
 131              	.LVL0:
 239:cmsis/device/stm32f4xx_rcc.c ****   /* Check the parameters */
 240:cmsis/device/stm32f4xx_rcc.c ****   assert_param(IS_RCC_HSE(RCC_HSE));
 241:cmsis/device/stm32f4xx_rcc.c **** 
 242:cmsis/device/stm32f4xx_rcc.c ****   /* Reset HSEON and HSEBYP bits before configuring the HSE ------------------*/
 243:cmsis/device/stm32f4xx_rcc.c ****   *(__IO uint8_t *) CR_BYTE3_ADDRESS = RCC_HSE_OFF;
 132              		.loc 1 243 0
 133 0000 43F60203 		movw	r3, #14338	@ tmp135,
 134 0004 C4F20203 		movt	r3, 16386	@ tmp135,
 135 0008 0022     		movs	r2, #0	@ tmp136,
 136 000a 1A70     		strb	r2, [r3, #0]	@ tmp136, MEM[(volatile uint8_t *)1073887234B]
 244:cmsis/device/stm32f4xx_rcc.c **** 
 245:cmsis/device/stm32f4xx_rcc.c ****   /* Set the new HSE configuration -------------------------------------------*/
 246:cmsis/device/stm32f4xx_rcc.c ****   *(__IO uint8_t *) CR_BYTE3_ADDRESS = RCC_HSE;
 137              		.loc 1 246 0
 138 000c 1870     		strb	r0, [r3, #0]	@ RCC_HSE, MEM[(volatile uint8_t *)1073887234B]
 139 000e 7047     		bx	lr	@
 140              		.cfi_endproc
 141              	.LFE111:
 142              		.size	RCC_HSEConfig, .-RCC_HSEConfig
 143              		.section	.text.RCC_WaitForHSEStartUp,"ax",%progbits
 144              		.align	2
 145              		.global	RCC_WaitForHSEStartUp
 146              		.thumb
 147              		.thumb_func
 148              		.type	RCC_WaitForHSEStartUp, %function
 149              	RCC_WaitForHSEStartUp:
 150              	.LFB112:
ARM GAS  C:\Users\CNous\AppData\Local\Temp\ccJl4JfT.s 			page 8


 247:cmsis/device/stm32f4xx_rcc.c **** }
 248:cmsis/device/stm32f4xx_rcc.c **** 
 249:cmsis/device/stm32f4xx_rcc.c **** /**
 250:cmsis/device/stm32f4xx_rcc.c ****   * @brief  Waits for HSE start-up.
 251:cmsis/device/stm32f4xx_rcc.c ****   * @note   This functions waits on HSERDY flag to be set and return SUCCESS if 
 252:cmsis/device/stm32f4xx_rcc.c ****   *         this flag is set, otherwise returns ERROR if the timeout is reached 
 253:cmsis/device/stm32f4xx_rcc.c ****   *         and this flag is not set. The timeout value is defined by the constant
 254:cmsis/device/stm32f4xx_rcc.c ****   *         HSE_STARTUP_TIMEOUT in stm32f4xx.h file. You can tailor it depending
 255:cmsis/device/stm32f4xx_rcc.c ****   *         on the HSE crystal used in your application. 
 256:cmsis/device/stm32f4xx_rcc.c ****   * @param  None
 257:cmsis/device/stm32f4xx_rcc.c ****   * @retval An ErrorStatus enumeration value:
 258:cmsis/device/stm32f4xx_rcc.c ****   *          - SUCCESS: HSE oscillator is stable and ready to use
 259:cmsis/device/stm32f4xx_rcc.c ****   *          - ERROR: HSE oscillator not yet ready
 260:cmsis/device/stm32f4xx_rcc.c ****   */
 261:cmsis/device/stm32f4xx_rcc.c **** ErrorStatus RCC_WaitForHSEStartUp(void)
 262:cmsis/device/stm32f4xx_rcc.c **** {
 151              		.loc 1 262 0
 152              		.cfi_startproc
 153              		@ args = 0, pretend = 0, frame = 8
 154              		@ frame_needed = 0, uses_anonymous_args = 0
 155              		@ link register save eliminated.
 156 0000 82B0     		sub	sp, sp, #8	@,,
 157              	.LCFI0:
 158              		.cfi_def_cfa_offset 8
 159              	.LBB6:
 160              	.LBB7:
 263:cmsis/device/stm32f4xx_rcc.c ****   __IO uint32_t startupcounter = 0;
 264:cmsis/device/stm32f4xx_rcc.c ****   ErrorStatus status = ERROR;
 265:cmsis/device/stm32f4xx_rcc.c ****   FlagStatus hsestatus = RESET;
 266:cmsis/device/stm32f4xx_rcc.c ****   /* Wait till HSE is ready and if Time out is reached exit */
 267:cmsis/device/stm32f4xx_rcc.c ****   do
 268:cmsis/device/stm32f4xx_rcc.c ****   {
 269:cmsis/device/stm32f4xx_rcc.c ****     hsestatus = RCC_GetFlagStatus(RCC_FLAG_HSERDY);
 270:cmsis/device/stm32f4xx_rcc.c ****     startupcounter++;
 271:cmsis/device/stm32f4xx_rcc.c ****   } while((startupcounter != HSE_STARTUP_TIMEOUT) && (hsestatus == RESET));
 272:cmsis/device/stm32f4xx_rcc.c **** 
 273:cmsis/device/stm32f4xx_rcc.c ****   if (RCC_GetFlagStatus(RCC_FLAG_HSERDY) != RESET)
 274:cmsis/device/stm32f4xx_rcc.c ****   {
 275:cmsis/device/stm32f4xx_rcc.c ****     status = SUCCESS;
 276:cmsis/device/stm32f4xx_rcc.c ****   }
 277:cmsis/device/stm32f4xx_rcc.c ****   else
 278:cmsis/device/stm32f4xx_rcc.c ****   {
 279:cmsis/device/stm32f4xx_rcc.c ****     status = ERROR;
 280:cmsis/device/stm32f4xx_rcc.c ****   }
 281:cmsis/device/stm32f4xx_rcc.c ****   return (status);
 282:cmsis/device/stm32f4xx_rcc.c **** }
 283:cmsis/device/stm32f4xx_rcc.c **** 
 284:cmsis/device/stm32f4xx_rcc.c **** /**
 285:cmsis/device/stm32f4xx_rcc.c ****   * @brief  Adjusts the Internal High Speed oscillator (HSI) calibration value.
 286:cmsis/device/stm32f4xx_rcc.c ****   * @note   The calibration is used to compensate for the variations in voltage
 287:cmsis/device/stm32f4xx_rcc.c ****   *         and temperature that influence the frequency of the internal HSI RC.
 288:cmsis/device/stm32f4xx_rcc.c ****   * @param  HSICalibrationValue: specifies the calibration trimming value.
 289:cmsis/device/stm32f4xx_rcc.c ****   *         This parameter must be a number between 0 and 0x1F.
 290:cmsis/device/stm32f4xx_rcc.c ****   * @retval None
 291:cmsis/device/stm32f4xx_rcc.c ****   */
 292:cmsis/device/stm32f4xx_rcc.c **** void RCC_AdjustHSICalibrationValue(uint8_t HSICalibrationValue)
 293:cmsis/device/stm32f4xx_rcc.c **** {
ARM GAS  C:\Users\CNous\AppData\Local\Temp\ccJl4JfT.s 			page 9


 294:cmsis/device/stm32f4xx_rcc.c ****   uint32_t tmpreg = 0;
 295:cmsis/device/stm32f4xx_rcc.c ****   /* Check the parameters */
 296:cmsis/device/stm32f4xx_rcc.c ****   assert_param(IS_RCC_CALIBRATION_VALUE(HSICalibrationValue));
 297:cmsis/device/stm32f4xx_rcc.c **** 
 298:cmsis/device/stm32f4xx_rcc.c ****   tmpreg = RCC->CR;
 299:cmsis/device/stm32f4xx_rcc.c **** 
 300:cmsis/device/stm32f4xx_rcc.c ****   /* Clear HSITRIM[4:0] bits */
 301:cmsis/device/stm32f4xx_rcc.c ****   tmpreg &= ~RCC_CR_HSITRIM;
 302:cmsis/device/stm32f4xx_rcc.c **** 
 303:cmsis/device/stm32f4xx_rcc.c ****   /* Set the HSITRIM[4:0] bits according to HSICalibrationValue value */
 304:cmsis/device/stm32f4xx_rcc.c ****   tmpreg |= (uint32_t)HSICalibrationValue << 3;
 305:cmsis/device/stm32f4xx_rcc.c **** 
 306:cmsis/device/stm32f4xx_rcc.c ****   /* Store the new value */
 307:cmsis/device/stm32f4xx_rcc.c ****   RCC->CR = tmpreg;
 308:cmsis/device/stm32f4xx_rcc.c **** }
 309:cmsis/device/stm32f4xx_rcc.c **** 
 310:cmsis/device/stm32f4xx_rcc.c **** /**
 311:cmsis/device/stm32f4xx_rcc.c ****   * @brief  Enables or disables the Internal High Speed oscillator (HSI).
 312:cmsis/device/stm32f4xx_rcc.c ****   * @note   The HSI is stopped by hardware when entering STOP and STANDBY modes.
 313:cmsis/device/stm32f4xx_rcc.c ****   *         It is used (enabled by hardware) as system clock source after startup
 314:cmsis/device/stm32f4xx_rcc.c ****   *         from Reset, wakeup from STOP and STANDBY mode, or in case of failure
 315:cmsis/device/stm32f4xx_rcc.c ****   *         of the HSE used directly or indirectly as system clock (if the Clock
 316:cmsis/device/stm32f4xx_rcc.c ****   *         Security System CSS is enabled).             
 317:cmsis/device/stm32f4xx_rcc.c ****   * @note   HSI can not be stopped if it is used as system clock source. In this case,
 318:cmsis/device/stm32f4xx_rcc.c ****   *         you have to select another source of the system clock then stop the HSI.  
 319:cmsis/device/stm32f4xx_rcc.c ****   * @note   After enabling the HSI, the application software should wait on HSIRDY
 320:cmsis/device/stm32f4xx_rcc.c ****   *         flag to be set indicating that HSI clock is stable and can be used as
 321:cmsis/device/stm32f4xx_rcc.c ****   *         system clock source.  
 322:cmsis/device/stm32f4xx_rcc.c ****   * @param  NewState: new state of the HSI.
 323:cmsis/device/stm32f4xx_rcc.c ****   *          This parameter can be: ENABLE or DISABLE.
 324:cmsis/device/stm32f4xx_rcc.c ****   * @note   When the HSI is stopped, HSIRDY flag goes low after 6 HSI oscillator
 325:cmsis/device/stm32f4xx_rcc.c ****   *         clock cycles.  
 326:cmsis/device/stm32f4xx_rcc.c ****   * @retval None
 327:cmsis/device/stm32f4xx_rcc.c ****   */
 328:cmsis/device/stm32f4xx_rcc.c **** void RCC_HSICmd(FunctionalState NewState)
 329:cmsis/device/stm32f4xx_rcc.c **** {
 330:cmsis/device/stm32f4xx_rcc.c ****   /* Check the parameters */
 331:cmsis/device/stm32f4xx_rcc.c ****   assert_param(IS_FUNCTIONAL_STATE(NewState));
 332:cmsis/device/stm32f4xx_rcc.c **** 
 333:cmsis/device/stm32f4xx_rcc.c ****   *(__IO uint32_t *) CR_HSION_BB = (uint32_t)NewState;
 334:cmsis/device/stm32f4xx_rcc.c **** }
 335:cmsis/device/stm32f4xx_rcc.c **** 
 336:cmsis/device/stm32f4xx_rcc.c **** /**
 337:cmsis/device/stm32f4xx_rcc.c ****   * @brief  Configures the External Low Speed oscillator (LSE).
 338:cmsis/device/stm32f4xx_rcc.c ****   * @note   As the LSE is in the Backup domain and write access is denied to
 339:cmsis/device/stm32f4xx_rcc.c ****   *         this domain after reset, you have to enable write access using 
 340:cmsis/device/stm32f4xx_rcc.c ****   *         PWR_BackupAccessCmd(ENABLE) function before to configure the LSE
 341:cmsis/device/stm32f4xx_rcc.c ****   *         (to be done once after reset).  
 342:cmsis/device/stm32f4xx_rcc.c ****   * @note   After enabling the LSE (RCC_LSE_ON or RCC_LSE_Bypass), the application
 343:cmsis/device/stm32f4xx_rcc.c ****   *         software should wait on LSERDY flag to be set indicating that LSE clock
 344:cmsis/device/stm32f4xx_rcc.c ****   *         is stable and can be used to clock the RTC.
 345:cmsis/device/stm32f4xx_rcc.c ****   * @param  RCC_LSE: specifies the new state of the LSE.
 346:cmsis/device/stm32f4xx_rcc.c ****   *          This parameter can be one of the following values:
 347:cmsis/device/stm32f4xx_rcc.c ****   *            @arg RCC_LSE_OFF: turn OFF the LSE oscillator, LSERDY flag goes low after
 348:cmsis/device/stm32f4xx_rcc.c ****   *                              6 LSE oscillator clock cycles.
 349:cmsis/device/stm32f4xx_rcc.c ****   *            @arg RCC_LSE_ON: turn ON the LSE oscillator
 350:cmsis/device/stm32f4xx_rcc.c ****   *            @arg RCC_LSE_Bypass: LSE oscillator bypassed with external clock
ARM GAS  C:\Users\CNous\AppData\Local\Temp\ccJl4JfT.s 			page 10


 351:cmsis/device/stm32f4xx_rcc.c ****   * @retval None
 352:cmsis/device/stm32f4xx_rcc.c ****   */
 353:cmsis/device/stm32f4xx_rcc.c **** void RCC_LSEConfig(uint8_t RCC_LSE)
 354:cmsis/device/stm32f4xx_rcc.c **** {
 355:cmsis/device/stm32f4xx_rcc.c ****   /* Check the parameters */
 356:cmsis/device/stm32f4xx_rcc.c ****   assert_param(IS_RCC_LSE(RCC_LSE));
 357:cmsis/device/stm32f4xx_rcc.c **** 
 358:cmsis/device/stm32f4xx_rcc.c ****   /* Reset LSEON and LSEBYP bits before configuring the LSE ------------------*/
 359:cmsis/device/stm32f4xx_rcc.c ****   /* Reset LSEON bit */
 360:cmsis/device/stm32f4xx_rcc.c ****   *(__IO uint8_t *) BDCR_ADDRESS = RCC_LSE_OFF;
 361:cmsis/device/stm32f4xx_rcc.c **** 
 362:cmsis/device/stm32f4xx_rcc.c ****   /* Reset LSEBYP bit */
 363:cmsis/device/stm32f4xx_rcc.c ****   *(__IO uint8_t *) BDCR_ADDRESS = RCC_LSE_OFF;
 364:cmsis/device/stm32f4xx_rcc.c **** 
 365:cmsis/device/stm32f4xx_rcc.c ****   /* Configure LSE (RCC_LSE_OFF is already covered by the code section above) */
 366:cmsis/device/stm32f4xx_rcc.c ****   switch (RCC_LSE)
 367:cmsis/device/stm32f4xx_rcc.c ****   {
 368:cmsis/device/stm32f4xx_rcc.c ****     case RCC_LSE_ON:
 369:cmsis/device/stm32f4xx_rcc.c ****       /* Set LSEON bit */
 370:cmsis/device/stm32f4xx_rcc.c ****       *(__IO uint8_t *) BDCR_ADDRESS = RCC_LSE_ON;
 371:cmsis/device/stm32f4xx_rcc.c ****       break;
 372:cmsis/device/stm32f4xx_rcc.c ****     case RCC_LSE_Bypass:
 373:cmsis/device/stm32f4xx_rcc.c ****       /* Set LSEBYP and LSEON bits */
 374:cmsis/device/stm32f4xx_rcc.c ****       *(__IO uint8_t *) BDCR_ADDRESS = RCC_LSE_Bypass | RCC_LSE_ON;
 375:cmsis/device/stm32f4xx_rcc.c ****       break;
 376:cmsis/device/stm32f4xx_rcc.c ****     default:
 377:cmsis/device/stm32f4xx_rcc.c ****       break;
 378:cmsis/device/stm32f4xx_rcc.c ****   }
 379:cmsis/device/stm32f4xx_rcc.c **** }
 380:cmsis/device/stm32f4xx_rcc.c **** 
 381:cmsis/device/stm32f4xx_rcc.c **** /**
 382:cmsis/device/stm32f4xx_rcc.c ****   * @brief  Enables or disables the Internal Low Speed oscillator (LSI).
 383:cmsis/device/stm32f4xx_rcc.c ****   * @note   After enabling the LSI, the application software should wait on 
 384:cmsis/device/stm32f4xx_rcc.c ****   *         LSIRDY flag to be set indicating that LSI clock is stable and can
 385:cmsis/device/stm32f4xx_rcc.c ****   *         be used to clock the IWDG and/or the RTC.
 386:cmsis/device/stm32f4xx_rcc.c ****   * @note   LSI can not be disabled if the IWDG is running.  
 387:cmsis/device/stm32f4xx_rcc.c ****   * @param  NewState: new state of the LSI.
 388:cmsis/device/stm32f4xx_rcc.c ****   *          This parameter can be: ENABLE or DISABLE.
 389:cmsis/device/stm32f4xx_rcc.c ****   * @note   When the LSI is stopped, LSIRDY flag goes low after 6 LSI oscillator
 390:cmsis/device/stm32f4xx_rcc.c ****   *         clock cycles. 
 391:cmsis/device/stm32f4xx_rcc.c ****   * @retval None
 392:cmsis/device/stm32f4xx_rcc.c ****   */
 393:cmsis/device/stm32f4xx_rcc.c **** void RCC_LSICmd(FunctionalState NewState)
 394:cmsis/device/stm32f4xx_rcc.c **** {
 395:cmsis/device/stm32f4xx_rcc.c ****   /* Check the parameters */
 396:cmsis/device/stm32f4xx_rcc.c ****   assert_param(IS_FUNCTIONAL_STATE(NewState));
 397:cmsis/device/stm32f4xx_rcc.c **** 
 398:cmsis/device/stm32f4xx_rcc.c ****   *(__IO uint32_t *) CSR_LSION_BB = (uint32_t)NewState;
 399:cmsis/device/stm32f4xx_rcc.c **** }
 400:cmsis/device/stm32f4xx_rcc.c **** 
 401:cmsis/device/stm32f4xx_rcc.c **** /**
 402:cmsis/device/stm32f4xx_rcc.c ****   * @brief  Configures the main PLL clock source, multiplication and division factors.
 403:cmsis/device/stm32f4xx_rcc.c ****   * @note   This function must be used only when the main PLL is disabled.
 404:cmsis/device/stm32f4xx_rcc.c ****   *  
 405:cmsis/device/stm32f4xx_rcc.c ****   * @param  RCC_PLLSource: specifies the PLL entry clock source.
 406:cmsis/device/stm32f4xx_rcc.c ****   *          This parameter can be one of the following values:
 407:cmsis/device/stm32f4xx_rcc.c ****   *            @arg RCC_PLLSource_HSI: HSI oscillator clock selected as PLL clock entry
ARM GAS  C:\Users\CNous\AppData\Local\Temp\ccJl4JfT.s 			page 11


 408:cmsis/device/stm32f4xx_rcc.c ****   *            @arg RCC_PLLSource_HSE: HSE oscillator clock selected as PLL clock entry
 409:cmsis/device/stm32f4xx_rcc.c ****   * @note   This clock source (RCC_PLLSource) is common for the main PLL and PLLI2S.  
 410:cmsis/device/stm32f4xx_rcc.c ****   *  
 411:cmsis/device/stm32f4xx_rcc.c ****   * @param  PLLM: specifies the division factor for PLL VCO input clock
 412:cmsis/device/stm32f4xx_rcc.c ****   *          This parameter must be a number between 0 and 63.
 413:cmsis/device/stm32f4xx_rcc.c ****   * @note   You have to set the PLLM parameter correctly to ensure that the VCO input
 414:cmsis/device/stm32f4xx_rcc.c ****   *         frequency ranges from 1 to 2 MHz. It is recommended to select a frequency
 415:cmsis/device/stm32f4xx_rcc.c ****   *         of 2 MHz to limit PLL jitter.
 416:cmsis/device/stm32f4xx_rcc.c ****   *  
 417:cmsis/device/stm32f4xx_rcc.c ****   * @param  PLLN: specifies the multiplication factor for PLL VCO output clock
 418:cmsis/device/stm32f4xx_rcc.c ****   *          This parameter must be a number between 192 and 432.
 419:cmsis/device/stm32f4xx_rcc.c ****   * @note   You have to set the PLLN parameter correctly to ensure that the VCO
 420:cmsis/device/stm32f4xx_rcc.c ****   *         output frequency is between 192 and 432 MHz.
 421:cmsis/device/stm32f4xx_rcc.c ****   *   
 422:cmsis/device/stm32f4xx_rcc.c ****   * @param  PLLP: specifies the division factor for main system clock (SYSCLK)
 423:cmsis/device/stm32f4xx_rcc.c ****   *          This parameter must be a number in the range {2, 4, 6, or 8}.
 424:cmsis/device/stm32f4xx_rcc.c ****   * @note   You have to set the PLLP parameter correctly to not exceed 168 MHz on
 425:cmsis/device/stm32f4xx_rcc.c ****   *         the System clock frequency.
 426:cmsis/device/stm32f4xx_rcc.c ****   *  
 427:cmsis/device/stm32f4xx_rcc.c ****   * @param  PLLQ: specifies the division factor for OTG FS, SDIO and RNG clocks
 428:cmsis/device/stm32f4xx_rcc.c ****   *          This parameter must be a number between 4 and 15.
 429:cmsis/device/stm32f4xx_rcc.c ****   * @note   If the USB OTG FS is used in your application, you have to set the
 430:cmsis/device/stm32f4xx_rcc.c ****   *         PLLQ parameter correctly to have 48 MHz clock for the USB. However,
 431:cmsis/device/stm32f4xx_rcc.c ****   *         the SDIO and RNG need a frequency lower than or equal to 48 MHz to work
 432:cmsis/device/stm32f4xx_rcc.c ****   *         correctly.
 433:cmsis/device/stm32f4xx_rcc.c ****   *   
 434:cmsis/device/stm32f4xx_rcc.c ****   * @retval None
 435:cmsis/device/stm32f4xx_rcc.c ****   */
 436:cmsis/device/stm32f4xx_rcc.c **** void RCC_PLLConfig(uint32_t RCC_PLLSource, uint32_t PLLM, uint32_t PLLN, uint32_t PLLP, uint32_t PL
 437:cmsis/device/stm32f4xx_rcc.c **** {
 438:cmsis/device/stm32f4xx_rcc.c ****   /* Check the parameters */
 439:cmsis/device/stm32f4xx_rcc.c ****   assert_param(IS_RCC_PLL_SOURCE(RCC_PLLSource));
 440:cmsis/device/stm32f4xx_rcc.c ****   assert_param(IS_RCC_PLLM_VALUE(PLLM));
 441:cmsis/device/stm32f4xx_rcc.c ****   assert_param(IS_RCC_PLLN_VALUE(PLLN));
 442:cmsis/device/stm32f4xx_rcc.c ****   assert_param(IS_RCC_PLLP_VALUE(PLLP));
 443:cmsis/device/stm32f4xx_rcc.c ****   assert_param(IS_RCC_PLLQ_VALUE(PLLQ));
 444:cmsis/device/stm32f4xx_rcc.c **** 
 445:cmsis/device/stm32f4xx_rcc.c ****   RCC->PLLCFGR = PLLM | (PLLN << 6) | (((PLLP >> 1) -1) << 16) | (RCC_PLLSource) |
 446:cmsis/device/stm32f4xx_rcc.c ****                  (PLLQ << 24);
 447:cmsis/device/stm32f4xx_rcc.c **** }
 448:cmsis/device/stm32f4xx_rcc.c **** 
 449:cmsis/device/stm32f4xx_rcc.c **** /**
 450:cmsis/device/stm32f4xx_rcc.c ****   * @brief  Enables or disables the main PLL.
 451:cmsis/device/stm32f4xx_rcc.c ****   * @note   After enabling the main PLL, the application software should wait on 
 452:cmsis/device/stm32f4xx_rcc.c ****   *         PLLRDY flag to be set indicating that PLL clock is stable and can
 453:cmsis/device/stm32f4xx_rcc.c ****   *         be used as system clock source.
 454:cmsis/device/stm32f4xx_rcc.c ****   * @note   The main PLL can not be disabled if it is used as system clock source
 455:cmsis/device/stm32f4xx_rcc.c ****   * @note   The main PLL is disabled by hardware when entering STOP and STANDBY modes.
 456:cmsis/device/stm32f4xx_rcc.c ****   * @param  NewState: new state of the main PLL. This parameter can be: ENABLE or DISABLE.
 457:cmsis/device/stm32f4xx_rcc.c ****   * @retval None
 458:cmsis/device/stm32f4xx_rcc.c ****   */
 459:cmsis/device/stm32f4xx_rcc.c **** void RCC_PLLCmd(FunctionalState NewState)
 460:cmsis/device/stm32f4xx_rcc.c **** {
 461:cmsis/device/stm32f4xx_rcc.c ****   /* Check the parameters */
 462:cmsis/device/stm32f4xx_rcc.c ****   assert_param(IS_FUNCTIONAL_STATE(NewState));
 463:cmsis/device/stm32f4xx_rcc.c ****   *(__IO uint32_t *) CR_PLLON_BB = (uint32_t)NewState;
 464:cmsis/device/stm32f4xx_rcc.c **** }
ARM GAS  C:\Users\CNous\AppData\Local\Temp\ccJl4JfT.s 			page 12


 465:cmsis/device/stm32f4xx_rcc.c **** 
 466:cmsis/device/stm32f4xx_rcc.c **** /**
 467:cmsis/device/stm32f4xx_rcc.c ****   * @brief  Configures the PLLI2S clock multiplication and division factors.
 468:cmsis/device/stm32f4xx_rcc.c ****   *  
 469:cmsis/device/stm32f4xx_rcc.c ****   * @note   This function must be used only when the PLLI2S is disabled.
 470:cmsis/device/stm32f4xx_rcc.c ****   * @note   PLLI2S clock source is common with the main PLL (configured in 
 471:cmsis/device/stm32f4xx_rcc.c ****   *         RCC_PLLConfig function )  
 472:cmsis/device/stm32f4xx_rcc.c ****   *             
 473:cmsis/device/stm32f4xx_rcc.c ****   * @param  PLLI2SN: specifies the multiplication factor for PLLI2S VCO output clock
 474:cmsis/device/stm32f4xx_rcc.c ****   *          This parameter must be a number between 192 and 432.
 475:cmsis/device/stm32f4xx_rcc.c ****   * @note   You have to set the PLLI2SN parameter correctly to ensure that the VCO 
 476:cmsis/device/stm32f4xx_rcc.c ****   *         output frequency is between 192 and 432 MHz.
 477:cmsis/device/stm32f4xx_rcc.c ****   *    
 478:cmsis/device/stm32f4xx_rcc.c ****   * @param  PLLI2SR: specifies the division factor for I2S clock
 479:cmsis/device/stm32f4xx_rcc.c ****   *          This parameter must be a number between 2 and 7.
 480:cmsis/device/stm32f4xx_rcc.c ****   * @note   You have to set the PLLI2SR parameter correctly to not exceed 192 MHz
 481:cmsis/device/stm32f4xx_rcc.c ****   *         on the I2S clock frequency.
 482:cmsis/device/stm32f4xx_rcc.c ****   *   
 483:cmsis/device/stm32f4xx_rcc.c ****   * @retval None
 484:cmsis/device/stm32f4xx_rcc.c ****   */
 485:cmsis/device/stm32f4xx_rcc.c **** void RCC_PLLI2SConfig(uint32_t PLLI2SN, uint32_t PLLI2SR)
 486:cmsis/device/stm32f4xx_rcc.c **** {
 487:cmsis/device/stm32f4xx_rcc.c ****   /* Check the parameters */
 488:cmsis/device/stm32f4xx_rcc.c ****   assert_param(IS_RCC_PLLI2SN_VALUE(PLLI2SN));
 489:cmsis/device/stm32f4xx_rcc.c ****   assert_param(IS_RCC_PLLI2SR_VALUE(PLLI2SR));
 490:cmsis/device/stm32f4xx_rcc.c **** 
 491:cmsis/device/stm32f4xx_rcc.c ****   RCC->PLLI2SCFGR = (PLLI2SN << 6) | (PLLI2SR << 28);
 492:cmsis/device/stm32f4xx_rcc.c **** }
 493:cmsis/device/stm32f4xx_rcc.c **** 
 494:cmsis/device/stm32f4xx_rcc.c **** /**
 495:cmsis/device/stm32f4xx_rcc.c ****   * @brief  Enables or disables the PLLI2S. 
 496:cmsis/device/stm32f4xx_rcc.c ****   * @note   The PLLI2S is disabled by hardware when entering STOP and STANDBY modes.  
 497:cmsis/device/stm32f4xx_rcc.c ****   * @param  NewState: new state of the PLLI2S. This parameter can be: ENABLE or DISABLE.
 498:cmsis/device/stm32f4xx_rcc.c ****   * @retval None
 499:cmsis/device/stm32f4xx_rcc.c ****   */
 500:cmsis/device/stm32f4xx_rcc.c **** void RCC_PLLI2SCmd(FunctionalState NewState)
 501:cmsis/device/stm32f4xx_rcc.c **** {
 502:cmsis/device/stm32f4xx_rcc.c ****   /* Check the parameters */
 503:cmsis/device/stm32f4xx_rcc.c ****   assert_param(IS_FUNCTIONAL_STATE(NewState));
 504:cmsis/device/stm32f4xx_rcc.c ****   *(__IO uint32_t *) CR_PLLI2SON_BB = (uint32_t)NewState;
 505:cmsis/device/stm32f4xx_rcc.c **** }
 506:cmsis/device/stm32f4xx_rcc.c **** 
 507:cmsis/device/stm32f4xx_rcc.c **** /**
 508:cmsis/device/stm32f4xx_rcc.c ****   * @brief  Enables or disables the Clock Security System.
 509:cmsis/device/stm32f4xx_rcc.c ****   * @note   If a failure is detected on the HSE oscillator clock, this oscillator
 510:cmsis/device/stm32f4xx_rcc.c ****   *         is automatically disabled and an interrupt is generated to inform the
 511:cmsis/device/stm32f4xx_rcc.c ****   *         software about the failure (Clock Security System Interrupt, CSSI),
 512:cmsis/device/stm32f4xx_rcc.c ****   *         allowing the MCU to perform rescue operations. The CSSI is linked to 
 513:cmsis/device/stm32f4xx_rcc.c ****   *         the Cortex-M4 NMI (Non-Maskable Interrupt) exception vector.  
 514:cmsis/device/stm32f4xx_rcc.c ****   * @param  NewState: new state of the Clock Security System.
 515:cmsis/device/stm32f4xx_rcc.c ****   *         This parameter can be: ENABLE or DISABLE.
 516:cmsis/device/stm32f4xx_rcc.c ****   * @retval None
 517:cmsis/device/stm32f4xx_rcc.c ****   */
 518:cmsis/device/stm32f4xx_rcc.c **** void RCC_ClockSecuritySystemCmd(FunctionalState NewState)
 519:cmsis/device/stm32f4xx_rcc.c **** {
 520:cmsis/device/stm32f4xx_rcc.c ****   /* Check the parameters */
 521:cmsis/device/stm32f4xx_rcc.c ****   assert_param(IS_FUNCTIONAL_STATE(NewState));
ARM GAS  C:\Users\CNous\AppData\Local\Temp\ccJl4JfT.s 			page 13


 522:cmsis/device/stm32f4xx_rcc.c ****   *(__IO uint32_t *) CR_CSSON_BB = (uint32_t)NewState;
 523:cmsis/device/stm32f4xx_rcc.c **** }
 524:cmsis/device/stm32f4xx_rcc.c **** 
 525:cmsis/device/stm32f4xx_rcc.c **** /**
 526:cmsis/device/stm32f4xx_rcc.c ****   * @brief  Selects the clock source to output on MCO1 pin(PA8).
 527:cmsis/device/stm32f4xx_rcc.c ****   * @note   PA8 should be configured in alternate function mode.
 528:cmsis/device/stm32f4xx_rcc.c ****   * @param  RCC_MCO1Source: specifies the clock source to output.
 529:cmsis/device/stm32f4xx_rcc.c ****   *          This parameter can be one of the following values:
 530:cmsis/device/stm32f4xx_rcc.c ****   *            @arg RCC_MCO1Source_HSI: HSI clock selected as MCO1 source
 531:cmsis/device/stm32f4xx_rcc.c ****   *            @arg RCC_MCO1Source_LSE: LSE clock selected as MCO1 source
 532:cmsis/device/stm32f4xx_rcc.c ****   *            @arg RCC_MCO1Source_HSE: HSE clock selected as MCO1 source
 533:cmsis/device/stm32f4xx_rcc.c ****   *            @arg RCC_MCO1Source_PLLCLK: main PLL clock selected as MCO1 source
 534:cmsis/device/stm32f4xx_rcc.c ****   * @param  RCC_MCO1Div: specifies the MCO1 prescaler.
 535:cmsis/device/stm32f4xx_rcc.c ****   *          This parameter can be one of the following values:
 536:cmsis/device/stm32f4xx_rcc.c ****   *            @arg RCC_MCO1Div_1: no division applied to MCO1 clock
 537:cmsis/device/stm32f4xx_rcc.c ****   *            @arg RCC_MCO1Div_2: division by 2 applied to MCO1 clock
 538:cmsis/device/stm32f4xx_rcc.c ****   *            @arg RCC_MCO1Div_3: division by 3 applied to MCO1 clock
 539:cmsis/device/stm32f4xx_rcc.c ****   *            @arg RCC_MCO1Div_4: division by 4 applied to MCO1 clock
 540:cmsis/device/stm32f4xx_rcc.c ****   *            @arg RCC_MCO1Div_5: division by 5 applied to MCO1 clock
 541:cmsis/device/stm32f4xx_rcc.c ****   * @retval None
 542:cmsis/device/stm32f4xx_rcc.c ****   */
 543:cmsis/device/stm32f4xx_rcc.c **** void RCC_MCO1Config(uint32_t RCC_MCO1Source, uint32_t RCC_MCO1Div)
 544:cmsis/device/stm32f4xx_rcc.c **** {
 545:cmsis/device/stm32f4xx_rcc.c ****   uint32_t tmpreg = 0;
 546:cmsis/device/stm32f4xx_rcc.c ****   
 547:cmsis/device/stm32f4xx_rcc.c ****   /* Check the parameters */
 548:cmsis/device/stm32f4xx_rcc.c ****   assert_param(IS_RCC_MCO1SOURCE(RCC_MCO1Source));
 549:cmsis/device/stm32f4xx_rcc.c ****   assert_param(IS_RCC_MCO1DIV(RCC_MCO1Div));  
 550:cmsis/device/stm32f4xx_rcc.c **** 
 551:cmsis/device/stm32f4xx_rcc.c ****   tmpreg = RCC->CFGR;
 552:cmsis/device/stm32f4xx_rcc.c **** 
 553:cmsis/device/stm32f4xx_rcc.c ****   /* Clear MCO1[1:0] and MCO1PRE[2:0] bits */
 554:cmsis/device/stm32f4xx_rcc.c ****   tmpreg &= CFGR_MCO1_RESET_MASK;
 555:cmsis/device/stm32f4xx_rcc.c **** 
 556:cmsis/device/stm32f4xx_rcc.c ****   /* Select MCO1 clock source and prescaler */
 557:cmsis/device/stm32f4xx_rcc.c ****   tmpreg |= RCC_MCO1Source | RCC_MCO1Div;
 558:cmsis/device/stm32f4xx_rcc.c **** 
 559:cmsis/device/stm32f4xx_rcc.c ****   /* Store the new value */
 560:cmsis/device/stm32f4xx_rcc.c ****   RCC->CFGR = tmpreg;  
 561:cmsis/device/stm32f4xx_rcc.c **** }
 562:cmsis/device/stm32f4xx_rcc.c **** 
 563:cmsis/device/stm32f4xx_rcc.c **** /**
 564:cmsis/device/stm32f4xx_rcc.c ****   * @brief  Selects the clock source to output on MCO2 pin(PC9).
 565:cmsis/device/stm32f4xx_rcc.c ****   * @note   PC9 should be configured in alternate function mode.
 566:cmsis/device/stm32f4xx_rcc.c ****   * @param  RCC_MCO2Source: specifies the clock source to output.
 567:cmsis/device/stm32f4xx_rcc.c ****   *          This parameter can be one of the following values:
 568:cmsis/device/stm32f4xx_rcc.c ****   *            @arg RCC_MCO2Source_SYSCLK: System clock (SYSCLK) selected as MCO2 source
 569:cmsis/device/stm32f4xx_rcc.c ****   *            @arg RCC_MCO2Source_PLLI2SCLK: PLLI2S clock selected as MCO2 source
 570:cmsis/device/stm32f4xx_rcc.c ****   *            @arg RCC_MCO2Source_HSE: HSE clock selected as MCO2 source
 571:cmsis/device/stm32f4xx_rcc.c ****   *            @arg RCC_MCO2Source_PLLCLK: main PLL clock selected as MCO2 source
 572:cmsis/device/stm32f4xx_rcc.c ****   * @param  RCC_MCO2Div: specifies the MCO2 prescaler.
 573:cmsis/device/stm32f4xx_rcc.c ****   *          This parameter can be one of the following values:
 574:cmsis/device/stm32f4xx_rcc.c ****   *            @arg RCC_MCO2Div_1: no division applied to MCO2 clock
 575:cmsis/device/stm32f4xx_rcc.c ****   *            @arg RCC_MCO2Div_2: division by 2 applied to MCO2 clock
 576:cmsis/device/stm32f4xx_rcc.c ****   *            @arg RCC_MCO2Div_3: division by 3 applied to MCO2 clock
 577:cmsis/device/stm32f4xx_rcc.c ****   *            @arg RCC_MCO2Div_4: division by 4 applied to MCO2 clock
 578:cmsis/device/stm32f4xx_rcc.c ****   *            @arg RCC_MCO2Div_5: division by 5 applied to MCO2 clock
ARM GAS  C:\Users\CNous\AppData\Local\Temp\ccJl4JfT.s 			page 14


 579:cmsis/device/stm32f4xx_rcc.c ****   * @retval None
 580:cmsis/device/stm32f4xx_rcc.c ****   */
 581:cmsis/device/stm32f4xx_rcc.c **** void RCC_MCO2Config(uint32_t RCC_MCO2Source, uint32_t RCC_MCO2Div)
 582:cmsis/device/stm32f4xx_rcc.c **** {
 583:cmsis/device/stm32f4xx_rcc.c ****   uint32_t tmpreg = 0;
 584:cmsis/device/stm32f4xx_rcc.c ****   
 585:cmsis/device/stm32f4xx_rcc.c ****   /* Check the parameters */
 586:cmsis/device/stm32f4xx_rcc.c ****   assert_param(IS_RCC_MCO2SOURCE(RCC_MCO2Source));
 587:cmsis/device/stm32f4xx_rcc.c ****   assert_param(IS_RCC_MCO2DIV(RCC_MCO2Div));
 588:cmsis/device/stm32f4xx_rcc.c ****   
 589:cmsis/device/stm32f4xx_rcc.c ****   tmpreg = RCC->CFGR;
 590:cmsis/device/stm32f4xx_rcc.c ****   
 591:cmsis/device/stm32f4xx_rcc.c ****   /* Clear MCO2 and MCO2PRE[2:0] bits */
 592:cmsis/device/stm32f4xx_rcc.c ****   tmpreg &= CFGR_MCO2_RESET_MASK;
 593:cmsis/device/stm32f4xx_rcc.c **** 
 594:cmsis/device/stm32f4xx_rcc.c ****   /* Select MCO2 clock source and prescaler */
 595:cmsis/device/stm32f4xx_rcc.c ****   tmpreg |= RCC_MCO2Source | RCC_MCO2Div;
 596:cmsis/device/stm32f4xx_rcc.c **** 
 597:cmsis/device/stm32f4xx_rcc.c ****   /* Store the new value */
 598:cmsis/device/stm32f4xx_rcc.c ****   RCC->CFGR = tmpreg;  
 599:cmsis/device/stm32f4xx_rcc.c **** }
 600:cmsis/device/stm32f4xx_rcc.c **** 
 601:cmsis/device/stm32f4xx_rcc.c **** /**
 602:cmsis/device/stm32f4xx_rcc.c ****   * @}
 603:cmsis/device/stm32f4xx_rcc.c ****   */
 604:cmsis/device/stm32f4xx_rcc.c **** 
 605:cmsis/device/stm32f4xx_rcc.c **** /** @defgroup RCC_Group2 System AHB and APB busses clocks configuration functions
 606:cmsis/device/stm32f4xx_rcc.c ****  *  @brief   System, AHB and APB busses clocks configuration functions
 607:cmsis/device/stm32f4xx_rcc.c ****  *
 608:cmsis/device/stm32f4xx_rcc.c **** @verbatim   
 609:cmsis/device/stm32f4xx_rcc.c ****  ===============================================================================
 610:cmsis/device/stm32f4xx_rcc.c ****              System, AHB and APB busses clocks configuration functions
 611:cmsis/device/stm32f4xx_rcc.c ****  ===============================================================================  
 612:cmsis/device/stm32f4xx_rcc.c **** 
 613:cmsis/device/stm32f4xx_rcc.c ****   This section provide functions allowing to configure the System, AHB, APB1 and 
 614:cmsis/device/stm32f4xx_rcc.c ****   APB2 busses clocks.
 615:cmsis/device/stm32f4xx_rcc.c ****   
 616:cmsis/device/stm32f4xx_rcc.c ****   1. Several clock sources can be used to drive the System clock (SYSCLK): HSI,
 617:cmsis/device/stm32f4xx_rcc.c ****      HSE and PLL.
 618:cmsis/device/stm32f4xx_rcc.c ****      The AHB clock (HCLK) is derived from System clock through configurable prescaler
 619:cmsis/device/stm32f4xx_rcc.c ****      and used to clock the CPU, memory and peripherals mapped on AHB bus (DMA, GPIO...).
 620:cmsis/device/stm32f4xx_rcc.c ****      APB1 (PCLK1) and APB2 (PCLK2) clocks are derived from AHB clock through 
 621:cmsis/device/stm32f4xx_rcc.c ****      configurable prescalers and used to clock the peripherals mapped on these busses.
 622:cmsis/device/stm32f4xx_rcc.c ****      You can use "RCC_GetClocksFreq()" function to retrieve the frequencies of these clocks.  
 623:cmsis/device/stm32f4xx_rcc.c **** 
 624:cmsis/device/stm32f4xx_rcc.c **** @note All the peripheral clocks are derived from the System clock (SYSCLK) except:
 625:cmsis/device/stm32f4xx_rcc.c ****        - I2S: the I2S clock can be derived either from a specific PLL (PLLI2S) or
 626:cmsis/device/stm32f4xx_rcc.c ****           from an external clock mapped on the I2S_CKIN pin. 
 627:cmsis/device/stm32f4xx_rcc.c ****           You have to use RCC_I2SCLKConfig() function to configure this clock. 
 628:cmsis/device/stm32f4xx_rcc.c ****        - RTC: the RTC clock can be derived either from the LSI, LSE or HSE clock
 629:cmsis/device/stm32f4xx_rcc.c ****           divided by 2 to 31. You have to use RCC_RTCCLKConfig() and RCC_RTCCLKCmd()
 630:cmsis/device/stm32f4xx_rcc.c ****           functions to configure this clock. 
 631:cmsis/device/stm32f4xx_rcc.c ****        - USB OTG FS, SDIO and RTC: USB OTG FS require a frequency equal to 48 MHz
 632:cmsis/device/stm32f4xx_rcc.c ****           to work correctly, while the SDIO require a frequency equal or lower than
 633:cmsis/device/stm32f4xx_rcc.c ****           to 48. This clock is derived of the main PLL through PLLQ divider.
 634:cmsis/device/stm32f4xx_rcc.c ****        - IWDG clock which is always the LSI clock.
 635:cmsis/device/stm32f4xx_rcc.c ****        
ARM GAS  C:\Users\CNous\AppData\Local\Temp\ccJl4JfT.s 			page 15


 636:cmsis/device/stm32f4xx_rcc.c ****   2. The maximum frequency of the SYSCLK and HCLK is 168 MHz, PCLK2 82 MHz and PCLK1 42 MHz.
 637:cmsis/device/stm32f4xx_rcc.c ****      Depending on the device voltage range, the maximum frequency should be 
 638:cmsis/device/stm32f4xx_rcc.c ****      adapted accordingly:
 639:cmsis/device/stm32f4xx_rcc.c ****  +-------------------------------------------------------------------------------------+     
 640:cmsis/device/stm32f4xx_rcc.c ****  | Latency       |                HCLK clock frequency (MHz)                           |
 641:cmsis/device/stm32f4xx_rcc.c ****  |               |---------------------------------------------------------------------|     
 642:cmsis/device/stm32f4xx_rcc.c ****  |               | voltage range  | voltage range  | voltage range   | voltage range   |
 643:cmsis/device/stm32f4xx_rcc.c ****  |               | 2.7 V - 3.6 V  | 2.4 V - 2.7 V  | 2.1 V - 2.4 V   | 1.8 V - 2.1 V   |
 644:cmsis/device/stm32f4xx_rcc.c ****  |---------------|----------------|----------------|-----------------|-----------------|           
 645:cmsis/device/stm32f4xx_rcc.c ****  |0WS(1CPU cycle)|0 < HCLK <= 30  |0 < HCLK <= 24  |0 < HCLK <= 18   |0 < HCLK <= 16   |
 646:cmsis/device/stm32f4xx_rcc.c ****  |---------------|----------------|----------------|-----------------|-----------------|   
 647:cmsis/device/stm32f4xx_rcc.c ****  |1WS(2CPU cycle)|30 < HCLK <= 60 |24 < HCLK <= 48 |18 < HCLK <= 36  |16 < HCLK <= 32  | 
 648:cmsis/device/stm32f4xx_rcc.c ****  |---------------|----------------|----------------|-----------------|-----------------|   
 649:cmsis/device/stm32f4xx_rcc.c ****  |2WS(3CPU cycle)|60 < HCLK <= 90 |48 < HCLK <= 72 |36 < HCLK <= 54  |32 < HCLK <= 48  |
 650:cmsis/device/stm32f4xx_rcc.c ****  |---------------|----------------|----------------|-----------------|-----------------| 
 651:cmsis/device/stm32f4xx_rcc.c ****  |3WS(4CPU cycle)|90 < HCLK <= 120|72 < HCLK <= 96 |54 < HCLK <= 72  |48 < HCLK <= 64  |
 652:cmsis/device/stm32f4xx_rcc.c ****  |---------------|----------------|----------------|-----------------|-----------------| 
 653:cmsis/device/stm32f4xx_rcc.c ****  |4WS(5CPU cycle)|120< HCLK <= 150|96 < HCLK <= 120|72 < HCLK <= 90  |64 < HCLK <= 80  |
 654:cmsis/device/stm32f4xx_rcc.c ****  |---------------|----------------|----------------|-----------------|-----------------| 
 655:cmsis/device/stm32f4xx_rcc.c ****  |5WS(6CPU cycle)|120< HCLK <= 168|120< HCLK <= 144|90 < HCLK <= 108 |80 < HCLK <= 96  | 
 656:cmsis/device/stm32f4xx_rcc.c ****  |---------------|----------------|----------------|-----------------|-----------------| 
 657:cmsis/device/stm32f4xx_rcc.c ****  |6WS(7CPU cycle)|      NA        |144< HCLK <= 168|108 < HCLK <= 120|96 < HCLK <= 112 | 
 658:cmsis/device/stm32f4xx_rcc.c ****  |---------------|----------------|----------------|-----------------|-----------------| 
 659:cmsis/device/stm32f4xx_rcc.c ****  |7WS(8CPU cycle)|      NA        |      NA        |120 < HCLK <= 138|112 < HCLK <= 120| 
 660:cmsis/device/stm32f4xx_rcc.c ****  +-------------------------------------------------------------------------------------+    
 661:cmsis/device/stm32f4xx_rcc.c ****    @note When VOS bit (in PWR_CR register) is reset to '0, the maximum value of HCLK is 144 MHz.
 662:cmsis/device/stm32f4xx_rcc.c ****          You can use PWR_MainRegulatorModeConfig() function to set or reset this bit.
 663:cmsis/device/stm32f4xx_rcc.c **** 
 664:cmsis/device/stm32f4xx_rcc.c **** @endverbatim
 665:cmsis/device/stm32f4xx_rcc.c ****   * @{
 666:cmsis/device/stm32f4xx_rcc.c ****   */
 667:cmsis/device/stm32f4xx_rcc.c **** 
 668:cmsis/device/stm32f4xx_rcc.c **** /**
 669:cmsis/device/stm32f4xx_rcc.c ****   * @brief  Configures the system clock (SYSCLK).
 670:cmsis/device/stm32f4xx_rcc.c ****   * @note   The HSI is used (enabled by hardware) as system clock source after
 671:cmsis/device/stm32f4xx_rcc.c ****   *         startup from Reset, wake-up from STOP and STANDBY mode, or in case
 672:cmsis/device/stm32f4xx_rcc.c ****   *         of failure of the HSE used directly or indirectly as system clock
 673:cmsis/device/stm32f4xx_rcc.c ****   *         (if the Clock Security System CSS is enabled).
 674:cmsis/device/stm32f4xx_rcc.c ****   * @note   A switch from one clock source to another occurs only if the target
 675:cmsis/device/stm32f4xx_rcc.c ****   *         clock source is ready (clock stable after startup delay or PLL locked). 
 676:cmsis/device/stm32f4xx_rcc.c ****   *         If a clock source which is not yet ready is selected, the switch will
 677:cmsis/device/stm32f4xx_rcc.c ****   *         occur when the clock source will be ready. 
 678:cmsis/device/stm32f4xx_rcc.c ****   *         You can use RCC_GetSYSCLKSource() function to know which clock is
 679:cmsis/device/stm32f4xx_rcc.c ****   *         currently used as system clock source. 
 680:cmsis/device/stm32f4xx_rcc.c ****   * @param  RCC_SYSCLKSource: specifies the clock source used as system clock.
 681:cmsis/device/stm32f4xx_rcc.c ****   *          This parameter can be one of the following values:
 682:cmsis/device/stm32f4xx_rcc.c ****   *            @arg RCC_SYSCLKSource_HSI:    HSI selected as system clock source
 683:cmsis/device/stm32f4xx_rcc.c ****   *            @arg RCC_SYSCLKSource_HSE:    HSE selected as system clock source
 684:cmsis/device/stm32f4xx_rcc.c ****   *            @arg RCC_SYSCLKSource_PLLCLK: PLL selected as system clock source
 685:cmsis/device/stm32f4xx_rcc.c ****   * @retval None
 686:cmsis/device/stm32f4xx_rcc.c ****   */
 687:cmsis/device/stm32f4xx_rcc.c **** void RCC_SYSCLKConfig(uint32_t RCC_SYSCLKSource)
 688:cmsis/device/stm32f4xx_rcc.c **** {
 689:cmsis/device/stm32f4xx_rcc.c ****   uint32_t tmpreg = 0;
 690:cmsis/device/stm32f4xx_rcc.c **** 
 691:cmsis/device/stm32f4xx_rcc.c ****   /* Check the parameters */
 692:cmsis/device/stm32f4xx_rcc.c ****   assert_param(IS_RCC_SYSCLK_SOURCE(RCC_SYSCLKSource));
ARM GAS  C:\Users\CNous\AppData\Local\Temp\ccJl4JfT.s 			page 16


 693:cmsis/device/stm32f4xx_rcc.c **** 
 694:cmsis/device/stm32f4xx_rcc.c ****   tmpreg = RCC->CFGR;
 695:cmsis/device/stm32f4xx_rcc.c **** 
 696:cmsis/device/stm32f4xx_rcc.c ****   /* Clear SW[1:0] bits */
 697:cmsis/device/stm32f4xx_rcc.c ****   tmpreg &= ~RCC_CFGR_SW;
 698:cmsis/device/stm32f4xx_rcc.c **** 
 699:cmsis/device/stm32f4xx_rcc.c ****   /* Set SW[1:0] bits according to RCC_SYSCLKSource value */
 700:cmsis/device/stm32f4xx_rcc.c ****   tmpreg |= RCC_SYSCLKSource;
 701:cmsis/device/stm32f4xx_rcc.c **** 
 702:cmsis/device/stm32f4xx_rcc.c ****   /* Store the new value */
 703:cmsis/device/stm32f4xx_rcc.c ****   RCC->CFGR = tmpreg;
 704:cmsis/device/stm32f4xx_rcc.c **** }
 705:cmsis/device/stm32f4xx_rcc.c **** 
 706:cmsis/device/stm32f4xx_rcc.c **** /**
 707:cmsis/device/stm32f4xx_rcc.c ****   * @brief  Returns the clock source used as system clock.
 708:cmsis/device/stm32f4xx_rcc.c ****   * @param  None
 709:cmsis/device/stm32f4xx_rcc.c ****   * @retval The clock source used as system clock. The returned value can be one
 710:cmsis/device/stm32f4xx_rcc.c ****   *         of the following:
 711:cmsis/device/stm32f4xx_rcc.c ****   *              - 0x00: HSI used as system clock
 712:cmsis/device/stm32f4xx_rcc.c ****   *              - 0x04: HSE used as system clock
 713:cmsis/device/stm32f4xx_rcc.c ****   *              - 0x08: PLL used as system clock
 714:cmsis/device/stm32f4xx_rcc.c ****   */
 715:cmsis/device/stm32f4xx_rcc.c **** uint8_t RCC_GetSYSCLKSource(void)
 716:cmsis/device/stm32f4xx_rcc.c **** {
 717:cmsis/device/stm32f4xx_rcc.c ****   return ((uint8_t)(RCC->CFGR & RCC_CFGR_SWS));
 718:cmsis/device/stm32f4xx_rcc.c **** }
 719:cmsis/device/stm32f4xx_rcc.c **** 
 720:cmsis/device/stm32f4xx_rcc.c **** /**
 721:cmsis/device/stm32f4xx_rcc.c ****   * @brief  Configures the AHB clock (HCLK).
 722:cmsis/device/stm32f4xx_rcc.c ****   * @note   Depending on the device voltage range, the software has to set correctly
 723:cmsis/device/stm32f4xx_rcc.c ****   *         these bits to ensure that HCLK not exceed the maximum allowed frequency
 724:cmsis/device/stm32f4xx_rcc.c ****   *         (for more details refer to section above
 725:cmsis/device/stm32f4xx_rcc.c ****   *           "CPU, AHB and APB busses clocks configuration functions")
 726:cmsis/device/stm32f4xx_rcc.c ****   * @param  RCC_SYSCLK: defines the AHB clock divider. This clock is derived from 
 727:cmsis/device/stm32f4xx_rcc.c ****   *         the system clock (SYSCLK).
 728:cmsis/device/stm32f4xx_rcc.c ****   *          This parameter can be one of the following values:
 729:cmsis/device/stm32f4xx_rcc.c ****   *            @arg RCC_SYSCLK_Div1: AHB clock = SYSCLK
 730:cmsis/device/stm32f4xx_rcc.c ****   *            @arg RCC_SYSCLK_Div2: AHB clock = SYSCLK/2
 731:cmsis/device/stm32f4xx_rcc.c ****   *            @arg RCC_SYSCLK_Div4: AHB clock = SYSCLK/4
 732:cmsis/device/stm32f4xx_rcc.c ****   *            @arg RCC_SYSCLK_Div8: AHB clock = SYSCLK/8
 733:cmsis/device/stm32f4xx_rcc.c ****   *            @arg RCC_SYSCLK_Div16: AHB clock = SYSCLK/16
 734:cmsis/device/stm32f4xx_rcc.c ****   *            @arg RCC_SYSCLK_Div64: AHB clock = SYSCLK/64
 735:cmsis/device/stm32f4xx_rcc.c ****   *            @arg RCC_SYSCLK_Div128: AHB clock = SYSCLK/128
 736:cmsis/device/stm32f4xx_rcc.c ****   *            @arg RCC_SYSCLK_Div256: AHB clock = SYSCLK/256
 737:cmsis/device/stm32f4xx_rcc.c ****   *            @arg RCC_SYSCLK_Div512: AHB clock = SYSCLK/512
 738:cmsis/device/stm32f4xx_rcc.c ****   * @retval None
 739:cmsis/device/stm32f4xx_rcc.c ****   */
 740:cmsis/device/stm32f4xx_rcc.c **** void RCC_HCLKConfig(uint32_t RCC_SYSCLK)
 741:cmsis/device/stm32f4xx_rcc.c **** {
 742:cmsis/device/stm32f4xx_rcc.c ****   uint32_t tmpreg = 0;
 743:cmsis/device/stm32f4xx_rcc.c ****   
 744:cmsis/device/stm32f4xx_rcc.c ****   /* Check the parameters */
 745:cmsis/device/stm32f4xx_rcc.c ****   assert_param(IS_RCC_HCLK(RCC_SYSCLK));
 746:cmsis/device/stm32f4xx_rcc.c **** 
 747:cmsis/device/stm32f4xx_rcc.c ****   tmpreg = RCC->CFGR;
 748:cmsis/device/stm32f4xx_rcc.c **** 
 749:cmsis/device/stm32f4xx_rcc.c ****   /* Clear HPRE[3:0] bits */
ARM GAS  C:\Users\CNous\AppData\Local\Temp\ccJl4JfT.s 			page 17


 750:cmsis/device/stm32f4xx_rcc.c ****   tmpreg &= ~RCC_CFGR_HPRE;
 751:cmsis/device/stm32f4xx_rcc.c **** 
 752:cmsis/device/stm32f4xx_rcc.c ****   /* Set HPRE[3:0] bits according to RCC_SYSCLK value */
 753:cmsis/device/stm32f4xx_rcc.c ****   tmpreg |= RCC_SYSCLK;
 754:cmsis/device/stm32f4xx_rcc.c **** 
 755:cmsis/device/stm32f4xx_rcc.c ****   /* Store the new value */
 756:cmsis/device/stm32f4xx_rcc.c ****   RCC->CFGR = tmpreg;
 757:cmsis/device/stm32f4xx_rcc.c **** }
 758:cmsis/device/stm32f4xx_rcc.c **** 
 759:cmsis/device/stm32f4xx_rcc.c **** 
 760:cmsis/device/stm32f4xx_rcc.c **** /**
 761:cmsis/device/stm32f4xx_rcc.c ****   * @brief  Configures the Low Speed APB clock (PCLK1).
 762:cmsis/device/stm32f4xx_rcc.c ****   * @param  RCC_HCLK: defines the APB1 clock divider. This clock is derived from 
 763:cmsis/device/stm32f4xx_rcc.c ****   *         the AHB clock (HCLK).
 764:cmsis/device/stm32f4xx_rcc.c ****   *          This parameter can be one of the following values:
 765:cmsis/device/stm32f4xx_rcc.c ****   *            @arg RCC_HCLK_Div1:  APB1 clock = HCLK
 766:cmsis/device/stm32f4xx_rcc.c ****   *            @arg RCC_HCLK_Div2:  APB1 clock = HCLK/2
 767:cmsis/device/stm32f4xx_rcc.c ****   *            @arg RCC_HCLK_Div4:  APB1 clock = HCLK/4
 768:cmsis/device/stm32f4xx_rcc.c ****   *            @arg RCC_HCLK_Div8:  APB1 clock = HCLK/8
 769:cmsis/device/stm32f4xx_rcc.c ****   *            @arg RCC_HCLK_Div16: APB1 clock = HCLK/16
 770:cmsis/device/stm32f4xx_rcc.c ****   * @retval None
 771:cmsis/device/stm32f4xx_rcc.c ****   */
 772:cmsis/device/stm32f4xx_rcc.c **** void RCC_PCLK1Config(uint32_t RCC_HCLK)
 773:cmsis/device/stm32f4xx_rcc.c **** {
 774:cmsis/device/stm32f4xx_rcc.c ****   uint32_t tmpreg = 0;
 775:cmsis/device/stm32f4xx_rcc.c **** 
 776:cmsis/device/stm32f4xx_rcc.c ****   /* Check the parameters */
 777:cmsis/device/stm32f4xx_rcc.c ****   assert_param(IS_RCC_PCLK(RCC_HCLK));
 778:cmsis/device/stm32f4xx_rcc.c **** 
 779:cmsis/device/stm32f4xx_rcc.c ****   tmpreg = RCC->CFGR;
 780:cmsis/device/stm32f4xx_rcc.c **** 
 781:cmsis/device/stm32f4xx_rcc.c ****   /* Clear PPRE1[2:0] bits */
 782:cmsis/device/stm32f4xx_rcc.c ****   tmpreg &= ~RCC_CFGR_PPRE1;
 783:cmsis/device/stm32f4xx_rcc.c **** 
 784:cmsis/device/stm32f4xx_rcc.c ****   /* Set PPRE1[2:0] bits according to RCC_HCLK value */
 785:cmsis/device/stm32f4xx_rcc.c ****   tmpreg |= RCC_HCLK;
 786:cmsis/device/stm32f4xx_rcc.c **** 
 787:cmsis/device/stm32f4xx_rcc.c ****   /* Store the new value */
 788:cmsis/device/stm32f4xx_rcc.c ****   RCC->CFGR = tmpreg;
 789:cmsis/device/stm32f4xx_rcc.c **** }
 790:cmsis/device/stm32f4xx_rcc.c **** 
 791:cmsis/device/stm32f4xx_rcc.c **** /**
 792:cmsis/device/stm32f4xx_rcc.c ****   * @brief  Configures the High Speed APB clock (PCLK2).
 793:cmsis/device/stm32f4xx_rcc.c ****   * @param  RCC_HCLK: defines the APB2 clock divider. This clock is derived from 
 794:cmsis/device/stm32f4xx_rcc.c ****   *         the AHB clock (HCLK).
 795:cmsis/device/stm32f4xx_rcc.c ****   *          This parameter can be one of the following values:
 796:cmsis/device/stm32f4xx_rcc.c ****   *            @arg RCC_HCLK_Div1:  APB2 clock = HCLK
 797:cmsis/device/stm32f4xx_rcc.c ****   *            @arg RCC_HCLK_Div2:  APB2 clock = HCLK/2
 798:cmsis/device/stm32f4xx_rcc.c ****   *            @arg RCC_HCLK_Div4:  APB2 clock = HCLK/4
 799:cmsis/device/stm32f4xx_rcc.c ****   *            @arg RCC_HCLK_Div8:  APB2 clock = HCLK/8
 800:cmsis/device/stm32f4xx_rcc.c ****   *            @arg RCC_HCLK_Div16: APB2 clock = HCLK/16
 801:cmsis/device/stm32f4xx_rcc.c ****   * @retval None
 802:cmsis/device/stm32f4xx_rcc.c ****   */
 803:cmsis/device/stm32f4xx_rcc.c **** void RCC_PCLK2Config(uint32_t RCC_HCLK)
 804:cmsis/device/stm32f4xx_rcc.c **** {
 805:cmsis/device/stm32f4xx_rcc.c ****   uint32_t tmpreg = 0;
 806:cmsis/device/stm32f4xx_rcc.c **** 
ARM GAS  C:\Users\CNous\AppData\Local\Temp\ccJl4JfT.s 			page 18


 807:cmsis/device/stm32f4xx_rcc.c ****   /* Check the parameters */
 808:cmsis/device/stm32f4xx_rcc.c ****   assert_param(IS_RCC_PCLK(RCC_HCLK));
 809:cmsis/device/stm32f4xx_rcc.c **** 
 810:cmsis/device/stm32f4xx_rcc.c ****   tmpreg = RCC->CFGR;
 811:cmsis/device/stm32f4xx_rcc.c **** 
 812:cmsis/device/stm32f4xx_rcc.c ****   /* Clear PPRE2[2:0] bits */
 813:cmsis/device/stm32f4xx_rcc.c ****   tmpreg &= ~RCC_CFGR_PPRE2;
 814:cmsis/device/stm32f4xx_rcc.c **** 
 815:cmsis/device/stm32f4xx_rcc.c ****   /* Set PPRE2[2:0] bits according to RCC_HCLK value */
 816:cmsis/device/stm32f4xx_rcc.c ****   tmpreg |= RCC_HCLK << 3;
 817:cmsis/device/stm32f4xx_rcc.c **** 
 818:cmsis/device/stm32f4xx_rcc.c ****   /* Store the new value */
 819:cmsis/device/stm32f4xx_rcc.c ****   RCC->CFGR = tmpreg;
 820:cmsis/device/stm32f4xx_rcc.c **** }
 821:cmsis/device/stm32f4xx_rcc.c **** 
 822:cmsis/device/stm32f4xx_rcc.c **** /**
 823:cmsis/device/stm32f4xx_rcc.c ****   * @brief  Returns the frequencies of different on chip clocks; SYSCLK, HCLK, 
 824:cmsis/device/stm32f4xx_rcc.c ****   *         PCLK1 and PCLK2.       
 825:cmsis/device/stm32f4xx_rcc.c ****   * 
 826:cmsis/device/stm32f4xx_rcc.c ****   * @note   The system frequency computed by this function is not the real 
 827:cmsis/device/stm32f4xx_rcc.c ****   *         frequency in the chip. It is calculated based on the predefined 
 828:cmsis/device/stm32f4xx_rcc.c ****   *         constant and the selected clock source:
 829:cmsis/device/stm32f4xx_rcc.c ****   * @note     If SYSCLK source is HSI, function returns values based on HSI_VALUE(*)
 830:cmsis/device/stm32f4xx_rcc.c ****   * @note     If SYSCLK source is HSE, function returns values based on HSE_VALUE(**)
 831:cmsis/device/stm32f4xx_rcc.c ****   * @note     If SYSCLK source is PLL, function returns values based on HSE_VALUE(**) 
 832:cmsis/device/stm32f4xx_rcc.c ****   *           or HSI_VALUE(*) multiplied/divided by the PLL factors.         
 833:cmsis/device/stm32f4xx_rcc.c ****   * @note     (*) HSI_VALUE is a constant defined in stm32f4xx.h file (default value
 834:cmsis/device/stm32f4xx_rcc.c ****   *               16 MHz) but the real value may vary depending on the variations
 835:cmsis/device/stm32f4xx_rcc.c ****   *               in voltage and temperature.
 836:cmsis/device/stm32f4xx_rcc.c ****   * @note     (**) HSE_VALUE is a constant defined in stm32f4xx.h file (default value
 837:cmsis/device/stm32f4xx_rcc.c ****   *                25 MHz), user has to ensure that HSE_VALUE is same as the real
 838:cmsis/device/stm32f4xx_rcc.c ****   *                frequency of the crystal used. Otherwise, this function may
 839:cmsis/device/stm32f4xx_rcc.c ****   *                have wrong result.
 840:cmsis/device/stm32f4xx_rcc.c ****   *                
 841:cmsis/device/stm32f4xx_rcc.c ****   * @note   The result of this function could be not correct when using fractional
 842:cmsis/device/stm32f4xx_rcc.c ****   *         value for HSE crystal.
 843:cmsis/device/stm32f4xx_rcc.c ****   *   
 844:cmsis/device/stm32f4xx_rcc.c ****   * @param  RCC_Clocks: pointer to a RCC_ClocksTypeDef structure which will hold
 845:cmsis/device/stm32f4xx_rcc.c ****   *          the clocks frequencies.
 846:cmsis/device/stm32f4xx_rcc.c ****   *     
 847:cmsis/device/stm32f4xx_rcc.c ****   * @note   This function can be used by the user application to compute the 
 848:cmsis/device/stm32f4xx_rcc.c ****   *         baudrate for the communication peripherals or configure other parameters.
 849:cmsis/device/stm32f4xx_rcc.c ****   * @note   Each time SYSCLK, HCLK, PCLK1 and/or PCLK2 clock changes, this function
 850:cmsis/device/stm32f4xx_rcc.c ****   *         must be called to update the structure's field. Otherwise, any
 851:cmsis/device/stm32f4xx_rcc.c ****   *         configuration based on this function will be incorrect.
 852:cmsis/device/stm32f4xx_rcc.c ****   *    
 853:cmsis/device/stm32f4xx_rcc.c ****   * @retval None
 854:cmsis/device/stm32f4xx_rcc.c ****   */
 855:cmsis/device/stm32f4xx_rcc.c **** void RCC_GetClocksFreq(RCC_ClocksTypeDef* RCC_Clocks)
 856:cmsis/device/stm32f4xx_rcc.c **** {
 857:cmsis/device/stm32f4xx_rcc.c ****   uint32_t tmp = 0, presc = 0, pllvco = 0, pllp = 2, pllsource = 0, pllm = 2;
 858:cmsis/device/stm32f4xx_rcc.c **** 
 859:cmsis/device/stm32f4xx_rcc.c ****   /* Get SYSCLK source -------------------------------------------------------*/
 860:cmsis/device/stm32f4xx_rcc.c ****   tmp = RCC->CFGR & RCC_CFGR_SWS;
 861:cmsis/device/stm32f4xx_rcc.c **** 
 862:cmsis/device/stm32f4xx_rcc.c ****   switch (tmp)
 863:cmsis/device/stm32f4xx_rcc.c ****   {
ARM GAS  C:\Users\CNous\AppData\Local\Temp\ccJl4JfT.s 			page 19


 864:cmsis/device/stm32f4xx_rcc.c ****     case 0x00:  /* HSI used as system clock source */
 865:cmsis/device/stm32f4xx_rcc.c ****       RCC_Clocks->SYSCLK_Frequency = HSI_VALUE;
 866:cmsis/device/stm32f4xx_rcc.c ****       break;
 867:cmsis/device/stm32f4xx_rcc.c ****     case 0x04:  /* HSE used as system clock  source */
 868:cmsis/device/stm32f4xx_rcc.c ****       RCC_Clocks->SYSCLK_Frequency = HSE_VALUE;
 869:cmsis/device/stm32f4xx_rcc.c ****       break;
 870:cmsis/device/stm32f4xx_rcc.c ****     case 0x08:  /* PLL used as system clock  source */
 871:cmsis/device/stm32f4xx_rcc.c **** 
 872:cmsis/device/stm32f4xx_rcc.c ****       /* PLL_VCO = (HSE_VALUE or HSI_VALUE / PLLM) * PLLN
 873:cmsis/device/stm32f4xx_rcc.c ****          SYSCLK = PLL_VCO / PLLP
 874:cmsis/device/stm32f4xx_rcc.c ****          */    
 875:cmsis/device/stm32f4xx_rcc.c ****       pllsource = (RCC->PLLCFGR & RCC_PLLCFGR_PLLSRC) >> 22;
 876:cmsis/device/stm32f4xx_rcc.c ****       pllm = RCC->PLLCFGR & RCC_PLLCFGR_PLLM;
 877:cmsis/device/stm32f4xx_rcc.c ****       
 878:cmsis/device/stm32f4xx_rcc.c ****       if (pllsource != 0)
 879:cmsis/device/stm32f4xx_rcc.c ****       {
 880:cmsis/device/stm32f4xx_rcc.c ****         /* HSE used as PLL clock source */
 881:cmsis/device/stm32f4xx_rcc.c ****         pllvco = (HSE_VALUE / pllm) * ((RCC->PLLCFGR & RCC_PLLCFGR_PLLN) >> 6);
 882:cmsis/device/stm32f4xx_rcc.c ****       }
 883:cmsis/device/stm32f4xx_rcc.c ****       else
 884:cmsis/device/stm32f4xx_rcc.c ****       {
 885:cmsis/device/stm32f4xx_rcc.c ****         /* HSI used as PLL clock source */
 886:cmsis/device/stm32f4xx_rcc.c ****         pllvco = (HSI_VALUE / pllm) * ((RCC->PLLCFGR & RCC_PLLCFGR_PLLN) >> 6);      
 887:cmsis/device/stm32f4xx_rcc.c ****       }
 888:cmsis/device/stm32f4xx_rcc.c **** 
 889:cmsis/device/stm32f4xx_rcc.c ****       pllp = (((RCC->PLLCFGR & RCC_PLLCFGR_PLLP) >>16) + 1 ) *2;
 890:cmsis/device/stm32f4xx_rcc.c ****       RCC_Clocks->SYSCLK_Frequency = pllvco/pllp;
 891:cmsis/device/stm32f4xx_rcc.c ****       break;
 892:cmsis/device/stm32f4xx_rcc.c ****     default:
 893:cmsis/device/stm32f4xx_rcc.c ****       RCC_Clocks->SYSCLK_Frequency = HSI_VALUE;
 894:cmsis/device/stm32f4xx_rcc.c ****       break;
 895:cmsis/device/stm32f4xx_rcc.c ****   }
 896:cmsis/device/stm32f4xx_rcc.c ****   /* Compute HCLK, PCLK1 and PCLK2 clocks frequencies ------------------------*/
 897:cmsis/device/stm32f4xx_rcc.c **** 
 898:cmsis/device/stm32f4xx_rcc.c ****   /* Get HCLK prescaler */
 899:cmsis/device/stm32f4xx_rcc.c ****   tmp = RCC->CFGR & RCC_CFGR_HPRE;
 900:cmsis/device/stm32f4xx_rcc.c ****   tmp = tmp >> 4;
 901:cmsis/device/stm32f4xx_rcc.c ****   presc = APBAHBPrescTable[tmp];
 902:cmsis/device/stm32f4xx_rcc.c ****   /* HCLK clock frequency */
 903:cmsis/device/stm32f4xx_rcc.c ****   RCC_Clocks->HCLK_Frequency = RCC_Clocks->SYSCLK_Frequency >> presc;
 904:cmsis/device/stm32f4xx_rcc.c **** 
 905:cmsis/device/stm32f4xx_rcc.c ****   /* Get PCLK1 prescaler */
 906:cmsis/device/stm32f4xx_rcc.c ****   tmp = RCC->CFGR & RCC_CFGR_PPRE1;
 907:cmsis/device/stm32f4xx_rcc.c ****   tmp = tmp >> 10;
 908:cmsis/device/stm32f4xx_rcc.c ****   presc = APBAHBPrescTable[tmp];
 909:cmsis/device/stm32f4xx_rcc.c ****   /* PCLK1 clock frequency */
 910:cmsis/device/stm32f4xx_rcc.c ****   RCC_Clocks->PCLK1_Frequency = RCC_Clocks->HCLK_Frequency >> presc;
 911:cmsis/device/stm32f4xx_rcc.c **** 
 912:cmsis/device/stm32f4xx_rcc.c ****   /* Get PCLK2 prescaler */
 913:cmsis/device/stm32f4xx_rcc.c ****   tmp = RCC->CFGR & RCC_CFGR_PPRE2;
 914:cmsis/device/stm32f4xx_rcc.c ****   tmp = tmp >> 13;
 915:cmsis/device/stm32f4xx_rcc.c ****   presc = APBAHBPrescTable[tmp];
 916:cmsis/device/stm32f4xx_rcc.c ****   /* PCLK2 clock frequency */
 917:cmsis/device/stm32f4xx_rcc.c ****   RCC_Clocks->PCLK2_Frequency = RCC_Clocks->HCLK_Frequency >> presc;
 918:cmsis/device/stm32f4xx_rcc.c **** }
 919:cmsis/device/stm32f4xx_rcc.c **** 
 920:cmsis/device/stm32f4xx_rcc.c **** /**
ARM GAS  C:\Users\CNous\AppData\Local\Temp\ccJl4JfT.s 			page 20


 921:cmsis/device/stm32f4xx_rcc.c ****   * @}
 922:cmsis/device/stm32f4xx_rcc.c ****   */
 923:cmsis/device/stm32f4xx_rcc.c **** 
 924:cmsis/device/stm32f4xx_rcc.c **** /** @defgroup RCC_Group3 Peripheral clocks configuration functions
 925:cmsis/device/stm32f4xx_rcc.c ****  *  @brief   Peripheral clocks configuration functions 
 926:cmsis/device/stm32f4xx_rcc.c ****  *
 927:cmsis/device/stm32f4xx_rcc.c **** @verbatim   
 928:cmsis/device/stm32f4xx_rcc.c ****  ===============================================================================
 929:cmsis/device/stm32f4xx_rcc.c ****                    Peripheral clocks configuration functions
 930:cmsis/device/stm32f4xx_rcc.c ****  ===============================================================================  
 931:cmsis/device/stm32f4xx_rcc.c **** 
 932:cmsis/device/stm32f4xx_rcc.c ****   This section provide functions allowing to configure the Peripheral clocks. 
 933:cmsis/device/stm32f4xx_rcc.c ****   
 934:cmsis/device/stm32f4xx_rcc.c ****   1. The RTC clock which is derived from the LSI, LSE or HSE clock divided by 2 to 31.
 935:cmsis/device/stm32f4xx_rcc.c ****      
 936:cmsis/device/stm32f4xx_rcc.c ****   2. After restart from Reset or wakeup from STANDBY, all peripherals are off
 937:cmsis/device/stm32f4xx_rcc.c ****      except internal SRAM, Flash and JTAG. Before to start using a peripheral you
 938:cmsis/device/stm32f4xx_rcc.c ****      have to enable its interface clock. You can do this using RCC_AHBPeriphClockCmd()
 939:cmsis/device/stm32f4xx_rcc.c ****      , RCC_APB2PeriphClockCmd() and RCC_APB1PeriphClockCmd() functions.
 940:cmsis/device/stm32f4xx_rcc.c **** 
 941:cmsis/device/stm32f4xx_rcc.c ****   3. To reset the peripherals configuration (to the default state after device reset)
 942:cmsis/device/stm32f4xx_rcc.c ****      you can use RCC_AHBPeriphResetCmd(), RCC_APB2PeriphResetCmd() and 
 943:cmsis/device/stm32f4xx_rcc.c ****      RCC_APB1PeriphResetCmd() functions.
 944:cmsis/device/stm32f4xx_rcc.c ****      
 945:cmsis/device/stm32f4xx_rcc.c ****   4. To further reduce power consumption in SLEEP mode the peripheral clocks can
 946:cmsis/device/stm32f4xx_rcc.c ****      be disabled prior to executing the WFI or WFE instructions. You can do this
 947:cmsis/device/stm32f4xx_rcc.c ****      using RCC_AHBPeriphClockLPModeCmd(), RCC_APB2PeriphClockLPModeCmd() and
 948:cmsis/device/stm32f4xx_rcc.c ****      RCC_APB1PeriphClockLPModeCmd() functions.  
 949:cmsis/device/stm32f4xx_rcc.c **** 
 950:cmsis/device/stm32f4xx_rcc.c **** @endverbatim
 951:cmsis/device/stm32f4xx_rcc.c ****   * @{
 952:cmsis/device/stm32f4xx_rcc.c ****   */
 953:cmsis/device/stm32f4xx_rcc.c **** 
 954:cmsis/device/stm32f4xx_rcc.c **** /**
 955:cmsis/device/stm32f4xx_rcc.c ****   * @brief  Configures the RTC clock (RTCCLK).
 956:cmsis/device/stm32f4xx_rcc.c ****   * @note   As the RTC clock configuration bits are in the Backup domain and write
 957:cmsis/device/stm32f4xx_rcc.c ****   *         access is denied to this domain after reset, you have to enable write
 958:cmsis/device/stm32f4xx_rcc.c ****   *         access using PWR_BackupAccessCmd(ENABLE) function before to configure
 959:cmsis/device/stm32f4xx_rcc.c ****   *         the RTC clock source (to be done once after reset).    
 960:cmsis/device/stm32f4xx_rcc.c ****   * @note   Once the RTC clock is configured it can't be changed unless the  
 961:cmsis/device/stm32f4xx_rcc.c ****   *         Backup domain is reset using RCC_BackupResetCmd() function, or by
 962:cmsis/device/stm32f4xx_rcc.c ****   *         a Power On Reset (POR).
 963:cmsis/device/stm32f4xx_rcc.c ****   *    
 964:cmsis/device/stm32f4xx_rcc.c ****   * @param  RCC_RTCCLKSource: specifies the RTC clock source.
 965:cmsis/device/stm32f4xx_rcc.c ****   *          This parameter can be one of the following values:
 966:cmsis/device/stm32f4xx_rcc.c ****   *            @arg RCC_RTCCLKSource_LSE: LSE selected as RTC clock
 967:cmsis/device/stm32f4xx_rcc.c ****   *            @arg RCC_RTCCLKSource_LSI: LSI selected as RTC clock
 968:cmsis/device/stm32f4xx_rcc.c ****   *            @arg RCC_RTCCLKSource_HSE_Divx: HSE clock divided by x selected
 969:cmsis/device/stm32f4xx_rcc.c ****   *                                            as RTC clock, where x:[2,31]
 970:cmsis/device/stm32f4xx_rcc.c ****   *  
 971:cmsis/device/stm32f4xx_rcc.c ****   * @note   If the LSE or LSI is used as RTC clock source, the RTC continues to
 972:cmsis/device/stm32f4xx_rcc.c ****   *         work in STOP and STANDBY modes, and can be used as wakeup source.
 973:cmsis/device/stm32f4xx_rcc.c ****   *         However, when the HSE clock is used as RTC clock source, the RTC
 974:cmsis/device/stm32f4xx_rcc.c ****   *         cannot be used in STOP and STANDBY modes.    
 975:cmsis/device/stm32f4xx_rcc.c ****   * @note   The maximum input clock frequency for RTC is 1MHz (when using HSE as
 976:cmsis/device/stm32f4xx_rcc.c ****   *         RTC clock source).
 977:cmsis/device/stm32f4xx_rcc.c ****   *  
ARM GAS  C:\Users\CNous\AppData\Local\Temp\ccJl4JfT.s 			page 21


 978:cmsis/device/stm32f4xx_rcc.c ****   * @retval None
 979:cmsis/device/stm32f4xx_rcc.c ****   */
 980:cmsis/device/stm32f4xx_rcc.c **** void RCC_RTCCLKConfig(uint32_t RCC_RTCCLKSource)
 981:cmsis/device/stm32f4xx_rcc.c **** {
 982:cmsis/device/stm32f4xx_rcc.c ****   uint32_t tmpreg = 0;
 983:cmsis/device/stm32f4xx_rcc.c **** 
 984:cmsis/device/stm32f4xx_rcc.c ****   /* Check the parameters */
 985:cmsis/device/stm32f4xx_rcc.c ****   assert_param(IS_RCC_RTCCLK_SOURCE(RCC_RTCCLKSource));
 986:cmsis/device/stm32f4xx_rcc.c **** 
 987:cmsis/device/stm32f4xx_rcc.c ****   if ((RCC_RTCCLKSource & 0x00000300) == 0x00000300)
 988:cmsis/device/stm32f4xx_rcc.c ****   { /* If HSE is selected as RTC clock source, configure HSE division factor for RTC clock */
 989:cmsis/device/stm32f4xx_rcc.c ****     tmpreg = RCC->CFGR;
 990:cmsis/device/stm32f4xx_rcc.c **** 
 991:cmsis/device/stm32f4xx_rcc.c ****     /* Clear RTCPRE[4:0] bits */
 992:cmsis/device/stm32f4xx_rcc.c ****     tmpreg &= ~RCC_CFGR_RTCPRE;
 993:cmsis/device/stm32f4xx_rcc.c **** 
 994:cmsis/device/stm32f4xx_rcc.c ****     /* Configure HSE division factor for RTC clock */
 995:cmsis/device/stm32f4xx_rcc.c ****     tmpreg |= (RCC_RTCCLKSource & 0xFFFFCFF);
 996:cmsis/device/stm32f4xx_rcc.c **** 
 997:cmsis/device/stm32f4xx_rcc.c ****     /* Store the new value */
 998:cmsis/device/stm32f4xx_rcc.c ****     RCC->CFGR = tmpreg;
 999:cmsis/device/stm32f4xx_rcc.c ****   }
1000:cmsis/device/stm32f4xx_rcc.c ****     
1001:cmsis/device/stm32f4xx_rcc.c ****   /* Select the RTC clock source */
1002:cmsis/device/stm32f4xx_rcc.c ****   RCC->BDCR |= (RCC_RTCCLKSource & 0x00000FFF);
1003:cmsis/device/stm32f4xx_rcc.c **** }
1004:cmsis/device/stm32f4xx_rcc.c **** 
1005:cmsis/device/stm32f4xx_rcc.c **** /**
1006:cmsis/device/stm32f4xx_rcc.c ****   * @brief  Enables or disables the RTC clock.
1007:cmsis/device/stm32f4xx_rcc.c ****   * @note   This function must be used only after the RTC clock source was selected
1008:cmsis/device/stm32f4xx_rcc.c ****   *         using the RCC_RTCCLKConfig function.
1009:cmsis/device/stm32f4xx_rcc.c ****   * @param  NewState: new state of the RTC clock. This parameter can be: ENABLE or DISABLE.
1010:cmsis/device/stm32f4xx_rcc.c ****   * @retval None
1011:cmsis/device/stm32f4xx_rcc.c ****   */
1012:cmsis/device/stm32f4xx_rcc.c **** void RCC_RTCCLKCmd(FunctionalState NewState)
1013:cmsis/device/stm32f4xx_rcc.c **** {
1014:cmsis/device/stm32f4xx_rcc.c ****   /* Check the parameters */
1015:cmsis/device/stm32f4xx_rcc.c ****   assert_param(IS_FUNCTIONAL_STATE(NewState));
1016:cmsis/device/stm32f4xx_rcc.c **** 
1017:cmsis/device/stm32f4xx_rcc.c ****   *(__IO uint32_t *) BDCR_RTCEN_BB = (uint32_t)NewState;
1018:cmsis/device/stm32f4xx_rcc.c **** }
1019:cmsis/device/stm32f4xx_rcc.c **** 
1020:cmsis/device/stm32f4xx_rcc.c **** /**
1021:cmsis/device/stm32f4xx_rcc.c ****   * @brief  Forces or releases the Backup domain reset.
1022:cmsis/device/stm32f4xx_rcc.c ****   * @note   This function resets the RTC peripheral (including the backup registers)
1023:cmsis/device/stm32f4xx_rcc.c ****   *         and the RTC clock source selection in RCC_CSR register.
1024:cmsis/device/stm32f4xx_rcc.c ****   * @note   The BKPSRAM is not affected by this reset.    
1025:cmsis/device/stm32f4xx_rcc.c ****   * @param  NewState: new state of the Backup domain reset.
1026:cmsis/device/stm32f4xx_rcc.c ****   *          This parameter can be: ENABLE or DISABLE.
1027:cmsis/device/stm32f4xx_rcc.c ****   * @retval None
1028:cmsis/device/stm32f4xx_rcc.c ****   */
1029:cmsis/device/stm32f4xx_rcc.c **** void RCC_BackupResetCmd(FunctionalState NewState)
1030:cmsis/device/stm32f4xx_rcc.c **** {
1031:cmsis/device/stm32f4xx_rcc.c ****   /* Check the parameters */
1032:cmsis/device/stm32f4xx_rcc.c ****   assert_param(IS_FUNCTIONAL_STATE(NewState));
1033:cmsis/device/stm32f4xx_rcc.c ****   *(__IO uint32_t *) BDCR_BDRST_BB = (uint32_t)NewState;
1034:cmsis/device/stm32f4xx_rcc.c **** }
ARM GAS  C:\Users\CNous\AppData\Local\Temp\ccJl4JfT.s 			page 22


1035:cmsis/device/stm32f4xx_rcc.c **** 
1036:cmsis/device/stm32f4xx_rcc.c **** /**
1037:cmsis/device/stm32f4xx_rcc.c ****   * @brief  Configures the I2S clock source (I2SCLK).
1038:cmsis/device/stm32f4xx_rcc.c ****   * @note   This function must be called before enabling the I2S APB clock.
1039:cmsis/device/stm32f4xx_rcc.c ****   * @param  RCC_I2SCLKSource: specifies the I2S clock source.
1040:cmsis/device/stm32f4xx_rcc.c ****   *          This parameter can be one of the following values:
1041:cmsis/device/stm32f4xx_rcc.c ****   *            @arg RCC_I2S2CLKSource_PLLI2S: PLLI2S clock used as I2S clock source
1042:cmsis/device/stm32f4xx_rcc.c ****   *            @arg RCC_I2S2CLKSource_Ext: External clock mapped on the I2S_CKIN pin
1043:cmsis/device/stm32f4xx_rcc.c ****   *                                        used as I2S clock source
1044:cmsis/device/stm32f4xx_rcc.c ****   * @retval None
1045:cmsis/device/stm32f4xx_rcc.c ****   */
1046:cmsis/device/stm32f4xx_rcc.c **** void RCC_I2SCLKConfig(uint32_t RCC_I2SCLKSource)
1047:cmsis/device/stm32f4xx_rcc.c **** {
1048:cmsis/device/stm32f4xx_rcc.c ****   /* Check the parameters */
1049:cmsis/device/stm32f4xx_rcc.c ****   assert_param(IS_RCC_I2SCLK_SOURCE(RCC_I2SCLKSource));
1050:cmsis/device/stm32f4xx_rcc.c **** 
1051:cmsis/device/stm32f4xx_rcc.c ****   *(__IO uint32_t *) CFGR_I2SSRC_BB = RCC_I2SCLKSource;
1052:cmsis/device/stm32f4xx_rcc.c **** }
1053:cmsis/device/stm32f4xx_rcc.c **** 
1054:cmsis/device/stm32f4xx_rcc.c **** /**
1055:cmsis/device/stm32f4xx_rcc.c ****   * @brief  Enables or disables the AHB1 peripheral clock.
1056:cmsis/device/stm32f4xx_rcc.c ****   * @note   After reset, the peripheral clock (used for registers read/write access)
1057:cmsis/device/stm32f4xx_rcc.c ****   *         is disabled and the application software has to enable this clock before 
1058:cmsis/device/stm32f4xx_rcc.c ****   *         using it.   
1059:cmsis/device/stm32f4xx_rcc.c ****   * @param  RCC_AHBPeriph: specifies the AHB1 peripheral to gates its clock.
1060:cmsis/device/stm32f4xx_rcc.c ****   *          This parameter can be any combination of the following values:
1061:cmsis/device/stm32f4xx_rcc.c ****   *            @arg RCC_AHB1Periph_GPIOA:       GPIOA clock
1062:cmsis/device/stm32f4xx_rcc.c ****   *            @arg RCC_AHB1Periph_GPIOB:       GPIOB clock 
1063:cmsis/device/stm32f4xx_rcc.c ****   *            @arg RCC_AHB1Periph_GPIOC:       GPIOC clock
1064:cmsis/device/stm32f4xx_rcc.c ****   *            @arg RCC_AHB1Periph_GPIOD:       GPIOD clock
1065:cmsis/device/stm32f4xx_rcc.c ****   *            @arg RCC_AHB1Periph_GPIOE:       GPIOE clock
1066:cmsis/device/stm32f4xx_rcc.c ****   *            @arg RCC_AHB1Periph_GPIOF:       GPIOF clock
1067:cmsis/device/stm32f4xx_rcc.c ****   *            @arg RCC_AHB1Periph_GPIOG:       GPIOG clock
1068:cmsis/device/stm32f4xx_rcc.c ****   *            @arg RCC_AHB1Periph_GPIOG:       GPIOG clock
1069:cmsis/device/stm32f4xx_rcc.c ****   *            @arg RCC_AHB1Periph_GPIOI:       GPIOI clock
1070:cmsis/device/stm32f4xx_rcc.c ****   *            @arg RCC_AHB1Periph_CRC:         CRC clock
1071:cmsis/device/stm32f4xx_rcc.c ****   *            @arg RCC_AHB1Periph_BKPSRAM:     BKPSRAM interface clock
1072:cmsis/device/stm32f4xx_rcc.c ****   *            @arg RCC_AHB1Periph_CCMDATARAMEN CCM data RAM interface clock
1073:cmsis/device/stm32f4xx_rcc.c ****   *            @arg RCC_AHB1Periph_DMA1:        DMA1 clock
1074:cmsis/device/stm32f4xx_rcc.c ****   *            @arg RCC_AHB1Periph_DMA2:        DMA2 clock
1075:cmsis/device/stm32f4xx_rcc.c ****   *            @arg RCC_AHB1Periph_ETH_MAC:     Ethernet MAC clock
1076:cmsis/device/stm32f4xx_rcc.c ****   *            @arg RCC_AHB1Periph_ETH_MAC_Tx:  Ethernet Transmission clock
1077:cmsis/device/stm32f4xx_rcc.c ****   *            @arg RCC_AHB1Periph_ETH_MAC_Rx:  Ethernet Reception clock
1078:cmsis/device/stm32f4xx_rcc.c ****   *            @arg RCC_AHB1Periph_ETH_MAC_PTP: Ethernet PTP clock
1079:cmsis/device/stm32f4xx_rcc.c ****   *            @arg RCC_AHB1Periph_OTG_HS:      USB OTG HS clock
1080:cmsis/device/stm32f4xx_rcc.c ****   *            @arg RCC_AHB1Periph_OTG_HS_ULPI: USB OTG HS ULPI clock
1081:cmsis/device/stm32f4xx_rcc.c ****   * @param  NewState: new state of the specified peripheral clock.
1082:cmsis/device/stm32f4xx_rcc.c ****   *          This parameter can be: ENABLE or DISABLE.
1083:cmsis/device/stm32f4xx_rcc.c ****   * @retval None
1084:cmsis/device/stm32f4xx_rcc.c ****   */
1085:cmsis/device/stm32f4xx_rcc.c **** void RCC_AHB1PeriphClockCmd(uint32_t RCC_AHB1Periph, FunctionalState NewState)
1086:cmsis/device/stm32f4xx_rcc.c **** {
1087:cmsis/device/stm32f4xx_rcc.c ****   /* Check the parameters */
1088:cmsis/device/stm32f4xx_rcc.c ****   assert_param(IS_RCC_AHB1_CLOCK_PERIPH(RCC_AHB1Periph));
1089:cmsis/device/stm32f4xx_rcc.c **** 
1090:cmsis/device/stm32f4xx_rcc.c ****   assert_param(IS_FUNCTIONAL_STATE(NewState));
1091:cmsis/device/stm32f4xx_rcc.c ****   if (NewState != DISABLE)
ARM GAS  C:\Users\CNous\AppData\Local\Temp\ccJl4JfT.s 			page 23


1092:cmsis/device/stm32f4xx_rcc.c ****   {
1093:cmsis/device/stm32f4xx_rcc.c ****     RCC->AHB1ENR |= RCC_AHB1Periph;
1094:cmsis/device/stm32f4xx_rcc.c ****   }
1095:cmsis/device/stm32f4xx_rcc.c ****   else
1096:cmsis/device/stm32f4xx_rcc.c ****   {
1097:cmsis/device/stm32f4xx_rcc.c ****     RCC->AHB1ENR &= ~RCC_AHB1Periph;
1098:cmsis/device/stm32f4xx_rcc.c ****   }
1099:cmsis/device/stm32f4xx_rcc.c **** }
1100:cmsis/device/stm32f4xx_rcc.c **** 
1101:cmsis/device/stm32f4xx_rcc.c **** /**
1102:cmsis/device/stm32f4xx_rcc.c ****   * @brief  Enables or disables the AHB2 peripheral clock.
1103:cmsis/device/stm32f4xx_rcc.c ****   * @note   After reset, the peripheral clock (used for registers read/write access)
1104:cmsis/device/stm32f4xx_rcc.c ****   *         is disabled and the application software has to enable this clock before 
1105:cmsis/device/stm32f4xx_rcc.c ****   *         using it. 
1106:cmsis/device/stm32f4xx_rcc.c ****   * @param  RCC_AHBPeriph: specifies the AHB2 peripheral to gates its clock.
1107:cmsis/device/stm32f4xx_rcc.c ****   *          This parameter can be any combination of the following values:
1108:cmsis/device/stm32f4xx_rcc.c ****   *            @arg RCC_AHB2Periph_DCMI:   DCMI clock
1109:cmsis/device/stm32f4xx_rcc.c ****   *            @arg RCC_AHB2Periph_CRYP:   CRYP clock
1110:cmsis/device/stm32f4xx_rcc.c ****   *            @arg RCC_AHB2Periph_HASH:   HASH clock
1111:cmsis/device/stm32f4xx_rcc.c ****   *            @arg RCC_AHB2Periph_RNG:    RNG clock
1112:cmsis/device/stm32f4xx_rcc.c ****   *            @arg RCC_AHB2Periph_OTG_FS: USB OTG FS clock
1113:cmsis/device/stm32f4xx_rcc.c ****   * @param  NewState: new state of the specified peripheral clock.
1114:cmsis/device/stm32f4xx_rcc.c ****   *          This parameter can be: ENABLE or DISABLE.
1115:cmsis/device/stm32f4xx_rcc.c ****   * @retval None
1116:cmsis/device/stm32f4xx_rcc.c ****   */
1117:cmsis/device/stm32f4xx_rcc.c **** void RCC_AHB2PeriphClockCmd(uint32_t RCC_AHB2Periph, FunctionalState NewState)
1118:cmsis/device/stm32f4xx_rcc.c **** {
1119:cmsis/device/stm32f4xx_rcc.c ****   /* Check the parameters */
1120:cmsis/device/stm32f4xx_rcc.c ****   assert_param(IS_RCC_AHB2_PERIPH(RCC_AHB2Periph));
1121:cmsis/device/stm32f4xx_rcc.c ****   assert_param(IS_FUNCTIONAL_STATE(NewState));
1122:cmsis/device/stm32f4xx_rcc.c **** 
1123:cmsis/device/stm32f4xx_rcc.c ****   if (NewState != DISABLE)
1124:cmsis/device/stm32f4xx_rcc.c ****   {
1125:cmsis/device/stm32f4xx_rcc.c ****     RCC->AHB2ENR |= RCC_AHB2Periph;
1126:cmsis/device/stm32f4xx_rcc.c ****   }
1127:cmsis/device/stm32f4xx_rcc.c ****   else
1128:cmsis/device/stm32f4xx_rcc.c ****   {
1129:cmsis/device/stm32f4xx_rcc.c ****     RCC->AHB2ENR &= ~RCC_AHB2Periph;
1130:cmsis/device/stm32f4xx_rcc.c ****   }
1131:cmsis/device/stm32f4xx_rcc.c **** }
1132:cmsis/device/stm32f4xx_rcc.c **** 
1133:cmsis/device/stm32f4xx_rcc.c **** /**
1134:cmsis/device/stm32f4xx_rcc.c ****   * @brief  Enables or disables the AHB3 peripheral clock.
1135:cmsis/device/stm32f4xx_rcc.c ****   * @note   After reset, the peripheral clock (used for registers read/write access)
1136:cmsis/device/stm32f4xx_rcc.c ****   *         is disabled and the application software has to enable this clock before 
1137:cmsis/device/stm32f4xx_rcc.c ****   *         using it. 
1138:cmsis/device/stm32f4xx_rcc.c ****   * @param  RCC_AHBPeriph: specifies the AHB3 peripheral to gates its clock.
1139:cmsis/device/stm32f4xx_rcc.c ****   *          This parameter must be: RCC_AHB3Periph_FSMC
1140:cmsis/device/stm32f4xx_rcc.c ****   * @param  NewState: new state of the specified peripheral clock.
1141:cmsis/device/stm32f4xx_rcc.c ****   *          This parameter can be: ENABLE or DISABLE.
1142:cmsis/device/stm32f4xx_rcc.c ****   * @retval None
1143:cmsis/device/stm32f4xx_rcc.c ****   */
1144:cmsis/device/stm32f4xx_rcc.c **** void RCC_AHB3PeriphClockCmd(uint32_t RCC_AHB3Periph, FunctionalState NewState)
1145:cmsis/device/stm32f4xx_rcc.c **** {
1146:cmsis/device/stm32f4xx_rcc.c ****   /* Check the parameters */
1147:cmsis/device/stm32f4xx_rcc.c ****   assert_param(IS_RCC_AHB3_PERIPH(RCC_AHB3Periph));  
1148:cmsis/device/stm32f4xx_rcc.c ****   assert_param(IS_FUNCTIONAL_STATE(NewState));
ARM GAS  C:\Users\CNous\AppData\Local\Temp\ccJl4JfT.s 			page 24


1149:cmsis/device/stm32f4xx_rcc.c **** 
1150:cmsis/device/stm32f4xx_rcc.c ****   if (NewState != DISABLE)
1151:cmsis/device/stm32f4xx_rcc.c ****   {
1152:cmsis/device/stm32f4xx_rcc.c ****     RCC->AHB3ENR |= RCC_AHB3Periph;
1153:cmsis/device/stm32f4xx_rcc.c ****   }
1154:cmsis/device/stm32f4xx_rcc.c ****   else
1155:cmsis/device/stm32f4xx_rcc.c ****   {
1156:cmsis/device/stm32f4xx_rcc.c ****     RCC->AHB3ENR &= ~RCC_AHB3Periph;
1157:cmsis/device/stm32f4xx_rcc.c ****   }
1158:cmsis/device/stm32f4xx_rcc.c **** }
1159:cmsis/device/stm32f4xx_rcc.c **** 
1160:cmsis/device/stm32f4xx_rcc.c **** /**
1161:cmsis/device/stm32f4xx_rcc.c ****   * @brief  Enables or disables the Low Speed APB (APB1) peripheral clock.
1162:cmsis/device/stm32f4xx_rcc.c ****   * @note   After reset, the peripheral clock (used for registers read/write access)
1163:cmsis/device/stm32f4xx_rcc.c ****   *         is disabled and the application software has to enable this clock before 
1164:cmsis/device/stm32f4xx_rcc.c ****   *         using it. 
1165:cmsis/device/stm32f4xx_rcc.c ****   * @param  RCC_APB1Periph: specifies the APB1 peripheral to gates its clock.
1166:cmsis/device/stm32f4xx_rcc.c ****   *          This parameter can be any combination of the following values:
1167:cmsis/device/stm32f4xx_rcc.c ****   *            @arg RCC_APB1Periph_TIM2:   TIM2 clock
1168:cmsis/device/stm32f4xx_rcc.c ****   *            @arg RCC_APB1Periph_TIM3:   TIM3 clock
1169:cmsis/device/stm32f4xx_rcc.c ****   *            @arg RCC_APB1Periph_TIM4:   TIM4 clock
1170:cmsis/device/stm32f4xx_rcc.c ****   *            @arg RCC_APB1Periph_TIM5:   TIM5 clock
1171:cmsis/device/stm32f4xx_rcc.c ****   *            @arg RCC_APB1Periph_TIM6:   TIM6 clock
1172:cmsis/device/stm32f4xx_rcc.c ****   *            @arg RCC_APB1Periph_TIM7:   TIM7 clock
1173:cmsis/device/stm32f4xx_rcc.c ****   *            @arg RCC_APB1Periph_TIM12:  TIM12 clock
1174:cmsis/device/stm32f4xx_rcc.c ****   *            @arg RCC_APB1Periph_TIM13:  TIM13 clock
1175:cmsis/device/stm32f4xx_rcc.c ****   *            @arg RCC_APB1Periph_TIM14:  TIM14 clock
1176:cmsis/device/stm32f4xx_rcc.c ****   *            @arg RCC_APB1Periph_WWDG:   WWDG clock
1177:cmsis/device/stm32f4xx_rcc.c ****   *            @arg RCC_APB1Periph_SPI2:   SPI2 clock
1178:cmsis/device/stm32f4xx_rcc.c ****   *            @arg RCC_APB1Periph_SPI3:   SPI3 clock
1179:cmsis/device/stm32f4xx_rcc.c ****   *            @arg RCC_APB1Periph_USART2: USART2 clock
1180:cmsis/device/stm32f4xx_rcc.c ****   *            @arg RCC_APB1Periph_USART3: USART3 clock
1181:cmsis/device/stm32f4xx_rcc.c ****   *            @arg RCC_APB1Periph_UART4:  UART4 clock
1182:cmsis/device/stm32f4xx_rcc.c ****   *            @arg RCC_APB1Periph_UART5:  UART5 clock
1183:cmsis/device/stm32f4xx_rcc.c ****   *            @arg RCC_APB1Periph_I2C1:   I2C1 clock
1184:cmsis/device/stm32f4xx_rcc.c ****   *            @arg RCC_APB1Periph_I2C2:   I2C2 clock
1185:cmsis/device/stm32f4xx_rcc.c ****   *            @arg RCC_APB1Periph_I2C3:   I2C3 clock
1186:cmsis/device/stm32f4xx_rcc.c ****   *            @arg RCC_APB1Periph_CAN1:   CAN1 clock
1187:cmsis/device/stm32f4xx_rcc.c ****   *            @arg RCC_APB1Periph_CAN2:   CAN2 clock
1188:cmsis/device/stm32f4xx_rcc.c ****   *            @arg RCC_APB1Periph_PWR:    PWR clock
1189:cmsis/device/stm32f4xx_rcc.c ****   *            @arg RCC_APB1Periph_DAC:    DAC clock
1190:cmsis/device/stm32f4xx_rcc.c ****   * @param  NewState: new state of the specified peripheral clock.
1191:cmsis/device/stm32f4xx_rcc.c ****   *          This parameter can be: ENABLE or DISABLE.
1192:cmsis/device/stm32f4xx_rcc.c ****   * @retval None
1193:cmsis/device/stm32f4xx_rcc.c ****   */
1194:cmsis/device/stm32f4xx_rcc.c **** void RCC_APB1PeriphClockCmd(uint32_t RCC_APB1Periph, FunctionalState NewState)
1195:cmsis/device/stm32f4xx_rcc.c **** {
1196:cmsis/device/stm32f4xx_rcc.c ****   /* Check the parameters */
1197:cmsis/device/stm32f4xx_rcc.c ****   assert_param(IS_RCC_APB1_PERIPH(RCC_APB1Periph));  
1198:cmsis/device/stm32f4xx_rcc.c ****   assert_param(IS_FUNCTIONAL_STATE(NewState));
1199:cmsis/device/stm32f4xx_rcc.c **** 
1200:cmsis/device/stm32f4xx_rcc.c ****   if (NewState != DISABLE)
1201:cmsis/device/stm32f4xx_rcc.c ****   {
1202:cmsis/device/stm32f4xx_rcc.c ****     RCC->APB1ENR |= RCC_APB1Periph;
1203:cmsis/device/stm32f4xx_rcc.c ****   }
1204:cmsis/device/stm32f4xx_rcc.c ****   else
1205:cmsis/device/stm32f4xx_rcc.c ****   {
ARM GAS  C:\Users\CNous\AppData\Local\Temp\ccJl4JfT.s 			page 25


1206:cmsis/device/stm32f4xx_rcc.c ****     RCC->APB1ENR &= ~RCC_APB1Periph;
1207:cmsis/device/stm32f4xx_rcc.c ****   }
1208:cmsis/device/stm32f4xx_rcc.c **** }
1209:cmsis/device/stm32f4xx_rcc.c **** 
1210:cmsis/device/stm32f4xx_rcc.c **** /**
1211:cmsis/device/stm32f4xx_rcc.c ****   * @brief  Enables or disables the High Speed APB (APB2) peripheral clock.
1212:cmsis/device/stm32f4xx_rcc.c ****   * @note   After reset, the peripheral clock (used for registers read/write access)
1213:cmsis/device/stm32f4xx_rcc.c ****   *         is disabled and the application software has to enable this clock before 
1214:cmsis/device/stm32f4xx_rcc.c ****   *         using it.
1215:cmsis/device/stm32f4xx_rcc.c ****   * @param  RCC_APB2Periph: specifies the APB2 peripheral to gates its clock.
1216:cmsis/device/stm32f4xx_rcc.c ****   *          This parameter can be any combination of the following values:
1217:cmsis/device/stm32f4xx_rcc.c ****   *            @arg RCC_APB2Periph_TIM1:   TIM1 clock
1218:cmsis/device/stm32f4xx_rcc.c ****   *            @arg RCC_APB2Periph_TIM8:   TIM8 clock
1219:cmsis/device/stm32f4xx_rcc.c ****   *            @arg RCC_APB2Periph_USART1: USART1 clock
1220:cmsis/device/stm32f4xx_rcc.c ****   *            @arg RCC_APB2Periph_USART6: USART6 clock
1221:cmsis/device/stm32f4xx_rcc.c ****   *            @arg RCC_APB2Periph_ADC1:   ADC1 clock
1222:cmsis/device/stm32f4xx_rcc.c ****   *            @arg RCC_APB2Periph_ADC2:   ADC2 clock
1223:cmsis/device/stm32f4xx_rcc.c ****   *            @arg RCC_APB2Periph_ADC3:   ADC3 clock
1224:cmsis/device/stm32f4xx_rcc.c ****   *            @arg RCC_APB2Periph_SDIO:   SDIO clock
1225:cmsis/device/stm32f4xx_rcc.c ****   *            @arg RCC_APB2Periph_SPI1:   SPI1 clock
1226:cmsis/device/stm32f4xx_rcc.c ****   *            @arg RCC_APB2Periph_SYSCFG: SYSCFG clock
1227:cmsis/device/stm32f4xx_rcc.c ****   *            @arg RCC_APB2Periph_TIM9:   TIM9 clock
1228:cmsis/device/stm32f4xx_rcc.c ****   *            @arg RCC_APB2Periph_TIM10:  TIM10 clock
1229:cmsis/device/stm32f4xx_rcc.c ****   *            @arg RCC_APB2Periph_TIM11:  TIM11 clock
1230:cmsis/device/stm32f4xx_rcc.c ****   * @param  NewState: new state of the specified peripheral clock.
1231:cmsis/device/stm32f4xx_rcc.c ****   *          This parameter can be: ENABLE or DISABLE.
1232:cmsis/device/stm32f4xx_rcc.c ****   * @retval None
1233:cmsis/device/stm32f4xx_rcc.c ****   */
1234:cmsis/device/stm32f4xx_rcc.c **** void RCC_APB2PeriphClockCmd(uint32_t RCC_APB2Periph, FunctionalState NewState)
1235:cmsis/device/stm32f4xx_rcc.c **** {
1236:cmsis/device/stm32f4xx_rcc.c ****   /* Check the parameters */
1237:cmsis/device/stm32f4xx_rcc.c ****   assert_param(IS_RCC_APB2_PERIPH(RCC_APB2Periph));
1238:cmsis/device/stm32f4xx_rcc.c ****   assert_param(IS_FUNCTIONAL_STATE(NewState));
1239:cmsis/device/stm32f4xx_rcc.c **** 
1240:cmsis/device/stm32f4xx_rcc.c ****   if (NewState != DISABLE)
1241:cmsis/device/stm32f4xx_rcc.c ****   {
1242:cmsis/device/stm32f4xx_rcc.c ****     RCC->APB2ENR |= RCC_APB2Periph;
1243:cmsis/device/stm32f4xx_rcc.c ****   }
1244:cmsis/device/stm32f4xx_rcc.c ****   else
1245:cmsis/device/stm32f4xx_rcc.c ****   {
1246:cmsis/device/stm32f4xx_rcc.c ****     RCC->APB2ENR &= ~RCC_APB2Periph;
1247:cmsis/device/stm32f4xx_rcc.c ****   }
1248:cmsis/device/stm32f4xx_rcc.c **** }
1249:cmsis/device/stm32f4xx_rcc.c **** 
1250:cmsis/device/stm32f4xx_rcc.c **** /**
1251:cmsis/device/stm32f4xx_rcc.c ****   * @brief  Forces or releases AHB1 peripheral reset.
1252:cmsis/device/stm32f4xx_rcc.c ****   * @param  RCC_AHB1Periph: specifies the AHB1 peripheral to reset.
1253:cmsis/device/stm32f4xx_rcc.c ****   *          This parameter can be any combination of the following values:
1254:cmsis/device/stm32f4xx_rcc.c ****   *            @arg RCC_AHB1Periph_GPIOA:   GPIOA clock
1255:cmsis/device/stm32f4xx_rcc.c ****   *            @arg RCC_AHB1Periph_GPIOB:   GPIOB clock 
1256:cmsis/device/stm32f4xx_rcc.c ****   *            @arg RCC_AHB1Periph_GPIOC:   GPIOC clock
1257:cmsis/device/stm32f4xx_rcc.c ****   *            @arg RCC_AHB1Periph_GPIOD:   GPIOD clock
1258:cmsis/device/stm32f4xx_rcc.c ****   *            @arg RCC_AHB1Periph_GPIOE:   GPIOE clock
1259:cmsis/device/stm32f4xx_rcc.c ****   *            @arg RCC_AHB1Periph_GPIOF:   GPIOF clock
1260:cmsis/device/stm32f4xx_rcc.c ****   *            @arg RCC_AHB1Periph_GPIOG:   GPIOG clock
1261:cmsis/device/stm32f4xx_rcc.c ****   *            @arg RCC_AHB1Periph_GPIOG:   GPIOG clock
1262:cmsis/device/stm32f4xx_rcc.c ****   *            @arg RCC_AHB1Periph_GPIOI:   GPIOI clock
ARM GAS  C:\Users\CNous\AppData\Local\Temp\ccJl4JfT.s 			page 26


1263:cmsis/device/stm32f4xx_rcc.c ****   *            @arg RCC_AHB1Periph_CRC:     CRC clock
1264:cmsis/device/stm32f4xx_rcc.c ****   *            @arg RCC_AHB1Periph_DMA1:    DMA1 clock
1265:cmsis/device/stm32f4xx_rcc.c ****   *            @arg RCC_AHB1Periph_DMA2:    DMA2 clock
1266:cmsis/device/stm32f4xx_rcc.c ****   *            @arg RCC_AHB1Periph_ETH_MAC: Ethernet MAC clock
1267:cmsis/device/stm32f4xx_rcc.c ****   *            @arg RCC_AHB1Periph_OTG_HS:  USB OTG HS clock
1268:cmsis/device/stm32f4xx_rcc.c ****   *                  
1269:cmsis/device/stm32f4xx_rcc.c ****   * @param  NewState: new state of the specified peripheral reset.
1270:cmsis/device/stm32f4xx_rcc.c ****   *          This parameter can be: ENABLE or DISABLE.
1271:cmsis/device/stm32f4xx_rcc.c ****   * @retval None
1272:cmsis/device/stm32f4xx_rcc.c ****   */
1273:cmsis/device/stm32f4xx_rcc.c **** void RCC_AHB1PeriphResetCmd(uint32_t RCC_AHB1Periph, FunctionalState NewState)
1274:cmsis/device/stm32f4xx_rcc.c **** {
1275:cmsis/device/stm32f4xx_rcc.c ****   /* Check the parameters */
1276:cmsis/device/stm32f4xx_rcc.c ****   assert_param(IS_RCC_AHB1_RESET_PERIPH(RCC_AHB1Periph));
1277:cmsis/device/stm32f4xx_rcc.c ****   assert_param(IS_FUNCTIONAL_STATE(NewState));
1278:cmsis/device/stm32f4xx_rcc.c **** 
1279:cmsis/device/stm32f4xx_rcc.c ****   if (NewState != DISABLE)
1280:cmsis/device/stm32f4xx_rcc.c ****   {
1281:cmsis/device/stm32f4xx_rcc.c ****     RCC->AHB1RSTR |= RCC_AHB1Periph;
1282:cmsis/device/stm32f4xx_rcc.c ****   }
1283:cmsis/device/stm32f4xx_rcc.c ****   else
1284:cmsis/device/stm32f4xx_rcc.c ****   {
1285:cmsis/device/stm32f4xx_rcc.c ****     RCC->AHB1RSTR &= ~RCC_AHB1Periph;
1286:cmsis/device/stm32f4xx_rcc.c ****   }
1287:cmsis/device/stm32f4xx_rcc.c **** }
1288:cmsis/device/stm32f4xx_rcc.c **** 
1289:cmsis/device/stm32f4xx_rcc.c **** /**
1290:cmsis/device/stm32f4xx_rcc.c ****   * @brief  Forces or releases AHB2 peripheral reset.
1291:cmsis/device/stm32f4xx_rcc.c ****   * @param  RCC_AHB2Periph: specifies the AHB2 peripheral to reset.
1292:cmsis/device/stm32f4xx_rcc.c ****   *          This parameter can be any combination of the following values:
1293:cmsis/device/stm32f4xx_rcc.c ****   *            @arg RCC_AHB2Periph_DCMI:   DCMI clock
1294:cmsis/device/stm32f4xx_rcc.c ****   *            @arg RCC_AHB2Periph_CRYP:   CRYP clock
1295:cmsis/device/stm32f4xx_rcc.c ****   *            @arg RCC_AHB2Periph_HASH:   HASH clock
1296:cmsis/device/stm32f4xx_rcc.c ****   *            @arg RCC_AHB2Periph_RNG:    RNG clock
1297:cmsis/device/stm32f4xx_rcc.c ****   *            @arg RCC_AHB2Periph_OTG_FS: USB OTG FS clock
1298:cmsis/device/stm32f4xx_rcc.c ****   * @param  NewState: new state of the specified peripheral reset.
1299:cmsis/device/stm32f4xx_rcc.c ****   *          This parameter can be: ENABLE or DISABLE.
1300:cmsis/device/stm32f4xx_rcc.c ****   * @retval None
1301:cmsis/device/stm32f4xx_rcc.c ****   */
1302:cmsis/device/stm32f4xx_rcc.c **** void RCC_AHB2PeriphResetCmd(uint32_t RCC_AHB2Periph, FunctionalState NewState)
1303:cmsis/device/stm32f4xx_rcc.c **** {
1304:cmsis/device/stm32f4xx_rcc.c ****   /* Check the parameters */
1305:cmsis/device/stm32f4xx_rcc.c ****   assert_param(IS_RCC_AHB2_PERIPH(RCC_AHB2Periph));
1306:cmsis/device/stm32f4xx_rcc.c ****   assert_param(IS_FUNCTIONAL_STATE(NewState));
1307:cmsis/device/stm32f4xx_rcc.c **** 
1308:cmsis/device/stm32f4xx_rcc.c ****   if (NewState != DISABLE)
1309:cmsis/device/stm32f4xx_rcc.c ****   {
1310:cmsis/device/stm32f4xx_rcc.c ****     RCC->AHB2RSTR |= RCC_AHB2Periph;
1311:cmsis/device/stm32f4xx_rcc.c ****   }
1312:cmsis/device/stm32f4xx_rcc.c ****   else
1313:cmsis/device/stm32f4xx_rcc.c ****   {
1314:cmsis/device/stm32f4xx_rcc.c ****     RCC->AHB2RSTR &= ~RCC_AHB2Periph;
1315:cmsis/device/stm32f4xx_rcc.c ****   }
1316:cmsis/device/stm32f4xx_rcc.c **** }
1317:cmsis/device/stm32f4xx_rcc.c **** 
1318:cmsis/device/stm32f4xx_rcc.c **** /**
1319:cmsis/device/stm32f4xx_rcc.c ****   * @brief  Forces or releases AHB3 peripheral reset.
ARM GAS  C:\Users\CNous\AppData\Local\Temp\ccJl4JfT.s 			page 27


1320:cmsis/device/stm32f4xx_rcc.c ****   * @param  RCC_AHB3Periph: specifies the AHB3 peripheral to reset.
1321:cmsis/device/stm32f4xx_rcc.c ****   *          This parameter must be: RCC_AHB3Periph_FSMC
1322:cmsis/device/stm32f4xx_rcc.c ****   * @param  NewState: new state of the specified peripheral reset.
1323:cmsis/device/stm32f4xx_rcc.c ****   *          This parameter can be: ENABLE or DISABLE.
1324:cmsis/device/stm32f4xx_rcc.c ****   * @retval None
1325:cmsis/device/stm32f4xx_rcc.c ****   */
1326:cmsis/device/stm32f4xx_rcc.c **** void RCC_AHB3PeriphResetCmd(uint32_t RCC_AHB3Periph, FunctionalState NewState)
1327:cmsis/device/stm32f4xx_rcc.c **** {
1328:cmsis/device/stm32f4xx_rcc.c ****   /* Check the parameters */
1329:cmsis/device/stm32f4xx_rcc.c ****   assert_param(IS_RCC_AHB3_PERIPH(RCC_AHB3Periph));
1330:cmsis/device/stm32f4xx_rcc.c ****   assert_param(IS_FUNCTIONAL_STATE(NewState));
1331:cmsis/device/stm32f4xx_rcc.c **** 
1332:cmsis/device/stm32f4xx_rcc.c ****   if (NewState != DISABLE)
1333:cmsis/device/stm32f4xx_rcc.c ****   {
1334:cmsis/device/stm32f4xx_rcc.c ****     RCC->AHB3RSTR |= RCC_AHB3Periph;
1335:cmsis/device/stm32f4xx_rcc.c ****   }
1336:cmsis/device/stm32f4xx_rcc.c ****   else
1337:cmsis/device/stm32f4xx_rcc.c ****   {
1338:cmsis/device/stm32f4xx_rcc.c ****     RCC->AHB3RSTR &= ~RCC_AHB3Periph;
1339:cmsis/device/stm32f4xx_rcc.c ****   }
1340:cmsis/device/stm32f4xx_rcc.c **** }
1341:cmsis/device/stm32f4xx_rcc.c **** 
1342:cmsis/device/stm32f4xx_rcc.c **** /**
1343:cmsis/device/stm32f4xx_rcc.c ****   * @brief  Forces or releases Low Speed APB (APB1) peripheral reset.
1344:cmsis/device/stm32f4xx_rcc.c ****   * @param  RCC_APB1Periph: specifies the APB1 peripheral to reset.
1345:cmsis/device/stm32f4xx_rcc.c ****   *          This parameter can be any combination of the following values:
1346:cmsis/device/stm32f4xx_rcc.c ****   *            @arg RCC_APB1Periph_TIM2:   TIM2 clock
1347:cmsis/device/stm32f4xx_rcc.c ****   *            @arg RCC_APB1Periph_TIM3:   TIM3 clock
1348:cmsis/device/stm32f4xx_rcc.c ****   *            @arg RCC_APB1Periph_TIM4:   TIM4 clock
1349:cmsis/device/stm32f4xx_rcc.c ****   *            @arg RCC_APB1Periph_TIM5:   TIM5 clock
1350:cmsis/device/stm32f4xx_rcc.c ****   *            @arg RCC_APB1Periph_TIM6:   TIM6 clock
1351:cmsis/device/stm32f4xx_rcc.c ****   *            @arg RCC_APB1Periph_TIM7:   TIM7 clock
1352:cmsis/device/stm32f4xx_rcc.c ****   *            @arg RCC_APB1Periph_TIM12:  TIM12 clock
1353:cmsis/device/stm32f4xx_rcc.c ****   *            @arg RCC_APB1Periph_TIM13:  TIM13 clock
1354:cmsis/device/stm32f4xx_rcc.c ****   *            @arg RCC_APB1Periph_TIM14:  TIM14 clock
1355:cmsis/device/stm32f4xx_rcc.c ****   *            @arg RCC_APB1Periph_WWDG:   WWDG clock
1356:cmsis/device/stm32f4xx_rcc.c ****   *            @arg RCC_APB1Periph_SPI2:   SPI2 clock
1357:cmsis/device/stm32f4xx_rcc.c ****   *            @arg RCC_APB1Periph_SPI3:   SPI3 clock
1358:cmsis/device/stm32f4xx_rcc.c ****   *            @arg RCC_APB1Periph_USART2: USART2 clock
1359:cmsis/device/stm32f4xx_rcc.c ****   *            @arg RCC_APB1Periph_USART3: USART3 clock
1360:cmsis/device/stm32f4xx_rcc.c ****   *            @arg RCC_APB1Periph_UART4:  UART4 clock
1361:cmsis/device/stm32f4xx_rcc.c ****   *            @arg RCC_APB1Periph_UART5:  UART5 clock
1362:cmsis/device/stm32f4xx_rcc.c ****   *            @arg RCC_APB1Periph_I2C1:   I2C1 clock
1363:cmsis/device/stm32f4xx_rcc.c ****   *            @arg RCC_APB1Periph_I2C2:   I2C2 clock
1364:cmsis/device/stm32f4xx_rcc.c ****   *            @arg RCC_APB1Periph_I2C3:   I2C3 clock
1365:cmsis/device/stm32f4xx_rcc.c ****   *            @arg RCC_APB1Periph_CAN1:   CAN1 clock
1366:cmsis/device/stm32f4xx_rcc.c ****   *            @arg RCC_APB1Periph_CAN2:   CAN2 clock
1367:cmsis/device/stm32f4xx_rcc.c ****   *            @arg RCC_APB1Periph_PWR:    PWR clock
1368:cmsis/device/stm32f4xx_rcc.c ****   *            @arg RCC_APB1Periph_DAC:    DAC clock
1369:cmsis/device/stm32f4xx_rcc.c ****   * @param  NewState: new state of the specified peripheral reset.
1370:cmsis/device/stm32f4xx_rcc.c ****   *          This parameter can be: ENABLE or DISABLE.
1371:cmsis/device/stm32f4xx_rcc.c ****   * @retval None
1372:cmsis/device/stm32f4xx_rcc.c ****   */
1373:cmsis/device/stm32f4xx_rcc.c **** void RCC_APB1PeriphResetCmd(uint32_t RCC_APB1Periph, FunctionalState NewState)
1374:cmsis/device/stm32f4xx_rcc.c **** {
1375:cmsis/device/stm32f4xx_rcc.c ****   /* Check the parameters */
1376:cmsis/device/stm32f4xx_rcc.c ****   assert_param(IS_RCC_APB1_PERIPH(RCC_APB1Periph));
ARM GAS  C:\Users\CNous\AppData\Local\Temp\ccJl4JfT.s 			page 28


1377:cmsis/device/stm32f4xx_rcc.c ****   assert_param(IS_FUNCTIONAL_STATE(NewState));
1378:cmsis/device/stm32f4xx_rcc.c ****   if (NewState != DISABLE)
1379:cmsis/device/stm32f4xx_rcc.c ****   {
1380:cmsis/device/stm32f4xx_rcc.c ****     RCC->APB1RSTR |= RCC_APB1Periph;
1381:cmsis/device/stm32f4xx_rcc.c ****   }
1382:cmsis/device/stm32f4xx_rcc.c ****   else
1383:cmsis/device/stm32f4xx_rcc.c ****   {
1384:cmsis/device/stm32f4xx_rcc.c ****     RCC->APB1RSTR &= ~RCC_APB1Periph;
1385:cmsis/device/stm32f4xx_rcc.c ****   }
1386:cmsis/device/stm32f4xx_rcc.c **** }
1387:cmsis/device/stm32f4xx_rcc.c **** 
1388:cmsis/device/stm32f4xx_rcc.c **** /**
1389:cmsis/device/stm32f4xx_rcc.c ****   * @brief  Forces or releases High Speed APB (APB2) peripheral reset.
1390:cmsis/device/stm32f4xx_rcc.c ****   * @param  RCC_APB2Periph: specifies the APB2 peripheral to reset.
1391:cmsis/device/stm32f4xx_rcc.c ****   *          This parameter can be any combination of the following values:
1392:cmsis/device/stm32f4xx_rcc.c ****   *            @arg RCC_APB2Periph_TIM1:   TIM1 clock
1393:cmsis/device/stm32f4xx_rcc.c ****   *            @arg RCC_APB2Periph_TIM8:   TIM8 clock
1394:cmsis/device/stm32f4xx_rcc.c ****   *            @arg RCC_APB2Periph_USART1: USART1 clock
1395:cmsis/device/stm32f4xx_rcc.c ****   *            @arg RCC_APB2Periph_USART6: USART6 clock
1396:cmsis/device/stm32f4xx_rcc.c ****   *            @arg RCC_APB2Periph_ADC1:   ADC1 clock
1397:cmsis/device/stm32f4xx_rcc.c ****   *            @arg RCC_APB2Periph_ADC2:   ADC2 clock
1398:cmsis/device/stm32f4xx_rcc.c ****   *            @arg RCC_APB2Periph_ADC3:   ADC3 clock
1399:cmsis/device/stm32f4xx_rcc.c ****   *            @arg RCC_APB2Periph_SDIO:   SDIO clock
1400:cmsis/device/stm32f4xx_rcc.c ****   *            @arg RCC_APB2Periph_SPI1:   SPI1 clock
1401:cmsis/device/stm32f4xx_rcc.c ****   *            @arg RCC_APB2Periph_SYSCFG: SYSCFG clock
1402:cmsis/device/stm32f4xx_rcc.c ****   *            @arg RCC_APB2Periph_TIM9:   TIM9 clock
1403:cmsis/device/stm32f4xx_rcc.c ****   *            @arg RCC_APB2Periph_TIM10:  TIM10 clock
1404:cmsis/device/stm32f4xx_rcc.c ****   *            @arg RCC_APB2Periph_TIM11:  TIM11 clock
1405:cmsis/device/stm32f4xx_rcc.c ****   * @param  NewState: new state of the specified peripheral reset.
1406:cmsis/device/stm32f4xx_rcc.c ****   *          This parameter can be: ENABLE or DISABLE.
1407:cmsis/device/stm32f4xx_rcc.c ****   * @retval None
1408:cmsis/device/stm32f4xx_rcc.c ****   */
1409:cmsis/device/stm32f4xx_rcc.c **** void RCC_APB2PeriphResetCmd(uint32_t RCC_APB2Periph, FunctionalState NewState)
1410:cmsis/device/stm32f4xx_rcc.c **** {
1411:cmsis/device/stm32f4xx_rcc.c ****   /* Check the parameters */
1412:cmsis/device/stm32f4xx_rcc.c ****   assert_param(IS_RCC_APB2_RESET_PERIPH(RCC_APB2Periph));
1413:cmsis/device/stm32f4xx_rcc.c ****   assert_param(IS_FUNCTIONAL_STATE(NewState));
1414:cmsis/device/stm32f4xx_rcc.c ****   if (NewState != DISABLE)
1415:cmsis/device/stm32f4xx_rcc.c ****   {
1416:cmsis/device/stm32f4xx_rcc.c ****     RCC->APB2RSTR |= RCC_APB2Periph;
1417:cmsis/device/stm32f4xx_rcc.c ****   }
1418:cmsis/device/stm32f4xx_rcc.c ****   else
1419:cmsis/device/stm32f4xx_rcc.c ****   {
1420:cmsis/device/stm32f4xx_rcc.c ****     RCC->APB2RSTR &= ~RCC_APB2Periph;
1421:cmsis/device/stm32f4xx_rcc.c ****   }
1422:cmsis/device/stm32f4xx_rcc.c **** }
1423:cmsis/device/stm32f4xx_rcc.c **** 
1424:cmsis/device/stm32f4xx_rcc.c **** /**
1425:cmsis/device/stm32f4xx_rcc.c ****   * @brief  Enables or disables the AHB1 peripheral clock during Low Power (Sleep) mode.
1426:cmsis/device/stm32f4xx_rcc.c ****   * @note   Peripheral clock gating in SLEEP mode can be used to further reduce
1427:cmsis/device/stm32f4xx_rcc.c ****   *         power consumption.
1428:cmsis/device/stm32f4xx_rcc.c ****   * @note   After wakeup from SLEEP mode, the peripheral clock is enabled again.
1429:cmsis/device/stm32f4xx_rcc.c ****   * @note   By default, all peripheral clocks are enabled during SLEEP mode.
1430:cmsis/device/stm32f4xx_rcc.c ****   * @param  RCC_AHBPeriph: specifies the AHB1 peripheral to gates its clock.
1431:cmsis/device/stm32f4xx_rcc.c ****   *          This parameter can be any combination of the following values:
1432:cmsis/device/stm32f4xx_rcc.c ****   *            @arg RCC_AHB1Periph_GPIOA:       GPIOA clock
1433:cmsis/device/stm32f4xx_rcc.c ****   *            @arg RCC_AHB1Periph_GPIOB:       GPIOB clock 
ARM GAS  C:\Users\CNous\AppData\Local\Temp\ccJl4JfT.s 			page 29


1434:cmsis/device/stm32f4xx_rcc.c ****   *            @arg RCC_AHB1Periph_GPIOC:       GPIOC clock
1435:cmsis/device/stm32f4xx_rcc.c ****   *            @arg RCC_AHB1Periph_GPIOD:       GPIOD clock
1436:cmsis/device/stm32f4xx_rcc.c ****   *            @arg RCC_AHB1Periph_GPIOE:       GPIOE clock
1437:cmsis/device/stm32f4xx_rcc.c ****   *            @arg RCC_AHB1Periph_GPIOF:       GPIOF clock
1438:cmsis/device/stm32f4xx_rcc.c ****   *            @arg RCC_AHB1Periph_GPIOG:       GPIOG clock
1439:cmsis/device/stm32f4xx_rcc.c ****   *            @arg RCC_AHB1Periph_GPIOG:       GPIOG clock
1440:cmsis/device/stm32f4xx_rcc.c ****   *            @arg RCC_AHB1Periph_GPIOI:       GPIOI clock
1441:cmsis/device/stm32f4xx_rcc.c ****   *            @arg RCC_AHB1Periph_CRC:         CRC clock
1442:cmsis/device/stm32f4xx_rcc.c ****   *            @arg RCC_AHB1Periph_BKPSRAM:     BKPSRAM interface clock
1443:cmsis/device/stm32f4xx_rcc.c ****   *            @arg RCC_AHB1Periph_DMA1:        DMA1 clock
1444:cmsis/device/stm32f4xx_rcc.c ****   *            @arg RCC_AHB1Periph_DMA2:        DMA2 clock
1445:cmsis/device/stm32f4xx_rcc.c ****   *            @arg RCC_AHB1Periph_ETH_MAC:     Ethernet MAC clock
1446:cmsis/device/stm32f4xx_rcc.c ****   *            @arg RCC_AHB1Periph_ETH_MAC_Tx:  Ethernet Transmission clock
1447:cmsis/device/stm32f4xx_rcc.c ****   *            @arg RCC_AHB1Periph_ETH_MAC_Rx:  Ethernet Reception clock
1448:cmsis/device/stm32f4xx_rcc.c ****   *            @arg RCC_AHB1Periph_ETH_MAC_PTP: Ethernet PTP clock
1449:cmsis/device/stm32f4xx_rcc.c ****   *            @arg RCC_AHB1Periph_OTG_HS:      USB OTG HS clock
1450:cmsis/device/stm32f4xx_rcc.c ****   *            @arg RCC_AHB1Periph_OTG_HS_ULPI: USB OTG HS ULPI clock
1451:cmsis/device/stm32f4xx_rcc.c ****   * @param  NewState: new state of the specified peripheral clock.
1452:cmsis/device/stm32f4xx_rcc.c ****   *          This parameter can be: ENABLE or DISABLE.
1453:cmsis/device/stm32f4xx_rcc.c ****   * @retval None
1454:cmsis/device/stm32f4xx_rcc.c ****   */
1455:cmsis/device/stm32f4xx_rcc.c **** void RCC_AHB1PeriphClockLPModeCmd(uint32_t RCC_AHB1Periph, FunctionalState NewState)
1456:cmsis/device/stm32f4xx_rcc.c **** {
1457:cmsis/device/stm32f4xx_rcc.c ****   /* Check the parameters */
1458:cmsis/device/stm32f4xx_rcc.c ****   assert_param(IS_RCC_AHB1_LPMODE_PERIPH(RCC_AHB1Periph));
1459:cmsis/device/stm32f4xx_rcc.c ****   assert_param(IS_FUNCTIONAL_STATE(NewState));
1460:cmsis/device/stm32f4xx_rcc.c ****   if (NewState != DISABLE)
1461:cmsis/device/stm32f4xx_rcc.c ****   {
1462:cmsis/device/stm32f4xx_rcc.c ****     RCC->AHB1LPENR |= RCC_AHB1Periph;
1463:cmsis/device/stm32f4xx_rcc.c ****   }
1464:cmsis/device/stm32f4xx_rcc.c ****   else
1465:cmsis/device/stm32f4xx_rcc.c ****   {
1466:cmsis/device/stm32f4xx_rcc.c ****     RCC->AHB1LPENR &= ~RCC_AHB1Periph;
1467:cmsis/device/stm32f4xx_rcc.c ****   }
1468:cmsis/device/stm32f4xx_rcc.c **** }
1469:cmsis/device/stm32f4xx_rcc.c **** 
1470:cmsis/device/stm32f4xx_rcc.c **** /**
1471:cmsis/device/stm32f4xx_rcc.c ****   * @brief  Enables or disables the AHB2 peripheral clock during Low Power (Sleep) mode.
1472:cmsis/device/stm32f4xx_rcc.c ****   * @note   Peripheral clock gating in SLEEP mode can be used to further reduce
1473:cmsis/device/stm32f4xx_rcc.c ****   *           power consumption.
1474:cmsis/device/stm32f4xx_rcc.c ****   * @note   After wakeup from SLEEP mode, the peripheral clock is enabled again.
1475:cmsis/device/stm32f4xx_rcc.c ****   * @note   By default, all peripheral clocks are enabled during SLEEP mode.
1476:cmsis/device/stm32f4xx_rcc.c ****   * @param  RCC_AHBPeriph: specifies the AHB2 peripheral to gates its clock.
1477:cmsis/device/stm32f4xx_rcc.c ****   *          This parameter can be any combination of the following values:
1478:cmsis/device/stm32f4xx_rcc.c ****   *            @arg RCC_AHB2Periph_DCMI:   DCMI clock
1479:cmsis/device/stm32f4xx_rcc.c ****   *            @arg RCC_AHB2Periph_CRYP:   CRYP clock
1480:cmsis/device/stm32f4xx_rcc.c ****   *            @arg RCC_AHB2Periph_HASH:   HASH clock
1481:cmsis/device/stm32f4xx_rcc.c ****   *            @arg RCC_AHB2Periph_RNG:    RNG clock
1482:cmsis/device/stm32f4xx_rcc.c ****   *            @arg RCC_AHB2Periph_OTG_FS: USB OTG FS clock  
1483:cmsis/device/stm32f4xx_rcc.c ****   * @param  NewState: new state of the specified peripheral clock.
1484:cmsis/device/stm32f4xx_rcc.c ****   *          This parameter can be: ENABLE or DISABLE.
1485:cmsis/device/stm32f4xx_rcc.c ****   * @retval None
1486:cmsis/device/stm32f4xx_rcc.c ****   */
1487:cmsis/device/stm32f4xx_rcc.c **** void RCC_AHB2PeriphClockLPModeCmd(uint32_t RCC_AHB2Periph, FunctionalState NewState)
1488:cmsis/device/stm32f4xx_rcc.c **** {
1489:cmsis/device/stm32f4xx_rcc.c ****   /* Check the parameters */
1490:cmsis/device/stm32f4xx_rcc.c ****   assert_param(IS_RCC_AHB2_PERIPH(RCC_AHB2Periph));
ARM GAS  C:\Users\CNous\AppData\Local\Temp\ccJl4JfT.s 			page 30


1491:cmsis/device/stm32f4xx_rcc.c ****   assert_param(IS_FUNCTIONAL_STATE(NewState));
1492:cmsis/device/stm32f4xx_rcc.c ****   if (NewState != DISABLE)
1493:cmsis/device/stm32f4xx_rcc.c ****   {
1494:cmsis/device/stm32f4xx_rcc.c ****     RCC->AHB2LPENR |= RCC_AHB2Periph;
1495:cmsis/device/stm32f4xx_rcc.c ****   }
1496:cmsis/device/stm32f4xx_rcc.c ****   else
1497:cmsis/device/stm32f4xx_rcc.c ****   {
1498:cmsis/device/stm32f4xx_rcc.c ****     RCC->AHB2LPENR &= ~RCC_AHB2Periph;
1499:cmsis/device/stm32f4xx_rcc.c ****   }
1500:cmsis/device/stm32f4xx_rcc.c **** }
1501:cmsis/device/stm32f4xx_rcc.c **** 
1502:cmsis/device/stm32f4xx_rcc.c **** /**
1503:cmsis/device/stm32f4xx_rcc.c ****   * @brief  Enables or disables the AHB3 peripheral clock during Low Power (Sleep) mode.
1504:cmsis/device/stm32f4xx_rcc.c ****   * @note   Peripheral clock gating in SLEEP mode can be used to further reduce
1505:cmsis/device/stm32f4xx_rcc.c ****   *         power consumption.
1506:cmsis/device/stm32f4xx_rcc.c ****   * @note   After wakeup from SLEEP mode, the peripheral clock is enabled again.
1507:cmsis/device/stm32f4xx_rcc.c ****   * @note   By default, all peripheral clocks are enabled during SLEEP mode.
1508:cmsis/device/stm32f4xx_rcc.c ****   * @param  RCC_AHBPeriph: specifies the AHB3 peripheral to gates its clock.
1509:cmsis/device/stm32f4xx_rcc.c ****   *          This parameter must be: RCC_AHB3Periph_FSMC
1510:cmsis/device/stm32f4xx_rcc.c ****   * @param  NewState: new state of the specified peripheral clock.
1511:cmsis/device/stm32f4xx_rcc.c ****   *          This parameter can be: ENABLE or DISABLE.
1512:cmsis/device/stm32f4xx_rcc.c ****   * @retval None
1513:cmsis/device/stm32f4xx_rcc.c ****   */
1514:cmsis/device/stm32f4xx_rcc.c **** void RCC_AHB3PeriphClockLPModeCmd(uint32_t RCC_AHB3Periph, FunctionalState NewState)
1515:cmsis/device/stm32f4xx_rcc.c **** {
1516:cmsis/device/stm32f4xx_rcc.c ****   /* Check the parameters */
1517:cmsis/device/stm32f4xx_rcc.c ****   assert_param(IS_RCC_AHB3_PERIPH(RCC_AHB3Periph));
1518:cmsis/device/stm32f4xx_rcc.c ****   assert_param(IS_FUNCTIONAL_STATE(NewState));
1519:cmsis/device/stm32f4xx_rcc.c ****   if (NewState != DISABLE)
1520:cmsis/device/stm32f4xx_rcc.c ****   {
1521:cmsis/device/stm32f4xx_rcc.c ****     RCC->AHB3LPENR |= RCC_AHB3Periph;
1522:cmsis/device/stm32f4xx_rcc.c ****   }
1523:cmsis/device/stm32f4xx_rcc.c ****   else
1524:cmsis/device/stm32f4xx_rcc.c ****   {
1525:cmsis/device/stm32f4xx_rcc.c ****     RCC->AHB3LPENR &= ~RCC_AHB3Periph;
1526:cmsis/device/stm32f4xx_rcc.c ****   }
1527:cmsis/device/stm32f4xx_rcc.c **** }
1528:cmsis/device/stm32f4xx_rcc.c **** 
1529:cmsis/device/stm32f4xx_rcc.c **** /**
1530:cmsis/device/stm32f4xx_rcc.c ****   * @brief  Enables or disables the APB1 peripheral clock during Low Power (Sleep) mode.
1531:cmsis/device/stm32f4xx_rcc.c ****   * @note   Peripheral clock gating in SLEEP mode can be used to further reduce
1532:cmsis/device/stm32f4xx_rcc.c ****   *         power consumption.
1533:cmsis/device/stm32f4xx_rcc.c ****   * @note   After wakeup from SLEEP mode, the peripheral clock is enabled again.
1534:cmsis/device/stm32f4xx_rcc.c ****   * @note   By default, all peripheral clocks are enabled during SLEEP mode.
1535:cmsis/device/stm32f4xx_rcc.c ****   * @param  RCC_APB1Periph: specifies the APB1 peripheral to gates its clock.
1536:cmsis/device/stm32f4xx_rcc.c ****   *          This parameter can be any combination of the following values:
1537:cmsis/device/stm32f4xx_rcc.c ****   *            @arg RCC_APB1Periph_TIM2:   TIM2 clock
1538:cmsis/device/stm32f4xx_rcc.c ****   *            @arg RCC_APB1Periph_TIM3:   TIM3 clock
1539:cmsis/device/stm32f4xx_rcc.c ****   *            @arg RCC_APB1Periph_TIM4:   TIM4 clock
1540:cmsis/device/stm32f4xx_rcc.c ****   *            @arg RCC_APB1Periph_TIM5:   TIM5 clock
1541:cmsis/device/stm32f4xx_rcc.c ****   *            @arg RCC_APB1Periph_TIM6:   TIM6 clock
1542:cmsis/device/stm32f4xx_rcc.c ****   *            @arg RCC_APB1Periph_TIM7:   TIM7 clock
1543:cmsis/device/stm32f4xx_rcc.c ****   *            @arg RCC_APB1Periph_TIM12:  TIM12 clock
1544:cmsis/device/stm32f4xx_rcc.c ****   *            @arg RCC_APB1Periph_TIM13:  TIM13 clock
1545:cmsis/device/stm32f4xx_rcc.c ****   *            @arg RCC_APB1Periph_TIM14:  TIM14 clock
1546:cmsis/device/stm32f4xx_rcc.c ****   *            @arg RCC_APB1Periph_WWDG:   WWDG clock
1547:cmsis/device/stm32f4xx_rcc.c ****   *            @arg RCC_APB1Periph_SPI2:   SPI2 clock
ARM GAS  C:\Users\CNous\AppData\Local\Temp\ccJl4JfT.s 			page 31


1548:cmsis/device/stm32f4xx_rcc.c ****   *            @arg RCC_APB1Periph_SPI3:   SPI3 clock
1549:cmsis/device/stm32f4xx_rcc.c ****   *            @arg RCC_APB1Periph_USART2: USART2 clock
1550:cmsis/device/stm32f4xx_rcc.c ****   *            @arg RCC_APB1Periph_USART3: USART3 clock
1551:cmsis/device/stm32f4xx_rcc.c ****   *            @arg RCC_APB1Periph_UART4:  UART4 clock
1552:cmsis/device/stm32f4xx_rcc.c ****   *            @arg RCC_APB1Periph_UART5:  UART5 clock
1553:cmsis/device/stm32f4xx_rcc.c ****   *            @arg RCC_APB1Periph_I2C1:   I2C1 clock
1554:cmsis/device/stm32f4xx_rcc.c ****   *            @arg RCC_APB1Periph_I2C2:   I2C2 clock
1555:cmsis/device/stm32f4xx_rcc.c ****   *            @arg RCC_APB1Periph_I2C3:   I2C3 clock
1556:cmsis/device/stm32f4xx_rcc.c ****   *            @arg RCC_APB1Periph_CAN1:   CAN1 clock
1557:cmsis/device/stm32f4xx_rcc.c ****   *            @arg RCC_APB1Periph_CAN2:   CAN2 clock
1558:cmsis/device/stm32f4xx_rcc.c ****   *            @arg RCC_APB1Periph_PWR:    PWR clock
1559:cmsis/device/stm32f4xx_rcc.c ****   *            @arg RCC_APB1Periph_DAC:    DAC clock
1560:cmsis/device/stm32f4xx_rcc.c ****   * @param  NewState: new state of the specified peripheral clock.
1561:cmsis/device/stm32f4xx_rcc.c ****   *          This parameter can be: ENABLE or DISABLE.
1562:cmsis/device/stm32f4xx_rcc.c ****   * @retval None
1563:cmsis/device/stm32f4xx_rcc.c ****   */
1564:cmsis/device/stm32f4xx_rcc.c **** void RCC_APB1PeriphClockLPModeCmd(uint32_t RCC_APB1Periph, FunctionalState NewState)
1565:cmsis/device/stm32f4xx_rcc.c **** {
1566:cmsis/device/stm32f4xx_rcc.c ****   /* Check the parameters */
1567:cmsis/device/stm32f4xx_rcc.c ****   assert_param(IS_RCC_APB1_PERIPH(RCC_APB1Periph));
1568:cmsis/device/stm32f4xx_rcc.c ****   assert_param(IS_FUNCTIONAL_STATE(NewState));
1569:cmsis/device/stm32f4xx_rcc.c ****   if (NewState != DISABLE)
1570:cmsis/device/stm32f4xx_rcc.c ****   {
1571:cmsis/device/stm32f4xx_rcc.c ****     RCC->APB1LPENR |= RCC_APB1Periph;
1572:cmsis/device/stm32f4xx_rcc.c ****   }
1573:cmsis/device/stm32f4xx_rcc.c ****   else
1574:cmsis/device/stm32f4xx_rcc.c ****   {
1575:cmsis/device/stm32f4xx_rcc.c ****     RCC->APB1LPENR &= ~RCC_APB1Periph;
1576:cmsis/device/stm32f4xx_rcc.c ****   }
1577:cmsis/device/stm32f4xx_rcc.c **** }
1578:cmsis/device/stm32f4xx_rcc.c **** 
1579:cmsis/device/stm32f4xx_rcc.c **** /**
1580:cmsis/device/stm32f4xx_rcc.c ****   * @brief  Enables or disables the APB2 peripheral clock during Low Power (Sleep) mode.
1581:cmsis/device/stm32f4xx_rcc.c ****   * @note   Peripheral clock gating in SLEEP mode can be used to further reduce
1582:cmsis/device/stm32f4xx_rcc.c ****   *         power consumption.
1583:cmsis/device/stm32f4xx_rcc.c ****   * @note   After wakeup from SLEEP mode, the peripheral clock is enabled again.
1584:cmsis/device/stm32f4xx_rcc.c ****   * @note   By default, all peripheral clocks are enabled during SLEEP mode.
1585:cmsis/device/stm32f4xx_rcc.c ****   * @param  RCC_APB2Periph: specifies the APB2 peripheral to gates its clock.
1586:cmsis/device/stm32f4xx_rcc.c ****   *          This parameter can be any combination of the following values:
1587:cmsis/device/stm32f4xx_rcc.c ****   *            @arg RCC_APB2Periph_TIM1:   TIM1 clock
1588:cmsis/device/stm32f4xx_rcc.c ****   *            @arg RCC_APB2Periph_TIM8:   TIM8 clock
1589:cmsis/device/stm32f4xx_rcc.c ****   *            @arg RCC_APB2Periph_USART1: USART1 clock
1590:cmsis/device/stm32f4xx_rcc.c ****   *            @arg RCC_APB2Periph_USART6: USART6 clock
1591:cmsis/device/stm32f4xx_rcc.c ****   *            @arg RCC_APB2Periph_ADC1:   ADC1 clock
1592:cmsis/device/stm32f4xx_rcc.c ****   *            @arg RCC_APB2Periph_ADC2:   ADC2 clock
1593:cmsis/device/stm32f4xx_rcc.c ****   *            @arg RCC_APB2Periph_ADC3:   ADC3 clock
1594:cmsis/device/stm32f4xx_rcc.c ****   *            @arg RCC_APB2Periph_SDIO:   SDIO clock
1595:cmsis/device/stm32f4xx_rcc.c ****   *            @arg RCC_APB2Periph_SPI1:   SPI1 clock
1596:cmsis/device/stm32f4xx_rcc.c ****   *            @arg RCC_APB2Periph_SYSCFG: SYSCFG clock
1597:cmsis/device/stm32f4xx_rcc.c ****   *            @arg RCC_APB2Periph_TIM9:   TIM9 clock
1598:cmsis/device/stm32f4xx_rcc.c ****   *            @arg RCC_APB2Periph_TIM10:  TIM10 clock
1599:cmsis/device/stm32f4xx_rcc.c ****   *            @arg RCC_APB2Periph_TIM11:  TIM11 clock
1600:cmsis/device/stm32f4xx_rcc.c ****   * @param  NewState: new state of the specified peripheral clock.
1601:cmsis/device/stm32f4xx_rcc.c ****   *          This parameter can be: ENABLE or DISABLE.
1602:cmsis/device/stm32f4xx_rcc.c ****   * @retval None
1603:cmsis/device/stm32f4xx_rcc.c ****   */
1604:cmsis/device/stm32f4xx_rcc.c **** void RCC_APB2PeriphClockLPModeCmd(uint32_t RCC_APB2Periph, FunctionalState NewState)
ARM GAS  C:\Users\CNous\AppData\Local\Temp\ccJl4JfT.s 			page 32


1605:cmsis/device/stm32f4xx_rcc.c **** {
1606:cmsis/device/stm32f4xx_rcc.c ****   /* Check the parameters */
1607:cmsis/device/stm32f4xx_rcc.c ****   assert_param(IS_RCC_APB2_PERIPH(RCC_APB2Periph));
1608:cmsis/device/stm32f4xx_rcc.c ****   assert_param(IS_FUNCTIONAL_STATE(NewState));
1609:cmsis/device/stm32f4xx_rcc.c ****   if (NewState != DISABLE)
1610:cmsis/device/stm32f4xx_rcc.c ****   {
1611:cmsis/device/stm32f4xx_rcc.c ****     RCC->APB2LPENR |= RCC_APB2Periph;
1612:cmsis/device/stm32f4xx_rcc.c ****   }
1613:cmsis/device/stm32f4xx_rcc.c ****   else
1614:cmsis/device/stm32f4xx_rcc.c ****   {
1615:cmsis/device/stm32f4xx_rcc.c ****     RCC->APB2LPENR &= ~RCC_APB2Periph;
1616:cmsis/device/stm32f4xx_rcc.c ****   }
1617:cmsis/device/stm32f4xx_rcc.c **** }
1618:cmsis/device/stm32f4xx_rcc.c **** 
1619:cmsis/device/stm32f4xx_rcc.c **** /**
1620:cmsis/device/stm32f4xx_rcc.c ****   * @}
1621:cmsis/device/stm32f4xx_rcc.c ****   */
1622:cmsis/device/stm32f4xx_rcc.c **** 
1623:cmsis/device/stm32f4xx_rcc.c **** /** @defgroup RCC_Group4 Interrupts and flags management functions
1624:cmsis/device/stm32f4xx_rcc.c ****  *  @brief   Interrupts and flags management functions 
1625:cmsis/device/stm32f4xx_rcc.c ****  *
1626:cmsis/device/stm32f4xx_rcc.c **** @verbatim   
1627:cmsis/device/stm32f4xx_rcc.c ****  ===============================================================================
1628:cmsis/device/stm32f4xx_rcc.c ****                    Interrupts and flags management functions
1629:cmsis/device/stm32f4xx_rcc.c ****  ===============================================================================  
1630:cmsis/device/stm32f4xx_rcc.c **** 
1631:cmsis/device/stm32f4xx_rcc.c **** @endverbatim
1632:cmsis/device/stm32f4xx_rcc.c ****   * @{
1633:cmsis/device/stm32f4xx_rcc.c ****   */
1634:cmsis/device/stm32f4xx_rcc.c **** 
1635:cmsis/device/stm32f4xx_rcc.c **** /**
1636:cmsis/device/stm32f4xx_rcc.c ****   * @brief  Enables or disables the specified RCC interrupts.
1637:cmsis/device/stm32f4xx_rcc.c ****   * @param  RCC_IT: specifies the RCC interrupt sources to be enabled or disabled.
1638:cmsis/device/stm32f4xx_rcc.c ****   *          This parameter can be any combination of the following values:
1639:cmsis/device/stm32f4xx_rcc.c ****   *            @arg RCC_IT_LSIRDY: LSI ready interrupt
1640:cmsis/device/stm32f4xx_rcc.c ****   *            @arg RCC_IT_LSERDY: LSE ready interrupt
1641:cmsis/device/stm32f4xx_rcc.c ****   *            @arg RCC_IT_HSIRDY: HSI ready interrupt
1642:cmsis/device/stm32f4xx_rcc.c ****   *            @arg RCC_IT_HSERDY: HSE ready interrupt
1643:cmsis/device/stm32f4xx_rcc.c ****   *            @arg RCC_IT_PLLRDY: main PLL ready interrupt
1644:cmsis/device/stm32f4xx_rcc.c ****   *            @arg RCC_IT_PLLI2SRDY: PLLI2S ready interrupt  
1645:cmsis/device/stm32f4xx_rcc.c ****   * @param  NewState: new state of the specified RCC interrupts.
1646:cmsis/device/stm32f4xx_rcc.c ****   *          This parameter can be: ENABLE or DISABLE.
1647:cmsis/device/stm32f4xx_rcc.c ****   * @retval None
1648:cmsis/device/stm32f4xx_rcc.c ****   */
1649:cmsis/device/stm32f4xx_rcc.c **** void RCC_ITConfig(uint8_t RCC_IT, FunctionalState NewState)
1650:cmsis/device/stm32f4xx_rcc.c **** {
1651:cmsis/device/stm32f4xx_rcc.c ****   /* Check the parameters */
1652:cmsis/device/stm32f4xx_rcc.c ****   assert_param(IS_RCC_IT(RCC_IT));
1653:cmsis/device/stm32f4xx_rcc.c ****   assert_param(IS_FUNCTIONAL_STATE(NewState));
1654:cmsis/device/stm32f4xx_rcc.c ****   if (NewState != DISABLE)
1655:cmsis/device/stm32f4xx_rcc.c ****   {
1656:cmsis/device/stm32f4xx_rcc.c ****     /* Perform Byte access to RCC_CIR[14:8] bits to enable the selected interrupts */
1657:cmsis/device/stm32f4xx_rcc.c ****     *(__IO uint8_t *) CIR_BYTE2_ADDRESS |= RCC_IT;
1658:cmsis/device/stm32f4xx_rcc.c ****   }
1659:cmsis/device/stm32f4xx_rcc.c ****   else
1660:cmsis/device/stm32f4xx_rcc.c ****   {
1661:cmsis/device/stm32f4xx_rcc.c ****     /* Perform Byte access to RCC_CIR[14:8] bits to disable the selected interrupts */
ARM GAS  C:\Users\CNous\AppData\Local\Temp\ccJl4JfT.s 			page 33


1662:cmsis/device/stm32f4xx_rcc.c ****     *(__IO uint8_t *) CIR_BYTE2_ADDRESS &= (uint8_t)~RCC_IT;
1663:cmsis/device/stm32f4xx_rcc.c ****   }
1664:cmsis/device/stm32f4xx_rcc.c **** }
1665:cmsis/device/stm32f4xx_rcc.c **** 
1666:cmsis/device/stm32f4xx_rcc.c **** /**
1667:cmsis/device/stm32f4xx_rcc.c ****   * @brief  Checks whether the specified RCC flag is set or not.
1668:cmsis/device/stm32f4xx_rcc.c ****   * @param  RCC_FLAG: specifies the flag to check.
1669:cmsis/device/stm32f4xx_rcc.c ****   *          This parameter can be one of the following values:
1670:cmsis/device/stm32f4xx_rcc.c ****   *            @arg RCC_FLAG_HSIRDY: HSI oscillator clock ready
1671:cmsis/device/stm32f4xx_rcc.c ****   *            @arg RCC_FLAG_HSERDY: HSE oscillator clock ready
1672:cmsis/device/stm32f4xx_rcc.c ****   *            @arg RCC_FLAG_PLLRDY: main PLL clock ready
1673:cmsis/device/stm32f4xx_rcc.c ****   *            @arg RCC_FLAG_PLLI2SRDY: PLLI2S clock ready
1674:cmsis/device/stm32f4xx_rcc.c ****   *            @arg RCC_FLAG_LSERDY: LSE oscillator clock ready
1675:cmsis/device/stm32f4xx_rcc.c ****   *            @arg RCC_FLAG_LSIRDY: LSI oscillator clock ready
1676:cmsis/device/stm32f4xx_rcc.c ****   *            @arg RCC_FLAG_BORRST: POR/PDR or BOR reset
1677:cmsis/device/stm32f4xx_rcc.c ****   *            @arg RCC_FLAG_PINRST: Pin reset
1678:cmsis/device/stm32f4xx_rcc.c ****   *            @arg RCC_FLAG_PORRST: POR/PDR reset
1679:cmsis/device/stm32f4xx_rcc.c ****   *            @arg RCC_FLAG_SFTRST: Software reset
1680:cmsis/device/stm32f4xx_rcc.c ****   *            @arg RCC_FLAG_IWDGRST: Independent Watchdog reset
1681:cmsis/device/stm32f4xx_rcc.c ****   *            @arg RCC_FLAG_WWDGRST: Window Watchdog reset
1682:cmsis/device/stm32f4xx_rcc.c ****   *            @arg RCC_FLAG_LPWRRST: Low Power reset
1683:cmsis/device/stm32f4xx_rcc.c ****   * @retval The new state of RCC_FLAG (SET or RESET).
1684:cmsis/device/stm32f4xx_rcc.c ****   */
1685:cmsis/device/stm32f4xx_rcc.c **** FlagStatus RCC_GetFlagStatus(uint8_t RCC_FLAG)
1686:cmsis/device/stm32f4xx_rcc.c **** {
1687:cmsis/device/stm32f4xx_rcc.c ****   uint32_t tmp = 0;
1688:cmsis/device/stm32f4xx_rcc.c ****   uint32_t statusreg = 0;
1689:cmsis/device/stm32f4xx_rcc.c ****   FlagStatus bitstatus = RESET;
1690:cmsis/device/stm32f4xx_rcc.c **** 
1691:cmsis/device/stm32f4xx_rcc.c ****   /* Check the parameters */
1692:cmsis/device/stm32f4xx_rcc.c ****   assert_param(IS_RCC_FLAG(RCC_FLAG));
1693:cmsis/device/stm32f4xx_rcc.c **** 
1694:cmsis/device/stm32f4xx_rcc.c ****   /* Get the RCC register index */
1695:cmsis/device/stm32f4xx_rcc.c ****   tmp = RCC_FLAG >> 5;
1696:cmsis/device/stm32f4xx_rcc.c ****   if (tmp == 1)               /* The flag to check is in CR register */
1697:cmsis/device/stm32f4xx_rcc.c ****   {
1698:cmsis/device/stm32f4xx_rcc.c ****     statusreg = RCC->CR;
 161              		.loc 1 1698 0
 162 0002 4FF46052 		mov	r2, #14336	@ tmp156,
 163              	.LBE7:
 164              	.LBE6:
 263:cmsis/device/stm32f4xx_rcc.c ****   __IO uint32_t startupcounter = 0;
 165              		.loc 1 263 0
 166 0006 0023     		movs	r3, #0	@ tmp148,
 167 0008 0193     		str	r3, [sp, #4]	@ tmp148, startupcounter
 168              	.LVL1:
 169              	.LBB9:
 170              	.LBB8:
 171              		.loc 1 1698 0
 172 000a C4F20202 		movt	r2, 16386	@ tmp156,
 173              	.LVL2:
 174              	.L7:
 175              		.loc 1 1698 0 is_stmt 0 discriminator 1
 176 000e 1068     		ldr	r0, [r2, #0]	@ statusreg, MEM[(struct RCC_TypeDef *)1073887232B].CR
 177              	.LVL3:
1699:cmsis/device/stm32f4xx_rcc.c ****   }
1700:cmsis/device/stm32f4xx_rcc.c ****   else if (tmp == 2)          /* The flag to check is in BDCR register */
ARM GAS  C:\Users\CNous\AppData\Local\Temp\ccJl4JfT.s 			page 34


1701:cmsis/device/stm32f4xx_rcc.c ****   {
1702:cmsis/device/stm32f4xx_rcc.c ****     statusreg = RCC->BDCR;
1703:cmsis/device/stm32f4xx_rcc.c ****   }
1704:cmsis/device/stm32f4xx_rcc.c ****   else                       /* The flag to check is in CSR register */
1705:cmsis/device/stm32f4xx_rcc.c ****   {
1706:cmsis/device/stm32f4xx_rcc.c ****     statusreg = RCC->CSR;
1707:cmsis/device/stm32f4xx_rcc.c ****   }
1708:cmsis/device/stm32f4xx_rcc.c **** 
1709:cmsis/device/stm32f4xx_rcc.c ****   /* Get the flag position */
1710:cmsis/device/stm32f4xx_rcc.c ****   tmp = RCC_FLAG & FLAG_MASK;
1711:cmsis/device/stm32f4xx_rcc.c ****   if ((statusreg & ((uint32_t)1 << tmp)) != (uint32_t)RESET)
 178              		.loc 1 1711 0 is_stmt 1 discriminator 1
 179 0010 8303     		lsls	r3, r0, #14	@, statusreg,
 180 0012 0CD5     		bpl	.L12	@,
 181              	.LVL4:
 182              	.LBE8:
 183              	.LBE9:
 270:cmsis/device/stm32f4xx_rcc.c ****     startupcounter++;
 184              		.loc 1 270 0
 185 0014 019A     		ldr	r2, [sp, #4]	@ startupcounter.2, startupcounter
 186 0016 511C     		adds	r1, r2, #1	@ startupcounter.3, startupcounter.2,
 187 0018 0191     		str	r1, [sp, #4]	@ startupcounter.3, startupcounter
 271:cmsis/device/stm32f4xx_rcc.c ****   } while((startupcounter != HSE_STARTUP_TIMEOUT) && (hsestatus == RESET));
 188              		.loc 1 271 0
 189 001a 019B     		ldr	r3, [sp, #4]	@ startupcounter.4, startupcounter
 190              	.LVL5:
 191              	.L6:
 192              	.LBB10:
 193              	.LBB11:
1698:cmsis/device/stm32f4xx_rcc.c ****     statusreg = RCC->CR;
 194              		.loc 1 1698 0
 195 001c 4FF46053 		mov	r3, #14336	@ tmp151,
 196 0020 C4F20203 		movt	r3, 16386	@ tmp151,
 197 0024 1868     		ldr	r0, [r3, #0]	@ statusreg, MEM[(struct RCC_TypeDef *)1073887232B].CR
 198              	.LVL6:
 199              	.LBE11:
 200              	.LBE10:
 281:cmsis/device/stm32f4xx_rcc.c ****   return (status);
 201              		.loc 1 281 0
 202 0026 C0F34040 		ubfx	r0, r0, #17, #1	@ tmp155, statusreg,,
 203              	.LVL7:
 282:cmsis/device/stm32f4xx_rcc.c **** }
 204              		.loc 1 282 0
 205 002a 02B0     		add	sp, sp, #8	@,,
 206 002c 7047     		bx	lr
 207              	.LVL8:
 208              	.L12:
 270:cmsis/device/stm32f4xx_rcc.c ****     startupcounter++;
 209              		.loc 1 270 0
 210 002e 0199     		ldr	r1, [sp, #4]	@ startupcounter.2, startupcounter
 211 0030 4B1C     		adds	r3, r1, #1	@ startupcounter.3, startupcounter.2,
 212 0032 0193     		str	r3, [sp, #4]	@ startupcounter.3, startupcounter
 271:cmsis/device/stm32f4xx_rcc.c ****   } while((startupcounter != HSE_STARTUP_TIMEOUT) && (hsestatus == RESET));
 213              		.loc 1 271 0
 214 0034 0198     		ldr	r0, [sp, #4]	@ startupcounter.4, startupcounter
 215              	.LVL9:
 216 0036 B0F5A06F 		cmp	r0, #1280	@ startupcounter.4,
ARM GAS  C:\Users\CNous\AppData\Local\Temp\ccJl4JfT.s 			page 35


 217 003a E8D1     		bne	.L7	@,
 218 003c EEE7     		b	.L6	@
 219              		.cfi_endproc
 220              	.LFE112:
 221              		.size	RCC_WaitForHSEStartUp, .-RCC_WaitForHSEStartUp
 222 003e 00BF     		.section	.text.RCC_AdjustHSICalibrationValue,"ax",%progbits
 223              		.align	2
 224              		.global	RCC_AdjustHSICalibrationValue
 225              		.thumb
 226              		.thumb_func
 227              		.type	RCC_AdjustHSICalibrationValue, %function
 228              	RCC_AdjustHSICalibrationValue:
 229              	.LFB113:
 293:cmsis/device/stm32f4xx_rcc.c **** {
 230              		.loc 1 293 0
 231              		.cfi_startproc
 232              		@ args = 0, pretend = 0, frame = 0
 233              		@ frame_needed = 0, uses_anonymous_args = 0
 234              		@ link register save eliminated.
 235              	.LVL10:
 298:cmsis/device/stm32f4xx_rcc.c ****   tmpreg = RCC->CR;
 236              		.loc 1 298 0
 237 0000 4FF46053 		mov	r3, #14336	@ tmp140,
 238 0004 C4F20203 		movt	r3, 16386	@ tmp140,
 239 0008 1A68     		ldr	r2, [r3, #0]	@ tmpreg, MEM[(struct RCC_TypeDef *)1073887232B].CR
 240              	.LVL11:
 301:cmsis/device/stm32f4xx_rcc.c ****   tmpreg &= ~RCC_CR_HSITRIM;
 241              		.loc 1 301 0
 242 000a 22F0F801 		bic	r1, r2, #248	@ tmpreg, tmpreg,
 243              	.LVL12:
 304:cmsis/device/stm32f4xx_rcc.c ****   tmpreg |= (uint32_t)HSICalibrationValue << 3;
 244              		.loc 1 304 0
 245 000e 41EAC000 		orr	r0, r1, r0, lsl #3	@, tmpreg, tmpreg, HSICalibrationValue,
 246              	.LVL13:
 307:cmsis/device/stm32f4xx_rcc.c ****   RCC->CR = tmpreg;
 247              		.loc 1 307 0
 248 0012 1860     		str	r0, [r3, #0]	@ tmpreg, MEM[(struct RCC_TypeDef *)1073887232B].CR
 249 0014 7047     		bx	lr	@
 250              		.cfi_endproc
 251              	.LFE113:
 252              		.size	RCC_AdjustHSICalibrationValue, .-RCC_AdjustHSICalibrationValue
 253 0016 00BF     		.section	.text.RCC_HSICmd,"ax",%progbits
 254              		.align	2
 255              		.global	RCC_HSICmd
 256              		.thumb
 257              		.thumb_func
 258              		.type	RCC_HSICmd, %function
 259              	RCC_HSICmd:
 260              	.LFB114:
 329:cmsis/device/stm32f4xx_rcc.c **** {
 261              		.loc 1 329 0
 262              		.cfi_startproc
 263              		@ args = 0, pretend = 0, frame = 0
 264              		@ frame_needed = 0, uses_anonymous_args = 0
 265              		@ link register save eliminated.
 266              	.LVL14:
 333:cmsis/device/stm32f4xx_rcc.c ****   *(__IO uint32_t *) CR_HSION_BB = (uint32_t)NewState;
ARM GAS  C:\Users\CNous\AppData\Local\Temp\ccJl4JfT.s 			page 36


 267              		.loc 1 333 0
 268 0000 0023     		movs	r3, #0	@ tmp136,
 269 0002 C4F24723 		movt	r3, 16967	@ tmp136,
 270 0006 1860     		str	r0, [r3, #0]	@ NewState, MEM[(volatile uint32_t *)1111949312B]
 271 0008 7047     		bx	lr	@
 272              		.cfi_endproc
 273              	.LFE114:
 274              		.size	RCC_HSICmd, .-RCC_HSICmd
 275 000a 00BF     		.section	.text.RCC_LSEConfig,"ax",%progbits
 276              		.align	2
 277              		.global	RCC_LSEConfig
 278              		.thumb
 279              		.thumb_func
 280              		.type	RCC_LSEConfig, %function
 281              	RCC_LSEConfig:
 282              	.LFB115:
 354:cmsis/device/stm32f4xx_rcc.c **** {
 283              		.loc 1 354 0
 284              		.cfi_startproc
 285              		@ args = 0, pretend = 0, frame = 0
 286              		@ frame_needed = 0, uses_anonymous_args = 0
 287              		@ link register save eliminated.
 288              	.LVL15:
 360:cmsis/device/stm32f4xx_rcc.c ****   *(__IO uint8_t *) BDCR_ADDRESS = RCC_LSE_OFF;
 289              		.loc 1 360 0
 290 0000 43F67003 		movw	r3, #14448	@ tmp135,
 291 0004 C4F20203 		movt	r3, 16386	@ tmp135,
 292 0008 0022     		movs	r2, #0	@ tmp136,
 366:cmsis/device/stm32f4xx_rcc.c ****   switch (RCC_LSE)
 293              		.loc 1 366 0
 294 000a 0128     		cmp	r0, #1	@ RCC_LSE,
 360:cmsis/device/stm32f4xx_rcc.c ****   *(__IO uint8_t *) BDCR_ADDRESS = RCC_LSE_OFF;
 295              		.loc 1 360 0
 296 000c 1A70     		strb	r2, [r3, #0]	@ tmp136, MEM[(volatile uint8_t *)1073887344B]
 363:cmsis/device/stm32f4xx_rcc.c ****   *(__IO uint8_t *) BDCR_ADDRESS = RCC_LSE_OFF;
 297              		.loc 1 363 0
 298 000e 1A70     		strb	r2, [r3, #0]	@ tmp136, MEM[(volatile uint8_t *)1073887344B]
 366:cmsis/device/stm32f4xx_rcc.c ****   switch (RCC_LSE)
 299              		.loc 1 366 0
 300 0010 04D0     		beq	.L17	@,
 301 0012 0428     		cmp	r0, #4	@ RCC_LSE,
 302 0014 01D1     		bne	.L15	@,
 374:cmsis/device/stm32f4xx_rcc.c ****       *(__IO uint8_t *) BDCR_ADDRESS = RCC_LSE_Bypass | RCC_LSE_ON;
 303              		.loc 1 374 0
 304 0016 0520     		movs	r0, #5	@ tmp145,
 305              	.LVL16:
 306 0018 1870     		strb	r0, [r3, #0]	@ tmp145, MEM[(volatile uint8_t *)1073887344B]
 307              	.L15:
 308 001a 7047     		bx	lr	@
 309              	.LVL17:
 310              	.L17:
 370:cmsis/device/stm32f4xx_rcc.c ****       *(__IO uint8_t *) BDCR_ADDRESS = RCC_LSE_ON;
 311              		.loc 1 370 0
 312 001c 1870     		strb	r0, [r3, #0]	@ RCC_LSE, MEM[(volatile uint8_t *)1073887344B]
 371:cmsis/device/stm32f4xx_rcc.c ****       break;
 313              		.loc 1 371 0
 314 001e 7047     		bx	lr	@
ARM GAS  C:\Users\CNous\AppData\Local\Temp\ccJl4JfT.s 			page 37


 315              		.cfi_endproc
 316              	.LFE115:
 317              		.size	RCC_LSEConfig, .-RCC_LSEConfig
 318              		.section	.text.RCC_LSICmd,"ax",%progbits
 319              		.align	2
 320              		.global	RCC_LSICmd
 321              		.thumb
 322              		.thumb_func
 323              		.type	RCC_LSICmd, %function
 324              	RCC_LSICmd:
 325              	.LFB116:
 394:cmsis/device/stm32f4xx_rcc.c **** {
 326              		.loc 1 394 0
 327              		.cfi_startproc
 328              		@ args = 0, pretend = 0, frame = 0
 329              		@ frame_needed = 0, uses_anonymous_args = 0
 330              		@ link register save eliminated.
 331              	.LVL18:
 398:cmsis/device/stm32f4xx_rcc.c ****   *(__IO uint32_t *) CSR_LSION_BB = (uint32_t)NewState;
 332              		.loc 1 398 0
 333 0000 4FF46863 		mov	r3, #3712	@ tmp136,
 334 0004 C4F24723 		movt	r3, 16967	@ tmp136,
 335 0008 1860     		str	r0, [r3, #0]	@ NewState, MEM[(volatile uint32_t *)1111953024B]
 336 000a 7047     		bx	lr	@
 337              		.cfi_endproc
 338              	.LFE116:
 339              		.size	RCC_LSICmd, .-RCC_LSICmd
 340              		.section	.text.RCC_PLLConfig,"ax",%progbits
 341              		.align	2
 342              		.global	RCC_PLLConfig
 343              		.thumb
 344              		.thumb_func
 345              		.type	RCC_PLLConfig, %function
 346              	RCC_PLLConfig:
 347              	.LFB117:
 437:cmsis/device/stm32f4xx_rcc.c **** {
 348              		.loc 1 437 0
 349              		.cfi_startproc
 350              		@ args = 4, pretend = 0, frame = 0
 351              		@ frame_needed = 0, uses_anonymous_args = 0
 352              		@ link register save eliminated.
 353              	.LVL19:
 354 0000 30B4     		push	{r4, r5}	@
 355              	.LCFI1:
 356              		.cfi_def_cfa_offset 8
 357              		.cfi_offset 4, -8
 358              		.cfi_offset 5, -4
 445:cmsis/device/stm32f4xx_rcc.c ****   RCC->PLLCFGR = PLLM | (PLLN << 6) | (((PLLP >> 1) -1) << 16) | (RCC_PLLSource) |
 359              		.loc 1 445 0
 360 0002 0143     		orrs	r1, r1, r0	@, tmp148, PLLM, RCC_PLLSource
 361              	.LVL20:
 362 0004 029D     		ldr	r5, [sp, #8]	@ PLLQ, PLLQ
 363 0006 41EA8212 		orr	r2, r1, r2, lsl #6	@, tmp150, tmp148, PLLN,
 364              	.LVL21:
 365 000a 5B08     		lsrs	r3, r3, #1	@ tmp153, PLLP,
 366              	.LVL22:
 367 000c 4FF46054 		mov	r4, #14336	@ tmp157,
ARM GAS  C:\Users\CNous\AppData\Local\Temp\ccJl4JfT.s 			page 38


 368 0010 42EA0565 		orr	r5, r2, r5, lsl #24	@, tmp152, tmp150, PLLQ,
 369 0014 591E     		subs	r1, r3, #1	@ tmp154, tmp153,
 370 0016 C4F20204 		movt	r4, 16386	@ tmp157,
 371 001a 45EA0140 		orr	r0, r5, r1, lsl #16	@, D.6947, tmp152, tmp154,
 372              	.LVL23:
 373 001e 6060     		str	r0, [r4, #4]	@ D.6947, MEM[(struct RCC_TypeDef *)1073887232B].PLLCFGR
 447:cmsis/device/stm32f4xx_rcc.c **** }
 374              		.loc 1 447 0
 375 0020 30BC     		pop	{r4, r5}
 376 0022 7047     		bx	lr
 377              		.cfi_endproc
 378              	.LFE117:
 379              		.size	RCC_PLLConfig, .-RCC_PLLConfig
 380              		.section	.text.RCC_PLLCmd,"ax",%progbits
 381              		.align	2
 382              		.global	RCC_PLLCmd
 383              		.thumb
 384              		.thumb_func
 385              		.type	RCC_PLLCmd, %function
 386              	RCC_PLLCmd:
 387              	.LFB118:
 460:cmsis/device/stm32f4xx_rcc.c **** {
 388              		.loc 1 460 0
 389              		.cfi_startproc
 390              		@ args = 0, pretend = 0, frame = 0
 391              		@ frame_needed = 0, uses_anonymous_args = 0
 392              		@ link register save eliminated.
 393              	.LVL24:
 463:cmsis/device/stm32f4xx_rcc.c ****   *(__IO uint32_t *) CR_PLLON_BB = (uint32_t)NewState;
 394              		.loc 1 463 0
 395 0000 6023     		movs	r3, #96	@ tmp136,
 396 0002 C4F24723 		movt	r3, 16967	@ tmp136,
 397 0006 1860     		str	r0, [r3, #0]	@ NewState, MEM[(volatile uint32_t *)1111949408B]
 398 0008 7047     		bx	lr	@
 399              		.cfi_endproc
 400              	.LFE118:
 401              		.size	RCC_PLLCmd, .-RCC_PLLCmd
 402 000a 00BF     		.section	.text.RCC_PLLI2SConfig,"ax",%progbits
 403              		.align	2
 404              		.global	RCC_PLLI2SConfig
 405              		.thumb
 406              		.thumb_func
 407              		.type	RCC_PLLI2SConfig, %function
 408              	RCC_PLLI2SConfig:
 409              	.LFB119:
 486:cmsis/device/stm32f4xx_rcc.c **** {
 410              		.loc 1 486 0
 411              		.cfi_startproc
 412              		@ args = 0, pretend = 0, frame = 0
 413              		@ frame_needed = 0, uses_anonymous_args = 0
 414              		@ link register save eliminated.
 415              	.LVL25:
 491:cmsis/device/stm32f4xx_rcc.c ****   RCC->PLLI2SCFGR = (PLLI2SN << 6) | (PLLI2SR << 28);
 416              		.loc 1 491 0
 417 0000 4FF46053 		mov	r3, #14336	@ tmp142,
 418 0004 8001     		lsls	r0, r0, #6	@ tmp140, PLLI2SN,
 419              	.LVL26:
ARM GAS  C:\Users\CNous\AppData\Local\Temp\ccJl4JfT.s 			page 39


 420 0006 C4F20203 		movt	r3, 16386	@ tmp142,
 421 000a 40EA0171 		orr	r1, r0, r1, lsl #28	@, D.6935, tmp140, PLLI2SR,
 422              	.LVL27:
 423 000e C3F88410 		str	r1, [r3, #132]	@ D.6935, MEM[(struct RCC_TypeDef *)1073887232B].PLLI2SCFGR
 424 0012 7047     		bx	lr	@
 425              		.cfi_endproc
 426              	.LFE119:
 427              		.size	RCC_PLLI2SConfig, .-RCC_PLLI2SConfig
 428              		.section	.text.RCC_PLLI2SCmd,"ax",%progbits
 429              		.align	2
 430              		.global	RCC_PLLI2SCmd
 431              		.thumb
 432              		.thumb_func
 433              		.type	RCC_PLLI2SCmd, %function
 434              	RCC_PLLI2SCmd:
 435              	.LFB120:
 501:cmsis/device/stm32f4xx_rcc.c **** {
 436              		.loc 1 501 0
 437              		.cfi_startproc
 438              		@ args = 0, pretend = 0, frame = 0
 439              		@ frame_needed = 0, uses_anonymous_args = 0
 440              		@ link register save eliminated.
 441              	.LVL28:
 504:cmsis/device/stm32f4xx_rcc.c ****   *(__IO uint32_t *) CR_PLLI2SON_BB = (uint32_t)NewState;
 442              		.loc 1 504 0
 443 0000 6823     		movs	r3, #104	@ tmp136,
 444 0002 C4F24723 		movt	r3, 16967	@ tmp136,
 445 0006 1860     		str	r0, [r3, #0]	@ NewState, MEM[(volatile uint32_t *)1111949416B]
 446 0008 7047     		bx	lr	@
 447              		.cfi_endproc
 448              	.LFE120:
 449              		.size	RCC_PLLI2SCmd, .-RCC_PLLI2SCmd
 450 000a 00BF     		.section	.text.RCC_ClockSecuritySystemCmd,"ax",%progbits
 451              		.align	2
 452              		.global	RCC_ClockSecuritySystemCmd
 453              		.thumb
 454              		.thumb_func
 455              		.type	RCC_ClockSecuritySystemCmd, %function
 456              	RCC_ClockSecuritySystemCmd:
 457              	.LFB121:
 519:cmsis/device/stm32f4xx_rcc.c **** {
 458              		.loc 1 519 0
 459              		.cfi_startproc
 460              		@ args = 0, pretend = 0, frame = 0
 461              		@ frame_needed = 0, uses_anonymous_args = 0
 462              		@ link register save eliminated.
 463              	.LVL29:
 522:cmsis/device/stm32f4xx_rcc.c ****   *(__IO uint32_t *) CR_CSSON_BB = (uint32_t)NewState;
 464              		.loc 1 522 0
 465 0000 4C23     		movs	r3, #76	@ tmp136,
 466 0002 C4F24723 		movt	r3, 16967	@ tmp136,
 467 0006 1860     		str	r0, [r3, #0]	@ NewState, MEM[(volatile uint32_t *)1111949388B]
 468 0008 7047     		bx	lr	@
 469              		.cfi_endproc
 470              	.LFE121:
 471              		.size	RCC_ClockSecuritySystemCmd, .-RCC_ClockSecuritySystemCmd
 472 000a 00BF     		.section	.text.RCC_MCO1Config,"ax",%progbits
ARM GAS  C:\Users\CNous\AppData\Local\Temp\ccJl4JfT.s 			page 40


 473              		.align	2
 474              		.global	RCC_MCO1Config
 475              		.thumb
 476              		.thumb_func
 477              		.type	RCC_MCO1Config, %function
 478              	RCC_MCO1Config:
 479              	.LFB122:
 544:cmsis/device/stm32f4xx_rcc.c **** {
 480              		.loc 1 544 0
 481              		.cfi_startproc
 482              		@ args = 0, pretend = 0, frame = 0
 483              		@ frame_needed = 0, uses_anonymous_args = 0
 484              		@ link register save eliminated.
 485              	.LVL30:
 551:cmsis/device/stm32f4xx_rcc.c ****   tmpreg = RCC->CFGR;
 486              		.loc 1 551 0
 487 0000 4FF46053 		mov	r3, #14336	@ tmp140,
 488 0004 C4F20203 		movt	r3, 16386	@ tmp140,
 489 0008 9A68     		ldr	r2, [r3, #8]	@ tmpreg, MEM[(struct RCC_TypeDef *)1073887232B].CFGR
 490              	.LVL31:
 554:cmsis/device/stm32f4xx_rcc.c ****   tmpreg &= CFGR_MCO1_RESET_MASK;
 491              		.loc 1 554 0
 492 000a 22F0EC62 		bic	r2, r2, #123731968	@ tmp141, tmpreg,
 493              	.LVL32:
 557:cmsis/device/stm32f4xx_rcc.c ****   tmpreg |= RCC_MCO1Source | RCC_MCO1Div;
 494              		.loc 1 557 0
 495 000e 1043     		orrs	r0, r0, r2	@, D.6927, RCC_MCO1Source, tmp141
 496              	.LVL33:
 497 0010 0143     		orrs	r1, r1, r0	@, tmpreg, RCC_MCO1Div, D.6927
 498              	.LVL34:
 560:cmsis/device/stm32f4xx_rcc.c ****   RCC->CFGR = tmpreg;  
 499              		.loc 1 560 0
 500 0012 9960     		str	r1, [r3, #8]	@ tmpreg, MEM[(struct RCC_TypeDef *)1073887232B].CFGR
 501 0014 7047     		bx	lr	@
 502              		.cfi_endproc
 503              	.LFE122:
 504              		.size	RCC_MCO1Config, .-RCC_MCO1Config
 505 0016 00BF     		.section	.text.RCC_MCO2Config,"ax",%progbits
 506              		.align	2
 507              		.global	RCC_MCO2Config
 508              		.thumb
 509              		.thumb_func
 510              		.type	RCC_MCO2Config, %function
 511              	RCC_MCO2Config:
 512              	.LFB123:
 582:cmsis/device/stm32f4xx_rcc.c **** {
 513              		.loc 1 582 0
 514              		.cfi_startproc
 515              		@ args = 0, pretend = 0, frame = 0
 516              		@ frame_needed = 0, uses_anonymous_args = 0
 517              		@ link register save eliminated.
 518              	.LVL35:
 589:cmsis/device/stm32f4xx_rcc.c ****   tmpreg = RCC->CFGR;
 519              		.loc 1 589 0
 520 0000 4FF46053 		mov	r3, #14336	@ tmp140,
 521 0004 C4F20203 		movt	r3, 16386	@ tmp140,
 522 0008 9A68     		ldr	r2, [r3, #8]	@ tmpreg, MEM[(struct RCC_TypeDef *)1073887232B].CFGR
ARM GAS  C:\Users\CNous\AppData\Local\Temp\ccJl4JfT.s 			page 41


 523              	.LVL36:
 592:cmsis/device/stm32f4xx_rcc.c ****   tmpreg &= CFGR_MCO2_RESET_MASK;
 524              		.loc 1 592 0
 525 000a 22F07842 		bic	r2, r2, #-134217728	@ tmp141, tmpreg,
 526              	.LVL37:
 595:cmsis/device/stm32f4xx_rcc.c ****   tmpreg |= RCC_MCO2Source | RCC_MCO2Div;
 527              		.loc 1 595 0
 528 000e 1043     		orrs	r0, r0, r2	@, D.6925, RCC_MCO2Source, tmp141
 529              	.LVL38:
 530 0010 0143     		orrs	r1, r1, r0	@, tmpreg, RCC_MCO2Div, D.6925
 531              	.LVL39:
 598:cmsis/device/stm32f4xx_rcc.c ****   RCC->CFGR = tmpreg;  
 532              		.loc 1 598 0
 533 0012 9960     		str	r1, [r3, #8]	@ tmpreg, MEM[(struct RCC_TypeDef *)1073887232B].CFGR
 534 0014 7047     		bx	lr	@
 535              		.cfi_endproc
 536              	.LFE123:
 537              		.size	RCC_MCO2Config, .-RCC_MCO2Config
 538 0016 00BF     		.section	.text.RCC_SYSCLKConfig,"ax",%progbits
 539              		.align	2
 540              		.global	RCC_SYSCLKConfig
 541              		.thumb
 542              		.thumb_func
 543              		.type	RCC_SYSCLKConfig, %function
 544              	RCC_SYSCLKConfig:
 545              	.LFB124:
 688:cmsis/device/stm32f4xx_rcc.c **** {
 546              		.loc 1 688 0
 547              		.cfi_startproc
 548              		@ args = 0, pretend = 0, frame = 0
 549              		@ frame_needed = 0, uses_anonymous_args = 0
 550              		@ link register save eliminated.
 551              	.LVL40:
 694:cmsis/device/stm32f4xx_rcc.c ****   tmpreg = RCC->CFGR;
 552              		.loc 1 694 0
 553 0000 4FF46053 		mov	r3, #14336	@ tmp138,
 554 0004 C4F20203 		movt	r3, 16386	@ tmp138,
 555 0008 9A68     		ldr	r2, [r3, #8]	@ tmpreg, MEM[(struct RCC_TypeDef *)1073887232B].CFGR
 556              	.LVL41:
 697:cmsis/device/stm32f4xx_rcc.c ****   tmpreg &= ~RCC_CFGR_SW;
 557              		.loc 1 697 0
 558 000a 22F00301 		bic	r1, r2, #3	@ tmpreg, tmpreg,
 559              	.LVL42:
 700:cmsis/device/stm32f4xx_rcc.c ****   tmpreg |= RCC_SYSCLKSource;
 560              		.loc 1 700 0
 561 000e 0843     		orrs	r0, r0, r1	@, tmpreg, RCC_SYSCLKSource, tmpreg
 562              	.LVL43:
 703:cmsis/device/stm32f4xx_rcc.c ****   RCC->CFGR = tmpreg;
 563              		.loc 1 703 0
 564 0010 9860     		str	r0, [r3, #8]	@ tmpreg, MEM[(struct RCC_TypeDef *)1073887232B].CFGR
 565 0012 7047     		bx	lr	@
 566              		.cfi_endproc
 567              	.LFE124:
 568              		.size	RCC_SYSCLKConfig, .-RCC_SYSCLKConfig
 569              		.section	.text.RCC_GetSYSCLKSource,"ax",%progbits
 570              		.align	2
 571              		.global	RCC_GetSYSCLKSource
ARM GAS  C:\Users\CNous\AppData\Local\Temp\ccJl4JfT.s 			page 42


 572              		.thumb
 573              		.thumb_func
 574              		.type	RCC_GetSYSCLKSource, %function
 575              	RCC_GetSYSCLKSource:
 576              	.LFB125:
 716:cmsis/device/stm32f4xx_rcc.c **** {
 577              		.loc 1 716 0
 578              		.cfi_startproc
 579              		@ args = 0, pretend = 0, frame = 0
 580              		@ frame_needed = 0, uses_anonymous_args = 0
 581              		@ link register save eliminated.
 717:cmsis/device/stm32f4xx_rcc.c ****   return ((uint8_t)(RCC->CFGR & RCC_CFGR_SWS));
 582              		.loc 1 717 0
 583 0000 4FF46053 		mov	r3, #14336	@ tmp138,
 584 0004 C4F20203 		movt	r3, 16386	@ tmp138,
 585 0008 9868     		ldr	r0, [r3, #8]	@ D.6920, MEM[(struct RCC_TypeDef *)1073887232B].CFGR
 718:cmsis/device/stm32f4xx_rcc.c **** }
 586              		.loc 1 718 0
 587 000a 00F00C00 		and	r0, r0, #12	@, D.6920,
 588 000e 7047     		bx	lr	@
 589              		.cfi_endproc
 590              	.LFE125:
 591              		.size	RCC_GetSYSCLKSource, .-RCC_GetSYSCLKSource
 592              		.section	.text.RCC_HCLKConfig,"ax",%progbits
 593              		.align	2
 594              		.global	RCC_HCLKConfig
 595              		.thumb
 596              		.thumb_func
 597              		.type	RCC_HCLKConfig, %function
 598              	RCC_HCLKConfig:
 599              	.LFB126:
 741:cmsis/device/stm32f4xx_rcc.c **** {
 600              		.loc 1 741 0
 601              		.cfi_startproc
 602              		@ args = 0, pretend = 0, frame = 0
 603              		@ frame_needed = 0, uses_anonymous_args = 0
 604              		@ link register save eliminated.
 605              	.LVL44:
 747:cmsis/device/stm32f4xx_rcc.c ****   tmpreg = RCC->CFGR;
 606              		.loc 1 747 0
 607 0000 4FF46053 		mov	r3, #14336	@ tmp138,
 608 0004 C4F20203 		movt	r3, 16386	@ tmp138,
 609 0008 9A68     		ldr	r2, [r3, #8]	@ tmpreg, MEM[(struct RCC_TypeDef *)1073887232B].CFGR
 610              	.LVL45:
 750:cmsis/device/stm32f4xx_rcc.c ****   tmpreg &= ~RCC_CFGR_HPRE;
 611              		.loc 1 750 0
 612 000a 22F0F001 		bic	r1, r2, #240	@ tmpreg, tmpreg,
 613              	.LVL46:
 753:cmsis/device/stm32f4xx_rcc.c ****   tmpreg |= RCC_SYSCLK;
 614              		.loc 1 753 0
 615 000e 0843     		orrs	r0, r0, r1	@, tmpreg, RCC_SYSCLK, tmpreg
 616              	.LVL47:
 756:cmsis/device/stm32f4xx_rcc.c ****   RCC->CFGR = tmpreg;
 617              		.loc 1 756 0
 618 0010 9860     		str	r0, [r3, #8]	@ tmpreg, MEM[(struct RCC_TypeDef *)1073887232B].CFGR
 619 0012 7047     		bx	lr	@
 620              		.cfi_endproc
ARM GAS  C:\Users\CNous\AppData\Local\Temp\ccJl4JfT.s 			page 43


 621              	.LFE126:
 622              		.size	RCC_HCLKConfig, .-RCC_HCLKConfig
 623              		.section	.text.RCC_PCLK1Config,"ax",%progbits
 624              		.align	2
 625              		.global	RCC_PCLK1Config
 626              		.thumb
 627              		.thumb_func
 628              		.type	RCC_PCLK1Config, %function
 629              	RCC_PCLK1Config:
 630              	.LFB127:
 773:cmsis/device/stm32f4xx_rcc.c **** {
 631              		.loc 1 773 0
 632              		.cfi_startproc
 633              		@ args = 0, pretend = 0, frame = 0
 634              		@ frame_needed = 0, uses_anonymous_args = 0
 635              		@ link register save eliminated.
 636              	.LVL48:
 779:cmsis/device/stm32f4xx_rcc.c ****   tmpreg = RCC->CFGR;
 637              		.loc 1 779 0
 638 0000 4FF46053 		mov	r3, #14336	@ tmp138,
 639 0004 C4F20203 		movt	r3, 16386	@ tmp138,
 640 0008 9A68     		ldr	r2, [r3, #8]	@ tmpreg, MEM[(struct RCC_TypeDef *)1073887232B].CFGR
 641              	.LVL49:
 782:cmsis/device/stm32f4xx_rcc.c ****   tmpreg &= ~RCC_CFGR_PPRE1;
 642              		.loc 1 782 0
 643 000a 22F4E051 		bic	r1, r2, #7168	@ tmpreg, tmpreg,
 644              	.LVL50:
 785:cmsis/device/stm32f4xx_rcc.c ****   tmpreg |= RCC_HCLK;
 645              		.loc 1 785 0
 646 000e 0843     		orrs	r0, r0, r1	@, tmpreg, RCC_HCLK, tmpreg
 647              	.LVL51:
 788:cmsis/device/stm32f4xx_rcc.c ****   RCC->CFGR = tmpreg;
 648              		.loc 1 788 0
 649 0010 9860     		str	r0, [r3, #8]	@ tmpreg, MEM[(struct RCC_TypeDef *)1073887232B].CFGR
 650 0012 7047     		bx	lr	@
 651              		.cfi_endproc
 652              	.LFE127:
 653              		.size	RCC_PCLK1Config, .-RCC_PCLK1Config
 654              		.section	.text.RCC_PCLK2Config,"ax",%progbits
 655              		.align	2
 656              		.global	RCC_PCLK2Config
 657              		.thumb
 658              		.thumb_func
 659              		.type	RCC_PCLK2Config, %function
 660              	RCC_PCLK2Config:
 661              	.LFB128:
 804:cmsis/device/stm32f4xx_rcc.c **** {
 662              		.loc 1 804 0
 663              		.cfi_startproc
 664              		@ args = 0, pretend = 0, frame = 0
 665              		@ frame_needed = 0, uses_anonymous_args = 0
 666              		@ link register save eliminated.
 667              	.LVL52:
 810:cmsis/device/stm32f4xx_rcc.c ****   tmpreg = RCC->CFGR;
 668              		.loc 1 810 0
 669 0000 4FF46053 		mov	r3, #14336	@ tmp139,
 670 0004 C4F20203 		movt	r3, 16386	@ tmp139,
ARM GAS  C:\Users\CNous\AppData\Local\Temp\ccJl4JfT.s 			page 44


 671 0008 9A68     		ldr	r2, [r3, #8]	@ tmpreg, MEM[(struct RCC_TypeDef *)1073887232B].CFGR
 672              	.LVL53:
 813:cmsis/device/stm32f4xx_rcc.c ****   tmpreg &= ~RCC_CFGR_PPRE2;
 673              		.loc 1 813 0
 674 000a 22F46041 		bic	r1, r2, #57344	@ tmpreg, tmpreg,
 675              	.LVL54:
 816:cmsis/device/stm32f4xx_rcc.c ****   tmpreg |= RCC_HCLK << 3;
 676              		.loc 1 816 0
 677 000e 41EAC000 		orr	r0, r1, r0, lsl #3	@, tmpreg, tmpreg, RCC_HCLK,
 678              	.LVL55:
 819:cmsis/device/stm32f4xx_rcc.c ****   RCC->CFGR = tmpreg;
 679              		.loc 1 819 0
 680 0012 9860     		str	r0, [r3, #8]	@ tmpreg, MEM[(struct RCC_TypeDef *)1073887232B].CFGR
 681 0014 7047     		bx	lr	@
 682              		.cfi_endproc
 683              	.LFE128:
 684              		.size	RCC_PCLK2Config, .-RCC_PCLK2Config
 685 0016 00BF     		.section	.text.RCC_GetClocksFreq,"ax",%progbits
 686              		.align	2
 687              		.global	RCC_GetClocksFreq
 688              		.thumb
 689              		.thumb_func
 690              		.type	RCC_GetClocksFreq, %function
 691              	RCC_GetClocksFreq:
 692              	.LFB129:
 856:cmsis/device/stm32f4xx_rcc.c **** {
 693              		.loc 1 856 0
 694              		.cfi_startproc
 695              		@ args = 0, pretend = 0, frame = 0
 696              		@ frame_needed = 0, uses_anonymous_args = 0
 697              		@ link register save eliminated.
 698              	.LVL56:
 860:cmsis/device/stm32f4xx_rcc.c ****   tmp = RCC->CFGR & RCC_CFGR_SWS;
 699              		.loc 1 860 0
 700 0000 4FF46053 		mov	r3, #14336	@ tmp175,
 701 0004 C4F20203 		movt	r3, 16386	@ tmp175,
 856:cmsis/device/stm32f4xx_rcc.c **** {
 702              		.loc 1 856 0
 703 0008 10B4     		push	{r4}	@
 704              	.LCFI2:
 705              		.cfi_def_cfa_offset 4
 706              		.cfi_offset 4, -4
 860:cmsis/device/stm32f4xx_rcc.c ****   tmp = RCC->CFGR & RCC_CFGR_SWS;
 707              		.loc 1 860 0
 708 000a 9A68     		ldr	r2, [r3, #8]	@ D.6883, MEM[(struct RCC_TypeDef *)1073887232B].CFGR
 709              	.LVL57:
 710 000c 02F00C01 		and	r1, r2, #12	@ tmp176, D.6883,
 711              	.LVL58:
 862:cmsis/device/stm32f4xx_rcc.c ****   switch (tmp)
 712              		.loc 1 862 0
 713 0010 0429     		cmp	r1, #4	@ tmp176,
 714 0012 22D0     		beq	.L35	@,
 715 0014 0829     		cmp	r1, #8	@ tmp176,
 716 0016 26D0     		beq	.L36	@,
 893:cmsis/device/stm32f4xx_rcc.c ****       RCC_Clocks->SYSCLK_Frequency = HSI_VALUE;
 717              		.loc 1 893 0
 718 0018 4FF41052 		mov	r2, #9216	@ tmp202,
ARM GAS  C:\Users\CNous\AppData\Local\Temp\ccJl4JfT.s 			page 45


 719 001c C0F2F402 		movt	r2, 244	@ tmp202,
 720 0020 0260     		str	r2, [r0, #0]	@ tmp202, RCC_Clocks_11(D)->SYSCLK_Frequency
 721              	.LVL59:
 722              	.L37:
 899:cmsis/device/stm32f4xx_rcc.c ****   tmp = RCC->CFGR & RCC_CFGR_HPRE;
 723              		.loc 1 899 0
 724 0022 4FF46053 		mov	r3, #14336	@ tmp203,
 725 0026 C4F20203 		movt	r3, 16386	@ tmp203,
 901:cmsis/device/stm32f4xx_rcc.c ****   presc = APBAHBPrescTable[tmp];
 726              		.loc 1 901 0
 727 002a 2149     		ldr	r1, .L41	@ tmp204,
 899:cmsis/device/stm32f4xx_rcc.c ****   tmp = RCC->CFGR & RCC_CFGR_HPRE;
 728              		.loc 1 899 0
 729 002c 9C68     		ldr	r4, [r3, #8]	@ D.6903, MEM[(struct RCC_TypeDef *)1073887232B].CFGR
 730              	.LVL60:
 900:cmsis/device/stm32f4xx_rcc.c ****   tmp = tmp >> 4;
 731              		.loc 1 900 0
 732 002e C4F30314 		ubfx	r4, r4, #4, #4	@ tmp, D.6903,,
 733              	.LVL61:
 901:cmsis/device/stm32f4xx_rcc.c ****   presc = APBAHBPrescTable[tmp];
 734              		.loc 1 901 0
 735 0032 0C5D     		ldrb	r4, [r1, r4]	@ zero_extendqisi2	@ tmp207, APBAHBPrescTable
 736              	.LVL62:
 903:cmsis/device/stm32f4xx_rcc.c ****   RCC_Clocks->HCLK_Frequency = RCC_Clocks->SYSCLK_Frequency >> presc;
 737              		.loc 1 903 0
 738 0034 22FA04F2 		lsr	r2, r2, r4	@ D.6907, prephitmp.90, tmp207
 739 0038 4260     		str	r2, [r0, #4]	@ D.6907, RCC_Clocks_11(D)->HCLK_Frequency
 906:cmsis/device/stm32f4xx_rcc.c ****   tmp = RCC->CFGR & RCC_CFGR_PPRE1;
 740              		.loc 1 906 0
 741 003a 9C68     		ldr	r4, [r3, #8]	@ D.6908, MEM[(struct RCC_TypeDef *)1073887232B].CFGR
 742              	.LVL63:
 907:cmsis/device/stm32f4xx_rcc.c ****   tmp = tmp >> 10;
 743              		.loc 1 907 0
 744 003c C4F38224 		ubfx	r4, r4, #10, #3	@ tmp, D.6908,,
 745              	.LVL64:
 908:cmsis/device/stm32f4xx_rcc.c ****   presc = APBAHBPrescTable[tmp];
 746              		.loc 1 908 0
 747 0040 0C5D     		ldrb	r4, [r1, r4]	@ zero_extendqisi2	@ tmp212, APBAHBPrescTable
 748              	.LVL65:
 910:cmsis/device/stm32f4xx_rcc.c ****   RCC_Clocks->PCLK1_Frequency = RCC_Clocks->HCLK_Frequency >> presc;
 749              		.loc 1 910 0
 750 0042 22FA04F4 		lsr	r4, r2, r4	@ tmp213, D.6907, tmp212
 751              	.LVL66:
 752 0046 8460     		str	r4, [r0, #8]	@ tmp213, RCC_Clocks_11(D)->PCLK1_Frequency
 913:cmsis/device/stm32f4xx_rcc.c ****   tmp = RCC->CFGR & RCC_CFGR_PPRE2;
 753              		.loc 1 913 0
 754 0048 9B68     		ldr	r3, [r3, #8]	@ D.6912, MEM[(struct RCC_TypeDef *)1073887232B].CFGR
 755              	.LVL67:
 914:cmsis/device/stm32f4xx_rcc.c ****   tmp = tmp >> 13;
 756              		.loc 1 914 0
 757 004a C3F34233 		ubfx	r3, r3, #13, #3	@ tmp, D.6912,,
 758              	.LVL68:
 915:cmsis/device/stm32f4xx_rcc.c ****   presc = APBAHBPrescTable[tmp];
 759              		.loc 1 915 0
 760 004e C95C     		ldrb	r1, [r1, r3]	@ zero_extendqisi2	@ tmp218, APBAHBPrescTable
 761              	.LVL69:
 917:cmsis/device/stm32f4xx_rcc.c ****   RCC_Clocks->PCLK2_Frequency = RCC_Clocks->HCLK_Frequency >> presc;
ARM GAS  C:\Users\CNous\AppData\Local\Temp\ccJl4JfT.s 			page 46


 762              		.loc 1 917 0
 763 0050 22FA01F2 		lsr	r2, r2, r1	@ tmp219, D.6907, tmp218
 764 0054 C260     		str	r2, [r0, #12]	@ tmp219, RCC_Clocks_11(D)->PCLK2_Frequency
 918:cmsis/device/stm32f4xx_rcc.c **** }
 765              		.loc 1 918 0
 766 0056 10BC     		pop	{r4}
 767 0058 7047     		bx	lr
 768              	.LVL70:
 769              	.L35:
 868:cmsis/device/stm32f4xx_rcc.c ****       RCC_Clocks->SYSCLK_Frequency = HSE_VALUE;
 770              		.loc 1 868 0
 771 005a 4FF49052 		mov	r2, #4608	@ tmp178,
 772 005e C0F27A02 		movt	r2, 122	@ tmp178,
 773 0062 0260     		str	r2, [r0, #0]	@ tmp178, RCC_Clocks_11(D)->SYSCLK_Frequency
 869:cmsis/device/stm32f4xx_rcc.c ****       break;
 774              		.loc 1 869 0
 775 0064 DDE7     		b	.L37	@
 776              	.L36:
 875:cmsis/device/stm32f4xx_rcc.c ****       pllsource = (RCC->PLLCFGR & RCC_PLLCFGR_PLLSRC) >> 22;
 777              		.loc 1 875 0
 778 0066 5C68     		ldr	r4, [r3, #4]	@ D.6884, MEM[(struct RCC_TypeDef *)1073887232B].PLLCFGR
 779              	.LVL71:
 876:cmsis/device/stm32f4xx_rcc.c ****       pllm = RCC->PLLCFGR & RCC_PLLCFGR_PLLM;
 780              		.loc 1 876 0
 781 0068 5968     		ldr	r1, [r3, #4]	@ D.6886, MEM[(struct RCC_TypeDef *)1073887232B].PLLCFGR
 782              	.LVL72:
 878:cmsis/device/stm32f4xx_rcc.c ****       if (pllsource != 0)
 783              		.loc 1 878 0
 784 006a 14F4800F 		tst	r4, #4194304	@ D.6884,
 881:cmsis/device/stm32f4xx_rcc.c ****         pllvco = (HSE_VALUE / pllm) * ((RCC->PLLCFGR & RCC_PLLCFGR_PLLN) >> 6);
 785              		.loc 1 881 0
 786 006e 5C68     		ldr	r4, [r3, #4]	@ D.6890,
 787              	.LVL73:
 876:cmsis/device/stm32f4xx_rcc.c ****       pllm = RCC->PLLCFGR & RCC_PLLCFGR_PLLM;
 788              		.loc 1 876 0
 789 0070 01F03F02 		and	r2, r1, #63	@ pllm, D.6886,
 790              	.LVL74:
 881:cmsis/device/stm32f4xx_rcc.c ****         pllvco = (HSE_VALUE / pllm) * ((RCC->PLLCFGR & RCC_PLLCFGR_PLLN) >> 6);
 791              		.loc 1 881 0
 792 0074 14BF     		ite	ne
 793 0076 4FF49053 		movne	r3, #4608	@ tmp189,
 886:cmsis/device/stm32f4xx_rcc.c ****         pllvco = (HSI_VALUE / pllm) * ((RCC->PLLCFGR & RCC_PLLCFGR_PLLN) >> 6);      
 794              		.loc 1 886 0
 795 007a 4FF41053 		moveq	r3, #9216	@ tmp196,
 796 007e C4F38811 		ubfx	r1, r4, #6, #9	@ tmp193, D.6895,,
 889:cmsis/device/stm32f4xx_rcc.c ****       pllp = (((RCC->PLLCFGR & RCC_PLLCFGR_PLLP) >>16) + 1 ) *2;
 797              		.loc 1 889 0
 798 0082 4FF46054 		mov	r4, #14336	@ tmp197,
 881:cmsis/device/stm32f4xx_rcc.c ****         pllvco = (HSE_VALUE / pllm) * ((RCC->PLLCFGR & RCC_PLLCFGR_PLLN) >> 6);
 799              		.loc 1 881 0
 800 0086 14BF     		ite	ne
 801 0088 C0F27A03 		movtne	r3, 122	@ tmp189,
 886:cmsis/device/stm32f4xx_rcc.c ****         pllvco = (HSI_VALUE / pllm) * ((RCC->PLLCFGR & RCC_PLLCFGR_PLLN) >> 6);      
 802              		.loc 1 886 0
 803 008c C0F2F403 		movteq	r3, 244	@ tmp196,
 889:cmsis/device/stm32f4xx_rcc.c ****       pllp = (((RCC->PLLCFGR & RCC_PLLCFGR_PLLP) >>16) + 1 ) *2;
 804              		.loc 1 889 0
ARM GAS  C:\Users\CNous\AppData\Local\Temp\ccJl4JfT.s 			page 47


 805 0090 C4F20204 		movt	r4, 16386	@ tmp197,
 886:cmsis/device/stm32f4xx_rcc.c ****         pllvco = (HSI_VALUE / pllm) * ((RCC->PLLCFGR & RCC_PLLCFGR_PLLN) >> 6);      
 806              		.loc 1 886 0
 807 0094 B3FBF2F3 		udiv	r3, r3, r2	@ tmp195, tmp196, pllm
 808 0098 03FB01F2 		mul	r2, r3, r1	@ pllvco, tmp195, tmp193
 809              	.LVL75:
 889:cmsis/device/stm32f4xx_rcc.c ****       pllp = (((RCC->PLLCFGR & RCC_PLLCFGR_PLLP) >>16) + 1 ) *2;
 810              		.loc 1 889 0
 811 009c 6168     		ldr	r1, [r4, #4]	@ D.6898, MEM[(struct RCC_TypeDef *)1073887232B].PLLCFGR
 812              	.LVL76:
 813 009e C1F30143 		ubfx	r3, r1, #16, #2	@ tmp199, D.6898,,
 814 00a2 5C1C     		adds	r4, r3, #1	@ tmp200, tmp199,
 815 00a4 6100     		lsls	r1, r4, #1	@ tmp201, tmp200,
 816              	.LVL77:
 890:cmsis/device/stm32f4xx_rcc.c ****       RCC_Clocks->SYSCLK_Frequency = pllvco/pllp;
 817              		.loc 1 890 0
 818 00a6 B2FBF1F2 		udiv	r2, r2, r1	@ prephitmp.90, pllvco, tmp201
 819              	.LVL78:
 820 00aa 0260     		str	r2, [r0, #0]	@ prephitmp.90, RCC_Clocks_11(D)->SYSCLK_Frequency
 891:cmsis/device/stm32f4xx_rcc.c ****       break;
 821              		.loc 1 891 0
 822 00ac B9E7     		b	.L37	@
 823              	.L42:
 824 00ae 00BF     		.align	2
 825              	.L41:
 826 00b0 00000000 		.word	.LANCHOR0
 827              		.cfi_endproc
 828              	.LFE129:
 829              		.size	RCC_GetClocksFreq, .-RCC_GetClocksFreq
 830              		.section	.text.RCC_RTCCLKConfig,"ax",%progbits
 831              		.align	2
 832              		.global	RCC_RTCCLKConfig
 833              		.thumb
 834              		.thumb_func
 835              		.type	RCC_RTCCLKConfig, %function
 836              	RCC_RTCCLKConfig:
 837              	.LFB130:
 981:cmsis/device/stm32f4xx_rcc.c **** {
 838              		.loc 1 981 0
 839              		.cfi_startproc
 840              		@ args = 0, pretend = 0, frame = 0
 841              		@ frame_needed = 0, uses_anonymous_args = 0
 842              		@ link register save eliminated.
 843              	.LVL79:
 987:cmsis/device/stm32f4xx_rcc.c ****   if ((RCC_RTCCLKSource & 0x00000300) == 0x00000300)
 844              		.loc 1 987 0
 845 0000 00F44073 		and	r3, r0, #768	@ tmp143, RCC_RTCCLKSource,
 846 0004 B3F5407F 		cmp	r3, #768	@ tmp143,
 847 0008 0CD1     		bne	.L44	@,
 989:cmsis/device/stm32f4xx_rcc.c ****     tmpreg = RCC->CFGR;
 848              		.loc 1 989 0
 849 000a 4FF46053 		mov	r3, #14336	@ tmp144,
 850 000e C4F20203 		movt	r3, 16386	@ tmp144,
 995:cmsis/device/stm32f4xx_rcc.c ****     tmpreg |= (RCC_RTCCLKSource & 0xFFFFCFF);
 851              		.loc 1 995 0
 852 0012 20F07041 		bic	r1, r0, #-268435456	@ tmp146, RCC_RTCCLKSource,
 989:cmsis/device/stm32f4xx_rcc.c ****     tmpreg = RCC->CFGR;
ARM GAS  C:\Users\CNous\AppData\Local\Temp\ccJl4JfT.s 			page 48


 853              		.loc 1 989 0
 854 0016 9A68     		ldr	r2, [r3, #8]	@ tmpreg, MEM[(struct RCC_TypeDef *)1073887232B].CFGR
 855              	.LVL80:
 995:cmsis/device/stm32f4xx_rcc.c ****     tmpreg |= (RCC_RTCCLKSource & 0xFFFFCFF);
 856              		.loc 1 995 0
 857 0018 21F44071 		bic	r1, r1, #768	@ tmp145, tmp146,
 992:cmsis/device/stm32f4xx_rcc.c ****     tmpreg &= ~RCC_CFGR_RTCPRE;
 858              		.loc 1 992 0
 859 001c 22F4F812 		bic	r2, r2, #2031616	@ tmpreg, tmpreg,
 860              	.LVL81:
 995:cmsis/device/stm32f4xx_rcc.c ****     tmpreg |= (RCC_RTCCLKSource & 0xFFFFCFF);
 861              		.loc 1 995 0
 862 0020 1143     		orrs	r1, r1, r2	@, tmpreg, tmp145, tmpreg
 863              	.LVL82:
 998:cmsis/device/stm32f4xx_rcc.c ****     RCC->CFGR = tmpreg;
 864              		.loc 1 998 0
 865 0022 9960     		str	r1, [r3, #8]	@ tmpreg, MEM[(struct RCC_TypeDef *)1073887232B].CFGR
 866              	.LVL83:
 867              	.L44:
1002:cmsis/device/stm32f4xx_rcc.c ****   RCC->BDCR |= (RCC_RTCCLKSource & 0x00000FFF);
 868              		.loc 1 1002 0
 869 0024 4FF46053 		mov	r3, #14336	@ tmp148,
 870 0028 C4F20203 		movt	r3, 16386	@ tmp148,
 871 002c 0005     		lsls	r0, r0, #20	@ tmp149, RCC_RTCCLKSource,
 872              	.LVL84:
 873 002e 1A6F     		ldr	r2, [r3, #112]	@ D.6879, MEM[(struct RCC_TypeDef *)1073887232B].BDCR
 874 0030 010D     		lsrs	r1, r0, #20	@ tmp149, tmp149,
 875 0032 1143     		orrs	r1, r1, r2	@, D.6881, tmp149, D.6879
 876 0034 1967     		str	r1, [r3, #112]	@ D.6881, MEM[(struct RCC_TypeDef *)1073887232B].BDCR
 877 0036 7047     		bx	lr	@
 878              		.cfi_endproc
 879              	.LFE130:
 880              		.size	RCC_RTCCLKConfig, .-RCC_RTCCLKConfig
 881              		.section	.text.RCC_RTCCLKCmd,"ax",%progbits
 882              		.align	2
 883              		.global	RCC_RTCCLKCmd
 884              		.thumb
 885              		.thumb_func
 886              		.type	RCC_RTCCLKCmd, %function
 887              	RCC_RTCCLKCmd:
 888              	.LFB131:
1013:cmsis/device/stm32f4xx_rcc.c **** {
 889              		.loc 1 1013 0
 890              		.cfi_startproc
 891              		@ args = 0, pretend = 0, frame = 0
 892              		@ frame_needed = 0, uses_anonymous_args = 0
 893              		@ link register save eliminated.
 894              	.LVL85:
1017:cmsis/device/stm32f4xx_rcc.c ****   *(__IO uint32_t *) BDCR_RTCEN_BB = (uint32_t)NewState;
 895              		.loc 1 1017 0
 896 0000 40F63C63 		movw	r3, #3644	@ tmp136,
 897 0004 C4F24723 		movt	r3, 16967	@ tmp136,
 898 0008 1860     		str	r0, [r3, #0]	@ NewState, MEM[(volatile uint32_t *)1111952956B]
 899 000a 7047     		bx	lr	@
 900              		.cfi_endproc
 901              	.LFE131:
 902              		.size	RCC_RTCCLKCmd, .-RCC_RTCCLKCmd
ARM GAS  C:\Users\CNous\AppData\Local\Temp\ccJl4JfT.s 			page 49


 903              		.section	.text.RCC_BackupResetCmd,"ax",%progbits
 904              		.align	2
 905              		.global	RCC_BackupResetCmd
 906              		.thumb
 907              		.thumb_func
 908              		.type	RCC_BackupResetCmd, %function
 909              	RCC_BackupResetCmd:
 910              	.LFB132:
1030:cmsis/device/stm32f4xx_rcc.c **** {
 911              		.loc 1 1030 0
 912              		.cfi_startproc
 913              		@ args = 0, pretend = 0, frame = 0
 914              		@ frame_needed = 0, uses_anonymous_args = 0
 915              		@ link register save eliminated.
 916              	.LVL86:
1033:cmsis/device/stm32f4xx_rcc.c ****   *(__IO uint32_t *) BDCR_BDRST_BB = (uint32_t)NewState;
 917              		.loc 1 1033 0
 918 0000 4FF46463 		mov	r3, #3648	@ tmp136,
 919 0004 C4F24723 		movt	r3, 16967	@ tmp136,
 920 0008 1860     		str	r0, [r3, #0]	@ NewState, MEM[(volatile uint32_t *)1111952960B]
 921 000a 7047     		bx	lr	@
 922              		.cfi_endproc
 923              	.LFE132:
 924              		.size	RCC_BackupResetCmd, .-RCC_BackupResetCmd
 925              		.section	.text.RCC_I2SCLKConfig,"ax",%progbits
 926              		.align	2
 927              		.global	RCC_I2SCLKConfig
 928              		.thumb
 929              		.thumb_func
 930              		.type	RCC_I2SCLKConfig, %function
 931              	RCC_I2SCLKConfig:
 932              	.LFB133:
1047:cmsis/device/stm32f4xx_rcc.c **** {
 933              		.loc 1 1047 0
 934              		.cfi_startproc
 935              		@ args = 0, pretend = 0, frame = 0
 936              		@ frame_needed = 0, uses_anonymous_args = 0
 937              		@ link register save eliminated.
 938              	.LVL87:
1051:cmsis/device/stm32f4xx_rcc.c ****   *(__IO uint32_t *) CFGR_I2SSRC_BB = RCC_I2SCLKSource;
 939              		.loc 1 1051 0
 940 0000 4FF4AE73 		mov	r3, #348	@ tmp136,
 941 0004 C4F24723 		movt	r3, 16967	@ tmp136,
 942 0008 1860     		str	r0, [r3, #0]	@ RCC_I2SCLKSource, MEM[(volatile uint32_t *)1111949660B]
 943 000a 7047     		bx	lr	@
 944              		.cfi_endproc
 945              	.LFE133:
 946              		.size	RCC_I2SCLKConfig, .-RCC_I2SCLKConfig
 947              		.section	.text.RCC_AHB1PeriphClockCmd,"ax",%progbits
 948              		.align	2
 949              		.global	RCC_AHB1PeriphClockCmd
 950              		.thumb
 951              		.thumb_func
 952              		.type	RCC_AHB1PeriphClockCmd, %function
 953              	RCC_AHB1PeriphClockCmd:
 954              	.LFB134:
1086:cmsis/device/stm32f4xx_rcc.c **** {
ARM GAS  C:\Users\CNous\AppData\Local\Temp\ccJl4JfT.s 			page 50


 955              		.loc 1 1086 0
 956              		.cfi_startproc
 957              		@ args = 0, pretend = 0, frame = 0
 958              		@ frame_needed = 0, uses_anonymous_args = 0
 959              		@ link register save eliminated.
 960              	.LVL88:
1093:cmsis/device/stm32f4xx_rcc.c ****     RCC->AHB1ENR |= RCC_AHB1Periph;
 961              		.loc 1 1093 0
 962 0000 4FF46053 		mov	r3, #14336	@ tmp141,
 963 0004 C4F20203 		movt	r3, 16386	@ tmp141,
 964 0008 1A6B     		ldr	r2, [r3, #48]	@ D.6863,
1091:cmsis/device/stm32f4xx_rcc.c ****   if (NewState != DISABLE)
 965              		.loc 1 1091 0
 966 000a 19B9     		cbnz	r1, .L51	@ NewState,
1097:cmsis/device/stm32f4xx_rcc.c ****     RCC->AHB1ENR &= ~RCC_AHB1Periph;
 967              		.loc 1 1097 0
 968 000c 22EA0000 		bic	r0, r2, r0	@ D.6868, D.6866, RCC_AHB1Periph
 969              	.LVL89:
 970 0010 1863     		str	r0, [r3, #48]	@ D.6868,
 971 0012 7047     		bx	lr	@
 972              	.LVL90:
 973              	.L51:
1093:cmsis/device/stm32f4xx_rcc.c ****     RCC->AHB1ENR |= RCC_AHB1Periph;
 974              		.loc 1 1093 0
 975 0014 1043     		orrs	r0, r0, r2	@, D.6864, RCC_AHB1Periph, D.6863
 976              	.LVL91:
 977 0016 1863     		str	r0, [r3, #48]	@ D.6864,
 978 0018 7047     		bx	lr	@
 979              		.cfi_endproc
 980              	.LFE134:
 981              		.size	RCC_AHB1PeriphClockCmd, .-RCC_AHB1PeriphClockCmd
 982 001a 00BF     		.section	.text.RCC_AHB2PeriphClockCmd,"ax",%progbits
 983              		.align	2
 984              		.global	RCC_AHB2PeriphClockCmd
 985              		.thumb
 986              		.thumb_func
 987              		.type	RCC_AHB2PeriphClockCmd, %function
 988              	RCC_AHB2PeriphClockCmd:
 989              	.LFB135:
1118:cmsis/device/stm32f4xx_rcc.c **** {
 990              		.loc 1 1118 0
 991              		.cfi_startproc
 992              		@ args = 0, pretend = 0, frame = 0
 993              		@ frame_needed = 0, uses_anonymous_args = 0
 994              		@ link register save eliminated.
 995              	.LVL92:
1125:cmsis/device/stm32f4xx_rcc.c ****     RCC->AHB2ENR |= RCC_AHB2Periph;
 996              		.loc 1 1125 0
 997 0000 4FF46053 		mov	r3, #14336	@ tmp141,
 998 0004 C4F20203 		movt	r3, 16386	@ tmp141,
 999 0008 5A6B     		ldr	r2, [r3, #52]	@ D.6854,
1123:cmsis/device/stm32f4xx_rcc.c ****   if (NewState != DISABLE)
 1000              		.loc 1 1123 0
 1001 000a 19B9     		cbnz	r1, .L55	@ NewState,
1129:cmsis/device/stm32f4xx_rcc.c ****     RCC->AHB2ENR &= ~RCC_AHB2Periph;
 1002              		.loc 1 1129 0
 1003 000c 22EA0000 		bic	r0, r2, r0	@ D.6859, D.6857, RCC_AHB2Periph
ARM GAS  C:\Users\CNous\AppData\Local\Temp\ccJl4JfT.s 			page 51


 1004              	.LVL93:
 1005 0010 5863     		str	r0, [r3, #52]	@ D.6859,
 1006 0012 7047     		bx	lr	@
 1007              	.LVL94:
 1008              	.L55:
1125:cmsis/device/stm32f4xx_rcc.c ****     RCC->AHB2ENR |= RCC_AHB2Periph;
 1009              		.loc 1 1125 0
 1010 0014 1043     		orrs	r0, r0, r2	@, D.6855, RCC_AHB2Periph, D.6854
 1011              	.LVL95:
 1012 0016 5863     		str	r0, [r3, #52]	@ D.6855,
 1013 0018 7047     		bx	lr	@
 1014              		.cfi_endproc
 1015              	.LFE135:
 1016              		.size	RCC_AHB2PeriphClockCmd, .-RCC_AHB2PeriphClockCmd
 1017 001a 00BF     		.section	.text.RCC_AHB3PeriphClockCmd,"ax",%progbits
 1018              		.align	2
 1019              		.global	RCC_AHB3PeriphClockCmd
 1020              		.thumb
 1021              		.thumb_func
 1022              		.type	RCC_AHB3PeriphClockCmd, %function
 1023              	RCC_AHB3PeriphClockCmd:
 1024              	.LFB136:
1145:cmsis/device/stm32f4xx_rcc.c **** {
 1025              		.loc 1 1145 0
 1026              		.cfi_startproc
 1027              		@ args = 0, pretend = 0, frame = 0
 1028              		@ frame_needed = 0, uses_anonymous_args = 0
 1029              		@ link register save eliminated.
 1030              	.LVL96:
1152:cmsis/device/stm32f4xx_rcc.c ****     RCC->AHB3ENR |= RCC_AHB3Periph;
 1031              		.loc 1 1152 0
 1032 0000 4FF46053 		mov	r3, #14336	@ tmp141,
 1033 0004 C4F20203 		movt	r3, 16386	@ tmp141,
 1034 0008 9A6B     		ldr	r2, [r3, #56]	@ D.6845,
1150:cmsis/device/stm32f4xx_rcc.c ****   if (NewState != DISABLE)
 1035              		.loc 1 1150 0
 1036 000a 19B9     		cbnz	r1, .L59	@ NewState,
1156:cmsis/device/stm32f4xx_rcc.c ****     RCC->AHB3ENR &= ~RCC_AHB3Periph;
 1037              		.loc 1 1156 0
 1038 000c 22EA0000 		bic	r0, r2, r0	@ D.6850, D.6848, RCC_AHB3Periph
 1039              	.LVL97:
 1040 0010 9863     		str	r0, [r3, #56]	@ D.6850,
 1041 0012 7047     		bx	lr	@
 1042              	.LVL98:
 1043              	.L59:
1152:cmsis/device/stm32f4xx_rcc.c ****     RCC->AHB3ENR |= RCC_AHB3Periph;
 1044              		.loc 1 1152 0
 1045 0014 1043     		orrs	r0, r0, r2	@, D.6846, RCC_AHB3Periph, D.6845
 1046              	.LVL99:
 1047 0016 9863     		str	r0, [r3, #56]	@ D.6846,
 1048 0018 7047     		bx	lr	@
 1049              		.cfi_endproc
 1050              	.LFE136:
 1051              		.size	RCC_AHB3PeriphClockCmd, .-RCC_AHB3PeriphClockCmd
 1052 001a 00BF     		.section	.text.RCC_APB1PeriphClockCmd,"ax",%progbits
 1053              		.align	2
 1054              		.global	RCC_APB1PeriphClockCmd
ARM GAS  C:\Users\CNous\AppData\Local\Temp\ccJl4JfT.s 			page 52


 1055              		.thumb
 1056              		.thumb_func
 1057              		.type	RCC_APB1PeriphClockCmd, %function
 1058              	RCC_APB1PeriphClockCmd:
 1059              	.LFB137:
1195:cmsis/device/stm32f4xx_rcc.c **** {
 1060              		.loc 1 1195 0
 1061              		.cfi_startproc
 1062              		@ args = 0, pretend = 0, frame = 0
 1063              		@ frame_needed = 0, uses_anonymous_args = 0
 1064              		@ link register save eliminated.
 1065              	.LVL100:
1202:cmsis/device/stm32f4xx_rcc.c ****     RCC->APB1ENR |= RCC_APB1Periph;
 1066              		.loc 1 1202 0
 1067 0000 4FF46053 		mov	r3, #14336	@ tmp141,
 1068 0004 C4F20203 		movt	r3, 16386	@ tmp141,
 1069 0008 1A6C     		ldr	r2, [r3, #64]	@ D.6836,
1200:cmsis/device/stm32f4xx_rcc.c ****   if (NewState != DISABLE)
 1070              		.loc 1 1200 0
 1071 000a 19B9     		cbnz	r1, .L63	@ NewState,
1206:cmsis/device/stm32f4xx_rcc.c ****     RCC->APB1ENR &= ~RCC_APB1Periph;
 1072              		.loc 1 1206 0
 1073 000c 22EA0000 		bic	r0, r2, r0	@ D.6841, D.6839, RCC_APB1Periph
 1074              	.LVL101:
 1075 0010 1864     		str	r0, [r3, #64]	@ D.6841,
 1076 0012 7047     		bx	lr	@
 1077              	.LVL102:
 1078              	.L63:
1202:cmsis/device/stm32f4xx_rcc.c ****     RCC->APB1ENR |= RCC_APB1Periph;
 1079              		.loc 1 1202 0
 1080 0014 1043     		orrs	r0, r0, r2	@, D.6837, RCC_APB1Periph, D.6836
 1081              	.LVL103:
 1082 0016 1864     		str	r0, [r3, #64]	@ D.6837,
 1083 0018 7047     		bx	lr	@
 1084              		.cfi_endproc
 1085              	.LFE137:
 1086              		.size	RCC_APB1PeriphClockCmd, .-RCC_APB1PeriphClockCmd
 1087 001a 00BF     		.section	.text.RCC_APB2PeriphClockCmd,"ax",%progbits
 1088              		.align	2
 1089              		.global	RCC_APB2PeriphClockCmd
 1090              		.thumb
 1091              		.thumb_func
 1092              		.type	RCC_APB2PeriphClockCmd, %function
 1093              	RCC_APB2PeriphClockCmd:
 1094              	.LFB138:
1235:cmsis/device/stm32f4xx_rcc.c **** {
 1095              		.loc 1 1235 0
 1096              		.cfi_startproc
 1097              		@ args = 0, pretend = 0, frame = 0
 1098              		@ frame_needed = 0, uses_anonymous_args = 0
 1099              		@ link register save eliminated.
 1100              	.LVL104:
1242:cmsis/device/stm32f4xx_rcc.c ****     RCC->APB2ENR |= RCC_APB2Periph;
 1101              		.loc 1 1242 0
 1102 0000 4FF46053 		mov	r3, #14336	@ tmp141,
 1103 0004 C4F20203 		movt	r3, 16386	@ tmp141,
 1104 0008 5A6C     		ldr	r2, [r3, #68]	@ D.6827,
ARM GAS  C:\Users\CNous\AppData\Local\Temp\ccJl4JfT.s 			page 53


1240:cmsis/device/stm32f4xx_rcc.c ****   if (NewState != DISABLE)
 1105              		.loc 1 1240 0
 1106 000a 19B9     		cbnz	r1, .L67	@ NewState,
1246:cmsis/device/stm32f4xx_rcc.c ****     RCC->APB2ENR &= ~RCC_APB2Periph;
 1107              		.loc 1 1246 0
 1108 000c 22EA0000 		bic	r0, r2, r0	@ D.6832, D.6830, RCC_APB2Periph
 1109              	.LVL105:
 1110 0010 5864     		str	r0, [r3, #68]	@ D.6832,
 1111 0012 7047     		bx	lr	@
 1112              	.LVL106:
 1113              	.L67:
1242:cmsis/device/stm32f4xx_rcc.c ****     RCC->APB2ENR |= RCC_APB2Periph;
 1114              		.loc 1 1242 0
 1115 0014 1043     		orrs	r0, r0, r2	@, D.6828, RCC_APB2Periph, D.6827
 1116              	.LVL107:
 1117 0016 5864     		str	r0, [r3, #68]	@ D.6828,
 1118 0018 7047     		bx	lr	@
 1119              		.cfi_endproc
 1120              	.LFE138:
 1121              		.size	RCC_APB2PeriphClockCmd, .-RCC_APB2PeriphClockCmd
 1122 001a 00BF     		.section	.text.RCC_AHB1PeriphResetCmd,"ax",%progbits
 1123              		.align	2
 1124              		.global	RCC_AHB1PeriphResetCmd
 1125              		.thumb
 1126              		.thumb_func
 1127              		.type	RCC_AHB1PeriphResetCmd, %function
 1128              	RCC_AHB1PeriphResetCmd:
 1129              	.LFB139:
1274:cmsis/device/stm32f4xx_rcc.c **** {
 1130              		.loc 1 1274 0
 1131              		.cfi_startproc
 1132              		@ args = 0, pretend = 0, frame = 0
 1133              		@ frame_needed = 0, uses_anonymous_args = 0
 1134              		@ link register save eliminated.
 1135              	.LVL108:
1281:cmsis/device/stm32f4xx_rcc.c ****     RCC->AHB1RSTR |= RCC_AHB1Periph;
 1136              		.loc 1 1281 0
 1137 0000 4FF46053 		mov	r3, #14336	@ tmp141,
 1138 0004 C4F20203 		movt	r3, 16386	@ tmp141,
 1139 0008 1A69     		ldr	r2, [r3, #16]	@ D.6818,
1279:cmsis/device/stm32f4xx_rcc.c ****   if (NewState != DISABLE)
 1140              		.loc 1 1279 0
 1141 000a 19B9     		cbnz	r1, .L71	@ NewState,
1285:cmsis/device/stm32f4xx_rcc.c ****     RCC->AHB1RSTR &= ~RCC_AHB1Periph;
 1142              		.loc 1 1285 0
 1143 000c 22EA0000 		bic	r0, r2, r0	@ D.6823, D.6821, RCC_AHB1Periph
 1144              	.LVL109:
 1145 0010 1861     		str	r0, [r3, #16]	@ D.6823,
 1146 0012 7047     		bx	lr	@
 1147              	.LVL110:
 1148              	.L71:
1281:cmsis/device/stm32f4xx_rcc.c ****     RCC->AHB1RSTR |= RCC_AHB1Periph;
 1149              		.loc 1 1281 0
 1150 0014 1043     		orrs	r0, r0, r2	@, D.6819, RCC_AHB1Periph, D.6818
 1151              	.LVL111:
 1152 0016 1861     		str	r0, [r3, #16]	@ D.6819,
 1153 0018 7047     		bx	lr	@
ARM GAS  C:\Users\CNous\AppData\Local\Temp\ccJl4JfT.s 			page 54


 1154              		.cfi_endproc
 1155              	.LFE139:
 1156              		.size	RCC_AHB1PeriphResetCmd, .-RCC_AHB1PeriphResetCmd
 1157 001a 00BF     		.section	.text.RCC_AHB2PeriphResetCmd,"ax",%progbits
 1158              		.align	2
 1159              		.global	RCC_AHB2PeriphResetCmd
 1160              		.thumb
 1161              		.thumb_func
 1162              		.type	RCC_AHB2PeriphResetCmd, %function
 1163              	RCC_AHB2PeriphResetCmd:
 1164              	.LFB140:
1303:cmsis/device/stm32f4xx_rcc.c **** {
 1165              		.loc 1 1303 0
 1166              		.cfi_startproc
 1167              		@ args = 0, pretend = 0, frame = 0
 1168              		@ frame_needed = 0, uses_anonymous_args = 0
 1169              		@ link register save eliminated.
 1170              	.LVL112:
1310:cmsis/device/stm32f4xx_rcc.c ****     RCC->AHB2RSTR |= RCC_AHB2Periph;
 1171              		.loc 1 1310 0
 1172 0000 4FF46053 		mov	r3, #14336	@ tmp141,
 1173 0004 C4F20203 		movt	r3, 16386	@ tmp141,
 1174 0008 5A69     		ldr	r2, [r3, #20]	@ D.6809,
1308:cmsis/device/stm32f4xx_rcc.c ****   if (NewState != DISABLE)
 1175              		.loc 1 1308 0
 1176 000a 19B9     		cbnz	r1, .L75	@ NewState,
1314:cmsis/device/stm32f4xx_rcc.c ****     RCC->AHB2RSTR &= ~RCC_AHB2Periph;
 1177              		.loc 1 1314 0
 1178 000c 22EA0000 		bic	r0, r2, r0	@ D.6814, D.6812, RCC_AHB2Periph
 1179              	.LVL113:
 1180 0010 5861     		str	r0, [r3, #20]	@ D.6814,
 1181 0012 7047     		bx	lr	@
 1182              	.LVL114:
 1183              	.L75:
1310:cmsis/device/stm32f4xx_rcc.c ****     RCC->AHB2RSTR |= RCC_AHB2Periph;
 1184              		.loc 1 1310 0
 1185 0014 1043     		orrs	r0, r0, r2	@, D.6810, RCC_AHB2Periph, D.6809
 1186              	.LVL115:
 1187 0016 5861     		str	r0, [r3, #20]	@ D.6810,
 1188 0018 7047     		bx	lr	@
 1189              		.cfi_endproc
 1190              	.LFE140:
 1191              		.size	RCC_AHB2PeriphResetCmd, .-RCC_AHB2PeriphResetCmd
 1192 001a 00BF     		.section	.text.RCC_AHB3PeriphResetCmd,"ax",%progbits
 1193              		.align	2
 1194              		.global	RCC_AHB3PeriphResetCmd
 1195              		.thumb
 1196              		.thumb_func
 1197              		.type	RCC_AHB3PeriphResetCmd, %function
 1198              	RCC_AHB3PeriphResetCmd:
 1199              	.LFB141:
1327:cmsis/device/stm32f4xx_rcc.c **** {
 1200              		.loc 1 1327 0
 1201              		.cfi_startproc
 1202              		@ args = 0, pretend = 0, frame = 0
 1203              		@ frame_needed = 0, uses_anonymous_args = 0
 1204              		@ link register save eliminated.
ARM GAS  C:\Users\CNous\AppData\Local\Temp\ccJl4JfT.s 			page 55


 1205              	.LVL116:
1334:cmsis/device/stm32f4xx_rcc.c ****     RCC->AHB3RSTR |= RCC_AHB3Periph;
 1206              		.loc 1 1334 0
 1207 0000 4FF46053 		mov	r3, #14336	@ tmp141,
 1208 0004 C4F20203 		movt	r3, 16386	@ tmp141,
 1209 0008 9A69     		ldr	r2, [r3, #24]	@ D.6800,
1332:cmsis/device/stm32f4xx_rcc.c ****   if (NewState != DISABLE)
 1210              		.loc 1 1332 0
 1211 000a 19B9     		cbnz	r1, .L79	@ NewState,
1338:cmsis/device/stm32f4xx_rcc.c ****     RCC->AHB3RSTR &= ~RCC_AHB3Periph;
 1212              		.loc 1 1338 0
 1213 000c 22EA0000 		bic	r0, r2, r0	@ D.6805, D.6803, RCC_AHB3Periph
 1214              	.LVL117:
 1215 0010 9861     		str	r0, [r3, #24]	@ D.6805,
 1216 0012 7047     		bx	lr	@
 1217              	.LVL118:
 1218              	.L79:
1334:cmsis/device/stm32f4xx_rcc.c ****     RCC->AHB3RSTR |= RCC_AHB3Periph;
 1219              		.loc 1 1334 0
 1220 0014 1043     		orrs	r0, r0, r2	@, D.6801, RCC_AHB3Periph, D.6800
 1221              	.LVL119:
 1222 0016 9861     		str	r0, [r3, #24]	@ D.6801,
 1223 0018 7047     		bx	lr	@
 1224              		.cfi_endproc
 1225              	.LFE141:
 1226              		.size	RCC_AHB3PeriphResetCmd, .-RCC_AHB3PeriphResetCmd
 1227 001a 00BF     		.section	.text.RCC_APB1PeriphResetCmd,"ax",%progbits
 1228              		.align	2
 1229              		.global	RCC_APB1PeriphResetCmd
 1230              		.thumb
 1231              		.thumb_func
 1232              		.type	RCC_APB1PeriphResetCmd, %function
 1233              	RCC_APB1PeriphResetCmd:
 1234              	.LFB142:
1374:cmsis/device/stm32f4xx_rcc.c **** {
 1235              		.loc 1 1374 0
 1236              		.cfi_startproc
 1237              		@ args = 0, pretend = 0, frame = 0
 1238              		@ frame_needed = 0, uses_anonymous_args = 0
 1239              		@ link register save eliminated.
 1240              	.LVL120:
1380:cmsis/device/stm32f4xx_rcc.c ****     RCC->APB1RSTR |= RCC_APB1Periph;
 1241              		.loc 1 1380 0
 1242 0000 4FF46053 		mov	r3, #14336	@ tmp141,
 1243 0004 C4F20203 		movt	r3, 16386	@ tmp141,
 1244 0008 1A6A     		ldr	r2, [r3, #32]	@ D.6791,
1378:cmsis/device/stm32f4xx_rcc.c ****   if (NewState != DISABLE)
 1245              		.loc 1 1378 0
 1246 000a 19B9     		cbnz	r1, .L83	@ NewState,
1384:cmsis/device/stm32f4xx_rcc.c ****     RCC->APB1RSTR &= ~RCC_APB1Periph;
 1247              		.loc 1 1384 0
 1248 000c 22EA0000 		bic	r0, r2, r0	@ D.6796, D.6794, RCC_APB1Periph
 1249              	.LVL121:
 1250 0010 1862     		str	r0, [r3, #32]	@ D.6796,
 1251 0012 7047     		bx	lr	@
 1252              	.LVL122:
 1253              	.L83:
ARM GAS  C:\Users\CNous\AppData\Local\Temp\ccJl4JfT.s 			page 56


1380:cmsis/device/stm32f4xx_rcc.c ****     RCC->APB1RSTR |= RCC_APB1Periph;
 1254              		.loc 1 1380 0
 1255 0014 1043     		orrs	r0, r0, r2	@, D.6792, RCC_APB1Periph, D.6791
 1256              	.LVL123:
 1257 0016 1862     		str	r0, [r3, #32]	@ D.6792,
 1258 0018 7047     		bx	lr	@
 1259              		.cfi_endproc
 1260              	.LFE142:
 1261              		.size	RCC_APB1PeriphResetCmd, .-RCC_APB1PeriphResetCmd
 1262 001a 00BF     		.section	.text.RCC_APB2PeriphResetCmd,"ax",%progbits
 1263              		.align	2
 1264              		.global	RCC_APB2PeriphResetCmd
 1265              		.thumb
 1266              		.thumb_func
 1267              		.type	RCC_APB2PeriphResetCmd, %function
 1268              	RCC_APB2PeriphResetCmd:
 1269              	.LFB143:
1410:cmsis/device/stm32f4xx_rcc.c **** {
 1270              		.loc 1 1410 0
 1271              		.cfi_startproc
 1272              		@ args = 0, pretend = 0, frame = 0
 1273              		@ frame_needed = 0, uses_anonymous_args = 0
 1274              		@ link register save eliminated.
 1275              	.LVL124:
1416:cmsis/device/stm32f4xx_rcc.c ****     RCC->APB2RSTR |= RCC_APB2Periph;
 1276              		.loc 1 1416 0
 1277 0000 4FF46053 		mov	r3, #14336	@ tmp141,
 1278 0004 C4F20203 		movt	r3, 16386	@ tmp141,
 1279 0008 5A6A     		ldr	r2, [r3, #36]	@ D.6782,
1414:cmsis/device/stm32f4xx_rcc.c ****   if (NewState != DISABLE)
 1280              		.loc 1 1414 0
 1281 000a 19B9     		cbnz	r1, .L87	@ NewState,
1420:cmsis/device/stm32f4xx_rcc.c ****     RCC->APB2RSTR &= ~RCC_APB2Periph;
 1282              		.loc 1 1420 0
 1283 000c 22EA0000 		bic	r0, r2, r0	@ D.6787, D.6785, RCC_APB2Periph
 1284              	.LVL125:
 1285 0010 5862     		str	r0, [r3, #36]	@ D.6787,
 1286 0012 7047     		bx	lr	@
 1287              	.LVL126:
 1288              	.L87:
1416:cmsis/device/stm32f4xx_rcc.c ****     RCC->APB2RSTR |= RCC_APB2Periph;
 1289              		.loc 1 1416 0
 1290 0014 1043     		orrs	r0, r0, r2	@, D.6783, RCC_APB2Periph, D.6782
 1291              	.LVL127:
 1292 0016 5862     		str	r0, [r3, #36]	@ D.6783,
 1293 0018 7047     		bx	lr	@
 1294              		.cfi_endproc
 1295              	.LFE143:
 1296              		.size	RCC_APB2PeriphResetCmd, .-RCC_APB2PeriphResetCmd
 1297 001a 00BF     		.section	.text.RCC_AHB1PeriphClockLPModeCmd,"ax",%progbits
 1298              		.align	2
 1299              		.global	RCC_AHB1PeriphClockLPModeCmd
 1300              		.thumb
 1301              		.thumb_func
 1302              		.type	RCC_AHB1PeriphClockLPModeCmd, %function
 1303              	RCC_AHB1PeriphClockLPModeCmd:
 1304              	.LFB144:
ARM GAS  C:\Users\CNous\AppData\Local\Temp\ccJl4JfT.s 			page 57


1456:cmsis/device/stm32f4xx_rcc.c **** {
 1305              		.loc 1 1456 0
 1306              		.cfi_startproc
 1307              		@ args = 0, pretend = 0, frame = 0
 1308              		@ frame_needed = 0, uses_anonymous_args = 0
 1309              		@ link register save eliminated.
 1310              	.LVL128:
1462:cmsis/device/stm32f4xx_rcc.c ****     RCC->AHB1LPENR |= RCC_AHB1Periph;
 1311              		.loc 1 1462 0
 1312 0000 4FF46053 		mov	r3, #14336	@ tmp141,
 1313 0004 C4F20203 		movt	r3, 16386	@ tmp141,
 1314 0008 1A6D     		ldr	r2, [r3, #80]	@ D.6773,
1460:cmsis/device/stm32f4xx_rcc.c ****   if (NewState != DISABLE)
 1315              		.loc 1 1460 0
 1316 000a 19B9     		cbnz	r1, .L91	@ NewState,
1466:cmsis/device/stm32f4xx_rcc.c ****     RCC->AHB1LPENR &= ~RCC_AHB1Periph;
 1317              		.loc 1 1466 0
 1318 000c 22EA0000 		bic	r0, r2, r0	@ D.6778, D.6776, RCC_AHB1Periph
 1319              	.LVL129:
 1320 0010 1865     		str	r0, [r3, #80]	@ D.6778,
 1321 0012 7047     		bx	lr	@
 1322              	.LVL130:
 1323              	.L91:
1462:cmsis/device/stm32f4xx_rcc.c ****     RCC->AHB1LPENR |= RCC_AHB1Periph;
 1324              		.loc 1 1462 0
 1325 0014 1043     		orrs	r0, r0, r2	@, D.6774, RCC_AHB1Periph, D.6773
 1326              	.LVL131:
 1327 0016 1865     		str	r0, [r3, #80]	@ D.6774,
 1328 0018 7047     		bx	lr	@
 1329              		.cfi_endproc
 1330              	.LFE144:
 1331              		.size	RCC_AHB1PeriphClockLPModeCmd, .-RCC_AHB1PeriphClockLPModeCmd
 1332 001a 00BF     		.section	.text.RCC_AHB2PeriphClockLPModeCmd,"ax",%progbits
 1333              		.align	2
 1334              		.global	RCC_AHB2PeriphClockLPModeCmd
 1335              		.thumb
 1336              		.thumb_func
 1337              		.type	RCC_AHB2PeriphClockLPModeCmd, %function
 1338              	RCC_AHB2PeriphClockLPModeCmd:
 1339              	.LFB145:
1488:cmsis/device/stm32f4xx_rcc.c **** {
 1340              		.loc 1 1488 0
 1341              		.cfi_startproc
 1342              		@ args = 0, pretend = 0, frame = 0
 1343              		@ frame_needed = 0, uses_anonymous_args = 0
 1344              		@ link register save eliminated.
 1345              	.LVL132:
1494:cmsis/device/stm32f4xx_rcc.c ****     RCC->AHB2LPENR |= RCC_AHB2Periph;
 1346              		.loc 1 1494 0
 1347 0000 4FF46053 		mov	r3, #14336	@ tmp141,
 1348 0004 C4F20203 		movt	r3, 16386	@ tmp141,
 1349 0008 5A6D     		ldr	r2, [r3, #84]	@ D.6764,
1492:cmsis/device/stm32f4xx_rcc.c ****   if (NewState != DISABLE)
 1350              		.loc 1 1492 0
 1351 000a 19B9     		cbnz	r1, .L95	@ NewState,
1498:cmsis/device/stm32f4xx_rcc.c ****     RCC->AHB2LPENR &= ~RCC_AHB2Periph;
 1352              		.loc 1 1498 0
ARM GAS  C:\Users\CNous\AppData\Local\Temp\ccJl4JfT.s 			page 58


 1353 000c 22EA0000 		bic	r0, r2, r0	@ D.6769, D.6767, RCC_AHB2Periph
 1354              	.LVL133:
 1355 0010 5865     		str	r0, [r3, #84]	@ D.6769,
 1356 0012 7047     		bx	lr	@
 1357              	.LVL134:
 1358              	.L95:
1494:cmsis/device/stm32f4xx_rcc.c ****     RCC->AHB2LPENR |= RCC_AHB2Periph;
 1359              		.loc 1 1494 0
 1360 0014 1043     		orrs	r0, r0, r2	@, D.6765, RCC_AHB2Periph, D.6764
 1361              	.LVL135:
 1362 0016 5865     		str	r0, [r3, #84]	@ D.6765,
 1363 0018 7047     		bx	lr	@
 1364              		.cfi_endproc
 1365              	.LFE145:
 1366              		.size	RCC_AHB2PeriphClockLPModeCmd, .-RCC_AHB2PeriphClockLPModeCmd
 1367 001a 00BF     		.section	.text.RCC_AHB3PeriphClockLPModeCmd,"ax",%progbits
 1368              		.align	2
 1369              		.global	RCC_AHB3PeriphClockLPModeCmd
 1370              		.thumb
 1371              		.thumb_func
 1372              		.type	RCC_AHB3PeriphClockLPModeCmd, %function
 1373              	RCC_AHB3PeriphClockLPModeCmd:
 1374              	.LFB146:
1515:cmsis/device/stm32f4xx_rcc.c **** {
 1375              		.loc 1 1515 0
 1376              		.cfi_startproc
 1377              		@ args = 0, pretend = 0, frame = 0
 1378              		@ frame_needed = 0, uses_anonymous_args = 0
 1379              		@ link register save eliminated.
 1380              	.LVL136:
1521:cmsis/device/stm32f4xx_rcc.c ****     RCC->AHB3LPENR |= RCC_AHB3Periph;
 1381              		.loc 1 1521 0
 1382 0000 4FF46053 		mov	r3, #14336	@ tmp141,
 1383 0004 C4F20203 		movt	r3, 16386	@ tmp141,
 1384 0008 9A6D     		ldr	r2, [r3, #88]	@ D.6755,
1519:cmsis/device/stm32f4xx_rcc.c ****   if (NewState != DISABLE)
 1385              		.loc 1 1519 0
 1386 000a 19B9     		cbnz	r1, .L99	@ NewState,
1525:cmsis/device/stm32f4xx_rcc.c ****     RCC->AHB3LPENR &= ~RCC_AHB3Periph;
 1387              		.loc 1 1525 0
 1388 000c 22EA0000 		bic	r0, r2, r0	@ D.6760, D.6758, RCC_AHB3Periph
 1389              	.LVL137:
 1390 0010 9865     		str	r0, [r3, #88]	@ D.6760,
 1391 0012 7047     		bx	lr	@
 1392              	.LVL138:
 1393              	.L99:
1521:cmsis/device/stm32f4xx_rcc.c ****     RCC->AHB3LPENR |= RCC_AHB3Periph;
 1394              		.loc 1 1521 0
 1395 0014 1043     		orrs	r0, r0, r2	@, D.6756, RCC_AHB3Periph, D.6755
 1396              	.LVL139:
 1397 0016 9865     		str	r0, [r3, #88]	@ D.6756,
 1398 0018 7047     		bx	lr	@
 1399              		.cfi_endproc
 1400              	.LFE146:
 1401              		.size	RCC_AHB3PeriphClockLPModeCmd, .-RCC_AHB3PeriphClockLPModeCmd
 1402 001a 00BF     		.section	.text.RCC_APB1PeriphClockLPModeCmd,"ax",%progbits
 1403              		.align	2
ARM GAS  C:\Users\CNous\AppData\Local\Temp\ccJl4JfT.s 			page 59


 1404              		.global	RCC_APB1PeriphClockLPModeCmd
 1405              		.thumb
 1406              		.thumb_func
 1407              		.type	RCC_APB1PeriphClockLPModeCmd, %function
 1408              	RCC_APB1PeriphClockLPModeCmd:
 1409              	.LFB147:
1565:cmsis/device/stm32f4xx_rcc.c **** {
 1410              		.loc 1 1565 0
 1411              		.cfi_startproc
 1412              		@ args = 0, pretend = 0, frame = 0
 1413              		@ frame_needed = 0, uses_anonymous_args = 0
 1414              		@ link register save eliminated.
 1415              	.LVL140:
1571:cmsis/device/stm32f4xx_rcc.c ****     RCC->APB1LPENR |= RCC_APB1Periph;
 1416              		.loc 1 1571 0
 1417 0000 4FF46053 		mov	r3, #14336	@ tmp141,
 1418 0004 C4F20203 		movt	r3, 16386	@ tmp141,
 1419 0008 1A6E     		ldr	r2, [r3, #96]	@ D.6746,
1569:cmsis/device/stm32f4xx_rcc.c ****   if (NewState != DISABLE)
 1420              		.loc 1 1569 0
 1421 000a 19B9     		cbnz	r1, .L103	@ NewState,
1575:cmsis/device/stm32f4xx_rcc.c ****     RCC->APB1LPENR &= ~RCC_APB1Periph;
 1422              		.loc 1 1575 0
 1423 000c 22EA0000 		bic	r0, r2, r0	@ D.6751, D.6749, RCC_APB1Periph
 1424              	.LVL141:
 1425 0010 1866     		str	r0, [r3, #96]	@ D.6751,
 1426 0012 7047     		bx	lr	@
 1427              	.LVL142:
 1428              	.L103:
1571:cmsis/device/stm32f4xx_rcc.c ****     RCC->APB1LPENR |= RCC_APB1Periph;
 1429              		.loc 1 1571 0
 1430 0014 1043     		orrs	r0, r0, r2	@, D.6747, RCC_APB1Periph, D.6746
 1431              	.LVL143:
 1432 0016 1866     		str	r0, [r3, #96]	@ D.6747,
 1433 0018 7047     		bx	lr	@
 1434              		.cfi_endproc
 1435              	.LFE147:
 1436              		.size	RCC_APB1PeriphClockLPModeCmd, .-RCC_APB1PeriphClockLPModeCmd
 1437 001a 00BF     		.section	.text.RCC_APB2PeriphClockLPModeCmd,"ax",%progbits
 1438              		.align	2
 1439              		.global	RCC_APB2PeriphClockLPModeCmd
 1440              		.thumb
 1441              		.thumb_func
 1442              		.type	RCC_APB2PeriphClockLPModeCmd, %function
 1443              	RCC_APB2PeriphClockLPModeCmd:
 1444              	.LFB148:
1605:cmsis/device/stm32f4xx_rcc.c **** {
 1445              		.loc 1 1605 0
 1446              		.cfi_startproc
 1447              		@ args = 0, pretend = 0, frame = 0
 1448              		@ frame_needed = 0, uses_anonymous_args = 0
 1449              		@ link register save eliminated.
 1450              	.LVL144:
1611:cmsis/device/stm32f4xx_rcc.c ****     RCC->APB2LPENR |= RCC_APB2Periph;
 1451              		.loc 1 1611 0
 1452 0000 4FF46053 		mov	r3, #14336	@ tmp141,
 1453 0004 C4F20203 		movt	r3, 16386	@ tmp141,
ARM GAS  C:\Users\CNous\AppData\Local\Temp\ccJl4JfT.s 			page 60


 1454 0008 5A6E     		ldr	r2, [r3, #100]	@ D.6737,
1609:cmsis/device/stm32f4xx_rcc.c ****   if (NewState != DISABLE)
 1455              		.loc 1 1609 0
 1456 000a 19B9     		cbnz	r1, .L107	@ NewState,
1615:cmsis/device/stm32f4xx_rcc.c ****     RCC->APB2LPENR &= ~RCC_APB2Periph;
 1457              		.loc 1 1615 0
 1458 000c 22EA0000 		bic	r0, r2, r0	@ D.6742, D.6740, RCC_APB2Periph
 1459              	.LVL145:
 1460 0010 5866     		str	r0, [r3, #100]	@ D.6742,
 1461 0012 7047     		bx	lr	@
 1462              	.LVL146:
 1463              	.L107:
1611:cmsis/device/stm32f4xx_rcc.c ****     RCC->APB2LPENR |= RCC_APB2Periph;
 1464              		.loc 1 1611 0
 1465 0014 1043     		orrs	r0, r0, r2	@, D.6738, RCC_APB2Periph, D.6737
 1466              	.LVL147:
 1467 0016 5866     		str	r0, [r3, #100]	@ D.6738,
 1468 0018 7047     		bx	lr	@
 1469              		.cfi_endproc
 1470              	.LFE148:
 1471              		.size	RCC_APB2PeriphClockLPModeCmd, .-RCC_APB2PeriphClockLPModeCmd
 1472 001a 00BF     		.section	.text.RCC_ITConfig,"ax",%progbits
 1473              		.align	2
 1474              		.global	RCC_ITConfig
 1475              		.thumb
 1476              		.thumb_func
 1477              		.type	RCC_ITConfig, %function
 1478              	RCC_ITConfig:
 1479              	.LFB149:
1650:cmsis/device/stm32f4xx_rcc.c **** {
 1480              		.loc 1 1650 0
 1481              		.cfi_startproc
 1482              		@ args = 0, pretend = 0, frame = 0
 1483              		@ frame_needed = 0, uses_anonymous_args = 0
 1484              		@ link register save eliminated.
 1485              	.LVL148:
1657:cmsis/device/stm32f4xx_rcc.c ****     *(__IO uint8_t *) CIR_BYTE2_ADDRESS |= RCC_IT;
 1486              		.loc 1 1657 0
 1487 0000 43F60D03 		movw	r3, #14349	@ tmp141,
 1488 0004 C4F20203 		movt	r3, 16386	@ tmp141,
 1489 0008 1A78     		ldrb	r2, [r3, #0]	@ zero_extendqisi2	@ MEM[(volatile uint8_t *)1073887245B],
1654:cmsis/device/stm32f4xx_rcc.c ****   if (NewState != DISABLE)
 1490              		.loc 1 1654 0
 1491 000a 19B9     		cbnz	r1, .L111	@ NewState,
1662:cmsis/device/stm32f4xx_rcc.c ****     *(__IO uint8_t *) CIR_BYTE2_ADDRESS &= (uint8_t)~RCC_IT;
 1492              		.loc 1 1662 0
 1493 000c 22EA0000 		bic	r0, r2, r0	@ D.6733, MEM[(volatile uint8_t *)1073887245B], RCC_IT
 1494              	.LVL149:
 1495 0010 1870     		strb	r0, [r3, #0]	@ D.6733,
 1496 0012 7047     		bx	lr	@
 1497              	.LVL150:
 1498              	.L111:
1657:cmsis/device/stm32f4xx_rcc.c ****     *(__IO uint8_t *) CIR_BYTE2_ADDRESS |= RCC_IT;
 1499              		.loc 1 1657 0
 1500 0014 1043     		orrs	r0, r0, r2	@, D.6729, RCC_IT, MEM[(volatile uint8_t *)1073887245B]
 1501              	.LVL151:
 1502 0016 1870     		strb	r0, [r3, #0]	@ D.6729,
ARM GAS  C:\Users\CNous\AppData\Local\Temp\ccJl4JfT.s 			page 61


 1503 0018 7047     		bx	lr	@
 1504              		.cfi_endproc
 1505              	.LFE149:
 1506              		.size	RCC_ITConfig, .-RCC_ITConfig
 1507 001a 00BF     		.section	.text.RCC_GetFlagStatus,"ax",%progbits
 1508              		.align	2
 1509              		.global	RCC_GetFlagStatus
 1510              		.thumb
 1511              		.thumb_func
 1512              		.type	RCC_GetFlagStatus, %function
 1513              	RCC_GetFlagStatus:
 1514              	.LFB150:
1686:cmsis/device/stm32f4xx_rcc.c **** {
 1515              		.loc 1 1686 0
 1516              		.cfi_startproc
 1517              		@ args = 0, pretend = 0, frame = 0
 1518              		@ frame_needed = 0, uses_anonymous_args = 0
 1519              		@ link register save eliminated.
 1520              	.LVL152:
1695:cmsis/device/stm32f4xx_rcc.c ****   tmp = RCC_FLAG >> 5;
 1521              		.loc 1 1695 0
 1522 0000 4309     		lsrs	r3, r0, #5	@ tmp, RCC_FLAG,
 1523              	.LVL153:
1696:cmsis/device/stm32f4xx_rcc.c ****   if (tmp == 1)               /* The flag to check is in CR register */
 1524              		.loc 1 1696 0
 1525 0002 012B     		cmp	r3, #1	@ tmp,
 1526 0004 0ED0     		beq	.L116	@,
1702:cmsis/device/stm32f4xx_rcc.c ****     statusreg = RCC->BDCR;
 1527              		.loc 1 1702 0
 1528 0006 4FF46051 		mov	r1, #14336	@ tmp155,
 1529 000a C4F20201 		movt	r1, 16386	@ tmp155,
1700:cmsis/device/stm32f4xx_rcc.c ****   else if (tmp == 2)          /* The flag to check is in BDCR register */
 1530              		.loc 1 1700 0
 1531 000e 022B     		cmp	r3, #2	@ tmp,
1702:cmsis/device/stm32f4xx_rcc.c ****     statusreg = RCC->BDCR;
 1532              		.loc 1 1702 0
 1533 0010 0CBF     		ite	eq
 1534 0012 096F     		ldreq	r1, [r1, #112]	@ statusreg, MEM[(struct RCC_TypeDef *)1073887232B].BDCR
 1535              	.LVL154:
1706:cmsis/device/stm32f4xx_rcc.c ****     statusreg = RCC->CSR;
 1536              		.loc 1 1706 0
 1537 0014 496F     		ldrne	r1, [r1, #116]	@ statusreg, MEM[(struct RCC_TypeDef *)1073887232B].CSR
 1538              	.LVL155:
 1539              	.L114:
 1540              		.loc 1 1711 0
 1541 0016 00F01F00 		and	r0, r0, #31	@ tmp159, RCC_FLAG,
 1542              	.LVL156:
 1543 001a 21FA00F3 		lsr	r3, r1, r0	@ tmp160, statusreg, tmp159
1712:cmsis/device/stm32f4xx_rcc.c ****   {
1713:cmsis/device/stm32f4xx_rcc.c ****     bitstatus = SET;
1714:cmsis/device/stm32f4xx_rcc.c ****   }
1715:cmsis/device/stm32f4xx_rcc.c ****   else
1716:cmsis/device/stm32f4xx_rcc.c ****   {
1717:cmsis/device/stm32f4xx_rcc.c ****     bitstatus = RESET;
1718:cmsis/device/stm32f4xx_rcc.c ****   }
1719:cmsis/device/stm32f4xx_rcc.c ****   /* Return the flag status */
1720:cmsis/device/stm32f4xx_rcc.c ****   return bitstatus;
ARM GAS  C:\Users\CNous\AppData\Local\Temp\ccJl4JfT.s 			page 62


1721:cmsis/device/stm32f4xx_rcc.c **** }
 1544              		.loc 1 1721 0
 1545 001e 03F00100 		and	r0, r3, #1	@, tmp160,
 1546 0022 7047     		bx	lr	@
 1547              	.LVL157:
 1548              	.L116:
1698:cmsis/device/stm32f4xx_rcc.c ****     statusreg = RCC->CR;
 1549              		.loc 1 1698 0
 1550 0024 4FF46052 		mov	r2, #14336	@ tmp154,
 1551 0028 C4F20202 		movt	r2, 16386	@ tmp154,
 1552 002c 1168     		ldr	r1, [r2, #0]	@ statusreg, MEM[(struct RCC_TypeDef *)1073887232B].CR
 1553              	.LVL158:
 1554 002e F2E7     		b	.L114	@
 1555              		.cfi_endproc
 1556              	.LFE150:
 1557              		.size	RCC_GetFlagStatus, .-RCC_GetFlagStatus
 1558              		.section	.text.RCC_ClearFlag,"ax",%progbits
 1559              		.align	2
 1560              		.global	RCC_ClearFlag
 1561              		.thumb
 1562              		.thumb_func
 1563              		.type	RCC_ClearFlag, %function
 1564              	RCC_ClearFlag:
 1565              	.LFB151:
1722:cmsis/device/stm32f4xx_rcc.c **** 
1723:cmsis/device/stm32f4xx_rcc.c **** /**
1724:cmsis/device/stm32f4xx_rcc.c ****   * @brief  Clears the RCC reset flags.
1725:cmsis/device/stm32f4xx_rcc.c ****   *         The reset flags are: RCC_FLAG_PINRST, RCC_FLAG_PORRST,  RCC_FLAG_SFTRST,
1726:cmsis/device/stm32f4xx_rcc.c ****   *         RCC_FLAG_IWDGRST, RCC_FLAG_WWDGRST, RCC_FLAG_LPWRRST
1727:cmsis/device/stm32f4xx_rcc.c ****   * @param  None
1728:cmsis/device/stm32f4xx_rcc.c ****   * @retval None
1729:cmsis/device/stm32f4xx_rcc.c ****   */
1730:cmsis/device/stm32f4xx_rcc.c **** void RCC_ClearFlag(void)
1731:cmsis/device/stm32f4xx_rcc.c **** {
 1566              		.loc 1 1731 0
 1567              		.cfi_startproc
 1568              		@ args = 0, pretend = 0, frame = 0
 1569              		@ frame_needed = 0, uses_anonymous_args = 0
 1570              		@ link register save eliminated.
1732:cmsis/device/stm32f4xx_rcc.c ****   /* Set RMVF bit to clear the reset flags */
1733:cmsis/device/stm32f4xx_rcc.c ****   RCC->CSR |= RCC_CSR_RMVF;
 1571              		.loc 1 1733 0
 1572 0000 4FF46053 		mov	r3, #14336	@ tmp136,
 1573 0004 C4F20203 		movt	r3, 16386	@ tmp136,
 1574 0008 5A6F     		ldr	r2, [r3, #116]	@ D.6706, MEM[(struct RCC_TypeDef *)1073887232B].CSR
 1575 000a 42F08070 		orr	r0, r2, #16777216	@ D.6707, D.6706,
 1576 000e 5867     		str	r0, [r3, #116]	@ D.6707, MEM[(struct RCC_TypeDef *)1073887232B].CSR
 1577 0010 7047     		bx	lr	@
 1578              		.cfi_endproc
 1579              	.LFE151:
 1580              		.size	RCC_ClearFlag, .-RCC_ClearFlag
 1581 0012 00BF     		.section	.text.RCC_GetITStatus,"ax",%progbits
 1582              		.align	2
 1583              		.global	RCC_GetITStatus
 1584              		.thumb
 1585              		.thumb_func
 1586              		.type	RCC_GetITStatus, %function
ARM GAS  C:\Users\CNous\AppData\Local\Temp\ccJl4JfT.s 			page 63


 1587              	RCC_GetITStatus:
 1588              	.LFB152:
1734:cmsis/device/stm32f4xx_rcc.c **** }
1735:cmsis/device/stm32f4xx_rcc.c **** 
1736:cmsis/device/stm32f4xx_rcc.c **** /**
1737:cmsis/device/stm32f4xx_rcc.c ****   * @brief  Checks whether the specified RCC interrupt has occurred or not.
1738:cmsis/device/stm32f4xx_rcc.c ****   * @param  RCC_IT: specifies the RCC interrupt source to check.
1739:cmsis/device/stm32f4xx_rcc.c ****   *          This parameter can be one of the following values:
1740:cmsis/device/stm32f4xx_rcc.c ****   *            @arg RCC_IT_LSIRDY: LSI ready interrupt
1741:cmsis/device/stm32f4xx_rcc.c ****   *            @arg RCC_IT_LSERDY: LSE ready interrupt
1742:cmsis/device/stm32f4xx_rcc.c ****   *            @arg RCC_IT_HSIRDY: HSI ready interrupt
1743:cmsis/device/stm32f4xx_rcc.c ****   *            @arg RCC_IT_HSERDY: HSE ready interrupt
1744:cmsis/device/stm32f4xx_rcc.c ****   *            @arg RCC_IT_PLLRDY: main PLL ready interrupt
1745:cmsis/device/stm32f4xx_rcc.c ****   *            @arg RCC_IT_PLLI2SRDY: PLLI2S ready interrupt  
1746:cmsis/device/stm32f4xx_rcc.c ****   *            @arg RCC_IT_CSS: Clock Security System interrupt
1747:cmsis/device/stm32f4xx_rcc.c ****   * @retval The new state of RCC_IT (SET or RESET).
1748:cmsis/device/stm32f4xx_rcc.c ****   */
1749:cmsis/device/stm32f4xx_rcc.c **** ITStatus RCC_GetITStatus(uint8_t RCC_IT)
1750:cmsis/device/stm32f4xx_rcc.c **** {
 1589              		.loc 1 1750 0
 1590              		.cfi_startproc
 1591              		@ args = 0, pretend = 0, frame = 0
 1592              		@ frame_needed = 0, uses_anonymous_args = 0
 1593              		@ link register save eliminated.
 1594              	.LVL159:
1751:cmsis/device/stm32f4xx_rcc.c ****   ITStatus bitstatus = RESET;
1752:cmsis/device/stm32f4xx_rcc.c **** 
1753:cmsis/device/stm32f4xx_rcc.c ****   /* Check the parameters */
1754:cmsis/device/stm32f4xx_rcc.c ****   assert_param(IS_RCC_GET_IT(RCC_IT));
1755:cmsis/device/stm32f4xx_rcc.c **** 
1756:cmsis/device/stm32f4xx_rcc.c ****   /* Check the status of the specified RCC interrupt */
1757:cmsis/device/stm32f4xx_rcc.c ****   if ((RCC->CIR & RCC_IT) != (uint32_t)RESET)
 1595              		.loc 1 1757 0
 1596 0000 4FF46053 		mov	r3, #14336	@ tmp141,
 1597 0004 C4F20203 		movt	r3, 16386	@ tmp141,
 1598 0008 D968     		ldr	r1, [r3, #12]	@ D.6697, MEM[(struct RCC_TypeDef *)1073887232B].CIR
 1599              	.LVL160:
 1600 000a 0842     		tst	r0, r1	@ RCC_IT, D.6697
1758:cmsis/device/stm32f4xx_rcc.c ****   {
1759:cmsis/device/stm32f4xx_rcc.c ****     bitstatus = SET;
1760:cmsis/device/stm32f4xx_rcc.c ****   }
1761:cmsis/device/stm32f4xx_rcc.c ****   else
1762:cmsis/device/stm32f4xx_rcc.c ****   {
1763:cmsis/device/stm32f4xx_rcc.c ****     bitstatus = RESET;
1764:cmsis/device/stm32f4xx_rcc.c ****   }
1765:cmsis/device/stm32f4xx_rcc.c ****   /* Return the RCC_IT status */
1766:cmsis/device/stm32f4xx_rcc.c ****   return  bitstatus;
1767:cmsis/device/stm32f4xx_rcc.c **** }
 1601              		.loc 1 1767 0
 1602 000c 0CBF     		ite	eq	@
 1603 000e 0020     		moveq	r0, #0	@,
 1604 0010 0120     		movne	r0, #1	@,
 1605              	.LVL161:
 1606 0012 7047     		bx	lr	@
 1607              		.cfi_endproc
 1608              	.LFE152:
 1609              		.size	RCC_GetITStatus, .-RCC_GetITStatus
ARM GAS  C:\Users\CNous\AppData\Local\Temp\ccJl4JfT.s 			page 64


 1610              		.section	.text.RCC_ClearITPendingBit,"ax",%progbits
 1611              		.align	2
 1612              		.global	RCC_ClearITPendingBit
 1613              		.thumb
 1614              		.thumb_func
 1615              		.type	RCC_ClearITPendingBit, %function
 1616              	RCC_ClearITPendingBit:
 1617              	.LFB153:
1768:cmsis/device/stm32f4xx_rcc.c **** 
1769:cmsis/device/stm32f4xx_rcc.c **** /**
1770:cmsis/device/stm32f4xx_rcc.c ****   * @brief  Clears the RCC's interrupt pending bits.
1771:cmsis/device/stm32f4xx_rcc.c ****   * @param  RCC_IT: specifies the interrupt pending bit to clear.
1772:cmsis/device/stm32f4xx_rcc.c ****   *          This parameter can be any combination of the following values:
1773:cmsis/device/stm32f4xx_rcc.c ****   *            @arg RCC_IT_LSIRDY: LSI ready interrupt
1774:cmsis/device/stm32f4xx_rcc.c ****   *            @arg RCC_IT_LSERDY: LSE ready interrupt
1775:cmsis/device/stm32f4xx_rcc.c ****   *            @arg RCC_IT_HSIRDY: HSI ready interrupt
1776:cmsis/device/stm32f4xx_rcc.c ****   *            @arg RCC_IT_HSERDY: HSE ready interrupt
1777:cmsis/device/stm32f4xx_rcc.c ****   *            @arg RCC_IT_PLLRDY: main PLL ready interrupt
1778:cmsis/device/stm32f4xx_rcc.c ****   *            @arg RCC_IT_PLLI2SRDY: PLLI2S ready interrupt  
1779:cmsis/device/stm32f4xx_rcc.c ****   *            @arg RCC_IT_CSS: Clock Security System interrupt
1780:cmsis/device/stm32f4xx_rcc.c ****   * @retval None
1781:cmsis/device/stm32f4xx_rcc.c ****   */
1782:cmsis/device/stm32f4xx_rcc.c **** void RCC_ClearITPendingBit(uint8_t RCC_IT)
1783:cmsis/device/stm32f4xx_rcc.c **** {
 1618              		.loc 1 1783 0
 1619              		.cfi_startproc
 1620              		@ args = 0, pretend = 0, frame = 0
 1621              		@ frame_needed = 0, uses_anonymous_args = 0
 1622              		@ link register save eliminated.
 1623              	.LVL162:
1784:cmsis/device/stm32f4xx_rcc.c ****   /* Check the parameters */
1785:cmsis/device/stm32f4xx_rcc.c ****   assert_param(IS_RCC_CLEAR_IT(RCC_IT));
1786:cmsis/device/stm32f4xx_rcc.c **** 
1787:cmsis/device/stm32f4xx_rcc.c ****   /* Perform Byte access to RCC_CIR[23:16] bits to clear the selected interrupt
1788:cmsis/device/stm32f4xx_rcc.c ****      pending bits */
1789:cmsis/device/stm32f4xx_rcc.c ****   *(__IO uint8_t *) CIR_BYTE3_ADDRESS = RCC_IT;
 1624              		.loc 1 1789 0
 1625 0000 43F60E03 		movw	r3, #14350	@ tmp135,
 1626 0004 C4F20203 		movt	r3, 16386	@ tmp135,
 1627 0008 1870     		strb	r0, [r3, #0]	@ RCC_IT, MEM[(volatile uint8_t *)1073887246B]
 1628 000a 7047     		bx	lr	@
 1629              		.cfi_endproc
 1630              	.LFE153:
 1631              		.size	RCC_ClearITPendingBit, .-RCC_ClearITPendingBit
 1632              		.section	.data.APBAHBPrescTable,"aw",%progbits
 1633              		.align	2
 1634              		.set	.LANCHOR0,. + 0
 1635              		.type	APBAHBPrescTable, %object
 1636              		.size	APBAHBPrescTable, 16
 1637              	APBAHBPrescTable:
 1638 0000 00       		.byte	0
 1639 0001 00       		.byte	0
 1640 0002 00       		.byte	0
 1641 0003 00       		.byte	0
 1642 0004 01       		.byte	1
 1643 0005 02       		.byte	2
 1644 0006 03       		.byte	3
ARM GAS  C:\Users\CNous\AppData\Local\Temp\ccJl4JfT.s 			page 65


 1645 0007 04       		.byte	4
 1646 0008 01       		.byte	1
 1647 0009 02       		.byte	2
 1648 000a 03       		.byte	3
 1649 000b 04       		.byte	4
 1650 000c 06       		.byte	6
 1651 000d 07       		.byte	7
 1652 000e 08       		.byte	8
 1653 000f 09       		.byte	9
 1654              		.text
 1655              	.Letext0:
 1656              		.file 2 "c:\\gnutoolsarmembedded\\4.7-2012q4\\bin\\../lib/gcc/arm-none-eabi/4.7.3/../../../../arm-
 1657              		.file 3 "cmsis/device/stm32f4xx.h"
 1658              		.file 4 "cmsis/device/stm32f4xx_rcc.h"
 1659              		.file 5 "./cmsis/core/core_cm4.h"