ARM GAS  C:\Users\CNous\AppData\Local\Temp\ccAbLTzy.s 			page 1


   1              		.syntax unified
   2              		.cpu cortex-m4
   3              		.eabi_attribute 27, 3	@ Tag_ABI_HardFP_use
   4              		.eabi_attribute 28, 1	@ Tag_ABI_VFP_args
   5              		.fpu fpv4-sp-d16
   6              		.eabi_attribute 20, 1	@ Tag_ABI_FP_denormal
   7              		.eabi_attribute 21, 1	@ Tag_ABI_FP_exceptions
   8              		.eabi_attribute 23, 3	@ Tag_ABI_FP_number_model
   9              		.eabi_attribute 24, 1	@ Tag_ABI_align8_needed
  10              		.eabi_attribute 25, 1	@ Tag_ABI_align8_preserved
  11              		.eabi_attribute 26, 1	@ Tag_ABI_enum_size
  12              		.eabi_attribute 30, 2	@ Tag_ABI_optimization_goals
  13              		.eabi_attribute 34, 1	@ Tag_CPU_unaligned_access
  14              		.eabi_attribute 18, 4	@ Tag_ABI_PCS_wchar_t
  15              		.file	"stm32f4xx_dac.c"
  16              	@ GNU C (GNU Tools for ARM Embedded Processors) version 4.7.3 20121207 (release) [ARM/embedded-4_7-
  17              	@	compiled by GNU C version 4.2.1-sjlj (mingw32-2), GMP version 4.3.2, MPFR version 2.4.2, MPC vers
  18              	@ GGC heuristics: --param ggc-min-expand=100 --param ggc-min-heapsize=131072
  19              	@ options passed:  -I . -I ./inc -I ./cmsis/core -I ./cmsis/device
  20              	@ -imultilib armv7e-m/fpu
  21              	@ -iprefix c:\gnutoolsarmembedded\4.7-2012q4\bin\../lib/gcc/arm-none-eabi/4.7.3/
  22              	@ -isysroot c:\gnutoolsarmembedded\4.7-2012q4\bin\../arm-none-eabi
  23              	@ -MD cmsis/device/stm32f4xx_dac.d -MF .dep/stm32f4xx_dac.o.d -MP
  24              	@ -MQ cmsis/device/stm32f4xx_dac.o -D__USES_INITFINI__ -D __FPU_USED=1
  25              	@ -D __arm__ -D __ASSEMBLY__ -D USE_STDPERIPH_DRIVER -D STM32F4XX
  26              	@ -D HSE_VALUE=8000000 -D __FPU_PRESENT=1 -D STM32F407VG
  27              	@ -D RUN_FROM_FLASH=1 cmsis/device/stm32f4xx_dac.c -mthumb -mcpu=cortex-m4
  28              	@ -mfloat-abi=hard -mfpu=fpv4-sp-d16
  29              	@ -auxbase-strip cmsis/device/stm32f4xx_dac.o -gdwarf-2 -O2 -Wall
  30              	@ -Wstrict-prototypes -fverbose-asm -ffunction-sections -fdata-sections
  31              	@ options enabled:  -fauto-inc-dec -fbranch-count-reg -fcaller-saves
  32              	@ -fcombine-stack-adjustments -fcommon -fcompare-elim -fcprop-registers
  33              	@ -fcrossjumping -fcse-follow-jumps -fdata-sections -fdebug-types-section
  34              	@ -fdefer-pop -fdelete-null-pointer-checks -fdevirtualize -fdwarf2-cfi-asm
  35              	@ -fearly-inlining -feliminate-unused-debug-types -fexpensive-optimizations
  36              	@ -fforward-propagate -ffunction-cse -ffunction-sections -fgcse -fgcse-lm
  37              	@ -fgnu-runtime -fguess-branch-probability -fident -fif-conversion
  38              	@ -fif-conversion2 -findirect-inlining -finline -finline-atomics
  39              	@ -finline-functions-called-once -finline-small-functions -fipa-cp
  40              	@ -fipa-profile -fipa-pure-const -fipa-reference -fipa-sra
  41              	@ -fira-share-save-slots -fira-share-spill-slots -fivopts
  42              	@ -fkeep-static-consts -fleading-underscore -fmath-errno -fmerge-constants
  43              	@ -fmerge-debug-strings -fmove-loop-invariants -fomit-frame-pointer
  44              	@ -foptimize-register-move -foptimize-sibling-calls -foptimize-strlen
  45              	@ -fpartial-inlining -fpeephole -fpeephole2 -fprefetch-loop-arrays
  46              	@ -freg-struct-return -fregmove -frename-registers -freorder-blocks
  47              	@ -freorder-functions -frerun-cse-after-loop
  48              	@ -fsched-critical-path-heuristic -fsched-dep-count-heuristic
  49              	@ -fsched-group-heuristic -fsched-interblock -fsched-last-insn-heuristic
  50              	@ -fsched-rank-heuristic -fsched-spec -fsched-spec-insn-heuristic
  51              	@ -fsched-stalled-insns-dep -fschedule-insns -fschedule-insns2
  52              	@ -fsection-anchors -fshow-column -fshrink-wrap -fsigned-zeros
  53              	@ -fsplit-ivs-in-unroller -fsplit-wide-types -fstrict-aliasing
  54              	@ -fstrict-overflow -fstrict-volatile-bitfields -fthread-jumps
  55              	@ -ftoplevel-reorder -ftrapping-math -ftree-bit-ccp -ftree-builtin-call-dce
  56              	@ -ftree-ccp -ftree-ch -ftree-copy-prop -ftree-copyrename -ftree-cselim
  57              	@ -ftree-dce -ftree-dominator-opts -ftree-dse -ftree-forwprop -ftree-fre
ARM GAS  C:\Users\CNous\AppData\Local\Temp\ccAbLTzy.s 			page 2


  58              	@ -ftree-loop-if-convert -ftree-loop-im -ftree-loop-ivcanon
  59              	@ -ftree-loop-optimize -ftree-parallelize-loops= -ftree-phiprop -ftree-pre
  60              	@ -ftree-pta -ftree-reassoc -ftree-scev-cprop -ftree-sink
  61              	@ -ftree-slp-vectorize -ftree-sra -ftree-switch-conversion
  62              	@ -ftree-tail-merge -ftree-ter -ftree-vect-loop-version -ftree-vrp
  63              	@ -funit-at-a-time -funroll-loops -fvar-tracking -fvar-tracking-assignments
  64              	@ -fverbose-asm -fweb -fzero-initialized-in-bss -mlittle-endian
  65              	@ -msched-prolog -mthumb -munaligned-access -mvectorize-with-neon-quad
  66              	
  67              		.text
  68              	.Ltext0:
  69              		.cfi_sections	.debug_frame
  70              		.section	.text.DAC_DeInit,"ax",%progbits
  71              		.align	2
  72              		.global	DAC_DeInit
  73              		.thumb
  74              		.thumb_func
  75              		.type	DAC_DeInit, %function
  76              	DAC_DeInit:
  77              	.LFB110:
  78              		.file 1 "cmsis/device/stm32f4xx_dac.c"
   1:cmsis/device/stm32f4xx_dac.c **** /**
   2:cmsis/device/stm32f4xx_dac.c ****   ******************************************************************************
   3:cmsis/device/stm32f4xx_dac.c ****   * @file    stm32f4xx_dac.c
   4:cmsis/device/stm32f4xx_dac.c ****   * @author  MCD Application Team
   5:cmsis/device/stm32f4xx_dac.c ****   * @version V1.0.0
   6:cmsis/device/stm32f4xx_dac.c ****   * @date    30-September-2011
   7:cmsis/device/stm32f4xx_dac.c ****    * @brief   This file provides firmware functions to manage the following 
   8:cmsis/device/stm32f4xx_dac.c ****   *          functionalities of the Digital-to-Analog Converter (DAC) peripheral: 
   9:cmsis/device/stm32f4xx_dac.c ****   *           - DAC channels configuration: trigger, output buffer, data format
  10:cmsis/device/stm32f4xx_dac.c ****   *           - DMA management      
  11:cmsis/device/stm32f4xx_dac.c ****   *           - Interrupts and flags management
  12:cmsis/device/stm32f4xx_dac.c ****   *
  13:cmsis/device/stm32f4xx_dac.c ****   *  @verbatim
  14:cmsis/device/stm32f4xx_dac.c ****   *    
  15:cmsis/device/stm32f4xx_dac.c ****   *          ===================================================================
  16:cmsis/device/stm32f4xx_dac.c ****   *                             DAC Peripheral features
  17:cmsis/device/stm32f4xx_dac.c ****   *          ===================================================================
  18:cmsis/device/stm32f4xx_dac.c ****   *          
  19:cmsis/device/stm32f4xx_dac.c ****   *          DAC Channels
  20:cmsis/device/stm32f4xx_dac.c ****   *          =============  
  21:cmsis/device/stm32f4xx_dac.c ****   *          The device integrates two 12-bit Digital Analog Converters that can 
  22:cmsis/device/stm32f4xx_dac.c ****   *          be used independently or simultaneously (dual mode):
  23:cmsis/device/stm32f4xx_dac.c ****   *            1- DAC channel1 with DAC_OUT1 (PA4) as output
  24:cmsis/device/stm32f4xx_dac.c ****   *            1- DAC channel2 with DAC_OUT2 (PA5) as output
  25:cmsis/device/stm32f4xx_dac.c ****   *
  26:cmsis/device/stm32f4xx_dac.c ****   *          DAC Triggers
  27:cmsis/device/stm32f4xx_dac.c ****   *          =============
  28:cmsis/device/stm32f4xx_dac.c ****   *          Digital to Analog conversion can be non-triggered using DAC_Trigger_None
  29:cmsis/device/stm32f4xx_dac.c ****   *          and DAC_OUT1/DAC_OUT2 is available once writing to DHRx register 
  30:cmsis/device/stm32f4xx_dac.c ****   *          using DAC_SetChannel1Data() / DAC_SetChannel2Data() functions.
  31:cmsis/device/stm32f4xx_dac.c ****   *   
  32:cmsis/device/stm32f4xx_dac.c ****   *         Digital to Analog conversion can be triggered by:
  33:cmsis/device/stm32f4xx_dac.c ****   *             1- External event: EXTI Line 9 (any GPIOx_Pin9) using DAC_Trigger_Ext_IT9.
  34:cmsis/device/stm32f4xx_dac.c ****   *                The used pin (GPIOx_Pin9) must be configured in input mode.
  35:cmsis/device/stm32f4xx_dac.c ****   *
  36:cmsis/device/stm32f4xx_dac.c ****   *             2- Timers TRGO: TIM2, TIM4, TIM5, TIM6, TIM7 and TIM8 
ARM GAS  C:\Users\CNous\AppData\Local\Temp\ccAbLTzy.s 			page 3


  37:cmsis/device/stm32f4xx_dac.c ****   *                (DAC_Trigger_T2_TRGO, DAC_Trigger_T4_TRGO...)
  38:cmsis/device/stm32f4xx_dac.c ****   *                The timer TRGO event should be selected using TIM_SelectOutputTrigger()
  39:cmsis/device/stm32f4xx_dac.c ****   *
  40:cmsis/device/stm32f4xx_dac.c ****   *             3- Software using DAC_Trigger_Software
  41:cmsis/device/stm32f4xx_dac.c ****   *
  42:cmsis/device/stm32f4xx_dac.c ****   *          DAC Buffer mode feature
  43:cmsis/device/stm32f4xx_dac.c ****   *          ========================  
  44:cmsis/device/stm32f4xx_dac.c ****   *          Each DAC channel integrates an output buffer that can be used to 
  45:cmsis/device/stm32f4xx_dac.c ****   *          reduce the output impedance, and to drive external loads directly
  46:cmsis/device/stm32f4xx_dac.c ****   *          without having to add an external operational amplifier.
  47:cmsis/device/stm32f4xx_dac.c ****   *          To enable, the output buffer use  
  48:cmsis/device/stm32f4xx_dac.c ****   *              DAC_InitStructure.DAC_OutputBuffer = DAC_OutputBuffer_Enable;
  49:cmsis/device/stm32f4xx_dac.c ****   *          
  50:cmsis/device/stm32f4xx_dac.c ****   *          Refer to the device datasheet for more details about output 
  51:cmsis/device/stm32f4xx_dac.c ****   *          impedance value with and without output buffer.
  52:cmsis/device/stm32f4xx_dac.c ****   *          
  53:cmsis/device/stm32f4xx_dac.c ****   *          DAC wave generation feature
  54:cmsis/device/stm32f4xx_dac.c ****   *          =============================      
  55:cmsis/device/stm32f4xx_dac.c ****   *          Both DAC channels can be used to generate
  56:cmsis/device/stm32f4xx_dac.c ****   *             1- Noise wave using DAC_WaveGeneration_Noise
  57:cmsis/device/stm32f4xx_dac.c ****   *             2- Triangle wave using DAC_WaveGeneration_Triangle
  58:cmsis/device/stm32f4xx_dac.c ****   *        
  59:cmsis/device/stm32f4xx_dac.c ****   *          Wave generation can be disabled using DAC_WaveGeneration_None
  60:cmsis/device/stm32f4xx_dac.c ****   *
  61:cmsis/device/stm32f4xx_dac.c ****   *          DAC data format
  62:cmsis/device/stm32f4xx_dac.c ****   *          ================   
  63:cmsis/device/stm32f4xx_dac.c ****   *          The DAC data format can be:
  64:cmsis/device/stm32f4xx_dac.c ****   *             1- 8-bit right alignment using DAC_Align_8b_R
  65:cmsis/device/stm32f4xx_dac.c ****   *             2- 12-bit left alignment using DAC_Align_12b_L
  66:cmsis/device/stm32f4xx_dac.c ****   *             3- 12-bit right alignment using DAC_Align_12b_R
  67:cmsis/device/stm32f4xx_dac.c ****   *
  68:cmsis/device/stm32f4xx_dac.c ****   *          DAC data value to voltage correspondence  
  69:cmsis/device/stm32f4xx_dac.c ****   *          ========================================  
  70:cmsis/device/stm32f4xx_dac.c ****   *          The analog output voltage on each DAC channel pin is determined
  71:cmsis/device/stm32f4xx_dac.c ****   *          by the following equation: 
  72:cmsis/device/stm32f4xx_dac.c ****   *          DAC_OUTx = VREF+ * DOR / 4095
  73:cmsis/device/stm32f4xx_dac.c ****   *          with  DOR is the Data Output Register
  74:cmsis/device/stm32f4xx_dac.c ****   *                VEF+ is the input voltage reference (refer to the device datasheet)
  75:cmsis/device/stm32f4xx_dac.c ****   *          e.g. To set DAC_OUT1 to 0.7V, use
  76:cmsis/device/stm32f4xx_dac.c ****   *            DAC_SetChannel1Data(DAC_Align_12b_R, 868);
  77:cmsis/device/stm32f4xx_dac.c ****   *          Assuming that VREF+ = 3.3V, DAC_OUT1 = (3.3 * 868) / 4095 = 0.7V
  78:cmsis/device/stm32f4xx_dac.c ****   *
  79:cmsis/device/stm32f4xx_dac.c ****   *          DMA requests 
  80:cmsis/device/stm32f4xx_dac.c ****   *          =============    
  81:cmsis/device/stm32f4xx_dac.c ****   *          A DMA1 request can be generated when an external trigger (but not
  82:cmsis/device/stm32f4xx_dac.c ****   *          a software trigger) occurs if DMA1 requests are enabled using
  83:cmsis/device/stm32f4xx_dac.c ****   *          DAC_DMACmd()
  84:cmsis/device/stm32f4xx_dac.c ****   *          DMA1 requests are mapped as following:
  85:cmsis/device/stm32f4xx_dac.c ****   *             1- DAC channel1 : mapped on DMA1 Stream5 channel7 which must be 
  86:cmsis/device/stm32f4xx_dac.c ****   *                               already configured
  87:cmsis/device/stm32f4xx_dac.c ****   *             2- DAC channel2 : mapped on DMA1 Stream6 channel7 which must be 
  88:cmsis/device/stm32f4xx_dac.c ****   *                               already configured
  89:cmsis/device/stm32f4xx_dac.c ****   *
  90:cmsis/device/stm32f4xx_dac.c ****   *          ===================================================================      
  91:cmsis/device/stm32f4xx_dac.c ****   *                              How to use this driver 
  92:cmsis/device/stm32f4xx_dac.c ****   *          ===================================================================          
  93:cmsis/device/stm32f4xx_dac.c ****   *            - DAC APB clock must be enabled to get write access to DAC
ARM GAS  C:\Users\CNous\AppData\Local\Temp\ccAbLTzy.s 			page 4


  94:cmsis/device/stm32f4xx_dac.c ****   *              registers using
  95:cmsis/device/stm32f4xx_dac.c ****   *              RCC_APB1PeriphClockCmd(RCC_APB1Periph_DAC, ENABLE)
  96:cmsis/device/stm32f4xx_dac.c ****   *            - Configure DAC_OUTx (DAC_OUT1: PA4, DAC_OUT2: PA5) in analog mode.
  97:cmsis/device/stm32f4xx_dac.c ****   *            - Configure the DAC channel using DAC_Init() function
  98:cmsis/device/stm32f4xx_dac.c ****   *            - Enable the DAC channel using DAC_Cmd() function
  99:cmsis/device/stm32f4xx_dac.c ****   * 
 100:cmsis/device/stm32f4xx_dac.c ****   *  @endverbatim
 101:cmsis/device/stm32f4xx_dac.c ****   *    
 102:cmsis/device/stm32f4xx_dac.c ****   ******************************************************************************
 103:cmsis/device/stm32f4xx_dac.c ****   * @attention
 104:cmsis/device/stm32f4xx_dac.c ****   *
 105:cmsis/device/stm32f4xx_dac.c ****   * THE PRESENT FIRMWARE WHICH IS FOR GUIDANCE ONLY AIMS AT PROVIDING CUSTOMERS
 106:cmsis/device/stm32f4xx_dac.c ****   * WITH CODING INFORMATION REGARDING THEIR PRODUCTS IN ORDER FOR THEM TO SAVE
 107:cmsis/device/stm32f4xx_dac.c ****   * TIME. AS A RESULT, STMICROELECTRONICS SHALL NOT BE HELD LIABLE FOR ANY
 108:cmsis/device/stm32f4xx_dac.c ****   * DIRECT, INDIRECT OR CONSEQUENTIAL DAMAGES WITH RESPECT TO ANY CLAIMS ARISING
 109:cmsis/device/stm32f4xx_dac.c ****   * FROM THE CONTENT OF SUCH FIRMWARE AND/OR THE USE MADE BY CUSTOMERS OF THE
 110:cmsis/device/stm32f4xx_dac.c ****   * CODING INFORMATION CONTAINED HEREIN IN CONNECTION WITH THEIR PRODUCTS.
 111:cmsis/device/stm32f4xx_dac.c ****   *
 112:cmsis/device/stm32f4xx_dac.c ****   * <h2><center>&copy; COPYRIGHT 2011 STMicroelectronics</center></h2>
 113:cmsis/device/stm32f4xx_dac.c ****   ******************************************************************************  
 114:cmsis/device/stm32f4xx_dac.c ****   */ 
 115:cmsis/device/stm32f4xx_dac.c **** 
 116:cmsis/device/stm32f4xx_dac.c **** 
 117:cmsis/device/stm32f4xx_dac.c **** /* Includes ------------------------------------------------------------------*/
 118:cmsis/device/stm32f4xx_dac.c **** #include "stm32f4xx_dac.h"
 119:cmsis/device/stm32f4xx_dac.c **** #include "stm32f4xx_rcc.h"
 120:cmsis/device/stm32f4xx_dac.c **** 
 121:cmsis/device/stm32f4xx_dac.c **** /** @addtogroup STM32F4xx_StdPeriph_Driver
 122:cmsis/device/stm32f4xx_dac.c ****   * @{
 123:cmsis/device/stm32f4xx_dac.c ****   */
 124:cmsis/device/stm32f4xx_dac.c **** 
 125:cmsis/device/stm32f4xx_dac.c **** /** @defgroup DAC 
 126:cmsis/device/stm32f4xx_dac.c ****   * @brief DAC driver modules
 127:cmsis/device/stm32f4xx_dac.c ****   * @{
 128:cmsis/device/stm32f4xx_dac.c ****   */ 
 129:cmsis/device/stm32f4xx_dac.c **** 
 130:cmsis/device/stm32f4xx_dac.c **** /* Private typedef -----------------------------------------------------------*/
 131:cmsis/device/stm32f4xx_dac.c **** /* Private define ------------------------------------------------------------*/
 132:cmsis/device/stm32f4xx_dac.c **** 
 133:cmsis/device/stm32f4xx_dac.c **** /* CR register Mask */
 134:cmsis/device/stm32f4xx_dac.c **** #define CR_CLEAR_MASK              ((uint32_t)0x00000FFE)
 135:cmsis/device/stm32f4xx_dac.c **** 
 136:cmsis/device/stm32f4xx_dac.c **** /* DAC Dual Channels SWTRIG masks */
 137:cmsis/device/stm32f4xx_dac.c **** #define DUAL_SWTRIG_SET            ((uint32_t)0x00000003)
 138:cmsis/device/stm32f4xx_dac.c **** #define DUAL_SWTRIG_RESET          ((uint32_t)0xFFFFFFFC)
 139:cmsis/device/stm32f4xx_dac.c **** 
 140:cmsis/device/stm32f4xx_dac.c **** /* DHR registers offsets */
 141:cmsis/device/stm32f4xx_dac.c **** #define DHR12R1_OFFSET             ((uint32_t)0x00000008)
 142:cmsis/device/stm32f4xx_dac.c **** #define DHR12R2_OFFSET             ((uint32_t)0x00000014)
 143:cmsis/device/stm32f4xx_dac.c **** #define DHR12RD_OFFSET             ((uint32_t)0x00000020)
 144:cmsis/device/stm32f4xx_dac.c **** 
 145:cmsis/device/stm32f4xx_dac.c **** /* DOR register offset */
 146:cmsis/device/stm32f4xx_dac.c **** #define DOR_OFFSET                 ((uint32_t)0x0000002C)
 147:cmsis/device/stm32f4xx_dac.c **** 
 148:cmsis/device/stm32f4xx_dac.c **** /* Private macro -------------------------------------------------------------*/
 149:cmsis/device/stm32f4xx_dac.c **** /* Private variables ---------------------------------------------------------*/
 150:cmsis/device/stm32f4xx_dac.c **** /* Private function prototypes -----------------------------------------------*/
ARM GAS  C:\Users\CNous\AppData\Local\Temp\ccAbLTzy.s 			page 5


 151:cmsis/device/stm32f4xx_dac.c **** /* Private functions ---------------------------------------------------------*/
 152:cmsis/device/stm32f4xx_dac.c **** 
 153:cmsis/device/stm32f4xx_dac.c **** /** @defgroup DAC_Private_Functions
 154:cmsis/device/stm32f4xx_dac.c ****   * @{
 155:cmsis/device/stm32f4xx_dac.c ****   */
 156:cmsis/device/stm32f4xx_dac.c **** 
 157:cmsis/device/stm32f4xx_dac.c **** /** @defgroup DAC_Group1 DAC channels configuration
 158:cmsis/device/stm32f4xx_dac.c ****  *  @brief   DAC channels configuration: trigger, output buffer, data format 
 159:cmsis/device/stm32f4xx_dac.c ****  *
 160:cmsis/device/stm32f4xx_dac.c **** @verbatim   
 161:cmsis/device/stm32f4xx_dac.c ****  ===============================================================================
 162:cmsis/device/stm32f4xx_dac.c ****           DAC channels configuration: trigger, output buffer, data format
 163:cmsis/device/stm32f4xx_dac.c ****  ===============================================================================  
 164:cmsis/device/stm32f4xx_dac.c **** 
 165:cmsis/device/stm32f4xx_dac.c **** @endverbatim
 166:cmsis/device/stm32f4xx_dac.c ****   * @{
 167:cmsis/device/stm32f4xx_dac.c ****   */
 168:cmsis/device/stm32f4xx_dac.c **** 
 169:cmsis/device/stm32f4xx_dac.c **** /**
 170:cmsis/device/stm32f4xx_dac.c ****   * @brief  Deinitializes the DAC peripheral registers to their default reset values.
 171:cmsis/device/stm32f4xx_dac.c ****   * @param  None
 172:cmsis/device/stm32f4xx_dac.c ****   * @retval None
 173:cmsis/device/stm32f4xx_dac.c ****   */
 174:cmsis/device/stm32f4xx_dac.c **** void DAC_DeInit(void)
 175:cmsis/device/stm32f4xx_dac.c **** {
  79              		.loc 1 175 0
  80              		.cfi_startproc
  81              		@ args = 0, pretend = 0, frame = 0
  82              		@ frame_needed = 0, uses_anonymous_args = 0
  83 0000 08B5     		push	{r3, lr}	@
  84              	.LCFI0:
  85              		.cfi_def_cfa_offset 8
  86              		.cfi_offset 3, -8
  87              		.cfi_offset 14, -4
 176:cmsis/device/stm32f4xx_dac.c ****   /* Enable DAC reset state */
 177:cmsis/device/stm32f4xx_dac.c ****   RCC_APB1PeriphResetCmd(RCC_APB1Periph_DAC, ENABLE);
  88              		.loc 1 177 0
  89 0002 0121     		movs	r1, #1	@,
  90 0004 4FF00050 		mov	r0, #536870912	@,
  91 0008 FFF7FEFF 		bl	RCC_APB1PeriphResetCmd	@
  92              	.LVL0:
 178:cmsis/device/stm32f4xx_dac.c ****   /* Release DAC from reset state */
 179:cmsis/device/stm32f4xx_dac.c ****   RCC_APB1PeriphResetCmd(RCC_APB1Periph_DAC, DISABLE);
  93              		.loc 1 179 0
  94 000c 4FF00050 		mov	r0, #536870912	@,
  95 0010 0021     		movs	r1, #0	@,
 180:cmsis/device/stm32f4xx_dac.c **** }
  96              		.loc 1 180 0
  97 0012 BDE80840 		pop	{r3, lr}	@
 179:cmsis/device/stm32f4xx_dac.c ****   RCC_APB1PeriphResetCmd(RCC_APB1Periph_DAC, DISABLE);
  98              		.loc 1 179 0
  99 0016 FFF7FEBF 		b	RCC_APB1PeriphResetCmd	@
 100              	.LVL1:
 101              		.cfi_endproc
 102              	.LFE110:
 103              		.size	DAC_DeInit, .-DAC_DeInit
 104 001a 00BF     		.section	.text.DAC_Init,"ax",%progbits
ARM GAS  C:\Users\CNous\AppData\Local\Temp\ccAbLTzy.s 			page 6


 105              		.align	2
 106              		.global	DAC_Init
 107              		.thumb
 108              		.thumb_func
 109              		.type	DAC_Init, %function
 110              	DAC_Init:
 111              	.LFB111:
 181:cmsis/device/stm32f4xx_dac.c **** 
 182:cmsis/device/stm32f4xx_dac.c **** /**
 183:cmsis/device/stm32f4xx_dac.c ****   * @brief  Initializes the DAC peripheral according to the specified parameters
 184:cmsis/device/stm32f4xx_dac.c ****   *         in the DAC_InitStruct.
 185:cmsis/device/stm32f4xx_dac.c ****   * @param  DAC_Channel: the selected DAC channel. 
 186:cmsis/device/stm32f4xx_dac.c ****   *          This parameter can be one of the following values:
 187:cmsis/device/stm32f4xx_dac.c ****   *            @arg DAC_Channel_1: DAC Channel1 selected
 188:cmsis/device/stm32f4xx_dac.c ****   *            @arg DAC_Channel_2: DAC Channel2 selected
 189:cmsis/device/stm32f4xx_dac.c ****   * @param  DAC_InitStruct: pointer to a DAC_InitTypeDef structure that contains
 190:cmsis/device/stm32f4xx_dac.c ****   *         the configuration information for the  specified DAC channel.
 191:cmsis/device/stm32f4xx_dac.c ****   * @retval None
 192:cmsis/device/stm32f4xx_dac.c ****   */
 193:cmsis/device/stm32f4xx_dac.c **** void DAC_Init(uint32_t DAC_Channel, DAC_InitTypeDef* DAC_InitStruct)
 194:cmsis/device/stm32f4xx_dac.c **** {
 112              		.loc 1 194 0
 113              		.cfi_startproc
 114              		@ args = 0, pretend = 0, frame = 0
 115              		@ frame_needed = 0, uses_anonymous_args = 0
 116              		@ link register save eliminated.
 117              	.LVL2:
 118 0000 70B4     		push	{r4, r5, r6}	@
 119              	.LCFI1:
 120              		.cfi_def_cfa_offset 12
 121              		.cfi_offset 4, -12
 122              		.cfi_offset 5, -8
 123              		.cfi_offset 6, -4
 195:cmsis/device/stm32f4xx_dac.c ****   uint32_t tmpreg1 = 0, tmpreg2 = 0;
 196:cmsis/device/stm32f4xx_dac.c **** 
 197:cmsis/device/stm32f4xx_dac.c ****   /* Check the DAC parameters */
 198:cmsis/device/stm32f4xx_dac.c ****   assert_param(IS_DAC_TRIGGER(DAC_InitStruct->DAC_Trigger));
 199:cmsis/device/stm32f4xx_dac.c ****   assert_param(IS_DAC_GENERATE_WAVE(DAC_InitStruct->DAC_WaveGeneration));
 200:cmsis/device/stm32f4xx_dac.c ****   assert_param(IS_DAC_LFSR_UNMASK_TRIANGLE_AMPLITUDE(DAC_InitStruct->DAC_LFSRUnmask_TriangleAmplitu
 201:cmsis/device/stm32f4xx_dac.c ****   assert_param(IS_DAC_OUTPUT_BUFFER_STATE(DAC_InitStruct->DAC_OutputBuffer));
 202:cmsis/device/stm32f4xx_dac.c **** 
 203:cmsis/device/stm32f4xx_dac.c **** /*---------------------------- DAC CR Configuration --------------------------*/
 204:cmsis/device/stm32f4xx_dac.c ****   /* Get the DAC CR value */
 205:cmsis/device/stm32f4xx_dac.c ****   tmpreg1 = DAC->CR;
 206:cmsis/device/stm32f4xx_dac.c ****   /* Clear BOFFx, TENx, TSELx, WAVEx and MAMPx bits */
 207:cmsis/device/stm32f4xx_dac.c ****   tmpreg1 &= ~(CR_CLEAR_MASK << DAC_Channel);
 208:cmsis/device/stm32f4xx_dac.c ****   /* Configure for the selected DAC channel: buffer output, trigger, 
 209:cmsis/device/stm32f4xx_dac.c ****      wave generation, mask/amplitude for wave generation */
 210:cmsis/device/stm32f4xx_dac.c ****   /* Set TSELx and TENx bits according to DAC_Trigger value */
 211:cmsis/device/stm32f4xx_dac.c ****   /* Set WAVEx bits according to DAC_WaveGeneration value */
 212:cmsis/device/stm32f4xx_dac.c ****   /* Set MAMPx bits according to DAC_LFSRUnmask_TriangleAmplitude value */ 
 213:cmsis/device/stm32f4xx_dac.c ****   /* Set BOFFx bit according to DAC_OutputBuffer value */   
 214:cmsis/device/stm32f4xx_dac.c ****   tmpreg2 = (DAC_InitStruct->DAC_Trigger | DAC_InitStruct->DAC_WaveGeneration |
 124              		.loc 1 214 0
 125 0002 91E86000 		ldmia	r1, {r5, r6}	@ DAC_InitStruct,,
 205:cmsis/device/stm32f4xx_dac.c ****   tmpreg1 = DAC->CR;
 126              		.loc 1 205 0
ARM GAS  C:\Users\CNous\AppData\Local\Temp\ccAbLTzy.s 			page 7


 127 0006 4FF4E843 		mov	r3, #29696	@ tmp150,
 128              		.loc 1 214 0
 129 000a 8C68     		ldr	r4, [r1, #8]	@ DAC_InitStruct_10(D)->DAC_LFSRUnmask_TriangleAmplitude, DAC_InitStruct_10(D)->D
 130 000c CA68     		ldr	r2, [r1, #12]	@ DAC_InitStruct_10(D)->DAC_OutputBuffer, DAC_InitStruct_10(D)->DAC_OutputBuffer
 205:cmsis/device/stm32f4xx_dac.c ****   tmpreg1 = DAC->CR;
 131              		.loc 1 205 0
 132 000e C4F20003 		movt	r3, 16384	@ tmp150,
 133              		.loc 1 214 0
 134 0012 46EA0501 		orr	r1, r6, r5	@ tmp154, DAC_InitStruct_10(D)->DAC_WaveGeneration, DAC_InitStruct_10(D)->DAC_Trigg
 135              	.LVL3:
 136 0016 0C43     		orrs	r4, r4, r1	@, tmp157, DAC_InitStruct_10(D)->DAC_LFSRUnmask_TriangleAmplitude, tmp154
 205:cmsis/device/stm32f4xx_dac.c ****   tmpreg1 = DAC->CR;
 137              		.loc 1 205 0
 138 0018 1E68     		ldr	r6, [r3, #0]	@ tmpreg1, MEM[(struct DAC_TypeDef *)1073771520B].CR
 139              	.LVL4:
 207:cmsis/device/stm32f4xx_dac.c ****   tmpreg1 &= ~(CR_CLEAR_MASK << DAC_Channel);
 140              		.loc 1 207 0
 141 001a 40F6FE75 		movw	r5, #4094	@ tmp152,
 142 001e 05FA00F5 		lsl	r5, r5, r0	@ tmp151, tmp152, DAC_Channel
 143              		.loc 1 214 0
 144 0022 2243     		orrs	r2, r2, r4	@, tmp159, DAC_InitStruct_10(D)->DAC_OutputBuffer, tmp157
 207:cmsis/device/stm32f4xx_dac.c ****   tmpreg1 &= ~(CR_CLEAR_MASK << DAC_Channel);
 145              		.loc 1 207 0
 146 0024 26EA0505 		bic	r5, r6, r5	@ tmpreg1, tmpreg1, tmp151
 147              	.LVL5:
 215:cmsis/device/stm32f4xx_dac.c ****              DAC_InitStruct->DAC_LFSRUnmask_TriangleAmplitude | \
 216:cmsis/device/stm32f4xx_dac.c ****              DAC_InitStruct->DAC_OutputBuffer);
 217:cmsis/device/stm32f4xx_dac.c ****   /* Calculate CR register value depending on DAC_Channel */
 218:cmsis/device/stm32f4xx_dac.c ****   tmpreg1 |= tmpreg2 << DAC_Channel;
 148              		.loc 1 218 0
 149 0028 02FA00F0 		lsl	r0, r2, r0	@ tmp161, tmp159, DAC_Channel
 150              	.LVL6:
 151 002c 45EA0001 		orr	r1, r5, r0	@ tmpreg1, tmpreg1, tmp161
 152              	.LVL7:
 219:cmsis/device/stm32f4xx_dac.c ****   /* Write to DAC CR */
 220:cmsis/device/stm32f4xx_dac.c ****   DAC->CR = tmpreg1;
 153              		.loc 1 220 0
 154 0030 1960     		str	r1, [r3, #0]	@ tmpreg1, MEM[(struct DAC_TypeDef *)1073771520B].CR
 221:cmsis/device/stm32f4xx_dac.c **** }
 155              		.loc 1 221 0
 156 0032 70BC     		pop	{r4, r5, r6}
 157 0034 7047     		bx	lr
 158              		.cfi_endproc
 159              	.LFE111:
 160              		.size	DAC_Init, .-DAC_Init
 161 0036 00BF     		.section	.text.DAC_StructInit,"ax",%progbits
 162              		.align	2
 163              		.global	DAC_StructInit
 164              		.thumb
 165              		.thumb_func
 166              		.type	DAC_StructInit, %function
 167              	DAC_StructInit:
 168              	.LFB112:
 222:cmsis/device/stm32f4xx_dac.c **** 
 223:cmsis/device/stm32f4xx_dac.c **** /**
 224:cmsis/device/stm32f4xx_dac.c ****   * @brief  Fills each DAC_InitStruct member with its default value.
 225:cmsis/device/stm32f4xx_dac.c ****   * @param  DAC_InitStruct: pointer to a DAC_InitTypeDef structure which will 
ARM GAS  C:\Users\CNous\AppData\Local\Temp\ccAbLTzy.s 			page 8


 226:cmsis/device/stm32f4xx_dac.c ****   *         be initialized.
 227:cmsis/device/stm32f4xx_dac.c ****   * @retval None
 228:cmsis/device/stm32f4xx_dac.c ****   */
 229:cmsis/device/stm32f4xx_dac.c **** void DAC_StructInit(DAC_InitTypeDef* DAC_InitStruct)
 230:cmsis/device/stm32f4xx_dac.c **** {
 169              		.loc 1 230 0
 170              		.cfi_startproc
 171              		@ args = 0, pretend = 0, frame = 0
 172              		@ frame_needed = 0, uses_anonymous_args = 0
 173              		@ link register save eliminated.
 174              	.LVL8:
 231:cmsis/device/stm32f4xx_dac.c **** /*--------------- Reset DAC init structure parameters values -----------------*/
 232:cmsis/device/stm32f4xx_dac.c ****   /* Initialize the DAC_Trigger member */
 233:cmsis/device/stm32f4xx_dac.c ****   DAC_InitStruct->DAC_Trigger = DAC_Trigger_None;
 175              		.loc 1 233 0
 176 0000 0023     		movs	r3, #0	@ tmp135,
 177 0002 0360     		str	r3, [r0, #0]	@ tmp135, DAC_InitStruct_1(D)->DAC_Trigger
 234:cmsis/device/stm32f4xx_dac.c ****   /* Initialize the DAC_WaveGeneration member */
 235:cmsis/device/stm32f4xx_dac.c ****   DAC_InitStruct->DAC_WaveGeneration = DAC_WaveGeneration_None;
 178              		.loc 1 235 0
 179 0004 4360     		str	r3, [r0, #4]	@ tmp135, DAC_InitStruct_1(D)->DAC_WaveGeneration
 236:cmsis/device/stm32f4xx_dac.c ****   /* Initialize the DAC_LFSRUnmask_TriangleAmplitude member */
 237:cmsis/device/stm32f4xx_dac.c ****   DAC_InitStruct->DAC_LFSRUnmask_TriangleAmplitude = DAC_LFSRUnmask_Bit0;
 180              		.loc 1 237 0
 181 0006 8360     		str	r3, [r0, #8]	@ tmp135, DAC_InitStruct_1(D)->DAC_LFSRUnmask_TriangleAmplitude
 238:cmsis/device/stm32f4xx_dac.c ****   /* Initialize the DAC_OutputBuffer member */
 239:cmsis/device/stm32f4xx_dac.c ****   DAC_InitStruct->DAC_OutputBuffer = DAC_OutputBuffer_Enable;
 182              		.loc 1 239 0
 183 0008 C360     		str	r3, [r0, #12]	@ tmp135, DAC_InitStruct_1(D)->DAC_OutputBuffer
 184 000a 7047     		bx	lr	@
 185              		.cfi_endproc
 186              	.LFE112:
 187              		.size	DAC_StructInit, .-DAC_StructInit
 188              		.section	.text.DAC_Cmd,"ax",%progbits
 189              		.align	2
 190              		.global	DAC_Cmd
 191              		.thumb
 192              		.thumb_func
 193              		.type	DAC_Cmd, %function
 194              	DAC_Cmd:
 195              	.LFB113:
 240:cmsis/device/stm32f4xx_dac.c **** }
 241:cmsis/device/stm32f4xx_dac.c **** 
 242:cmsis/device/stm32f4xx_dac.c **** /**
 243:cmsis/device/stm32f4xx_dac.c ****   * @brief  Enables or disables the specified DAC channel.
 244:cmsis/device/stm32f4xx_dac.c ****   * @param  DAC_Channel: The selected DAC channel. 
 245:cmsis/device/stm32f4xx_dac.c ****   *          This parameter can be one of the following values:
 246:cmsis/device/stm32f4xx_dac.c ****   *            @arg DAC_Channel_1: DAC Channel1 selected
 247:cmsis/device/stm32f4xx_dac.c ****   *            @arg DAC_Channel_2: DAC Channel2 selected
 248:cmsis/device/stm32f4xx_dac.c ****   * @param  NewState: new state of the DAC channel. 
 249:cmsis/device/stm32f4xx_dac.c ****   *          This parameter can be: ENABLE or DISABLE.
 250:cmsis/device/stm32f4xx_dac.c ****   * @note   When the DAC channel is enabled the trigger source can no more be modified.
 251:cmsis/device/stm32f4xx_dac.c ****   * @retval None
 252:cmsis/device/stm32f4xx_dac.c ****   */
 253:cmsis/device/stm32f4xx_dac.c **** void DAC_Cmd(uint32_t DAC_Channel, FunctionalState NewState)
 254:cmsis/device/stm32f4xx_dac.c **** {
 196              		.loc 1 254 0
ARM GAS  C:\Users\CNous\AppData\Local\Temp\ccAbLTzy.s 			page 9


 197              		.cfi_startproc
 198              		@ args = 0, pretend = 0, frame = 0
 199              		@ frame_needed = 0, uses_anonymous_args = 0
 200              		@ link register save eliminated.
 201              	.LVL9:
 255:cmsis/device/stm32f4xx_dac.c ****   /* Check the parameters */
 256:cmsis/device/stm32f4xx_dac.c ****   assert_param(IS_DAC_CHANNEL(DAC_Channel));
 257:cmsis/device/stm32f4xx_dac.c ****   assert_param(IS_FUNCTIONAL_STATE(NewState));
 258:cmsis/device/stm32f4xx_dac.c **** 
 259:cmsis/device/stm32f4xx_dac.c ****   if (NewState != DISABLE)
 260:cmsis/device/stm32f4xx_dac.c ****   {
 261:cmsis/device/stm32f4xx_dac.c ****     /* Enable the selected DAC channel */
 262:cmsis/device/stm32f4xx_dac.c ****     DAC->CR |= (DAC_CR_EN1 << DAC_Channel);
 202              		.loc 1 262 0
 203 0000 4FF4E843 		mov	r3, #29696	@ tmp145,
 204 0004 C4F20003 		movt	r3, 16384	@ tmp145,
 205 0008 1A68     		ldr	r2, [r3, #0]	@ D.6698,
 259:cmsis/device/stm32f4xx_dac.c ****   if (NewState != DISABLE)
 206              		.loc 1 259 0
 207 000a 31B9     		cbnz	r1, .L8	@ NewState,
 263:cmsis/device/stm32f4xx_dac.c ****   }
 264:cmsis/device/stm32f4xx_dac.c ****   else
 265:cmsis/device/stm32f4xx_dac.c ****   {
 266:cmsis/device/stm32f4xx_dac.c ****     /* Disable the selected DAC channel */
 267:cmsis/device/stm32f4xx_dac.c ****     DAC->CR &= (~(DAC_CR_EN1 << DAC_Channel));
 208              		.loc 1 267 0
 209 000c 0121     		movs	r1, #1	@ tmp151,
 210              	.LVL10:
 211 000e 01FA00F0 		lsl	r0, r1, r0	@ tmp150, tmp151, DAC_Channel
 212              	.LVL11:
 213 0012 22EA0002 		bic	r2, r2, r0	@ D.6705, D.6703, tmp150
 214 0016 1A60     		str	r2, [r3, #0]	@ D.6705,
 215 0018 7047     		bx	lr	@
 216              	.LVL12:
 217              	.L8:
 262:cmsis/device/stm32f4xx_dac.c ****     DAC->CR |= (DAC_CR_EN1 << DAC_Channel);
 218              		.loc 1 262 0
 219 001a 0121     		movs	r1, #1	@ tmp147,
 220              	.LVL13:
 221 001c 01FA00F0 		lsl	r0, r1, r0	@ tmp146, tmp147, DAC_Channel
 222              	.LVL14:
 223 0020 1043     		orrs	r0, r0, r2	@, D.6701, tmp146, D.6698
 224 0022 1860     		str	r0, [r3, #0]	@ D.6701,
 225 0024 7047     		bx	lr	@
 226              		.cfi_endproc
 227              	.LFE113:
 228              		.size	DAC_Cmd, .-DAC_Cmd
 229 0026 00BF     		.section	.text.DAC_SoftwareTriggerCmd,"ax",%progbits
 230              		.align	2
 231              		.global	DAC_SoftwareTriggerCmd
 232              		.thumb
 233              		.thumb_func
 234              		.type	DAC_SoftwareTriggerCmd, %function
 235              	DAC_SoftwareTriggerCmd:
 236              	.LFB114:
 268:cmsis/device/stm32f4xx_dac.c ****   }
 269:cmsis/device/stm32f4xx_dac.c **** }
ARM GAS  C:\Users\CNous\AppData\Local\Temp\ccAbLTzy.s 			page 10


 270:cmsis/device/stm32f4xx_dac.c **** 
 271:cmsis/device/stm32f4xx_dac.c **** /**
 272:cmsis/device/stm32f4xx_dac.c ****   * @brief  Enables or disables the selected DAC channel software trigger.
 273:cmsis/device/stm32f4xx_dac.c ****   * @param  DAC_Channel: The selected DAC channel. 
 274:cmsis/device/stm32f4xx_dac.c ****   *          This parameter can be one of the following values:
 275:cmsis/device/stm32f4xx_dac.c ****   *            @arg DAC_Channel_1: DAC Channel1 selected
 276:cmsis/device/stm32f4xx_dac.c ****   *            @arg DAC_Channel_2: DAC Channel2 selected
 277:cmsis/device/stm32f4xx_dac.c ****   * @param  NewState: new state of the selected DAC channel software trigger.
 278:cmsis/device/stm32f4xx_dac.c ****   *          This parameter can be: ENABLE or DISABLE.
 279:cmsis/device/stm32f4xx_dac.c ****   * @retval None
 280:cmsis/device/stm32f4xx_dac.c ****   */
 281:cmsis/device/stm32f4xx_dac.c **** void DAC_SoftwareTriggerCmd(uint32_t DAC_Channel, FunctionalState NewState)
 282:cmsis/device/stm32f4xx_dac.c **** {
 237              		.loc 1 282 0
 238              		.cfi_startproc
 239              		@ args = 0, pretend = 0, frame = 0
 240              		@ frame_needed = 0, uses_anonymous_args = 0
 241              		@ link register save eliminated.
 242              	.LVL15:
 283:cmsis/device/stm32f4xx_dac.c ****   /* Check the parameters */
 284:cmsis/device/stm32f4xx_dac.c ****   assert_param(IS_DAC_CHANNEL(DAC_Channel));
 285:cmsis/device/stm32f4xx_dac.c ****   assert_param(IS_FUNCTIONAL_STATE(NewState));
 286:cmsis/device/stm32f4xx_dac.c **** 
 287:cmsis/device/stm32f4xx_dac.c ****   if (NewState != DISABLE)
 288:cmsis/device/stm32f4xx_dac.c ****   {
 289:cmsis/device/stm32f4xx_dac.c ****     /* Enable software trigger for the selected DAC channel */
 290:cmsis/device/stm32f4xx_dac.c ****     DAC->SWTRIGR |= (uint32_t)DAC_SWTRIGR_SWTRIG1 << (DAC_Channel >> 4);
 243              		.loc 1 290 0
 244 0000 4FF4E843 		mov	r3, #29696	@ tmp147,
 245 0004 C4F20003 		movt	r3, 16384	@ tmp147,
 246 0008 0009     		lsrs	r0, r0, #4	@ tmp148, DAC_Channel,
 247              	.LVL16:
 248 000a 5A68     		ldr	r2, [r3, #4]	@ D.6686,
 287:cmsis/device/stm32f4xx_dac.c ****   if (NewState != DISABLE)
 249              		.loc 1 287 0
 250 000c 31B9     		cbnz	r1, .L12	@ NewState,
 291:cmsis/device/stm32f4xx_dac.c ****   }
 292:cmsis/device/stm32f4xx_dac.c ****   else
 293:cmsis/device/stm32f4xx_dac.c ****   {
 294:cmsis/device/stm32f4xx_dac.c ****     /* Disable software trigger for the selected DAC channel */
 295:cmsis/device/stm32f4xx_dac.c ****     DAC->SWTRIGR &= ~((uint32_t)DAC_SWTRIGR_SWTRIG1 << (DAC_Channel >> 4));
 251              		.loc 1 295 0
 252 000e 0121     		movs	r1, #1	@ tmp155,
 253              	.LVL17:
 254 0010 01FA00F0 		lsl	r0, r1, r0	@ tmp154, tmp155, tmp153
 255 0014 22EA0002 		bic	r2, r2, r0	@ D.6694, D.6692, tmp154
 256 0018 5A60     		str	r2, [r3, #4]	@ D.6694,
 257 001a 7047     		bx	lr	@
 258              	.LVL18:
 259              	.L12:
 290:cmsis/device/stm32f4xx_dac.c ****     DAC->SWTRIGR |= (uint32_t)DAC_SWTRIGR_SWTRIG1 << (DAC_Channel >> 4);
 260              		.loc 1 290 0
 261 001c 0121     		movs	r1, #1	@ tmp150,
 262              	.LVL19:
 263 001e 01FA00F0 		lsl	r0, r1, r0	@ tmp149, tmp150, tmp148
 264 0022 1043     		orrs	r0, r0, r2	@, D.6690, tmp149, D.6686
 265 0024 5860     		str	r0, [r3, #4]	@ D.6690,
ARM GAS  C:\Users\CNous\AppData\Local\Temp\ccAbLTzy.s 			page 11


 266 0026 7047     		bx	lr	@
 267              		.cfi_endproc
 268              	.LFE114:
 269              		.size	DAC_SoftwareTriggerCmd, .-DAC_SoftwareTriggerCmd
 270              		.section	.text.DAC_DualSoftwareTriggerCmd,"ax",%progbits
 271              		.align	2
 272              		.global	DAC_DualSoftwareTriggerCmd
 273              		.thumb
 274              		.thumb_func
 275              		.type	DAC_DualSoftwareTriggerCmd, %function
 276              	DAC_DualSoftwareTriggerCmd:
 277              	.LFB115:
 296:cmsis/device/stm32f4xx_dac.c ****   }
 297:cmsis/device/stm32f4xx_dac.c **** }
 298:cmsis/device/stm32f4xx_dac.c **** 
 299:cmsis/device/stm32f4xx_dac.c **** /**
 300:cmsis/device/stm32f4xx_dac.c ****   * @brief  Enables or disables simultaneously the two DAC channels software triggers.
 301:cmsis/device/stm32f4xx_dac.c ****   * @param  NewState: new state of the DAC channels software triggers.
 302:cmsis/device/stm32f4xx_dac.c ****   *          This parameter can be: ENABLE or DISABLE.
 303:cmsis/device/stm32f4xx_dac.c ****   * @retval None
 304:cmsis/device/stm32f4xx_dac.c ****   */
 305:cmsis/device/stm32f4xx_dac.c **** void DAC_DualSoftwareTriggerCmd(FunctionalState NewState)
 306:cmsis/device/stm32f4xx_dac.c **** {
 278              		.loc 1 306 0
 279              		.cfi_startproc
 280              		@ args = 0, pretend = 0, frame = 0
 281              		@ frame_needed = 0, uses_anonymous_args = 0
 282              		@ link register save eliminated.
 283              	.LVL20:
 307:cmsis/device/stm32f4xx_dac.c ****   /* Check the parameters */
 308:cmsis/device/stm32f4xx_dac.c ****   assert_param(IS_FUNCTIONAL_STATE(NewState));
 309:cmsis/device/stm32f4xx_dac.c **** 
 310:cmsis/device/stm32f4xx_dac.c ****   if (NewState != DISABLE)
 311:cmsis/device/stm32f4xx_dac.c ****   {
 312:cmsis/device/stm32f4xx_dac.c ****     /* Enable software trigger for both DAC channels */
 313:cmsis/device/stm32f4xx_dac.c ****     DAC->SWTRIGR |= DUAL_SWTRIG_SET;
 284              		.loc 1 313 0
 285 0000 4FF4E843 		mov	r3, #29696	@ tmp139,
 286 0004 C4F20003 		movt	r3, 16384	@ tmp139,
 287 0008 5A68     		ldr	r2, [r3, #4]	@ D.6678,
 310:cmsis/device/stm32f4xx_dac.c ****   if (NewState != DISABLE)
 288              		.loc 1 310 0
 289 000a 18B9     		cbnz	r0, .L16	@ NewState,
 314:cmsis/device/stm32f4xx_dac.c ****   }
 315:cmsis/device/stm32f4xx_dac.c ****   else
 316:cmsis/device/stm32f4xx_dac.c ****   {
 317:cmsis/device/stm32f4xx_dac.c ****     /* Disable software trigger for both DAC channels */
 318:cmsis/device/stm32f4xx_dac.c ****     DAC->SWTRIGR &= DUAL_SWTRIG_RESET;
 290              		.loc 1 318 0
 291 000c 22F00300 		bic	r0, r2, #3	@ D.6682, D.6681,
 292              	.LVL21:
 293 0010 5860     		str	r0, [r3, #4]	@ D.6682,
 294 0012 7047     		bx	lr	@
 295              	.LVL22:
 296              	.L16:
 313:cmsis/device/stm32f4xx_dac.c ****     DAC->SWTRIGR |= DUAL_SWTRIG_SET;
 297              		.loc 1 313 0
ARM GAS  C:\Users\CNous\AppData\Local\Temp\ccAbLTzy.s 			page 12


 298 0014 42F00301 		orr	r1, r2, #3	@ D.6679, D.6678,
 299 0018 5960     		str	r1, [r3, #4]	@ D.6679,
 300 001a 7047     		bx	lr	@
 301              		.cfi_endproc
 302              	.LFE115:
 303              		.size	DAC_DualSoftwareTriggerCmd, .-DAC_DualSoftwareTriggerCmd
 304              		.section	.text.DAC_WaveGenerationCmd,"ax",%progbits
 305              		.align	2
 306              		.global	DAC_WaveGenerationCmd
 307              		.thumb
 308              		.thumb_func
 309              		.type	DAC_WaveGenerationCmd, %function
 310              	DAC_WaveGenerationCmd:
 311              	.LFB116:
 319:cmsis/device/stm32f4xx_dac.c ****   }
 320:cmsis/device/stm32f4xx_dac.c **** }
 321:cmsis/device/stm32f4xx_dac.c **** 
 322:cmsis/device/stm32f4xx_dac.c **** /**
 323:cmsis/device/stm32f4xx_dac.c ****   * @brief  Enables or disables the selected DAC channel wave generation.
 324:cmsis/device/stm32f4xx_dac.c ****   * @param  DAC_Channel: The selected DAC channel. 
 325:cmsis/device/stm32f4xx_dac.c ****   *          This parameter can be one of the following values:
 326:cmsis/device/stm32f4xx_dac.c ****   *            @arg DAC_Channel_1: DAC Channel1 selected
 327:cmsis/device/stm32f4xx_dac.c ****   *            @arg DAC_Channel_2: DAC Channel2 selected
 328:cmsis/device/stm32f4xx_dac.c ****   * @param  DAC_Wave: specifies the wave type to enable or disable.
 329:cmsis/device/stm32f4xx_dac.c ****   *          This parameter can be one of the following values:
 330:cmsis/device/stm32f4xx_dac.c ****   *            @arg DAC_Wave_Noise: noise wave generation
 331:cmsis/device/stm32f4xx_dac.c ****   *            @arg DAC_Wave_Triangle: triangle wave generation
 332:cmsis/device/stm32f4xx_dac.c ****   * @param  NewState: new state of the selected DAC channel wave generation.
 333:cmsis/device/stm32f4xx_dac.c ****   *          This parameter can be: ENABLE or DISABLE.  
 334:cmsis/device/stm32f4xx_dac.c ****   * @retval None
 335:cmsis/device/stm32f4xx_dac.c ****   */
 336:cmsis/device/stm32f4xx_dac.c **** void DAC_WaveGenerationCmd(uint32_t DAC_Channel, uint32_t DAC_Wave, FunctionalState NewState)
 337:cmsis/device/stm32f4xx_dac.c **** {
 312              		.loc 1 337 0
 313              		.cfi_startproc
 314              		@ args = 0, pretend = 0, frame = 0
 315              		@ frame_needed = 0, uses_anonymous_args = 0
 316              		@ link register save eliminated.
 317              	.LVL23:
 338:cmsis/device/stm32f4xx_dac.c ****   /* Check the parameters */
 339:cmsis/device/stm32f4xx_dac.c ****   assert_param(IS_DAC_CHANNEL(DAC_Channel));
 340:cmsis/device/stm32f4xx_dac.c ****   assert_param(IS_DAC_WAVE(DAC_Wave)); 
 341:cmsis/device/stm32f4xx_dac.c ****   assert_param(IS_FUNCTIONAL_STATE(NewState));
 342:cmsis/device/stm32f4xx_dac.c **** 
 343:cmsis/device/stm32f4xx_dac.c ****   if (NewState != DISABLE)
 344:cmsis/device/stm32f4xx_dac.c ****   {
 345:cmsis/device/stm32f4xx_dac.c ****     /* Enable the selected wave generation for the selected DAC channel */
 346:cmsis/device/stm32f4xx_dac.c ****     DAC->CR |= DAC_Wave << DAC_Channel;
 318              		.loc 1 346 0
 319 0000 4FF4E843 		mov	r3, #29696	@ tmp146,
 320 0004 C4F20003 		movt	r3, 16384	@ tmp146,
 321 0008 01FA00F1 		lsl	r1, r1, r0	@ tmp147, DAC_Wave, DAC_Channel
 322              	.LVL24:
 343:cmsis/device/stm32f4xx_dac.c ****   if (NewState != DISABLE)
 323              		.loc 1 343 0
 324 000c 22B9     		cbnz	r2, .L20	@ NewState,
 347:cmsis/device/stm32f4xx_dac.c ****   }
ARM GAS  C:\Users\CNous\AppData\Local\Temp\ccAbLTzy.s 			page 13


 348:cmsis/device/stm32f4xx_dac.c ****   else
 349:cmsis/device/stm32f4xx_dac.c ****   {
 350:cmsis/device/stm32f4xx_dac.c ****     /* Disable the selected wave generation for the selected DAC channel */
 351:cmsis/device/stm32f4xx_dac.c ****     DAC->CR &= ~(DAC_Wave << DAC_Channel);
 325              		.loc 1 351 0
 326 000e 1A68     		ldr	r2, [r3, #0]	@ D.6672,
 327              	.LVL25:
 328 0010 22EA0101 		bic	r1, r2, r1	@ D.6674, D.6672, tmp150
 329 0014 1960     		str	r1, [r3, #0]	@ D.6674,
 330 0016 7047     		bx	lr	@
 331              	.LVL26:
 332              	.L20:
 346:cmsis/device/stm32f4xx_dac.c ****     DAC->CR |= DAC_Wave << DAC_Channel;
 333              		.loc 1 346 0
 334 0018 1868     		ldr	r0, [r3, #0]	@ D.6667,
 335              	.LVL27:
 336 001a 0143     		orrs	r1, r1, r0	@, D.6670, tmp147, D.6667
 337 001c 1960     		str	r1, [r3, #0]	@ D.6670,
 338 001e 7047     		bx	lr	@
 339              		.cfi_endproc
 340              	.LFE116:
 341              		.size	DAC_WaveGenerationCmd, .-DAC_WaveGenerationCmd
 342              		.section	.text.DAC_SetChannel1Data,"ax",%progbits
 343              		.align	2
 344              		.global	DAC_SetChannel1Data
 345              		.thumb
 346              		.thumb_func
 347              		.type	DAC_SetChannel1Data, %function
 348              	DAC_SetChannel1Data:
 349              	.LFB117:
 352:cmsis/device/stm32f4xx_dac.c ****   }
 353:cmsis/device/stm32f4xx_dac.c **** }
 354:cmsis/device/stm32f4xx_dac.c **** 
 355:cmsis/device/stm32f4xx_dac.c **** /**
 356:cmsis/device/stm32f4xx_dac.c ****   * @brief  Set the specified data holding register value for DAC channel1.
 357:cmsis/device/stm32f4xx_dac.c ****   * @param  DAC_Align: Specifies the data alignment for DAC channel1.
 358:cmsis/device/stm32f4xx_dac.c ****   *          This parameter can be one of the following values:
 359:cmsis/device/stm32f4xx_dac.c ****   *            @arg DAC_Align_8b_R: 8bit right data alignment selected
 360:cmsis/device/stm32f4xx_dac.c ****   *            @arg DAC_Align_12b_L: 12bit left data alignment selected
 361:cmsis/device/stm32f4xx_dac.c ****   *            @arg DAC_Align_12b_R: 12bit right data alignment selected
 362:cmsis/device/stm32f4xx_dac.c ****   * @param  Data: Data to be loaded in the selected data holding register.
 363:cmsis/device/stm32f4xx_dac.c ****   * @retval None
 364:cmsis/device/stm32f4xx_dac.c ****   */
 365:cmsis/device/stm32f4xx_dac.c **** void DAC_SetChannel1Data(uint32_t DAC_Align, uint16_t Data)
 366:cmsis/device/stm32f4xx_dac.c **** {  
 350              		.loc 1 366 0
 351              		.cfi_startproc
 352              		@ args = 0, pretend = 0, frame = 8
 353              		@ frame_needed = 0, uses_anonymous_args = 0
 354              		@ link register save eliminated.
 355              	.LVL28:
 356 0000 82B0     		sub	sp, sp, #8	@,,
 357              	.LCFI2:
 358              		.cfi_def_cfa_offset 8
 367:cmsis/device/stm32f4xx_dac.c ****   __IO uint32_t tmp = 0;
 368:cmsis/device/stm32f4xx_dac.c ****   
 369:cmsis/device/stm32f4xx_dac.c ****   /* Check the parameters */
ARM GAS  C:\Users\CNous\AppData\Local\Temp\ccAbLTzy.s 			page 14


 370:cmsis/device/stm32f4xx_dac.c ****   assert_param(IS_DAC_ALIGN(DAC_Align));
 371:cmsis/device/stm32f4xx_dac.c ****   assert_param(IS_DAC_DATA(Data));
 372:cmsis/device/stm32f4xx_dac.c ****   
 373:cmsis/device/stm32f4xx_dac.c ****   tmp = (uint32_t)DAC_BASE; 
 359              		.loc 1 373 0
 360 0002 4FF4E843 		mov	r3, #29696	@ tmp143,
 361 0006 C4F20003 		movt	r3, 16384	@ tmp143,
 367:cmsis/device/stm32f4xx_dac.c ****   __IO uint32_t tmp = 0;
 362              		.loc 1 367 0
 363 000a 0022     		movs	r2, #0	@ tmp142,
 364 000c 0192     		str	r2, [sp, #4]	@ tmp142, tmp
 365              	.LVL29:
 366              		.loc 1 373 0
 367 000e 0193     		str	r3, [sp, #4]	@ tmp143, tmp
 374:cmsis/device/stm32f4xx_dac.c ****   tmp += DHR12R1_OFFSET + DAC_Align;
 368              		.loc 1 374 0
 369 0010 019B     		ldr	r3, [sp, #4]	@ tmp.15, tmp
 370 0012 0833     		adds	r3, r3, #8	@ tmp144, tmp.15,
 371 0014 1818     		adds	r0, r3, r0	@ tmp.16, tmp144, DAC_Align
 372              	.LVL30:
 373 0016 0190     		str	r0, [sp, #4]	@ tmp.16, tmp
 374              	.LVL31:
 375:cmsis/device/stm32f4xx_dac.c **** 
 376:cmsis/device/stm32f4xx_dac.c ****   /* Set the DAC channel1 selected data holding register */
 377:cmsis/device/stm32f4xx_dac.c ****   *(__IO uint32_t *) tmp = Data;
 375              		.loc 1 377 0
 376 0018 019A     		ldr	r2, [sp, #4]	@ tmp.17, tmp
 377 001a 1160     		str	r1, [r2, #0]	@ Data, *tmp.18_6
 378:cmsis/device/stm32f4xx_dac.c **** }
 378              		.loc 1 378 0
 379 001c 02B0     		add	sp, sp, #8	@,,
 380 001e 7047     		bx	lr
 381              		.cfi_endproc
 382              	.LFE117:
 383              		.size	DAC_SetChannel1Data, .-DAC_SetChannel1Data
 384              		.section	.text.DAC_SetChannel2Data,"ax",%progbits
 385              		.align	2
 386              		.global	DAC_SetChannel2Data
 387              		.thumb
 388              		.thumb_func
 389              		.type	DAC_SetChannel2Data, %function
 390              	DAC_SetChannel2Data:
 391              	.LFB118:
 379:cmsis/device/stm32f4xx_dac.c **** 
 380:cmsis/device/stm32f4xx_dac.c **** /**
 381:cmsis/device/stm32f4xx_dac.c ****   * @brief  Set the specified data holding register value for DAC channel2.
 382:cmsis/device/stm32f4xx_dac.c ****   * @param  DAC_Align: Specifies the data alignment for DAC channel2.
 383:cmsis/device/stm32f4xx_dac.c ****   *          This parameter can be one of the following values:
 384:cmsis/device/stm32f4xx_dac.c ****   *            @arg DAC_Align_8b_R: 8bit right data alignment selected
 385:cmsis/device/stm32f4xx_dac.c ****   *            @arg DAC_Align_12b_L: 12bit left data alignment selected
 386:cmsis/device/stm32f4xx_dac.c ****   *            @arg DAC_Align_12b_R: 12bit right data alignment selected
 387:cmsis/device/stm32f4xx_dac.c ****   * @param  Data: Data to be loaded in the selected data holding register.
 388:cmsis/device/stm32f4xx_dac.c ****   * @retval None
 389:cmsis/device/stm32f4xx_dac.c ****   */
 390:cmsis/device/stm32f4xx_dac.c **** void DAC_SetChannel2Data(uint32_t DAC_Align, uint16_t Data)
 391:cmsis/device/stm32f4xx_dac.c **** {
 392              		.loc 1 391 0
ARM GAS  C:\Users\CNous\AppData\Local\Temp\ccAbLTzy.s 			page 15


 393              		.cfi_startproc
 394              		@ args = 0, pretend = 0, frame = 8
 395              		@ frame_needed = 0, uses_anonymous_args = 0
 396              		@ link register save eliminated.
 397              	.LVL32:
 398 0000 82B0     		sub	sp, sp, #8	@,,
 399              	.LCFI3:
 400              		.cfi_def_cfa_offset 8
 392:cmsis/device/stm32f4xx_dac.c ****   __IO uint32_t tmp = 0;
 393:cmsis/device/stm32f4xx_dac.c **** 
 394:cmsis/device/stm32f4xx_dac.c ****   /* Check the parameters */
 395:cmsis/device/stm32f4xx_dac.c ****   assert_param(IS_DAC_ALIGN(DAC_Align));
 396:cmsis/device/stm32f4xx_dac.c ****   assert_param(IS_DAC_DATA(Data));
 397:cmsis/device/stm32f4xx_dac.c ****   
 398:cmsis/device/stm32f4xx_dac.c ****   tmp = (uint32_t)DAC_BASE;
 401              		.loc 1 398 0
 402 0002 4FF4E843 		mov	r3, #29696	@ tmp143,
 403 0006 C4F20003 		movt	r3, 16384	@ tmp143,
 392:cmsis/device/stm32f4xx_dac.c ****   __IO uint32_t tmp = 0;
 404              		.loc 1 392 0
 405 000a 0022     		movs	r2, #0	@ tmp142,
 406 000c 0192     		str	r2, [sp, #4]	@ tmp142, tmp
 407              	.LVL33:
 408              		.loc 1 398 0
 409 000e 0193     		str	r3, [sp, #4]	@ tmp143, tmp
 399:cmsis/device/stm32f4xx_dac.c ****   tmp += DHR12R2_OFFSET + DAC_Align;
 410              		.loc 1 399 0
 411 0010 019B     		ldr	r3, [sp, #4]	@ tmp.11, tmp
 412 0012 1433     		adds	r3, r3, #20	@ tmp144, tmp.11,
 413 0014 1818     		adds	r0, r3, r0	@ tmp.12, tmp144, DAC_Align
 414              	.LVL34:
 415 0016 0190     		str	r0, [sp, #4]	@ tmp.12, tmp
 416              	.LVL35:
 400:cmsis/device/stm32f4xx_dac.c **** 
 401:cmsis/device/stm32f4xx_dac.c ****   /* Set the DAC channel2 selected data holding register */
 402:cmsis/device/stm32f4xx_dac.c ****   *(__IO uint32_t *)tmp = Data;
 417              		.loc 1 402 0
 418 0018 019A     		ldr	r2, [sp, #4]	@ tmp.13, tmp
 419 001a 1160     		str	r1, [r2, #0]	@ Data, *tmp.14_6
 403:cmsis/device/stm32f4xx_dac.c **** }
 420              		.loc 1 403 0
 421 001c 02B0     		add	sp, sp, #8	@,,
 422 001e 7047     		bx	lr
 423              		.cfi_endproc
 424              	.LFE118:
 425              		.size	DAC_SetChannel2Data, .-DAC_SetChannel2Data
 426              		.section	.text.DAC_SetDualChannelData,"ax",%progbits
 427              		.align	2
 428              		.global	DAC_SetDualChannelData
 429              		.thumb
 430              		.thumb_func
 431              		.type	DAC_SetDualChannelData, %function
 432              	DAC_SetDualChannelData:
 433              	.LFB119:
 404:cmsis/device/stm32f4xx_dac.c **** 
 405:cmsis/device/stm32f4xx_dac.c **** /**
 406:cmsis/device/stm32f4xx_dac.c ****   * @brief  Set the specified data holding register value for dual channel DAC.
ARM GAS  C:\Users\CNous\AppData\Local\Temp\ccAbLTzy.s 			page 16


 407:cmsis/device/stm32f4xx_dac.c ****   * @param  DAC_Align: Specifies the data alignment for dual channel DAC.
 408:cmsis/device/stm32f4xx_dac.c ****   *          This parameter can be one of the following values:
 409:cmsis/device/stm32f4xx_dac.c ****   *            @arg DAC_Align_8b_R: 8bit right data alignment selected
 410:cmsis/device/stm32f4xx_dac.c ****   *            @arg DAC_Align_12b_L: 12bit left data alignment selected
 411:cmsis/device/stm32f4xx_dac.c ****   *            @arg DAC_Align_12b_R: 12bit right data alignment selected
 412:cmsis/device/stm32f4xx_dac.c ****   * @param  Data2: Data for DAC Channel2 to be loaded in the selected data holding register.
 413:cmsis/device/stm32f4xx_dac.c ****   * @param  Data1: Data for DAC Channel1 to be loaded in the selected data  holding register.
 414:cmsis/device/stm32f4xx_dac.c ****   * @note   In dual mode, a unique register access is required to write in both
 415:cmsis/device/stm32f4xx_dac.c ****   *          DAC channels at the same time.
 416:cmsis/device/stm32f4xx_dac.c ****   * @retval None
 417:cmsis/device/stm32f4xx_dac.c ****   */
 418:cmsis/device/stm32f4xx_dac.c **** void DAC_SetDualChannelData(uint32_t DAC_Align, uint16_t Data2, uint16_t Data1)
 419:cmsis/device/stm32f4xx_dac.c **** {
 434              		.loc 1 419 0
 435              		.cfi_startproc
 436              		@ args = 0, pretend = 0, frame = 0
 437              		@ frame_needed = 0, uses_anonymous_args = 0
 438              		@ link register save eliminated.
 439              	.LVL36:
 420:cmsis/device/stm32f4xx_dac.c ****   uint32_t data = 0, tmp = 0;
 421:cmsis/device/stm32f4xx_dac.c ****   
 422:cmsis/device/stm32f4xx_dac.c ****   /* Check the parameters */
 423:cmsis/device/stm32f4xx_dac.c ****   assert_param(IS_DAC_ALIGN(DAC_Align));
 424:cmsis/device/stm32f4xx_dac.c ****   assert_param(IS_DAC_DATA(Data1));
 425:cmsis/device/stm32f4xx_dac.c ****   assert_param(IS_DAC_DATA(Data2));
 426:cmsis/device/stm32f4xx_dac.c ****   
 427:cmsis/device/stm32f4xx_dac.c ****   /* Calculate and set dual DAC data holding register value */
 428:cmsis/device/stm32f4xx_dac.c ****   if (DAC_Align == DAC_Align_8b_R)
 429:cmsis/device/stm32f4xx_dac.c ****   {
 430:cmsis/device/stm32f4xx_dac.c ****     data = ((uint32_t)Data2 << 8) | Data1; 
 431:cmsis/device/stm32f4xx_dac.c ****   }
 432:cmsis/device/stm32f4xx_dac.c ****   else
 433:cmsis/device/stm32f4xx_dac.c ****   {
 434:cmsis/device/stm32f4xx_dac.c ****     data = ((uint32_t)Data2 << 16) | Data1;
 435:cmsis/device/stm32f4xx_dac.c ****   }
 436:cmsis/device/stm32f4xx_dac.c ****   
 437:cmsis/device/stm32f4xx_dac.c ****   tmp = (uint32_t)DAC_BASE;
 438:cmsis/device/stm32f4xx_dac.c ****   tmp += DHR12RD_OFFSET + DAC_Align;
 440              		.loc 1 438 0
 441 0000 47F22043 		movw	r3, #29728	@ tmp148,
 428:cmsis/device/stm32f4xx_dac.c ****   if (DAC_Align == DAC_Align_8b_R)
 442              		.loc 1 428 0
 443 0004 0828     		cmp	r0, #8	@ DAC_Align,
 444              		.loc 1 438 0
 445 0006 C4F20003 		movt	r3, 16384	@ tmp148,
 430:cmsis/device/stm32f4xx_dac.c ****     data = ((uint32_t)Data2 << 8) | Data1; 
 446              		.loc 1 430 0
 447 000a 0CBF     		ite	eq
 448 000c 42EA0121 		orreq	r1, r2, r1, lsl #8	@, data, Data1, Data2,
 449              	.LVL37:
 434:cmsis/device/stm32f4xx_dac.c ****     data = ((uint32_t)Data2 << 16) | Data1;
 450              		.loc 1 434 0
 451 0010 42EA0141 		orrne	r1, r2, r1, lsl #16	@, data, Data1, Data2,
 452              	.LVL38:
 439:cmsis/device/stm32f4xx_dac.c **** 
 440:cmsis/device/stm32f4xx_dac.c ****   /* Set the dual DAC selected data holding register */
 441:cmsis/device/stm32f4xx_dac.c ****   *(__IO uint32_t *)tmp = data;
ARM GAS  C:\Users\CNous\AppData\Local\Temp\ccAbLTzy.s 			page 17


 453              		.loc 1 441 0
 454 0014 C150     		str	r1, [r0, r3]	@ data, *tmp.10_18
 455 0016 7047     		bx	lr	@
 456              		.cfi_endproc
 457              	.LFE119:
 458              		.size	DAC_SetDualChannelData, .-DAC_SetDualChannelData
 459              		.section	.text.DAC_GetDataOutputValue,"ax",%progbits
 460              		.align	2
 461              		.global	DAC_GetDataOutputValue
 462              		.thumb
 463              		.thumb_func
 464              		.type	DAC_GetDataOutputValue, %function
 465              	DAC_GetDataOutputValue:
 466              	.LFB120:
 442:cmsis/device/stm32f4xx_dac.c **** }
 443:cmsis/device/stm32f4xx_dac.c **** 
 444:cmsis/device/stm32f4xx_dac.c **** /**
 445:cmsis/device/stm32f4xx_dac.c ****   * @brief  Returns the last data output value of the selected DAC channel.
 446:cmsis/device/stm32f4xx_dac.c ****   * @param  DAC_Channel: The selected DAC channel. 
 447:cmsis/device/stm32f4xx_dac.c ****   *          This parameter can be one of the following values:
 448:cmsis/device/stm32f4xx_dac.c ****   *            @arg DAC_Channel_1: DAC Channel1 selected
 449:cmsis/device/stm32f4xx_dac.c ****   *            @arg DAC_Channel_2: DAC Channel2 selected
 450:cmsis/device/stm32f4xx_dac.c ****   * @retval The selected DAC channel data output value.
 451:cmsis/device/stm32f4xx_dac.c ****   */
 452:cmsis/device/stm32f4xx_dac.c **** uint16_t DAC_GetDataOutputValue(uint32_t DAC_Channel)
 453:cmsis/device/stm32f4xx_dac.c **** {
 467              		.loc 1 453 0
 468              		.cfi_startproc
 469              		@ args = 0, pretend = 0, frame = 8
 470              		@ frame_needed = 0, uses_anonymous_args = 0
 471              		@ link register save eliminated.
 472              	.LVL39:
 473 0000 82B0     		sub	sp, sp, #8	@,,
 474              	.LCFI4:
 475              		.cfi_def_cfa_offset 8
 454:cmsis/device/stm32f4xx_dac.c ****   __IO uint32_t tmp = 0;
 455:cmsis/device/stm32f4xx_dac.c ****   
 456:cmsis/device/stm32f4xx_dac.c ****   /* Check the parameters */
 457:cmsis/device/stm32f4xx_dac.c ****   assert_param(IS_DAC_CHANNEL(DAC_Channel));
 458:cmsis/device/stm32f4xx_dac.c ****   
 459:cmsis/device/stm32f4xx_dac.c ****   tmp = (uint32_t) DAC_BASE ;
 476              		.loc 1 459 0
 477 0002 4FF4E843 		mov	r3, #29696	@ tmp145,
 454:cmsis/device/stm32f4xx_dac.c ****   __IO uint32_t tmp = 0;
 478              		.loc 1 454 0
 479 0006 0022     		movs	r2, #0	@ tmp144,
 480              		.loc 1 459 0
 481 0008 C4F20003 		movt	r3, 16384	@ tmp145,
 454:cmsis/device/stm32f4xx_dac.c ****   __IO uint32_t tmp = 0;
 482              		.loc 1 454 0
 483 000c 0192     		str	r2, [sp, #4]	@ tmp144, tmp
 484              	.LVL40:
 485              		.loc 1 459 0
 486 000e 0193     		str	r3, [sp, #4]	@ tmp145, tmp
 460:cmsis/device/stm32f4xx_dac.c ****   tmp += DOR_OFFSET + ((uint32_t)DAC_Channel >> 2);
 487              		.loc 1 460 0
 488 0010 0199     		ldr	r1, [sp, #4]	@ tmp.6, tmp
ARM GAS  C:\Users\CNous\AppData\Local\Temp\ccAbLTzy.s 			page 18


 489 0012 2C31     		adds	r1, r1, #44	@ tmp146, tmp.6,
 490 0014 01EB9000 		add	r0, r1, r0, lsr #2	@, tmp.7, tmp146, DAC_Channel,
 491              	.LVL41:
 492 0018 0190     		str	r0, [sp, #4]	@ tmp.7, tmp
 493              	.LVL42:
 461:cmsis/device/stm32f4xx_dac.c ****   
 462:cmsis/device/stm32f4xx_dac.c ****   /* Returns the DAC channel data output register value */
 463:cmsis/device/stm32f4xx_dac.c ****   return (uint16_t) (*(__IO uint32_t*) tmp);
 494              		.loc 1 463 0
 495 001a 019B     		ldr	r3, [sp, #4]	@ tmp.8, tmp
 496 001c 1A68     		ldr	r2, [r3, #0]	@ D.6641, *tmp.9_7
 464:cmsis/device/stm32f4xx_dac.c **** }
 497              		.loc 1 464 0
 498 001e 90B2     		uxth	r0, r2	@, D.6641
 499              	.LVL43:
 500 0020 02B0     		add	sp, sp, #8	@,,
 501 0022 7047     		bx	lr
 502              		.cfi_endproc
 503              	.LFE120:
 504              		.size	DAC_GetDataOutputValue, .-DAC_GetDataOutputValue
 505              		.section	.text.DAC_DMACmd,"ax",%progbits
 506              		.align	2
 507              		.global	DAC_DMACmd
 508              		.thumb
 509              		.thumb_func
 510              		.type	DAC_DMACmd, %function
 511              	DAC_DMACmd:
 512              	.LFB121:
 465:cmsis/device/stm32f4xx_dac.c **** /**
 466:cmsis/device/stm32f4xx_dac.c ****   * @}
 467:cmsis/device/stm32f4xx_dac.c ****   */
 468:cmsis/device/stm32f4xx_dac.c **** 
 469:cmsis/device/stm32f4xx_dac.c **** /** @defgroup DAC_Group2 DMA management functions
 470:cmsis/device/stm32f4xx_dac.c ****  *  @brief   DMA management functions
 471:cmsis/device/stm32f4xx_dac.c ****  *
 472:cmsis/device/stm32f4xx_dac.c **** @verbatim   
 473:cmsis/device/stm32f4xx_dac.c ****  ===============================================================================
 474:cmsis/device/stm32f4xx_dac.c ****                           DMA management functions
 475:cmsis/device/stm32f4xx_dac.c ****  ===============================================================================  
 476:cmsis/device/stm32f4xx_dac.c **** 
 477:cmsis/device/stm32f4xx_dac.c **** @endverbatim
 478:cmsis/device/stm32f4xx_dac.c ****   * @{
 479:cmsis/device/stm32f4xx_dac.c ****   */
 480:cmsis/device/stm32f4xx_dac.c **** 
 481:cmsis/device/stm32f4xx_dac.c **** /**
 482:cmsis/device/stm32f4xx_dac.c ****   * @brief  Enables or disables the specified DAC channel DMA request.
 483:cmsis/device/stm32f4xx_dac.c ****   * @note   When enabled DMA1 is generated when an external trigger (EXTI Line9,
 484:cmsis/device/stm32f4xx_dac.c ****   *         TIM2, TIM4, TIM5, TIM6, TIM7 or TIM8  but not a software trigger) occurs.
 485:cmsis/device/stm32f4xx_dac.c ****   * @param  DAC_Channel: The selected DAC channel. 
 486:cmsis/device/stm32f4xx_dac.c ****   *          This parameter can be one of the following values:
 487:cmsis/device/stm32f4xx_dac.c ****   *            @arg DAC_Channel_1: DAC Channel1 selected
 488:cmsis/device/stm32f4xx_dac.c ****   *            @arg DAC_Channel_2: DAC Channel2 selected
 489:cmsis/device/stm32f4xx_dac.c ****   * @param  NewState: new state of the selected DAC channel DMA request.
 490:cmsis/device/stm32f4xx_dac.c ****   *          This parameter can be: ENABLE or DISABLE.
 491:cmsis/device/stm32f4xx_dac.c ****   * @note   The DAC channel1 is mapped on DMA1 Stream 5 channel7 which must be
 492:cmsis/device/stm32f4xx_dac.c ****   *          already configured.
 493:cmsis/device/stm32f4xx_dac.c ****   * @note   The DAC channel2 is mapped on DMA1 Stream 6 channel7 which must be
ARM GAS  C:\Users\CNous\AppData\Local\Temp\ccAbLTzy.s 			page 19


 494:cmsis/device/stm32f4xx_dac.c ****   *          already configured.    
 495:cmsis/device/stm32f4xx_dac.c ****   * @retval None
 496:cmsis/device/stm32f4xx_dac.c ****   */
 497:cmsis/device/stm32f4xx_dac.c **** void DAC_DMACmd(uint32_t DAC_Channel, FunctionalState NewState)
 498:cmsis/device/stm32f4xx_dac.c **** {
 513              		.loc 1 498 0
 514              		.cfi_startproc
 515              		@ args = 0, pretend = 0, frame = 0
 516              		@ frame_needed = 0, uses_anonymous_args = 0
 517              		@ link register save eliminated.
 518              	.LVL44:
 499:cmsis/device/stm32f4xx_dac.c ****   /* Check the parameters */
 500:cmsis/device/stm32f4xx_dac.c ****   assert_param(IS_DAC_CHANNEL(DAC_Channel));
 501:cmsis/device/stm32f4xx_dac.c ****   assert_param(IS_FUNCTIONAL_STATE(NewState));
 502:cmsis/device/stm32f4xx_dac.c **** 
 503:cmsis/device/stm32f4xx_dac.c ****   if (NewState != DISABLE)
 504:cmsis/device/stm32f4xx_dac.c ****   {
 505:cmsis/device/stm32f4xx_dac.c ****     /* Enable the selected DAC channel DMA request */
 506:cmsis/device/stm32f4xx_dac.c ****     DAC->CR |= (DAC_CR_DMAEN1 << DAC_Channel);
 519              		.loc 1 506 0
 520 0000 4FF4E843 		mov	r3, #29696	@ tmp145,
 521 0004 C4F20003 		movt	r3, 16384	@ tmp145,
 522 0008 1A68     		ldr	r2, [r3, #0]	@ D.6626,
 503:cmsis/device/stm32f4xx_dac.c ****   if (NewState != DISABLE)
 523              		.loc 1 503 0
 524 000a 39B9     		cbnz	r1, .L30	@ NewState,
 507:cmsis/device/stm32f4xx_dac.c ****   }
 508:cmsis/device/stm32f4xx_dac.c ****   else
 509:cmsis/device/stm32f4xx_dac.c ****   {
 510:cmsis/device/stm32f4xx_dac.c ****     /* Disable the selected DAC channel DMA request */
 511:cmsis/device/stm32f4xx_dac.c ****     DAC->CR &= (~(DAC_CR_DMAEN1 << DAC_Channel));
 525              		.loc 1 511 0
 526 000c 4FF48051 		mov	r1, #4096	@ tmp151,
 527              	.LVL45:
 528 0010 01FA00F0 		lsl	r0, r1, r0	@ tmp150, tmp151, DAC_Channel
 529              	.LVL46:
 530 0014 22EA0002 		bic	r2, r2, r0	@ D.6633, D.6631, tmp150
 531 0018 1A60     		str	r2, [r3, #0]	@ D.6633,
 532 001a 7047     		bx	lr	@
 533              	.LVL47:
 534              	.L30:
 506:cmsis/device/stm32f4xx_dac.c ****     DAC->CR |= (DAC_CR_DMAEN1 << DAC_Channel);
 535              		.loc 1 506 0
 536 001c 4FF48051 		mov	r1, #4096	@ tmp147,
 537              	.LVL48:
 538 0020 01FA00F0 		lsl	r0, r1, r0	@ tmp146, tmp147, DAC_Channel
 539              	.LVL49:
 540 0024 1043     		orrs	r0, r0, r2	@, D.6629, tmp146, D.6626
 541 0026 1860     		str	r0, [r3, #0]	@ D.6629,
 542 0028 7047     		bx	lr	@
 543              		.cfi_endproc
 544              	.LFE121:
 545              		.size	DAC_DMACmd, .-DAC_DMACmd
 546 002a 00BF     		.section	.text.DAC_ITConfig,"ax",%progbits
 547              		.align	2
 548              		.global	DAC_ITConfig
 549              		.thumb
ARM GAS  C:\Users\CNous\AppData\Local\Temp\ccAbLTzy.s 			page 20


 550              		.thumb_func
 551              		.type	DAC_ITConfig, %function
 552              	DAC_ITConfig:
 553              	.LFB122:
 512:cmsis/device/stm32f4xx_dac.c ****   }
 513:cmsis/device/stm32f4xx_dac.c **** }
 514:cmsis/device/stm32f4xx_dac.c **** /**
 515:cmsis/device/stm32f4xx_dac.c ****   * @}
 516:cmsis/device/stm32f4xx_dac.c ****   */
 517:cmsis/device/stm32f4xx_dac.c **** 
 518:cmsis/device/stm32f4xx_dac.c **** /** @defgroup DAC_Group3 Interrupts and flags management functions
 519:cmsis/device/stm32f4xx_dac.c ****  *  @brief   Interrupts and flags management functions
 520:cmsis/device/stm32f4xx_dac.c ****  *
 521:cmsis/device/stm32f4xx_dac.c **** @verbatim   
 522:cmsis/device/stm32f4xx_dac.c ****  ===============================================================================
 523:cmsis/device/stm32f4xx_dac.c ****                    Interrupts and flags management functions
 524:cmsis/device/stm32f4xx_dac.c ****  ===============================================================================  
 525:cmsis/device/stm32f4xx_dac.c **** 
 526:cmsis/device/stm32f4xx_dac.c **** @endverbatim
 527:cmsis/device/stm32f4xx_dac.c ****   * @{
 528:cmsis/device/stm32f4xx_dac.c ****   */
 529:cmsis/device/stm32f4xx_dac.c **** 
 530:cmsis/device/stm32f4xx_dac.c **** /**
 531:cmsis/device/stm32f4xx_dac.c ****   * @brief  Enables or disables the specified DAC interrupts.
 532:cmsis/device/stm32f4xx_dac.c ****   * @param  DAC_Channel: The selected DAC channel. 
 533:cmsis/device/stm32f4xx_dac.c ****   *          This parameter can be one of the following values:
 534:cmsis/device/stm32f4xx_dac.c ****   *            @arg DAC_Channel_1: DAC Channel1 selected
 535:cmsis/device/stm32f4xx_dac.c ****   *            @arg DAC_Channel_2: DAC Channel2 selected
 536:cmsis/device/stm32f4xx_dac.c ****   * @param  DAC_IT: specifies the DAC interrupt sources to be enabled or disabled. 
 537:cmsis/device/stm32f4xx_dac.c ****   *          This parameter can be the following values:
 538:cmsis/device/stm32f4xx_dac.c ****   *            @arg DAC_IT_DMAUDR: DMA underrun interrupt mask
 539:cmsis/device/stm32f4xx_dac.c ****   * @note   The DMA underrun occurs when a second external trigger arrives before the 
 540:cmsis/device/stm32f4xx_dac.c ****   *         acknowledgement for the first external trigger is received (first request).
 541:cmsis/device/stm32f4xx_dac.c ****   * @param  NewState: new state of the specified DAC interrupts.
 542:cmsis/device/stm32f4xx_dac.c ****   *          This parameter can be: ENABLE or DISABLE.
 543:cmsis/device/stm32f4xx_dac.c ****   * @retval None
 544:cmsis/device/stm32f4xx_dac.c ****   */ 
 545:cmsis/device/stm32f4xx_dac.c **** void DAC_ITConfig(uint32_t DAC_Channel, uint32_t DAC_IT, FunctionalState NewState)  
 546:cmsis/device/stm32f4xx_dac.c **** {
 554              		.loc 1 546 0
 555              		.cfi_startproc
 556              		@ args = 0, pretend = 0, frame = 0
 557              		@ frame_needed = 0, uses_anonymous_args = 0
 558              		@ link register save eliminated.
 559              	.LVL50:
 547:cmsis/device/stm32f4xx_dac.c ****   /* Check the parameters */
 548:cmsis/device/stm32f4xx_dac.c ****   assert_param(IS_DAC_CHANNEL(DAC_Channel));
 549:cmsis/device/stm32f4xx_dac.c ****   assert_param(IS_FUNCTIONAL_STATE(NewState));
 550:cmsis/device/stm32f4xx_dac.c ****   assert_param(IS_DAC_IT(DAC_IT)); 
 551:cmsis/device/stm32f4xx_dac.c **** 
 552:cmsis/device/stm32f4xx_dac.c ****   if (NewState != DISABLE)
 553:cmsis/device/stm32f4xx_dac.c ****   {
 554:cmsis/device/stm32f4xx_dac.c ****     /* Enable the selected DAC interrupts */
 555:cmsis/device/stm32f4xx_dac.c ****     DAC->CR |=  (DAC_IT << DAC_Channel);
 560              		.loc 1 555 0
 561 0000 4FF4E843 		mov	r3, #29696	@ tmp146,
 562 0004 C4F20003 		movt	r3, 16384	@ tmp146,
ARM GAS  C:\Users\CNous\AppData\Local\Temp\ccAbLTzy.s 			page 21


 563 0008 01FA00F1 		lsl	r1, r1, r0	@ tmp147, DAC_IT, DAC_Channel
 564              	.LVL51:
 552:cmsis/device/stm32f4xx_dac.c ****   if (NewState != DISABLE)
 565              		.loc 1 552 0
 566 000c 22B9     		cbnz	r2, .L34	@ NewState,
 556:cmsis/device/stm32f4xx_dac.c ****   }
 557:cmsis/device/stm32f4xx_dac.c ****   else
 558:cmsis/device/stm32f4xx_dac.c ****   {
 559:cmsis/device/stm32f4xx_dac.c ****     /* Disable the selected DAC interrupts */
 560:cmsis/device/stm32f4xx_dac.c ****     DAC->CR &= (~(uint32_t)(DAC_IT << DAC_Channel));
 567              		.loc 1 560 0
 568 000e 1A68     		ldr	r2, [r3, #0]	@ D.6620,
 569              	.LVL52:
 570 0010 22EA0101 		bic	r1, r2, r1	@ D.6622, D.6620, tmp150
 571 0014 1960     		str	r1, [r3, #0]	@ D.6622,
 572 0016 7047     		bx	lr	@
 573              	.LVL53:
 574              	.L34:
 555:cmsis/device/stm32f4xx_dac.c ****     DAC->CR |=  (DAC_IT << DAC_Channel);
 575              		.loc 1 555 0
 576 0018 1868     		ldr	r0, [r3, #0]	@ D.6615,
 577              	.LVL54:
 578 001a 0143     		orrs	r1, r1, r0	@, D.6618, tmp147, D.6615
 579 001c 1960     		str	r1, [r3, #0]	@ D.6618,
 580 001e 7047     		bx	lr	@
 581              		.cfi_endproc
 582              	.LFE122:
 583              		.size	DAC_ITConfig, .-DAC_ITConfig
 584              		.section	.text.DAC_GetFlagStatus,"ax",%progbits
 585              		.align	2
 586              		.global	DAC_GetFlagStatus
 587              		.thumb
 588              		.thumb_func
 589              		.type	DAC_GetFlagStatus, %function
 590              	DAC_GetFlagStatus:
 591              	.LFB123:
 561:cmsis/device/stm32f4xx_dac.c ****   }
 562:cmsis/device/stm32f4xx_dac.c **** }
 563:cmsis/device/stm32f4xx_dac.c **** 
 564:cmsis/device/stm32f4xx_dac.c **** /**
 565:cmsis/device/stm32f4xx_dac.c ****   * @brief  Checks whether the specified DAC flag is set or not.
 566:cmsis/device/stm32f4xx_dac.c ****   * @param  DAC_Channel: The selected DAC channel. 
 567:cmsis/device/stm32f4xx_dac.c ****   *          This parameter can be one of the following values:
 568:cmsis/device/stm32f4xx_dac.c ****   *            @arg DAC_Channel_1: DAC Channel1 selected
 569:cmsis/device/stm32f4xx_dac.c ****   *            @arg DAC_Channel_2: DAC Channel2 selected
 570:cmsis/device/stm32f4xx_dac.c ****   * @param  DAC_FLAG: specifies the flag to check. 
 571:cmsis/device/stm32f4xx_dac.c ****   *          This parameter can be only of the following value:
 572:cmsis/device/stm32f4xx_dac.c ****   *            @arg DAC_FLAG_DMAUDR: DMA underrun flag
 573:cmsis/device/stm32f4xx_dac.c ****   * @note   The DMA underrun occurs when a second external trigger arrives before the 
 574:cmsis/device/stm32f4xx_dac.c ****   *         acknowledgement for the first external trigger is received (first request).
 575:cmsis/device/stm32f4xx_dac.c ****   * @retval The new state of DAC_FLAG (SET or RESET).
 576:cmsis/device/stm32f4xx_dac.c ****   */
 577:cmsis/device/stm32f4xx_dac.c **** FlagStatus DAC_GetFlagStatus(uint32_t DAC_Channel, uint32_t DAC_FLAG)
 578:cmsis/device/stm32f4xx_dac.c **** {
 592              		.loc 1 578 0
 593              		.cfi_startproc
 594              		@ args = 0, pretend = 0, frame = 0
ARM GAS  C:\Users\CNous\AppData\Local\Temp\ccAbLTzy.s 			page 22


 595              		@ frame_needed = 0, uses_anonymous_args = 0
 596              		@ link register save eliminated.
 597              	.LVL55:
 579:cmsis/device/stm32f4xx_dac.c ****   FlagStatus bitstatus = RESET;
 580:cmsis/device/stm32f4xx_dac.c ****   /* Check the parameters */
 581:cmsis/device/stm32f4xx_dac.c ****   assert_param(IS_DAC_CHANNEL(DAC_Channel));
 582:cmsis/device/stm32f4xx_dac.c ****   assert_param(IS_DAC_FLAG(DAC_FLAG));
 583:cmsis/device/stm32f4xx_dac.c **** 
 584:cmsis/device/stm32f4xx_dac.c ****   /* Check the status of the specified DAC flag */
 585:cmsis/device/stm32f4xx_dac.c ****   if ((DAC->SR & (DAC_FLAG << DAC_Channel)) != (uint8_t)RESET)
 598              		.loc 1 585 0
 599 0000 4FF4E843 		mov	r3, #29696	@ tmp143,
 600 0004 C4F20003 		movt	r3, 16384	@ tmp143,
 601 0008 01FA00F1 		lsl	r1, r1, r0	@ tmp145, DAC_FLAG, DAC_Channel
 602              	.LVL56:
 603 000c 586B     		ldr	r0, [r3, #52]	@ D.6603, MEM[(struct DAC_TypeDef *)1073771520B].SR
 604              	.LVL57:
 605 000e 0142     		tst	r1, r0	@ tmp145, D.6603
 586:cmsis/device/stm32f4xx_dac.c ****   {
 587:cmsis/device/stm32f4xx_dac.c ****     /* DAC_FLAG is set */
 588:cmsis/device/stm32f4xx_dac.c ****     bitstatus = SET;
 589:cmsis/device/stm32f4xx_dac.c ****   }
 590:cmsis/device/stm32f4xx_dac.c ****   else
 591:cmsis/device/stm32f4xx_dac.c ****   {
 592:cmsis/device/stm32f4xx_dac.c ****     /* DAC_FLAG is reset */
 593:cmsis/device/stm32f4xx_dac.c ****     bitstatus = RESET;
 594:cmsis/device/stm32f4xx_dac.c ****   }
 595:cmsis/device/stm32f4xx_dac.c ****   /* Return the DAC_FLAG status */
 596:cmsis/device/stm32f4xx_dac.c ****   return  bitstatus;
 597:cmsis/device/stm32f4xx_dac.c **** }
 606              		.loc 1 597 0
 607 0010 0CBF     		ite	eq	@
 608 0012 0020     		moveq	r0, #0	@,
 609 0014 0120     		movne	r0, #1	@,
 610              	.LVL58:
 611 0016 7047     		bx	lr	@
 612              		.cfi_endproc
 613              	.LFE123:
 614              		.size	DAC_GetFlagStatus, .-DAC_GetFlagStatus
 615              		.section	.text.DAC_ClearFlag,"ax",%progbits
 616              		.align	2
 617              		.global	DAC_ClearFlag
 618              		.thumb
 619              		.thumb_func
 620              		.type	DAC_ClearFlag, %function
 621              	DAC_ClearFlag:
 622              	.LFB124:
 598:cmsis/device/stm32f4xx_dac.c **** 
 599:cmsis/device/stm32f4xx_dac.c **** /**
 600:cmsis/device/stm32f4xx_dac.c ****   * @brief  Clears the DAC channel's pending flags.
 601:cmsis/device/stm32f4xx_dac.c ****   * @param  DAC_Channel: The selected DAC channel. 
 602:cmsis/device/stm32f4xx_dac.c ****   *          This parameter can be one of the following values:
 603:cmsis/device/stm32f4xx_dac.c ****   *            @arg DAC_Channel_1: DAC Channel1 selected
 604:cmsis/device/stm32f4xx_dac.c ****   *            @arg DAC_Channel_2: DAC Channel2 selected
 605:cmsis/device/stm32f4xx_dac.c ****   * @param  DAC_FLAG: specifies the flag to clear. 
 606:cmsis/device/stm32f4xx_dac.c ****   *          This parameter can be of the following value:
 607:cmsis/device/stm32f4xx_dac.c ****   *            @arg DAC_FLAG_DMAUDR: DMA underrun flag 
ARM GAS  C:\Users\CNous\AppData\Local\Temp\ccAbLTzy.s 			page 23


 608:cmsis/device/stm32f4xx_dac.c ****   * @note   The DMA underrun occurs when a second external trigger arrives before the 
 609:cmsis/device/stm32f4xx_dac.c ****   *         acknowledgement for the first external trigger is received (first request).            
 610:cmsis/device/stm32f4xx_dac.c ****   * @retval None
 611:cmsis/device/stm32f4xx_dac.c ****   */
 612:cmsis/device/stm32f4xx_dac.c **** void DAC_ClearFlag(uint32_t DAC_Channel, uint32_t DAC_FLAG)
 613:cmsis/device/stm32f4xx_dac.c **** {
 623              		.loc 1 613 0
 624              		.cfi_startproc
 625              		@ args = 0, pretend = 0, frame = 0
 626              		@ frame_needed = 0, uses_anonymous_args = 0
 627              		@ link register save eliminated.
 628              	.LVL59:
 614:cmsis/device/stm32f4xx_dac.c ****   /* Check the parameters */
 615:cmsis/device/stm32f4xx_dac.c ****   assert_param(IS_DAC_CHANNEL(DAC_Channel));
 616:cmsis/device/stm32f4xx_dac.c ****   assert_param(IS_DAC_FLAG(DAC_FLAG));
 617:cmsis/device/stm32f4xx_dac.c **** 
 618:cmsis/device/stm32f4xx_dac.c ****   /* Clear the selected DAC flags */
 619:cmsis/device/stm32f4xx_dac.c ****   DAC->SR = (DAC_FLAG << DAC_Channel);
 629              		.loc 1 619 0
 630 0000 4FF4E843 		mov	r3, #29696	@ tmp139,
 631 0004 C4F20003 		movt	r3, 16384	@ tmp139,
 632 0008 01FA00F1 		lsl	r1, r1, r0	@ D.6601, DAC_FLAG, DAC_Channel
 633              	.LVL60:
 634 000c 5963     		str	r1, [r3, #52]	@ D.6601, MEM[(struct DAC_TypeDef *)1073771520B].SR
 635 000e 7047     		bx	lr	@
 636              		.cfi_endproc
 637              	.LFE124:
 638              		.size	DAC_ClearFlag, .-DAC_ClearFlag
 639              		.section	.text.DAC_GetITStatus,"ax",%progbits
 640              		.align	2
 641              		.global	DAC_GetITStatus
 642              		.thumb
 643              		.thumb_func
 644              		.type	DAC_GetITStatus, %function
 645              	DAC_GetITStatus:
 646              	.LFB125:
 620:cmsis/device/stm32f4xx_dac.c **** }
 621:cmsis/device/stm32f4xx_dac.c **** 
 622:cmsis/device/stm32f4xx_dac.c **** /**
 623:cmsis/device/stm32f4xx_dac.c ****   * @brief  Checks whether the specified DAC interrupt has occurred or not.
 624:cmsis/device/stm32f4xx_dac.c ****   * @param  DAC_Channel: The selected DAC channel. 
 625:cmsis/device/stm32f4xx_dac.c ****   *          This parameter can be one of the following values:
 626:cmsis/device/stm32f4xx_dac.c ****   *            @arg DAC_Channel_1: DAC Channel1 selected
 627:cmsis/device/stm32f4xx_dac.c ****   *            @arg DAC_Channel_2: DAC Channel2 selected
 628:cmsis/device/stm32f4xx_dac.c ****   * @param  DAC_IT: specifies the DAC interrupt source to check. 
 629:cmsis/device/stm32f4xx_dac.c ****   *          This parameter can be the following values:
 630:cmsis/device/stm32f4xx_dac.c ****   *            @arg DAC_IT_DMAUDR: DMA underrun interrupt mask
 631:cmsis/device/stm32f4xx_dac.c ****   * @note   The DMA underrun occurs when a second external trigger arrives before the 
 632:cmsis/device/stm32f4xx_dac.c ****   *         acknowledgement for the first external trigger is received (first request).
 633:cmsis/device/stm32f4xx_dac.c ****   * @retval The new state of DAC_IT (SET or RESET).
 634:cmsis/device/stm32f4xx_dac.c ****   */
 635:cmsis/device/stm32f4xx_dac.c **** ITStatus DAC_GetITStatus(uint32_t DAC_Channel, uint32_t DAC_IT)
 636:cmsis/device/stm32f4xx_dac.c **** {
 647              		.loc 1 636 0
 648              		.cfi_startproc
 649              		@ args = 0, pretend = 0, frame = 0
 650              		@ frame_needed = 0, uses_anonymous_args = 0
ARM GAS  C:\Users\CNous\AppData\Local\Temp\ccAbLTzy.s 			page 24


 651              		@ link register save eliminated.
 652              	.LVL61:
 637:cmsis/device/stm32f4xx_dac.c ****   ITStatus bitstatus = RESET;
 638:cmsis/device/stm32f4xx_dac.c ****   uint32_t enablestatus = 0;
 639:cmsis/device/stm32f4xx_dac.c ****   
 640:cmsis/device/stm32f4xx_dac.c ****   /* Check the parameters */
 641:cmsis/device/stm32f4xx_dac.c ****   assert_param(IS_DAC_CHANNEL(DAC_Channel));
 642:cmsis/device/stm32f4xx_dac.c ****   assert_param(IS_DAC_IT(DAC_IT));
 643:cmsis/device/stm32f4xx_dac.c **** 
 644:cmsis/device/stm32f4xx_dac.c ****   /* Get the DAC_IT enable bit status */
 645:cmsis/device/stm32f4xx_dac.c ****   enablestatus = (DAC->CR & (DAC_IT << DAC_Channel)) ;
 653              		.loc 1 645 0
 654 0000 4FF4E843 		mov	r3, #29696	@ tmp145,
 655 0004 C4F20003 		movt	r3, 16384	@ tmp145,
 656 0008 01FA00F1 		lsl	r1, r1, r0	@ D.6590, DAC_IT, DAC_Channel
 657              	.LVL62:
 658 000c 1A68     		ldr	r2, [r3, #0]	@ D.6588, MEM[(struct DAC_TypeDef *)1073771520B].CR
 659              	.LVL63:
 646:cmsis/device/stm32f4xx_dac.c ****   
 647:cmsis/device/stm32f4xx_dac.c ****   /* Check the status of the specified DAC interrupt */
 648:cmsis/device/stm32f4xx_dac.c ****   if (((DAC->SR & (DAC_IT << DAC_Channel)) != (uint32_t)RESET) && enablestatus)
 660              		.loc 1 648 0
 661 000e 586B     		ldr	r0, [r3, #52]	@ D.6593, MEM[(struct DAC_TypeDef *)1073771520B].SR
 662              	.LVL64:
 663 0010 0840     		ands	r0, r1, r0	@ tmp147, D.6590, D.6593
 664 0012 03D0     		beq	.L38	@,
 665              		.loc 1 648 0 is_stmt 0 discriminator 1
 666 0014 1142     		tst	r1, r2	@ D.6590, D.6588
 649:cmsis/device/stm32f4xx_dac.c ****   {
 650:cmsis/device/stm32f4xx_dac.c ****     /* DAC_IT is set */
 651:cmsis/device/stm32f4xx_dac.c ****     bitstatus = SET;
 667              		.loc 1 651 0 is_stmt 1 discriminator 1
 668 0016 0CBF     		ite	eq	@
 669 0018 0020     		moveq	r0, #0	@, bitstatus
 670 001a 0120     		movne	r0, #1	@, bitstatus
 671              	.L38:
 672              	.LVL65:
 652:cmsis/device/stm32f4xx_dac.c ****   }
 653:cmsis/device/stm32f4xx_dac.c ****   else
 654:cmsis/device/stm32f4xx_dac.c ****   {
 655:cmsis/device/stm32f4xx_dac.c ****     /* DAC_IT is reset */
 656:cmsis/device/stm32f4xx_dac.c ****     bitstatus = RESET;
 657:cmsis/device/stm32f4xx_dac.c ****   }
 658:cmsis/device/stm32f4xx_dac.c ****   /* Return the DAC_IT status */
 659:cmsis/device/stm32f4xx_dac.c ****   return  bitstatus;
 660:cmsis/device/stm32f4xx_dac.c **** }
 673              		.loc 1 660 0
 674 001c 7047     		bx	lr	@
 675              		.cfi_endproc
 676              	.LFE125:
 677              		.size	DAC_GetITStatus, .-DAC_GetITStatus
 678 001e 00BF     		.section	.text.DAC_ClearITPendingBit,"ax",%progbits
 679              		.align	2
 680              		.global	DAC_ClearITPendingBit
 681              		.thumb
 682              		.thumb_func
 683              		.type	DAC_ClearITPendingBit, %function
ARM GAS  C:\Users\CNous\AppData\Local\Temp\ccAbLTzy.s 			page 25


 684              	DAC_ClearITPendingBit:
 685              	.LFB126:
 661:cmsis/device/stm32f4xx_dac.c **** 
 662:cmsis/device/stm32f4xx_dac.c **** /**
 663:cmsis/device/stm32f4xx_dac.c ****   * @brief  Clears the DAC channel's interrupt pending bits.
 664:cmsis/device/stm32f4xx_dac.c ****   * @param  DAC_Channel: The selected DAC channel. 
 665:cmsis/device/stm32f4xx_dac.c ****   *          This parameter can be one of the following values:
 666:cmsis/device/stm32f4xx_dac.c ****   *            @arg DAC_Channel_1: DAC Channel1 selected
 667:cmsis/device/stm32f4xx_dac.c ****   *            @arg DAC_Channel_2: DAC Channel2 selected
 668:cmsis/device/stm32f4xx_dac.c ****   * @param  DAC_IT: specifies the DAC interrupt pending bit to clear.
 669:cmsis/device/stm32f4xx_dac.c ****   *          This parameter can be the following values:
 670:cmsis/device/stm32f4xx_dac.c ****   *            @arg DAC_IT_DMAUDR: DMA underrun interrupt mask                         
 671:cmsis/device/stm32f4xx_dac.c ****   * @note   The DMA underrun occurs when a second external trigger arrives before the 
 672:cmsis/device/stm32f4xx_dac.c ****   *         acknowledgement for the first external trigger is received (first request).            
 673:cmsis/device/stm32f4xx_dac.c ****   * @retval None
 674:cmsis/device/stm32f4xx_dac.c ****   */
 675:cmsis/device/stm32f4xx_dac.c **** void DAC_ClearITPendingBit(uint32_t DAC_Channel, uint32_t DAC_IT)
 676:cmsis/device/stm32f4xx_dac.c **** {
 686              		.loc 1 676 0
 687              		.cfi_startproc
 688              		@ args = 0, pretend = 0, frame = 0
 689              		@ frame_needed = 0, uses_anonymous_args = 0
 690              		@ link register save eliminated.
 691              	.LVL66:
 677:cmsis/device/stm32f4xx_dac.c ****   /* Check the parameters */
 678:cmsis/device/stm32f4xx_dac.c ****   assert_param(IS_DAC_CHANNEL(DAC_Channel));
 679:cmsis/device/stm32f4xx_dac.c ****   assert_param(IS_DAC_IT(DAC_IT)); 
 680:cmsis/device/stm32f4xx_dac.c **** 
 681:cmsis/device/stm32f4xx_dac.c ****   /* Clear the selected DAC interrupt pending bits */
 682:cmsis/device/stm32f4xx_dac.c ****   DAC->SR = (DAC_IT << DAC_Channel);
 692              		.loc 1 682 0
 693 0000 4FF4E843 		mov	r3, #29696	@ tmp139,
 694 0004 C4F20003 		movt	r3, 16384	@ tmp139,
 695 0008 01FA00F1 		lsl	r1, r1, r0	@ D.6586, DAC_IT, DAC_Channel
 696              	.LVL67:
 697 000c 5963     		str	r1, [r3, #52]	@ D.6586, MEM[(struct DAC_TypeDef *)1073771520B].SR
 698 000e 7047     		bx	lr	@
 699              		.cfi_endproc
 700              	.LFE126:
 701              		.size	DAC_ClearITPendingBit, .-DAC_ClearITPendingBit
 702              		.text
 703              	.Letext0:
 704              		.file 2 "c:\\gnutoolsarmembedded\\4.7-2012q4\\bin\\../lib/gcc/arm-none-eabi/4.7.3/../../../../arm-
 705              		.file 3 "cmsis/device/stm32f4xx.h"
 706              		.file 4 "cmsis/device/stm32f4xx_dac.h"
 707              		.file 5 "./cmsis/core/core_cm4.h"
 708              		.file 6 "./cmsis/device/stm32f4xx_rcc.h"