ARM GAS  C:\Users\CNous\AppData\Local\Temp\ccZi7tDD.s 			page 1


   1              		.syntax unified
   2              		.cpu cortex-m4
   3              		.eabi_attribute 27, 3	@ Tag_ABI_HardFP_use
   4              		.eabi_attribute 28, 1	@ Tag_ABI_VFP_args
   5              		.fpu fpv4-sp-d16
   6              		.eabi_attribute 20, 1	@ Tag_ABI_FP_denormal
   7              		.eabi_attribute 21, 1	@ Tag_ABI_FP_exceptions
   8              		.eabi_attribute 23, 3	@ Tag_ABI_FP_number_model
   9              		.eabi_attribute 24, 1	@ Tag_ABI_align8_needed
  10              		.eabi_attribute 25, 1	@ Tag_ABI_align8_preserved
  11              		.eabi_attribute 26, 1	@ Tag_ABI_enum_size
  12              		.eabi_attribute 30, 2	@ Tag_ABI_optimization_goals
  13              		.eabi_attribute 34, 1	@ Tag_CPU_unaligned_access
  14              		.eabi_attribute 18, 4	@ Tag_ABI_PCS_wchar_t
  15              		.file	"stm32f4xx_tim.c"
  16              	@ GNU C (GNU Tools for ARM Embedded Processors) version 4.7.3 20121207 (release) [ARM/embedded-4_7-
  17              	@	compiled by GNU C version 4.2.1-sjlj (mingw32-2), GMP version 4.3.2, MPFR version 2.4.2, MPC vers
  18              	@ GGC heuristics: --param ggc-min-expand=100 --param ggc-min-heapsize=131072
  19              	@ options passed:  -I . -I ./inc -I ./cmsis/core -I ./cmsis/device
  20              	@ -imultilib armv7e-m/fpu
  21              	@ -iprefix c:\gnutoolsarmembedded\4.7-2012q4\bin\../lib/gcc/arm-none-eabi/4.7.3/
  22              	@ -isysroot c:\gnutoolsarmembedded\4.7-2012q4\bin\../arm-none-eabi
  23              	@ -MD cmsis/device/stm32f4xx_tim.d -MF .dep/stm32f4xx_tim.o.d -MP
  24              	@ -MQ cmsis/device/stm32f4xx_tim.o -D__USES_INITFINI__ -D __FPU_USED=1
  25              	@ -D __arm__ -D __ASSEMBLY__ -D USE_STDPERIPH_DRIVER -D STM32F4XX
  26              	@ -D HSE_VALUE=8000000 -D __FPU_PRESENT=1 -D STM32F407VG
  27              	@ -D RUN_FROM_FLASH=1 cmsis/device/stm32f4xx_tim.c -mthumb -mcpu=cortex-m4
  28              	@ -mfloat-abi=hard -mfpu=fpv4-sp-d16
  29              	@ -auxbase-strip cmsis/device/stm32f4xx_tim.o -gdwarf-2 -O2 -Wall
  30              	@ -Wstrict-prototypes -fverbose-asm -ffunction-sections -fdata-sections
  31              	@ options enabled:  -fauto-inc-dec -fbranch-count-reg -fcaller-saves
  32              	@ -fcombine-stack-adjustments -fcommon -fcompare-elim -fcprop-registers
  33              	@ -fcrossjumping -fcse-follow-jumps -fdata-sections -fdebug-types-section
  34              	@ -fdefer-pop -fdelete-null-pointer-checks -fdevirtualize -fdwarf2-cfi-asm
  35              	@ -fearly-inlining -feliminate-unused-debug-types -fexpensive-optimizations
  36              	@ -fforward-propagate -ffunction-cse -ffunction-sections -fgcse -fgcse-lm
  37              	@ -fgnu-runtime -fguess-branch-probability -fident -fif-conversion
  38              	@ -fif-conversion2 -findirect-inlining -finline -finline-atomics
  39              	@ -finline-functions-called-once -finline-small-functions -fipa-cp
  40              	@ -fipa-profile -fipa-pure-const -fipa-reference -fipa-sra
  41              	@ -fira-share-save-slots -fira-share-spill-slots -fivopts
  42              	@ -fkeep-static-consts -fleading-underscore -fmath-errno -fmerge-constants
  43              	@ -fmerge-debug-strings -fmove-loop-invariants -fomit-frame-pointer
  44              	@ -foptimize-register-move -foptimize-sibling-calls -foptimize-strlen
  45              	@ -fpartial-inlining -fpeephole -fpeephole2 -fprefetch-loop-arrays
  46              	@ -freg-struct-return -fregmove -frename-registers -freorder-blocks
  47              	@ -freorder-functions -frerun-cse-after-loop
  48              	@ -fsched-critical-path-heuristic -fsched-dep-count-heuristic
  49              	@ -fsched-group-heuristic -fsched-interblock -fsched-last-insn-heuristic
  50              	@ -fsched-rank-heuristic -fsched-spec -fsched-spec-insn-heuristic
  51              	@ -fsched-stalled-insns-dep -fschedule-insns -fschedule-insns2
  52              	@ -fsection-anchors -fshow-column -fshrink-wrap -fsigned-zeros
  53              	@ -fsplit-ivs-in-unroller -fsplit-wide-types -fstrict-aliasing
  54              	@ -fstrict-overflow -fstrict-volatile-bitfields -fthread-jumps
  55              	@ -ftoplevel-reorder -ftrapping-math -ftree-bit-ccp -ftree-builtin-call-dce
  56              	@ -ftree-ccp -ftree-ch -ftree-copy-prop -ftree-copyrename -ftree-cselim
  57              	@ -ftree-dce -ftree-dominator-opts -ftree-dse -ftree-forwprop -ftree-fre
ARM GAS  C:\Users\CNous\AppData\Local\Temp\ccZi7tDD.s 			page 2


  58              	@ -ftree-loop-if-convert -ftree-loop-im -ftree-loop-ivcanon
  59              	@ -ftree-loop-optimize -ftree-parallelize-loops= -ftree-phiprop -ftree-pre
  60              	@ -ftree-pta -ftree-reassoc -ftree-scev-cprop -ftree-sink
  61              	@ -ftree-slp-vectorize -ftree-sra -ftree-switch-conversion
  62              	@ -ftree-tail-merge -ftree-ter -ftree-vect-loop-version -ftree-vrp
  63              	@ -funit-at-a-time -funroll-loops -fvar-tracking -fvar-tracking-assignments
  64              	@ -fverbose-asm -fweb -fzero-initialized-in-bss -mlittle-endian
  65              	@ -msched-prolog -mthumb -munaligned-access -mvectorize-with-neon-quad
  66              	
  67              		.text
  68              	.Ltext0:
  69              		.cfi_sections	.debug_frame
  70              		.section	.text.TIM_DeInit,"ax",%progbits
  71              		.align	2
  72              		.global	TIM_DeInit
  73              		.thumb
  74              		.thumb_func
  75              		.type	TIM_DeInit, %function
  76              	TIM_DeInit:
  77              	.LFB110:
  78              		.file 1 "cmsis/device/stm32f4xx_tim.c"
   1:cmsis/device/stm32f4xx_tim.c **** /**
   2:cmsis/device/stm32f4xx_tim.c ****   ******************************************************************************
   3:cmsis/device/stm32f4xx_tim.c ****   * @file    stm32f4xx_tim.c
   4:cmsis/device/stm32f4xx_tim.c ****   * @author  MCD Application Team
   5:cmsis/device/stm32f4xx_tim.c ****   * @version V1.0.0
   6:cmsis/device/stm32f4xx_tim.c ****   * @date    30-September-2011
   7:cmsis/device/stm32f4xx_tim.c ****   * @brief   This file provides firmware functions to manage the following 
   8:cmsis/device/stm32f4xx_tim.c ****   *          functionalities of the TIM peripheral:
   9:cmsis/device/stm32f4xx_tim.c ****   *            - TimeBase management
  10:cmsis/device/stm32f4xx_tim.c ****   *            - Output Compare management
  11:cmsis/device/stm32f4xx_tim.c ****   *            - Input Capture management
  12:cmsis/device/stm32f4xx_tim.c ****   *            - Advanced-control timers (TIM1 and TIM8) specific features  
  13:cmsis/device/stm32f4xx_tim.c ****   *            - Interrupts, DMA and flags management
  14:cmsis/device/stm32f4xx_tim.c ****   *            - Clocks management
  15:cmsis/device/stm32f4xx_tim.c ****   *            - Synchronization management
  16:cmsis/device/stm32f4xx_tim.c ****   *            - Specific interface management
  17:cmsis/device/stm32f4xx_tim.c ****   *            - Specific remapping management      
  18:cmsis/device/stm32f4xx_tim.c ****   *              
  19:cmsis/device/stm32f4xx_tim.c ****   *  @verbatim
  20:cmsis/device/stm32f4xx_tim.c ****   *  
  21:cmsis/device/stm32f4xx_tim.c ****   *          ===================================================================
  22:cmsis/device/stm32f4xx_tim.c ****   *                                 How to use this driver
  23:cmsis/device/stm32f4xx_tim.c ****   *          ===================================================================
  24:cmsis/device/stm32f4xx_tim.c ****   *          This driver provides functions to configure and program the TIM 
  25:cmsis/device/stm32f4xx_tim.c ****   *          of all STM32F4xx devices.
  26:cmsis/device/stm32f4xx_tim.c ****   *          These functions are split in 9 groups: 
  27:cmsis/device/stm32f4xx_tim.c ****   *   
  28:cmsis/device/stm32f4xx_tim.c ****   *          1. TIM TimeBase management: this group includes all needed functions 
  29:cmsis/device/stm32f4xx_tim.c ****   *             to configure the TM Timebase unit:
  30:cmsis/device/stm32f4xx_tim.c ****   *                   - Set/Get Prescaler
  31:cmsis/device/stm32f4xx_tim.c ****   *                   - Set/Get Autoreload  
  32:cmsis/device/stm32f4xx_tim.c ****   *                   - Counter modes configuration
  33:cmsis/device/stm32f4xx_tim.c ****   *                   - Set Clock division  
  34:cmsis/device/stm32f4xx_tim.c ****   *                   - Select the One Pulse mode
  35:cmsis/device/stm32f4xx_tim.c ****   *                   - Update Request Configuration
  36:cmsis/device/stm32f4xx_tim.c ****   *                   - Update Disable Configuration
ARM GAS  C:\Users\CNous\AppData\Local\Temp\ccZi7tDD.s 			page 3


  37:cmsis/device/stm32f4xx_tim.c ****   *                   - Auto-Preload Configuration 
  38:cmsis/device/stm32f4xx_tim.c ****   *                   - Enable/Disable the counter     
  39:cmsis/device/stm32f4xx_tim.c ****   *                 
  40:cmsis/device/stm32f4xx_tim.c ****   *          2. TIM Output Compare management: this group includes all needed 
  41:cmsis/device/stm32f4xx_tim.c ****   *             functions to configure the Capture/Compare unit used in Output 
  42:cmsis/device/stm32f4xx_tim.c ****   *             compare mode: 
  43:cmsis/device/stm32f4xx_tim.c ****   *                   - Configure each channel, independently, in Output Compare mode
  44:cmsis/device/stm32f4xx_tim.c ****   *                   - Select the output compare modes
  45:cmsis/device/stm32f4xx_tim.c ****   *                   - Select the Polarities of each channel
  46:cmsis/device/stm32f4xx_tim.c ****   *                   - Set/Get the Capture/Compare register values
  47:cmsis/device/stm32f4xx_tim.c ****   *                   - Select the Output Compare Fast mode 
  48:cmsis/device/stm32f4xx_tim.c ****   *                   - Select the Output Compare Forced mode  
  49:cmsis/device/stm32f4xx_tim.c ****   *                   - Output Compare-Preload Configuration 
  50:cmsis/device/stm32f4xx_tim.c ****   *                   - Clear Output Compare Reference
  51:cmsis/device/stm32f4xx_tim.c ****   *                   - Select the OCREF Clear signal
  52:cmsis/device/stm32f4xx_tim.c ****   *                   - Enable/Disable the Capture/Compare Channels    
  53:cmsis/device/stm32f4xx_tim.c ****   *                   
  54:cmsis/device/stm32f4xx_tim.c ****   *          3. TIM Input Capture management: this group includes all needed 
  55:cmsis/device/stm32f4xx_tim.c ****   *             functions to configure the Capture/Compare unit used in 
  56:cmsis/device/stm32f4xx_tim.c ****   *             Input Capture mode:
  57:cmsis/device/stm32f4xx_tim.c ****   *                   - Configure each channel in input capture mode
  58:cmsis/device/stm32f4xx_tim.c ****   *                   - Configure Channel1/2 in PWM Input mode
  59:cmsis/device/stm32f4xx_tim.c ****   *                   - Set the Input Capture Prescaler
  60:cmsis/device/stm32f4xx_tim.c ****   *                   - Get the Capture/Compare values      
  61:cmsis/device/stm32f4xx_tim.c ****   *                   
  62:cmsis/device/stm32f4xx_tim.c ****   *          4. Advanced-control timers (TIM1 and TIM8) specific features
  63:cmsis/device/stm32f4xx_tim.c ****   *                   - Configures the Break input, dead time, Lock level, the OSSI,
  64:cmsis/device/stm32f4xx_tim.c ****   *                      the OSSR State and the AOE(automatic output enable)
  65:cmsis/device/stm32f4xx_tim.c ****   *                   - Enable/Disable the TIM peripheral Main Outputs
  66:cmsis/device/stm32f4xx_tim.c ****   *                   - Select the Commutation event
  67:cmsis/device/stm32f4xx_tim.c ****   *                   - Set/Reset the Capture Compare Preload Control bit
  68:cmsis/device/stm32f4xx_tim.c ****   *                              
  69:cmsis/device/stm32f4xx_tim.c ****   *          5. TIM interrupts, DMA and flags management
  70:cmsis/device/stm32f4xx_tim.c ****   *                   - Enable/Disable interrupt sources
  71:cmsis/device/stm32f4xx_tim.c ****   *                   - Get flags status
  72:cmsis/device/stm32f4xx_tim.c ****   *                   - Clear flags/ Pending bits
  73:cmsis/device/stm32f4xx_tim.c ****   *                   - Enable/Disable DMA requests 
  74:cmsis/device/stm32f4xx_tim.c ****   *                   - Configure DMA burst mode
  75:cmsis/device/stm32f4xx_tim.c ****   *                   - Select CaptureCompare DMA request  
  76:cmsis/device/stm32f4xx_tim.c ****   *              
  77:cmsis/device/stm32f4xx_tim.c ****   *          6. TIM clocks management: this group includes all needed functions 
  78:cmsis/device/stm32f4xx_tim.c ****   *             to configure the clock controller unit:
  79:cmsis/device/stm32f4xx_tim.c ****   *                   - Select internal/External clock
  80:cmsis/device/stm32f4xx_tim.c ****   *                   - Select the external clock mode: ETR(Mode1/Mode2), TIx or ITRx
  81:cmsis/device/stm32f4xx_tim.c ****   *         
  82:cmsis/device/stm32f4xx_tim.c ****   *          7. TIM synchronization management: this group includes all needed 
  83:cmsis/device/stm32f4xx_tim.c ****   *             functions to configure the Synchronization unit:
  84:cmsis/device/stm32f4xx_tim.c ****   *                   - Select Input Trigger  
  85:cmsis/device/stm32f4xx_tim.c ****   *                   - Select Output Trigger  
  86:cmsis/device/stm32f4xx_tim.c ****   *                   - Select Master Slave Mode 
  87:cmsis/device/stm32f4xx_tim.c ****   *                   - ETR Configuration when used as external trigger   
  88:cmsis/device/stm32f4xx_tim.c ****   *     
  89:cmsis/device/stm32f4xx_tim.c ****   *          8. TIM specific interface management, this group includes all 
  90:cmsis/device/stm32f4xx_tim.c ****   *             needed functions to use the specific TIM interface:
  91:cmsis/device/stm32f4xx_tim.c ****   *                   - Encoder Interface Configuration
  92:cmsis/device/stm32f4xx_tim.c ****   *                   - Select Hall Sensor   
  93:cmsis/device/stm32f4xx_tim.c ****   *         
ARM GAS  C:\Users\CNous\AppData\Local\Temp\ccZi7tDD.s 			page 4


  94:cmsis/device/stm32f4xx_tim.c ****   *          9. TIM specific remapping management includes the Remapping 
  95:cmsis/device/stm32f4xx_tim.c ****   *             configuration of specific timers               
  96:cmsis/device/stm32f4xx_tim.c ****   *   
  97:cmsis/device/stm32f4xx_tim.c ****   *  @endverbatim
  98:cmsis/device/stm32f4xx_tim.c ****   *    
  99:cmsis/device/stm32f4xx_tim.c ****   ******************************************************************************
 100:cmsis/device/stm32f4xx_tim.c ****   * @attention
 101:cmsis/device/stm32f4xx_tim.c ****   *
 102:cmsis/device/stm32f4xx_tim.c ****   * THE PRESENT FIRMWARE WHICH IS FOR GUIDANCE ONLY AIMS AT PROVIDING CUSTOMERS
 103:cmsis/device/stm32f4xx_tim.c ****   * WITH CODING INFORMATION REGARDING THEIR PRODUCTS IN ORDER FOR THEM TO SAVE
 104:cmsis/device/stm32f4xx_tim.c ****   * TIME. AS A RESULT, STMICROELECTRONICS SHALL NOT BE HELD LIABLE FOR ANY
 105:cmsis/device/stm32f4xx_tim.c ****   * DIRECT, INDIRECT OR CONSEQUENTIAL DAMAGES WITH RESPECT TO ANY CLAIMS ARISING
 106:cmsis/device/stm32f4xx_tim.c ****   * FROM THE CONTENT OF SUCH FIRMWARE AND/OR THE USE MADE BY CUSTOMERS OF THE
 107:cmsis/device/stm32f4xx_tim.c ****   * CODING INFORMATION CONTAINED HEREIN IN CONNECTION WITH THEIR PRODUCTS.
 108:cmsis/device/stm32f4xx_tim.c ****   *
 109:cmsis/device/stm32f4xx_tim.c ****   * <h2><center>&copy; COPYRIGHT 2011 STMicroelectronics</center></h2>
 110:cmsis/device/stm32f4xx_tim.c ****   ******************************************************************************
 111:cmsis/device/stm32f4xx_tim.c ****   */
 112:cmsis/device/stm32f4xx_tim.c **** 
 113:cmsis/device/stm32f4xx_tim.c **** /* Includes ------------------------------------------------------------------*/
 114:cmsis/device/stm32f4xx_tim.c **** #include "stm32f4xx_tim.h"
 115:cmsis/device/stm32f4xx_tim.c **** #include "stm32f4xx_rcc.h"
 116:cmsis/device/stm32f4xx_tim.c **** 
 117:cmsis/device/stm32f4xx_tim.c **** /** @addtogroup STM32F4xx_StdPeriph_Driver
 118:cmsis/device/stm32f4xx_tim.c ****   * @{
 119:cmsis/device/stm32f4xx_tim.c ****   */
 120:cmsis/device/stm32f4xx_tim.c **** 
 121:cmsis/device/stm32f4xx_tim.c **** /** @defgroup TIM 
 122:cmsis/device/stm32f4xx_tim.c ****   * @brief TIM driver modules
 123:cmsis/device/stm32f4xx_tim.c ****   * @{
 124:cmsis/device/stm32f4xx_tim.c ****   */
 125:cmsis/device/stm32f4xx_tim.c **** 
 126:cmsis/device/stm32f4xx_tim.c **** /* Private typedef -----------------------------------------------------------*/
 127:cmsis/device/stm32f4xx_tim.c **** /* Private define ------------------------------------------------------------*/
 128:cmsis/device/stm32f4xx_tim.c **** 
 129:cmsis/device/stm32f4xx_tim.c **** /* ---------------------- TIM registers bit mask ------------------------ */
 130:cmsis/device/stm32f4xx_tim.c **** #define SMCR_ETR_MASK      ((uint16_t)0x00FF) 
 131:cmsis/device/stm32f4xx_tim.c **** #define CCMR_OFFSET        ((uint16_t)0x0018)
 132:cmsis/device/stm32f4xx_tim.c **** #define CCER_CCE_SET       ((uint16_t)0x0001)  
 133:cmsis/device/stm32f4xx_tim.c **** #define	CCER_CCNE_SET      ((uint16_t)0x0004) 
 134:cmsis/device/stm32f4xx_tim.c **** #define CCMR_OC13M_MASK    ((uint16_t)0xFF8F)
 135:cmsis/device/stm32f4xx_tim.c **** #define CCMR_OC24M_MASK    ((uint16_t)0x8FFF) 
 136:cmsis/device/stm32f4xx_tim.c **** 
 137:cmsis/device/stm32f4xx_tim.c **** /* Private macro -------------------------------------------------------------*/
 138:cmsis/device/stm32f4xx_tim.c **** /* Private variables ---------------------------------------------------------*/
 139:cmsis/device/stm32f4xx_tim.c **** /* Private function prototypes -----------------------------------------------*/
 140:cmsis/device/stm32f4xx_tim.c **** static void TI1_Config(TIM_TypeDef* TIMx, uint16_t TIM_ICPolarity, uint16_t TIM_ICSelection,
 141:cmsis/device/stm32f4xx_tim.c ****                        uint16_t TIM_ICFilter);
 142:cmsis/device/stm32f4xx_tim.c **** static void TI2_Config(TIM_TypeDef* TIMx, uint16_t TIM_ICPolarity, uint16_t TIM_ICSelection,
 143:cmsis/device/stm32f4xx_tim.c ****                        uint16_t TIM_ICFilter);
 144:cmsis/device/stm32f4xx_tim.c **** static void TI3_Config(TIM_TypeDef* TIMx, uint16_t TIM_ICPolarity, uint16_t TIM_ICSelection,
 145:cmsis/device/stm32f4xx_tim.c ****                        uint16_t TIM_ICFilter);
 146:cmsis/device/stm32f4xx_tim.c **** static void TI4_Config(TIM_TypeDef* TIMx, uint16_t TIM_ICPolarity, uint16_t TIM_ICSelection,
 147:cmsis/device/stm32f4xx_tim.c ****                        uint16_t TIM_ICFilter);
 148:cmsis/device/stm32f4xx_tim.c **** 
 149:cmsis/device/stm32f4xx_tim.c **** /* Private functions ---------------------------------------------------------*/
 150:cmsis/device/stm32f4xx_tim.c **** 
ARM GAS  C:\Users\CNous\AppData\Local\Temp\ccZi7tDD.s 			page 5


 151:cmsis/device/stm32f4xx_tim.c **** /** @defgroup TIM_Private_Functions
 152:cmsis/device/stm32f4xx_tim.c ****   * @{
 153:cmsis/device/stm32f4xx_tim.c ****   */
 154:cmsis/device/stm32f4xx_tim.c **** 
 155:cmsis/device/stm32f4xx_tim.c **** /** @defgroup TIM_Group1 TimeBase management functions
 156:cmsis/device/stm32f4xx_tim.c ****  *  @brief   TimeBase management functions 
 157:cmsis/device/stm32f4xx_tim.c ****  *
 158:cmsis/device/stm32f4xx_tim.c **** @verbatim   
 159:cmsis/device/stm32f4xx_tim.c ****  ===============================================================================
 160:cmsis/device/stm32f4xx_tim.c ****                        TimeBase management functions
 161:cmsis/device/stm32f4xx_tim.c ****  ===============================================================================  
 162:cmsis/device/stm32f4xx_tim.c ****   
 163:cmsis/device/stm32f4xx_tim.c ****        ===================================================================      
 164:cmsis/device/stm32f4xx_tim.c ****               TIM Driver: how to use it in Timing(Time base) Mode
 165:cmsis/device/stm32f4xx_tim.c ****        =================================================================== 
 166:cmsis/device/stm32f4xx_tim.c ****        To use the Timer in Timing(Time base) mode, the following steps are mandatory:
 167:cmsis/device/stm32f4xx_tim.c ****        
 168:cmsis/device/stm32f4xx_tim.c ****        1. Enable TIM clock using RCC_APBxPeriphClockCmd(RCC_APBxPeriph_TIMx, ENABLE) function
 169:cmsis/device/stm32f4xx_tim.c ****                     
 170:cmsis/device/stm32f4xx_tim.c ****        2. Fill the TIM_TimeBaseInitStruct with the desired parameters.
 171:cmsis/device/stm32f4xx_tim.c ****        
 172:cmsis/device/stm32f4xx_tim.c ****        3. Call TIM_TimeBaseInit(TIMx, &TIM_TimeBaseInitStruct) to configure the Time Base unit
 173:cmsis/device/stm32f4xx_tim.c ****           with the corresponding configuration
 174:cmsis/device/stm32f4xx_tim.c ****           
 175:cmsis/device/stm32f4xx_tim.c ****        4. Enable the NVIC if you need to generate the update interrupt. 
 176:cmsis/device/stm32f4xx_tim.c ****           
 177:cmsis/device/stm32f4xx_tim.c ****        5. Enable the corresponding interrupt using the function TIM_ITConfig(TIMx, TIM_IT_Update) 
 178:cmsis/device/stm32f4xx_tim.c ****        
 179:cmsis/device/stm32f4xx_tim.c ****        6. Call the TIM_Cmd(ENABLE) function to enable the TIM counter.
 180:cmsis/device/stm32f4xx_tim.c ****              
 181:cmsis/device/stm32f4xx_tim.c ****        Note1: All other functions can be used separately to modify, if needed,
 182:cmsis/device/stm32f4xx_tim.c ****           a specific feature of the Timer. 
 183:cmsis/device/stm32f4xx_tim.c **** 
 184:cmsis/device/stm32f4xx_tim.c **** @endverbatim
 185:cmsis/device/stm32f4xx_tim.c ****   * @{
 186:cmsis/device/stm32f4xx_tim.c ****   */
 187:cmsis/device/stm32f4xx_tim.c ****   
 188:cmsis/device/stm32f4xx_tim.c **** /**
 189:cmsis/device/stm32f4xx_tim.c ****   * @brief  Deinitializes the TIMx peripheral registers to their default reset values.
 190:cmsis/device/stm32f4xx_tim.c ****   * @param  TIMx: where x can be 1 to 14 to select the TIM peripheral.
 191:cmsis/device/stm32f4xx_tim.c ****   * @retval None
 192:cmsis/device/stm32f4xx_tim.c **** 
 193:cmsis/device/stm32f4xx_tim.c ****   */
 194:cmsis/device/stm32f4xx_tim.c **** void TIM_DeInit(TIM_TypeDef* TIMx)
 195:cmsis/device/stm32f4xx_tim.c **** {
  79              		.loc 1 195 0
  80              		.cfi_startproc
  81              		@ args = 0, pretend = 0, frame = 0
  82              		@ frame_needed = 0, uses_anonymous_args = 0
  83              	.LVL0:
  84 0000 08B5     		push	{r3, lr}	@
  85              	.LCFI0:
  86              		.cfi_def_cfa_offset 8
  87              		.cfi_offset 3, -8
  88              		.cfi_offset 14, -4
 196:cmsis/device/stm32f4xx_tim.c ****   /* Check the parameters */
 197:cmsis/device/stm32f4xx_tim.c ****   assert_param(IS_TIM_ALL_PERIPH(TIMx)); 
ARM GAS  C:\Users\CNous\AppData\Local\Temp\ccZi7tDD.s 			page 6


 198:cmsis/device/stm32f4xx_tim.c ****  
 199:cmsis/device/stm32f4xx_tim.c ****   if (TIMx == TIM1)
  89              		.loc 1 199 0
  90 0002 0023     		movs	r3, #0	@ tmp135,
  91 0004 C4F20103 		movt	r3, 16385	@ tmp135,
  92 0008 9842     		cmp	r0, r3	@ TIMx, tmp135
  93 000a 5BD0     		beq	.L17	@,
 200:cmsis/device/stm32f4xx_tim.c ****   {
 201:cmsis/device/stm32f4xx_tim.c ****     RCC_APB2PeriphResetCmd(RCC_APB2Periph_TIM1, ENABLE);
 202:cmsis/device/stm32f4xx_tim.c ****     RCC_APB2PeriphResetCmd(RCC_APB2Periph_TIM1, DISABLE);  
 203:cmsis/device/stm32f4xx_tim.c ****   } 
 204:cmsis/device/stm32f4xx_tim.c ****   else if (TIMx == TIM2) 
  94              		.loc 1 204 0
  95 000c B0F1804F 		cmp	r0, #1073741824	@ TIMx,
  96 0010 62D0     		beq	.L18	@,
 205:cmsis/device/stm32f4xx_tim.c ****   {     
 206:cmsis/device/stm32f4xx_tim.c ****     RCC_APB1PeriphResetCmd(RCC_APB1Periph_TIM2, ENABLE);
 207:cmsis/device/stm32f4xx_tim.c ****     RCC_APB1PeriphResetCmd(RCC_APB1Periph_TIM2, DISABLE);
 208:cmsis/device/stm32f4xx_tim.c ****   }  
 209:cmsis/device/stm32f4xx_tim.c ****   else if (TIMx == TIM3)
  97              		.loc 1 209 0
  98 0012 4FF48061 		mov	r1, #1024	@ tmp136,
  99 0016 C4F20001 		movt	r1, 16384	@ tmp136,
 100 001a 8842     		cmp	r0, r1	@ TIMx, tmp136
 101 001c 66D0     		beq	.L19	@,
 210:cmsis/device/stm32f4xx_tim.c ****   { 
 211:cmsis/device/stm32f4xx_tim.c ****     RCC_APB1PeriphResetCmd(RCC_APB1Periph_TIM3, ENABLE);
 212:cmsis/device/stm32f4xx_tim.c ****     RCC_APB1PeriphResetCmd(RCC_APB1Periph_TIM3, DISABLE);
 213:cmsis/device/stm32f4xx_tim.c ****   }  
 214:cmsis/device/stm32f4xx_tim.c ****   else if (TIMx == TIM4)
 102              		.loc 1 214 0
 103 001e 4FF40062 		mov	r2, #2048	@ tmp137,
 104 0022 C4F20002 		movt	r2, 16384	@ tmp137,
 105 0026 9042     		cmp	r0, r2	@ TIMx, tmp137
 106 0028 6AD0     		beq	.L20	@,
 215:cmsis/device/stm32f4xx_tim.c ****   { 
 216:cmsis/device/stm32f4xx_tim.c ****     RCC_APB1PeriphResetCmd(RCC_APB1Periph_TIM4, ENABLE);
 217:cmsis/device/stm32f4xx_tim.c ****     RCC_APB1PeriphResetCmd(RCC_APB1Periph_TIM4, DISABLE);
 218:cmsis/device/stm32f4xx_tim.c ****   }  
 219:cmsis/device/stm32f4xx_tim.c ****   else if (TIMx == TIM5)
 107              		.loc 1 219 0
 108 002a 4FF44063 		mov	r3, #3072	@ tmp138,
 109 002e C4F20003 		movt	r3, 16384	@ tmp138,
 110 0032 9842     		cmp	r0, r3	@ TIMx, tmp138
 111 0034 6ED0     		beq	.L21	@,
 220:cmsis/device/stm32f4xx_tim.c ****   {      
 221:cmsis/device/stm32f4xx_tim.c ****     RCC_APB1PeriphResetCmd(RCC_APB1Periph_TIM5, ENABLE);
 222:cmsis/device/stm32f4xx_tim.c ****     RCC_APB1PeriphResetCmd(RCC_APB1Periph_TIM5, DISABLE);
 223:cmsis/device/stm32f4xx_tim.c ****   }  
 224:cmsis/device/stm32f4xx_tim.c ****   else if (TIMx == TIM6)  
 112              		.loc 1 224 0
 113 0036 4FF48051 		mov	r1, #4096	@ tmp139,
 114 003a C4F20001 		movt	r1, 16384	@ tmp139,
 115 003e 8842     		cmp	r0, r1	@ TIMx, tmp139
 116 0040 72D0     		beq	.L22	@,
 225:cmsis/device/stm32f4xx_tim.c ****   {    
 226:cmsis/device/stm32f4xx_tim.c ****     RCC_APB1PeriphResetCmd(RCC_APB1Periph_TIM6, ENABLE);
ARM GAS  C:\Users\CNous\AppData\Local\Temp\ccZi7tDD.s 			page 7


 227:cmsis/device/stm32f4xx_tim.c ****     RCC_APB1PeriphResetCmd(RCC_APB1Periph_TIM6, DISABLE);
 228:cmsis/device/stm32f4xx_tim.c ****   }  
 229:cmsis/device/stm32f4xx_tim.c ****   else if (TIMx == TIM7)
 117              		.loc 1 229 0
 118 0042 4FF4A052 		mov	r2, #5120	@ tmp140,
 119 0046 C4F20002 		movt	r2, 16384	@ tmp140,
 120 004a 9042     		cmp	r0, r2	@ TIMx, tmp140
 121 004c 76D0     		beq	.L23	@,
 230:cmsis/device/stm32f4xx_tim.c ****   {      
 231:cmsis/device/stm32f4xx_tim.c ****     RCC_APB1PeriphResetCmd(RCC_APB1Periph_TIM7, ENABLE);
 232:cmsis/device/stm32f4xx_tim.c ****     RCC_APB1PeriphResetCmd(RCC_APB1Periph_TIM7, DISABLE);
 233:cmsis/device/stm32f4xx_tim.c ****   }  
 234:cmsis/device/stm32f4xx_tim.c ****   else if (TIMx == TIM8)
 122              		.loc 1 234 0
 123 004e 4FF48063 		mov	r3, #1024	@ tmp141,
 124 0052 C4F20103 		movt	r3, 16385	@ tmp141,
 125 0056 9842     		cmp	r0, r3	@ TIMx, tmp141
 126 0058 7AD0     		beq	.L24	@,
 235:cmsis/device/stm32f4xx_tim.c ****   {      
 236:cmsis/device/stm32f4xx_tim.c ****     RCC_APB2PeriphResetCmd(RCC_APB2Periph_TIM8, ENABLE);
 237:cmsis/device/stm32f4xx_tim.c ****     RCC_APB2PeriphResetCmd(RCC_APB2Periph_TIM8, DISABLE);  
 238:cmsis/device/stm32f4xx_tim.c ****   }  
 239:cmsis/device/stm32f4xx_tim.c ****   else if (TIMx == TIM9)
 127              		.loc 1 239 0
 128 005a 4FF48041 		mov	r1, #16384	@ tmp142,
 129 005e C4F20101 		movt	r1, 16385	@ tmp142,
 130 0062 8842     		cmp	r0, r1	@ TIMx, tmp142
 131 0064 7ED0     		beq	.L25	@,
 240:cmsis/device/stm32f4xx_tim.c ****   {      
 241:cmsis/device/stm32f4xx_tim.c ****     RCC_APB2PeriphResetCmd(RCC_APB2Periph_TIM9, ENABLE);
 242:cmsis/device/stm32f4xx_tim.c ****     RCC_APB2PeriphResetCmd(RCC_APB2Periph_TIM9, DISABLE);  
 243:cmsis/device/stm32f4xx_tim.c ****    }  
 244:cmsis/device/stm32f4xx_tim.c ****   else if (TIMx == TIM10)
 132              		.loc 1 244 0
 133 0066 4FF48842 		mov	r2, #17408	@ tmp143,
 134 006a C4F20102 		movt	r2, 16385	@ tmp143,
 135 006e 9042     		cmp	r0, r2	@ TIMx, tmp143
 136 0070 00F08480 		beq	.L26	@,
 245:cmsis/device/stm32f4xx_tim.c ****   {      
 246:cmsis/device/stm32f4xx_tim.c ****     RCC_APB2PeriphResetCmd(RCC_APB2Periph_TIM10, ENABLE);
 247:cmsis/device/stm32f4xx_tim.c ****     RCC_APB2PeriphResetCmd(RCC_APB2Periph_TIM10, DISABLE);  
 248:cmsis/device/stm32f4xx_tim.c ****   }  
 249:cmsis/device/stm32f4xx_tim.c ****   else if (TIMx == TIM11) 
 137              		.loc 1 249 0
 138 0074 4FF49043 		mov	r3, #18432	@ tmp144,
 139 0078 C4F20103 		movt	r3, 16385	@ tmp144,
 140 007c 9842     		cmp	r0, r3	@ TIMx, tmp144
 141 007e 00F08980 		beq	.L27	@,
 250:cmsis/device/stm32f4xx_tim.c ****   {     
 251:cmsis/device/stm32f4xx_tim.c ****     RCC_APB2PeriphResetCmd(RCC_APB2Periph_TIM11, ENABLE);
 252:cmsis/device/stm32f4xx_tim.c ****     RCC_APB2PeriphResetCmd(RCC_APB2Periph_TIM11, DISABLE);  
 253:cmsis/device/stm32f4xx_tim.c ****   }  
 254:cmsis/device/stm32f4xx_tim.c ****   else if (TIMx == TIM12)
 142              		.loc 1 254 0
 143 0082 4FF4C051 		mov	r1, #6144	@ tmp145,
 144 0086 C4F20001 		movt	r1, 16384	@ tmp145,
 145 008a 8842     		cmp	r0, r1	@ TIMx, tmp145
ARM GAS  C:\Users\CNous\AppData\Local\Temp\ccZi7tDD.s 			page 8


 146 008c 00F08E80 		beq	.L28	@,
 255:cmsis/device/stm32f4xx_tim.c ****   {      
 256:cmsis/device/stm32f4xx_tim.c ****     RCC_APB1PeriphResetCmd(RCC_APB1Periph_TIM12, ENABLE);
 257:cmsis/device/stm32f4xx_tim.c ****     RCC_APB1PeriphResetCmd(RCC_APB1Periph_TIM12, DISABLE);  
 258:cmsis/device/stm32f4xx_tim.c ****   }  
 259:cmsis/device/stm32f4xx_tim.c ****   else if (TIMx == TIM13) 
 147              		.loc 1 259 0
 148 0090 4FF4E052 		mov	r2, #7168	@ tmp146,
 149 0094 C4F20002 		movt	r2, 16384	@ tmp146,
 150 0098 9042     		cmp	r0, r2	@ TIMx, tmp146
 151 009a 00F09180 		beq	.L29	@,
 260:cmsis/device/stm32f4xx_tim.c ****   {       
 261:cmsis/device/stm32f4xx_tim.c ****     RCC_APB1PeriphResetCmd(RCC_APB1Periph_TIM13, ENABLE);
 262:cmsis/device/stm32f4xx_tim.c ****     RCC_APB1PeriphResetCmd(RCC_APB1Periph_TIM13, DISABLE);  
 263:cmsis/device/stm32f4xx_tim.c ****   }  
 264:cmsis/device/stm32f4xx_tim.c ****   else
 265:cmsis/device/stm32f4xx_tim.c ****   { 
 266:cmsis/device/stm32f4xx_tim.c ****     if (TIMx == TIM14) 
 152              		.loc 1 266 0
 153 009e 4FF40053 		mov	r3, #8192	@ tmp147,
 154 00a2 C4F20003 		movt	r3, 16384	@ tmp147,
 155 00a6 9842     		cmp	r0, r3	@ TIMx, tmp147
 156 00a8 00D0     		beq	.L30	@,
 157 00aa 08BD     		pop	{r3, pc}	@
 158              	.L30:
 267:cmsis/device/stm32f4xx_tim.c ****     {     
 268:cmsis/device/stm32f4xx_tim.c ****       RCC_APB1PeriphResetCmd(RCC_APB1Periph_TIM14, ENABLE);
 159              		.loc 1 268 0
 160 00ac 0121     		movs	r1, #1	@,
 161 00ae 4FF48070 		mov	r0, #256	@,
 162              	.LVL1:
 163 00b2 FFF7FEFF 		bl	RCC_APB1PeriphResetCmd	@
 164              	.LVL2:
 269:cmsis/device/stm32f4xx_tim.c ****       RCC_APB1PeriphResetCmd(RCC_APB1Periph_TIM14, DISABLE); 
 165              		.loc 1 269 0
 166 00b6 4FF48070 		mov	r0, #256	@,
 167 00ba 0021     		movs	r1, #0	@,
 270:cmsis/device/stm32f4xx_tim.c ****     }   
 271:cmsis/device/stm32f4xx_tim.c ****   }
 272:cmsis/device/stm32f4xx_tim.c **** }
 168              		.loc 1 272 0
 169 00bc BDE80840 		pop	{r3, lr}	@
 269:cmsis/device/stm32f4xx_tim.c ****       RCC_APB1PeriphResetCmd(RCC_APB1Periph_TIM14, DISABLE); 
 170              		.loc 1 269 0
 171 00c0 FFF7FEBF 		b	RCC_APB1PeriphResetCmd	@
 172              	.LVL3:
 173              	.L17:
 201:cmsis/device/stm32f4xx_tim.c ****     RCC_APB2PeriphResetCmd(RCC_APB2Periph_TIM1, ENABLE);
 174              		.loc 1 201 0
 175 00c4 0120     		movs	r0, #1	@,
 176              	.LVL4:
 177 00c6 0146     		mov	r1, r0	@,
 178 00c8 FFF7FEFF 		bl	RCC_APB2PeriphResetCmd	@
 179              	.LVL5:
 202:cmsis/device/stm32f4xx_tim.c ****     RCC_APB2PeriphResetCmd(RCC_APB2Periph_TIM1, DISABLE);  
 180              		.loc 1 202 0
 181 00cc 0120     		movs	r0, #1	@,
ARM GAS  C:\Users\CNous\AppData\Local\Temp\ccZi7tDD.s 			page 9


 182 00ce 0021     		movs	r1, #0	@,
 183              		.loc 1 272 0
 184 00d0 BDE80840 		pop	{r3, lr}	@
 202:cmsis/device/stm32f4xx_tim.c ****     RCC_APB2PeriphResetCmd(RCC_APB2Periph_TIM1, DISABLE);  
 185              		.loc 1 202 0
 186 00d4 FFF7FEBF 		b	RCC_APB2PeriphResetCmd	@
 187              	.LVL6:
 188              	.L18:
 206:cmsis/device/stm32f4xx_tim.c ****     RCC_APB1PeriphResetCmd(RCC_APB1Periph_TIM2, ENABLE);
 189              		.loc 1 206 0
 190 00d8 0120     		movs	r0, #1	@,
 191              	.LVL7:
 192 00da 0146     		mov	r1, r0	@,
 193 00dc FFF7FEFF 		bl	RCC_APB1PeriphResetCmd	@
 194              	.LVL8:
 207:cmsis/device/stm32f4xx_tim.c ****     RCC_APB1PeriphResetCmd(RCC_APB1Periph_TIM2, DISABLE);
 195              		.loc 1 207 0
 196 00e0 0120     		movs	r0, #1	@,
 197 00e2 0021     		movs	r1, #0	@,
 198              		.loc 1 272 0
 199 00e4 BDE80840 		pop	{r3, lr}	@
 207:cmsis/device/stm32f4xx_tim.c ****     RCC_APB1PeriphResetCmd(RCC_APB1Periph_TIM2, DISABLE);
 200              		.loc 1 207 0
 201 00e8 FFF7FEBF 		b	RCC_APB1PeriphResetCmd	@
 202              	.LVL9:
 203              	.L19:
 211:cmsis/device/stm32f4xx_tim.c ****     RCC_APB1PeriphResetCmd(RCC_APB1Periph_TIM3, ENABLE);
 204              		.loc 1 211 0
 205 00ec 0220     		movs	r0, #2	@,
 206              	.LVL10:
 207 00ee 0121     		movs	r1, #1	@,
 208 00f0 FFF7FEFF 		bl	RCC_APB1PeriphResetCmd	@
 209              	.LVL11:
 212:cmsis/device/stm32f4xx_tim.c ****     RCC_APB1PeriphResetCmd(RCC_APB1Periph_TIM3, DISABLE);
 210              		.loc 1 212 0
 211 00f4 0220     		movs	r0, #2	@,
 212 00f6 0021     		movs	r1, #0	@,
 213              		.loc 1 272 0
 214 00f8 BDE80840 		pop	{r3, lr}	@
 212:cmsis/device/stm32f4xx_tim.c ****     RCC_APB1PeriphResetCmd(RCC_APB1Periph_TIM3, DISABLE);
 215              		.loc 1 212 0
 216 00fc FFF7FEBF 		b	RCC_APB1PeriphResetCmd	@
 217              	.LVL12:
 218              	.L20:
 216:cmsis/device/stm32f4xx_tim.c ****     RCC_APB1PeriphResetCmd(RCC_APB1Periph_TIM4, ENABLE);
 219              		.loc 1 216 0
 220 0100 0420     		movs	r0, #4	@,
 221              	.LVL13:
 222 0102 0121     		movs	r1, #1	@,
 223 0104 FFF7FEFF 		bl	RCC_APB1PeriphResetCmd	@
 224              	.LVL14:
 217:cmsis/device/stm32f4xx_tim.c ****     RCC_APB1PeriphResetCmd(RCC_APB1Periph_TIM4, DISABLE);
 225              		.loc 1 217 0
 226 0108 0420     		movs	r0, #4	@,
 227 010a 0021     		movs	r1, #0	@,
 228              		.loc 1 272 0
 229 010c BDE80840 		pop	{r3, lr}	@
ARM GAS  C:\Users\CNous\AppData\Local\Temp\ccZi7tDD.s 			page 10


 217:cmsis/device/stm32f4xx_tim.c ****     RCC_APB1PeriphResetCmd(RCC_APB1Periph_TIM4, DISABLE);
 230              		.loc 1 217 0
 231 0110 FFF7FEBF 		b	RCC_APB1PeriphResetCmd	@
 232              	.LVL15:
 233              	.L21:
 221:cmsis/device/stm32f4xx_tim.c ****     RCC_APB1PeriphResetCmd(RCC_APB1Periph_TIM5, ENABLE);
 234              		.loc 1 221 0
 235 0114 0820     		movs	r0, #8	@,
 236              	.LVL16:
 237 0116 0121     		movs	r1, #1	@,
 238 0118 FFF7FEFF 		bl	RCC_APB1PeriphResetCmd	@
 239              	.LVL17:
 222:cmsis/device/stm32f4xx_tim.c ****     RCC_APB1PeriphResetCmd(RCC_APB1Periph_TIM5, DISABLE);
 240              		.loc 1 222 0
 241 011c 0820     		movs	r0, #8	@,
 242 011e 0021     		movs	r1, #0	@,
 243              		.loc 1 272 0
 244 0120 BDE80840 		pop	{r3, lr}	@
 222:cmsis/device/stm32f4xx_tim.c ****     RCC_APB1PeriphResetCmd(RCC_APB1Periph_TIM5, DISABLE);
 245              		.loc 1 222 0
 246 0124 FFF7FEBF 		b	RCC_APB1PeriphResetCmd	@
 247              	.LVL18:
 248              	.L22:
 226:cmsis/device/stm32f4xx_tim.c ****     RCC_APB1PeriphResetCmd(RCC_APB1Periph_TIM6, ENABLE);
 249              		.loc 1 226 0
 250 0128 1020     		movs	r0, #16	@,
 251              	.LVL19:
 252 012a 0121     		movs	r1, #1	@,
 253 012c FFF7FEFF 		bl	RCC_APB1PeriphResetCmd	@
 254              	.LVL20:
 227:cmsis/device/stm32f4xx_tim.c ****     RCC_APB1PeriphResetCmd(RCC_APB1Periph_TIM6, DISABLE);
 255              		.loc 1 227 0
 256 0130 1020     		movs	r0, #16	@,
 257 0132 0021     		movs	r1, #0	@,
 258              		.loc 1 272 0
 259 0134 BDE80840 		pop	{r3, lr}	@
 227:cmsis/device/stm32f4xx_tim.c ****     RCC_APB1PeriphResetCmd(RCC_APB1Periph_TIM6, DISABLE);
 260              		.loc 1 227 0
 261 0138 FFF7FEBF 		b	RCC_APB1PeriphResetCmd	@
 262              	.LVL21:
 263              	.L23:
 231:cmsis/device/stm32f4xx_tim.c ****     RCC_APB1PeriphResetCmd(RCC_APB1Periph_TIM7, ENABLE);
 264              		.loc 1 231 0
 265 013c 2020     		movs	r0, #32	@,
 266              	.LVL22:
 267 013e 0121     		movs	r1, #1	@,
 268 0140 FFF7FEFF 		bl	RCC_APB1PeriphResetCmd	@
 269              	.LVL23:
 232:cmsis/device/stm32f4xx_tim.c ****     RCC_APB1PeriphResetCmd(RCC_APB1Periph_TIM7, DISABLE);
 270              		.loc 1 232 0
 271 0144 2020     		movs	r0, #32	@,
 272 0146 0021     		movs	r1, #0	@,
 273              		.loc 1 272 0
 274 0148 BDE80840 		pop	{r3, lr}	@
 232:cmsis/device/stm32f4xx_tim.c ****     RCC_APB1PeriphResetCmd(RCC_APB1Periph_TIM7, DISABLE);
 275              		.loc 1 232 0
 276 014c FFF7FEBF 		b	RCC_APB1PeriphResetCmd	@
ARM GAS  C:\Users\CNous\AppData\Local\Temp\ccZi7tDD.s 			page 11


 277              	.LVL24:
 278              	.L24:
 236:cmsis/device/stm32f4xx_tim.c ****     RCC_APB2PeriphResetCmd(RCC_APB2Periph_TIM8, ENABLE);
 279              		.loc 1 236 0
 280 0150 0220     		movs	r0, #2	@,
 281              	.LVL25:
 282 0152 0121     		movs	r1, #1	@,
 283 0154 FFF7FEFF 		bl	RCC_APB2PeriphResetCmd	@
 284              	.LVL26:
 237:cmsis/device/stm32f4xx_tim.c ****     RCC_APB2PeriphResetCmd(RCC_APB2Periph_TIM8, DISABLE);  
 285              		.loc 1 237 0
 286 0158 0220     		movs	r0, #2	@,
 287 015a 0021     		movs	r1, #0	@,
 288              		.loc 1 272 0
 289 015c BDE80840 		pop	{r3, lr}	@
 237:cmsis/device/stm32f4xx_tim.c ****     RCC_APB2PeriphResetCmd(RCC_APB2Periph_TIM8, DISABLE);  
 290              		.loc 1 237 0
 291 0160 FFF7FEBF 		b	RCC_APB2PeriphResetCmd	@
 292              	.LVL27:
 293              	.L25:
 241:cmsis/device/stm32f4xx_tim.c ****     RCC_APB2PeriphResetCmd(RCC_APB2Periph_TIM9, ENABLE);
 294              		.loc 1 241 0
 295 0164 0121     		movs	r1, #1	@,
 296 0166 4FF48030 		mov	r0, #65536	@,
 297              	.LVL28:
 298 016a FFF7FEFF 		bl	RCC_APB2PeriphResetCmd	@
 299              	.LVL29:
 242:cmsis/device/stm32f4xx_tim.c ****     RCC_APB2PeriphResetCmd(RCC_APB2Periph_TIM9, DISABLE);  
 300              		.loc 1 242 0
 301 016e 4FF48030 		mov	r0, #65536	@,
 302 0172 0021     		movs	r1, #0	@,
 303              		.loc 1 272 0
 304 0174 BDE80840 		pop	{r3, lr}	@
 242:cmsis/device/stm32f4xx_tim.c ****     RCC_APB2PeriphResetCmd(RCC_APB2Periph_TIM9, DISABLE);  
 305              		.loc 1 242 0
 306 0178 FFF7FEBF 		b	RCC_APB2PeriphResetCmd	@
 307              	.LVL30:
 308              	.L26:
 246:cmsis/device/stm32f4xx_tim.c ****     RCC_APB2PeriphResetCmd(RCC_APB2Periph_TIM10, ENABLE);
 309              		.loc 1 246 0
 310 017c 0121     		movs	r1, #1	@,
 311 017e 4FF40030 		mov	r0, #131072	@,
 312              	.LVL31:
 313 0182 FFF7FEFF 		bl	RCC_APB2PeriphResetCmd	@
 314              	.LVL32:
 247:cmsis/device/stm32f4xx_tim.c ****     RCC_APB2PeriphResetCmd(RCC_APB2Periph_TIM10, DISABLE);  
 315              		.loc 1 247 0
 316 0186 4FF40030 		mov	r0, #131072	@,
 317 018a 0021     		movs	r1, #0	@,
 318              		.loc 1 272 0
 319 018c BDE80840 		pop	{r3, lr}	@
 247:cmsis/device/stm32f4xx_tim.c ****     RCC_APB2PeriphResetCmd(RCC_APB2Periph_TIM10, DISABLE);  
 320              		.loc 1 247 0
 321 0190 FFF7FEBF 		b	RCC_APB2PeriphResetCmd	@
 322              	.LVL33:
 323              	.L27:
 251:cmsis/device/stm32f4xx_tim.c ****     RCC_APB2PeriphResetCmd(RCC_APB2Periph_TIM11, ENABLE);
ARM GAS  C:\Users\CNous\AppData\Local\Temp\ccZi7tDD.s 			page 12


 324              		.loc 1 251 0
 325 0194 0121     		movs	r1, #1	@,
 326 0196 4FF48020 		mov	r0, #262144	@,
 327              	.LVL34:
 328 019a FFF7FEFF 		bl	RCC_APB2PeriphResetCmd	@
 329              	.LVL35:
 252:cmsis/device/stm32f4xx_tim.c ****     RCC_APB2PeriphResetCmd(RCC_APB2Periph_TIM11, DISABLE);  
 330              		.loc 1 252 0
 331 019e 4FF48020 		mov	r0, #262144	@,
 332 01a2 0021     		movs	r1, #0	@,
 333              		.loc 1 272 0
 334 01a4 BDE80840 		pop	{r3, lr}	@
 252:cmsis/device/stm32f4xx_tim.c ****     RCC_APB2PeriphResetCmd(RCC_APB2Periph_TIM11, DISABLE);  
 335              		.loc 1 252 0
 336 01a8 FFF7FEBF 		b	RCC_APB2PeriphResetCmd	@
 337              	.LVL36:
 338              	.L28:
 256:cmsis/device/stm32f4xx_tim.c ****     RCC_APB1PeriphResetCmd(RCC_APB1Periph_TIM12, ENABLE);
 339              		.loc 1 256 0
 340 01ac 4020     		movs	r0, #64	@,
 341              	.LVL37:
 342 01ae 0121     		movs	r1, #1	@,
 343 01b0 FFF7FEFF 		bl	RCC_APB1PeriphResetCmd	@
 344              	.LVL38:
 257:cmsis/device/stm32f4xx_tim.c ****     RCC_APB1PeriphResetCmd(RCC_APB1Periph_TIM12, DISABLE);  
 345              		.loc 1 257 0
 346 01b4 4020     		movs	r0, #64	@,
 347 01b6 0021     		movs	r1, #0	@,
 348              		.loc 1 272 0
 349 01b8 BDE80840 		pop	{r3, lr}	@
 257:cmsis/device/stm32f4xx_tim.c ****     RCC_APB1PeriphResetCmd(RCC_APB1Periph_TIM12, DISABLE);  
 350              		.loc 1 257 0
 351 01bc FFF7FEBF 		b	RCC_APB1PeriphResetCmd	@
 352              	.LVL39:
 353              	.L29:
 261:cmsis/device/stm32f4xx_tim.c ****     RCC_APB1PeriphResetCmd(RCC_APB1Periph_TIM13, ENABLE);
 354              		.loc 1 261 0
 355 01c0 8020     		movs	r0, #128	@,
 356              	.LVL40:
 357 01c2 0121     		movs	r1, #1	@,
 358 01c4 FFF7FEFF 		bl	RCC_APB1PeriphResetCmd	@
 359              	.LVL41:
 262:cmsis/device/stm32f4xx_tim.c ****     RCC_APB1PeriphResetCmd(RCC_APB1Periph_TIM13, DISABLE);  
 360              		.loc 1 262 0
 361 01c8 8020     		movs	r0, #128	@,
 362 01ca 0021     		movs	r1, #0	@,
 363              		.loc 1 272 0
 364 01cc BDE80840 		pop	{r3, lr}	@
 262:cmsis/device/stm32f4xx_tim.c ****     RCC_APB1PeriphResetCmd(RCC_APB1Periph_TIM13, DISABLE);  
 365              		.loc 1 262 0
 366 01d0 FFF7FEBF 		b	RCC_APB1PeriphResetCmd	@
 367              	.LVL42:
 368              		.cfi_endproc
 369              	.LFE110:
 370              		.size	TIM_DeInit, .-TIM_DeInit
 371              		.section	.text.TIM_TimeBaseInit,"ax",%progbits
 372              		.align	2
ARM GAS  C:\Users\CNous\AppData\Local\Temp\ccZi7tDD.s 			page 13


 373              		.global	TIM_TimeBaseInit
 374              		.thumb
 375              		.thumb_func
 376              		.type	TIM_TimeBaseInit, %function
 377              	TIM_TimeBaseInit:
 378              	.LFB111:
 273:cmsis/device/stm32f4xx_tim.c **** 
 274:cmsis/device/stm32f4xx_tim.c **** /**
 275:cmsis/device/stm32f4xx_tim.c ****   * @brief  Initializes the TIMx Time Base Unit peripheral according to 
 276:cmsis/device/stm32f4xx_tim.c ****   *         the specified parameters in the TIM_TimeBaseInitStruct.
 277:cmsis/device/stm32f4xx_tim.c ****   * @param  TIMx: where x can be  1 to 14 to select the TIM peripheral.
 278:cmsis/device/stm32f4xx_tim.c ****   * @param  TIM_TimeBaseInitStruct: pointer to a TIM_TimeBaseInitTypeDef structure
 279:cmsis/device/stm32f4xx_tim.c ****   *         that contains the configuration information for the specified TIM peripheral.
 280:cmsis/device/stm32f4xx_tim.c ****   * @retval None
 281:cmsis/device/stm32f4xx_tim.c ****   */
 282:cmsis/device/stm32f4xx_tim.c **** void TIM_TimeBaseInit(TIM_TypeDef* TIMx, TIM_TimeBaseInitTypeDef* TIM_TimeBaseInitStruct)
 283:cmsis/device/stm32f4xx_tim.c **** {
 379              		.loc 1 283 0
 380              		.cfi_startproc
 381              		@ args = 0, pretend = 0, frame = 0
 382              		@ frame_needed = 0, uses_anonymous_args = 0
 383              		@ link register save eliminated.
 384              	.LVL43:
 284:cmsis/device/stm32f4xx_tim.c ****   uint16_t tmpcr1 = 0;
 285:cmsis/device/stm32f4xx_tim.c **** 
 286:cmsis/device/stm32f4xx_tim.c ****   /* Check the parameters */
 287:cmsis/device/stm32f4xx_tim.c ****   assert_param(IS_TIM_ALL_PERIPH(TIMx)); 
 288:cmsis/device/stm32f4xx_tim.c ****   assert_param(IS_TIM_COUNTER_MODE(TIM_TimeBaseInitStruct->TIM_CounterMode));
 289:cmsis/device/stm32f4xx_tim.c ****   assert_param(IS_TIM_CKD_DIV(TIM_TimeBaseInitStruct->TIM_ClockDivision));
 290:cmsis/device/stm32f4xx_tim.c **** 
 291:cmsis/device/stm32f4xx_tim.c ****   tmpcr1 = TIMx->CR1;  
 292:cmsis/device/stm32f4xx_tim.c **** 
 293:cmsis/device/stm32f4xx_tim.c ****   if((TIMx == TIM1) || (TIMx == TIM8)||
 385              		.loc 1 293 0
 386 0000 0022     		movs	r2, #0	@ tmp153,
 291:cmsis/device/stm32f4xx_tim.c ****   tmpcr1 = TIMx->CR1;  
 387              		.loc 1 291 0
 388 0002 0388     		ldrh	r3, [r0, #0]	@, TIMx_4(D)->CR1
 389              		.loc 1 293 0
 390 0004 C4F20102 		movt	r2, 16385	@ tmp153,
 391 0008 9042     		cmp	r0, r2	@ TIMx, tmp153
 283:cmsis/device/stm32f4xx_tim.c **** {
 392              		.loc 1 283 0
 393 000a 70B4     		push	{r4, r5, r6}	@
 394              	.LCFI1:
 395              		.cfi_def_cfa_offset 12
 396              		.cfi_offset 4, -12
 397              		.cfi_offset 5, -8
 398              		.cfi_offset 6, -4
 291:cmsis/device/stm32f4xx_tim.c ****   tmpcr1 = TIMx->CR1;  
 399              		.loc 1 291 0
 400 000c 9BB2     		uxth	r3, r3	@ tmpcr1, TIMx_4(D)->CR1
 401              	.LVL44:
 402              		.loc 1 293 0
 403 000e 1AD0     		beq	.L32	@,
 404              		.loc 1 293 0 is_stmt 0 discriminator 1
 405 0010 4FF48062 		mov	r2, #1024	@ tmp154,
ARM GAS  C:\Users\CNous\AppData\Local\Temp\ccZi7tDD.s 			page 14


 406 0014 C4F20102 		movt	r2, 16385	@ tmp154,
 407 0018 9042     		cmp	r0, r2	@ TIMx, tmp154
 408 001a 14D0     		beq	.L32	@,
 409 001c B0F1804F 		cmp	r0, #1073741824	@ TIMx,
 410 0020 11D0     		beq	.L32	@,
 294:cmsis/device/stm32f4xx_tim.c ****      (TIMx == TIM2) || (TIMx == TIM3)||
 411              		.loc 1 294 0 is_stmt 1
 412 0022 4FF48062 		mov	r2, #1024	@ tmp155,
 413 0026 C4F20002 		movt	r2, 16384	@ tmp155,
 414 002a 9042     		cmp	r0, r2	@ TIMx, tmp155
 415 002c 0BD0     		beq	.L32	@,
 416              		.loc 1 294 0 is_stmt 0 discriminator 1
 417 002e 4FF40062 		mov	r2, #2048	@ tmp156,
 418 0032 C4F20002 		movt	r2, 16384	@ tmp156,
 419 0036 9042     		cmp	r0, r2	@ TIMx, tmp156
 420 0038 05D0     		beq	.L32	@,
 295:cmsis/device/stm32f4xx_tim.c ****      (TIMx == TIM4) || (TIMx == TIM5)) 
 421              		.loc 1 295 0 is_stmt 1
 422 003a 4FF44062 		mov	r2, #3072	@ tmp157,
 423 003e C4F20002 		movt	r2, 16384	@ tmp157,
 424 0042 9042     		cmp	r0, r2	@ TIMx, tmp157
 425 0044 05D1     		bne	.L33	@,
 426              	.L32:
 296:cmsis/device/stm32f4xx_tim.c ****   {
 297:cmsis/device/stm32f4xx_tim.c ****     /* Select the Counter Mode */
 298:cmsis/device/stm32f4xx_tim.c ****     tmpcr1 &= (uint16_t)(~(TIM_CR1_DIR | TIM_CR1_CMS));
 427              		.loc 1 298 0
 428 0046 4FF68F72 		movw	r2, #65423	@ tmpcr1,
 299:cmsis/device/stm32f4xx_tim.c ****     tmpcr1 |= (uint32_t)TIM_TimeBaseInitStruct->TIM_CounterMode;
 429              		.loc 1 299 0
 430 004a 4C88     		ldrh	r4, [r1, #2]	@ tmp160, TIM_TimeBaseInitStruct_7(D)->TIM_CounterMode
 298:cmsis/device/stm32f4xx_tim.c ****     tmpcr1 &= (uint16_t)(~(TIM_CR1_DIR | TIM_CR1_CMS));
 431              		.loc 1 298 0
 432 004c 1A40     		ands	r2, r2, r3	@, tmpcr1, tmpcr1, tmpcr1
 433              	.LVL45:
 434              		.loc 1 299 0
 435 004e 42EA0403 		orr	r3, r2, r4	@ tmpcr1, tmpcr1, tmp160
 436              	.LVL46:
 437              	.L33:
 300:cmsis/device/stm32f4xx_tim.c ****   }
 301:cmsis/device/stm32f4xx_tim.c ****  
 302:cmsis/device/stm32f4xx_tim.c ****   if((TIMx != TIM6) && (TIMx != TIM7))
 438              		.loc 1 302 0
 439 0052 4FF48052 		mov	r2, #4096	@ tmp161,
 440 0056 C4F20002 		movt	r2, 16384	@ tmp161,
 441 005a 9042     		cmp	r0, r2	@ TIMx, tmp161
 442 005c 21D0     		beq	.L35	@,
 443              		.loc 1 302 0 is_stmt 0 discriminator 1
 444 005e 4FF4A052 		mov	r2, #5120	@ tmp162,
 445 0062 C4F20002 		movt	r2, 16384	@ tmp162,
 446 0066 9042     		cmp	r0, r2	@ TIMx, tmp162
 447 0068 1BD0     		beq	.L35	@,
 303:cmsis/device/stm32f4xx_tim.c ****   {
 304:cmsis/device/stm32f4xx_tim.c ****     /* Set the clock division */
 305:cmsis/device/stm32f4xx_tim.c ****     tmpcr1 &=  (uint16_t)(~TIM_CR1_CKD);
 448              		.loc 1 305 0 is_stmt 1
 449 006a 4FF6FF42 		movw	r2, #64767	@ tmpcr1,
ARM GAS  C:\Users\CNous\AppData\Local\Temp\ccZi7tDD.s 			page 15


 306:cmsis/device/stm32f4xx_tim.c ****     tmpcr1 |= (uint32_t)TIM_TimeBaseInitStruct->TIM_ClockDivision;
 450              		.loc 1 306 0
 451 006e 0E89     		ldrh	r6, [r1, #8]	@ tmp165, TIM_TimeBaseInitStruct_7(D)->TIM_ClockDivision
 307:cmsis/device/stm32f4xx_tim.c ****   }
 308:cmsis/device/stm32f4xx_tim.c **** 
 309:cmsis/device/stm32f4xx_tim.c ****   TIMx->CR1 = tmpcr1;
 310:cmsis/device/stm32f4xx_tim.c **** 
 311:cmsis/device/stm32f4xx_tim.c ****   /* Set the Autoreload value */
 312:cmsis/device/stm32f4xx_tim.c ****   TIMx->ARR = TIM_TimeBaseInitStruct->TIM_Period ;
 452              		.loc 1 312 0
 453 0070 4C68     		ldr	r4, [r1, #4]	@ D.7334, TIM_TimeBaseInitStruct_7(D)->TIM_Period
 313:cmsis/device/stm32f4xx_tim.c ****  
 314:cmsis/device/stm32f4xx_tim.c ****   /* Set the Prescaler value */
 315:cmsis/device/stm32f4xx_tim.c ****   TIMx->PSC = TIM_TimeBaseInitStruct->TIM_Prescaler;
 454              		.loc 1 315 0
 455 0072 0D88     		ldrh	r5, [r1, #0]	@ D.7335, TIM_TimeBaseInitStruct_7(D)->TIM_Prescaler
 305:cmsis/device/stm32f4xx_tim.c ****     tmpcr1 &=  (uint16_t)(~TIM_CR1_CKD);
 456              		.loc 1 305 0
 457 0074 1A40     		ands	r2, r2, r3	@, tmpcr1, tmpcr1, tmpcr1
 458              	.LVL47:
 316:cmsis/device/stm32f4xx_tim.c ****     
 317:cmsis/device/stm32f4xx_tim.c ****   if ((TIMx == TIM1) || (TIMx == TIM8))  
 459              		.loc 1 317 0
 460 0076 0023     		movs	r3, #0	@ tmp168,
 461 0078 C4F20103 		movt	r3, 16385	@ tmp168,
 306:cmsis/device/stm32f4xx_tim.c ****     tmpcr1 |= (uint32_t)TIM_TimeBaseInitStruct->TIM_ClockDivision;
 462              		.loc 1 306 0
 463 007c 3243     		orrs	r2, r2, r6	@, tmpcr1, tmpcr1, tmp165
 464              	.LVL48:
 465              		.loc 1 317 0
 466 007e 9842     		cmp	r0, r3	@ TIMx, tmp168
 309:cmsis/device/stm32f4xx_tim.c ****   TIMx->CR1 = tmpcr1;
 467              		.loc 1 309 0
 468 0080 0280     		strh	r2, [r0, #0]	@ movhi	@ tmpcr1, TIMx_4(D)->CR1
 312:cmsis/device/stm32f4xx_tim.c ****   TIMx->ARR = TIM_TimeBaseInitStruct->TIM_Period ;
 469              		.loc 1 312 0
 470 0082 C462     		str	r4, [r0, #44]	@ D.7334, TIMx_4(D)->ARR
 315:cmsis/device/stm32f4xx_tim.c ****   TIMx->PSC = TIM_TimeBaseInitStruct->TIM_Prescaler;
 471              		.loc 1 315 0
 472 0084 0585     		strh	r5, [r0, #40]	@ movhi	@ D.7335, TIMx_4(D)->PSC
 473              		.loc 1 317 0
 474 0086 09D0     		beq	.L38	@,
 475              		.loc 1 317 0 is_stmt 0 discriminator 1
 476 0088 4FF48062 		mov	r2, #1024	@ tmp172,
 477              	.LVL49:
 478 008c C4F20102 		movt	r2, 16385	@ tmp172,
 479 0090 9042     		cmp	r0, r2	@ TIMx, tmp172
 480 0092 03D0     		beq	.L38	@,
 481              	.LVL50:
 482              	.L37:
 318:cmsis/device/stm32f4xx_tim.c ****   {
 319:cmsis/device/stm32f4xx_tim.c ****     /* Set the Repetition Counter value */
 320:cmsis/device/stm32f4xx_tim.c ****     TIMx->RCR = TIM_TimeBaseInitStruct->TIM_RepetitionCounter;
 321:cmsis/device/stm32f4xx_tim.c ****   }
 322:cmsis/device/stm32f4xx_tim.c **** 
 323:cmsis/device/stm32f4xx_tim.c ****   /* Generate an update event to reload the Prescaler 
 324:cmsis/device/stm32f4xx_tim.c ****      and the repetition counter(only for TIM1 and TIM8) value immediatly */
ARM GAS  C:\Users\CNous\AppData\Local\Temp\ccZi7tDD.s 			page 16


 325:cmsis/device/stm32f4xx_tim.c ****   TIMx->EGR = TIM_PSCReloadMode_Immediate;          
 483              		.loc 1 325 0 is_stmt 1
 484 0094 0123     		movs	r3, #1	@ tmp174,
 485 0096 8382     		strh	r3, [r0, #20]	@ movhi	@ tmp174, TIMx_4(D)->EGR
 326:cmsis/device/stm32f4xx_tim.c **** }
 486              		.loc 1 326 0
 487 0098 70BC     		pop	{r4, r5, r6}
 488 009a 7047     		bx	lr
 489              	.LVL51:
 490              	.L38:
 320:cmsis/device/stm32f4xx_tim.c ****     TIMx->RCR = TIM_TimeBaseInitStruct->TIM_RepetitionCounter;
 491              		.loc 1 320 0
 492 009c 897A     		ldrb	r1, [r1, #10]	@ zero_extendqisi2	@ TIM_TimeBaseInitStruct_7(D)->TIM_RepetitionCounter, TIM_Ti
 493              	.LVL52:
 494 009e 0186     		strh	r1, [r0, #48]	@ movhi	@ TIM_TimeBaseInitStruct_7(D)->TIM_RepetitionCounter, TIMx_4(D)->RCR
 495 00a0 F8E7     		b	.L37	@
 496              	.LVL53:
 497              	.L35:
 309:cmsis/device/stm32f4xx_tim.c ****   TIMx->CR1 = tmpcr1;
 498              		.loc 1 309 0
 499 00a2 0380     		strh	r3, [r0, #0]	@ movhi	@ tmpcr1,* TIMx
 312:cmsis/device/stm32f4xx_tim.c ****   TIMx->ARR = TIM_TimeBaseInitStruct->TIM_Period ;
 500              		.loc 1 312 0
 501 00a4 4A68     		ldr	r2, [r1, #4]	@ D.7334, TIM_TimeBaseInitStruct_7(D)->TIM_Period
 315:cmsis/device/stm32f4xx_tim.c ****   TIMx->PSC = TIM_TimeBaseInitStruct->TIM_Prescaler;
 502              		.loc 1 315 0
 503 00a6 0988     		ldrh	r1, [r1, #0]	@ D.7335, TIM_TimeBaseInitStruct_7(D)->TIM_Prescaler
 504              	.LVL54:
 312:cmsis/device/stm32f4xx_tim.c ****   TIMx->ARR = TIM_TimeBaseInitStruct->TIM_Period ;
 505              		.loc 1 312 0
 506 00a8 C262     		str	r2, [r0, #44]	@ D.7334,
 315:cmsis/device/stm32f4xx_tim.c ****   TIMx->PSC = TIM_TimeBaseInitStruct->TIM_Prescaler;
 507              		.loc 1 315 0
 508 00aa 0185     		strh	r1, [r0, #40]	@ movhi	@ D.7335,
 509 00ac F2E7     		b	.L37	@
 510              		.cfi_endproc
 511              	.LFE111:
 512              		.size	TIM_TimeBaseInit, .-TIM_TimeBaseInit
 513 00ae 00BF     		.section	.text.TIM_TimeBaseStructInit,"ax",%progbits
 514              		.align	2
 515              		.global	TIM_TimeBaseStructInit
 516              		.thumb
 517              		.thumb_func
 518              		.type	TIM_TimeBaseStructInit, %function
 519              	TIM_TimeBaseStructInit:
 520              	.LFB112:
 327:cmsis/device/stm32f4xx_tim.c **** 
 328:cmsis/device/stm32f4xx_tim.c **** /**
 329:cmsis/device/stm32f4xx_tim.c ****   * @brief  Fills each TIM_TimeBaseInitStruct member with its default value.
 330:cmsis/device/stm32f4xx_tim.c ****   * @param  TIM_TimeBaseInitStruct : pointer to a TIM_TimeBaseInitTypeDef
 331:cmsis/device/stm32f4xx_tim.c ****   *         structure which will be initialized.
 332:cmsis/device/stm32f4xx_tim.c ****   * @retval None
 333:cmsis/device/stm32f4xx_tim.c ****   */
 334:cmsis/device/stm32f4xx_tim.c **** void TIM_TimeBaseStructInit(TIM_TimeBaseInitTypeDef* TIM_TimeBaseInitStruct)
 335:cmsis/device/stm32f4xx_tim.c **** {
 521              		.loc 1 335 0
 522              		.cfi_startproc
ARM GAS  C:\Users\CNous\AppData\Local\Temp\ccZi7tDD.s 			page 17


 523              		@ args = 0, pretend = 0, frame = 0
 524              		@ frame_needed = 0, uses_anonymous_args = 0
 525              		@ link register save eliminated.
 526              	.LVL55:
 336:cmsis/device/stm32f4xx_tim.c ****   /* Set the default configuration */
 337:cmsis/device/stm32f4xx_tim.c ****   TIM_TimeBaseInitStruct->TIM_Period = 0xFFFFFFFF;
 338:cmsis/device/stm32f4xx_tim.c ****   TIM_TimeBaseInitStruct->TIM_Prescaler = 0x0000;
 527              		.loc 1 338 0
 528 0000 0023     		movs	r3, #0	@ tmp137,
 337:cmsis/device/stm32f4xx_tim.c ****   TIM_TimeBaseInitStruct->TIM_Period = 0xFFFFFFFF;
 529              		.loc 1 337 0
 530 0002 4FF0FF31 		mov	r1, #-1	@ tmp135,
 531 0006 4160     		str	r1, [r0, #4]	@ tmp135, TIM_TimeBaseInitStruct_1(D)->TIM_Period
 532              		.loc 1 338 0
 533 0008 0380     		strh	r3, [r0, #0]	@ movhi	@ tmp137, TIM_TimeBaseInitStruct_1(D)->TIM_Prescaler
 339:cmsis/device/stm32f4xx_tim.c ****   TIM_TimeBaseInitStruct->TIM_ClockDivision = TIM_CKD_DIV1;
 534              		.loc 1 339 0
 535 000a 0381     		strh	r3, [r0, #8]	@ movhi	@ tmp137, TIM_TimeBaseInitStruct_1(D)->TIM_ClockDivision
 340:cmsis/device/stm32f4xx_tim.c ****   TIM_TimeBaseInitStruct->TIM_CounterMode = TIM_CounterMode_Up;
 536              		.loc 1 340 0
 537 000c 4380     		strh	r3, [r0, #2]	@ movhi	@ tmp137, TIM_TimeBaseInitStruct_1(D)->TIM_CounterMode
 341:cmsis/device/stm32f4xx_tim.c ****   TIM_TimeBaseInitStruct->TIM_RepetitionCounter = 0x0000;
 538              		.loc 1 341 0
 539 000e 8372     		strb	r3, [r0, #10]	@ tmp136, TIM_TimeBaseInitStruct_1(D)->TIM_RepetitionCounter
 540 0010 7047     		bx	lr	@
 541              		.cfi_endproc
 542              	.LFE112:
 543              		.size	TIM_TimeBaseStructInit, .-TIM_TimeBaseStructInit
 544 0012 00BF     		.section	.text.TIM_PrescalerConfig,"ax",%progbits
 545              		.align	2
 546              		.global	TIM_PrescalerConfig
 547              		.thumb
 548              		.thumb_func
 549              		.type	TIM_PrescalerConfig, %function
 550              	TIM_PrescalerConfig:
 551              	.LFB113:
 342:cmsis/device/stm32f4xx_tim.c **** }
 343:cmsis/device/stm32f4xx_tim.c **** 
 344:cmsis/device/stm32f4xx_tim.c **** /**
 345:cmsis/device/stm32f4xx_tim.c ****   * @brief  Configures the TIMx Prescaler.
 346:cmsis/device/stm32f4xx_tim.c ****   * @param  TIMx: where x can be  1 to 14 to select the TIM peripheral.
 347:cmsis/device/stm32f4xx_tim.c ****   * @param  Prescaler: specifies the Prescaler Register value
 348:cmsis/device/stm32f4xx_tim.c ****   * @param  TIM_PSCReloadMode: specifies the TIM Prescaler Reload mode
 349:cmsis/device/stm32f4xx_tim.c ****   *          This parameter can be one of the following values:
 350:cmsis/device/stm32f4xx_tim.c ****   *            @arg TIM_PSCReloadMode_Update: The Prescaler is loaded at the update event.
 351:cmsis/device/stm32f4xx_tim.c ****   *            @arg TIM_PSCReloadMode_Immediate: The Prescaler is loaded immediatly.
 352:cmsis/device/stm32f4xx_tim.c ****   * @retval None
 353:cmsis/device/stm32f4xx_tim.c ****   */
 354:cmsis/device/stm32f4xx_tim.c **** void TIM_PrescalerConfig(TIM_TypeDef* TIMx, uint16_t Prescaler, uint16_t TIM_PSCReloadMode)
 355:cmsis/device/stm32f4xx_tim.c **** {
 552              		.loc 1 355 0
 553              		.cfi_startproc
 554              		@ args = 0, pretend = 0, frame = 0
 555              		@ frame_needed = 0, uses_anonymous_args = 0
 556              		@ link register save eliminated.
 557              	.LVL56:
 356:cmsis/device/stm32f4xx_tim.c ****   /* Check the parameters */
ARM GAS  C:\Users\CNous\AppData\Local\Temp\ccZi7tDD.s 			page 18


 357:cmsis/device/stm32f4xx_tim.c ****   assert_param(IS_TIM_ALL_PERIPH(TIMx));
 358:cmsis/device/stm32f4xx_tim.c ****   assert_param(IS_TIM_PRESCALER_RELOAD(TIM_PSCReloadMode));
 359:cmsis/device/stm32f4xx_tim.c ****   /* Set the Prescaler value */
 360:cmsis/device/stm32f4xx_tim.c ****   TIMx->PSC = Prescaler;
 558              		.loc 1 360 0
 559 0000 0185     		strh	r1, [r0, #40]	@ movhi	@ Prescaler, TIMx_1(D)->PSC
 361:cmsis/device/stm32f4xx_tim.c ****   /* Set or reset the UG Bit */
 362:cmsis/device/stm32f4xx_tim.c ****   TIMx->EGR = TIM_PSCReloadMode;
 560              		.loc 1 362 0
 561 0002 8282     		strh	r2, [r0, #20]	@ movhi	@ TIM_PSCReloadMode, TIMx_1(D)->EGR
 562 0004 7047     		bx	lr	@
 563              		.cfi_endproc
 564              	.LFE113:
 565              		.size	TIM_PrescalerConfig, .-TIM_PrescalerConfig
 566 0006 00BF     		.section	.text.TIM_CounterModeConfig,"ax",%progbits
 567              		.align	2
 568              		.global	TIM_CounterModeConfig
 569              		.thumb
 570              		.thumb_func
 571              		.type	TIM_CounterModeConfig, %function
 572              	TIM_CounterModeConfig:
 573              	.LFB114:
 363:cmsis/device/stm32f4xx_tim.c **** }
 364:cmsis/device/stm32f4xx_tim.c **** 
 365:cmsis/device/stm32f4xx_tim.c **** /**
 366:cmsis/device/stm32f4xx_tim.c ****   * @brief  Specifies the TIMx Counter Mode to be used.
 367:cmsis/device/stm32f4xx_tim.c ****   * @param  TIMx: where x can be  1, 2, 3, 4, 5 or 8 to select the TIM peripheral.
 368:cmsis/device/stm32f4xx_tim.c ****   * @param  TIM_CounterMode: specifies the Counter Mode to be used
 369:cmsis/device/stm32f4xx_tim.c ****   *          This parameter can be one of the following values:
 370:cmsis/device/stm32f4xx_tim.c ****   *            @arg TIM_CounterMode_Up: TIM Up Counting Mode
 371:cmsis/device/stm32f4xx_tim.c ****   *            @arg TIM_CounterMode_Down: TIM Down Counting Mode
 372:cmsis/device/stm32f4xx_tim.c ****   *            @arg TIM_CounterMode_CenterAligned1: TIM Center Aligned Mode1
 373:cmsis/device/stm32f4xx_tim.c ****   *            @arg TIM_CounterMode_CenterAligned2: TIM Center Aligned Mode2
 374:cmsis/device/stm32f4xx_tim.c ****   *            @arg TIM_CounterMode_CenterAligned3: TIM Center Aligned Mode3
 375:cmsis/device/stm32f4xx_tim.c ****   * @retval None
 376:cmsis/device/stm32f4xx_tim.c ****   */
 377:cmsis/device/stm32f4xx_tim.c **** void TIM_CounterModeConfig(TIM_TypeDef* TIMx, uint16_t TIM_CounterMode)
 378:cmsis/device/stm32f4xx_tim.c **** {
 574              		.loc 1 378 0
 575              		.cfi_startproc
 576              		@ args = 0, pretend = 0, frame = 0
 577              		@ frame_needed = 0, uses_anonymous_args = 0
 578              		@ link register save eliminated.
 579              	.LVL57:
 379:cmsis/device/stm32f4xx_tim.c ****   uint16_t tmpcr1 = 0;
 380:cmsis/device/stm32f4xx_tim.c **** 
 381:cmsis/device/stm32f4xx_tim.c ****   /* Check the parameters */
 382:cmsis/device/stm32f4xx_tim.c ****   assert_param(IS_TIM_LIST3_PERIPH(TIMx));
 383:cmsis/device/stm32f4xx_tim.c ****   assert_param(IS_TIM_COUNTER_MODE(TIM_CounterMode));
 384:cmsis/device/stm32f4xx_tim.c **** 
 385:cmsis/device/stm32f4xx_tim.c ****   tmpcr1 = TIMx->CR1;
 580              		.loc 1 385 0
 581 0000 0388     		ldrh	r3, [r0, #0]	@, TIMx_2(D)->CR1
 582              	.LVL58:
 386:cmsis/device/stm32f4xx_tim.c **** 
 387:cmsis/device/stm32f4xx_tim.c ****   /* Reset the CMS and DIR Bits */
 388:cmsis/device/stm32f4xx_tim.c ****   tmpcr1 &= (uint16_t)~(TIM_CR1_DIR | TIM_CR1_CMS);
ARM GAS  C:\Users\CNous\AppData\Local\Temp\ccZi7tDD.s 			page 19


 583              		.loc 1 388 0
 584 0002 23F07002 		bic	r2, r3, #112	@ tmpcr1, TIMx_2(D)->CR1,
 585 0006 1304     		lsls	r3, r2, #16	@ tmpcr1, tmpcr1,
 586              	.LVL59:
 587 0008 1A0C     		lsrs	r2, r3, #16	@ tmpcr1, tmpcr1,
 588              	.LVL60:
 389:cmsis/device/stm32f4xx_tim.c **** 
 390:cmsis/device/stm32f4xx_tim.c ****   /* Set the Counter Mode */
 391:cmsis/device/stm32f4xx_tim.c ****   tmpcr1 |= TIM_CounterMode;
 589              		.loc 1 391 0
 590 000a 1143     		orrs	r1, r1, r2	@, tmpcr1, TIM_CounterMode, tmpcr1
 591              	.LVL61:
 392:cmsis/device/stm32f4xx_tim.c **** 
 393:cmsis/device/stm32f4xx_tim.c ****   /* Write to TIMx CR1 register */
 394:cmsis/device/stm32f4xx_tim.c ****   TIMx->CR1 = tmpcr1;
 592              		.loc 1 394 0
 593 000c 0180     		strh	r1, [r0, #0]	@ movhi	@ tmpcr1, TIMx_2(D)->CR1
 594 000e 7047     		bx	lr	@
 595              		.cfi_endproc
 596              	.LFE114:
 597              		.size	TIM_CounterModeConfig, .-TIM_CounterModeConfig
 598              		.section	.text.TIM_SetCounter,"ax",%progbits
 599              		.align	2
 600              		.global	TIM_SetCounter
 601              		.thumb
 602              		.thumb_func
 603              		.type	TIM_SetCounter, %function
 604              	TIM_SetCounter:
 605              	.LFB115:
 395:cmsis/device/stm32f4xx_tim.c **** }
 396:cmsis/device/stm32f4xx_tim.c **** 
 397:cmsis/device/stm32f4xx_tim.c **** /**
 398:cmsis/device/stm32f4xx_tim.c ****   * @brief  Sets the TIMx Counter Register value
 399:cmsis/device/stm32f4xx_tim.c ****   * @param  TIMx: where x can be 1 to 14 to select the TIM peripheral.
 400:cmsis/device/stm32f4xx_tim.c ****   * @param  Counter: specifies the Counter register new value.
 401:cmsis/device/stm32f4xx_tim.c ****   * @retval None
 402:cmsis/device/stm32f4xx_tim.c ****   */
 403:cmsis/device/stm32f4xx_tim.c **** void TIM_SetCounter(TIM_TypeDef* TIMx, uint32_t Counter)
 404:cmsis/device/stm32f4xx_tim.c **** {
 606              		.loc 1 404 0
 607              		.cfi_startproc
 608              		@ args = 0, pretend = 0, frame = 0
 609              		@ frame_needed = 0, uses_anonymous_args = 0
 610              		@ link register save eliminated.
 611              	.LVL62:
 405:cmsis/device/stm32f4xx_tim.c ****   /* Check the parameters */
 406:cmsis/device/stm32f4xx_tim.c ****    assert_param(IS_TIM_ALL_PERIPH(TIMx));
 407:cmsis/device/stm32f4xx_tim.c **** 
 408:cmsis/device/stm32f4xx_tim.c ****   /* Set the Counter Register value */
 409:cmsis/device/stm32f4xx_tim.c ****   TIMx->CNT = Counter;
 612              		.loc 1 409 0
 613 0000 4162     		str	r1, [r0, #36]	@ Counter, TIMx_1(D)->CNT
 614 0002 7047     		bx	lr	@
 615              		.cfi_endproc
 616              	.LFE115:
 617              		.size	TIM_SetCounter, .-TIM_SetCounter
 618              		.section	.text.TIM_SetAutoreload,"ax",%progbits
ARM GAS  C:\Users\CNous\AppData\Local\Temp\ccZi7tDD.s 			page 20


 619              		.align	2
 620              		.global	TIM_SetAutoreload
 621              		.thumb
 622              		.thumb_func
 623              		.type	TIM_SetAutoreload, %function
 624              	TIM_SetAutoreload:
 625              	.LFB116:
 410:cmsis/device/stm32f4xx_tim.c **** }
 411:cmsis/device/stm32f4xx_tim.c **** 
 412:cmsis/device/stm32f4xx_tim.c **** /**
 413:cmsis/device/stm32f4xx_tim.c ****   * @brief  Sets the TIMx Autoreload Register value
 414:cmsis/device/stm32f4xx_tim.c ****   * @param  TIMx: where x can be 1 to 14 to select the TIM peripheral.
 415:cmsis/device/stm32f4xx_tim.c ****   * @param  Autoreload: specifies the Autoreload register new value.
 416:cmsis/device/stm32f4xx_tim.c ****   * @retval None
 417:cmsis/device/stm32f4xx_tim.c ****   */
 418:cmsis/device/stm32f4xx_tim.c **** void TIM_SetAutoreload(TIM_TypeDef* TIMx, uint32_t Autoreload)
 419:cmsis/device/stm32f4xx_tim.c **** {
 626              		.loc 1 419 0
 627              		.cfi_startproc
 628              		@ args = 0, pretend = 0, frame = 0
 629              		@ frame_needed = 0, uses_anonymous_args = 0
 630              		@ link register save eliminated.
 631              	.LVL63:
 420:cmsis/device/stm32f4xx_tim.c ****   /* Check the parameters */
 421:cmsis/device/stm32f4xx_tim.c ****   assert_param(IS_TIM_ALL_PERIPH(TIMx));
 422:cmsis/device/stm32f4xx_tim.c ****   
 423:cmsis/device/stm32f4xx_tim.c ****   /* Set the Autoreload Register value */
 424:cmsis/device/stm32f4xx_tim.c ****   TIMx->ARR = Autoreload;
 632              		.loc 1 424 0
 633 0000 C162     		str	r1, [r0, #44]	@ Autoreload, TIMx_1(D)->ARR
 634 0002 7047     		bx	lr	@
 635              		.cfi_endproc
 636              	.LFE116:
 637              		.size	TIM_SetAutoreload, .-TIM_SetAutoreload
 638              		.section	.text.TIM_GetCounter,"ax",%progbits
 639              		.align	2
 640              		.global	TIM_GetCounter
 641              		.thumb
 642              		.thumb_func
 643              		.type	TIM_GetCounter, %function
 644              	TIM_GetCounter:
 645              	.LFB117:
 425:cmsis/device/stm32f4xx_tim.c **** }
 426:cmsis/device/stm32f4xx_tim.c **** 
 427:cmsis/device/stm32f4xx_tim.c **** /**
 428:cmsis/device/stm32f4xx_tim.c ****   * @brief  Gets the TIMx Counter value.
 429:cmsis/device/stm32f4xx_tim.c ****   * @param  TIMx: where x can be 1 to 14 to select the TIM peripheral.
 430:cmsis/device/stm32f4xx_tim.c ****   * @retval Counter Register value
 431:cmsis/device/stm32f4xx_tim.c ****   */
 432:cmsis/device/stm32f4xx_tim.c **** uint32_t TIM_GetCounter(TIM_TypeDef* TIMx)
 433:cmsis/device/stm32f4xx_tim.c **** {
 646              		.loc 1 433 0
 647              		.cfi_startproc
 648              		@ args = 0, pretend = 0, frame = 0
 649              		@ frame_needed = 0, uses_anonymous_args = 0
 650              		@ link register save eliminated.
 651              	.LVL64:
ARM GAS  C:\Users\CNous\AppData\Local\Temp\ccZi7tDD.s 			page 21


 434:cmsis/device/stm32f4xx_tim.c ****   /* Check the parameters */
 435:cmsis/device/stm32f4xx_tim.c ****   assert_param(IS_TIM_ALL_PERIPH(TIMx));
 436:cmsis/device/stm32f4xx_tim.c **** 
 437:cmsis/device/stm32f4xx_tim.c ****   /* Get the Counter Register value */
 438:cmsis/device/stm32f4xx_tim.c ****   return TIMx->CNT;
 652              		.loc 1 438 0
 653 0000 406A     		ldr	r0, [r0, #36]	@ D.7319, TIMx_1(D)->CNT
 654              	.LVL65:
 439:cmsis/device/stm32f4xx_tim.c **** }
 655              		.loc 1 439 0
 656 0002 7047     		bx	lr	@
 657              		.cfi_endproc
 658              	.LFE117:
 659              		.size	TIM_GetCounter, .-TIM_GetCounter
 660              		.section	.text.TIM_GetPrescaler,"ax",%progbits
 661              		.align	2
 662              		.global	TIM_GetPrescaler
 663              		.thumb
 664              		.thumb_func
 665              		.type	TIM_GetPrescaler, %function
 666              	TIM_GetPrescaler:
 667              	.LFB118:
 440:cmsis/device/stm32f4xx_tim.c **** 
 441:cmsis/device/stm32f4xx_tim.c **** /**
 442:cmsis/device/stm32f4xx_tim.c ****   * @brief  Gets the TIMx Prescaler value.
 443:cmsis/device/stm32f4xx_tim.c ****   * @param  TIMx: where x can be 1 to 14 to select the TIM peripheral.
 444:cmsis/device/stm32f4xx_tim.c ****   * @retval Prescaler Register value.
 445:cmsis/device/stm32f4xx_tim.c ****   */
 446:cmsis/device/stm32f4xx_tim.c **** uint16_t TIM_GetPrescaler(TIM_TypeDef* TIMx)
 447:cmsis/device/stm32f4xx_tim.c **** {
 668              		.loc 1 447 0
 669              		.cfi_startproc
 670              		@ args = 0, pretend = 0, frame = 0
 671              		@ frame_needed = 0, uses_anonymous_args = 0
 672              		@ link register save eliminated.
 673              	.LVL66:
 448:cmsis/device/stm32f4xx_tim.c ****   /* Check the parameters */
 449:cmsis/device/stm32f4xx_tim.c ****   assert_param(IS_TIM_ALL_PERIPH(TIMx));
 450:cmsis/device/stm32f4xx_tim.c **** 
 451:cmsis/device/stm32f4xx_tim.c ****   /* Get the Prescaler Register value */
 452:cmsis/device/stm32f4xx_tim.c ****   return TIMx->PSC;
 674              		.loc 1 452 0
 675 0000 008D     		ldrh	r0, [r0, #40]	@, TIMx_1(D)->PSC
 676              	.LVL67:
 453:cmsis/device/stm32f4xx_tim.c **** }
 677              		.loc 1 453 0
 678 0002 80B2     		uxth	r0, r0	@, TIMx_1(D)->PSC
 679 0004 7047     		bx	lr	@
 680              		.cfi_endproc
 681              	.LFE118:
 682              		.size	TIM_GetPrescaler, .-TIM_GetPrescaler
 683 0006 00BF     		.section	.text.TIM_UpdateDisableConfig,"ax",%progbits
 684              		.align	2
 685              		.global	TIM_UpdateDisableConfig
 686              		.thumb
 687              		.thumb_func
 688              		.type	TIM_UpdateDisableConfig, %function
ARM GAS  C:\Users\CNous\AppData\Local\Temp\ccZi7tDD.s 			page 22


 689              	TIM_UpdateDisableConfig:
 690              	.LFB119:
 454:cmsis/device/stm32f4xx_tim.c **** 
 455:cmsis/device/stm32f4xx_tim.c **** /**
 456:cmsis/device/stm32f4xx_tim.c ****   * @brief  Enables or Disables the TIMx Update event.
 457:cmsis/device/stm32f4xx_tim.c ****   * @param  TIMx: where x can be 1 to 14 to select the TIM peripheral.
 458:cmsis/device/stm32f4xx_tim.c ****   * @param  NewState: new state of the TIMx UDIS bit
 459:cmsis/device/stm32f4xx_tim.c ****   *          This parameter can be: ENABLE or DISABLE.
 460:cmsis/device/stm32f4xx_tim.c ****   * @retval None
 461:cmsis/device/stm32f4xx_tim.c ****   */
 462:cmsis/device/stm32f4xx_tim.c **** void TIM_UpdateDisableConfig(TIM_TypeDef* TIMx, FunctionalState NewState)
 463:cmsis/device/stm32f4xx_tim.c **** {
 691              		.loc 1 463 0
 692              		.cfi_startproc
 693              		@ args = 0, pretend = 0, frame = 0
 694              		@ frame_needed = 0, uses_anonymous_args = 0
 695              		@ link register save eliminated.
 696              	.LVL68:
 464:cmsis/device/stm32f4xx_tim.c ****   /* Check the parameters */
 465:cmsis/device/stm32f4xx_tim.c ****   assert_param(IS_TIM_ALL_PERIPH(TIMx));
 466:cmsis/device/stm32f4xx_tim.c ****   assert_param(IS_FUNCTIONAL_STATE(NewState));
 467:cmsis/device/stm32f4xx_tim.c **** 
 468:cmsis/device/stm32f4xx_tim.c ****   if (NewState != DISABLE)
 469:cmsis/device/stm32f4xx_tim.c ****   {
 470:cmsis/device/stm32f4xx_tim.c ****     /* Set the Update Disable Bit */
 471:cmsis/device/stm32f4xx_tim.c ****     TIMx->CR1 |= TIM_CR1_UDIS;
 697              		.loc 1 471 0
 698 0000 0388     		ldrh	r3, [r0, #0]	@,* TIMx
 468:cmsis/device/stm32f4xx_tim.c ****   if (NewState != DISABLE)
 699              		.loc 1 468 0
 700 0002 29B9     		cbnz	r1, .L53	@ NewState,
 472:cmsis/device/stm32f4xx_tim.c ****   }
 473:cmsis/device/stm32f4xx_tim.c ****   else
 474:cmsis/device/stm32f4xx_tim.c ****   {
 475:cmsis/device/stm32f4xx_tim.c ****     /* Reset the Update Disable Bit */
 476:cmsis/device/stm32f4xx_tim.c ****     TIMx->CR1 &= (uint16_t)~TIM_CR1_UDIS;
 701              		.loc 1 476 0
 702 0004 23F00201 		bic	r1, r3, #2	@ D.7316, TIMx_2(D)->CR1,
 703              	.LVL69:
 704 0008 0A04     		lsls	r2, r1, #16	@ D.7316, D.7316,
 705 000a 130C     		lsrs	r3, r2, #16	@ D.7316, D.7316,
 706 000c 0380     		strh	r3, [r0, #0]	@ movhi	@ D.7316,* TIMx
 707 000e 7047     		bx	lr	@
 708              	.LVL70:
 709              	.L53:
 471:cmsis/device/stm32f4xx_tim.c ****     TIMx->CR1 |= TIM_CR1_UDIS;
 710              		.loc 1 471 0
 711 0010 99B2     		uxth	r1, r3	@ D.7312, TIMx_2(D)->CR1
 712              	.LVL71:
 713 0012 41F00202 		orr	r2, r1, #2	@ D.7313, D.7312,
 714 0016 0280     		strh	r2, [r0, #0]	@ movhi	@ D.7313,* TIMx
 715 0018 7047     		bx	lr	@
 716              		.cfi_endproc
 717              	.LFE119:
 718              		.size	TIM_UpdateDisableConfig, .-TIM_UpdateDisableConfig
 719 001a 00BF     		.section	.text.TIM_UpdateRequestConfig,"ax",%progbits
 720              		.align	2
ARM GAS  C:\Users\CNous\AppData\Local\Temp\ccZi7tDD.s 			page 23


 721              		.global	TIM_UpdateRequestConfig
 722              		.thumb
 723              		.thumb_func
 724              		.type	TIM_UpdateRequestConfig, %function
 725              	TIM_UpdateRequestConfig:
 726              	.LFB120:
 477:cmsis/device/stm32f4xx_tim.c ****   }
 478:cmsis/device/stm32f4xx_tim.c **** }
 479:cmsis/device/stm32f4xx_tim.c **** 
 480:cmsis/device/stm32f4xx_tim.c **** /**
 481:cmsis/device/stm32f4xx_tim.c ****   * @brief  Configures the TIMx Update Request Interrupt source.
 482:cmsis/device/stm32f4xx_tim.c ****   * @param  TIMx: where x can be 1 to 14 to select the TIM peripheral.
 483:cmsis/device/stm32f4xx_tim.c ****   * @param  TIM_UpdateSource: specifies the Update source.
 484:cmsis/device/stm32f4xx_tim.c ****   *          This parameter can be one of the following values:
 485:cmsis/device/stm32f4xx_tim.c ****   *            @arg TIM_UpdateSource_Global: Source of update is the counter
 486:cmsis/device/stm32f4xx_tim.c ****   *                 overflow/underflow or the setting of UG bit, or an update
 487:cmsis/device/stm32f4xx_tim.c ****   *                 generation through the slave mode controller.
 488:cmsis/device/stm32f4xx_tim.c ****   *            @arg TIM_UpdateSource_Regular: Source of update is counter overflow/underflow.
 489:cmsis/device/stm32f4xx_tim.c ****   * @retval None
 490:cmsis/device/stm32f4xx_tim.c ****   */
 491:cmsis/device/stm32f4xx_tim.c **** void TIM_UpdateRequestConfig(TIM_TypeDef* TIMx, uint16_t TIM_UpdateSource)
 492:cmsis/device/stm32f4xx_tim.c **** {
 727              		.loc 1 492 0
 728              		.cfi_startproc
 729              		@ args = 0, pretend = 0, frame = 0
 730              		@ frame_needed = 0, uses_anonymous_args = 0
 731              		@ link register save eliminated.
 732              	.LVL72:
 493:cmsis/device/stm32f4xx_tim.c ****   /* Check the parameters */
 494:cmsis/device/stm32f4xx_tim.c ****   assert_param(IS_TIM_ALL_PERIPH(TIMx));
 495:cmsis/device/stm32f4xx_tim.c ****   assert_param(IS_TIM_UPDATE_SOURCE(TIM_UpdateSource));
 496:cmsis/device/stm32f4xx_tim.c **** 
 497:cmsis/device/stm32f4xx_tim.c ****   if (TIM_UpdateSource != TIM_UpdateSource_Global)
 498:cmsis/device/stm32f4xx_tim.c ****   {
 499:cmsis/device/stm32f4xx_tim.c ****     /* Set the URS Bit */
 500:cmsis/device/stm32f4xx_tim.c ****     TIMx->CR1 |= TIM_CR1_URS;
 733              		.loc 1 500 0
 734 0000 0388     		ldrh	r3, [r0, #0]	@,* TIMx
 497:cmsis/device/stm32f4xx_tim.c ****   if (TIM_UpdateSource != TIM_UpdateSource_Global)
 735              		.loc 1 497 0
 736 0002 29B9     		cbnz	r1, .L57	@ TIM_UpdateSource,
 501:cmsis/device/stm32f4xx_tim.c ****   }
 502:cmsis/device/stm32f4xx_tim.c ****   else
 503:cmsis/device/stm32f4xx_tim.c ****   {
 504:cmsis/device/stm32f4xx_tim.c ****     /* Reset the URS Bit */
 505:cmsis/device/stm32f4xx_tim.c ****     TIMx->CR1 &= (uint16_t)~TIM_CR1_URS;
 737              		.loc 1 505 0
 738 0004 23F00401 		bic	r1, r3, #4	@ D.7309, TIMx_2(D)->CR1,
 739              	.LVL73:
 740 0008 0A04     		lsls	r2, r1, #16	@ D.7309, D.7309,
 741 000a 130C     		lsrs	r3, r2, #16	@ D.7309, D.7309,
 742 000c 0380     		strh	r3, [r0, #0]	@ movhi	@ D.7309,* TIMx
 743 000e 7047     		bx	lr	@
 744              	.LVL74:
 745              	.L57:
 500:cmsis/device/stm32f4xx_tim.c ****     TIMx->CR1 |= TIM_CR1_URS;
 746              		.loc 1 500 0
ARM GAS  C:\Users\CNous\AppData\Local\Temp\ccZi7tDD.s 			page 24


 747 0010 99B2     		uxth	r1, r3	@ D.7305, TIMx_2(D)->CR1
 748              	.LVL75:
 749 0012 41F00402 		orr	r2, r1, #4	@ D.7306, D.7305,
 750 0016 0280     		strh	r2, [r0, #0]	@ movhi	@ D.7306,* TIMx
 751 0018 7047     		bx	lr	@
 752              		.cfi_endproc
 753              	.LFE120:
 754              		.size	TIM_UpdateRequestConfig, .-TIM_UpdateRequestConfig
 755 001a 00BF     		.section	.text.TIM_ARRPreloadConfig,"ax",%progbits
 756              		.align	2
 757              		.global	TIM_ARRPreloadConfig
 758              		.thumb
 759              		.thumb_func
 760              		.type	TIM_ARRPreloadConfig, %function
 761              	TIM_ARRPreloadConfig:
 762              	.LFB121:
 506:cmsis/device/stm32f4xx_tim.c ****   }
 507:cmsis/device/stm32f4xx_tim.c **** }
 508:cmsis/device/stm32f4xx_tim.c **** 
 509:cmsis/device/stm32f4xx_tim.c **** /**
 510:cmsis/device/stm32f4xx_tim.c ****   * @brief  Enables or disables TIMx peripheral Preload register on ARR.
 511:cmsis/device/stm32f4xx_tim.c ****   * @param  TIMx: where x can be 1 to 14 to select the TIM peripheral.
 512:cmsis/device/stm32f4xx_tim.c ****   * @param  NewState: new state of the TIMx peripheral Preload register
 513:cmsis/device/stm32f4xx_tim.c ****   *          This parameter can be: ENABLE or DISABLE.
 514:cmsis/device/stm32f4xx_tim.c ****   * @retval None
 515:cmsis/device/stm32f4xx_tim.c ****   */
 516:cmsis/device/stm32f4xx_tim.c **** void TIM_ARRPreloadConfig(TIM_TypeDef* TIMx, FunctionalState NewState)
 517:cmsis/device/stm32f4xx_tim.c **** {
 763              		.loc 1 517 0
 764              		.cfi_startproc
 765              		@ args = 0, pretend = 0, frame = 0
 766              		@ frame_needed = 0, uses_anonymous_args = 0
 767              		@ link register save eliminated.
 768              	.LVL76:
 518:cmsis/device/stm32f4xx_tim.c ****   /* Check the parameters */
 519:cmsis/device/stm32f4xx_tim.c ****   assert_param(IS_TIM_ALL_PERIPH(TIMx));
 520:cmsis/device/stm32f4xx_tim.c ****   assert_param(IS_FUNCTIONAL_STATE(NewState));
 521:cmsis/device/stm32f4xx_tim.c **** 
 522:cmsis/device/stm32f4xx_tim.c ****   if (NewState != DISABLE)
 523:cmsis/device/stm32f4xx_tim.c ****   {
 524:cmsis/device/stm32f4xx_tim.c ****     /* Set the ARR Preload Bit */
 525:cmsis/device/stm32f4xx_tim.c ****     TIMx->CR1 |= TIM_CR1_ARPE;
 769              		.loc 1 525 0
 770 0000 0388     		ldrh	r3, [r0, #0]	@,* TIMx
 522:cmsis/device/stm32f4xx_tim.c ****   if (NewState != DISABLE)
 771              		.loc 1 522 0
 772 0002 29B9     		cbnz	r1, .L61	@ NewState,
 526:cmsis/device/stm32f4xx_tim.c ****   }
 527:cmsis/device/stm32f4xx_tim.c ****   else
 528:cmsis/device/stm32f4xx_tim.c ****   {
 529:cmsis/device/stm32f4xx_tim.c ****     /* Reset the ARR Preload Bit */
 530:cmsis/device/stm32f4xx_tim.c ****     TIMx->CR1 &= (uint16_t)~TIM_CR1_ARPE;
 773              		.loc 1 530 0
 774 0004 23F08001 		bic	r1, r3, #128	@ D.7302, TIMx_2(D)->CR1,
 775              	.LVL77:
 776 0008 0A04     		lsls	r2, r1, #16	@ D.7302, D.7302,
 777 000a 130C     		lsrs	r3, r2, #16	@ D.7302, D.7302,
ARM GAS  C:\Users\CNous\AppData\Local\Temp\ccZi7tDD.s 			page 25


 778 000c 0380     		strh	r3, [r0, #0]	@ movhi	@ D.7302,* TIMx
 779 000e 7047     		bx	lr	@
 780              	.LVL78:
 781              	.L61:
 525:cmsis/device/stm32f4xx_tim.c ****     TIMx->CR1 |= TIM_CR1_ARPE;
 782              		.loc 1 525 0
 783 0010 99B2     		uxth	r1, r3	@ D.7298, TIMx_2(D)->CR1
 784              	.LVL79:
 785 0012 41F08002 		orr	r2, r1, #128	@ D.7299, D.7298,
 786 0016 0280     		strh	r2, [r0, #0]	@ movhi	@ D.7299,* TIMx
 787 0018 7047     		bx	lr	@
 788              		.cfi_endproc
 789              	.LFE121:
 790              		.size	TIM_ARRPreloadConfig, .-TIM_ARRPreloadConfig
 791 001a 00BF     		.section	.text.TIM_SelectOnePulseMode,"ax",%progbits
 792              		.align	2
 793              		.global	TIM_SelectOnePulseMode
 794              		.thumb
 795              		.thumb_func
 796              		.type	TIM_SelectOnePulseMode, %function
 797              	TIM_SelectOnePulseMode:
 798              	.LFB122:
 531:cmsis/device/stm32f4xx_tim.c ****   }
 532:cmsis/device/stm32f4xx_tim.c **** }
 533:cmsis/device/stm32f4xx_tim.c **** 
 534:cmsis/device/stm32f4xx_tim.c **** /**
 535:cmsis/device/stm32f4xx_tim.c ****   * @brief  Selects the TIMx's One Pulse Mode.
 536:cmsis/device/stm32f4xx_tim.c ****   * @param  TIMx: where x can be 1 to 14 to select the TIM peripheral.
 537:cmsis/device/stm32f4xx_tim.c ****   * @param  TIM_OPMode: specifies the OPM Mode to be used.
 538:cmsis/device/stm32f4xx_tim.c ****   *          This parameter can be one of the following values:
 539:cmsis/device/stm32f4xx_tim.c ****   *            @arg TIM_OPMode_Single
 540:cmsis/device/stm32f4xx_tim.c ****   *            @arg TIM_OPMode_Repetitive
 541:cmsis/device/stm32f4xx_tim.c ****   * @retval None
 542:cmsis/device/stm32f4xx_tim.c ****   */
 543:cmsis/device/stm32f4xx_tim.c **** void TIM_SelectOnePulseMode(TIM_TypeDef* TIMx, uint16_t TIM_OPMode)
 544:cmsis/device/stm32f4xx_tim.c **** {
 799              		.loc 1 544 0
 800              		.cfi_startproc
 801              		@ args = 0, pretend = 0, frame = 0
 802              		@ frame_needed = 0, uses_anonymous_args = 0
 803              		@ link register save eliminated.
 804              	.LVL80:
 545:cmsis/device/stm32f4xx_tim.c ****   /* Check the parameters */
 546:cmsis/device/stm32f4xx_tim.c ****   assert_param(IS_TIM_ALL_PERIPH(TIMx));
 547:cmsis/device/stm32f4xx_tim.c ****   assert_param(IS_TIM_OPM_MODE(TIM_OPMode));
 548:cmsis/device/stm32f4xx_tim.c **** 
 549:cmsis/device/stm32f4xx_tim.c ****   /* Reset the OPM Bit */
 550:cmsis/device/stm32f4xx_tim.c ****   TIMx->CR1 &= (uint16_t)~TIM_CR1_OPM;
 805              		.loc 1 550 0
 806 0000 0388     		ldrh	r3, [r0, #0]	@, TIMx_1(D)->CR1
 807 0002 23F00802 		bic	r2, r3, #8	@ D.7293, TIMx_1(D)->CR1,
 808 0006 1304     		lsls	r3, r2, #16	@ D.7293, D.7293,
 809 0008 1A0C     		lsrs	r2, r3, #16	@ D.7293, D.7293,
 810 000a 0280     		strh	r2, [r0, #0]	@ movhi	@ D.7293, TIMx_1(D)->CR1
 551:cmsis/device/stm32f4xx_tim.c **** 
 552:cmsis/device/stm32f4xx_tim.c ****   /* Configure the OPM Mode */
 553:cmsis/device/stm32f4xx_tim.c ****   TIMx->CR1 |= TIM_OPMode;
ARM GAS  C:\Users\CNous\AppData\Local\Temp\ccZi7tDD.s 			page 26


 811              		.loc 1 553 0
 812 000c 0388     		ldrh	r3, [r0, #0]	@, TIMx_1(D)->CR1
 813 000e 9AB2     		uxth	r2, r3	@ D.7294, TIMx_1(D)->CR1
 814 0010 1143     		orrs	r1, r1, r2	@, D.7295, TIM_OPMode, D.7294
 815              	.LVL81:
 816 0012 0180     		strh	r1, [r0, #0]	@ movhi	@ D.7295, TIMx_1(D)->CR1
 817 0014 7047     		bx	lr	@
 818              		.cfi_endproc
 819              	.LFE122:
 820              		.size	TIM_SelectOnePulseMode, .-TIM_SelectOnePulseMode
 821 0016 00BF     		.section	.text.TIM_SetClockDivision,"ax",%progbits
 822              		.align	2
 823              		.global	TIM_SetClockDivision
 824              		.thumb
 825              		.thumb_func
 826              		.type	TIM_SetClockDivision, %function
 827              	TIM_SetClockDivision:
 828              	.LFB123:
 554:cmsis/device/stm32f4xx_tim.c **** }
 555:cmsis/device/stm32f4xx_tim.c **** 
 556:cmsis/device/stm32f4xx_tim.c **** /**
 557:cmsis/device/stm32f4xx_tim.c ****   * @brief  Sets the TIMx Clock Division value.
 558:cmsis/device/stm32f4xx_tim.c ****   * @param  TIMx: where x can be 1 to 14 except 6 and 7, to select the TIM peripheral.
 559:cmsis/device/stm32f4xx_tim.c ****   * @param  TIM_CKD: specifies the clock division value.
 560:cmsis/device/stm32f4xx_tim.c ****   *          This parameter can be one of the following value:
 561:cmsis/device/stm32f4xx_tim.c ****   *            @arg TIM_CKD_DIV1: TDTS = Tck_tim
 562:cmsis/device/stm32f4xx_tim.c ****   *            @arg TIM_CKD_DIV2: TDTS = 2*Tck_tim
 563:cmsis/device/stm32f4xx_tim.c ****   *            @arg TIM_CKD_DIV4: TDTS = 4*Tck_tim
 564:cmsis/device/stm32f4xx_tim.c ****   * @retval None
 565:cmsis/device/stm32f4xx_tim.c ****   */
 566:cmsis/device/stm32f4xx_tim.c **** void TIM_SetClockDivision(TIM_TypeDef* TIMx, uint16_t TIM_CKD)
 567:cmsis/device/stm32f4xx_tim.c **** {
 829              		.loc 1 567 0
 830              		.cfi_startproc
 831              		@ args = 0, pretend = 0, frame = 0
 832              		@ frame_needed = 0, uses_anonymous_args = 0
 833              		@ link register save eliminated.
 834              	.LVL82:
 568:cmsis/device/stm32f4xx_tim.c ****   /* Check the parameters */
 569:cmsis/device/stm32f4xx_tim.c ****   assert_param(IS_TIM_LIST1_PERIPH(TIMx));
 570:cmsis/device/stm32f4xx_tim.c ****   assert_param(IS_TIM_CKD_DIV(TIM_CKD));
 571:cmsis/device/stm32f4xx_tim.c **** 
 572:cmsis/device/stm32f4xx_tim.c ****   /* Reset the CKD Bits */
 573:cmsis/device/stm32f4xx_tim.c ****   TIMx->CR1 &= (uint16_t)(~TIM_CR1_CKD);
 835              		.loc 1 573 0
 836 0000 0388     		ldrh	r3, [r0, #0]	@, TIMx_1(D)->CR1
 837 0002 23F44072 		bic	r2, r3, #768	@ D.7289, TIMx_1(D)->CR1,
 838 0006 1304     		lsls	r3, r2, #16	@ D.7289, D.7289,
 839 0008 1A0C     		lsrs	r2, r3, #16	@ D.7289, D.7289,
 840 000a 0280     		strh	r2, [r0, #0]	@ movhi	@ D.7289, TIMx_1(D)->CR1
 574:cmsis/device/stm32f4xx_tim.c **** 
 575:cmsis/device/stm32f4xx_tim.c ****   /* Set the CKD value */
 576:cmsis/device/stm32f4xx_tim.c ****   TIMx->CR1 |= TIM_CKD;
 841              		.loc 1 576 0
 842 000c 0388     		ldrh	r3, [r0, #0]	@, TIMx_1(D)->CR1
 843 000e 9AB2     		uxth	r2, r3	@ D.7290, TIMx_1(D)->CR1
 844 0010 1143     		orrs	r1, r1, r2	@, D.7291, TIM_CKD, D.7290
ARM GAS  C:\Users\CNous\AppData\Local\Temp\ccZi7tDD.s 			page 27


 845              	.LVL83:
 846 0012 0180     		strh	r1, [r0, #0]	@ movhi	@ D.7291, TIMx_1(D)->CR1
 847 0014 7047     		bx	lr	@
 848              		.cfi_endproc
 849              	.LFE123:
 850              		.size	TIM_SetClockDivision, .-TIM_SetClockDivision
 851 0016 00BF     		.section	.text.TIM_Cmd,"ax",%progbits
 852              		.align	2
 853              		.global	TIM_Cmd
 854              		.thumb
 855              		.thumb_func
 856              		.type	TIM_Cmd, %function
 857              	TIM_Cmd:
 858              	.LFB124:
 577:cmsis/device/stm32f4xx_tim.c **** }
 578:cmsis/device/stm32f4xx_tim.c **** 
 579:cmsis/device/stm32f4xx_tim.c **** /**
 580:cmsis/device/stm32f4xx_tim.c ****   * @brief  Enables or disables the specified TIM peripheral.
 581:cmsis/device/stm32f4xx_tim.c ****   * @param  TIMx: where x can be 1 to 14 to select the TIMx peripheral.
 582:cmsis/device/stm32f4xx_tim.c ****   * @param  NewState: new state of the TIMx peripheral.
 583:cmsis/device/stm32f4xx_tim.c ****   *          This parameter can be: ENABLE or DISABLE.
 584:cmsis/device/stm32f4xx_tim.c ****   * @retval None
 585:cmsis/device/stm32f4xx_tim.c ****   */
 586:cmsis/device/stm32f4xx_tim.c **** void TIM_Cmd(TIM_TypeDef* TIMx, FunctionalState NewState)
 587:cmsis/device/stm32f4xx_tim.c **** {
 859              		.loc 1 587 0
 860              		.cfi_startproc
 861              		@ args = 0, pretend = 0, frame = 0
 862              		@ frame_needed = 0, uses_anonymous_args = 0
 863              		@ link register save eliminated.
 864              	.LVL84:
 588:cmsis/device/stm32f4xx_tim.c ****   /* Check the parameters */
 589:cmsis/device/stm32f4xx_tim.c ****   assert_param(IS_TIM_ALL_PERIPH(TIMx)); 
 590:cmsis/device/stm32f4xx_tim.c ****   assert_param(IS_FUNCTIONAL_STATE(NewState));
 591:cmsis/device/stm32f4xx_tim.c ****   
 592:cmsis/device/stm32f4xx_tim.c ****   if (NewState != DISABLE)
 593:cmsis/device/stm32f4xx_tim.c ****   {
 594:cmsis/device/stm32f4xx_tim.c ****     /* Enable the TIM Counter */
 595:cmsis/device/stm32f4xx_tim.c ****     TIMx->CR1 |= TIM_CR1_CEN;
 865              		.loc 1 595 0
 866 0000 0388     		ldrh	r3, [r0, #0]	@,* TIMx
 592:cmsis/device/stm32f4xx_tim.c ****   if (NewState != DISABLE)
 867              		.loc 1 592 0
 868 0002 29B9     		cbnz	r1, .L67	@ NewState,
 596:cmsis/device/stm32f4xx_tim.c ****   }
 597:cmsis/device/stm32f4xx_tim.c ****   else
 598:cmsis/device/stm32f4xx_tim.c ****   {
 599:cmsis/device/stm32f4xx_tim.c ****     /* Disable the TIM Counter */
 600:cmsis/device/stm32f4xx_tim.c ****     TIMx->CR1 &= (uint16_t)~TIM_CR1_CEN;
 869              		.loc 1 600 0
 870 0004 23F00101 		bic	r1, r3, #1	@ D.7287, TIMx_2(D)->CR1,
 871              	.LVL85:
 872 0008 0A04     		lsls	r2, r1, #16	@ D.7287, D.7287,
 873 000a 130C     		lsrs	r3, r2, #16	@ D.7287, D.7287,
 874 000c 0380     		strh	r3, [r0, #0]	@ movhi	@ D.7287,* TIMx
 875 000e 7047     		bx	lr	@
 876              	.LVL86:
ARM GAS  C:\Users\CNous\AppData\Local\Temp\ccZi7tDD.s 			page 28


 877              	.L67:
 595:cmsis/device/stm32f4xx_tim.c ****     TIMx->CR1 |= TIM_CR1_CEN;
 878              		.loc 1 595 0
 879 0010 99B2     		uxth	r1, r3	@ D.7283, TIMx_2(D)->CR1
 880              	.LVL87:
 881 0012 41F00102 		orr	r2, r1, #1	@ D.7284, D.7283,
 882 0016 0280     		strh	r2, [r0, #0]	@ movhi	@ D.7284,* TIMx
 883 0018 7047     		bx	lr	@
 884              		.cfi_endproc
 885              	.LFE124:
 886              		.size	TIM_Cmd, .-TIM_Cmd
 887 001a 00BF     		.section	.text.TIM_OC1Init,"ax",%progbits
 888              		.align	2
 889              		.global	TIM_OC1Init
 890              		.thumb
 891              		.thumb_func
 892              		.type	TIM_OC1Init, %function
 893              	TIM_OC1Init:
 894              	.LFB125:
 601:cmsis/device/stm32f4xx_tim.c ****   }
 602:cmsis/device/stm32f4xx_tim.c **** }
 603:cmsis/device/stm32f4xx_tim.c **** /**
 604:cmsis/device/stm32f4xx_tim.c ****   * @}
 605:cmsis/device/stm32f4xx_tim.c ****   */
 606:cmsis/device/stm32f4xx_tim.c **** 
 607:cmsis/device/stm32f4xx_tim.c **** /** @defgroup TIM_Group2 Output Compare management functions
 608:cmsis/device/stm32f4xx_tim.c ****  *  @brief    Output Compare management functions 
 609:cmsis/device/stm32f4xx_tim.c ****  *
 610:cmsis/device/stm32f4xx_tim.c **** @verbatim   
 611:cmsis/device/stm32f4xx_tim.c ****  ===============================================================================
 612:cmsis/device/stm32f4xx_tim.c ****                         Output Compare management functions
 613:cmsis/device/stm32f4xx_tim.c ****  ===============================================================================  
 614:cmsis/device/stm32f4xx_tim.c ****    
 615:cmsis/device/stm32f4xx_tim.c ****        ===================================================================      
 616:cmsis/device/stm32f4xx_tim.c ****               TIM Driver: how to use it in Output Compare Mode
 617:cmsis/device/stm32f4xx_tim.c ****        =================================================================== 
 618:cmsis/device/stm32f4xx_tim.c ****        To use the Timer in Output Compare mode, the following steps are mandatory:
 619:cmsis/device/stm32f4xx_tim.c ****        
 620:cmsis/device/stm32f4xx_tim.c ****        1. Enable TIM clock using RCC_APBxPeriphClockCmd(RCC_APBxPeriph_TIMx, ENABLE) function
 621:cmsis/device/stm32f4xx_tim.c ****        
 622:cmsis/device/stm32f4xx_tim.c ****        2. Configure the TIM pins by configuring the corresponding GPIO pins
 623:cmsis/device/stm32f4xx_tim.c ****        
 624:cmsis/device/stm32f4xx_tim.c ****        2. Configure the Time base unit as described in the first part of this driver, 
 625:cmsis/device/stm32f4xx_tim.c ****           if needed, else the Timer will run with the default configuration:
 626:cmsis/device/stm32f4xx_tim.c ****           - Autoreload value = 0xFFFF
 627:cmsis/device/stm32f4xx_tim.c ****           - Prescaler value = 0x0000
 628:cmsis/device/stm32f4xx_tim.c ****           - Counter mode = Up counting
 629:cmsis/device/stm32f4xx_tim.c ****           - Clock Division = TIM_CKD_DIV1
 630:cmsis/device/stm32f4xx_tim.c ****           
 631:cmsis/device/stm32f4xx_tim.c ****        3. Fill the TIM_OCInitStruct with the desired parameters including:
 632:cmsis/device/stm32f4xx_tim.c ****           - The TIM Output Compare mode: TIM_OCMode
 633:cmsis/device/stm32f4xx_tim.c ****           - TIM Output State: TIM_OutputState
 634:cmsis/device/stm32f4xx_tim.c ****           - TIM Pulse value: TIM_Pulse
 635:cmsis/device/stm32f4xx_tim.c ****           - TIM Output Compare Polarity : TIM_OCPolarity
 636:cmsis/device/stm32f4xx_tim.c ****        
 637:cmsis/device/stm32f4xx_tim.c ****        4. Call TIM_OCxInit(TIMx, &TIM_OCInitStruct) to configure the desired channel with the 
 638:cmsis/device/stm32f4xx_tim.c ****           corresponding configuration
ARM GAS  C:\Users\CNous\AppData\Local\Temp\ccZi7tDD.s 			page 29


 639:cmsis/device/stm32f4xx_tim.c ****        
 640:cmsis/device/stm32f4xx_tim.c ****        5. Call the TIM_Cmd(ENABLE) function to enable the TIM counter.
 641:cmsis/device/stm32f4xx_tim.c ****        
 642:cmsis/device/stm32f4xx_tim.c ****        Note1: All other functions can be used separately to modify, if needed,
 643:cmsis/device/stm32f4xx_tim.c ****               a specific feature of the Timer. 
 644:cmsis/device/stm32f4xx_tim.c ****           
 645:cmsis/device/stm32f4xx_tim.c ****        Note2: In case of PWM mode, this function is mandatory:
 646:cmsis/device/stm32f4xx_tim.c ****               TIM_OCxPreloadConfig(TIMx, TIM_OCPreload_ENABLE); 
 647:cmsis/device/stm32f4xx_tim.c ****               
 648:cmsis/device/stm32f4xx_tim.c ****        Note3: If the corresponding interrupt or DMA request are needed, the user should:
 649:cmsis/device/stm32f4xx_tim.c ****                 1. Enable the NVIC (or the DMA) to use the TIM interrupts (or DMA requests). 
 650:cmsis/device/stm32f4xx_tim.c ****                 2. Enable the corresponding interrupt (or DMA request) using the function 
 651:cmsis/device/stm32f4xx_tim.c ****                    TIM_ITConfig(TIMx, TIM_IT_CCx) (or TIM_DMA_Cmd(TIMx, TIM_DMA_CCx))   
 652:cmsis/device/stm32f4xx_tim.c **** 
 653:cmsis/device/stm32f4xx_tim.c **** @endverbatim
 654:cmsis/device/stm32f4xx_tim.c ****   * @{
 655:cmsis/device/stm32f4xx_tim.c ****   */
 656:cmsis/device/stm32f4xx_tim.c **** 
 657:cmsis/device/stm32f4xx_tim.c **** /**
 658:cmsis/device/stm32f4xx_tim.c ****   * @brief  Initializes the TIMx Channel1 according to the specified parameters in
 659:cmsis/device/stm32f4xx_tim.c ****   *         the TIM_OCInitStruct.
 660:cmsis/device/stm32f4xx_tim.c ****   * @param  TIMx: where x can be 1 to 14 except 6 and 7, to select the TIM peripheral.
 661:cmsis/device/stm32f4xx_tim.c ****   * @param  TIM_OCInitStruct: pointer to a TIM_OCInitTypeDef structure that contains
 662:cmsis/device/stm32f4xx_tim.c ****   *         the configuration information for the specified TIM peripheral.
 663:cmsis/device/stm32f4xx_tim.c ****   * @retval None
 664:cmsis/device/stm32f4xx_tim.c ****   */
 665:cmsis/device/stm32f4xx_tim.c **** void TIM_OC1Init(TIM_TypeDef* TIMx, TIM_OCInitTypeDef* TIM_OCInitStruct)
 666:cmsis/device/stm32f4xx_tim.c **** {
 895              		.loc 1 666 0
 896              		.cfi_startproc
 897              		@ args = 0, pretend = 0, frame = 0
 898              		@ frame_needed = 0, uses_anonymous_args = 0
 899              		@ link register save eliminated.
 900              	.LVL88:
 901 0000 2DE9F001 		push	{r4, r5, r6, r7, r8}	@
 902              	.LCFI2:
 903              		.cfi_def_cfa_offset 20
 904              		.cfi_offset 4, -20
 905              		.cfi_offset 5, -16
 906              		.cfi_offset 6, -12
 907              		.cfi_offset 7, -8
 908              		.cfi_offset 8, -4
 667:cmsis/device/stm32f4xx_tim.c ****   uint16_t tmpccmrx = 0, tmpccer = 0, tmpcr2 = 0;
 668:cmsis/device/stm32f4xx_tim.c ****    
 669:cmsis/device/stm32f4xx_tim.c ****   /* Check the parameters */
 670:cmsis/device/stm32f4xx_tim.c ****   assert_param(IS_TIM_LIST1_PERIPH(TIMx)); 
 671:cmsis/device/stm32f4xx_tim.c ****   assert_param(IS_TIM_OC_MODE(TIM_OCInitStruct->TIM_OCMode));
 672:cmsis/device/stm32f4xx_tim.c ****   assert_param(IS_TIM_OUTPUT_STATE(TIM_OCInitStruct->TIM_OutputState));
 673:cmsis/device/stm32f4xx_tim.c ****   assert_param(IS_TIM_OC_POLARITY(TIM_OCInitStruct->TIM_OCPolarity));   
 674:cmsis/device/stm32f4xx_tim.c **** 
 675:cmsis/device/stm32f4xx_tim.c ****   /* Disable the Channel 1: Reset the CC1E Bit */
 676:cmsis/device/stm32f4xx_tim.c ****   TIMx->CCER &= (uint16_t)~TIM_CCER_CC1E;
 909              		.loc 1 676 0
 910 0004 048C     		ldrh	r4, [r0, #32]	@, TIMx_6(D)->CCER
 677:cmsis/device/stm32f4xx_tim.c ****   
 678:cmsis/device/stm32f4xx_tim.c ****   /* Get the TIMx CCER register value */
 679:cmsis/device/stm32f4xx_tim.c ****   tmpccer = TIMx->CCER;
ARM GAS  C:\Users\CNous\AppData\Local\Temp\ccZi7tDD.s 			page 30


 680:cmsis/device/stm32f4xx_tim.c ****   /* Get the TIMx CR2 register value */
 681:cmsis/device/stm32f4xx_tim.c ****   tmpcr2 =  TIMx->CR2;
 682:cmsis/device/stm32f4xx_tim.c ****   
 683:cmsis/device/stm32f4xx_tim.c ****   /* Get the TIMx CCMR1 register value */
 684:cmsis/device/stm32f4xx_tim.c ****   tmpccmrx = TIMx->CCMR1;
 685:cmsis/device/stm32f4xx_tim.c ****     
 686:cmsis/device/stm32f4xx_tim.c ****   /* Reset the Output Compare Mode Bits */
 687:cmsis/device/stm32f4xx_tim.c ****   tmpccmrx &= (uint16_t)~TIM_CCMR1_OC1M;
 688:cmsis/device/stm32f4xx_tim.c ****   tmpccmrx &= (uint16_t)~TIM_CCMR1_CC1S;
 689:cmsis/device/stm32f4xx_tim.c ****   /* Select the Output Compare Mode */
 690:cmsis/device/stm32f4xx_tim.c ****   tmpccmrx |= TIM_OCInitStruct->TIM_OCMode;
 691:cmsis/device/stm32f4xx_tim.c ****   
 692:cmsis/device/stm32f4xx_tim.c ****   /* Reset the Output Polarity level */
 693:cmsis/device/stm32f4xx_tim.c ****   tmpccer &= (uint16_t)~TIM_CCER_CC1P;
 694:cmsis/device/stm32f4xx_tim.c ****   /* Set the Output Compare Polarity */
 695:cmsis/device/stm32f4xx_tim.c ****   tmpccer |= TIM_OCInitStruct->TIM_OCPolarity;
 911              		.loc 1 695 0
 912 0006 B1F802C0 		ldrh	ip, [r1, #2]	@, TIM_OCInitStruct_14(D)->TIM_OutputState
 913 000a 8E89     		ldrh	r6, [r1, #12]	@, TIM_OCInitStruct_14(D)->TIM_OCPolarity
 690:cmsis/device/stm32f4xx_tim.c ****   tmpccmrx |= TIM_OCInitStruct->TIM_OCMode;
 914              		.loc 1 690 0
 915 000c 0F88     		ldrh	r7, [r1, #0]	@ tmp171, TIM_OCInitStruct_14(D)->TIM_OCMode
 676:cmsis/device/stm32f4xx_tim.c ****   TIMx->CCER &= (uint16_t)~TIM_CCER_CC1E;
 916              		.loc 1 676 0
 917 000e 24F00102 		bic	r2, r4, #1	@ D.7269, TIMx_6(D)->CCER,
 918 0012 1304     		lsls	r3, r2, #16	@ D.7269, D.7269,
 919 0014 1D0C     		lsrs	r5, r3, #16	@ D.7269, D.7269,
 920 0016 0584     		strh	r5, [r0, #32]	@ movhi	@ D.7269, TIMx_6(D)->CCER
 679:cmsis/device/stm32f4xx_tim.c ****   tmpccer = TIMx->CCER;
 921              		.loc 1 679 0
 922 0018 048C     		ldrh	r4, [r0, #32]	@, TIMx_6(D)->CCER
 923              	.LVL89:
 681:cmsis/device/stm32f4xx_tim.c ****   tmpcr2 =  TIMx->CR2;
 924              		.loc 1 681 0
 925 001a 8588     		ldrh	r5, [r0, #4]	@, TIMx_6(D)->CR2
 684:cmsis/device/stm32f4xx_tim.c ****   tmpccmrx = TIMx->CCMR1;
 926              		.loc 1 684 0
 927 001c 028B     		ldrh	r2, [r0, #24]	@, TIMx_6(D)->CCMR1
 693:cmsis/device/stm32f4xx_tim.c ****   tmpccer &= (uint16_t)~TIM_CCER_CC1P;
 928              		.loc 1 693 0
 929 001e 24F00203 		bic	r3, r4, #2	@ tmpccer, TIMx_6(D)->CCER,
 688:cmsis/device/stm32f4xx_tim.c ****   tmpccmrx &= (uint16_t)~TIM_CCMR1_CC1S;
 930              		.loc 1 688 0
 931 0022 22F07304 		bic	r4, r2, #115	@ tmpccmrx, TIMx_6(D)->CCMR1,
 932              	.LVL90:
 933 0026 2204     		lsls	r2, r4, #16	@ tmpccmrx, tmpccmrx,
 696:cmsis/device/stm32f4xx_tim.c ****   
 697:cmsis/device/stm32f4xx_tim.c ****   /* Set the Output State */
 698:cmsis/device/stm32f4xx_tim.c ****   tmpccer |= TIM_OCInitStruct->TIM_OutputState;
 699:cmsis/device/stm32f4xx_tim.c ****     
 700:cmsis/device/stm32f4xx_tim.c ****   if((TIMx == TIM1) || (TIMx == TIM8))
 934              		.loc 1 700 0
 935 0028 0024     		movs	r4, #0	@ tmp177,
 693:cmsis/device/stm32f4xx_tim.c ****   tmpccer &= (uint16_t)~TIM_CCER_CC1P;
 936              		.loc 1 693 0
 937 002a 1B04     		lsls	r3, r3, #16	@ tmpccer, tmpccer,
 695:cmsis/device/stm32f4xx_tim.c ****   tmpccer |= TIM_OCInitStruct->TIM_OCPolarity;
ARM GAS  C:\Users\CNous\AppData\Local\Temp\ccZi7tDD.s 			page 31


 938              		.loc 1 695 0
 939 002c 4CEA0606 		orr	r6, ip, r6	@ tmp175, TIM_OCInitStruct_14(D)->TIM_OutputState, TIM_OCInitStruct_14(D)->TIM_OCPo
 940              		.loc 1 700 0
 941 0030 C4F20104 		movt	r4, 16385	@ tmp177,
 688:cmsis/device/stm32f4xx_tim.c ****   tmpccmrx &= (uint16_t)~TIM_CCMR1_CC1S;
 942              		.loc 1 688 0
 943 0034 120C     		lsrs	r2, r2, #16	@ tmpccmrx, tmpccmrx,
 693:cmsis/device/stm32f4xx_tim.c ****   tmpccer &= (uint16_t)~TIM_CCER_CC1P;
 944              		.loc 1 693 0
 945 0036 1B0C     		lsrs	r3, r3, #16	@ tmpccer, tmpccer,
 695:cmsis/device/stm32f4xx_tim.c ****   tmpccer |= TIM_OCInitStruct->TIM_OCPolarity;
 946              		.loc 1 695 0
 947 0038 B6B2     		uxth	r6, r6	@ tmpccer, tmp175
 948              		.loc 1 700 0
 949 003a A042     		cmp	r0, r4	@ TIMx, tmp177
 681:cmsis/device/stm32f4xx_tim.c ****   tmpcr2 =  TIMx->CR2;
 950              		.loc 1 681 0
 951 003c ADB2     		uxth	r5, r5	@ tmpcr2, TIMx_6(D)->CR2
 952              	.LVL91:
 690:cmsis/device/stm32f4xx_tim.c ****   tmpccmrx |= TIM_OCInitStruct->TIM_OCMode;
 953              		.loc 1 690 0
 954 003e 42EA0702 		orr	r2, r2, r7	@ tmpccmrx, tmpccmrx, tmp171
 955              	.LVL92:
 698:cmsis/device/stm32f4xx_tim.c ****   tmpccer |= TIM_OCInitStruct->TIM_OutputState;
 956              		.loc 1 698 0
 957 0042 46EA0303 		orr	r3, r6, r3	@ tmpccer, tmpccer, tmpccer
 958              	.LVL93:
 959              		.loc 1 700 0
 960 0046 0DD0     		beq	.L69	@,
 961              		.loc 1 700 0 is_stmt 0 discriminator 1
 962 0048 4FF48064 		mov	r4, #1024	@ tmp178,
 963 004c C4F20104 		movt	r4, 16385	@ tmp178,
 964 0050 A042     		cmp	r0, r4	@ TIMx, tmp178
 965 0052 07D0     		beq	.L69	@,
 966              	.LVL94:
 967              	.L70:
 701:cmsis/device/stm32f4xx_tim.c ****   {
 702:cmsis/device/stm32f4xx_tim.c ****     assert_param(IS_TIM_OUTPUTN_STATE(TIM_OCInitStruct->TIM_OutputNState));
 703:cmsis/device/stm32f4xx_tim.c ****     assert_param(IS_TIM_OCN_POLARITY(TIM_OCInitStruct->TIM_OCNPolarity));
 704:cmsis/device/stm32f4xx_tim.c ****     assert_param(IS_TIM_OCNIDLE_STATE(TIM_OCInitStruct->TIM_OCNIdleState));
 705:cmsis/device/stm32f4xx_tim.c ****     assert_param(IS_TIM_OCIDLE_STATE(TIM_OCInitStruct->TIM_OCIdleState));
 706:cmsis/device/stm32f4xx_tim.c ****     
 707:cmsis/device/stm32f4xx_tim.c ****     /* Reset the Output N Polarity level */
 708:cmsis/device/stm32f4xx_tim.c ****     tmpccer &= (uint16_t)~TIM_CCER_CC1NP;
 709:cmsis/device/stm32f4xx_tim.c ****     /* Set the Output N Polarity */
 710:cmsis/device/stm32f4xx_tim.c ****     tmpccer |= TIM_OCInitStruct->TIM_OCNPolarity;
 711:cmsis/device/stm32f4xx_tim.c ****     /* Reset the Output N State */
 712:cmsis/device/stm32f4xx_tim.c ****     tmpccer &= (uint16_t)~TIM_CCER_CC1NE;
 713:cmsis/device/stm32f4xx_tim.c ****     
 714:cmsis/device/stm32f4xx_tim.c ****     /* Set the Output N State */
 715:cmsis/device/stm32f4xx_tim.c ****     tmpccer |= TIM_OCInitStruct->TIM_OutputNState;
 716:cmsis/device/stm32f4xx_tim.c ****     /* Reset the Output Compare and Output Compare N IDLE State */
 717:cmsis/device/stm32f4xx_tim.c ****     tmpcr2 &= (uint16_t)~TIM_CR2_OIS1;
 718:cmsis/device/stm32f4xx_tim.c ****     tmpcr2 &= (uint16_t)~TIM_CR2_OIS1N;
 719:cmsis/device/stm32f4xx_tim.c ****     /* Set the Output Idle state */
 720:cmsis/device/stm32f4xx_tim.c ****     tmpcr2 |= TIM_OCInitStruct->TIM_OCIdleState;
 721:cmsis/device/stm32f4xx_tim.c ****     /* Set the Output N Idle state */
ARM GAS  C:\Users\CNous\AppData\Local\Temp\ccZi7tDD.s 			page 32


 722:cmsis/device/stm32f4xx_tim.c ****     tmpcr2 |= TIM_OCInitStruct->TIM_OCNIdleState;
 723:cmsis/device/stm32f4xx_tim.c ****   }
 724:cmsis/device/stm32f4xx_tim.c ****   /* Write to TIMx CR2 */
 725:cmsis/device/stm32f4xx_tim.c ****   TIMx->CR2 = tmpcr2;
 726:cmsis/device/stm32f4xx_tim.c ****   
 727:cmsis/device/stm32f4xx_tim.c ****   /* Write to TIMx CCMR1 */
 728:cmsis/device/stm32f4xx_tim.c ****   TIMx->CCMR1 = tmpccmrx;
 729:cmsis/device/stm32f4xx_tim.c ****   
 730:cmsis/device/stm32f4xx_tim.c ****   /* Set the Capture Compare Register value */
 731:cmsis/device/stm32f4xx_tim.c ****   TIMx->CCR1 = TIM_OCInitStruct->TIM_Pulse;
 968              		.loc 1 731 0 is_stmt 1
 969 0054 8968     		ldr	r1, [r1, #8]	@ D.7280, TIM_OCInitStruct_14(D)->TIM_Pulse
 970              	.LVL95:
 725:cmsis/device/stm32f4xx_tim.c ****   TIMx->CR2 = tmpcr2;
 971              		.loc 1 725 0
 972 0056 8580     		strh	r5, [r0, #4]	@ movhi	@ tmpcr2, TIMx_6(D)->CR2
 728:cmsis/device/stm32f4xx_tim.c ****   TIMx->CCMR1 = tmpccmrx;
 973              		.loc 1 728 0
 974 0058 0283     		strh	r2, [r0, #24]	@ movhi	@ tmpccmrx, TIMx_6(D)->CCMR1
 975              		.loc 1 731 0
 976 005a 4163     		str	r1, [r0, #52]	@ D.7280, TIMx_6(D)->CCR1
 732:cmsis/device/stm32f4xx_tim.c ****   
 733:cmsis/device/stm32f4xx_tim.c ****   /* Write to TIMx CCER */
 734:cmsis/device/stm32f4xx_tim.c ****   TIMx->CCER = tmpccer;
 977              		.loc 1 734 0
 978 005c 0384     		strh	r3, [r0, #32]	@ movhi	@ tmpccer, TIMx_6(D)->CCER
 735:cmsis/device/stm32f4xx_tim.c **** }
 979              		.loc 1 735 0
 980 005e BDE8F001 		pop	{r4, r5, r6, r7, r8}
 981 0062 7047     		bx	lr
 982              	.LVL96:
 983              	.L69:
 708:cmsis/device/stm32f4xx_tim.c ****     tmpccer &= (uint16_t)~TIM_CCER_CC1NP;
 984              		.loc 1 708 0
 985 0064 4FF6F774 		movw	r4, #65527	@ tmpccer,
 710:cmsis/device/stm32f4xx_tim.c ****     tmpccer |= TIM_OCInitStruct->TIM_OCNPolarity;
 986              		.loc 1 710 0
 987 0068 B1F80EC0 		ldrh	ip, [r1, #14]	@ tmp181, TIM_OCInitStruct_14(D)->TIM_OCNPolarity
 720:cmsis/device/stm32f4xx_tim.c ****     tmpcr2 |= TIM_OCInitStruct->TIM_OCIdleState;
 988              		.loc 1 720 0
 989 006c B1F81280 		ldrh	r8, [r1, #18]	@, TIM_OCInitStruct_14(D)->TIM_OCNIdleState
 990 0070 0F8A     		ldrh	r7, [r1, #16]	@, TIM_OCInitStruct_14(D)->TIM_OCIdleState
 715:cmsis/device/stm32f4xx_tim.c ****     tmpccer |= TIM_OCInitStruct->TIM_OutputNState;
 991              		.loc 1 715 0
 992 0072 8E88     		ldrh	r6, [r1, #4]	@ tmp184, TIM_OCInitStruct_14(D)->TIM_OutputNState
 708:cmsis/device/stm32f4xx_tim.c ****     tmpccer &= (uint16_t)~TIM_CCER_CC1NP;
 993              		.loc 1 708 0
 994 0074 1C40     		ands	r4, r4, r3	@, tmpccer, tmpccer, tmpccer
 995              	.LVL97:
 710:cmsis/device/stm32f4xx_tim.c ****     tmpccer |= TIM_OCInitStruct->TIM_OCNPolarity;
 996              		.loc 1 710 0
 997 0076 44EA0C0C 		orr	ip, r4, ip	@ tmpccer, tmpccer, tmp181
 998              	.LVL98:
 712:cmsis/device/stm32f4xx_tim.c ****     tmpccer &= (uint16_t)~TIM_CCER_CC1NE;
 999              		.loc 1 712 0
 1000 007a 4FF6FB73 		movw	r3, #65531	@ tmpccer,
 718:cmsis/device/stm32f4xx_tim.c ****     tmpcr2 &= (uint16_t)~TIM_CR2_OIS1N;
ARM GAS  C:\Users\CNous\AppData\Local\Temp\ccZi7tDD.s 			page 33


 1001              		.loc 1 718 0
 1002 007e 4FF6FF44 		movw	r4, #64767	@ tmpcr2,
 720:cmsis/device/stm32f4xx_tim.c ****     tmpcr2 |= TIM_OCInitStruct->TIM_OCIdleState;
 1003              		.loc 1 720 0
 1004 0082 48EA0707 		orr	r7, r8, r7	@ tmp188, TIM_OCInitStruct_14(D)->TIM_OCNIdleState, TIM_OCInitStruct_14(D)->TIM_OCI
 718:cmsis/device/stm32f4xx_tim.c ****     tmpcr2 &= (uint16_t)~TIM_CR2_OIS1N;
 1005              		.loc 1 718 0
 1006 0086 2C40     		ands	r4, r4, r5	@, tmpcr2, tmpcr2, tmpcr2
 712:cmsis/device/stm32f4xx_tim.c ****     tmpccer &= (uint16_t)~TIM_CCER_CC1NE;
 1007              		.loc 1 712 0
 1008 0088 0CEA0303 		and	r3, ip, r3	@ tmpccer, tmpccer, tmpccer
 1009              	.LVL99:
 720:cmsis/device/stm32f4xx_tim.c ****     tmpcr2 |= TIM_OCInitStruct->TIM_OCIdleState;
 1010              		.loc 1 720 0
 1011 008c BDB2     		uxth	r5, r7	@ tmpcr2, tmp188
 1012              	.LVL100:
 715:cmsis/device/stm32f4xx_tim.c ****     tmpccer |= TIM_OCInitStruct->TIM_OutputNState;
 1013              		.loc 1 715 0
 1014 008e 3343     		orrs	r3, r3, r6	@, tmpccer, tmpccer, tmp184
 1015              	.LVL101:
 722:cmsis/device/stm32f4xx_tim.c ****     tmpcr2 |= TIM_OCInitStruct->TIM_OCNIdleState;
 1016              		.loc 1 722 0
 1017 0090 2543     		orrs	r5, r5, r4	@, tmpcr2, tmpcr2, tmpcr2
 1018              	.LVL102:
 1019 0092 DFE7     		b	.L70	@
 1020              		.cfi_endproc
 1021              	.LFE125:
 1022              		.size	TIM_OC1Init, .-TIM_OC1Init
 1023              		.section	.text.TIM_OC2Init,"ax",%progbits
 1024              		.align	2
 1025              		.global	TIM_OC2Init
 1026              		.thumb
 1027              		.thumb_func
 1028              		.type	TIM_OC2Init, %function
 1029              	TIM_OC2Init:
 1030              	.LFB126:
 736:cmsis/device/stm32f4xx_tim.c **** 
 737:cmsis/device/stm32f4xx_tim.c **** /**
 738:cmsis/device/stm32f4xx_tim.c ****   * @brief  Initializes the TIMx Channel2 according to the specified parameters 
 739:cmsis/device/stm32f4xx_tim.c ****   *         in the TIM_OCInitStruct.
 740:cmsis/device/stm32f4xx_tim.c ****   * @param  TIMx: where x can be 1, 2, 3, 4, 5, 8, 9 or 12 to select the TIM 
 741:cmsis/device/stm32f4xx_tim.c ****   *         peripheral.
 742:cmsis/device/stm32f4xx_tim.c ****   * @param  TIM_OCInitStruct: pointer to a TIM_OCInitTypeDef structure that contains
 743:cmsis/device/stm32f4xx_tim.c ****   *         the configuration information for the specified TIM peripheral.
 744:cmsis/device/stm32f4xx_tim.c ****   * @retval None
 745:cmsis/device/stm32f4xx_tim.c ****   */
 746:cmsis/device/stm32f4xx_tim.c **** void TIM_OC2Init(TIM_TypeDef* TIMx, TIM_OCInitTypeDef* TIM_OCInitStruct)
 747:cmsis/device/stm32f4xx_tim.c **** {
 1031              		.loc 1 747 0
 1032              		.cfi_startproc
 1033              		@ args = 0, pretend = 0, frame = 0
 1034              		@ frame_needed = 0, uses_anonymous_args = 0
 1035              		@ link register save eliminated.
 1036              	.LVL103:
 1037 0000 2DE9F003 		push	{r4, r5, r6, r7, r8, r9}	@
 1038              	.LCFI3:
 1039              		.cfi_def_cfa_offset 24
ARM GAS  C:\Users\CNous\AppData\Local\Temp\ccZi7tDD.s 			page 34


 1040              		.cfi_offset 4, -24
 1041              		.cfi_offset 5, -20
 1042              		.cfi_offset 6, -16
 1043              		.cfi_offset 7, -12
 1044              		.cfi_offset 8, -8
 1045              		.cfi_offset 9, -4
 748:cmsis/device/stm32f4xx_tim.c ****   uint16_t tmpccmrx = 0, tmpccer = 0, tmpcr2 = 0;
 749:cmsis/device/stm32f4xx_tim.c ****    
 750:cmsis/device/stm32f4xx_tim.c ****   /* Check the parameters */
 751:cmsis/device/stm32f4xx_tim.c ****   assert_param(IS_TIM_LIST2_PERIPH(TIMx)); 
 752:cmsis/device/stm32f4xx_tim.c ****   assert_param(IS_TIM_OC_MODE(TIM_OCInitStruct->TIM_OCMode));
 753:cmsis/device/stm32f4xx_tim.c ****   assert_param(IS_TIM_OUTPUT_STATE(TIM_OCInitStruct->TIM_OutputState));
 754:cmsis/device/stm32f4xx_tim.c ****   assert_param(IS_TIM_OC_POLARITY(TIM_OCInitStruct->TIM_OCPolarity));   
 755:cmsis/device/stm32f4xx_tim.c **** 
 756:cmsis/device/stm32f4xx_tim.c ****   /* Disable the Channel 2: Reset the CC2E Bit */
 757:cmsis/device/stm32f4xx_tim.c ****   TIMx->CCER &= (uint16_t)~TIM_CCER_CC2E;
 1046              		.loc 1 757 0
 1047 0004 048C     		ldrh	r4, [r0, #32]	@, TIMx_6(D)->CCER
 758:cmsis/device/stm32f4xx_tim.c ****   
 759:cmsis/device/stm32f4xx_tim.c ****   /* Get the TIMx CCER register value */  
 760:cmsis/device/stm32f4xx_tim.c ****   tmpccer = TIMx->CCER;
 761:cmsis/device/stm32f4xx_tim.c ****   /* Get the TIMx CR2 register value */
 762:cmsis/device/stm32f4xx_tim.c ****   tmpcr2 =  TIMx->CR2;
 763:cmsis/device/stm32f4xx_tim.c ****   
 764:cmsis/device/stm32f4xx_tim.c ****   /* Get the TIMx CCMR1 register value */
 765:cmsis/device/stm32f4xx_tim.c ****   tmpccmrx = TIMx->CCMR1;
 766:cmsis/device/stm32f4xx_tim.c ****     
 767:cmsis/device/stm32f4xx_tim.c ****   /* Reset the Output Compare mode and Capture/Compare selection Bits */
 768:cmsis/device/stm32f4xx_tim.c ****   tmpccmrx &= (uint16_t)~TIM_CCMR1_OC2M;
 769:cmsis/device/stm32f4xx_tim.c ****   tmpccmrx &= (uint16_t)~TIM_CCMR1_CC2S;
 770:cmsis/device/stm32f4xx_tim.c ****   
 771:cmsis/device/stm32f4xx_tim.c ****   /* Select the Output Compare Mode */
 772:cmsis/device/stm32f4xx_tim.c ****   tmpccmrx |= (uint16_t)(TIM_OCInitStruct->TIM_OCMode << 8);
 773:cmsis/device/stm32f4xx_tim.c ****   
 774:cmsis/device/stm32f4xx_tim.c ****   /* Reset the Output Polarity level */
 775:cmsis/device/stm32f4xx_tim.c ****   tmpccer &= (uint16_t)~TIM_CCER_CC2P;
 776:cmsis/device/stm32f4xx_tim.c ****   /* Set the Output Compare Polarity */
 777:cmsis/device/stm32f4xx_tim.c ****   tmpccer |= (uint16_t)(TIM_OCInitStruct->TIM_OCPolarity << 4);
 1048              		.loc 1 777 0
 1049 0006 8D89     		ldrh	r5, [r1, #12]	@, TIM_OCInitStruct_14(D)->TIM_OCPolarity
 772:cmsis/device/stm32f4xx_tim.c ****   tmpccmrx |= (uint16_t)(TIM_OCInitStruct->TIM_OCMode << 8);
 1050              		.loc 1 772 0
 1051 0008 0F88     		ldrh	r7, [r1, #0]	@, TIM_OCInitStruct_14(D)->TIM_OCMode
 778:cmsis/device/stm32f4xx_tim.c ****   
 779:cmsis/device/stm32f4xx_tim.c ****   /* Set the Output State */
 780:cmsis/device/stm32f4xx_tim.c ****   tmpccer |= (uint16_t)(TIM_OCInitStruct->TIM_OutputState << 4);
 1052              		.loc 1 780 0
 1053 000a 4E88     		ldrh	r6, [r1, #2]	@, TIM_OCInitStruct_14(D)->TIM_OutputState
 757:cmsis/device/stm32f4xx_tim.c ****   TIMx->CCER &= (uint16_t)~TIM_CCER_CC2E;
 1054              		.loc 1 757 0
 1055 000c 24F01002 		bic	r2, r4, #16	@ D.7249, TIMx_6(D)->CCER,
 1056 0010 1304     		lsls	r3, r2, #16	@ D.7249, D.7249,
 1057 0012 1C0C     		lsrs	r4, r3, #16	@ D.7249, D.7249,
 1058 0014 0484     		strh	r4, [r0, #32]	@ movhi	@ D.7249, TIMx_6(D)->CCER
 760:cmsis/device/stm32f4xx_tim.c ****   tmpccer = TIMx->CCER;
 1059              		.loc 1 760 0
 1060 0016 028C     		ldrh	r2, [r0, #32]	@, TIMx_6(D)->CCER
ARM GAS  C:\Users\CNous\AppData\Local\Temp\ccZi7tDD.s 			page 35


 1061              	.LVL104:
 762:cmsis/device/stm32f4xx_tim.c ****   tmpcr2 =  TIMx->CR2;
 1062              		.loc 1 762 0
 1063 0018 8488     		ldrh	r4, [r0, #4]	@, TIMx_6(D)->CR2
 765:cmsis/device/stm32f4xx_tim.c ****   tmpccmrx = TIMx->CCMR1;
 1064              		.loc 1 765 0
 1065 001a 038B     		ldrh	r3, [r0, #24]	@, TIMx_6(D)->CCMR1
 775:cmsis/device/stm32f4xx_tim.c ****   tmpccer &= (uint16_t)~TIM_CCER_CC2P;
 1066              		.loc 1 775 0
 1067 001c 22F02002 		bic	r2, r2, #32	@ tmpccer, TIMx_6(D)->CCER,
 1068              	.LVL105:
 1069 0020 1204     		lsls	r2, r2, #16	@ tmpccer, tmpccer,
 1070 0022 120C     		lsrs	r2, r2, #16	@ tmpccer, tmpccer,
 769:cmsis/device/stm32f4xx_tim.c ****   tmpccmrx &= (uint16_t)~TIM_CCMR1_CC2S;
 1071              		.loc 1 769 0
 1072 0024 23F4E643 		bic	r3, r3, #29440	@ tmpccmrx, TIMx_6(D)->CCMR1,
 1073 0028 1B04     		lsls	r3, r3, #16	@ tmpccmrx, tmpccmrx,
 777:cmsis/device/stm32f4xx_tim.c ****   tmpccer |= (uint16_t)(TIM_OCInitStruct->TIM_OCPolarity << 4);
 1074              		.loc 1 777 0
 1075 002a 42EA0512 		orr	r2, r2, r5, lsl #4	@, tmp185, tmpccer, TIM_OCInitStruct_14(D)->TIM_OCPolarity,
 781:cmsis/device/stm32f4xx_tim.c ****     
 782:cmsis/device/stm32f4xx_tim.c ****   if((TIMx == TIM1) || (TIMx == TIM8))
 1076              		.loc 1 782 0
 1077 002e 0025     		movs	r5, #0	@ tmp190,
 769:cmsis/device/stm32f4xx_tim.c ****   tmpccmrx &= (uint16_t)~TIM_CCMR1_CC2S;
 1078              		.loc 1 769 0
 1079 0030 1B0C     		lsrs	r3, r3, #16	@ tmpccmrx, tmpccmrx,
 1080              		.loc 1 782 0
 1081 0032 C4F20105 		movt	r5, 16385	@ tmp190,
 772:cmsis/device/stm32f4xx_tim.c ****   tmpccmrx |= (uint16_t)(TIM_OCInitStruct->TIM_OCMode << 8);
 1082              		.loc 1 772 0
 1083 0036 43EA0723 		orr	r3, r3, r7, lsl #8	@, tmp180, tmpccmrx, TIM_OCInitStruct_14(D)->TIM_OCMode,
 780:cmsis/device/stm32f4xx_tim.c ****   tmpccer |= (uint16_t)(TIM_OCInitStruct->TIM_OutputState << 4);
 1084              		.loc 1 780 0
 1085 003a 42EA0612 		orr	r2, r2, r6, lsl #4	@, tmpccer, tmp185, TIM_OCInitStruct_14(D)->TIM_OutputState,
 1086              		.loc 1 782 0
 1087 003e A842     		cmp	r0, r5	@ TIMx, tmp190
 762:cmsis/device/stm32f4xx_tim.c ****   tmpcr2 =  TIMx->CR2;
 1088              		.loc 1 762 0
 1089 0040 A4B2     		uxth	r4, r4	@ tmpcr2, TIMx_6(D)->CR2
 1090              	.LVL106:
 772:cmsis/device/stm32f4xx_tim.c ****   tmpccmrx |= (uint16_t)(TIM_OCInitStruct->TIM_OCMode << 8);
 1091              		.loc 1 772 0
 1092 0042 9BB2     		uxth	r3, r3	@ tmpccmrx, tmp180
 1093              	.LVL107:
 780:cmsis/device/stm32f4xx_tim.c ****   tmpccer |= (uint16_t)(TIM_OCInitStruct->TIM_OutputState << 4);
 1094              		.loc 1 780 0
 1095 0044 92B2     		uxth	r2, r2	@ tmpccer, tmpccer
 1096              	.LVL108:
 1097              		.loc 1 782 0
 1098 0046 0DD0     		beq	.L72	@,
 1099              		.loc 1 782 0 is_stmt 0 discriminator 1
 1100 0048 4FF48065 		mov	r5, #1024	@ tmp191,
 1101 004c C4F20105 		movt	r5, 16385	@ tmp191,
 1102 0050 A842     		cmp	r0, r5	@ TIMx, tmp191
 1103 0052 07D0     		beq	.L72	@,
 1104              	.LVL109:
ARM GAS  C:\Users\CNous\AppData\Local\Temp\ccZi7tDD.s 			page 36


 1105              	.L73:
 783:cmsis/device/stm32f4xx_tim.c ****   {
 784:cmsis/device/stm32f4xx_tim.c ****     assert_param(IS_TIM_OUTPUTN_STATE(TIM_OCInitStruct->TIM_OutputNState));
 785:cmsis/device/stm32f4xx_tim.c ****     assert_param(IS_TIM_OCN_POLARITY(TIM_OCInitStruct->TIM_OCNPolarity));
 786:cmsis/device/stm32f4xx_tim.c ****     assert_param(IS_TIM_OCNIDLE_STATE(TIM_OCInitStruct->TIM_OCNIdleState));
 787:cmsis/device/stm32f4xx_tim.c ****     assert_param(IS_TIM_OCIDLE_STATE(TIM_OCInitStruct->TIM_OCIdleState));
 788:cmsis/device/stm32f4xx_tim.c ****     
 789:cmsis/device/stm32f4xx_tim.c ****     /* Reset the Output N Polarity level */
 790:cmsis/device/stm32f4xx_tim.c ****     tmpccer &= (uint16_t)~TIM_CCER_CC2NP;
 791:cmsis/device/stm32f4xx_tim.c ****     /* Set the Output N Polarity */
 792:cmsis/device/stm32f4xx_tim.c ****     tmpccer |= (uint16_t)(TIM_OCInitStruct->TIM_OCNPolarity << 4);
 793:cmsis/device/stm32f4xx_tim.c ****     /* Reset the Output N State */
 794:cmsis/device/stm32f4xx_tim.c ****     tmpccer &= (uint16_t)~TIM_CCER_CC2NE;
 795:cmsis/device/stm32f4xx_tim.c ****     
 796:cmsis/device/stm32f4xx_tim.c ****     /* Set the Output N State */
 797:cmsis/device/stm32f4xx_tim.c ****     tmpccer |= (uint16_t)(TIM_OCInitStruct->TIM_OutputNState << 4);
 798:cmsis/device/stm32f4xx_tim.c ****     /* Reset the Output Compare and Output Compare N IDLE State */
 799:cmsis/device/stm32f4xx_tim.c ****     tmpcr2 &= (uint16_t)~TIM_CR2_OIS2;
 800:cmsis/device/stm32f4xx_tim.c ****     tmpcr2 &= (uint16_t)~TIM_CR2_OIS2N;
 801:cmsis/device/stm32f4xx_tim.c ****     /* Set the Output Idle state */
 802:cmsis/device/stm32f4xx_tim.c ****     tmpcr2 |= (uint16_t)(TIM_OCInitStruct->TIM_OCIdleState << 2);
 803:cmsis/device/stm32f4xx_tim.c ****     /* Set the Output N Idle state */
 804:cmsis/device/stm32f4xx_tim.c ****     tmpcr2 |= (uint16_t)(TIM_OCInitStruct->TIM_OCNIdleState << 2);
 805:cmsis/device/stm32f4xx_tim.c ****   }
 806:cmsis/device/stm32f4xx_tim.c ****   /* Write to TIMx CR2 */
 807:cmsis/device/stm32f4xx_tim.c ****   TIMx->CR2 = tmpcr2;
 808:cmsis/device/stm32f4xx_tim.c ****   
 809:cmsis/device/stm32f4xx_tim.c ****   /* Write to TIMx CCMR1 */
 810:cmsis/device/stm32f4xx_tim.c ****   TIMx->CCMR1 = tmpccmrx;
 811:cmsis/device/stm32f4xx_tim.c ****   
 812:cmsis/device/stm32f4xx_tim.c ****   /* Set the Capture Compare Register value */
 813:cmsis/device/stm32f4xx_tim.c ****   TIMx->CCR2 = TIM_OCInitStruct->TIM_Pulse;
 1106              		.loc 1 813 0 is_stmt 1
 1107 0054 8968     		ldr	r1, [r1, #8]	@ D.7267, TIM_OCInitStruct_14(D)->TIM_Pulse
 1108              	.LVL110:
 807:cmsis/device/stm32f4xx_tim.c ****   TIMx->CR2 = tmpcr2;
 1109              		.loc 1 807 0
 1110 0056 8480     		strh	r4, [r0, #4]	@ movhi	@ tmpcr2, TIMx_6(D)->CR2
 810:cmsis/device/stm32f4xx_tim.c ****   TIMx->CCMR1 = tmpccmrx;
 1111              		.loc 1 810 0
 1112 0058 0383     		strh	r3, [r0, #24]	@ movhi	@ tmpccmrx, TIMx_6(D)->CCMR1
 1113              		.loc 1 813 0
 1114 005a 8163     		str	r1, [r0, #56]	@ D.7267, TIMx_6(D)->CCR2
 814:cmsis/device/stm32f4xx_tim.c ****   
 815:cmsis/device/stm32f4xx_tim.c ****   /* Write to TIMx CCER */
 816:cmsis/device/stm32f4xx_tim.c ****   TIMx->CCER = tmpccer;
 1115              		.loc 1 816 0
 1116 005c 0284     		strh	r2, [r0, #32]	@ movhi	@ tmpccer, TIMx_6(D)->CCER
 817:cmsis/device/stm32f4xx_tim.c **** }
 1117              		.loc 1 817 0
 1118 005e BDE8F003 		pop	{r4, r5, r6, r7, r8, r9}
 1119 0062 7047     		bx	lr
 1120              	.LVL111:
 1121              	.L72:
 790:cmsis/device/stm32f4xx_tim.c ****     tmpccer &= (uint16_t)~TIM_CCER_CC2NP;
 1122              		.loc 1 790 0
 1123 0064 4FF67F76 		movw	r6, #65407	@ tmpccer,
ARM GAS  C:\Users\CNous\AppData\Local\Temp\ccZi7tDD.s 			page 37


 792:cmsis/device/stm32f4xx_tim.c ****     tmpccer |= (uint16_t)(TIM_OCInitStruct->TIM_OCNPolarity << 4);
 1124              		.loc 1 792 0
 1125 0068 B1F80E90 		ldrh	r9, [r1, #14]	@, TIM_OCInitStruct_14(D)->TIM_OCNPolarity
 802:cmsis/device/stm32f4xx_tim.c ****     tmpcr2 |= (uint16_t)(TIM_OCInitStruct->TIM_OCIdleState << 2);
 1126              		.loc 1 802 0
 1127 006c B1F81080 		ldrh	r8, [r1, #16]	@, TIM_OCInitStruct_14(D)->TIM_OCIdleState
 797:cmsis/device/stm32f4xx_tim.c ****     tmpccer |= (uint16_t)(TIM_OCInitStruct->TIM_OutputNState << 4);
 1128              		.loc 1 797 0
 1129 0070 B1F804C0 		ldrh	ip, [r1, #4]	@, TIM_OCInitStruct_14(D)->TIM_OutputNState
 804:cmsis/device/stm32f4xx_tim.c ****     tmpcr2 |= (uint16_t)(TIM_OCInitStruct->TIM_OCNIdleState << 2);
 1130              		.loc 1 804 0
 1131 0074 4F8A     		ldrh	r7, [r1, #18]	@, TIM_OCInitStruct_14(D)->TIM_OCNIdleState
 790:cmsis/device/stm32f4xx_tim.c ****     tmpccer &= (uint16_t)~TIM_CCER_CC2NP;
 1132              		.loc 1 790 0
 1133 0076 1640     		ands	r6, r6, r2	@, tmpccer, tmpccer, tmpccer
 1134              	.LVL112:
 800:cmsis/device/stm32f4xx_tim.c ****     tmpcr2 &= (uint16_t)~TIM_CR2_OIS2N;
 1135              		.loc 1 800 0
 1136 0078 4FF2FF35 		movw	r5, #62463	@ tmpcr2,
 1137 007c 2540     		ands	r5, r5, r4	@, tmpcr2, tmpcr2, tmpcr2
 792:cmsis/device/stm32f4xx_tim.c ****     tmpccer |= (uint16_t)(TIM_OCInitStruct->TIM_OCNPolarity << 4);
 1138              		.loc 1 792 0
 1139 007e 46EA0916 		orr	r6, r6, r9, lsl #4	@, tmp196, tmpccer, TIM_OCInitStruct_14(D)->TIM_OCNPolarity,
 1140              	.LVL113:
 794:cmsis/device/stm32f4xx_tim.c ****     tmpccer &= (uint16_t)~TIM_CCER_CC2NE;
 1141              		.loc 1 794 0
 1142 0082 4FF6BF72 		movw	r2, #65471	@ tmpccer,
 1143 0086 3240     		ands	r2, r2, r6	@, tmpccer, tmpccer, tmp196
 1144              	.LVL114:
 802:cmsis/device/stm32f4xx_tim.c ****     tmpcr2 |= (uint16_t)(TIM_OCInitStruct->TIM_OCIdleState << 2);
 1145              		.loc 1 802 0
 1146 0088 45EA8804 		orr	r4, r5, r8, lsl #2	@, tmp206, tmpcr2, TIM_OCInitStruct_14(D)->TIM_OCIdleState,
 1147              	.LVL115:
 797:cmsis/device/stm32f4xx_tim.c ****     tmpccer |= (uint16_t)(TIM_OCInitStruct->TIM_OutputNState << 4);
 1148              		.loc 1 797 0
 1149 008c 42EA0C12 		orr	r2, r2, ip, lsl #4	@, tmp201, tmpccer, TIM_OCInitStruct_14(D)->TIM_OutputNState,
 1150              	.LVL116:
 804:cmsis/device/stm32f4xx_tim.c ****     tmpcr2 |= (uint16_t)(TIM_OCInitStruct->TIM_OCNIdleState << 2);
 1151              		.loc 1 804 0
 1152 0090 44EA8704 		orr	r4, r4, r7, lsl #2	@, tmpcr2, tmp206, TIM_OCInitStruct_14(D)->TIM_OCNIdleState,
 797:cmsis/device/stm32f4xx_tim.c ****     tmpccer |= (uint16_t)(TIM_OCInitStruct->TIM_OutputNState << 4);
 1153              		.loc 1 797 0
 1154 0094 92B2     		uxth	r2, r2	@ tmpccer, tmp201
 1155              	.LVL117:
 804:cmsis/device/stm32f4xx_tim.c ****     tmpcr2 |= (uint16_t)(TIM_OCInitStruct->TIM_OCNIdleState << 2);
 1156              		.loc 1 804 0
 1157 0096 A4B2     		uxth	r4, r4	@ tmpcr2, tmpcr2
 1158              	.LVL118:
 1159 0098 DCE7     		b	.L73	@
 1160              		.cfi_endproc
 1161              	.LFE126:
 1162              		.size	TIM_OC2Init, .-TIM_OC2Init
 1163 009a 00BF     		.section	.text.TIM_OC3Init,"ax",%progbits
 1164              		.align	2
 1165              		.global	TIM_OC3Init
 1166              		.thumb
 1167              		.thumb_func
ARM GAS  C:\Users\CNous\AppData\Local\Temp\ccZi7tDD.s 			page 38


 1168              		.type	TIM_OC3Init, %function
 1169              	TIM_OC3Init:
 1170              	.LFB127:
 818:cmsis/device/stm32f4xx_tim.c **** 
 819:cmsis/device/stm32f4xx_tim.c **** /**
 820:cmsis/device/stm32f4xx_tim.c ****   * @brief  Initializes the TIMx Channel3 according to the specified parameters
 821:cmsis/device/stm32f4xx_tim.c ****   *         in the TIM_OCInitStruct.
 822:cmsis/device/stm32f4xx_tim.c ****   * @param  TIMx: where x can be 1, 2, 3, 4, 5 or 8 to select the TIM peripheral.
 823:cmsis/device/stm32f4xx_tim.c ****   * @param  TIM_OCInitStruct: pointer to a TIM_OCInitTypeDef structure that contains
 824:cmsis/device/stm32f4xx_tim.c ****   *         the configuration information for the specified TIM peripheral.
 825:cmsis/device/stm32f4xx_tim.c ****   * @retval None
 826:cmsis/device/stm32f4xx_tim.c ****   */
 827:cmsis/device/stm32f4xx_tim.c **** void TIM_OC3Init(TIM_TypeDef* TIMx, TIM_OCInitTypeDef* TIM_OCInitStruct)
 828:cmsis/device/stm32f4xx_tim.c **** {
 1171              		.loc 1 828 0
 1172              		.cfi_startproc
 1173              		@ args = 0, pretend = 0, frame = 0
 1174              		@ frame_needed = 0, uses_anonymous_args = 0
 1175              		@ link register save eliminated.
 1176              	.LVL119:
 1177 0000 2DE9F003 		push	{r4, r5, r6, r7, r8, r9}	@
 1178              	.LCFI4:
 1179              		.cfi_def_cfa_offset 24
 1180              		.cfi_offset 4, -24
 1181              		.cfi_offset 5, -20
 1182              		.cfi_offset 6, -16
 1183              		.cfi_offset 7, -12
 1184              		.cfi_offset 8, -8
 1185              		.cfi_offset 9, -4
 829:cmsis/device/stm32f4xx_tim.c ****   uint16_t tmpccmrx = 0, tmpccer = 0, tmpcr2 = 0;
 830:cmsis/device/stm32f4xx_tim.c ****    
 831:cmsis/device/stm32f4xx_tim.c ****   /* Check the parameters */
 832:cmsis/device/stm32f4xx_tim.c ****   assert_param(IS_TIM_LIST3_PERIPH(TIMx)); 
 833:cmsis/device/stm32f4xx_tim.c ****   assert_param(IS_TIM_OC_MODE(TIM_OCInitStruct->TIM_OCMode));
 834:cmsis/device/stm32f4xx_tim.c ****   assert_param(IS_TIM_OUTPUT_STATE(TIM_OCInitStruct->TIM_OutputState));
 835:cmsis/device/stm32f4xx_tim.c ****   assert_param(IS_TIM_OC_POLARITY(TIM_OCInitStruct->TIM_OCPolarity));   
 836:cmsis/device/stm32f4xx_tim.c **** 
 837:cmsis/device/stm32f4xx_tim.c ****   /* Disable the Channel 3: Reset the CC2E Bit */
 838:cmsis/device/stm32f4xx_tim.c ****   TIMx->CCER &= (uint16_t)~TIM_CCER_CC3E;
 1186              		.loc 1 838 0
 1187 0004 048C     		ldrh	r4, [r0, #32]	@, TIMx_6(D)->CCER
 839:cmsis/device/stm32f4xx_tim.c ****   
 840:cmsis/device/stm32f4xx_tim.c ****   /* Get the TIMx CCER register value */
 841:cmsis/device/stm32f4xx_tim.c ****   tmpccer = TIMx->CCER;
 842:cmsis/device/stm32f4xx_tim.c ****   /* Get the TIMx CR2 register value */
 843:cmsis/device/stm32f4xx_tim.c ****   tmpcr2 =  TIMx->CR2;
 844:cmsis/device/stm32f4xx_tim.c ****   
 845:cmsis/device/stm32f4xx_tim.c ****   /* Get the TIMx CCMR2 register value */
 846:cmsis/device/stm32f4xx_tim.c ****   tmpccmrx = TIMx->CCMR2;
 847:cmsis/device/stm32f4xx_tim.c ****     
 848:cmsis/device/stm32f4xx_tim.c ****   /* Reset the Output Compare mode and Capture/Compare selection Bits */
 849:cmsis/device/stm32f4xx_tim.c ****   tmpccmrx &= (uint16_t)~TIM_CCMR2_OC3M;
 850:cmsis/device/stm32f4xx_tim.c ****   tmpccmrx &= (uint16_t)~TIM_CCMR2_CC3S;  
 851:cmsis/device/stm32f4xx_tim.c ****   /* Select the Output Compare Mode */
 852:cmsis/device/stm32f4xx_tim.c ****   tmpccmrx |= TIM_OCInitStruct->TIM_OCMode;
 853:cmsis/device/stm32f4xx_tim.c ****   
 854:cmsis/device/stm32f4xx_tim.c ****   /* Reset the Output Polarity level */
ARM GAS  C:\Users\CNous\AppData\Local\Temp\ccZi7tDD.s 			page 39


 855:cmsis/device/stm32f4xx_tim.c ****   tmpccer &= (uint16_t)~TIM_CCER_CC3P;
 856:cmsis/device/stm32f4xx_tim.c ****   /* Set the Output Compare Polarity */
 857:cmsis/device/stm32f4xx_tim.c ****   tmpccer |= (uint16_t)(TIM_OCInitStruct->TIM_OCPolarity << 8);
 1188              		.loc 1 857 0
 1189 0006 8D89     		ldrh	r5, [r1, #12]	@, TIM_OCInitStruct_14(D)->TIM_OCPolarity
 858:cmsis/device/stm32f4xx_tim.c ****   
 859:cmsis/device/stm32f4xx_tim.c ****   /* Set the Output State */
 860:cmsis/device/stm32f4xx_tim.c ****   tmpccer |= (uint16_t)(TIM_OCInitStruct->TIM_OutputState << 8);
 1190              		.loc 1 860 0
 1191 0008 4F88     		ldrh	r7, [r1, #2]	@, TIM_OCInitStruct_14(D)->TIM_OutputState
 852:cmsis/device/stm32f4xx_tim.c ****   tmpccmrx |= TIM_OCInitStruct->TIM_OCMode;
 1192              		.loc 1 852 0
 1193 000a 0E88     		ldrh	r6, [r1, #0]	@ tmp177, TIM_OCInitStruct_14(D)->TIM_OCMode
 838:cmsis/device/stm32f4xx_tim.c ****   TIMx->CCER &= (uint16_t)~TIM_CCER_CC3E;
 1194              		.loc 1 838 0
 1195 000c 24F48072 		bic	r2, r4, #256	@ D.7230, TIMx_6(D)->CCER,
 1196 0010 1304     		lsls	r3, r2, #16	@ D.7230, D.7230,
 1197 0012 1C0C     		lsrs	r4, r3, #16	@ D.7230, D.7230,
 1198 0014 0484     		strh	r4, [r0, #32]	@ movhi	@ D.7230, TIMx_6(D)->CCER
 841:cmsis/device/stm32f4xx_tim.c ****   tmpccer = TIMx->CCER;
 1199              		.loc 1 841 0
 1200 0016 028C     		ldrh	r2, [r0, #32]	@, TIMx_6(D)->CCER
 1201              	.LVL120:
 843:cmsis/device/stm32f4xx_tim.c ****   tmpcr2 =  TIMx->CR2;
 1202              		.loc 1 843 0
 1203 0018 8488     		ldrh	r4, [r0, #4]	@, TIMx_6(D)->CR2
 846:cmsis/device/stm32f4xx_tim.c ****   tmpccmrx = TIMx->CCMR2;
 1204              		.loc 1 846 0
 1205 001a 838B     		ldrh	r3, [r0, #28]	@, TIMx_6(D)->CCMR2
 855:cmsis/device/stm32f4xx_tim.c ****   tmpccer &= (uint16_t)~TIM_CCER_CC3P;
 1206              		.loc 1 855 0
 1207 001c 22F40072 		bic	r2, r2, #512	@ tmpccer, TIMx_6(D)->CCER,
 1208              	.LVL121:
 1209 0020 1204     		lsls	r2, r2, #16	@ tmpccer, tmpccer,
 1210 0022 120C     		lsrs	r2, r2, #16	@ tmpccer, tmpccer,
 857:cmsis/device/stm32f4xx_tim.c ****   tmpccer |= (uint16_t)(TIM_OCInitStruct->TIM_OCPolarity << 8);
 1211              		.loc 1 857 0
 1212 0024 42EA0522 		orr	r2, r2, r5, lsl #8	@, tmp182, tmpccer, TIM_OCInitStruct_14(D)->TIM_OCPolarity,
 850:cmsis/device/stm32f4xx_tim.c ****   tmpccmrx &= (uint16_t)~TIM_CCMR2_CC3S;  
 1213              		.loc 1 850 0
 1214 0028 23F07303 		bic	r3, r3, #115	@ tmpccmrx, TIMx_6(D)->CCMR2,
 861:cmsis/device/stm32f4xx_tim.c ****     
 862:cmsis/device/stm32f4xx_tim.c ****   if((TIMx == TIM1) || (TIMx == TIM8))
 1215              		.loc 1 862 0
 1216 002c 0025     		movs	r5, #0	@ tmp187,
 850:cmsis/device/stm32f4xx_tim.c ****   tmpccmrx &= (uint16_t)~TIM_CCMR2_CC3S;  
 1217              		.loc 1 850 0
 1218 002e 1B04     		lsls	r3, r3, #16	@ tmpccmrx, tmpccmrx,
 1219              		.loc 1 862 0
 1220 0030 C4F20105 		movt	r5, 16385	@ tmp187,
 850:cmsis/device/stm32f4xx_tim.c ****   tmpccmrx &= (uint16_t)~TIM_CCMR2_CC3S;  
 1221              		.loc 1 850 0
 1222 0034 1B0C     		lsrs	r3, r3, #16	@ tmpccmrx, tmpccmrx,
 860:cmsis/device/stm32f4xx_tim.c ****   tmpccer |= (uint16_t)(TIM_OCInitStruct->TIM_OutputState << 8);
 1223              		.loc 1 860 0
 1224 0036 42EA0722 		orr	r2, r2, r7, lsl #8	@, tmpccer, tmp182, TIM_OCInitStruct_14(D)->TIM_OutputState,
 1225              		.loc 1 862 0
ARM GAS  C:\Users\CNous\AppData\Local\Temp\ccZi7tDD.s 			page 40


 1226 003a A842     		cmp	r0, r5	@ TIMx, tmp187
 843:cmsis/device/stm32f4xx_tim.c ****   tmpcr2 =  TIMx->CR2;
 1227              		.loc 1 843 0
 1228 003c A4B2     		uxth	r4, r4	@ tmpcr2, TIMx_6(D)->CR2
 1229              	.LVL122:
 852:cmsis/device/stm32f4xx_tim.c ****   tmpccmrx |= TIM_OCInitStruct->TIM_OCMode;
 1230              		.loc 1 852 0
 1231 003e 43EA0603 		orr	r3, r3, r6	@ tmpccmrx, tmpccmrx, tmp177
 1232              	.LVL123:
 860:cmsis/device/stm32f4xx_tim.c ****   tmpccer |= (uint16_t)(TIM_OCInitStruct->TIM_OutputState << 8);
 1233              		.loc 1 860 0
 1234 0042 92B2     		uxth	r2, r2	@ tmpccer, tmpccer
 1235              	.LVL124:
 1236              		.loc 1 862 0
 1237 0044 0DD0     		beq	.L75	@,
 1238              		.loc 1 862 0 is_stmt 0 discriminator 1
 1239 0046 4FF48065 		mov	r5, #1024	@ tmp188,
 1240 004a C4F20105 		movt	r5, 16385	@ tmp188,
 1241 004e A842     		cmp	r0, r5	@ TIMx, tmp188
 1242 0050 07D0     		beq	.L75	@,
 1243              	.LVL125:
 1244              	.L76:
 863:cmsis/device/stm32f4xx_tim.c ****   {
 864:cmsis/device/stm32f4xx_tim.c ****     assert_param(IS_TIM_OUTPUTN_STATE(TIM_OCInitStruct->TIM_OutputNState));
 865:cmsis/device/stm32f4xx_tim.c ****     assert_param(IS_TIM_OCN_POLARITY(TIM_OCInitStruct->TIM_OCNPolarity));
 866:cmsis/device/stm32f4xx_tim.c ****     assert_param(IS_TIM_OCNIDLE_STATE(TIM_OCInitStruct->TIM_OCNIdleState));
 867:cmsis/device/stm32f4xx_tim.c ****     assert_param(IS_TIM_OCIDLE_STATE(TIM_OCInitStruct->TIM_OCIdleState));
 868:cmsis/device/stm32f4xx_tim.c ****     
 869:cmsis/device/stm32f4xx_tim.c ****     /* Reset the Output N Polarity level */
 870:cmsis/device/stm32f4xx_tim.c ****     tmpccer &= (uint16_t)~TIM_CCER_CC3NP;
 871:cmsis/device/stm32f4xx_tim.c ****     /* Set the Output N Polarity */
 872:cmsis/device/stm32f4xx_tim.c ****     tmpccer |= (uint16_t)(TIM_OCInitStruct->TIM_OCNPolarity << 8);
 873:cmsis/device/stm32f4xx_tim.c ****     /* Reset the Output N State */
 874:cmsis/device/stm32f4xx_tim.c ****     tmpccer &= (uint16_t)~TIM_CCER_CC3NE;
 875:cmsis/device/stm32f4xx_tim.c ****     
 876:cmsis/device/stm32f4xx_tim.c ****     /* Set the Output N State */
 877:cmsis/device/stm32f4xx_tim.c ****     tmpccer |= (uint16_t)(TIM_OCInitStruct->TIM_OutputNState << 8);
 878:cmsis/device/stm32f4xx_tim.c ****     /* Reset the Output Compare and Output Compare N IDLE State */
 879:cmsis/device/stm32f4xx_tim.c ****     tmpcr2 &= (uint16_t)~TIM_CR2_OIS3;
 880:cmsis/device/stm32f4xx_tim.c ****     tmpcr2 &= (uint16_t)~TIM_CR2_OIS3N;
 881:cmsis/device/stm32f4xx_tim.c ****     /* Set the Output Idle state */
 882:cmsis/device/stm32f4xx_tim.c ****     tmpcr2 |= (uint16_t)(TIM_OCInitStruct->TIM_OCIdleState << 4);
 883:cmsis/device/stm32f4xx_tim.c ****     /* Set the Output N Idle state */
 884:cmsis/device/stm32f4xx_tim.c ****     tmpcr2 |= (uint16_t)(TIM_OCInitStruct->TIM_OCNIdleState << 4);
 885:cmsis/device/stm32f4xx_tim.c ****   }
 886:cmsis/device/stm32f4xx_tim.c ****   /* Write to TIMx CR2 */
 887:cmsis/device/stm32f4xx_tim.c ****   TIMx->CR2 = tmpcr2;
 888:cmsis/device/stm32f4xx_tim.c ****   
 889:cmsis/device/stm32f4xx_tim.c ****   /* Write to TIMx CCMR2 */
 890:cmsis/device/stm32f4xx_tim.c ****   TIMx->CCMR2 = tmpccmrx;
 891:cmsis/device/stm32f4xx_tim.c ****   
 892:cmsis/device/stm32f4xx_tim.c ****   /* Set the Capture Compare Register value */
 893:cmsis/device/stm32f4xx_tim.c ****   TIMx->CCR3 = TIM_OCInitStruct->TIM_Pulse;
 1245              		.loc 1 893 0 is_stmt 1
 1246 0052 8968     		ldr	r1, [r1, #8]	@ D.7247, TIM_OCInitStruct_14(D)->TIM_Pulse
 1247              	.LVL126:
 887:cmsis/device/stm32f4xx_tim.c ****   TIMx->CR2 = tmpcr2;
ARM GAS  C:\Users\CNous\AppData\Local\Temp\ccZi7tDD.s 			page 41


 1248              		.loc 1 887 0
 1249 0054 8480     		strh	r4, [r0, #4]	@ movhi	@ tmpcr2, TIMx_6(D)->CR2
 890:cmsis/device/stm32f4xx_tim.c ****   TIMx->CCMR2 = tmpccmrx;
 1250              		.loc 1 890 0
 1251 0056 8383     		strh	r3, [r0, #28]	@ movhi	@ tmpccmrx, TIMx_6(D)->CCMR2
 1252              		.loc 1 893 0
 1253 0058 C163     		str	r1, [r0, #60]	@ D.7247, TIMx_6(D)->CCR3
 894:cmsis/device/stm32f4xx_tim.c ****   
 895:cmsis/device/stm32f4xx_tim.c ****   /* Write to TIMx CCER */
 896:cmsis/device/stm32f4xx_tim.c ****   TIMx->CCER = tmpccer;
 1254              		.loc 1 896 0
 1255 005a 0284     		strh	r2, [r0, #32]	@ movhi	@ tmpccer, TIMx_6(D)->CCER
 897:cmsis/device/stm32f4xx_tim.c **** }
 1256              		.loc 1 897 0
 1257 005c BDE8F003 		pop	{r4, r5, r6, r7, r8, r9}
 1258 0060 7047     		bx	lr
 1259              	.LVL127:
 1260              	.L75:
 870:cmsis/device/stm32f4xx_tim.c ****     tmpccer &= (uint16_t)~TIM_CCER_CC3NP;
 1261              		.loc 1 870 0
 1262 0062 4FF2FF76 		movw	r6, #63487	@ tmpccer,
 872:cmsis/device/stm32f4xx_tim.c ****     tmpccer |= (uint16_t)(TIM_OCInitStruct->TIM_OCNPolarity << 8);
 1263              		.loc 1 872 0
 1264 0066 B1F80E90 		ldrh	r9, [r1, #14]	@, TIM_OCInitStruct_14(D)->TIM_OCNPolarity
 882:cmsis/device/stm32f4xx_tim.c ****     tmpcr2 |= (uint16_t)(TIM_OCInitStruct->TIM_OCIdleState << 4);
 1265              		.loc 1 882 0
 1266 006a B1F81080 		ldrh	r8, [r1, #16]	@, TIM_OCInitStruct_14(D)->TIM_OCIdleState
 877:cmsis/device/stm32f4xx_tim.c ****     tmpccer |= (uint16_t)(TIM_OCInitStruct->TIM_OutputNState << 8);
 1267              		.loc 1 877 0
 1268 006e B1F804C0 		ldrh	ip, [r1, #4]	@, TIM_OCInitStruct_14(D)->TIM_OutputNState
 884:cmsis/device/stm32f4xx_tim.c ****     tmpcr2 |= (uint16_t)(TIM_OCInitStruct->TIM_OCNIdleState << 4);
 1269              		.loc 1 884 0
 1270 0072 4F8A     		ldrh	r7, [r1, #18]	@, TIM_OCInitStruct_14(D)->TIM_OCNIdleState
 870:cmsis/device/stm32f4xx_tim.c ****     tmpccer &= (uint16_t)~TIM_CCER_CC3NP;
 1271              		.loc 1 870 0
 1272 0074 1640     		ands	r6, r6, r2	@, tmpccer, tmpccer, tmpccer
 1273              	.LVL128:
 880:cmsis/device/stm32f4xx_tim.c ****     tmpcr2 &= (uint16_t)~TIM_CR2_OIS3N;
 1274              		.loc 1 880 0
 1275 0076 4CF6FF75 		movw	r5, #53247	@ tmpcr2,
 1276 007a 2540     		ands	r5, r5, r4	@, tmpcr2, tmpcr2, tmpcr2
 872:cmsis/device/stm32f4xx_tim.c ****     tmpccer |= (uint16_t)(TIM_OCInitStruct->TIM_OCNPolarity << 8);
 1277              		.loc 1 872 0
 1278 007c 46EA0926 		orr	r6, r6, r9, lsl #8	@, tmp193, tmpccer, TIM_OCInitStruct_14(D)->TIM_OCNPolarity,
 1279              	.LVL129:
 874:cmsis/device/stm32f4xx_tim.c ****     tmpccer &= (uint16_t)~TIM_CCER_CC3NE;
 1280              		.loc 1 874 0
 1281 0080 4FF6FF32 		movw	r2, #64511	@ tmpccer,
 1282 0084 3240     		ands	r2, r2, r6	@, tmpccer, tmpccer, tmp193
 1283              	.LVL130:
 882:cmsis/device/stm32f4xx_tim.c ****     tmpcr2 |= (uint16_t)(TIM_OCInitStruct->TIM_OCIdleState << 4);
 1284              		.loc 1 882 0
 1285 0086 45EA0814 		orr	r4, r5, r8, lsl #4	@, tmp203, tmpcr2, TIM_OCInitStruct_14(D)->TIM_OCIdleState,
 1286              	.LVL131:
 877:cmsis/device/stm32f4xx_tim.c ****     tmpccer |= (uint16_t)(TIM_OCInitStruct->TIM_OutputNState << 8);
 1287              		.loc 1 877 0
 1288 008a 42EA0C22 		orr	r2, r2, ip, lsl #8	@, tmp198, tmpccer, TIM_OCInitStruct_14(D)->TIM_OutputNState,
ARM GAS  C:\Users\CNous\AppData\Local\Temp\ccZi7tDD.s 			page 42


 1289              	.LVL132:
 884:cmsis/device/stm32f4xx_tim.c ****     tmpcr2 |= (uint16_t)(TIM_OCInitStruct->TIM_OCNIdleState << 4);
 1290              		.loc 1 884 0
 1291 008e 44EA0714 		orr	r4, r4, r7, lsl #4	@, tmpcr2, tmp203, TIM_OCInitStruct_14(D)->TIM_OCNIdleState,
 877:cmsis/device/stm32f4xx_tim.c ****     tmpccer |= (uint16_t)(TIM_OCInitStruct->TIM_OutputNState << 8);
 1292              		.loc 1 877 0
 1293 0092 92B2     		uxth	r2, r2	@ tmpccer, tmp198
 1294              	.LVL133:
 884:cmsis/device/stm32f4xx_tim.c ****     tmpcr2 |= (uint16_t)(TIM_OCInitStruct->TIM_OCNIdleState << 4);
 1295              		.loc 1 884 0
 1296 0094 A4B2     		uxth	r4, r4	@ tmpcr2, tmpcr2
 1297              	.LVL134:
 1298 0096 DCE7     		b	.L76	@
 1299              		.cfi_endproc
 1300              	.LFE127:
 1301              		.size	TIM_OC3Init, .-TIM_OC3Init
 1302              		.section	.text.TIM_OC4Init,"ax",%progbits
 1303              		.align	2
 1304              		.global	TIM_OC4Init
 1305              		.thumb
 1306              		.thumb_func
 1307              		.type	TIM_OC4Init, %function
 1308              	TIM_OC4Init:
 1309              	.LFB128:
 898:cmsis/device/stm32f4xx_tim.c **** 
 899:cmsis/device/stm32f4xx_tim.c **** /**
 900:cmsis/device/stm32f4xx_tim.c ****   * @brief  Initializes the TIMx Channel4 according to the specified parameters
 901:cmsis/device/stm32f4xx_tim.c ****   *         in the TIM_OCInitStruct.
 902:cmsis/device/stm32f4xx_tim.c ****   * @param  TIMx: where x can be 1, 2, 3, 4, 5 or 8 to select the TIM peripheral.
 903:cmsis/device/stm32f4xx_tim.c ****   * @param  TIM_OCInitStruct: pointer to a TIM_OCInitTypeDef structure that contains
 904:cmsis/device/stm32f4xx_tim.c ****   *         the configuration information for the specified TIM peripheral.
 905:cmsis/device/stm32f4xx_tim.c ****   * @retval None
 906:cmsis/device/stm32f4xx_tim.c ****   */
 907:cmsis/device/stm32f4xx_tim.c **** void TIM_OC4Init(TIM_TypeDef* TIMx, TIM_OCInitTypeDef* TIM_OCInitStruct)
 908:cmsis/device/stm32f4xx_tim.c **** {
 1310              		.loc 1 908 0
 1311              		.cfi_startproc
 1312              		@ args = 0, pretend = 0, frame = 0
 1313              		@ frame_needed = 0, uses_anonymous_args = 0
 1314              		@ link register save eliminated.
 1315              	.LVL135:
 1316 0000 F0B4     		push	{r4, r5, r6, r7}	@
 1317              	.LCFI5:
 1318              		.cfi_def_cfa_offset 16
 1319              		.cfi_offset 4, -16
 1320              		.cfi_offset 5, -12
 1321              		.cfi_offset 6, -8
 1322              		.cfi_offset 7, -4
 909:cmsis/device/stm32f4xx_tim.c ****   uint16_t tmpccmrx = 0, tmpccer = 0, tmpcr2 = 0;
 910:cmsis/device/stm32f4xx_tim.c ****    
 911:cmsis/device/stm32f4xx_tim.c ****   /* Check the parameters */
 912:cmsis/device/stm32f4xx_tim.c ****   assert_param(IS_TIM_LIST3_PERIPH(TIMx)); 
 913:cmsis/device/stm32f4xx_tim.c ****   assert_param(IS_TIM_OC_MODE(TIM_OCInitStruct->TIM_OCMode));
 914:cmsis/device/stm32f4xx_tim.c ****   assert_param(IS_TIM_OUTPUT_STATE(TIM_OCInitStruct->TIM_OutputState));
 915:cmsis/device/stm32f4xx_tim.c ****   assert_param(IS_TIM_OC_POLARITY(TIM_OCInitStruct->TIM_OCPolarity));   
 916:cmsis/device/stm32f4xx_tim.c **** 
 917:cmsis/device/stm32f4xx_tim.c ****   /* Disable the Channel 4: Reset the CC4E Bit */
ARM GAS  C:\Users\CNous\AppData\Local\Temp\ccZi7tDD.s 			page 43


 918:cmsis/device/stm32f4xx_tim.c ****   TIMx->CCER &= (uint16_t)~TIM_CCER_CC4E;
 1323              		.loc 1 918 0
 1324 0002 048C     		ldrh	r4, [r0, #32]	@, TIMx_5(D)->CCER
 919:cmsis/device/stm32f4xx_tim.c ****   
 920:cmsis/device/stm32f4xx_tim.c ****   /* Get the TIMx CCER register value */
 921:cmsis/device/stm32f4xx_tim.c ****   tmpccer = TIMx->CCER;
 922:cmsis/device/stm32f4xx_tim.c ****   /* Get the TIMx CR2 register value */
 923:cmsis/device/stm32f4xx_tim.c ****   tmpcr2 =  TIMx->CR2;
 924:cmsis/device/stm32f4xx_tim.c ****   
 925:cmsis/device/stm32f4xx_tim.c ****   /* Get the TIMx CCMR2 register value */
 926:cmsis/device/stm32f4xx_tim.c ****   tmpccmrx = TIMx->CCMR2;
 927:cmsis/device/stm32f4xx_tim.c ****     
 928:cmsis/device/stm32f4xx_tim.c ****   /* Reset the Output Compare mode and Capture/Compare selection Bits */
 929:cmsis/device/stm32f4xx_tim.c ****   tmpccmrx &= (uint16_t)~TIM_CCMR2_OC4M;
 930:cmsis/device/stm32f4xx_tim.c ****   tmpccmrx &= (uint16_t)~TIM_CCMR2_CC4S;
 931:cmsis/device/stm32f4xx_tim.c ****   
 932:cmsis/device/stm32f4xx_tim.c ****   /* Select the Output Compare Mode */
 933:cmsis/device/stm32f4xx_tim.c ****   tmpccmrx |= (uint16_t)(TIM_OCInitStruct->TIM_OCMode << 8);
 934:cmsis/device/stm32f4xx_tim.c ****   
 935:cmsis/device/stm32f4xx_tim.c ****   /* Reset the Output Polarity level */
 936:cmsis/device/stm32f4xx_tim.c ****   tmpccer &= (uint16_t)~TIM_CCER_CC4P;
 937:cmsis/device/stm32f4xx_tim.c ****   /* Set the Output Compare Polarity */
 938:cmsis/device/stm32f4xx_tim.c ****   tmpccer |= (uint16_t)(TIM_OCInitStruct->TIM_OCPolarity << 12);
 1325              		.loc 1 938 0
 1326 0004 B1F80CC0 		ldrh	ip, [r1, #12]	@, TIM_OCInitStruct_13(D)->TIM_OCPolarity
 933:cmsis/device/stm32f4xx_tim.c ****   tmpccmrx |= (uint16_t)(TIM_OCInitStruct->TIM_OCMode << 8);
 1327              		.loc 1 933 0
 1328 0008 0F88     		ldrh	r7, [r1, #0]	@, TIM_OCInitStruct_13(D)->TIM_OCMode
 939:cmsis/device/stm32f4xx_tim.c ****   
 940:cmsis/device/stm32f4xx_tim.c ****   /* Set the Output State */
 941:cmsis/device/stm32f4xx_tim.c ****   tmpccer |= (uint16_t)(TIM_OCInitStruct->TIM_OutputState << 12);
 1329              		.loc 1 941 0
 1330 000a 4E88     		ldrh	r6, [r1, #2]	@, TIM_OCInitStruct_13(D)->TIM_OutputState
 918:cmsis/device/stm32f4xx_tim.c ****   TIMx->CCER &= (uint16_t)~TIM_CCER_CC4E;
 1331              		.loc 1 918 0
 1332 000c 24F48052 		bic	r2, r4, #4096	@ D.7216, TIMx_5(D)->CCER,
 1333 0010 1304     		lsls	r3, r2, #16	@ D.7216, D.7216,
 1334 0012 1D0C     		lsrs	r5, r3, #16	@ D.7216, D.7216,
 1335 0014 0584     		strh	r5, [r0, #32]	@ movhi	@ D.7216, TIMx_5(D)->CCER
 921:cmsis/device/stm32f4xx_tim.c ****   tmpccer = TIMx->CCER;
 1336              		.loc 1 921 0
 1337 0016 048C     		ldrh	r4, [r0, #32]	@, TIMx_5(D)->CCER
 1338              	.LVL136:
 923:cmsis/device/stm32f4xx_tim.c ****   tmpcr2 =  TIMx->CR2;
 1339              		.loc 1 923 0
 1340 0018 8588     		ldrh	r5, [r0, #4]	@, TIMx_5(D)->CR2
 926:cmsis/device/stm32f4xx_tim.c ****   tmpccmrx = TIMx->CCMR2;
 1341              		.loc 1 926 0
 1342 001a 838B     		ldrh	r3, [r0, #28]	@, TIMx_5(D)->CCMR2
 936:cmsis/device/stm32f4xx_tim.c ****   tmpccer &= (uint16_t)~TIM_CCER_CC4P;
 1343              		.loc 1 936 0
 1344 001c 24F40052 		bic	r2, r4, #8192	@ tmpccer, TIMx_5(D)->CCER,
 1345 0020 1204     		lsls	r2, r2, #16	@ tmpccer, tmpccer,
 930:cmsis/device/stm32f4xx_tim.c ****   tmpccmrx &= (uint16_t)~TIM_CCMR2_CC4S;
 1346              		.loc 1 930 0
 1347 0022 23F4E644 		bic	r4, r3, #29440	@ tmpccmrx, TIMx_5(D)->CCMR2,
 1348              	.LVL137:
ARM GAS  C:\Users\CNous\AppData\Local\Temp\ccZi7tDD.s 			page 44


 1349 0026 2304     		lsls	r3, r4, #16	@ tmpccmrx, tmpccmrx,
 936:cmsis/device/stm32f4xx_tim.c ****   tmpccer &= (uint16_t)~TIM_CCER_CC4P;
 1350              		.loc 1 936 0
 1351 0028 140C     		lsrs	r4, r2, #16	@ tmpccer, tmpccer,
 938:cmsis/device/stm32f4xx_tim.c ****   tmpccer |= (uint16_t)(TIM_OCInitStruct->TIM_OCPolarity << 12);
 1352              		.loc 1 938 0
 1353 002a 44EA0C32 		orr	r2, r4, ip, lsl #12	@, tmp175, tmpccer, TIM_OCInitStruct_13(D)->TIM_OCPolarity,
 942:cmsis/device/stm32f4xx_tim.c ****   
 943:cmsis/device/stm32f4xx_tim.c ****   if((TIMx == TIM1) || (TIMx == TIM8))
 1354              		.loc 1 943 0
 1355 002e 0024     		movs	r4, #0	@ tmp180,
 930:cmsis/device/stm32f4xx_tim.c ****   tmpccmrx &= (uint16_t)~TIM_CCMR2_CC4S;
 1356              		.loc 1 930 0
 1357 0030 1B0C     		lsrs	r3, r3, #16	@ tmpccmrx, tmpccmrx,
 1358              		.loc 1 943 0
 1359 0032 C4F20104 		movt	r4, 16385	@ tmp180,
 933:cmsis/device/stm32f4xx_tim.c ****   tmpccmrx |= (uint16_t)(TIM_OCInitStruct->TIM_OCMode << 8);
 1360              		.loc 1 933 0
 1361 0036 43EA0723 		orr	r3, r3, r7, lsl #8	@, tmp170, tmpccmrx, TIM_OCInitStruct_13(D)->TIM_OCMode,
 941:cmsis/device/stm32f4xx_tim.c ****   tmpccer |= (uint16_t)(TIM_OCInitStruct->TIM_OutputState << 12);
 1362              		.loc 1 941 0
 1363 003a 42EA0632 		orr	r2, r2, r6, lsl #12	@, tmpccer, tmp175, TIM_OCInitStruct_13(D)->TIM_OutputState,
 1364              		.loc 1 943 0
 1365 003e A042     		cmp	r0, r4	@ TIMx, tmp180
 923:cmsis/device/stm32f4xx_tim.c ****   tmpcr2 =  TIMx->CR2;
 1366              		.loc 1 923 0
 1367 0040 ADB2     		uxth	r5, r5	@ tmpcr2, TIMx_5(D)->CR2
 1368              	.LVL138:
 933:cmsis/device/stm32f4xx_tim.c ****   tmpccmrx |= (uint16_t)(TIM_OCInitStruct->TIM_OCMode << 8);
 1369              		.loc 1 933 0
 1370 0042 9BB2     		uxth	r3, r3	@ tmpccmrx, tmp170
 1371              	.LVL139:
 941:cmsis/device/stm32f4xx_tim.c ****   tmpccer |= (uint16_t)(TIM_OCInitStruct->TIM_OutputState << 12);
 1372              		.loc 1 941 0
 1373 0044 92B2     		uxth	r2, r2	@ tmpccer, tmpccer
 1374              	.LVL140:
 1375              		.loc 1 943 0
 1376 0046 0CD0     		beq	.L78	@,
 1377              		.loc 1 943 0 is_stmt 0 discriminator 1
 1378 0048 4FF48064 		mov	r4, #1024	@ tmp181,
 1379 004c C4F20104 		movt	r4, 16385	@ tmp181,
 1380 0050 A042     		cmp	r0, r4	@ TIMx, tmp181
 1381 0052 06D0     		beq	.L78	@,
 1382              	.LVL141:
 1383              	.L79:
 944:cmsis/device/stm32f4xx_tim.c ****   {
 945:cmsis/device/stm32f4xx_tim.c ****     assert_param(IS_TIM_OCIDLE_STATE(TIM_OCInitStruct->TIM_OCIdleState));
 946:cmsis/device/stm32f4xx_tim.c ****     /* Reset the Output Compare IDLE State */
 947:cmsis/device/stm32f4xx_tim.c ****     tmpcr2 &=(uint16_t) ~TIM_CR2_OIS4;
 948:cmsis/device/stm32f4xx_tim.c ****     /* Set the Output Idle state */
 949:cmsis/device/stm32f4xx_tim.c ****     tmpcr2 |= (uint16_t)(TIM_OCInitStruct->TIM_OCIdleState << 6);
 950:cmsis/device/stm32f4xx_tim.c ****   }
 951:cmsis/device/stm32f4xx_tim.c ****   /* Write to TIMx CR2 */
 952:cmsis/device/stm32f4xx_tim.c ****   TIMx->CR2 = tmpcr2;
 953:cmsis/device/stm32f4xx_tim.c ****   
 954:cmsis/device/stm32f4xx_tim.c ****   /* Write to TIMx CCMR2 */  
 955:cmsis/device/stm32f4xx_tim.c ****   TIMx->CCMR2 = tmpccmrx;
ARM GAS  C:\Users\CNous\AppData\Local\Temp\ccZi7tDD.s 			page 45


 956:cmsis/device/stm32f4xx_tim.c ****     
 957:cmsis/device/stm32f4xx_tim.c ****   /* Set the Capture Compare Register value */
 958:cmsis/device/stm32f4xx_tim.c ****   TIMx->CCR4 = TIM_OCInitStruct->TIM_Pulse;
 1384              		.loc 1 958 0 is_stmt 1
 1385 0054 8968     		ldr	r1, [r1, #8]	@ D.7228, TIM_OCInitStruct_13(D)->TIM_Pulse
 1386              	.LVL142:
 952:cmsis/device/stm32f4xx_tim.c ****   TIMx->CR2 = tmpcr2;
 1387              		.loc 1 952 0
 1388 0056 8580     		strh	r5, [r0, #4]	@ movhi	@ tmpcr2, TIMx_5(D)->CR2
 955:cmsis/device/stm32f4xx_tim.c ****   TIMx->CCMR2 = tmpccmrx;
 1389              		.loc 1 955 0
 1390 0058 8383     		strh	r3, [r0, #28]	@ movhi	@ tmpccmrx, TIMx_5(D)->CCMR2
 1391              		.loc 1 958 0
 1392 005a 0164     		str	r1, [r0, #64]	@ D.7228, TIMx_5(D)->CCR4
 959:cmsis/device/stm32f4xx_tim.c ****   
 960:cmsis/device/stm32f4xx_tim.c ****   /* Write to TIMx CCER */
 961:cmsis/device/stm32f4xx_tim.c ****   TIMx->CCER = tmpccer;
 1393              		.loc 1 961 0
 1394 005c 0284     		strh	r2, [r0, #32]	@ movhi	@ tmpccer, TIMx_5(D)->CCER
 962:cmsis/device/stm32f4xx_tim.c **** }
 1395              		.loc 1 962 0
 1396 005e F0BC     		pop	{r4, r5, r6, r7}
 1397 0060 7047     		bx	lr
 1398              	.LVL143:
 1399              	.L78:
 947:cmsis/device/stm32f4xx_tim.c ****     tmpcr2 &=(uint16_t) ~TIM_CR2_OIS4;
 1400              		.loc 1 947 0
 1401 0062 4BF6FF74 		movw	r4, #49151	@ tmpcr2,
 949:cmsis/device/stm32f4xx_tim.c ****     tmpcr2 |= (uint16_t)(TIM_OCInitStruct->TIM_OCIdleState << 6);
 1402              		.loc 1 949 0
 1403 0066 0E8A     		ldrh	r6, [r1, #16]	@, TIM_OCInitStruct_13(D)->TIM_OCIdleState
 947:cmsis/device/stm32f4xx_tim.c ****     tmpcr2 &=(uint16_t) ~TIM_CR2_OIS4;
 1404              		.loc 1 947 0
 1405 0068 2C40     		ands	r4, r4, r5	@, tmpcr2, tmpcr2, tmpcr2
 1406              	.LVL144:
 949:cmsis/device/stm32f4xx_tim.c ****     tmpcr2 |= (uint16_t)(TIM_OCInitStruct->TIM_OCIdleState << 6);
 1407              		.loc 1 949 0
 1408 006a 44EA8615 		orr	r5, r4, r6, lsl #6	@, tmp186, tmpcr2, TIM_OCInitStruct_13(D)->TIM_OCIdleState,
 1409 006e ADB2     		uxth	r5, r5	@ tmpcr2, tmp186
 1410              	.LVL145:
 1411 0070 F0E7     		b	.L79	@
 1412              		.cfi_endproc
 1413              	.LFE128:
 1414              		.size	TIM_OC4Init, .-TIM_OC4Init
 1415 0072 00BF     		.section	.text.TIM_OCStructInit,"ax",%progbits
 1416              		.align	2
 1417              		.global	TIM_OCStructInit
 1418              		.thumb
 1419              		.thumb_func
 1420              		.type	TIM_OCStructInit, %function
 1421              	TIM_OCStructInit:
 1422              	.LFB129:
 963:cmsis/device/stm32f4xx_tim.c **** 
 964:cmsis/device/stm32f4xx_tim.c **** /**
 965:cmsis/device/stm32f4xx_tim.c ****   * @brief  Fills each TIM_OCInitStruct member with its default value.
 966:cmsis/device/stm32f4xx_tim.c ****   * @param  TIM_OCInitStruct: pointer to a TIM_OCInitTypeDef structure which will
 967:cmsis/device/stm32f4xx_tim.c ****   *         be initialized.
ARM GAS  C:\Users\CNous\AppData\Local\Temp\ccZi7tDD.s 			page 46


 968:cmsis/device/stm32f4xx_tim.c ****   * @retval None
 969:cmsis/device/stm32f4xx_tim.c ****   */
 970:cmsis/device/stm32f4xx_tim.c **** void TIM_OCStructInit(TIM_OCInitTypeDef* TIM_OCInitStruct)
 971:cmsis/device/stm32f4xx_tim.c **** {
 1423              		.loc 1 971 0
 1424              		.cfi_startproc
 1425              		@ args = 0, pretend = 0, frame = 0
 1426              		@ frame_needed = 0, uses_anonymous_args = 0
 1427              		@ link register save eliminated.
 1428              	.LVL146:
 972:cmsis/device/stm32f4xx_tim.c ****   /* Set the default configuration */
 973:cmsis/device/stm32f4xx_tim.c ****   TIM_OCInitStruct->TIM_OCMode = TIM_OCMode_Timing;
 1429              		.loc 1 973 0
 1430 0000 0023     		movs	r3, #0	@ tmp136,
 1431 0002 0380     		strh	r3, [r0, #0]	@ movhi	@ tmp136, TIM_OCInitStruct_1(D)->TIM_OCMode
 974:cmsis/device/stm32f4xx_tim.c ****   TIM_OCInitStruct->TIM_OutputState = TIM_OutputState_Disable;
 1432              		.loc 1 974 0
 1433 0004 4380     		strh	r3, [r0, #2]	@ movhi	@ tmp136, TIM_OCInitStruct_1(D)->TIM_OutputState
 975:cmsis/device/stm32f4xx_tim.c ****   TIM_OCInitStruct->TIM_OutputNState = TIM_OutputNState_Disable;
 1434              		.loc 1 975 0
 1435 0006 8380     		strh	r3, [r0, #4]	@ movhi	@ tmp136, TIM_OCInitStruct_1(D)->TIM_OutputNState
 976:cmsis/device/stm32f4xx_tim.c ****   TIM_OCInitStruct->TIM_Pulse = 0x00000000;
 1436              		.loc 1 976 0
 1437 0008 8360     		str	r3, [r0, #8]	@ tmp136, TIM_OCInitStruct_1(D)->TIM_Pulse
 977:cmsis/device/stm32f4xx_tim.c ****   TIM_OCInitStruct->TIM_OCPolarity = TIM_OCPolarity_High;
 1438              		.loc 1 977 0
 1439 000a 8381     		strh	r3, [r0, #12]	@ movhi	@ tmp136, TIM_OCInitStruct_1(D)->TIM_OCPolarity
 978:cmsis/device/stm32f4xx_tim.c ****   TIM_OCInitStruct->TIM_OCNPolarity = TIM_OCPolarity_High;
 1440              		.loc 1 978 0
 1441 000c C381     		strh	r3, [r0, #14]	@ movhi	@ tmp136, TIM_OCInitStruct_1(D)->TIM_OCNPolarity
 979:cmsis/device/stm32f4xx_tim.c ****   TIM_OCInitStruct->TIM_OCIdleState = TIM_OCIdleState_Reset;
 1442              		.loc 1 979 0
 1443 000e 0382     		strh	r3, [r0, #16]	@ movhi	@ tmp136, TIM_OCInitStruct_1(D)->TIM_OCIdleState
 980:cmsis/device/stm32f4xx_tim.c ****   TIM_OCInitStruct->TIM_OCNIdleState = TIM_OCNIdleState_Reset;
 1444              		.loc 1 980 0
 1445 0010 4382     		strh	r3, [r0, #18]	@ movhi	@ tmp136, TIM_OCInitStruct_1(D)->TIM_OCNIdleState
 1446 0012 7047     		bx	lr	@
 1447              		.cfi_endproc
 1448              	.LFE129:
 1449              		.size	TIM_OCStructInit, .-TIM_OCStructInit
 1450              		.section	.text.TIM_SelectOCxM,"ax",%progbits
 1451              		.align	2
 1452              		.global	TIM_SelectOCxM
 1453              		.thumb
 1454              		.thumb_func
 1455              		.type	TIM_SelectOCxM, %function
 1456              	TIM_SelectOCxM:
 1457              	.LFB130:
 981:cmsis/device/stm32f4xx_tim.c **** }
 982:cmsis/device/stm32f4xx_tim.c **** 
 983:cmsis/device/stm32f4xx_tim.c **** /**
 984:cmsis/device/stm32f4xx_tim.c ****   * @brief  Selects the TIM Output Compare Mode.
 985:cmsis/device/stm32f4xx_tim.c ****   * @note   This function disables the selected channel before changing the Output
 986:cmsis/device/stm32f4xx_tim.c ****   *         Compare Mode. If needed, user has to enable this channel using
 987:cmsis/device/stm32f4xx_tim.c ****   *         TIM_CCxCmd() and TIM_CCxNCmd() functions.
 988:cmsis/device/stm32f4xx_tim.c ****   * @param  TIMx: where x can be 1 to 14 except 6 and 7, to select the TIM peripheral.
 989:cmsis/device/stm32f4xx_tim.c ****   * @param  TIM_Channel: specifies the TIM Channel
ARM GAS  C:\Users\CNous\AppData\Local\Temp\ccZi7tDD.s 			page 47


 990:cmsis/device/stm32f4xx_tim.c ****   *          This parameter can be one of the following values:
 991:cmsis/device/stm32f4xx_tim.c ****   *            @arg TIM_Channel_1: TIM Channel 1
 992:cmsis/device/stm32f4xx_tim.c ****   *            @arg TIM_Channel_2: TIM Channel 2
 993:cmsis/device/stm32f4xx_tim.c ****   *            @arg TIM_Channel_3: TIM Channel 3
 994:cmsis/device/stm32f4xx_tim.c ****   *            @arg TIM_Channel_4: TIM Channel 4
 995:cmsis/device/stm32f4xx_tim.c ****   * @param  TIM_OCMode: specifies the TIM Output Compare Mode.
 996:cmsis/device/stm32f4xx_tim.c ****   *           This parameter can be one of the following values:
 997:cmsis/device/stm32f4xx_tim.c ****   *            @arg TIM_OCMode_Timing
 998:cmsis/device/stm32f4xx_tim.c ****   *            @arg TIM_OCMode_Active
 999:cmsis/device/stm32f4xx_tim.c ****   *            @arg TIM_OCMode_Toggle
1000:cmsis/device/stm32f4xx_tim.c ****   *            @arg TIM_OCMode_PWM1
1001:cmsis/device/stm32f4xx_tim.c ****   *            @arg TIM_OCMode_PWM2
1002:cmsis/device/stm32f4xx_tim.c ****   *            @arg TIM_ForcedAction_Active
1003:cmsis/device/stm32f4xx_tim.c ****   *            @arg TIM_ForcedAction_InActive
1004:cmsis/device/stm32f4xx_tim.c ****   * @retval None
1005:cmsis/device/stm32f4xx_tim.c ****   */
1006:cmsis/device/stm32f4xx_tim.c **** void TIM_SelectOCxM(TIM_TypeDef* TIMx, uint16_t TIM_Channel, uint16_t TIM_OCMode)
1007:cmsis/device/stm32f4xx_tim.c **** {
 1458              		.loc 1 1007 0
 1459              		.cfi_startproc
 1460              		@ args = 0, pretend = 0, frame = 0
 1461              		@ frame_needed = 0, uses_anonymous_args = 0
 1462              		@ link register save eliminated.
 1463              	.LVL147:
1008:cmsis/device/stm32f4xx_tim.c ****   uint32_t tmp = 0;
1009:cmsis/device/stm32f4xx_tim.c ****   uint16_t tmp1 = 0;
1010:cmsis/device/stm32f4xx_tim.c **** 
1011:cmsis/device/stm32f4xx_tim.c ****   /* Check the parameters */
1012:cmsis/device/stm32f4xx_tim.c ****   assert_param(IS_TIM_LIST1_PERIPH(TIMx));
1013:cmsis/device/stm32f4xx_tim.c ****   assert_param(IS_TIM_CHANNEL(TIM_Channel));
1014:cmsis/device/stm32f4xx_tim.c ****   assert_param(IS_TIM_OCM(TIM_OCMode));
1015:cmsis/device/stm32f4xx_tim.c **** 
1016:cmsis/device/stm32f4xx_tim.c ****   tmp = (uint32_t) TIMx;
1017:cmsis/device/stm32f4xx_tim.c ****   tmp += CCMR_OFFSET;
1018:cmsis/device/stm32f4xx_tim.c **** 
1019:cmsis/device/stm32f4xx_tim.c ****   tmp1 = CCER_CCE_SET << (uint16_t)TIM_Channel;
1020:cmsis/device/stm32f4xx_tim.c **** 
1021:cmsis/device/stm32f4xx_tim.c ****   /* Disable the Channel: Reset the CCxE Bit */
1022:cmsis/device/stm32f4xx_tim.c ****   TIMx->CCER &= (uint16_t) ~tmp1;
 1464              		.loc 1 1022 0
 1465 0000 038C     		ldrh	r3, [r0, #32]	@, TIMx_3(D)->CCER
1007:cmsis/device/stm32f4xx_tim.c **** {
 1466              		.loc 1 1007 0
 1467 0002 10B4     		push	{r4}	@
 1468              	.LCFI6:
 1469              		.cfi_def_cfa_offset 4
 1470              		.cfi_offset 4, -4
1019:cmsis/device/stm32f4xx_tim.c ****   tmp1 = CCER_CCE_SET << (uint16_t)TIM_Channel;
 1471              		.loc 1 1019 0
 1472 0004 0124     		movs	r4, #1	@ tmp168,
 1473              		.loc 1 1022 0
 1474 0006 9BB2     		uxth	r3, r3	@ D.7191, TIMx_3(D)->CCER
1019:cmsis/device/stm32f4xx_tim.c ****   tmp1 = CCER_CCE_SET << (uint16_t)TIM_Channel;
 1475              		.loc 1 1019 0
 1476 0008 04FA01F4 		lsl	r4, r4, r1	@ tmp167, tmp168, TIM_Channel
 1477              		.loc 1 1022 0
 1478 000c 23EA0404 		bic	r4, r3, r4	@ D.7193, D.7191, tmp167
ARM GAS  C:\Users\CNous\AppData\Local\Temp\ccZi7tDD.s 			page 48


 1479 0010 0484     		strh	r4, [r0, #32]	@ movhi	@ D.7193, TIMx_3(D)->CCER
1017:cmsis/device/stm32f4xx_tim.c ****   tmp += CCMR_OFFSET;
 1480              		.loc 1 1017 0
 1481 0012 00F11803 		add	r3, r0, #24	@ tmp, TIMx,
 1482              	.LVL148:
1023:cmsis/device/stm32f4xx_tim.c **** 
1024:cmsis/device/stm32f4xx_tim.c ****   if((TIM_Channel == TIM_Channel_1) ||(TIM_Channel == TIM_Channel_3))
 1483              		.loc 1 1024 0
 1484 0016 79B1     		cbz	r1, .L82	@ TIM_Channel,
 1485              		.loc 1 1024 0 is_stmt 0 discriminator 1
 1486 0018 0829     		cmp	r1, #8	@ TIM_Channel,
 1487 001a 0DD0     		beq	.L82	@,
 1488              	.LVL149:
1025:cmsis/device/stm32f4xx_tim.c ****   {
1026:cmsis/device/stm32f4xx_tim.c ****     tmp += (TIM_Channel>>1);
1027:cmsis/device/stm32f4xx_tim.c **** 
1028:cmsis/device/stm32f4xx_tim.c ****     /* Reset the OCxM bits in the CCMRx register */
1029:cmsis/device/stm32f4xx_tim.c ****     *(__IO uint32_t *) tmp &= CCMR_OC13M_MASK;
1030:cmsis/device/stm32f4xx_tim.c ****    
1031:cmsis/device/stm32f4xx_tim.c ****     /* Configure the OCxM bits in the CCMRx register */
1032:cmsis/device/stm32f4xx_tim.c ****     *(__IO uint32_t *) tmp |= TIM_OCMode;
1033:cmsis/device/stm32f4xx_tim.c ****   }
1034:cmsis/device/stm32f4xx_tim.c ****   else
1035:cmsis/device/stm32f4xx_tim.c ****   {
1036:cmsis/device/stm32f4xx_tim.c ****     tmp += (uint16_t)(TIM_Channel - (uint16_t)4)>> (uint16_t)1;
 1489              		.loc 1 1036 0 is_stmt 1
 1490 001c 0439     		subs	r1, r1, #4	@ tmp177, TIM_Channel,
 1491              	.LVL150:
 1492 001e C1F34E01 		ubfx	r1, r1, #1, #15	@ tmp180, tmp177,,
 1493              	.LVL151:
1037:cmsis/device/stm32f4xx_tim.c **** 
1038:cmsis/device/stm32f4xx_tim.c ****     /* Reset the OCxM bits in the CCMRx register */
1039:cmsis/device/stm32f4xx_tim.c ****     *(__IO uint32_t *) tmp &= CCMR_OC24M_MASK;
 1494              		.loc 1 1039 0
 1495 0022 48F6FF70 		movw	r0, #36863	@ D.7210,
 1496              	.LVL152:
 1497 0026 CC58     		ldr	r4, [r1, r3]	@ D.7209, *tmp.0_18
 1498 0028 2040     		ands	r0, r0, r4	@, D.7210, D.7210, D.7209
 1499 002a C850     		str	r0, [r1, r3]	@ D.7210, *tmp.0_18
1040:cmsis/device/stm32f4xx_tim.c ****     
1041:cmsis/device/stm32f4xx_tim.c ****     /* Configure the OCxM bits in the CCMRx register */
1042:cmsis/device/stm32f4xx_tim.c ****     *(__IO uint32_t *) tmp |= (uint16_t)(TIM_OCMode << 8);
 1500              		.loc 1 1042 0
 1501 002c 1202     		lsls	r2, r2, #8	@ tmp182, TIM_OCMode,
 1502              	.LVL153:
 1503 002e C858     		ldr	r0, [r1, r3]	@ D.7211, *tmp.0_18
 1504 0030 92B2     		uxth	r2, r2	@ tmp183, tmp182
 1505 0032 1043     		orrs	r0, r0, r2	@, D.7214, D.7211, tmp183
 1506 0034 C850     		str	r0, [r1, r3]	@ D.7214,* tmp
 1507 0036 08E0     		b	.L81	@
 1508              	.LVL154:
 1509              	.L82:
1026:cmsis/device/stm32f4xx_tim.c ****     tmp += (TIM_Channel>>1);
 1510              		.loc 1 1026 0
 1511 0038 4908     		lsrs	r1, r1, #1	@ tmp175, TIM_Channel,
 1512              	.LVL155:
1029:cmsis/device/stm32f4xx_tim.c ****     *(__IO uint32_t *) tmp &= CCMR_OC13M_MASK;
ARM GAS  C:\Users\CNous\AppData\Local\Temp\ccZi7tDD.s 			page 49


 1513              		.loc 1 1029 0
 1514 003a 4FF68F70 		movw	r0, #65423	@ D.7202,
 1515              	.LVL156:
 1516 003e CC58     		ldr	r4, [r1, r3]	@ D.7201, *tmp.0_32
 1517 0040 2040     		ands	r0, r0, r4	@, D.7202, D.7202, D.7201
 1518 0042 C850     		str	r0, [r1, r3]	@ D.7202, *tmp.0_32
1032:cmsis/device/stm32f4xx_tim.c ****     *(__IO uint32_t *) tmp |= TIM_OCMode;
 1519              		.loc 1 1032 0
 1520 0044 C858     		ldr	r0, [r1, r3]	@ D.7203, *tmp.0_32
 1521 0046 0243     		orrs	r2, r2, r0	@, D.7205, TIM_OCMode, D.7203
 1522              	.LVL157:
 1523 0048 CA50     		str	r2, [r1, r3]	@ D.7205,* tmp
 1524              	.L81:
1043:cmsis/device/stm32f4xx_tim.c ****   }
1044:cmsis/device/stm32f4xx_tim.c **** }
 1525              		.loc 1 1044 0
 1526 004a 10BC     		pop	{r4}
 1527 004c 7047     		bx	lr
 1528              		.cfi_endproc
 1529              	.LFE130:
 1530              		.size	TIM_SelectOCxM, .-TIM_SelectOCxM
 1531 004e 00BF     		.section	.text.TIM_SetCompare1,"ax",%progbits
 1532              		.align	2
 1533              		.global	TIM_SetCompare1
 1534              		.thumb
 1535              		.thumb_func
 1536              		.type	TIM_SetCompare1, %function
 1537              	TIM_SetCompare1:
 1538              	.LFB131:
1045:cmsis/device/stm32f4xx_tim.c **** 
1046:cmsis/device/stm32f4xx_tim.c **** /**
1047:cmsis/device/stm32f4xx_tim.c ****   * @brief  Sets the TIMx Capture Compare1 Register value
1048:cmsis/device/stm32f4xx_tim.c ****   * @param  TIMx: where x can be 1 to 14 except 6 and 7, to select the TIM peripheral.
1049:cmsis/device/stm32f4xx_tim.c ****   * @param  Compare1: specifies the Capture Compare1 register new value.
1050:cmsis/device/stm32f4xx_tim.c ****   * @retval None
1051:cmsis/device/stm32f4xx_tim.c ****   */
1052:cmsis/device/stm32f4xx_tim.c **** void TIM_SetCompare1(TIM_TypeDef* TIMx, uint32_t Compare1)
1053:cmsis/device/stm32f4xx_tim.c **** {
 1539              		.loc 1 1053 0
 1540              		.cfi_startproc
 1541              		@ args = 0, pretend = 0, frame = 0
 1542              		@ frame_needed = 0, uses_anonymous_args = 0
 1543              		@ link register save eliminated.
 1544              	.LVL158:
1054:cmsis/device/stm32f4xx_tim.c ****   /* Check the parameters */
1055:cmsis/device/stm32f4xx_tim.c ****   assert_param(IS_TIM_LIST1_PERIPH(TIMx));
1056:cmsis/device/stm32f4xx_tim.c **** 
1057:cmsis/device/stm32f4xx_tim.c ****   /* Set the Capture Compare1 Register value */
1058:cmsis/device/stm32f4xx_tim.c ****   TIMx->CCR1 = Compare1;
 1545              		.loc 1 1058 0
 1546 0000 4163     		str	r1, [r0, #52]	@ Compare1, TIMx_1(D)->CCR1
 1547 0002 7047     		bx	lr	@
 1548              		.cfi_endproc
 1549              	.LFE131:
 1550              		.size	TIM_SetCompare1, .-TIM_SetCompare1
 1551              		.section	.text.TIM_SetCompare2,"ax",%progbits
 1552              		.align	2
ARM GAS  C:\Users\CNous\AppData\Local\Temp\ccZi7tDD.s 			page 50


 1553              		.global	TIM_SetCompare2
 1554              		.thumb
 1555              		.thumb_func
 1556              		.type	TIM_SetCompare2, %function
 1557              	TIM_SetCompare2:
 1558              	.LFB132:
1059:cmsis/device/stm32f4xx_tim.c **** }
1060:cmsis/device/stm32f4xx_tim.c **** 
1061:cmsis/device/stm32f4xx_tim.c **** /**
1062:cmsis/device/stm32f4xx_tim.c ****   * @brief  Sets the TIMx Capture Compare2 Register value
1063:cmsis/device/stm32f4xx_tim.c ****   * @param  TIMx: where x can be 1, 2, 3, 4, 5, 8, 9 or 12 to select the TIM 
1064:cmsis/device/stm32f4xx_tim.c ****   *         peripheral.
1065:cmsis/device/stm32f4xx_tim.c ****   * @param  Compare2: specifies the Capture Compare2 register new value.
1066:cmsis/device/stm32f4xx_tim.c ****   * @retval None
1067:cmsis/device/stm32f4xx_tim.c ****   */
1068:cmsis/device/stm32f4xx_tim.c **** void TIM_SetCompare2(TIM_TypeDef* TIMx, uint32_t Compare2)
1069:cmsis/device/stm32f4xx_tim.c **** {
 1559              		.loc 1 1069 0
 1560              		.cfi_startproc
 1561              		@ args = 0, pretend = 0, frame = 0
 1562              		@ frame_needed = 0, uses_anonymous_args = 0
 1563              		@ link register save eliminated.
 1564              	.LVL159:
1070:cmsis/device/stm32f4xx_tim.c ****   /* Check the parameters */
1071:cmsis/device/stm32f4xx_tim.c ****   assert_param(IS_TIM_LIST2_PERIPH(TIMx));
1072:cmsis/device/stm32f4xx_tim.c **** 
1073:cmsis/device/stm32f4xx_tim.c ****   /* Set the Capture Compare2 Register value */
1074:cmsis/device/stm32f4xx_tim.c ****   TIMx->CCR2 = Compare2;
 1565              		.loc 1 1074 0
 1566 0000 8163     		str	r1, [r0, #56]	@ Compare2, TIMx_1(D)->CCR2
 1567 0002 7047     		bx	lr	@
 1568              		.cfi_endproc
 1569              	.LFE132:
 1570              		.size	TIM_SetCompare2, .-TIM_SetCompare2
 1571              		.section	.text.TIM_SetCompare3,"ax",%progbits
 1572              		.align	2
 1573              		.global	TIM_SetCompare3
 1574              		.thumb
 1575              		.thumb_func
 1576              		.type	TIM_SetCompare3, %function
 1577              	TIM_SetCompare3:
 1578              	.LFB133:
1075:cmsis/device/stm32f4xx_tim.c **** }
1076:cmsis/device/stm32f4xx_tim.c **** 
1077:cmsis/device/stm32f4xx_tim.c **** /**
1078:cmsis/device/stm32f4xx_tim.c ****   * @brief  Sets the TIMx Capture Compare3 Register value
1079:cmsis/device/stm32f4xx_tim.c ****   * @param  TIMx: where x can be 1, 2, 3, 4, 5 or 8 to select the TIM peripheral.
1080:cmsis/device/stm32f4xx_tim.c ****   * @param  Compare3: specifies the Capture Compare3 register new value.
1081:cmsis/device/stm32f4xx_tim.c ****   * @retval None
1082:cmsis/device/stm32f4xx_tim.c ****   */
1083:cmsis/device/stm32f4xx_tim.c **** void TIM_SetCompare3(TIM_TypeDef* TIMx, uint32_t Compare3)
1084:cmsis/device/stm32f4xx_tim.c **** {
 1579              		.loc 1 1084 0
 1580              		.cfi_startproc
 1581              		@ args = 0, pretend = 0, frame = 0
 1582              		@ frame_needed = 0, uses_anonymous_args = 0
 1583              		@ link register save eliminated.
ARM GAS  C:\Users\CNous\AppData\Local\Temp\ccZi7tDD.s 			page 51


 1584              	.LVL160:
1085:cmsis/device/stm32f4xx_tim.c ****   /* Check the parameters */
1086:cmsis/device/stm32f4xx_tim.c ****   assert_param(IS_TIM_LIST3_PERIPH(TIMx));
1087:cmsis/device/stm32f4xx_tim.c **** 
1088:cmsis/device/stm32f4xx_tim.c ****   /* Set the Capture Compare3 Register value */
1089:cmsis/device/stm32f4xx_tim.c ****   TIMx->CCR3 = Compare3;
 1585              		.loc 1 1089 0
 1586 0000 C163     		str	r1, [r0, #60]	@ Compare3, TIMx_1(D)->CCR3
 1587 0002 7047     		bx	lr	@
 1588              		.cfi_endproc
 1589              	.LFE133:
 1590              		.size	TIM_SetCompare3, .-TIM_SetCompare3
 1591              		.section	.text.TIM_SetCompare4,"ax",%progbits
 1592              		.align	2
 1593              		.global	TIM_SetCompare4
 1594              		.thumb
 1595              		.thumb_func
 1596              		.type	TIM_SetCompare4, %function
 1597              	TIM_SetCompare4:
 1598              	.LFB134:
1090:cmsis/device/stm32f4xx_tim.c **** }
1091:cmsis/device/stm32f4xx_tim.c **** 
1092:cmsis/device/stm32f4xx_tim.c **** /**
1093:cmsis/device/stm32f4xx_tim.c ****   * @brief  Sets the TIMx Capture Compare4 Register value
1094:cmsis/device/stm32f4xx_tim.c ****   * @param  TIMx: where x can be 1, 2, 3, 4, 5 or 8 to select the TIM peripheral.
1095:cmsis/device/stm32f4xx_tim.c ****   * @param  Compare4: specifies the Capture Compare4 register new value.
1096:cmsis/device/stm32f4xx_tim.c ****   * @retval None
1097:cmsis/device/stm32f4xx_tim.c ****   */
1098:cmsis/device/stm32f4xx_tim.c **** void TIM_SetCompare4(TIM_TypeDef* TIMx, uint32_t Compare4)
1099:cmsis/device/stm32f4xx_tim.c **** {
 1599              		.loc 1 1099 0
 1600              		.cfi_startproc
 1601              		@ args = 0, pretend = 0, frame = 0
 1602              		@ frame_needed = 0, uses_anonymous_args = 0
 1603              		@ link register save eliminated.
 1604              	.LVL161:
1100:cmsis/device/stm32f4xx_tim.c ****   /* Check the parameters */
1101:cmsis/device/stm32f4xx_tim.c ****   assert_param(IS_TIM_LIST3_PERIPH(TIMx));
1102:cmsis/device/stm32f4xx_tim.c **** 
1103:cmsis/device/stm32f4xx_tim.c ****   /* Set the Capture Compare4 Register value */
1104:cmsis/device/stm32f4xx_tim.c ****   TIMx->CCR4 = Compare4;
 1605              		.loc 1 1104 0
 1606 0000 0164     		str	r1, [r0, #64]	@ Compare4, TIMx_1(D)->CCR4
 1607 0002 7047     		bx	lr	@
 1608              		.cfi_endproc
 1609              	.LFE134:
 1610              		.size	TIM_SetCompare4, .-TIM_SetCompare4
 1611              		.section	.text.TIM_ForcedOC1Config,"ax",%progbits
 1612              		.align	2
 1613              		.global	TIM_ForcedOC1Config
 1614              		.thumb
 1615              		.thumb_func
 1616              		.type	TIM_ForcedOC1Config, %function
 1617              	TIM_ForcedOC1Config:
 1618              	.LFB135:
1105:cmsis/device/stm32f4xx_tim.c **** }
1106:cmsis/device/stm32f4xx_tim.c **** 
ARM GAS  C:\Users\CNous\AppData\Local\Temp\ccZi7tDD.s 			page 52


1107:cmsis/device/stm32f4xx_tim.c **** /**
1108:cmsis/device/stm32f4xx_tim.c ****   * @brief  Forces the TIMx output 1 waveform to active or inactive level.
1109:cmsis/device/stm32f4xx_tim.c ****   * @param  TIMx: where x can be 1 to 14 except 6 and 7, to select the TIM peripheral.
1110:cmsis/device/stm32f4xx_tim.c ****   * @param  TIM_ForcedAction: specifies the forced Action to be set to the output waveform.
1111:cmsis/device/stm32f4xx_tim.c ****   *          This parameter can be one of the following values:
1112:cmsis/device/stm32f4xx_tim.c ****   *            @arg TIM_ForcedAction_Active: Force active level on OC1REF
1113:cmsis/device/stm32f4xx_tim.c ****   *            @arg TIM_ForcedAction_InActive: Force inactive level on OC1REF.
1114:cmsis/device/stm32f4xx_tim.c ****   * @retval None
1115:cmsis/device/stm32f4xx_tim.c ****   */
1116:cmsis/device/stm32f4xx_tim.c **** void TIM_ForcedOC1Config(TIM_TypeDef* TIMx, uint16_t TIM_ForcedAction)
1117:cmsis/device/stm32f4xx_tim.c **** {
 1619              		.loc 1 1117 0
 1620              		.cfi_startproc
 1621              		@ args = 0, pretend = 0, frame = 0
 1622              		@ frame_needed = 0, uses_anonymous_args = 0
 1623              		@ link register save eliminated.
 1624              	.LVL162:
1118:cmsis/device/stm32f4xx_tim.c ****   uint16_t tmpccmr1 = 0;
1119:cmsis/device/stm32f4xx_tim.c **** 
1120:cmsis/device/stm32f4xx_tim.c ****   /* Check the parameters */
1121:cmsis/device/stm32f4xx_tim.c ****   assert_param(IS_TIM_LIST1_PERIPH(TIMx));
1122:cmsis/device/stm32f4xx_tim.c ****   assert_param(IS_TIM_FORCED_ACTION(TIM_ForcedAction));
1123:cmsis/device/stm32f4xx_tim.c ****   tmpccmr1 = TIMx->CCMR1;
 1625              		.loc 1 1123 0
 1626 0000 038B     		ldrh	r3, [r0, #24]	@, TIMx_2(D)->CCMR1
 1627              	.LVL163:
1124:cmsis/device/stm32f4xx_tim.c **** 
1125:cmsis/device/stm32f4xx_tim.c ****   /* Reset the OC1M Bits */
1126:cmsis/device/stm32f4xx_tim.c ****   tmpccmr1 &= (uint16_t)~TIM_CCMR1_OC1M;
 1628              		.loc 1 1126 0
 1629 0002 23F07002 		bic	r2, r3, #112	@ tmpccmr1, TIMx_2(D)->CCMR1,
 1630 0006 1304     		lsls	r3, r2, #16	@ tmpccmr1, tmpccmr1,
 1631              	.LVL164:
 1632 0008 1A0C     		lsrs	r2, r3, #16	@ tmpccmr1, tmpccmr1,
 1633              	.LVL165:
1127:cmsis/device/stm32f4xx_tim.c **** 
1128:cmsis/device/stm32f4xx_tim.c ****   /* Configure The Forced output Mode */
1129:cmsis/device/stm32f4xx_tim.c ****   tmpccmr1 |= TIM_ForcedAction;
 1634              		.loc 1 1129 0
 1635 000a 1143     		orrs	r1, r1, r2	@, tmpccmr1, TIM_ForcedAction, tmpccmr1
 1636              	.LVL166:
1130:cmsis/device/stm32f4xx_tim.c **** 
1131:cmsis/device/stm32f4xx_tim.c ****   /* Write to TIMx CCMR1 register */
1132:cmsis/device/stm32f4xx_tim.c ****   TIMx->CCMR1 = tmpccmr1;
 1637              		.loc 1 1132 0
 1638 000c 0183     		strh	r1, [r0, #24]	@ movhi	@ tmpccmr1, TIMx_2(D)->CCMR1
 1639 000e 7047     		bx	lr	@
 1640              		.cfi_endproc
 1641              	.LFE135:
 1642              		.size	TIM_ForcedOC1Config, .-TIM_ForcedOC1Config
 1643              		.section	.text.TIM_ForcedOC2Config,"ax",%progbits
 1644              		.align	2
 1645              		.global	TIM_ForcedOC2Config
 1646              		.thumb
 1647              		.thumb_func
 1648              		.type	TIM_ForcedOC2Config, %function
 1649              	TIM_ForcedOC2Config:
ARM GAS  C:\Users\CNous\AppData\Local\Temp\ccZi7tDD.s 			page 53


 1650              	.LFB136:
1133:cmsis/device/stm32f4xx_tim.c **** }
1134:cmsis/device/stm32f4xx_tim.c **** 
1135:cmsis/device/stm32f4xx_tim.c **** /**
1136:cmsis/device/stm32f4xx_tim.c ****   * @brief  Forces the TIMx output 2 waveform to active or inactive level.
1137:cmsis/device/stm32f4xx_tim.c ****   * @param  TIMx: where x can be  1, 2, 3, 4, 5, 8, 9 or 12 to select the TIM 
1138:cmsis/device/stm32f4xx_tim.c ****   *         peripheral.
1139:cmsis/device/stm32f4xx_tim.c ****   * @param  TIM_ForcedAction: specifies the forced Action to be set to the output waveform.
1140:cmsis/device/stm32f4xx_tim.c ****   *          This parameter can be one of the following values:
1141:cmsis/device/stm32f4xx_tim.c ****   *            @arg TIM_ForcedAction_Active: Force active level on OC2REF
1142:cmsis/device/stm32f4xx_tim.c ****   *            @arg TIM_ForcedAction_InActive: Force inactive level on OC2REF.
1143:cmsis/device/stm32f4xx_tim.c ****   * @retval None
1144:cmsis/device/stm32f4xx_tim.c ****   */
1145:cmsis/device/stm32f4xx_tim.c **** void TIM_ForcedOC2Config(TIM_TypeDef* TIMx, uint16_t TIM_ForcedAction)
1146:cmsis/device/stm32f4xx_tim.c **** {
 1651              		.loc 1 1146 0
 1652              		.cfi_startproc
 1653              		@ args = 0, pretend = 0, frame = 0
 1654              		@ frame_needed = 0, uses_anonymous_args = 0
 1655              		@ link register save eliminated.
 1656              	.LVL167:
1147:cmsis/device/stm32f4xx_tim.c ****   uint16_t tmpccmr1 = 0;
1148:cmsis/device/stm32f4xx_tim.c **** 
1149:cmsis/device/stm32f4xx_tim.c ****   /* Check the parameters */
1150:cmsis/device/stm32f4xx_tim.c ****   assert_param(IS_TIM_LIST2_PERIPH(TIMx));
1151:cmsis/device/stm32f4xx_tim.c ****   assert_param(IS_TIM_FORCED_ACTION(TIM_ForcedAction));
1152:cmsis/device/stm32f4xx_tim.c ****   tmpccmr1 = TIMx->CCMR1;
 1657              		.loc 1 1152 0
 1658 0000 038B     		ldrh	r3, [r0, #24]	@, TIMx_2(D)->CCMR1
 1659              	.LVL168:
1153:cmsis/device/stm32f4xx_tim.c **** 
1154:cmsis/device/stm32f4xx_tim.c ****   /* Reset the OC2M Bits */
1155:cmsis/device/stm32f4xx_tim.c ****   tmpccmr1 &= (uint16_t)~TIM_CCMR1_OC2M;
 1660              		.loc 1 1155 0
 1661 0002 23F4E042 		bic	r2, r3, #28672	@ tmpccmr1, TIMx_2(D)->CCMR1,
 1662 0006 1304     		lsls	r3, r2, #16	@ tmpccmr1, tmpccmr1,
 1663              	.LVL169:
 1664 0008 1A0C     		lsrs	r2, r3, #16	@ tmpccmr1, tmpccmr1,
 1665              	.LVL170:
1156:cmsis/device/stm32f4xx_tim.c **** 
1157:cmsis/device/stm32f4xx_tim.c ****   /* Configure The Forced output Mode */
1158:cmsis/device/stm32f4xx_tim.c ****   tmpccmr1 |= (uint16_t)(TIM_ForcedAction << 8);
 1666              		.loc 1 1158 0
 1667 000a 42EA0121 		orr	r1, r2, r1, lsl #8	@, tmp145, tmpccmr1, TIM_ForcedAction,
 1668              	.LVL171:
 1669 000e 8BB2     		uxth	r3, r1	@ tmpccmr1, tmp145
 1670              	.LVL172:
1159:cmsis/device/stm32f4xx_tim.c **** 
1160:cmsis/device/stm32f4xx_tim.c ****   /* Write to TIMx CCMR1 register */
1161:cmsis/device/stm32f4xx_tim.c ****   TIMx->CCMR1 = tmpccmr1;
 1671              		.loc 1 1161 0
 1672 0010 0383     		strh	r3, [r0, #24]	@ movhi	@ tmpccmr1, TIMx_2(D)->CCMR1
 1673 0012 7047     		bx	lr	@
 1674              		.cfi_endproc
 1675              	.LFE136:
 1676              		.size	TIM_ForcedOC2Config, .-TIM_ForcedOC2Config
 1677              		.section	.text.TIM_ForcedOC3Config,"ax",%progbits
ARM GAS  C:\Users\CNous\AppData\Local\Temp\ccZi7tDD.s 			page 54


 1678              		.align	2
 1679              		.global	TIM_ForcedOC3Config
 1680              		.thumb
 1681              		.thumb_func
 1682              		.type	TIM_ForcedOC3Config, %function
 1683              	TIM_ForcedOC3Config:
 1684              	.LFB137:
1162:cmsis/device/stm32f4xx_tim.c **** }
1163:cmsis/device/stm32f4xx_tim.c **** 
1164:cmsis/device/stm32f4xx_tim.c **** /**
1165:cmsis/device/stm32f4xx_tim.c ****   * @brief  Forces the TIMx output 3 waveform to active or inactive level.
1166:cmsis/device/stm32f4xx_tim.c ****   * @param  TIMx: where x can be  1, 2, 3, 4, 5 or 8 to select the TIM peripheral.
1167:cmsis/device/stm32f4xx_tim.c ****   * @param  TIM_ForcedAction: specifies the forced Action to be set to the output waveform.
1168:cmsis/device/stm32f4xx_tim.c ****   *          This parameter can be one of the following values:
1169:cmsis/device/stm32f4xx_tim.c ****   *            @arg TIM_ForcedAction_Active: Force active level on OC3REF
1170:cmsis/device/stm32f4xx_tim.c ****   *            @arg TIM_ForcedAction_InActive: Force inactive level on OC3REF.
1171:cmsis/device/stm32f4xx_tim.c ****   * @retval None
1172:cmsis/device/stm32f4xx_tim.c ****   */
1173:cmsis/device/stm32f4xx_tim.c **** void TIM_ForcedOC3Config(TIM_TypeDef* TIMx, uint16_t TIM_ForcedAction)
1174:cmsis/device/stm32f4xx_tim.c **** {
 1685              		.loc 1 1174 0
 1686              		.cfi_startproc
 1687              		@ args = 0, pretend = 0, frame = 0
 1688              		@ frame_needed = 0, uses_anonymous_args = 0
 1689              		@ link register save eliminated.
 1690              	.LVL173:
1175:cmsis/device/stm32f4xx_tim.c ****   uint16_t tmpccmr2 = 0;
1176:cmsis/device/stm32f4xx_tim.c **** 
1177:cmsis/device/stm32f4xx_tim.c ****   /* Check the parameters */
1178:cmsis/device/stm32f4xx_tim.c ****   assert_param(IS_TIM_LIST3_PERIPH(TIMx));
1179:cmsis/device/stm32f4xx_tim.c ****   assert_param(IS_TIM_FORCED_ACTION(TIM_ForcedAction));
1180:cmsis/device/stm32f4xx_tim.c **** 
1181:cmsis/device/stm32f4xx_tim.c ****   tmpccmr2 = TIMx->CCMR2;
 1691              		.loc 1 1181 0
 1692 0000 838B     		ldrh	r3, [r0, #28]	@, TIMx_2(D)->CCMR2
 1693              	.LVL174:
1182:cmsis/device/stm32f4xx_tim.c **** 
1183:cmsis/device/stm32f4xx_tim.c ****   /* Reset the OC1M Bits */
1184:cmsis/device/stm32f4xx_tim.c ****   tmpccmr2 &= (uint16_t)~TIM_CCMR2_OC3M;
 1694              		.loc 1 1184 0
 1695 0002 23F07002 		bic	r2, r3, #112	@ tmpccmr2, TIMx_2(D)->CCMR2,
 1696 0006 1304     		lsls	r3, r2, #16	@ tmpccmr2, tmpccmr2,
 1697              	.LVL175:
 1698 0008 1A0C     		lsrs	r2, r3, #16	@ tmpccmr2, tmpccmr2,
 1699              	.LVL176:
1185:cmsis/device/stm32f4xx_tim.c **** 
1186:cmsis/device/stm32f4xx_tim.c ****   /* Configure The Forced output Mode */
1187:cmsis/device/stm32f4xx_tim.c ****   tmpccmr2 |= TIM_ForcedAction;
 1700              		.loc 1 1187 0
 1701 000a 1143     		orrs	r1, r1, r2	@, tmpccmr2, TIM_ForcedAction, tmpccmr2
 1702              	.LVL177:
1188:cmsis/device/stm32f4xx_tim.c **** 
1189:cmsis/device/stm32f4xx_tim.c ****   /* Write to TIMx CCMR2 register */
1190:cmsis/device/stm32f4xx_tim.c ****   TIMx->CCMR2 = tmpccmr2;
 1703              		.loc 1 1190 0
 1704 000c 8183     		strh	r1, [r0, #28]	@ movhi	@ tmpccmr2, TIMx_2(D)->CCMR2
 1705 000e 7047     		bx	lr	@
ARM GAS  C:\Users\CNous\AppData\Local\Temp\ccZi7tDD.s 			page 55


 1706              		.cfi_endproc
 1707              	.LFE137:
 1708              		.size	TIM_ForcedOC3Config, .-TIM_ForcedOC3Config
 1709              		.section	.text.TIM_ForcedOC4Config,"ax",%progbits
 1710              		.align	2
 1711              		.global	TIM_ForcedOC4Config
 1712              		.thumb
 1713              		.thumb_func
 1714              		.type	TIM_ForcedOC4Config, %function
 1715              	TIM_ForcedOC4Config:
 1716              	.LFB138:
1191:cmsis/device/stm32f4xx_tim.c **** }
1192:cmsis/device/stm32f4xx_tim.c **** 
1193:cmsis/device/stm32f4xx_tim.c **** /**
1194:cmsis/device/stm32f4xx_tim.c ****   * @brief  Forces the TIMx output 4 waveform to active or inactive level.
1195:cmsis/device/stm32f4xx_tim.c ****   * @param  TIMx: where x can be  1, 2, 3, 4, 5 or 8 to select the TIM peripheral.
1196:cmsis/device/stm32f4xx_tim.c ****   * @param  TIM_ForcedAction: specifies the forced Action to be set to the output waveform.
1197:cmsis/device/stm32f4xx_tim.c ****   *          This parameter can be one of the following values:
1198:cmsis/device/stm32f4xx_tim.c ****   *            @arg TIM_ForcedAction_Active: Force active level on OC4REF
1199:cmsis/device/stm32f4xx_tim.c ****   *            @arg TIM_ForcedAction_InActive: Force inactive level on OC4REF.
1200:cmsis/device/stm32f4xx_tim.c ****   * @retval None
1201:cmsis/device/stm32f4xx_tim.c ****   */
1202:cmsis/device/stm32f4xx_tim.c **** void TIM_ForcedOC4Config(TIM_TypeDef* TIMx, uint16_t TIM_ForcedAction)
1203:cmsis/device/stm32f4xx_tim.c **** {
 1717              		.loc 1 1203 0
 1718              		.cfi_startproc
 1719              		@ args = 0, pretend = 0, frame = 0
 1720              		@ frame_needed = 0, uses_anonymous_args = 0
 1721              		@ link register save eliminated.
 1722              	.LVL178:
1204:cmsis/device/stm32f4xx_tim.c ****   uint16_t tmpccmr2 = 0;
1205:cmsis/device/stm32f4xx_tim.c **** 
1206:cmsis/device/stm32f4xx_tim.c ****   /* Check the parameters */
1207:cmsis/device/stm32f4xx_tim.c ****   assert_param(IS_TIM_LIST3_PERIPH(TIMx));
1208:cmsis/device/stm32f4xx_tim.c ****   assert_param(IS_TIM_FORCED_ACTION(TIM_ForcedAction));
1209:cmsis/device/stm32f4xx_tim.c ****   tmpccmr2 = TIMx->CCMR2;
 1723              		.loc 1 1209 0
 1724 0000 838B     		ldrh	r3, [r0, #28]	@, TIMx_2(D)->CCMR2
 1725              	.LVL179:
1210:cmsis/device/stm32f4xx_tim.c **** 
1211:cmsis/device/stm32f4xx_tim.c ****   /* Reset the OC2M Bits */
1212:cmsis/device/stm32f4xx_tim.c ****   tmpccmr2 &= (uint16_t)~TIM_CCMR2_OC4M;
 1726              		.loc 1 1212 0
 1727 0002 23F4E042 		bic	r2, r3, #28672	@ tmpccmr2, TIMx_2(D)->CCMR2,
 1728 0006 1304     		lsls	r3, r2, #16	@ tmpccmr2, tmpccmr2,
 1729              	.LVL180:
 1730 0008 1A0C     		lsrs	r2, r3, #16	@ tmpccmr2, tmpccmr2,
 1731              	.LVL181:
1213:cmsis/device/stm32f4xx_tim.c **** 
1214:cmsis/device/stm32f4xx_tim.c ****   /* Configure The Forced output Mode */
1215:cmsis/device/stm32f4xx_tim.c ****   tmpccmr2 |= (uint16_t)(TIM_ForcedAction << 8);
 1732              		.loc 1 1215 0
 1733 000a 42EA0121 		orr	r1, r2, r1, lsl #8	@, tmp145, tmpccmr2, TIM_ForcedAction,
 1734              	.LVL182:
 1735 000e 8BB2     		uxth	r3, r1	@ tmpccmr2, tmp145
 1736              	.LVL183:
1216:cmsis/device/stm32f4xx_tim.c **** 
ARM GAS  C:\Users\CNous\AppData\Local\Temp\ccZi7tDD.s 			page 56


1217:cmsis/device/stm32f4xx_tim.c ****   /* Write to TIMx CCMR2 register */
1218:cmsis/device/stm32f4xx_tim.c ****   TIMx->CCMR2 = tmpccmr2;
 1737              		.loc 1 1218 0
 1738 0010 8383     		strh	r3, [r0, #28]	@ movhi	@ tmpccmr2, TIMx_2(D)->CCMR2
 1739 0012 7047     		bx	lr	@
 1740              		.cfi_endproc
 1741              	.LFE138:
 1742              		.size	TIM_ForcedOC4Config, .-TIM_ForcedOC4Config
 1743              		.section	.text.TIM_OC1PreloadConfig,"ax",%progbits
 1744              		.align	2
 1745              		.global	TIM_OC1PreloadConfig
 1746              		.thumb
 1747              		.thumb_func
 1748              		.type	TIM_OC1PreloadConfig, %function
 1749              	TIM_OC1PreloadConfig:
 1750              	.LFB139:
1219:cmsis/device/stm32f4xx_tim.c **** }
1220:cmsis/device/stm32f4xx_tim.c **** 
1221:cmsis/device/stm32f4xx_tim.c **** /**
1222:cmsis/device/stm32f4xx_tim.c ****   * @brief  Enables or disables the TIMx peripheral Preload register on CCR1.
1223:cmsis/device/stm32f4xx_tim.c ****   * @param  TIMx: where x can be 1 to 14 except 6 and 7, to select the TIM peripheral.
1224:cmsis/device/stm32f4xx_tim.c ****   * @param  TIM_OCPreload: new state of the TIMx peripheral Preload register
1225:cmsis/device/stm32f4xx_tim.c ****   *          This parameter can be one of the following values:
1226:cmsis/device/stm32f4xx_tim.c ****   *            @arg TIM_OCPreload_Enable
1227:cmsis/device/stm32f4xx_tim.c ****   *            @arg TIM_OCPreload_Disable
1228:cmsis/device/stm32f4xx_tim.c ****   * @retval None
1229:cmsis/device/stm32f4xx_tim.c ****   */
1230:cmsis/device/stm32f4xx_tim.c **** void TIM_OC1PreloadConfig(TIM_TypeDef* TIMx, uint16_t TIM_OCPreload)
1231:cmsis/device/stm32f4xx_tim.c **** {
 1751              		.loc 1 1231 0
 1752              		.cfi_startproc
 1753              		@ args = 0, pretend = 0, frame = 0
 1754              		@ frame_needed = 0, uses_anonymous_args = 0
 1755              		@ link register save eliminated.
 1756              	.LVL184:
1232:cmsis/device/stm32f4xx_tim.c ****   uint16_t tmpccmr1 = 0;
1233:cmsis/device/stm32f4xx_tim.c **** 
1234:cmsis/device/stm32f4xx_tim.c ****   /* Check the parameters */
1235:cmsis/device/stm32f4xx_tim.c ****   assert_param(IS_TIM_LIST1_PERIPH(TIMx));
1236:cmsis/device/stm32f4xx_tim.c ****   assert_param(IS_TIM_OCPRELOAD_STATE(TIM_OCPreload));
1237:cmsis/device/stm32f4xx_tim.c **** 
1238:cmsis/device/stm32f4xx_tim.c ****   tmpccmr1 = TIMx->CCMR1;
 1757              		.loc 1 1238 0
 1758 0000 038B     		ldrh	r3, [r0, #24]	@, TIMx_2(D)->CCMR1
 1759              	.LVL185:
1239:cmsis/device/stm32f4xx_tim.c **** 
1240:cmsis/device/stm32f4xx_tim.c ****   /* Reset the OC1PE Bit */
1241:cmsis/device/stm32f4xx_tim.c ****   tmpccmr1 &= (uint16_t)(~TIM_CCMR1_OC1PE);
 1760              		.loc 1 1241 0
 1761 0002 23F00802 		bic	r2, r3, #8	@ tmpccmr1, TIMx_2(D)->CCMR1,
 1762 0006 1304     		lsls	r3, r2, #16	@ tmpccmr1, tmpccmr1,
 1763              	.LVL186:
 1764 0008 1A0C     		lsrs	r2, r3, #16	@ tmpccmr1, tmpccmr1,
 1765              	.LVL187:
1242:cmsis/device/stm32f4xx_tim.c **** 
1243:cmsis/device/stm32f4xx_tim.c ****   /* Enable or Disable the Output Compare Preload feature */
1244:cmsis/device/stm32f4xx_tim.c ****   tmpccmr1 |= TIM_OCPreload;
ARM GAS  C:\Users\CNous\AppData\Local\Temp\ccZi7tDD.s 			page 57


 1766              		.loc 1 1244 0
 1767 000a 1143     		orrs	r1, r1, r2	@, tmpccmr1, TIM_OCPreload, tmpccmr1
 1768              	.LVL188:
1245:cmsis/device/stm32f4xx_tim.c **** 
1246:cmsis/device/stm32f4xx_tim.c ****   /* Write to TIMx CCMR1 register */
1247:cmsis/device/stm32f4xx_tim.c ****   TIMx->CCMR1 = tmpccmr1;
 1769              		.loc 1 1247 0
 1770 000c 0183     		strh	r1, [r0, #24]	@ movhi	@ tmpccmr1, TIMx_2(D)->CCMR1
 1771 000e 7047     		bx	lr	@
 1772              		.cfi_endproc
 1773              	.LFE139:
 1774              		.size	TIM_OC1PreloadConfig, .-TIM_OC1PreloadConfig
 1775              		.section	.text.TIM_OC2PreloadConfig,"ax",%progbits
 1776              		.align	2
 1777              		.global	TIM_OC2PreloadConfig
 1778              		.thumb
 1779              		.thumb_func
 1780              		.type	TIM_OC2PreloadConfig, %function
 1781              	TIM_OC2PreloadConfig:
 1782              	.LFB140:
1248:cmsis/device/stm32f4xx_tim.c **** }
1249:cmsis/device/stm32f4xx_tim.c **** 
1250:cmsis/device/stm32f4xx_tim.c **** /**
1251:cmsis/device/stm32f4xx_tim.c ****   * @brief  Enables or disables the TIMx peripheral Preload register on CCR2.
1252:cmsis/device/stm32f4xx_tim.c ****   * @param  TIMx: where x can be  1, 2, 3, 4, 5, 8, 9 or 12 to select the TIM 
1253:cmsis/device/stm32f4xx_tim.c ****   *         peripheral.
1254:cmsis/device/stm32f4xx_tim.c ****   * @param  TIM_OCPreload: new state of the TIMx peripheral Preload register
1255:cmsis/device/stm32f4xx_tim.c ****   *          This parameter can be one of the following values:
1256:cmsis/device/stm32f4xx_tim.c ****   *            @arg TIM_OCPreload_Enable
1257:cmsis/device/stm32f4xx_tim.c ****   *            @arg TIM_OCPreload_Disable
1258:cmsis/device/stm32f4xx_tim.c ****   * @retval None
1259:cmsis/device/stm32f4xx_tim.c ****   */
1260:cmsis/device/stm32f4xx_tim.c **** void TIM_OC2PreloadConfig(TIM_TypeDef* TIMx, uint16_t TIM_OCPreload)
1261:cmsis/device/stm32f4xx_tim.c **** {
 1783              		.loc 1 1261 0
 1784              		.cfi_startproc
 1785              		@ args = 0, pretend = 0, frame = 0
 1786              		@ frame_needed = 0, uses_anonymous_args = 0
 1787              		@ link register save eliminated.
 1788              	.LVL189:
1262:cmsis/device/stm32f4xx_tim.c ****   uint16_t tmpccmr1 = 0;
1263:cmsis/device/stm32f4xx_tim.c **** 
1264:cmsis/device/stm32f4xx_tim.c ****   /* Check the parameters */
1265:cmsis/device/stm32f4xx_tim.c ****   assert_param(IS_TIM_LIST2_PERIPH(TIMx));
1266:cmsis/device/stm32f4xx_tim.c ****   assert_param(IS_TIM_OCPRELOAD_STATE(TIM_OCPreload));
1267:cmsis/device/stm32f4xx_tim.c **** 
1268:cmsis/device/stm32f4xx_tim.c ****   tmpccmr1 = TIMx->CCMR1;
 1789              		.loc 1 1268 0
 1790 0000 038B     		ldrh	r3, [r0, #24]	@, TIMx_2(D)->CCMR1
 1791              	.LVL190:
1269:cmsis/device/stm32f4xx_tim.c **** 
1270:cmsis/device/stm32f4xx_tim.c ****   /* Reset the OC2PE Bit */
1271:cmsis/device/stm32f4xx_tim.c ****   tmpccmr1 &= (uint16_t)(~TIM_CCMR1_OC2PE);
 1792              		.loc 1 1271 0
 1793 0002 23F40062 		bic	r2, r3, #2048	@ tmpccmr1, TIMx_2(D)->CCMR1,
 1794 0006 1304     		lsls	r3, r2, #16	@ tmpccmr1, tmpccmr1,
 1795              	.LVL191:
ARM GAS  C:\Users\CNous\AppData\Local\Temp\ccZi7tDD.s 			page 58


 1796 0008 1A0C     		lsrs	r2, r3, #16	@ tmpccmr1, tmpccmr1,
 1797              	.LVL192:
1272:cmsis/device/stm32f4xx_tim.c **** 
1273:cmsis/device/stm32f4xx_tim.c ****   /* Enable or Disable the Output Compare Preload feature */
1274:cmsis/device/stm32f4xx_tim.c ****   tmpccmr1 |= (uint16_t)(TIM_OCPreload << 8);
 1798              		.loc 1 1274 0
 1799 000a 42EA0121 		orr	r1, r2, r1, lsl #8	@, tmp145, tmpccmr1, TIM_OCPreload,
 1800              	.LVL193:
 1801 000e 8BB2     		uxth	r3, r1	@ tmpccmr1, tmp145
 1802              	.LVL194:
1275:cmsis/device/stm32f4xx_tim.c **** 
1276:cmsis/device/stm32f4xx_tim.c ****   /* Write to TIMx CCMR1 register */
1277:cmsis/device/stm32f4xx_tim.c ****   TIMx->CCMR1 = tmpccmr1;
 1803              		.loc 1 1277 0
 1804 0010 0383     		strh	r3, [r0, #24]	@ movhi	@ tmpccmr1, TIMx_2(D)->CCMR1
 1805 0012 7047     		bx	lr	@
 1806              		.cfi_endproc
 1807              	.LFE140:
 1808              		.size	TIM_OC2PreloadConfig, .-TIM_OC2PreloadConfig
 1809              		.section	.text.TIM_OC3PreloadConfig,"ax",%progbits
 1810              		.align	2
 1811              		.global	TIM_OC3PreloadConfig
 1812              		.thumb
 1813              		.thumb_func
 1814              		.type	TIM_OC3PreloadConfig, %function
 1815              	TIM_OC3PreloadConfig:
 1816              	.LFB141:
1278:cmsis/device/stm32f4xx_tim.c **** }
1279:cmsis/device/stm32f4xx_tim.c **** 
1280:cmsis/device/stm32f4xx_tim.c **** /**
1281:cmsis/device/stm32f4xx_tim.c ****   * @brief  Enables or disables the TIMx peripheral Preload register on CCR3.
1282:cmsis/device/stm32f4xx_tim.c ****   * @param  TIMx: where x can be  1, 2, 3, 4, 5 or 8 to select the TIM peripheral.
1283:cmsis/device/stm32f4xx_tim.c ****   * @param  TIM_OCPreload: new state of the TIMx peripheral Preload register
1284:cmsis/device/stm32f4xx_tim.c ****   *          This parameter can be one of the following values:
1285:cmsis/device/stm32f4xx_tim.c ****   *            @arg TIM_OCPreload_Enable
1286:cmsis/device/stm32f4xx_tim.c ****   *            @arg TIM_OCPreload_Disable
1287:cmsis/device/stm32f4xx_tim.c ****   * @retval None
1288:cmsis/device/stm32f4xx_tim.c ****   */
1289:cmsis/device/stm32f4xx_tim.c **** void TIM_OC3PreloadConfig(TIM_TypeDef* TIMx, uint16_t TIM_OCPreload)
1290:cmsis/device/stm32f4xx_tim.c **** {
 1817              		.loc 1 1290 0
 1818              		.cfi_startproc
 1819              		@ args = 0, pretend = 0, frame = 0
 1820              		@ frame_needed = 0, uses_anonymous_args = 0
 1821              		@ link register save eliminated.
 1822              	.LVL195:
1291:cmsis/device/stm32f4xx_tim.c ****   uint16_t tmpccmr2 = 0;
1292:cmsis/device/stm32f4xx_tim.c **** 
1293:cmsis/device/stm32f4xx_tim.c ****   /* Check the parameters */
1294:cmsis/device/stm32f4xx_tim.c ****   assert_param(IS_TIM_LIST3_PERIPH(TIMx));
1295:cmsis/device/stm32f4xx_tim.c ****   assert_param(IS_TIM_OCPRELOAD_STATE(TIM_OCPreload));
1296:cmsis/device/stm32f4xx_tim.c **** 
1297:cmsis/device/stm32f4xx_tim.c ****   tmpccmr2 = TIMx->CCMR2;
 1823              		.loc 1 1297 0
 1824 0000 838B     		ldrh	r3, [r0, #28]	@, TIMx_2(D)->CCMR2
 1825              	.LVL196:
1298:cmsis/device/stm32f4xx_tim.c **** 
ARM GAS  C:\Users\CNous\AppData\Local\Temp\ccZi7tDD.s 			page 59


1299:cmsis/device/stm32f4xx_tim.c ****   /* Reset the OC3PE Bit */
1300:cmsis/device/stm32f4xx_tim.c ****   tmpccmr2 &= (uint16_t)(~TIM_CCMR2_OC3PE);
 1826              		.loc 1 1300 0
 1827 0002 23F00802 		bic	r2, r3, #8	@ tmpccmr2, TIMx_2(D)->CCMR2,
 1828 0006 1304     		lsls	r3, r2, #16	@ tmpccmr2, tmpccmr2,
 1829              	.LVL197:
 1830 0008 1A0C     		lsrs	r2, r3, #16	@ tmpccmr2, tmpccmr2,
 1831              	.LVL198:
1301:cmsis/device/stm32f4xx_tim.c **** 
1302:cmsis/device/stm32f4xx_tim.c ****   /* Enable or Disable the Output Compare Preload feature */
1303:cmsis/device/stm32f4xx_tim.c ****   tmpccmr2 |= TIM_OCPreload;
 1832              		.loc 1 1303 0
 1833 000a 1143     		orrs	r1, r1, r2	@, tmpccmr2, TIM_OCPreload, tmpccmr2
 1834              	.LVL199:
1304:cmsis/device/stm32f4xx_tim.c **** 
1305:cmsis/device/stm32f4xx_tim.c ****   /* Write to TIMx CCMR2 register */
1306:cmsis/device/stm32f4xx_tim.c ****   TIMx->CCMR2 = tmpccmr2;
 1835              		.loc 1 1306 0
 1836 000c 8183     		strh	r1, [r0, #28]	@ movhi	@ tmpccmr2, TIMx_2(D)->CCMR2
 1837 000e 7047     		bx	lr	@
 1838              		.cfi_endproc
 1839              	.LFE141:
 1840              		.size	TIM_OC3PreloadConfig, .-TIM_OC3PreloadConfig
 1841              		.section	.text.TIM_OC4PreloadConfig,"ax",%progbits
 1842              		.align	2
 1843              		.global	TIM_OC4PreloadConfig
 1844              		.thumb
 1845              		.thumb_func
 1846              		.type	TIM_OC4PreloadConfig, %function
 1847              	TIM_OC4PreloadConfig:
 1848              	.LFB142:
1307:cmsis/device/stm32f4xx_tim.c **** }
1308:cmsis/device/stm32f4xx_tim.c **** 
1309:cmsis/device/stm32f4xx_tim.c **** /**
1310:cmsis/device/stm32f4xx_tim.c ****   * @brief  Enables or disables the TIMx peripheral Preload register on CCR4.
1311:cmsis/device/stm32f4xx_tim.c ****   * @param  TIMx: where x can be  1, 2, 3, 4, 5 or 8 to select the TIM peripheral.
1312:cmsis/device/stm32f4xx_tim.c ****   * @param  TIM_OCPreload: new state of the TIMx peripheral Preload register
1313:cmsis/device/stm32f4xx_tim.c ****   *          This parameter can be one of the following values:
1314:cmsis/device/stm32f4xx_tim.c ****   *            @arg TIM_OCPreload_Enable
1315:cmsis/device/stm32f4xx_tim.c ****   *            @arg TIM_OCPreload_Disable
1316:cmsis/device/stm32f4xx_tim.c ****   * @retval None
1317:cmsis/device/stm32f4xx_tim.c ****   */
1318:cmsis/device/stm32f4xx_tim.c **** void TIM_OC4PreloadConfig(TIM_TypeDef* TIMx, uint16_t TIM_OCPreload)
1319:cmsis/device/stm32f4xx_tim.c **** {
 1849              		.loc 1 1319 0
 1850              		.cfi_startproc
 1851              		@ args = 0, pretend = 0, frame = 0
 1852              		@ frame_needed = 0, uses_anonymous_args = 0
 1853              		@ link register save eliminated.
 1854              	.LVL200:
1320:cmsis/device/stm32f4xx_tim.c ****   uint16_t tmpccmr2 = 0;
1321:cmsis/device/stm32f4xx_tim.c **** 
1322:cmsis/device/stm32f4xx_tim.c ****   /* Check the parameters */
1323:cmsis/device/stm32f4xx_tim.c ****   assert_param(IS_TIM_LIST3_PERIPH(TIMx));
1324:cmsis/device/stm32f4xx_tim.c ****   assert_param(IS_TIM_OCPRELOAD_STATE(TIM_OCPreload));
1325:cmsis/device/stm32f4xx_tim.c **** 
1326:cmsis/device/stm32f4xx_tim.c ****   tmpccmr2 = TIMx->CCMR2;
ARM GAS  C:\Users\CNous\AppData\Local\Temp\ccZi7tDD.s 			page 60


 1855              		.loc 1 1326 0
 1856 0000 838B     		ldrh	r3, [r0, #28]	@, TIMx_2(D)->CCMR2
 1857              	.LVL201:
1327:cmsis/device/stm32f4xx_tim.c **** 
1328:cmsis/device/stm32f4xx_tim.c ****   /* Reset the OC4PE Bit */
1329:cmsis/device/stm32f4xx_tim.c ****   tmpccmr2 &= (uint16_t)(~TIM_CCMR2_OC4PE);
 1858              		.loc 1 1329 0
 1859 0002 23F40062 		bic	r2, r3, #2048	@ tmpccmr2, TIMx_2(D)->CCMR2,
 1860 0006 1304     		lsls	r3, r2, #16	@ tmpccmr2, tmpccmr2,
 1861              	.LVL202:
 1862 0008 1A0C     		lsrs	r2, r3, #16	@ tmpccmr2, tmpccmr2,
 1863              	.LVL203:
1330:cmsis/device/stm32f4xx_tim.c **** 
1331:cmsis/device/stm32f4xx_tim.c ****   /* Enable or Disable the Output Compare Preload feature */
1332:cmsis/device/stm32f4xx_tim.c ****   tmpccmr2 |= (uint16_t)(TIM_OCPreload << 8);
 1864              		.loc 1 1332 0
 1865 000a 42EA0121 		orr	r1, r2, r1, lsl #8	@, tmp145, tmpccmr2, TIM_OCPreload,
 1866              	.LVL204:
 1867 000e 8BB2     		uxth	r3, r1	@ tmpccmr2, tmp145
 1868              	.LVL205:
1333:cmsis/device/stm32f4xx_tim.c **** 
1334:cmsis/device/stm32f4xx_tim.c ****   /* Write to TIMx CCMR2 register */
1335:cmsis/device/stm32f4xx_tim.c ****   TIMx->CCMR2 = tmpccmr2;
 1869              		.loc 1 1335 0
 1870 0010 8383     		strh	r3, [r0, #28]	@ movhi	@ tmpccmr2, TIMx_2(D)->CCMR2
 1871 0012 7047     		bx	lr	@
 1872              		.cfi_endproc
 1873              	.LFE142:
 1874              		.size	TIM_OC4PreloadConfig, .-TIM_OC4PreloadConfig
 1875              		.section	.text.TIM_OC1FastConfig,"ax",%progbits
 1876              		.align	2
 1877              		.global	TIM_OC1FastConfig
 1878              		.thumb
 1879              		.thumb_func
 1880              		.type	TIM_OC1FastConfig, %function
 1881              	TIM_OC1FastConfig:
 1882              	.LFB143:
1336:cmsis/device/stm32f4xx_tim.c **** }
1337:cmsis/device/stm32f4xx_tim.c **** 
1338:cmsis/device/stm32f4xx_tim.c **** /**
1339:cmsis/device/stm32f4xx_tim.c ****   * @brief  Configures the TIMx Output Compare 1 Fast feature.
1340:cmsis/device/stm32f4xx_tim.c ****   * @param  TIMx: where x can be 1 to 14 except 6 and 7, to select the TIM peripheral.
1341:cmsis/device/stm32f4xx_tim.c ****   * @param  TIM_OCFast: new state of the Output Compare Fast Enable Bit.
1342:cmsis/device/stm32f4xx_tim.c ****   *          This parameter can be one of the following values:
1343:cmsis/device/stm32f4xx_tim.c ****   *            @arg TIM_OCFast_Enable: TIM output compare fast enable
1344:cmsis/device/stm32f4xx_tim.c ****   *            @arg TIM_OCFast_Disable: TIM output compare fast disable
1345:cmsis/device/stm32f4xx_tim.c ****   * @retval None
1346:cmsis/device/stm32f4xx_tim.c ****   */
1347:cmsis/device/stm32f4xx_tim.c **** void TIM_OC1FastConfig(TIM_TypeDef* TIMx, uint16_t TIM_OCFast)
1348:cmsis/device/stm32f4xx_tim.c **** {
 1883              		.loc 1 1348 0
 1884              		.cfi_startproc
 1885              		@ args = 0, pretend = 0, frame = 0
 1886              		@ frame_needed = 0, uses_anonymous_args = 0
 1887              		@ link register save eliminated.
 1888              	.LVL206:
1349:cmsis/device/stm32f4xx_tim.c ****   uint16_t tmpccmr1 = 0;
ARM GAS  C:\Users\CNous\AppData\Local\Temp\ccZi7tDD.s 			page 61


1350:cmsis/device/stm32f4xx_tim.c **** 
1351:cmsis/device/stm32f4xx_tim.c ****   /* Check the parameters */
1352:cmsis/device/stm32f4xx_tim.c ****   assert_param(IS_TIM_LIST1_PERIPH(TIMx));
1353:cmsis/device/stm32f4xx_tim.c ****   assert_param(IS_TIM_OCFAST_STATE(TIM_OCFast));
1354:cmsis/device/stm32f4xx_tim.c **** 
1355:cmsis/device/stm32f4xx_tim.c ****   /* Get the TIMx CCMR1 register value */
1356:cmsis/device/stm32f4xx_tim.c ****   tmpccmr1 = TIMx->CCMR1;
 1889              		.loc 1 1356 0
 1890 0000 038B     		ldrh	r3, [r0, #24]	@, TIMx_2(D)->CCMR1
 1891              	.LVL207:
1357:cmsis/device/stm32f4xx_tim.c **** 
1358:cmsis/device/stm32f4xx_tim.c ****   /* Reset the OC1FE Bit */
1359:cmsis/device/stm32f4xx_tim.c ****   tmpccmr1 &= (uint16_t)~TIM_CCMR1_OC1FE;
 1892              		.loc 1 1359 0
 1893 0002 23F00402 		bic	r2, r3, #4	@ tmpccmr1, TIMx_2(D)->CCMR1,
 1894 0006 1304     		lsls	r3, r2, #16	@ tmpccmr1, tmpccmr1,
 1895              	.LVL208:
 1896 0008 1A0C     		lsrs	r2, r3, #16	@ tmpccmr1, tmpccmr1,
 1897              	.LVL209:
1360:cmsis/device/stm32f4xx_tim.c **** 
1361:cmsis/device/stm32f4xx_tim.c ****   /* Enable or Disable the Output Compare Fast Bit */
1362:cmsis/device/stm32f4xx_tim.c ****   tmpccmr1 |= TIM_OCFast;
 1898              		.loc 1 1362 0
 1899 000a 1143     		orrs	r1, r1, r2	@, tmpccmr1, TIM_OCFast, tmpccmr1
 1900              	.LVL210:
1363:cmsis/device/stm32f4xx_tim.c **** 
1364:cmsis/device/stm32f4xx_tim.c ****   /* Write to TIMx CCMR1 */
1365:cmsis/device/stm32f4xx_tim.c ****   TIMx->CCMR1 = tmpccmr1;
 1901              		.loc 1 1365 0
 1902 000c 0183     		strh	r1, [r0, #24]	@ movhi	@ tmpccmr1, TIMx_2(D)->CCMR1
 1903 000e 7047     		bx	lr	@
 1904              		.cfi_endproc
 1905              	.LFE143:
 1906              		.size	TIM_OC1FastConfig, .-TIM_OC1FastConfig
 1907              		.section	.text.TIM_OC2FastConfig,"ax",%progbits
 1908              		.align	2
 1909              		.global	TIM_OC2FastConfig
 1910              		.thumb
 1911              		.thumb_func
 1912              		.type	TIM_OC2FastConfig, %function
 1913              	TIM_OC2FastConfig:
 1914              	.LFB144:
1366:cmsis/device/stm32f4xx_tim.c **** }
1367:cmsis/device/stm32f4xx_tim.c **** 
1368:cmsis/device/stm32f4xx_tim.c **** /**
1369:cmsis/device/stm32f4xx_tim.c ****   * @brief  Configures the TIMx Output Compare 2 Fast feature.
1370:cmsis/device/stm32f4xx_tim.c ****   * @param  TIMx: where x can be  1, 2, 3, 4, 5, 8, 9 or 12 to select the TIM 
1371:cmsis/device/stm32f4xx_tim.c ****   *         peripheral.
1372:cmsis/device/stm32f4xx_tim.c ****   * @param  TIM_OCFast: new state of the Output Compare Fast Enable Bit.
1373:cmsis/device/stm32f4xx_tim.c ****   *          This parameter can be one of the following values:
1374:cmsis/device/stm32f4xx_tim.c ****   *            @arg TIM_OCFast_Enable: TIM output compare fast enable
1375:cmsis/device/stm32f4xx_tim.c ****   *            @arg TIM_OCFast_Disable: TIM output compare fast disable
1376:cmsis/device/stm32f4xx_tim.c ****   * @retval None
1377:cmsis/device/stm32f4xx_tim.c ****   */
1378:cmsis/device/stm32f4xx_tim.c **** void TIM_OC2FastConfig(TIM_TypeDef* TIMx, uint16_t TIM_OCFast)
1379:cmsis/device/stm32f4xx_tim.c **** {
 1915              		.loc 1 1379 0
ARM GAS  C:\Users\CNous\AppData\Local\Temp\ccZi7tDD.s 			page 62


 1916              		.cfi_startproc
 1917              		@ args = 0, pretend = 0, frame = 0
 1918              		@ frame_needed = 0, uses_anonymous_args = 0
 1919              		@ link register save eliminated.
 1920              	.LVL211:
1380:cmsis/device/stm32f4xx_tim.c ****   uint16_t tmpccmr1 = 0;
1381:cmsis/device/stm32f4xx_tim.c **** 
1382:cmsis/device/stm32f4xx_tim.c ****   /* Check the parameters */
1383:cmsis/device/stm32f4xx_tim.c ****   assert_param(IS_TIM_LIST2_PERIPH(TIMx));
1384:cmsis/device/stm32f4xx_tim.c ****   assert_param(IS_TIM_OCFAST_STATE(TIM_OCFast));
1385:cmsis/device/stm32f4xx_tim.c **** 
1386:cmsis/device/stm32f4xx_tim.c ****   /* Get the TIMx CCMR1 register value */
1387:cmsis/device/stm32f4xx_tim.c ****   tmpccmr1 = TIMx->CCMR1;
 1921              		.loc 1 1387 0
 1922 0000 038B     		ldrh	r3, [r0, #24]	@, TIMx_2(D)->CCMR1
 1923              	.LVL212:
1388:cmsis/device/stm32f4xx_tim.c **** 
1389:cmsis/device/stm32f4xx_tim.c ****   /* Reset the OC2FE Bit */
1390:cmsis/device/stm32f4xx_tim.c ****   tmpccmr1 &= (uint16_t)(~TIM_CCMR1_OC2FE);
 1924              		.loc 1 1390 0
 1925 0002 23F48062 		bic	r2, r3, #1024	@ tmpccmr1, TIMx_2(D)->CCMR1,
 1926 0006 1304     		lsls	r3, r2, #16	@ tmpccmr1, tmpccmr1,
 1927              	.LVL213:
 1928 0008 1A0C     		lsrs	r2, r3, #16	@ tmpccmr1, tmpccmr1,
 1929              	.LVL214:
1391:cmsis/device/stm32f4xx_tim.c **** 
1392:cmsis/device/stm32f4xx_tim.c ****   /* Enable or Disable the Output Compare Fast Bit */
1393:cmsis/device/stm32f4xx_tim.c ****   tmpccmr1 |= (uint16_t)(TIM_OCFast << 8);
 1930              		.loc 1 1393 0
 1931 000a 42EA0121 		orr	r1, r2, r1, lsl #8	@, tmp145, tmpccmr1, TIM_OCFast,
 1932              	.LVL215:
 1933 000e 8BB2     		uxth	r3, r1	@ tmpccmr1, tmp145
 1934              	.LVL216:
1394:cmsis/device/stm32f4xx_tim.c **** 
1395:cmsis/device/stm32f4xx_tim.c ****   /* Write to TIMx CCMR1 */
1396:cmsis/device/stm32f4xx_tim.c ****   TIMx->CCMR1 = tmpccmr1;
 1935              		.loc 1 1396 0
 1936 0010 0383     		strh	r3, [r0, #24]	@ movhi	@ tmpccmr1, TIMx_2(D)->CCMR1
 1937 0012 7047     		bx	lr	@
 1938              		.cfi_endproc
 1939              	.LFE144:
 1940              		.size	TIM_OC2FastConfig, .-TIM_OC2FastConfig
 1941              		.section	.text.TIM_OC3FastConfig,"ax",%progbits
 1942              		.align	2
 1943              		.global	TIM_OC3FastConfig
 1944              		.thumb
 1945              		.thumb_func
 1946              		.type	TIM_OC3FastConfig, %function
 1947              	TIM_OC3FastConfig:
 1948              	.LFB145:
1397:cmsis/device/stm32f4xx_tim.c **** }
1398:cmsis/device/stm32f4xx_tim.c **** 
1399:cmsis/device/stm32f4xx_tim.c **** /**
1400:cmsis/device/stm32f4xx_tim.c ****   * @brief  Configures the TIMx Output Compare 3 Fast feature.
1401:cmsis/device/stm32f4xx_tim.c ****   * @param  TIMx: where x can be  1, 2, 3, 4, 5 or 8 to select the TIM peripheral.
1402:cmsis/device/stm32f4xx_tim.c ****   * @param  TIM_OCFast: new state of the Output Compare Fast Enable Bit.
1403:cmsis/device/stm32f4xx_tim.c ****   *          This parameter can be one of the following values:
ARM GAS  C:\Users\CNous\AppData\Local\Temp\ccZi7tDD.s 			page 63


1404:cmsis/device/stm32f4xx_tim.c ****   *            @arg TIM_OCFast_Enable: TIM output compare fast enable
1405:cmsis/device/stm32f4xx_tim.c ****   *            @arg TIM_OCFast_Disable: TIM output compare fast disable
1406:cmsis/device/stm32f4xx_tim.c ****   * @retval None
1407:cmsis/device/stm32f4xx_tim.c ****   */
1408:cmsis/device/stm32f4xx_tim.c **** void TIM_OC3FastConfig(TIM_TypeDef* TIMx, uint16_t TIM_OCFast)
1409:cmsis/device/stm32f4xx_tim.c **** {
 1949              		.loc 1 1409 0
 1950              		.cfi_startproc
 1951              		@ args = 0, pretend = 0, frame = 0
 1952              		@ frame_needed = 0, uses_anonymous_args = 0
 1953              		@ link register save eliminated.
 1954              	.LVL217:
1410:cmsis/device/stm32f4xx_tim.c ****   uint16_t tmpccmr2 = 0;
1411:cmsis/device/stm32f4xx_tim.c ****   
1412:cmsis/device/stm32f4xx_tim.c ****   /* Check the parameters */
1413:cmsis/device/stm32f4xx_tim.c ****   assert_param(IS_TIM_LIST3_PERIPH(TIMx));
1414:cmsis/device/stm32f4xx_tim.c ****   assert_param(IS_TIM_OCFAST_STATE(TIM_OCFast));
1415:cmsis/device/stm32f4xx_tim.c **** 
1416:cmsis/device/stm32f4xx_tim.c ****   /* Get the TIMx CCMR2 register value */
1417:cmsis/device/stm32f4xx_tim.c ****   tmpccmr2 = TIMx->CCMR2;
 1955              		.loc 1 1417 0
 1956 0000 838B     		ldrh	r3, [r0, #28]	@, TIMx_2(D)->CCMR2
 1957              	.LVL218:
1418:cmsis/device/stm32f4xx_tim.c **** 
1419:cmsis/device/stm32f4xx_tim.c ****   /* Reset the OC3FE Bit */
1420:cmsis/device/stm32f4xx_tim.c ****   tmpccmr2 &= (uint16_t)~TIM_CCMR2_OC3FE;
 1958              		.loc 1 1420 0
 1959 0002 23F00402 		bic	r2, r3, #4	@ tmpccmr2, TIMx_2(D)->CCMR2,
 1960 0006 1304     		lsls	r3, r2, #16	@ tmpccmr2, tmpccmr2,
 1961              	.LVL219:
 1962 0008 1A0C     		lsrs	r2, r3, #16	@ tmpccmr2, tmpccmr2,
 1963              	.LVL220:
1421:cmsis/device/stm32f4xx_tim.c **** 
1422:cmsis/device/stm32f4xx_tim.c ****   /* Enable or Disable the Output Compare Fast Bit */
1423:cmsis/device/stm32f4xx_tim.c ****   tmpccmr2 |= TIM_OCFast;
 1964              		.loc 1 1423 0
 1965 000a 1143     		orrs	r1, r1, r2	@, tmpccmr2, TIM_OCFast, tmpccmr2
 1966              	.LVL221:
1424:cmsis/device/stm32f4xx_tim.c **** 
1425:cmsis/device/stm32f4xx_tim.c ****   /* Write to TIMx CCMR2 */
1426:cmsis/device/stm32f4xx_tim.c ****   TIMx->CCMR2 = tmpccmr2;
 1967              		.loc 1 1426 0
 1968 000c 8183     		strh	r1, [r0, #28]	@ movhi	@ tmpccmr2, TIMx_2(D)->CCMR2
 1969 000e 7047     		bx	lr	@
 1970              		.cfi_endproc
 1971              	.LFE145:
 1972              		.size	TIM_OC3FastConfig, .-TIM_OC3FastConfig
 1973              		.section	.text.TIM_OC4FastConfig,"ax",%progbits
 1974              		.align	2
 1975              		.global	TIM_OC4FastConfig
 1976              		.thumb
 1977              		.thumb_func
 1978              		.type	TIM_OC4FastConfig, %function
 1979              	TIM_OC4FastConfig:
 1980              	.LFB146:
1427:cmsis/device/stm32f4xx_tim.c **** }
1428:cmsis/device/stm32f4xx_tim.c **** 
ARM GAS  C:\Users\CNous\AppData\Local\Temp\ccZi7tDD.s 			page 64


1429:cmsis/device/stm32f4xx_tim.c **** /**
1430:cmsis/device/stm32f4xx_tim.c ****   * @brief  Configures the TIMx Output Compare 4 Fast feature.
1431:cmsis/device/stm32f4xx_tim.c ****   * @param  TIMx: where x can be  1, 2, 3, 4, 5 or 8 to select the TIM peripheral.
1432:cmsis/device/stm32f4xx_tim.c ****   * @param  TIM_OCFast: new state of the Output Compare Fast Enable Bit.
1433:cmsis/device/stm32f4xx_tim.c ****   *          This parameter can be one of the following values:
1434:cmsis/device/stm32f4xx_tim.c ****   *            @arg TIM_OCFast_Enable: TIM output compare fast enable
1435:cmsis/device/stm32f4xx_tim.c ****   *            @arg TIM_OCFast_Disable: TIM output compare fast disable
1436:cmsis/device/stm32f4xx_tim.c ****   * @retval None
1437:cmsis/device/stm32f4xx_tim.c ****   */
1438:cmsis/device/stm32f4xx_tim.c **** void TIM_OC4FastConfig(TIM_TypeDef* TIMx, uint16_t TIM_OCFast)
1439:cmsis/device/stm32f4xx_tim.c **** {
 1981              		.loc 1 1439 0
 1982              		.cfi_startproc
 1983              		@ args = 0, pretend = 0, frame = 0
 1984              		@ frame_needed = 0, uses_anonymous_args = 0
 1985              		@ link register save eliminated.
 1986              	.LVL222:
1440:cmsis/device/stm32f4xx_tim.c ****   uint16_t tmpccmr2 = 0;
1441:cmsis/device/stm32f4xx_tim.c **** 
1442:cmsis/device/stm32f4xx_tim.c ****   /* Check the parameters */
1443:cmsis/device/stm32f4xx_tim.c ****   assert_param(IS_TIM_LIST3_PERIPH(TIMx));
1444:cmsis/device/stm32f4xx_tim.c ****   assert_param(IS_TIM_OCFAST_STATE(TIM_OCFast));
1445:cmsis/device/stm32f4xx_tim.c **** 
1446:cmsis/device/stm32f4xx_tim.c ****   /* Get the TIMx CCMR2 register value */
1447:cmsis/device/stm32f4xx_tim.c ****   tmpccmr2 = TIMx->CCMR2;
 1987              		.loc 1 1447 0
 1988 0000 838B     		ldrh	r3, [r0, #28]	@, TIMx_2(D)->CCMR2
 1989              	.LVL223:
1448:cmsis/device/stm32f4xx_tim.c **** 
1449:cmsis/device/stm32f4xx_tim.c ****   /* Reset the OC4FE Bit */
1450:cmsis/device/stm32f4xx_tim.c ****   tmpccmr2 &= (uint16_t)(~TIM_CCMR2_OC4FE);
 1990              		.loc 1 1450 0
 1991 0002 23F48062 		bic	r2, r3, #1024	@ tmpccmr2, TIMx_2(D)->CCMR2,
 1992 0006 1304     		lsls	r3, r2, #16	@ tmpccmr2, tmpccmr2,
 1993              	.LVL224:
 1994 0008 1A0C     		lsrs	r2, r3, #16	@ tmpccmr2, tmpccmr2,
 1995              	.LVL225:
1451:cmsis/device/stm32f4xx_tim.c **** 
1452:cmsis/device/stm32f4xx_tim.c ****   /* Enable or Disable the Output Compare Fast Bit */
1453:cmsis/device/stm32f4xx_tim.c ****   tmpccmr2 |= (uint16_t)(TIM_OCFast << 8);
 1996              		.loc 1 1453 0
 1997 000a 42EA0121 		orr	r1, r2, r1, lsl #8	@, tmp145, tmpccmr2, TIM_OCFast,
 1998              	.LVL226:
 1999 000e 8BB2     		uxth	r3, r1	@ tmpccmr2, tmp145
 2000              	.LVL227:
1454:cmsis/device/stm32f4xx_tim.c **** 
1455:cmsis/device/stm32f4xx_tim.c ****   /* Write to TIMx CCMR2 */
1456:cmsis/device/stm32f4xx_tim.c ****   TIMx->CCMR2 = tmpccmr2;
 2001              		.loc 1 1456 0
 2002 0010 8383     		strh	r3, [r0, #28]	@ movhi	@ tmpccmr2, TIMx_2(D)->CCMR2
 2003 0012 7047     		bx	lr	@
 2004              		.cfi_endproc
 2005              	.LFE146:
 2006              		.size	TIM_OC4FastConfig, .-TIM_OC4FastConfig
 2007              		.section	.text.TIM_ClearOC1Ref,"ax",%progbits
 2008              		.align	2
 2009              		.global	TIM_ClearOC1Ref
ARM GAS  C:\Users\CNous\AppData\Local\Temp\ccZi7tDD.s 			page 65


 2010              		.thumb
 2011              		.thumb_func
 2012              		.type	TIM_ClearOC1Ref, %function
 2013              	TIM_ClearOC1Ref:
 2014              	.LFB147:
1457:cmsis/device/stm32f4xx_tim.c **** }
1458:cmsis/device/stm32f4xx_tim.c **** 
1459:cmsis/device/stm32f4xx_tim.c **** /**
1460:cmsis/device/stm32f4xx_tim.c ****   * @brief  Clears or safeguards the OCREF1 signal on an external event
1461:cmsis/device/stm32f4xx_tim.c ****   * @param  TIMx: where x can be 1 to 14 except 6 and 7, to select the TIM peripheral.
1462:cmsis/device/stm32f4xx_tim.c ****   * @param  TIM_OCClear: new state of the Output Compare Clear Enable Bit.
1463:cmsis/device/stm32f4xx_tim.c ****   *          This parameter can be one of the following values:
1464:cmsis/device/stm32f4xx_tim.c ****   *            @arg TIM_OCClear_Enable: TIM Output clear enable
1465:cmsis/device/stm32f4xx_tim.c ****   *            @arg TIM_OCClear_Disable: TIM Output clear disable
1466:cmsis/device/stm32f4xx_tim.c ****   * @retval None
1467:cmsis/device/stm32f4xx_tim.c ****   */
1468:cmsis/device/stm32f4xx_tim.c **** void TIM_ClearOC1Ref(TIM_TypeDef* TIMx, uint16_t TIM_OCClear)
1469:cmsis/device/stm32f4xx_tim.c **** {
 2015              		.loc 1 1469 0
 2016              		.cfi_startproc
 2017              		@ args = 0, pretend = 0, frame = 0
 2018              		@ frame_needed = 0, uses_anonymous_args = 0
 2019              		@ link register save eliminated.
 2020              	.LVL228:
1470:cmsis/device/stm32f4xx_tim.c ****   uint16_t tmpccmr1 = 0;
1471:cmsis/device/stm32f4xx_tim.c **** 
1472:cmsis/device/stm32f4xx_tim.c ****   /* Check the parameters */
1473:cmsis/device/stm32f4xx_tim.c ****   assert_param(IS_TIM_LIST1_PERIPH(TIMx));
1474:cmsis/device/stm32f4xx_tim.c ****   assert_param(IS_TIM_OCCLEAR_STATE(TIM_OCClear));
1475:cmsis/device/stm32f4xx_tim.c **** 
1476:cmsis/device/stm32f4xx_tim.c ****   tmpccmr1 = TIMx->CCMR1;
 2021              		.loc 1 1476 0
 2022 0000 038B     		ldrh	r3, [r0, #24]	@, TIMx_2(D)->CCMR1
 2023              	.LVL229:
1477:cmsis/device/stm32f4xx_tim.c **** 
1478:cmsis/device/stm32f4xx_tim.c ****   /* Reset the OC1CE Bit */
1479:cmsis/device/stm32f4xx_tim.c ****   tmpccmr1 &= (uint16_t)~TIM_CCMR1_OC1CE;
 2024              		.loc 1 1479 0
 2025 0002 23F08002 		bic	r2, r3, #128	@ tmpccmr1, TIMx_2(D)->CCMR1,
 2026 0006 1304     		lsls	r3, r2, #16	@ tmpccmr1, tmpccmr1,
 2027              	.LVL230:
 2028 0008 1A0C     		lsrs	r2, r3, #16	@ tmpccmr1, tmpccmr1,
 2029              	.LVL231:
1480:cmsis/device/stm32f4xx_tim.c **** 
1481:cmsis/device/stm32f4xx_tim.c ****   /* Enable or Disable the Output Compare Clear Bit */
1482:cmsis/device/stm32f4xx_tim.c ****   tmpccmr1 |= TIM_OCClear;
 2030              		.loc 1 1482 0
 2031 000a 1143     		orrs	r1, r1, r2	@, tmpccmr1, TIM_OCClear, tmpccmr1
 2032              	.LVL232:
1483:cmsis/device/stm32f4xx_tim.c **** 
1484:cmsis/device/stm32f4xx_tim.c ****   /* Write to TIMx CCMR1 register */
1485:cmsis/device/stm32f4xx_tim.c ****   TIMx->CCMR1 = tmpccmr1;
 2033              		.loc 1 1485 0
 2034 000c 0183     		strh	r1, [r0, #24]	@ movhi	@ tmpccmr1, TIMx_2(D)->CCMR1
 2035 000e 7047     		bx	lr	@
 2036              		.cfi_endproc
 2037              	.LFE147:
ARM GAS  C:\Users\CNous\AppData\Local\Temp\ccZi7tDD.s 			page 66


 2038              		.size	TIM_ClearOC1Ref, .-TIM_ClearOC1Ref
 2039              		.section	.text.TIM_ClearOC2Ref,"ax",%progbits
 2040              		.align	2
 2041              		.global	TIM_ClearOC2Ref
 2042              		.thumb
 2043              		.thumb_func
 2044              		.type	TIM_ClearOC2Ref, %function
 2045              	TIM_ClearOC2Ref:
 2046              	.LFB148:
1486:cmsis/device/stm32f4xx_tim.c **** }
1487:cmsis/device/stm32f4xx_tim.c **** 
1488:cmsis/device/stm32f4xx_tim.c **** /**
1489:cmsis/device/stm32f4xx_tim.c ****   * @brief  Clears or safeguards the OCREF2 signal on an external event
1490:cmsis/device/stm32f4xx_tim.c ****   * @param  TIMx: where x can be  1, 2, 3, 4, 5, 8, 9 or 12 to select the TIM 
1491:cmsis/device/stm32f4xx_tim.c ****   *         peripheral.
1492:cmsis/device/stm32f4xx_tim.c ****   * @param  TIM_OCClear: new state of the Output Compare Clear Enable Bit.
1493:cmsis/device/stm32f4xx_tim.c ****   *          This parameter can be one of the following values:
1494:cmsis/device/stm32f4xx_tim.c ****   *            @arg TIM_OCClear_Enable: TIM Output clear enable
1495:cmsis/device/stm32f4xx_tim.c ****   *            @arg TIM_OCClear_Disable: TIM Output clear disable
1496:cmsis/device/stm32f4xx_tim.c ****   * @retval None
1497:cmsis/device/stm32f4xx_tim.c ****   */
1498:cmsis/device/stm32f4xx_tim.c **** void TIM_ClearOC2Ref(TIM_TypeDef* TIMx, uint16_t TIM_OCClear)
1499:cmsis/device/stm32f4xx_tim.c **** {
 2047              		.loc 1 1499 0
 2048              		.cfi_startproc
 2049              		@ args = 0, pretend = 0, frame = 0
 2050              		@ frame_needed = 0, uses_anonymous_args = 0
 2051              		@ link register save eliminated.
 2052              	.LVL233:
1500:cmsis/device/stm32f4xx_tim.c ****   uint16_t tmpccmr1 = 0;
1501:cmsis/device/stm32f4xx_tim.c **** 
1502:cmsis/device/stm32f4xx_tim.c ****   /* Check the parameters */
1503:cmsis/device/stm32f4xx_tim.c ****   assert_param(IS_TIM_LIST2_PERIPH(TIMx));
1504:cmsis/device/stm32f4xx_tim.c ****   assert_param(IS_TIM_OCCLEAR_STATE(TIM_OCClear));
1505:cmsis/device/stm32f4xx_tim.c **** 
1506:cmsis/device/stm32f4xx_tim.c ****   tmpccmr1 = TIMx->CCMR1;
 2053              		.loc 1 1506 0
 2054 0000 038B     		ldrh	r3, [r0, #24]	@, TIMx_2(D)->CCMR1
 2055              	.LVL234:
1507:cmsis/device/stm32f4xx_tim.c **** 
1508:cmsis/device/stm32f4xx_tim.c ****   /* Reset the OC2CE Bit */
1509:cmsis/device/stm32f4xx_tim.c ****   tmpccmr1 &= (uint16_t)~TIM_CCMR1_OC2CE;
 2056              		.loc 1 1509 0
 2057 0002 5A04     		lsls	r2, r3, #17	@ tmpccmr1, TIMx_2(D)->CCMR1,
 2058 0004 530C     		lsrs	r3, r2, #17	@ tmpccmr1, tmpccmr1,
 2059              	.LVL235:
1510:cmsis/device/stm32f4xx_tim.c **** 
1511:cmsis/device/stm32f4xx_tim.c ****   /* Enable or Disable the Output Compare Clear Bit */
1512:cmsis/device/stm32f4xx_tim.c ****   tmpccmr1 |= (uint16_t)(TIM_OCClear << 8);
 2060              		.loc 1 1512 0
 2061 0006 43EA0121 		orr	r1, r3, r1, lsl #8	@, tmp146, tmpccmr1, TIM_OCClear,
 2062              	.LVL236:
 2063 000a 8AB2     		uxth	r2, r1	@ tmpccmr1, tmp146
 2064              	.LVL237:
1513:cmsis/device/stm32f4xx_tim.c **** 
1514:cmsis/device/stm32f4xx_tim.c ****   /* Write to TIMx CCMR1 register */
1515:cmsis/device/stm32f4xx_tim.c ****   TIMx->CCMR1 = tmpccmr1;
ARM GAS  C:\Users\CNous\AppData\Local\Temp\ccZi7tDD.s 			page 67


 2065              		.loc 1 1515 0
 2066 000c 0283     		strh	r2, [r0, #24]	@ movhi	@ tmpccmr1, TIMx_2(D)->CCMR1
 2067 000e 7047     		bx	lr	@
 2068              		.cfi_endproc
 2069              	.LFE148:
 2070              		.size	TIM_ClearOC2Ref, .-TIM_ClearOC2Ref
 2071              		.section	.text.TIM_ClearOC3Ref,"ax",%progbits
 2072              		.align	2
 2073              		.global	TIM_ClearOC3Ref
 2074              		.thumb
 2075              		.thumb_func
 2076              		.type	TIM_ClearOC3Ref, %function
 2077              	TIM_ClearOC3Ref:
 2078              	.LFB149:
1516:cmsis/device/stm32f4xx_tim.c **** }
1517:cmsis/device/stm32f4xx_tim.c **** 
1518:cmsis/device/stm32f4xx_tim.c **** /**
1519:cmsis/device/stm32f4xx_tim.c ****   * @brief  Clears or safeguards the OCREF3 signal on an external event
1520:cmsis/device/stm32f4xx_tim.c ****   * @param  TIMx: where x can be  1, 2, 3, 4, 5 or 8 to select the TIM peripheral.
1521:cmsis/device/stm32f4xx_tim.c ****   * @param  TIM_OCClear: new state of the Output Compare Clear Enable Bit.
1522:cmsis/device/stm32f4xx_tim.c ****   *          This parameter can be one of the following values:
1523:cmsis/device/stm32f4xx_tim.c ****   *            @arg TIM_OCClear_Enable: TIM Output clear enable
1524:cmsis/device/stm32f4xx_tim.c ****   *            @arg TIM_OCClear_Disable: TIM Output clear disable
1525:cmsis/device/stm32f4xx_tim.c ****   * @retval None
1526:cmsis/device/stm32f4xx_tim.c ****   */
1527:cmsis/device/stm32f4xx_tim.c **** void TIM_ClearOC3Ref(TIM_TypeDef* TIMx, uint16_t TIM_OCClear)
1528:cmsis/device/stm32f4xx_tim.c **** {
 2079              		.loc 1 1528 0
 2080              		.cfi_startproc
 2081              		@ args = 0, pretend = 0, frame = 0
 2082              		@ frame_needed = 0, uses_anonymous_args = 0
 2083              		@ link register save eliminated.
 2084              	.LVL238:
1529:cmsis/device/stm32f4xx_tim.c ****   uint16_t tmpccmr2 = 0;
1530:cmsis/device/stm32f4xx_tim.c **** 
1531:cmsis/device/stm32f4xx_tim.c ****   /* Check the parameters */
1532:cmsis/device/stm32f4xx_tim.c ****   assert_param(IS_TIM_LIST3_PERIPH(TIMx));
1533:cmsis/device/stm32f4xx_tim.c ****   assert_param(IS_TIM_OCCLEAR_STATE(TIM_OCClear));
1534:cmsis/device/stm32f4xx_tim.c **** 
1535:cmsis/device/stm32f4xx_tim.c ****   tmpccmr2 = TIMx->CCMR2;
 2085              		.loc 1 1535 0
 2086 0000 838B     		ldrh	r3, [r0, #28]	@, TIMx_2(D)->CCMR2
 2087              	.LVL239:
1536:cmsis/device/stm32f4xx_tim.c **** 
1537:cmsis/device/stm32f4xx_tim.c ****   /* Reset the OC3CE Bit */
1538:cmsis/device/stm32f4xx_tim.c ****   tmpccmr2 &= (uint16_t)~TIM_CCMR2_OC3CE;
 2088              		.loc 1 1538 0
 2089 0002 23F08002 		bic	r2, r3, #128	@ tmpccmr2, TIMx_2(D)->CCMR2,
 2090 0006 1304     		lsls	r3, r2, #16	@ tmpccmr2, tmpccmr2,
 2091              	.LVL240:
 2092 0008 1A0C     		lsrs	r2, r3, #16	@ tmpccmr2, tmpccmr2,
 2093              	.LVL241:
1539:cmsis/device/stm32f4xx_tim.c **** 
1540:cmsis/device/stm32f4xx_tim.c ****   /* Enable or Disable the Output Compare Clear Bit */
1541:cmsis/device/stm32f4xx_tim.c ****   tmpccmr2 |= TIM_OCClear;
 2094              		.loc 1 1541 0
 2095 000a 1143     		orrs	r1, r1, r2	@, tmpccmr2, TIM_OCClear, tmpccmr2
ARM GAS  C:\Users\CNous\AppData\Local\Temp\ccZi7tDD.s 			page 68


 2096              	.LVL242:
1542:cmsis/device/stm32f4xx_tim.c **** 
1543:cmsis/device/stm32f4xx_tim.c ****   /* Write to TIMx CCMR2 register */
1544:cmsis/device/stm32f4xx_tim.c ****   TIMx->CCMR2 = tmpccmr2;
 2097              		.loc 1 1544 0
 2098 000c 8183     		strh	r1, [r0, #28]	@ movhi	@ tmpccmr2, TIMx_2(D)->CCMR2
 2099 000e 7047     		bx	lr	@
 2100              		.cfi_endproc
 2101              	.LFE149:
 2102              		.size	TIM_ClearOC3Ref, .-TIM_ClearOC3Ref
 2103              		.section	.text.TIM_ClearOC4Ref,"ax",%progbits
 2104              		.align	2
 2105              		.global	TIM_ClearOC4Ref
 2106              		.thumb
 2107              		.thumb_func
 2108              		.type	TIM_ClearOC4Ref, %function
 2109              	TIM_ClearOC4Ref:
 2110              	.LFB150:
1545:cmsis/device/stm32f4xx_tim.c **** }
1546:cmsis/device/stm32f4xx_tim.c **** 
1547:cmsis/device/stm32f4xx_tim.c **** /**
1548:cmsis/device/stm32f4xx_tim.c ****   * @brief  Clears or safeguards the OCREF4 signal on an external event
1549:cmsis/device/stm32f4xx_tim.c ****   * @param  TIMx: where x can be  1, 2, 3, 4, 5 or 8 to select the TIM peripheral.
1550:cmsis/device/stm32f4xx_tim.c ****   * @param  TIM_OCClear: new state of the Output Compare Clear Enable Bit.
1551:cmsis/device/stm32f4xx_tim.c ****   *          This parameter can be one of the following values:
1552:cmsis/device/stm32f4xx_tim.c ****   *            @arg TIM_OCClear_Enable: TIM Output clear enable
1553:cmsis/device/stm32f4xx_tim.c ****   *            @arg TIM_OCClear_Disable: TIM Output clear disable
1554:cmsis/device/stm32f4xx_tim.c ****   * @retval None
1555:cmsis/device/stm32f4xx_tim.c ****   */
1556:cmsis/device/stm32f4xx_tim.c **** void TIM_ClearOC4Ref(TIM_TypeDef* TIMx, uint16_t TIM_OCClear)
1557:cmsis/device/stm32f4xx_tim.c **** {
 2111              		.loc 1 1557 0
 2112              		.cfi_startproc
 2113              		@ args = 0, pretend = 0, frame = 0
 2114              		@ frame_needed = 0, uses_anonymous_args = 0
 2115              		@ link register save eliminated.
 2116              	.LVL243:
1558:cmsis/device/stm32f4xx_tim.c ****   uint16_t tmpccmr2 = 0;
1559:cmsis/device/stm32f4xx_tim.c **** 
1560:cmsis/device/stm32f4xx_tim.c ****   /* Check the parameters */
1561:cmsis/device/stm32f4xx_tim.c ****   assert_param(IS_TIM_LIST3_PERIPH(TIMx));
1562:cmsis/device/stm32f4xx_tim.c ****   assert_param(IS_TIM_OCCLEAR_STATE(TIM_OCClear));
1563:cmsis/device/stm32f4xx_tim.c **** 
1564:cmsis/device/stm32f4xx_tim.c ****   tmpccmr2 = TIMx->CCMR2;
 2117              		.loc 1 1564 0
 2118 0000 838B     		ldrh	r3, [r0, #28]	@, TIMx_2(D)->CCMR2
 2119              	.LVL244:
1565:cmsis/device/stm32f4xx_tim.c **** 
1566:cmsis/device/stm32f4xx_tim.c ****   /* Reset the OC4CE Bit */
1567:cmsis/device/stm32f4xx_tim.c ****   tmpccmr2 &= (uint16_t)~TIM_CCMR2_OC4CE;
 2120              		.loc 1 1567 0
 2121 0002 5A04     		lsls	r2, r3, #17	@ tmpccmr2, TIMx_2(D)->CCMR2,
 2122 0004 530C     		lsrs	r3, r2, #17	@ tmpccmr2, tmpccmr2,
 2123              	.LVL245:
1568:cmsis/device/stm32f4xx_tim.c **** 
1569:cmsis/device/stm32f4xx_tim.c ****   /* Enable or Disable the Output Compare Clear Bit */
1570:cmsis/device/stm32f4xx_tim.c ****   tmpccmr2 |= (uint16_t)(TIM_OCClear << 8);
ARM GAS  C:\Users\CNous\AppData\Local\Temp\ccZi7tDD.s 			page 69


 2124              		.loc 1 1570 0
 2125 0006 43EA0121 		orr	r1, r3, r1, lsl #8	@, tmp146, tmpccmr2, TIM_OCClear,
 2126              	.LVL246:
 2127 000a 8AB2     		uxth	r2, r1	@ tmpccmr2, tmp146
 2128              	.LVL247:
1571:cmsis/device/stm32f4xx_tim.c **** 
1572:cmsis/device/stm32f4xx_tim.c ****   /* Write to TIMx CCMR2 register */
1573:cmsis/device/stm32f4xx_tim.c ****   TIMx->CCMR2 = tmpccmr2;
 2129              		.loc 1 1573 0
 2130 000c 8283     		strh	r2, [r0, #28]	@ movhi	@ tmpccmr2, TIMx_2(D)->CCMR2
 2131 000e 7047     		bx	lr	@
 2132              		.cfi_endproc
 2133              	.LFE150:
 2134              		.size	TIM_ClearOC4Ref, .-TIM_ClearOC4Ref
 2135              		.section	.text.TIM_OC1PolarityConfig,"ax",%progbits
 2136              		.align	2
 2137              		.global	TIM_OC1PolarityConfig
 2138              		.thumb
 2139              		.thumb_func
 2140              		.type	TIM_OC1PolarityConfig, %function
 2141              	TIM_OC1PolarityConfig:
 2142              	.LFB151:
1574:cmsis/device/stm32f4xx_tim.c **** }
1575:cmsis/device/stm32f4xx_tim.c **** 
1576:cmsis/device/stm32f4xx_tim.c **** /**
1577:cmsis/device/stm32f4xx_tim.c ****   * @brief  Configures the TIMx channel 1 polarity.
1578:cmsis/device/stm32f4xx_tim.c ****   * @param  TIMx: where x can be 1 to 14 except 6 and 7, to select the TIM peripheral.
1579:cmsis/device/stm32f4xx_tim.c ****   * @param  TIM_OCPolarity: specifies the OC1 Polarity
1580:cmsis/device/stm32f4xx_tim.c ****   *          This parameter can be one of the following values:
1581:cmsis/device/stm32f4xx_tim.c ****   *            @arg TIM_OCPolarity_High: Output Compare active high
1582:cmsis/device/stm32f4xx_tim.c ****   *            @arg TIM_OCPolarity_Low: Output Compare active low
1583:cmsis/device/stm32f4xx_tim.c ****   * @retval None
1584:cmsis/device/stm32f4xx_tim.c ****   */
1585:cmsis/device/stm32f4xx_tim.c **** void TIM_OC1PolarityConfig(TIM_TypeDef* TIMx, uint16_t TIM_OCPolarity)
1586:cmsis/device/stm32f4xx_tim.c **** {
 2143              		.loc 1 1586 0
 2144              		.cfi_startproc
 2145              		@ args = 0, pretend = 0, frame = 0
 2146              		@ frame_needed = 0, uses_anonymous_args = 0
 2147              		@ link register save eliminated.
 2148              	.LVL248:
1587:cmsis/device/stm32f4xx_tim.c ****   uint16_t tmpccer = 0;
1588:cmsis/device/stm32f4xx_tim.c **** 
1589:cmsis/device/stm32f4xx_tim.c ****   /* Check the parameters */
1590:cmsis/device/stm32f4xx_tim.c ****   assert_param(IS_TIM_LIST1_PERIPH(TIMx));
1591:cmsis/device/stm32f4xx_tim.c ****   assert_param(IS_TIM_OC_POLARITY(TIM_OCPolarity));
1592:cmsis/device/stm32f4xx_tim.c **** 
1593:cmsis/device/stm32f4xx_tim.c ****   tmpccer = TIMx->CCER;
 2149              		.loc 1 1593 0
 2150 0000 038C     		ldrh	r3, [r0, #32]	@, TIMx_2(D)->CCER
 2151              	.LVL249:
1594:cmsis/device/stm32f4xx_tim.c **** 
1595:cmsis/device/stm32f4xx_tim.c ****   /* Set or Reset the CC1P Bit */
1596:cmsis/device/stm32f4xx_tim.c ****   tmpccer &= (uint16_t)(~TIM_CCER_CC1P);
 2152              		.loc 1 1596 0
 2153 0002 23F00202 		bic	r2, r3, #2	@ tmpccer, TIMx_2(D)->CCER,
 2154 0006 1304     		lsls	r3, r2, #16	@ tmpccer, tmpccer,
ARM GAS  C:\Users\CNous\AppData\Local\Temp\ccZi7tDD.s 			page 70


 2155              	.LVL250:
 2156 0008 1A0C     		lsrs	r2, r3, #16	@ tmpccer, tmpccer,
 2157              	.LVL251:
1597:cmsis/device/stm32f4xx_tim.c ****   tmpccer |= TIM_OCPolarity;
 2158              		.loc 1 1597 0
 2159 000a 1143     		orrs	r1, r1, r2	@, tmpccer, TIM_OCPolarity, tmpccer
 2160              	.LVL252:
1598:cmsis/device/stm32f4xx_tim.c **** 
1599:cmsis/device/stm32f4xx_tim.c ****   /* Write to TIMx CCER register */
1600:cmsis/device/stm32f4xx_tim.c ****   TIMx->CCER = tmpccer;
 2161              		.loc 1 1600 0
 2162 000c 0184     		strh	r1, [r0, #32]	@ movhi	@ tmpccer, TIMx_2(D)->CCER
 2163 000e 7047     		bx	lr	@
 2164              		.cfi_endproc
 2165              	.LFE151:
 2166              		.size	TIM_OC1PolarityConfig, .-TIM_OC1PolarityConfig
 2167              		.section	.text.TIM_OC1NPolarityConfig,"ax",%progbits
 2168              		.align	2
 2169              		.global	TIM_OC1NPolarityConfig
 2170              		.thumb
 2171              		.thumb_func
 2172              		.type	TIM_OC1NPolarityConfig, %function
 2173              	TIM_OC1NPolarityConfig:
 2174              	.LFB152:
1601:cmsis/device/stm32f4xx_tim.c **** }
1602:cmsis/device/stm32f4xx_tim.c **** 
1603:cmsis/device/stm32f4xx_tim.c **** /**
1604:cmsis/device/stm32f4xx_tim.c ****   * @brief  Configures the TIMx Channel 1N polarity.
1605:cmsis/device/stm32f4xx_tim.c ****   * @param  TIMx: where x can be 1 or 8 to select the TIM peripheral.
1606:cmsis/device/stm32f4xx_tim.c ****   * @param  TIM_OCNPolarity: specifies the OC1N Polarity
1607:cmsis/device/stm32f4xx_tim.c ****   *          This parameter can be one of the following values:
1608:cmsis/device/stm32f4xx_tim.c ****   *            @arg TIM_OCNPolarity_High: Output Compare active high
1609:cmsis/device/stm32f4xx_tim.c ****   *            @arg TIM_OCNPolarity_Low: Output Compare active low
1610:cmsis/device/stm32f4xx_tim.c ****   * @retval None
1611:cmsis/device/stm32f4xx_tim.c ****   */
1612:cmsis/device/stm32f4xx_tim.c **** void TIM_OC1NPolarityConfig(TIM_TypeDef* TIMx, uint16_t TIM_OCNPolarity)
1613:cmsis/device/stm32f4xx_tim.c **** {
 2175              		.loc 1 1613 0
 2176              		.cfi_startproc
 2177              		@ args = 0, pretend = 0, frame = 0
 2178              		@ frame_needed = 0, uses_anonymous_args = 0
 2179              		@ link register save eliminated.
 2180              	.LVL253:
1614:cmsis/device/stm32f4xx_tim.c ****   uint16_t tmpccer = 0;
1615:cmsis/device/stm32f4xx_tim.c ****   /* Check the parameters */
1616:cmsis/device/stm32f4xx_tim.c ****   assert_param(IS_TIM_LIST4_PERIPH(TIMx));
1617:cmsis/device/stm32f4xx_tim.c ****   assert_param(IS_TIM_OCN_POLARITY(TIM_OCNPolarity));
1618:cmsis/device/stm32f4xx_tim.c ****    
1619:cmsis/device/stm32f4xx_tim.c ****   tmpccer = TIMx->CCER;
 2181              		.loc 1 1619 0
 2182 0000 038C     		ldrh	r3, [r0, #32]	@, TIMx_2(D)->CCER
 2183              	.LVL254:
1620:cmsis/device/stm32f4xx_tim.c **** 
1621:cmsis/device/stm32f4xx_tim.c ****   /* Set or Reset the CC1NP Bit */
1622:cmsis/device/stm32f4xx_tim.c ****   tmpccer &= (uint16_t)~TIM_CCER_CC1NP;
 2184              		.loc 1 1622 0
 2185 0002 23F00802 		bic	r2, r3, #8	@ tmpccer, TIMx_2(D)->CCER,
ARM GAS  C:\Users\CNous\AppData\Local\Temp\ccZi7tDD.s 			page 71


 2186 0006 1304     		lsls	r3, r2, #16	@ tmpccer, tmpccer,
 2187              	.LVL255:
 2188 0008 1A0C     		lsrs	r2, r3, #16	@ tmpccer, tmpccer,
 2189              	.LVL256:
1623:cmsis/device/stm32f4xx_tim.c ****   tmpccer |= TIM_OCNPolarity;
 2190              		.loc 1 1623 0
 2191 000a 1143     		orrs	r1, r1, r2	@, tmpccer, TIM_OCNPolarity, tmpccer
 2192              	.LVL257:
1624:cmsis/device/stm32f4xx_tim.c **** 
1625:cmsis/device/stm32f4xx_tim.c ****   /* Write to TIMx CCER register */
1626:cmsis/device/stm32f4xx_tim.c ****   TIMx->CCER = tmpccer;
 2193              		.loc 1 1626 0
 2194 000c 0184     		strh	r1, [r0, #32]	@ movhi	@ tmpccer, TIMx_2(D)->CCER
 2195 000e 7047     		bx	lr	@
 2196              		.cfi_endproc
 2197              	.LFE152:
 2198              		.size	TIM_OC1NPolarityConfig, .-TIM_OC1NPolarityConfig
 2199              		.section	.text.TIM_OC2PolarityConfig,"ax",%progbits
 2200              		.align	2
 2201              		.global	TIM_OC2PolarityConfig
 2202              		.thumb
 2203              		.thumb_func
 2204              		.type	TIM_OC2PolarityConfig, %function
 2205              	TIM_OC2PolarityConfig:
 2206              	.LFB153:
1627:cmsis/device/stm32f4xx_tim.c **** }
1628:cmsis/device/stm32f4xx_tim.c **** 
1629:cmsis/device/stm32f4xx_tim.c **** /**
1630:cmsis/device/stm32f4xx_tim.c ****   * @brief  Configures the TIMx channel 2 polarity.
1631:cmsis/device/stm32f4xx_tim.c ****   * @param  TIMx: where x can be 1, 2, 3, 4, 5, 8, 9 or 12 to select the TIM 
1632:cmsis/device/stm32f4xx_tim.c ****   *         peripheral.
1633:cmsis/device/stm32f4xx_tim.c ****   * @param  TIM_OCPolarity: specifies the OC2 Polarity
1634:cmsis/device/stm32f4xx_tim.c ****   *          This parameter can be one of the following values:
1635:cmsis/device/stm32f4xx_tim.c ****   *            @arg TIM_OCPolarity_High: Output Compare active high
1636:cmsis/device/stm32f4xx_tim.c ****   *            @arg TIM_OCPolarity_Low: Output Compare active low
1637:cmsis/device/stm32f4xx_tim.c ****   * @retval None
1638:cmsis/device/stm32f4xx_tim.c ****   */
1639:cmsis/device/stm32f4xx_tim.c **** void TIM_OC2PolarityConfig(TIM_TypeDef* TIMx, uint16_t TIM_OCPolarity)
1640:cmsis/device/stm32f4xx_tim.c **** {
 2207              		.loc 1 1640 0
 2208              		.cfi_startproc
 2209              		@ args = 0, pretend = 0, frame = 0
 2210              		@ frame_needed = 0, uses_anonymous_args = 0
 2211              		@ link register save eliminated.
 2212              	.LVL258:
1641:cmsis/device/stm32f4xx_tim.c ****   uint16_t tmpccer = 0;
1642:cmsis/device/stm32f4xx_tim.c **** 
1643:cmsis/device/stm32f4xx_tim.c ****   /* Check the parameters */
1644:cmsis/device/stm32f4xx_tim.c ****   assert_param(IS_TIM_LIST2_PERIPH(TIMx));
1645:cmsis/device/stm32f4xx_tim.c ****   assert_param(IS_TIM_OC_POLARITY(TIM_OCPolarity));
1646:cmsis/device/stm32f4xx_tim.c **** 
1647:cmsis/device/stm32f4xx_tim.c ****   tmpccer = TIMx->CCER;
 2213              		.loc 1 1647 0
 2214 0000 038C     		ldrh	r3, [r0, #32]	@, TIMx_2(D)->CCER
 2215              	.LVL259:
1648:cmsis/device/stm32f4xx_tim.c **** 
1649:cmsis/device/stm32f4xx_tim.c ****   /* Set or Reset the CC2P Bit */
ARM GAS  C:\Users\CNous\AppData\Local\Temp\ccZi7tDD.s 			page 72


1650:cmsis/device/stm32f4xx_tim.c ****   tmpccer &= (uint16_t)(~TIM_CCER_CC2P);
 2216              		.loc 1 1650 0
 2217 0002 23F02002 		bic	r2, r3, #32	@ tmpccer, TIMx_2(D)->CCER,
 2218 0006 1304     		lsls	r3, r2, #16	@ tmpccer, tmpccer,
 2219              	.LVL260:
 2220 0008 1A0C     		lsrs	r2, r3, #16	@ tmpccer, tmpccer,
 2221              	.LVL261:
1651:cmsis/device/stm32f4xx_tim.c ****   tmpccer |= (uint16_t)(TIM_OCPolarity << 4);
 2222              		.loc 1 1651 0
 2223 000a 42EA0111 		orr	r1, r2, r1, lsl #4	@, tmp145, tmpccer, TIM_OCPolarity,
 2224              	.LVL262:
 2225 000e 8BB2     		uxth	r3, r1	@ tmpccer, tmp145
 2226              	.LVL263:
1652:cmsis/device/stm32f4xx_tim.c **** 
1653:cmsis/device/stm32f4xx_tim.c ****   /* Write to TIMx CCER register */
1654:cmsis/device/stm32f4xx_tim.c ****   TIMx->CCER = tmpccer;
 2227              		.loc 1 1654 0
 2228 0010 0384     		strh	r3, [r0, #32]	@ movhi	@ tmpccer, TIMx_2(D)->CCER
 2229 0012 7047     		bx	lr	@
 2230              		.cfi_endproc
 2231              	.LFE153:
 2232              		.size	TIM_OC2PolarityConfig, .-TIM_OC2PolarityConfig
 2233              		.section	.text.TIM_OC2NPolarityConfig,"ax",%progbits
 2234              		.align	2
 2235              		.global	TIM_OC2NPolarityConfig
 2236              		.thumb
 2237              		.thumb_func
 2238              		.type	TIM_OC2NPolarityConfig, %function
 2239              	TIM_OC2NPolarityConfig:
 2240              	.LFB154:
1655:cmsis/device/stm32f4xx_tim.c **** }
1656:cmsis/device/stm32f4xx_tim.c **** 
1657:cmsis/device/stm32f4xx_tim.c **** /**
1658:cmsis/device/stm32f4xx_tim.c ****   * @brief  Configures the TIMx Channel 2N polarity.
1659:cmsis/device/stm32f4xx_tim.c ****   * @param  TIMx: where x can be 1 or 8 to select the TIM peripheral.
1660:cmsis/device/stm32f4xx_tim.c ****   * @param  TIM_OCNPolarity: specifies the OC2N Polarity
1661:cmsis/device/stm32f4xx_tim.c ****   *          This parameter can be one of the following values:
1662:cmsis/device/stm32f4xx_tim.c ****   *            @arg TIM_OCNPolarity_High: Output Compare active high
1663:cmsis/device/stm32f4xx_tim.c ****   *            @arg TIM_OCNPolarity_Low: Output Compare active low
1664:cmsis/device/stm32f4xx_tim.c ****   * @retval None
1665:cmsis/device/stm32f4xx_tim.c ****   */
1666:cmsis/device/stm32f4xx_tim.c **** void TIM_OC2NPolarityConfig(TIM_TypeDef* TIMx, uint16_t TIM_OCNPolarity)
1667:cmsis/device/stm32f4xx_tim.c **** {
 2241              		.loc 1 1667 0
 2242              		.cfi_startproc
 2243              		@ args = 0, pretend = 0, frame = 0
 2244              		@ frame_needed = 0, uses_anonymous_args = 0
 2245              		@ link register save eliminated.
 2246              	.LVL264:
1668:cmsis/device/stm32f4xx_tim.c ****   uint16_t tmpccer = 0;
1669:cmsis/device/stm32f4xx_tim.c **** 
1670:cmsis/device/stm32f4xx_tim.c ****   /* Check the parameters */
1671:cmsis/device/stm32f4xx_tim.c ****   assert_param(IS_TIM_LIST4_PERIPH(TIMx));
1672:cmsis/device/stm32f4xx_tim.c ****   assert_param(IS_TIM_OCN_POLARITY(TIM_OCNPolarity));
1673:cmsis/device/stm32f4xx_tim.c ****   
1674:cmsis/device/stm32f4xx_tim.c ****   tmpccer = TIMx->CCER;
 2247              		.loc 1 1674 0
ARM GAS  C:\Users\CNous\AppData\Local\Temp\ccZi7tDD.s 			page 73


 2248 0000 038C     		ldrh	r3, [r0, #32]	@, TIMx_2(D)->CCER
 2249              	.LVL265:
1675:cmsis/device/stm32f4xx_tim.c **** 
1676:cmsis/device/stm32f4xx_tim.c ****   /* Set or Reset the CC2NP Bit */
1677:cmsis/device/stm32f4xx_tim.c ****   tmpccer &= (uint16_t)~TIM_CCER_CC2NP;
 2250              		.loc 1 1677 0
 2251 0002 23F08002 		bic	r2, r3, #128	@ tmpccer, TIMx_2(D)->CCER,
 2252 0006 1304     		lsls	r3, r2, #16	@ tmpccer, tmpccer,
 2253              	.LVL266:
 2254 0008 1A0C     		lsrs	r2, r3, #16	@ tmpccer, tmpccer,
 2255              	.LVL267:
1678:cmsis/device/stm32f4xx_tim.c ****   tmpccer |= (uint16_t)(TIM_OCNPolarity << 4);
 2256              		.loc 1 1678 0
 2257 000a 42EA0111 		orr	r1, r2, r1, lsl #4	@, tmp145, tmpccer, TIM_OCNPolarity,
 2258              	.LVL268:
 2259 000e 8BB2     		uxth	r3, r1	@ tmpccer, tmp145
 2260              	.LVL269:
1679:cmsis/device/stm32f4xx_tim.c **** 
1680:cmsis/device/stm32f4xx_tim.c ****   /* Write to TIMx CCER register */
1681:cmsis/device/stm32f4xx_tim.c ****   TIMx->CCER = tmpccer;
 2261              		.loc 1 1681 0
 2262 0010 0384     		strh	r3, [r0, #32]	@ movhi	@ tmpccer, TIMx_2(D)->CCER
 2263 0012 7047     		bx	lr	@
 2264              		.cfi_endproc
 2265              	.LFE154:
 2266              		.size	TIM_OC2NPolarityConfig, .-TIM_OC2NPolarityConfig
 2267              		.section	.text.TIM_OC3PolarityConfig,"ax",%progbits
 2268              		.align	2
 2269              		.global	TIM_OC3PolarityConfig
 2270              		.thumb
 2271              		.thumb_func
 2272              		.type	TIM_OC3PolarityConfig, %function
 2273              	TIM_OC3PolarityConfig:
 2274              	.LFB155:
1682:cmsis/device/stm32f4xx_tim.c **** }
1683:cmsis/device/stm32f4xx_tim.c **** 
1684:cmsis/device/stm32f4xx_tim.c **** /**
1685:cmsis/device/stm32f4xx_tim.c ****   * @brief  Configures the TIMx channel 3 polarity.
1686:cmsis/device/stm32f4xx_tim.c ****   * @param  TIMx: where x can be 1, 2, 3, 4, 5 or 8 to select the TIM peripheral.
1687:cmsis/device/stm32f4xx_tim.c ****   * @param  TIM_OCPolarity: specifies the OC3 Polarity
1688:cmsis/device/stm32f4xx_tim.c ****   *          This parameter can be one of the following values:
1689:cmsis/device/stm32f4xx_tim.c ****   *            @arg TIM_OCPolarity_High: Output Compare active high
1690:cmsis/device/stm32f4xx_tim.c ****   *            @arg TIM_OCPolarity_Low: Output Compare active low
1691:cmsis/device/stm32f4xx_tim.c ****   * @retval None
1692:cmsis/device/stm32f4xx_tim.c ****   */
1693:cmsis/device/stm32f4xx_tim.c **** void TIM_OC3PolarityConfig(TIM_TypeDef* TIMx, uint16_t TIM_OCPolarity)
1694:cmsis/device/stm32f4xx_tim.c **** {
 2275              		.loc 1 1694 0
 2276              		.cfi_startproc
 2277              		@ args = 0, pretend = 0, frame = 0
 2278              		@ frame_needed = 0, uses_anonymous_args = 0
 2279              		@ link register save eliminated.
 2280              	.LVL270:
1695:cmsis/device/stm32f4xx_tim.c ****   uint16_t tmpccer = 0;
1696:cmsis/device/stm32f4xx_tim.c **** 
1697:cmsis/device/stm32f4xx_tim.c ****   /* Check the parameters */
1698:cmsis/device/stm32f4xx_tim.c ****   assert_param(IS_TIM_LIST3_PERIPH(TIMx));
ARM GAS  C:\Users\CNous\AppData\Local\Temp\ccZi7tDD.s 			page 74


1699:cmsis/device/stm32f4xx_tim.c ****   assert_param(IS_TIM_OC_POLARITY(TIM_OCPolarity));
1700:cmsis/device/stm32f4xx_tim.c **** 
1701:cmsis/device/stm32f4xx_tim.c ****   tmpccer = TIMx->CCER;
 2281              		.loc 1 1701 0
 2282 0000 038C     		ldrh	r3, [r0, #32]	@, TIMx_2(D)->CCER
 2283              	.LVL271:
1702:cmsis/device/stm32f4xx_tim.c **** 
1703:cmsis/device/stm32f4xx_tim.c ****   /* Set or Reset the CC3P Bit */
1704:cmsis/device/stm32f4xx_tim.c ****   tmpccer &= (uint16_t)~TIM_CCER_CC3P;
 2284              		.loc 1 1704 0
 2285 0002 23F40072 		bic	r2, r3, #512	@ tmpccer, TIMx_2(D)->CCER,
 2286 0006 1304     		lsls	r3, r2, #16	@ tmpccer, tmpccer,
 2287              	.LVL272:
 2288 0008 1A0C     		lsrs	r2, r3, #16	@ tmpccer, tmpccer,
 2289              	.LVL273:
1705:cmsis/device/stm32f4xx_tim.c ****   tmpccer |= (uint16_t)(TIM_OCPolarity << 8);
 2290              		.loc 1 1705 0
 2291 000a 42EA0121 		orr	r1, r2, r1, lsl #8	@, tmp145, tmpccer, TIM_OCPolarity,
 2292              	.LVL274:
 2293 000e 8BB2     		uxth	r3, r1	@ tmpccer, tmp145
 2294              	.LVL275:
1706:cmsis/device/stm32f4xx_tim.c **** 
1707:cmsis/device/stm32f4xx_tim.c ****   /* Write to TIMx CCER register */
1708:cmsis/device/stm32f4xx_tim.c ****   TIMx->CCER = tmpccer;
 2295              		.loc 1 1708 0
 2296 0010 0384     		strh	r3, [r0, #32]	@ movhi	@ tmpccer, TIMx_2(D)->CCER
 2297 0012 7047     		bx	lr	@
 2298              		.cfi_endproc
 2299              	.LFE155:
 2300              		.size	TIM_OC3PolarityConfig, .-TIM_OC3PolarityConfig
 2301              		.section	.text.TIM_OC3NPolarityConfig,"ax",%progbits
 2302              		.align	2
 2303              		.global	TIM_OC3NPolarityConfig
 2304              		.thumb
 2305              		.thumb_func
 2306              		.type	TIM_OC3NPolarityConfig, %function
 2307              	TIM_OC3NPolarityConfig:
 2308              	.LFB156:
1709:cmsis/device/stm32f4xx_tim.c **** }
1710:cmsis/device/stm32f4xx_tim.c **** 
1711:cmsis/device/stm32f4xx_tim.c **** /**
1712:cmsis/device/stm32f4xx_tim.c ****   * @brief  Configures the TIMx Channel 3N polarity.
1713:cmsis/device/stm32f4xx_tim.c ****   * @param  TIMx: where x can be 1 or 8 to select the TIM peripheral.
1714:cmsis/device/stm32f4xx_tim.c ****   * @param  TIM_OCNPolarity: specifies the OC3N Polarity
1715:cmsis/device/stm32f4xx_tim.c ****   *          This parameter can be one of the following values:
1716:cmsis/device/stm32f4xx_tim.c ****   *            @arg TIM_OCNPolarity_High: Output Compare active high
1717:cmsis/device/stm32f4xx_tim.c ****   *            @arg TIM_OCNPolarity_Low: Output Compare active low
1718:cmsis/device/stm32f4xx_tim.c ****   * @retval None
1719:cmsis/device/stm32f4xx_tim.c ****   */
1720:cmsis/device/stm32f4xx_tim.c **** void TIM_OC3NPolarityConfig(TIM_TypeDef* TIMx, uint16_t TIM_OCNPolarity)
1721:cmsis/device/stm32f4xx_tim.c **** {
 2309              		.loc 1 1721 0
 2310              		.cfi_startproc
 2311              		@ args = 0, pretend = 0, frame = 0
 2312              		@ frame_needed = 0, uses_anonymous_args = 0
 2313              		@ link register save eliminated.
 2314              	.LVL276:
ARM GAS  C:\Users\CNous\AppData\Local\Temp\ccZi7tDD.s 			page 75


1722:cmsis/device/stm32f4xx_tim.c ****   uint16_t tmpccer = 0;
1723:cmsis/device/stm32f4xx_tim.c ****  
1724:cmsis/device/stm32f4xx_tim.c ****   /* Check the parameters */
1725:cmsis/device/stm32f4xx_tim.c ****   assert_param(IS_TIM_LIST4_PERIPH(TIMx));
1726:cmsis/device/stm32f4xx_tim.c ****   assert_param(IS_TIM_OCN_POLARITY(TIM_OCNPolarity));
1727:cmsis/device/stm32f4xx_tim.c ****     
1728:cmsis/device/stm32f4xx_tim.c ****   tmpccer = TIMx->CCER;
 2315              		.loc 1 1728 0
 2316 0000 038C     		ldrh	r3, [r0, #32]	@, TIMx_2(D)->CCER
 2317              	.LVL277:
1729:cmsis/device/stm32f4xx_tim.c **** 
1730:cmsis/device/stm32f4xx_tim.c ****   /* Set or Reset the CC3NP Bit */
1731:cmsis/device/stm32f4xx_tim.c ****   tmpccer &= (uint16_t)~TIM_CCER_CC3NP;
 2318              		.loc 1 1731 0
 2319 0002 23F40062 		bic	r2, r3, #2048	@ tmpccer, TIMx_2(D)->CCER,
 2320 0006 1304     		lsls	r3, r2, #16	@ tmpccer, tmpccer,
 2321              	.LVL278:
 2322 0008 1A0C     		lsrs	r2, r3, #16	@ tmpccer, tmpccer,
 2323              	.LVL279:
1732:cmsis/device/stm32f4xx_tim.c ****   tmpccer |= (uint16_t)(TIM_OCNPolarity << 8);
 2324              		.loc 1 1732 0
 2325 000a 42EA0121 		orr	r1, r2, r1, lsl #8	@, tmp145, tmpccer, TIM_OCNPolarity,
 2326              	.LVL280:
 2327 000e 8BB2     		uxth	r3, r1	@ tmpccer, tmp145
 2328              	.LVL281:
1733:cmsis/device/stm32f4xx_tim.c **** 
1734:cmsis/device/stm32f4xx_tim.c ****   /* Write to TIMx CCER register */
1735:cmsis/device/stm32f4xx_tim.c ****   TIMx->CCER = tmpccer;
 2329              		.loc 1 1735 0
 2330 0010 0384     		strh	r3, [r0, #32]	@ movhi	@ tmpccer, TIMx_2(D)->CCER
 2331 0012 7047     		bx	lr	@
 2332              		.cfi_endproc
 2333              	.LFE156:
 2334              		.size	TIM_OC3NPolarityConfig, .-TIM_OC3NPolarityConfig
 2335              		.section	.text.TIM_OC4PolarityConfig,"ax",%progbits
 2336              		.align	2
 2337              		.global	TIM_OC4PolarityConfig
 2338              		.thumb
 2339              		.thumb_func
 2340              		.type	TIM_OC4PolarityConfig, %function
 2341              	TIM_OC4PolarityConfig:
 2342              	.LFB157:
1736:cmsis/device/stm32f4xx_tim.c **** }
1737:cmsis/device/stm32f4xx_tim.c **** 
1738:cmsis/device/stm32f4xx_tim.c **** /**
1739:cmsis/device/stm32f4xx_tim.c ****   * @brief  Configures the TIMx channel 4 polarity.
1740:cmsis/device/stm32f4xx_tim.c ****   * @param  TIMx: where x can be 1, 2, 3, 4, 5 or 8 to select the TIM peripheral.
1741:cmsis/device/stm32f4xx_tim.c ****   * @param  TIM_OCPolarity: specifies the OC4 Polarity
1742:cmsis/device/stm32f4xx_tim.c ****   *          This parameter can be one of the following values:
1743:cmsis/device/stm32f4xx_tim.c ****   *            @arg TIM_OCPolarity_High: Output Compare active high
1744:cmsis/device/stm32f4xx_tim.c ****   *            @arg TIM_OCPolarity_Low: Output Compare active low
1745:cmsis/device/stm32f4xx_tim.c ****   * @retval None
1746:cmsis/device/stm32f4xx_tim.c ****   */
1747:cmsis/device/stm32f4xx_tim.c **** void TIM_OC4PolarityConfig(TIM_TypeDef* TIMx, uint16_t TIM_OCPolarity)
1748:cmsis/device/stm32f4xx_tim.c **** {
 2343              		.loc 1 1748 0
 2344              		.cfi_startproc
ARM GAS  C:\Users\CNous\AppData\Local\Temp\ccZi7tDD.s 			page 76


 2345              		@ args = 0, pretend = 0, frame = 0
 2346              		@ frame_needed = 0, uses_anonymous_args = 0
 2347              		@ link register save eliminated.
 2348              	.LVL282:
1749:cmsis/device/stm32f4xx_tim.c ****   uint16_t tmpccer = 0;
1750:cmsis/device/stm32f4xx_tim.c **** 
1751:cmsis/device/stm32f4xx_tim.c ****   /* Check the parameters */
1752:cmsis/device/stm32f4xx_tim.c ****   assert_param(IS_TIM_LIST3_PERIPH(TIMx));
1753:cmsis/device/stm32f4xx_tim.c ****   assert_param(IS_TIM_OC_POLARITY(TIM_OCPolarity));
1754:cmsis/device/stm32f4xx_tim.c **** 
1755:cmsis/device/stm32f4xx_tim.c ****   tmpccer = TIMx->CCER;
 2349              		.loc 1 1755 0
 2350 0000 038C     		ldrh	r3, [r0, #32]	@, TIMx_2(D)->CCER
 2351              	.LVL283:
1756:cmsis/device/stm32f4xx_tim.c **** 
1757:cmsis/device/stm32f4xx_tim.c ****   /* Set or Reset the CC4P Bit */
1758:cmsis/device/stm32f4xx_tim.c ****   tmpccer &= (uint16_t)~TIM_CCER_CC4P;
 2352              		.loc 1 1758 0
 2353 0002 23F40052 		bic	r2, r3, #8192	@ tmpccer, TIMx_2(D)->CCER,
 2354 0006 1304     		lsls	r3, r2, #16	@ tmpccer, tmpccer,
 2355              	.LVL284:
 2356 0008 1A0C     		lsrs	r2, r3, #16	@ tmpccer, tmpccer,
 2357              	.LVL285:
1759:cmsis/device/stm32f4xx_tim.c ****   tmpccer |= (uint16_t)(TIM_OCPolarity << 12);
 2358              		.loc 1 1759 0
 2359 000a 42EA0131 		orr	r1, r2, r1, lsl #12	@, tmp145, tmpccer, TIM_OCPolarity,
 2360              	.LVL286:
 2361 000e 8BB2     		uxth	r3, r1	@ tmpccer, tmp145
 2362              	.LVL287:
1760:cmsis/device/stm32f4xx_tim.c **** 
1761:cmsis/device/stm32f4xx_tim.c ****   /* Write to TIMx CCER register */
1762:cmsis/device/stm32f4xx_tim.c ****   TIMx->CCER = tmpccer;
 2363              		.loc 1 1762 0
 2364 0010 0384     		strh	r3, [r0, #32]	@ movhi	@ tmpccer, TIMx_2(D)->CCER
 2365 0012 7047     		bx	lr	@
 2366              		.cfi_endproc
 2367              	.LFE157:
 2368              		.size	TIM_OC4PolarityConfig, .-TIM_OC4PolarityConfig
 2369              		.section	.text.TIM_CCxCmd,"ax",%progbits
 2370              		.align	2
 2371              		.global	TIM_CCxCmd
 2372              		.thumb
 2373              		.thumb_func
 2374              		.type	TIM_CCxCmd, %function
 2375              	TIM_CCxCmd:
 2376              	.LFB158:
1763:cmsis/device/stm32f4xx_tim.c **** }
1764:cmsis/device/stm32f4xx_tim.c **** 
1765:cmsis/device/stm32f4xx_tim.c **** /**
1766:cmsis/device/stm32f4xx_tim.c ****   * @brief  Enables or disables the TIM Capture Compare Channel x.
1767:cmsis/device/stm32f4xx_tim.c ****   * @param  TIMx: where x can be 1 to 14 except 6 and 7, to select the TIM peripheral.
1768:cmsis/device/stm32f4xx_tim.c ****   * @param  TIM_Channel: specifies the TIM Channel
1769:cmsis/device/stm32f4xx_tim.c ****   *          This parameter can be one of the following values:
1770:cmsis/device/stm32f4xx_tim.c ****   *            @arg TIM_Channel_1: TIM Channel 1
1771:cmsis/device/stm32f4xx_tim.c ****   *            @arg TIM_Channel_2: TIM Channel 2
1772:cmsis/device/stm32f4xx_tim.c ****   *            @arg TIM_Channel_3: TIM Channel 3
1773:cmsis/device/stm32f4xx_tim.c ****   *            @arg TIM_Channel_4: TIM Channel 4
ARM GAS  C:\Users\CNous\AppData\Local\Temp\ccZi7tDD.s 			page 77


1774:cmsis/device/stm32f4xx_tim.c ****   * @param  TIM_CCx: specifies the TIM Channel CCxE bit new state.
1775:cmsis/device/stm32f4xx_tim.c ****   *          This parameter can be: TIM_CCx_Enable or TIM_CCx_Disable. 
1776:cmsis/device/stm32f4xx_tim.c ****   * @retval None
1777:cmsis/device/stm32f4xx_tim.c ****   */
1778:cmsis/device/stm32f4xx_tim.c **** void TIM_CCxCmd(TIM_TypeDef* TIMx, uint16_t TIM_Channel, uint16_t TIM_CCx)
1779:cmsis/device/stm32f4xx_tim.c **** {
 2377              		.loc 1 1779 0
 2378              		.cfi_startproc
 2379              		@ args = 0, pretend = 0, frame = 0
 2380              		@ frame_needed = 0, uses_anonymous_args = 0
 2381              		@ link register save eliminated.
 2382              	.LVL288:
 2383 0000 10B4     		push	{r4}	@
 2384              	.LCFI7:
 2385              		.cfi_def_cfa_offset 4
 2386              		.cfi_offset 4, -4
1780:cmsis/device/stm32f4xx_tim.c ****   uint16_t tmp = 0;
1781:cmsis/device/stm32f4xx_tim.c **** 
1782:cmsis/device/stm32f4xx_tim.c ****   /* Check the parameters */
1783:cmsis/device/stm32f4xx_tim.c ****   assert_param(IS_TIM_LIST1_PERIPH(TIMx)); 
1784:cmsis/device/stm32f4xx_tim.c ****   assert_param(IS_TIM_CHANNEL(TIM_Channel));
1785:cmsis/device/stm32f4xx_tim.c ****   assert_param(IS_TIM_CCX(TIM_CCx));
1786:cmsis/device/stm32f4xx_tim.c **** 
1787:cmsis/device/stm32f4xx_tim.c ****   tmp = CCER_CCE_SET << TIM_Channel;
1788:cmsis/device/stm32f4xx_tim.c **** 
1789:cmsis/device/stm32f4xx_tim.c ****   /* Reset the CCxE Bit */
1790:cmsis/device/stm32f4xx_tim.c ****   TIMx->CCER &= (uint16_t)~ tmp;
 2387              		.loc 1 1790 0
 2388 0002 048C     		ldrh	r4, [r0, #32]	@, TIMx_6(D)->CCER
1787:cmsis/device/stm32f4xx_tim.c ****   tmp = CCER_CCE_SET << TIM_Channel;
 2389              		.loc 1 1787 0
 2390 0004 0123     		movs	r3, #1	@ tmp151,
 2391 0006 03FA01F3 		lsl	r3, r3, r1	@ tmp150, tmp151, TIM_Channel
 2392              		.loc 1 1790 0
 2393 000a A4B2     		uxth	r4, r4	@ D.7168, TIMx_6(D)->CCER
 2394 000c 24EA0303 		bic	r3, r4, r3	@ D.7170, D.7168, tmp150
 2395 0010 0384     		strh	r3, [r0, #32]	@ movhi	@ D.7170, TIMx_6(D)->CCER
1791:cmsis/device/stm32f4xx_tim.c **** 
1792:cmsis/device/stm32f4xx_tim.c ****   /* Set or reset the CCxE Bit */ 
1793:cmsis/device/stm32f4xx_tim.c ****   TIMx->CCER |=  (uint16_t)(TIM_CCx << TIM_Channel);
 2396              		.loc 1 1793 0
 2397 0012 038C     		ldrh	r3, [r0, #32]	@, TIMx_6(D)->CCER
 2398 0014 02FA01F2 		lsl	r2, r2, r1	@ tmp159, TIM_CCx, TIM_Channel
 2399              	.LVL289:
 2400 0018 42EA0301 		orr	r1, r2, r3	@ tmp161, tmp159, TIMx_6(D)->CCER
 2401              	.LVL290:
 2402 001c 8AB2     		uxth	r2, r1	@ D.7175, tmp161
 2403 001e 0284     		strh	r2, [r0, #32]	@ movhi	@ D.7175, TIMx_6(D)->CCER
1794:cmsis/device/stm32f4xx_tim.c **** }
 2404              		.loc 1 1794 0
 2405 0020 10BC     		pop	{r4}
 2406 0022 7047     		bx	lr
 2407              		.cfi_endproc
 2408              	.LFE158:
 2409              		.size	TIM_CCxCmd, .-TIM_CCxCmd
 2410              		.section	.text.TIM_CCxNCmd,"ax",%progbits
 2411              		.align	2
ARM GAS  C:\Users\CNous\AppData\Local\Temp\ccZi7tDD.s 			page 78


 2412              		.global	TIM_CCxNCmd
 2413              		.thumb
 2414              		.thumb_func
 2415              		.type	TIM_CCxNCmd, %function
 2416              	TIM_CCxNCmd:
 2417              	.LFB159:
1795:cmsis/device/stm32f4xx_tim.c **** 
1796:cmsis/device/stm32f4xx_tim.c **** /**
1797:cmsis/device/stm32f4xx_tim.c ****   * @brief  Enables or disables the TIM Capture Compare Channel xN.
1798:cmsis/device/stm32f4xx_tim.c ****   * @param  TIMx: where x can be 1 or 8 to select the TIM peripheral.
1799:cmsis/device/stm32f4xx_tim.c ****   * @param  TIM_Channel: specifies the TIM Channel
1800:cmsis/device/stm32f4xx_tim.c ****   *          This parameter can be one of the following values:
1801:cmsis/device/stm32f4xx_tim.c ****   *            @arg TIM_Channel_1: TIM Channel 1
1802:cmsis/device/stm32f4xx_tim.c ****   *            @arg TIM_Channel_2: TIM Channel 2
1803:cmsis/device/stm32f4xx_tim.c ****   *            @arg TIM_Channel_3: TIM Channel 3
1804:cmsis/device/stm32f4xx_tim.c ****   * @param  TIM_CCxN: specifies the TIM Channel CCxNE bit new state.
1805:cmsis/device/stm32f4xx_tim.c ****   *          This parameter can be: TIM_CCxN_Enable or TIM_CCxN_Disable. 
1806:cmsis/device/stm32f4xx_tim.c ****   * @retval None
1807:cmsis/device/stm32f4xx_tim.c ****   */
1808:cmsis/device/stm32f4xx_tim.c **** void TIM_CCxNCmd(TIM_TypeDef* TIMx, uint16_t TIM_Channel, uint16_t TIM_CCxN)
1809:cmsis/device/stm32f4xx_tim.c **** {
 2418              		.loc 1 1809 0
 2419              		.cfi_startproc
 2420              		@ args = 0, pretend = 0, frame = 0
 2421              		@ frame_needed = 0, uses_anonymous_args = 0
 2422              		@ link register save eliminated.
 2423              	.LVL291:
 2424 0000 10B4     		push	{r4}	@
 2425              	.LCFI8:
 2426              		.cfi_def_cfa_offset 4
 2427              		.cfi_offset 4, -4
1810:cmsis/device/stm32f4xx_tim.c ****   uint16_t tmp = 0;
1811:cmsis/device/stm32f4xx_tim.c **** 
1812:cmsis/device/stm32f4xx_tim.c ****   /* Check the parameters */
1813:cmsis/device/stm32f4xx_tim.c ****   assert_param(IS_TIM_LIST4_PERIPH(TIMx));
1814:cmsis/device/stm32f4xx_tim.c ****   assert_param(IS_TIM_COMPLEMENTARY_CHANNEL(TIM_Channel));
1815:cmsis/device/stm32f4xx_tim.c ****   assert_param(IS_TIM_CCXN(TIM_CCxN));
1816:cmsis/device/stm32f4xx_tim.c **** 
1817:cmsis/device/stm32f4xx_tim.c ****   tmp = CCER_CCNE_SET << TIM_Channel;
1818:cmsis/device/stm32f4xx_tim.c **** 
1819:cmsis/device/stm32f4xx_tim.c ****   /* Reset the CCxNE Bit */
1820:cmsis/device/stm32f4xx_tim.c ****   TIMx->CCER &= (uint16_t) ~tmp;
 2428              		.loc 1 1820 0
 2429 0002 048C     		ldrh	r4, [r0, #32]	@, TIMx_6(D)->CCER
1817:cmsis/device/stm32f4xx_tim.c ****   tmp = CCER_CCNE_SET << TIM_Channel;
 2430              		.loc 1 1817 0
 2431 0004 0423     		movs	r3, #4	@ tmp151,
 2432 0006 03FA01F3 		lsl	r3, r3, r1	@ tmp150, tmp151, TIM_Channel
 2433              		.loc 1 1820 0
 2434 000a A4B2     		uxth	r4, r4	@ D.7158, TIMx_6(D)->CCER
 2435 000c 24EA0303 		bic	r3, r4, r3	@ D.7160, D.7158, tmp150
 2436 0010 0384     		strh	r3, [r0, #32]	@ movhi	@ D.7160, TIMx_6(D)->CCER
1821:cmsis/device/stm32f4xx_tim.c **** 
1822:cmsis/device/stm32f4xx_tim.c ****   /* Set or reset the CCxNE Bit */ 
1823:cmsis/device/stm32f4xx_tim.c ****   TIMx->CCER |=  (uint16_t)(TIM_CCxN << TIM_Channel);
 2437              		.loc 1 1823 0
 2438 0012 038C     		ldrh	r3, [r0, #32]	@, TIMx_6(D)->CCER
ARM GAS  C:\Users\CNous\AppData\Local\Temp\ccZi7tDD.s 			page 79


 2439 0014 02FA01F2 		lsl	r2, r2, r1	@ tmp159, TIM_CCxN, TIM_Channel
 2440              	.LVL292:
 2441 0018 42EA0301 		orr	r1, r2, r3	@ tmp161, tmp159, TIMx_6(D)->CCER
 2442              	.LVL293:
 2443 001c 8AB2     		uxth	r2, r1	@ D.7165, tmp161
 2444 001e 0284     		strh	r2, [r0, #32]	@ movhi	@ D.7165, TIMx_6(D)->CCER
1824:cmsis/device/stm32f4xx_tim.c **** }
 2445              		.loc 1 1824 0
 2446 0020 10BC     		pop	{r4}
 2447 0022 7047     		bx	lr
 2448              		.cfi_endproc
 2449              	.LFE159:
 2450              		.size	TIM_CCxNCmd, .-TIM_CCxNCmd
 2451              		.section	.text.TIM_ICInit,"ax",%progbits
 2452              		.align	2
 2453              		.global	TIM_ICInit
 2454              		.thumb
 2455              		.thumb_func
 2456              		.type	TIM_ICInit, %function
 2457              	TIM_ICInit:
 2458              	.LFB160:
1825:cmsis/device/stm32f4xx_tim.c **** /**
1826:cmsis/device/stm32f4xx_tim.c ****   * @}
1827:cmsis/device/stm32f4xx_tim.c ****   */
1828:cmsis/device/stm32f4xx_tim.c **** 
1829:cmsis/device/stm32f4xx_tim.c **** /** @defgroup TIM_Group3 Input Capture management functions
1830:cmsis/device/stm32f4xx_tim.c ****  *  @brief    Input Capture management functions 
1831:cmsis/device/stm32f4xx_tim.c ****  *
1832:cmsis/device/stm32f4xx_tim.c **** @verbatim   
1833:cmsis/device/stm32f4xx_tim.c ****  ===============================================================================
1834:cmsis/device/stm32f4xx_tim.c ****                       Input Capture management functions
1835:cmsis/device/stm32f4xx_tim.c ****  ===============================================================================  
1836:cmsis/device/stm32f4xx_tim.c ****    
1837:cmsis/device/stm32f4xx_tim.c ****        ===================================================================      
1838:cmsis/device/stm32f4xx_tim.c ****               TIM Driver: how to use it in Input Capture Mode
1839:cmsis/device/stm32f4xx_tim.c ****        =================================================================== 
1840:cmsis/device/stm32f4xx_tim.c ****        To use the Timer in Input Capture mode, the following steps are mandatory:
1841:cmsis/device/stm32f4xx_tim.c ****        
1842:cmsis/device/stm32f4xx_tim.c ****        1. Enable TIM clock using RCC_APBxPeriphClockCmd(RCC_APBxPeriph_TIMx, ENABLE) function
1843:cmsis/device/stm32f4xx_tim.c ****        
1844:cmsis/device/stm32f4xx_tim.c ****        2. Configure the TIM pins by configuring the corresponding GPIO pins
1845:cmsis/device/stm32f4xx_tim.c ****        
1846:cmsis/device/stm32f4xx_tim.c ****        2. Configure the Time base unit as described in the first part of this driver,
1847:cmsis/device/stm32f4xx_tim.c ****           if needed, else the Timer will run with the default configuration:
1848:cmsis/device/stm32f4xx_tim.c ****           - Autoreload value = 0xFFFF
1849:cmsis/device/stm32f4xx_tim.c ****           - Prescaler value = 0x0000
1850:cmsis/device/stm32f4xx_tim.c ****           - Counter mode = Up counting
1851:cmsis/device/stm32f4xx_tim.c ****           - Clock Division = TIM_CKD_DIV1
1852:cmsis/device/stm32f4xx_tim.c ****           
1853:cmsis/device/stm32f4xx_tim.c ****        3. Fill the TIM_ICInitStruct with the desired parameters including:
1854:cmsis/device/stm32f4xx_tim.c ****           - TIM Channel: TIM_Channel
1855:cmsis/device/stm32f4xx_tim.c ****           - TIM Input Capture polarity: TIM_ICPolarity
1856:cmsis/device/stm32f4xx_tim.c ****           - TIM Input Capture selection: TIM_ICSelection
1857:cmsis/device/stm32f4xx_tim.c ****           - TIM Input Capture Prescaler: TIM_ICPrescaler
1858:cmsis/device/stm32f4xx_tim.c ****           - TIM Input CApture filter value: TIM_ICFilter
1859:cmsis/device/stm32f4xx_tim.c ****        
1860:cmsis/device/stm32f4xx_tim.c ****        4. Call TIM_ICInit(TIMx, &TIM_ICInitStruct) to configure the desired channel with the 
ARM GAS  C:\Users\CNous\AppData\Local\Temp\ccZi7tDD.s 			page 80


1861:cmsis/device/stm32f4xx_tim.c ****           corresponding configuration and to measure only frequency or duty cycle of the input sign
1862:cmsis/device/stm32f4xx_tim.c ****           or,
1863:cmsis/device/stm32f4xx_tim.c ****           Call TIM_PWMIConfig(TIMx, &TIM_ICInitStruct) to configure the desired channels with the 
1864:cmsis/device/stm32f4xx_tim.c ****           corresponding configuration and to measure the frequency and the duty cycle of the input 
1865:cmsis/device/stm32f4xx_tim.c ****           
1866:cmsis/device/stm32f4xx_tim.c ****        5. Enable the NVIC or the DMA to read the measured frequency. 
1867:cmsis/device/stm32f4xx_tim.c ****           
1868:cmsis/device/stm32f4xx_tim.c ****        6. Enable the corresponding interrupt (or DMA request) to read the Captured value,
1869:cmsis/device/stm32f4xx_tim.c ****           using the function TIM_ITConfig(TIMx, TIM_IT_CCx) (or TIM_DMA_Cmd(TIMx, TIM_DMA_CCx)) 
1870:cmsis/device/stm32f4xx_tim.c ****        
1871:cmsis/device/stm32f4xx_tim.c ****        7. Call the TIM_Cmd(ENABLE) function to enable the TIM counter.
1872:cmsis/device/stm32f4xx_tim.c ****        
1873:cmsis/device/stm32f4xx_tim.c ****        8. Use TIM_GetCapturex(TIMx); to read the captured value.
1874:cmsis/device/stm32f4xx_tim.c ****        
1875:cmsis/device/stm32f4xx_tim.c ****        Note1: All other functions can be used separately to modify, if needed,
1876:cmsis/device/stm32f4xx_tim.c ****               a specific feature of the Timer. 
1877:cmsis/device/stm32f4xx_tim.c **** 
1878:cmsis/device/stm32f4xx_tim.c **** @endverbatim
1879:cmsis/device/stm32f4xx_tim.c ****   * @{
1880:cmsis/device/stm32f4xx_tim.c ****   */
1881:cmsis/device/stm32f4xx_tim.c **** 
1882:cmsis/device/stm32f4xx_tim.c **** /**
1883:cmsis/device/stm32f4xx_tim.c ****   * @brief  Initializes the TIM peripheral according to the specified parameters
1884:cmsis/device/stm32f4xx_tim.c ****   *         in the TIM_ICInitStruct.
1885:cmsis/device/stm32f4xx_tim.c ****   * @param  TIMx: where x can be 1 to 14 except 6 and 7, to select the TIM peripheral.
1886:cmsis/device/stm32f4xx_tim.c ****   * @param  TIM_ICInitStruct: pointer to a TIM_ICInitTypeDef structure that contains
1887:cmsis/device/stm32f4xx_tim.c ****   *         the configuration information for the specified TIM peripheral.
1888:cmsis/device/stm32f4xx_tim.c ****   * @retval None
1889:cmsis/device/stm32f4xx_tim.c ****   */
1890:cmsis/device/stm32f4xx_tim.c **** void TIM_ICInit(TIM_TypeDef* TIMx, TIM_ICInitTypeDef* TIM_ICInitStruct)
1891:cmsis/device/stm32f4xx_tim.c **** {
 2459              		.loc 1 1891 0
 2460              		.cfi_startproc
 2461              		@ args = 0, pretend = 0, frame = 0
 2462              		@ frame_needed = 0, uses_anonymous_args = 0
 2463              		@ link register save eliminated.
 2464              	.LVL294:
1892:cmsis/device/stm32f4xx_tim.c ****   /* Check the parameters */
1893:cmsis/device/stm32f4xx_tim.c ****   assert_param(IS_TIM_LIST1_PERIPH(TIMx));
1894:cmsis/device/stm32f4xx_tim.c ****   assert_param(IS_TIM_IC_POLARITY(TIM_ICInitStruct->TIM_ICPolarity));
1895:cmsis/device/stm32f4xx_tim.c ****   assert_param(IS_TIM_IC_SELECTION(TIM_ICInitStruct->TIM_ICSelection));
1896:cmsis/device/stm32f4xx_tim.c ****   assert_param(IS_TIM_IC_PRESCALER(TIM_ICInitStruct->TIM_ICPrescaler));
1897:cmsis/device/stm32f4xx_tim.c ****   assert_param(IS_TIM_IC_FILTER(TIM_ICInitStruct->TIM_ICFilter));
1898:cmsis/device/stm32f4xx_tim.c ****   
1899:cmsis/device/stm32f4xx_tim.c ****   if (TIM_ICInitStruct->TIM_Channel == TIM_Channel_1)
 2465              		.loc 1 1899 0
 2466 0000 0B88     		ldrh	r3, [r1, #0]	@ D.7132, TIM_ICInitStruct_1(D)->TIM_Channel
1891:cmsis/device/stm32f4xx_tim.c **** {
 2467              		.loc 1 1891 0
 2468 0002 F0B4     		push	{r4, r5, r6, r7}	@
 2469              	.LCFI9:
 2470              		.cfi_def_cfa_offset 16
 2471              		.cfi_offset 4, -16
 2472              		.cfi_offset 5, -12
 2473              		.cfi_offset 6, -8
 2474              		.cfi_offset 7, -4
 2475              		.loc 1 1899 0
ARM GAS  C:\Users\CNous\AppData\Local\Temp\ccZi7tDD.s 			page 81


 2476 0004 002B     		cmp	r3, #0	@ D.7132
 2477 0006 32D0     		beq	.L122	@
1900:cmsis/device/stm32f4xx_tim.c ****   {
1901:cmsis/device/stm32f4xx_tim.c ****     /* TI1 Configuration */
1902:cmsis/device/stm32f4xx_tim.c ****     TI1_Config(TIMx, TIM_ICInitStruct->TIM_ICPolarity,
1903:cmsis/device/stm32f4xx_tim.c ****                TIM_ICInitStruct->TIM_ICSelection,
1904:cmsis/device/stm32f4xx_tim.c ****                TIM_ICInitStruct->TIM_ICFilter);
1905:cmsis/device/stm32f4xx_tim.c ****     /* Set the Input Capture Prescaler value */
1906:cmsis/device/stm32f4xx_tim.c ****     TIM_SetIC1Prescaler(TIMx, TIM_ICInitStruct->TIM_ICPrescaler);
1907:cmsis/device/stm32f4xx_tim.c ****   }
1908:cmsis/device/stm32f4xx_tim.c ****   else if (TIM_ICInitStruct->TIM_Channel == TIM_Channel_2)
 2478              		.loc 1 1908 0
 2479 0008 042B     		cmp	r3, #4	@ D.7132,
 2480 000a 58D0     		beq	.L123	@,
1909:cmsis/device/stm32f4xx_tim.c ****   {
1910:cmsis/device/stm32f4xx_tim.c ****     /* TI2 Configuration */
1911:cmsis/device/stm32f4xx_tim.c ****     assert_param(IS_TIM_LIST2_PERIPH(TIMx));
1912:cmsis/device/stm32f4xx_tim.c ****     TI2_Config(TIMx, TIM_ICInitStruct->TIM_ICPolarity,
1913:cmsis/device/stm32f4xx_tim.c ****                TIM_ICInitStruct->TIM_ICSelection,
1914:cmsis/device/stm32f4xx_tim.c ****                TIM_ICInitStruct->TIM_ICFilter);
1915:cmsis/device/stm32f4xx_tim.c ****     /* Set the Input Capture Prescaler value */
1916:cmsis/device/stm32f4xx_tim.c ****     TIM_SetIC2Prescaler(TIMx, TIM_ICInitStruct->TIM_ICPrescaler);
1917:cmsis/device/stm32f4xx_tim.c ****   }
1918:cmsis/device/stm32f4xx_tim.c ****   else if (TIM_ICInitStruct->TIM_Channel == TIM_Channel_3)
 2481              		.loc 1 1918 0
 2482 000c 082B     		cmp	r3, #8	@ D.7132,
 2483              	.LBB46:
 2484              	.LBB47:
1919:cmsis/device/stm32f4xx_tim.c ****   {
1920:cmsis/device/stm32f4xx_tim.c ****     /* TI3 Configuration */
1921:cmsis/device/stm32f4xx_tim.c ****     assert_param(IS_TIM_LIST3_PERIPH(TIMx));
1922:cmsis/device/stm32f4xx_tim.c ****     TI3_Config(TIMx,  TIM_ICInitStruct->TIM_ICPolarity,
1923:cmsis/device/stm32f4xx_tim.c ****                TIM_ICInitStruct->TIM_ICSelection,
1924:cmsis/device/stm32f4xx_tim.c ****                TIM_ICInitStruct->TIM_ICFilter);
1925:cmsis/device/stm32f4xx_tim.c ****     /* Set the Input Capture Prescaler value */
1926:cmsis/device/stm32f4xx_tim.c ****     TIM_SetIC3Prescaler(TIMx, TIM_ICInitStruct->TIM_ICPrescaler);
1927:cmsis/device/stm32f4xx_tim.c ****   }
1928:cmsis/device/stm32f4xx_tim.c ****   else
1929:cmsis/device/stm32f4xx_tim.c ****   {
1930:cmsis/device/stm32f4xx_tim.c ****     /* TI4 Configuration */
1931:cmsis/device/stm32f4xx_tim.c ****     assert_param(IS_TIM_LIST3_PERIPH(TIMx));
1932:cmsis/device/stm32f4xx_tim.c ****     TI4_Config(TIMx, TIM_ICInitStruct->TIM_ICPolarity,
1933:cmsis/device/stm32f4xx_tim.c ****                TIM_ICInitStruct->TIM_ICSelection,
1934:cmsis/device/stm32f4xx_tim.c ****                TIM_ICInitStruct->TIM_ICFilter);
1935:cmsis/device/stm32f4xx_tim.c ****     /* Set the Input Capture Prescaler value */
1936:cmsis/device/stm32f4xx_tim.c ****     TIM_SetIC4Prescaler(TIMx, TIM_ICInitStruct->TIM_ICPrescaler);
1937:cmsis/device/stm32f4xx_tim.c ****   }
1938:cmsis/device/stm32f4xx_tim.c **** }
1939:cmsis/device/stm32f4xx_tim.c **** 
1940:cmsis/device/stm32f4xx_tim.c **** /**
1941:cmsis/device/stm32f4xx_tim.c ****   * @brief  Fills each TIM_ICInitStruct member with its default value.
1942:cmsis/device/stm32f4xx_tim.c ****   * @param  TIM_ICInitStruct: pointer to a TIM_ICInitTypeDef structure which will
1943:cmsis/device/stm32f4xx_tim.c ****   *         be initialized.
1944:cmsis/device/stm32f4xx_tim.c ****   * @retval None
1945:cmsis/device/stm32f4xx_tim.c ****   */
1946:cmsis/device/stm32f4xx_tim.c **** void TIM_ICStructInit(TIM_ICInitTypeDef* TIM_ICInitStruct)
1947:cmsis/device/stm32f4xx_tim.c **** {
ARM GAS  C:\Users\CNous\AppData\Local\Temp\ccZi7tDD.s 			page 82


1948:cmsis/device/stm32f4xx_tim.c ****   /* Set the default configuration */
1949:cmsis/device/stm32f4xx_tim.c ****   TIM_ICInitStruct->TIM_Channel = TIM_Channel_1;
1950:cmsis/device/stm32f4xx_tim.c ****   TIM_ICInitStruct->TIM_ICPolarity = TIM_ICPolarity_Rising;
1951:cmsis/device/stm32f4xx_tim.c ****   TIM_ICInitStruct->TIM_ICSelection = TIM_ICSelection_DirectTI;
1952:cmsis/device/stm32f4xx_tim.c ****   TIM_ICInitStruct->TIM_ICPrescaler = TIM_ICPSC_DIV1;
1953:cmsis/device/stm32f4xx_tim.c ****   TIM_ICInitStruct->TIM_ICFilter = 0x00;
1954:cmsis/device/stm32f4xx_tim.c **** }
1955:cmsis/device/stm32f4xx_tim.c **** 
1956:cmsis/device/stm32f4xx_tim.c **** /**
1957:cmsis/device/stm32f4xx_tim.c ****   * @brief  Configures the TIM peripheral according to the specified parameters
1958:cmsis/device/stm32f4xx_tim.c ****   *         in the TIM_ICInitStruct to measure an external PWM signal.
1959:cmsis/device/stm32f4xx_tim.c ****   * @param  TIMx: where x can be  1, 2, 3, 4, 5,8, 9 or 12 to select the TIM 
1960:cmsis/device/stm32f4xx_tim.c ****   *         peripheral.
1961:cmsis/device/stm32f4xx_tim.c ****   * @param  TIM_ICInitStruct: pointer to a TIM_ICInitTypeDef structure that contains
1962:cmsis/device/stm32f4xx_tim.c ****   *         the configuration information for the specified TIM peripheral.
1963:cmsis/device/stm32f4xx_tim.c ****   * @retval None
1964:cmsis/device/stm32f4xx_tim.c ****   */
1965:cmsis/device/stm32f4xx_tim.c **** void TIM_PWMIConfig(TIM_TypeDef* TIMx, TIM_ICInitTypeDef* TIM_ICInitStruct)
1966:cmsis/device/stm32f4xx_tim.c **** {
1967:cmsis/device/stm32f4xx_tim.c ****   uint16_t icoppositepolarity = TIM_ICPolarity_Rising;
1968:cmsis/device/stm32f4xx_tim.c ****   uint16_t icoppositeselection = TIM_ICSelection_DirectTI;
1969:cmsis/device/stm32f4xx_tim.c **** 
1970:cmsis/device/stm32f4xx_tim.c ****   /* Check the parameters */
1971:cmsis/device/stm32f4xx_tim.c ****   assert_param(IS_TIM_LIST2_PERIPH(TIMx));
1972:cmsis/device/stm32f4xx_tim.c **** 
1973:cmsis/device/stm32f4xx_tim.c ****   /* Select the Opposite Input Polarity */
1974:cmsis/device/stm32f4xx_tim.c ****   if (TIM_ICInitStruct->TIM_ICPolarity == TIM_ICPolarity_Rising)
1975:cmsis/device/stm32f4xx_tim.c ****   {
1976:cmsis/device/stm32f4xx_tim.c ****     icoppositepolarity = TIM_ICPolarity_Falling;
1977:cmsis/device/stm32f4xx_tim.c ****   }
1978:cmsis/device/stm32f4xx_tim.c ****   else
1979:cmsis/device/stm32f4xx_tim.c ****   {
1980:cmsis/device/stm32f4xx_tim.c ****     icoppositepolarity = TIM_ICPolarity_Rising;
1981:cmsis/device/stm32f4xx_tim.c ****   }
1982:cmsis/device/stm32f4xx_tim.c ****   /* Select the Opposite Input */
1983:cmsis/device/stm32f4xx_tim.c ****   if (TIM_ICInitStruct->TIM_ICSelection == TIM_ICSelection_DirectTI)
1984:cmsis/device/stm32f4xx_tim.c ****   {
1985:cmsis/device/stm32f4xx_tim.c ****     icoppositeselection = TIM_ICSelection_IndirectTI;
1986:cmsis/device/stm32f4xx_tim.c ****   }
1987:cmsis/device/stm32f4xx_tim.c ****   else
1988:cmsis/device/stm32f4xx_tim.c ****   {
1989:cmsis/device/stm32f4xx_tim.c ****     icoppositeselection = TIM_ICSelection_DirectTI;
1990:cmsis/device/stm32f4xx_tim.c ****   }
1991:cmsis/device/stm32f4xx_tim.c ****   if (TIM_ICInitStruct->TIM_Channel == TIM_Channel_1)
1992:cmsis/device/stm32f4xx_tim.c ****   {
1993:cmsis/device/stm32f4xx_tim.c ****     /* TI1 Configuration */
1994:cmsis/device/stm32f4xx_tim.c ****     TI1_Config(TIMx, TIM_ICInitStruct->TIM_ICPolarity, TIM_ICInitStruct->TIM_ICSelection,
1995:cmsis/device/stm32f4xx_tim.c ****                TIM_ICInitStruct->TIM_ICFilter);
1996:cmsis/device/stm32f4xx_tim.c ****     /* Set the Input Capture Prescaler value */
1997:cmsis/device/stm32f4xx_tim.c ****     TIM_SetIC1Prescaler(TIMx, TIM_ICInitStruct->TIM_ICPrescaler);
1998:cmsis/device/stm32f4xx_tim.c ****     /* TI2 Configuration */
1999:cmsis/device/stm32f4xx_tim.c ****     TI2_Config(TIMx, icoppositepolarity, icoppositeselection, TIM_ICInitStruct->TIM_ICFilter);
2000:cmsis/device/stm32f4xx_tim.c ****     /* Set the Input Capture Prescaler value */
2001:cmsis/device/stm32f4xx_tim.c ****     TIM_SetIC2Prescaler(TIMx, TIM_ICInitStruct->TIM_ICPrescaler);
2002:cmsis/device/stm32f4xx_tim.c ****   }
2003:cmsis/device/stm32f4xx_tim.c ****   else
2004:cmsis/device/stm32f4xx_tim.c ****   { 
ARM GAS  C:\Users\CNous\AppData\Local\Temp\ccZi7tDD.s 			page 83


2005:cmsis/device/stm32f4xx_tim.c ****     /* TI2 Configuration */
2006:cmsis/device/stm32f4xx_tim.c ****     TI2_Config(TIMx, TIM_ICInitStruct->TIM_ICPolarity, TIM_ICInitStruct->TIM_ICSelection,
2007:cmsis/device/stm32f4xx_tim.c ****                TIM_ICInitStruct->TIM_ICFilter);
2008:cmsis/device/stm32f4xx_tim.c ****     /* Set the Input Capture Prescaler value */
2009:cmsis/device/stm32f4xx_tim.c ****     TIM_SetIC2Prescaler(TIMx, TIM_ICInitStruct->TIM_ICPrescaler);
2010:cmsis/device/stm32f4xx_tim.c ****     /* TI1 Configuration */
2011:cmsis/device/stm32f4xx_tim.c ****     TI1_Config(TIMx, icoppositepolarity, icoppositeselection, TIM_ICInitStruct->TIM_ICFilter);
2012:cmsis/device/stm32f4xx_tim.c ****     /* Set the Input Capture Prescaler value */
2013:cmsis/device/stm32f4xx_tim.c ****     TIM_SetIC1Prescaler(TIMx, TIM_ICInitStruct->TIM_ICPrescaler);
2014:cmsis/device/stm32f4xx_tim.c ****   }
2015:cmsis/device/stm32f4xx_tim.c **** }
2016:cmsis/device/stm32f4xx_tim.c **** 
2017:cmsis/device/stm32f4xx_tim.c **** /**
2018:cmsis/device/stm32f4xx_tim.c ****   * @brief  Gets the TIMx Input Capture 1 value.
2019:cmsis/device/stm32f4xx_tim.c ****   * @param  TIMx: where x can be 1 to 14 except 6 and 7, to select the TIM peripheral.
2020:cmsis/device/stm32f4xx_tim.c ****   * @retval Capture Compare 1 Register value.
2021:cmsis/device/stm32f4xx_tim.c ****   */
2022:cmsis/device/stm32f4xx_tim.c **** uint32_t TIM_GetCapture1(TIM_TypeDef* TIMx)
2023:cmsis/device/stm32f4xx_tim.c **** {
2024:cmsis/device/stm32f4xx_tim.c ****   /* Check the parameters */
2025:cmsis/device/stm32f4xx_tim.c ****   assert_param(IS_TIM_LIST1_PERIPH(TIMx));
2026:cmsis/device/stm32f4xx_tim.c **** 
2027:cmsis/device/stm32f4xx_tim.c ****   /* Get the Capture 1 Register value */
2028:cmsis/device/stm32f4xx_tim.c ****   return TIMx->CCR1;
2029:cmsis/device/stm32f4xx_tim.c **** }
2030:cmsis/device/stm32f4xx_tim.c **** 
2031:cmsis/device/stm32f4xx_tim.c **** /**
2032:cmsis/device/stm32f4xx_tim.c ****   * @brief  Gets the TIMx Input Capture 2 value.
2033:cmsis/device/stm32f4xx_tim.c ****   * @param  TIMx: where x can be 1, 2, 3, 4, 5, 8, 9 or 12 to select the TIM 
2034:cmsis/device/stm32f4xx_tim.c ****   *         peripheral.
2035:cmsis/device/stm32f4xx_tim.c ****   * @retval Capture Compare 2 Register value.
2036:cmsis/device/stm32f4xx_tim.c ****   */
2037:cmsis/device/stm32f4xx_tim.c **** uint32_t TIM_GetCapture2(TIM_TypeDef* TIMx)
2038:cmsis/device/stm32f4xx_tim.c **** {
2039:cmsis/device/stm32f4xx_tim.c ****   /* Check the parameters */
2040:cmsis/device/stm32f4xx_tim.c ****   assert_param(IS_TIM_LIST2_PERIPH(TIMx));
2041:cmsis/device/stm32f4xx_tim.c **** 
2042:cmsis/device/stm32f4xx_tim.c ****   /* Get the Capture 2 Register value */
2043:cmsis/device/stm32f4xx_tim.c ****   return TIMx->CCR2;
2044:cmsis/device/stm32f4xx_tim.c **** }
2045:cmsis/device/stm32f4xx_tim.c **** 
2046:cmsis/device/stm32f4xx_tim.c **** /**
2047:cmsis/device/stm32f4xx_tim.c ****   * @brief  Gets the TIMx Input Capture 3 value.
2048:cmsis/device/stm32f4xx_tim.c ****   * @param  TIMx: where x can be 1, 2, 3, 4, 5 or 8 to select the TIM peripheral.
2049:cmsis/device/stm32f4xx_tim.c ****   * @retval Capture Compare 3 Register value.
2050:cmsis/device/stm32f4xx_tim.c ****   */
2051:cmsis/device/stm32f4xx_tim.c **** uint32_t TIM_GetCapture3(TIM_TypeDef* TIMx)
2052:cmsis/device/stm32f4xx_tim.c **** {
2053:cmsis/device/stm32f4xx_tim.c ****   /* Check the parameters */
2054:cmsis/device/stm32f4xx_tim.c ****   assert_param(IS_TIM_LIST3_PERIPH(TIMx)); 
2055:cmsis/device/stm32f4xx_tim.c **** 
2056:cmsis/device/stm32f4xx_tim.c ****   /* Get the Capture 3 Register value */
2057:cmsis/device/stm32f4xx_tim.c ****   return TIMx->CCR3;
2058:cmsis/device/stm32f4xx_tim.c **** }
2059:cmsis/device/stm32f4xx_tim.c **** 
2060:cmsis/device/stm32f4xx_tim.c **** /**
2061:cmsis/device/stm32f4xx_tim.c ****   * @brief  Gets the TIMx Input Capture 4 value.
ARM GAS  C:\Users\CNous\AppData\Local\Temp\ccZi7tDD.s 			page 84


2062:cmsis/device/stm32f4xx_tim.c ****   * @param  TIMx: where x can be 1, 2, 3, 4, 5 or 8 to select the TIM peripheral.
2063:cmsis/device/stm32f4xx_tim.c ****   * @retval Capture Compare 4 Register value.
2064:cmsis/device/stm32f4xx_tim.c ****   */
2065:cmsis/device/stm32f4xx_tim.c **** uint32_t TIM_GetCapture4(TIM_TypeDef* TIMx)
2066:cmsis/device/stm32f4xx_tim.c **** {
2067:cmsis/device/stm32f4xx_tim.c ****   /* Check the parameters */
2068:cmsis/device/stm32f4xx_tim.c ****   assert_param(IS_TIM_LIST3_PERIPH(TIMx));
2069:cmsis/device/stm32f4xx_tim.c **** 
2070:cmsis/device/stm32f4xx_tim.c ****   /* Get the Capture 4 Register value */
2071:cmsis/device/stm32f4xx_tim.c ****   return TIMx->CCR4;
2072:cmsis/device/stm32f4xx_tim.c **** }
2073:cmsis/device/stm32f4xx_tim.c **** 
2074:cmsis/device/stm32f4xx_tim.c **** /**
2075:cmsis/device/stm32f4xx_tim.c ****   * @brief  Sets the TIMx Input Capture 1 prescaler.
2076:cmsis/device/stm32f4xx_tim.c ****   * @param  TIMx: where x can be 1 to 14 except 6 and 7, to select the TIM peripheral.
2077:cmsis/device/stm32f4xx_tim.c ****   * @param  TIM_ICPSC: specifies the Input Capture1 prescaler new value.
2078:cmsis/device/stm32f4xx_tim.c ****   *          This parameter can be one of the following values:
2079:cmsis/device/stm32f4xx_tim.c ****   *            @arg TIM_ICPSC_DIV1: no prescaler
2080:cmsis/device/stm32f4xx_tim.c ****   *            @arg TIM_ICPSC_DIV2: capture is done once every 2 events
2081:cmsis/device/stm32f4xx_tim.c ****   *            @arg TIM_ICPSC_DIV4: capture is done once every 4 events
2082:cmsis/device/stm32f4xx_tim.c ****   *            @arg TIM_ICPSC_DIV8: capture is done once every 8 events
2083:cmsis/device/stm32f4xx_tim.c ****   * @retval None
2084:cmsis/device/stm32f4xx_tim.c ****   */
2085:cmsis/device/stm32f4xx_tim.c **** void TIM_SetIC1Prescaler(TIM_TypeDef* TIMx, uint16_t TIM_ICPSC)
2086:cmsis/device/stm32f4xx_tim.c **** {
2087:cmsis/device/stm32f4xx_tim.c ****   /* Check the parameters */
2088:cmsis/device/stm32f4xx_tim.c ****   assert_param(IS_TIM_LIST1_PERIPH(TIMx));
2089:cmsis/device/stm32f4xx_tim.c ****   assert_param(IS_TIM_IC_PRESCALER(TIM_ICPSC));
2090:cmsis/device/stm32f4xx_tim.c **** 
2091:cmsis/device/stm32f4xx_tim.c ****   /* Reset the IC1PSC Bits */
2092:cmsis/device/stm32f4xx_tim.c ****   TIMx->CCMR1 &= (uint16_t)~TIM_CCMR1_IC1PSC;
2093:cmsis/device/stm32f4xx_tim.c **** 
2094:cmsis/device/stm32f4xx_tim.c ****   /* Set the IC1PSC value */
2095:cmsis/device/stm32f4xx_tim.c ****   TIMx->CCMR1 |= TIM_ICPSC;
2096:cmsis/device/stm32f4xx_tim.c **** }
2097:cmsis/device/stm32f4xx_tim.c **** 
2098:cmsis/device/stm32f4xx_tim.c **** /**
2099:cmsis/device/stm32f4xx_tim.c ****   * @brief  Sets the TIMx Input Capture 2 prescaler.
2100:cmsis/device/stm32f4xx_tim.c ****   * @param  TIMx: where x can be 1, 2, 3, 4, 5, 8, 9 or 12 to select the TIM 
2101:cmsis/device/stm32f4xx_tim.c ****   *         peripheral.
2102:cmsis/device/stm32f4xx_tim.c ****   * @param  TIM_ICPSC: specifies the Input Capture2 prescaler new value.
2103:cmsis/device/stm32f4xx_tim.c ****   *          This parameter can be one of the following values:
2104:cmsis/device/stm32f4xx_tim.c ****   *            @arg TIM_ICPSC_DIV1: no prescaler
2105:cmsis/device/stm32f4xx_tim.c ****   *            @arg TIM_ICPSC_DIV2: capture is done once every 2 events
2106:cmsis/device/stm32f4xx_tim.c ****   *            @arg TIM_ICPSC_DIV4: capture is done once every 4 events
2107:cmsis/device/stm32f4xx_tim.c ****   *            @arg TIM_ICPSC_DIV8: capture is done once every 8 events
2108:cmsis/device/stm32f4xx_tim.c ****   * @retval None
2109:cmsis/device/stm32f4xx_tim.c ****   */
2110:cmsis/device/stm32f4xx_tim.c **** void TIM_SetIC2Prescaler(TIM_TypeDef* TIMx, uint16_t TIM_ICPSC)
2111:cmsis/device/stm32f4xx_tim.c **** {
2112:cmsis/device/stm32f4xx_tim.c ****   /* Check the parameters */
2113:cmsis/device/stm32f4xx_tim.c ****   assert_param(IS_TIM_LIST2_PERIPH(TIMx));
2114:cmsis/device/stm32f4xx_tim.c ****   assert_param(IS_TIM_IC_PRESCALER(TIM_ICPSC));
2115:cmsis/device/stm32f4xx_tim.c **** 
2116:cmsis/device/stm32f4xx_tim.c ****   /* Reset the IC2PSC Bits */
2117:cmsis/device/stm32f4xx_tim.c ****   TIMx->CCMR1 &= (uint16_t)~TIM_CCMR1_IC2PSC;
2118:cmsis/device/stm32f4xx_tim.c **** 
ARM GAS  C:\Users\CNous\AppData\Local\Temp\ccZi7tDD.s 			page 85


2119:cmsis/device/stm32f4xx_tim.c ****   /* Set the IC2PSC value */
2120:cmsis/device/stm32f4xx_tim.c ****   TIMx->CCMR1 |= (uint16_t)(TIM_ICPSC << 8);
2121:cmsis/device/stm32f4xx_tim.c **** }
2122:cmsis/device/stm32f4xx_tim.c **** 
2123:cmsis/device/stm32f4xx_tim.c **** /**
2124:cmsis/device/stm32f4xx_tim.c ****   * @brief  Sets the TIMx Input Capture 3 prescaler.
2125:cmsis/device/stm32f4xx_tim.c ****   * @param  TIMx: where x can be 1, 2, 3, 4, 5 or 8 to select the TIM peripheral.
2126:cmsis/device/stm32f4xx_tim.c ****   * @param  TIM_ICPSC: specifies the Input Capture3 prescaler new value.
2127:cmsis/device/stm32f4xx_tim.c ****   *          This parameter can be one of the following values:
2128:cmsis/device/stm32f4xx_tim.c ****   *            @arg TIM_ICPSC_DIV1: no prescaler
2129:cmsis/device/stm32f4xx_tim.c ****   *            @arg TIM_ICPSC_DIV2: capture is done once every 2 events
2130:cmsis/device/stm32f4xx_tim.c ****   *            @arg TIM_ICPSC_DIV4: capture is done once every 4 events
2131:cmsis/device/stm32f4xx_tim.c ****   *            @arg TIM_ICPSC_DIV8: capture is done once every 8 events
2132:cmsis/device/stm32f4xx_tim.c ****   * @retval None
2133:cmsis/device/stm32f4xx_tim.c ****   */
2134:cmsis/device/stm32f4xx_tim.c **** void TIM_SetIC3Prescaler(TIM_TypeDef* TIMx, uint16_t TIM_ICPSC)
2135:cmsis/device/stm32f4xx_tim.c **** {
2136:cmsis/device/stm32f4xx_tim.c ****   /* Check the parameters */
2137:cmsis/device/stm32f4xx_tim.c ****   assert_param(IS_TIM_LIST3_PERIPH(TIMx));
2138:cmsis/device/stm32f4xx_tim.c ****   assert_param(IS_TIM_IC_PRESCALER(TIM_ICPSC));
2139:cmsis/device/stm32f4xx_tim.c **** 
2140:cmsis/device/stm32f4xx_tim.c ****   /* Reset the IC3PSC Bits */
2141:cmsis/device/stm32f4xx_tim.c ****   TIMx->CCMR2 &= (uint16_t)~TIM_CCMR2_IC3PSC;
2142:cmsis/device/stm32f4xx_tim.c **** 
2143:cmsis/device/stm32f4xx_tim.c ****   /* Set the IC3PSC value */
2144:cmsis/device/stm32f4xx_tim.c ****   TIMx->CCMR2 |= TIM_ICPSC;
2145:cmsis/device/stm32f4xx_tim.c **** }
2146:cmsis/device/stm32f4xx_tim.c **** 
2147:cmsis/device/stm32f4xx_tim.c **** /**
2148:cmsis/device/stm32f4xx_tim.c ****   * @brief  Sets the TIMx Input Capture 4 prescaler.
2149:cmsis/device/stm32f4xx_tim.c ****   * @param  TIMx: where x can be 1, 2, 3, 4, 5 or 8 to select the TIM peripheral.
2150:cmsis/device/stm32f4xx_tim.c ****   * @param  TIM_ICPSC: specifies the Input Capture4 prescaler new value.
2151:cmsis/device/stm32f4xx_tim.c ****   *          This parameter can be one of the following values:
2152:cmsis/device/stm32f4xx_tim.c ****   *            @arg TIM_ICPSC_DIV1: no prescaler
2153:cmsis/device/stm32f4xx_tim.c ****   *            @arg TIM_ICPSC_DIV2: capture is done once every 2 events
2154:cmsis/device/stm32f4xx_tim.c ****   *            @arg TIM_ICPSC_DIV4: capture is done once every 4 events
2155:cmsis/device/stm32f4xx_tim.c ****   *            @arg TIM_ICPSC_DIV8: capture is done once every 8 events
2156:cmsis/device/stm32f4xx_tim.c ****   * @retval None
2157:cmsis/device/stm32f4xx_tim.c ****   */
2158:cmsis/device/stm32f4xx_tim.c **** void TIM_SetIC4Prescaler(TIM_TypeDef* TIMx, uint16_t TIM_ICPSC)
2159:cmsis/device/stm32f4xx_tim.c **** {  
2160:cmsis/device/stm32f4xx_tim.c ****   /* Check the parameters */
2161:cmsis/device/stm32f4xx_tim.c ****   assert_param(IS_TIM_LIST3_PERIPH(TIMx));
2162:cmsis/device/stm32f4xx_tim.c ****   assert_param(IS_TIM_IC_PRESCALER(TIM_ICPSC));
2163:cmsis/device/stm32f4xx_tim.c **** 
2164:cmsis/device/stm32f4xx_tim.c ****   /* Reset the IC4PSC Bits */
2165:cmsis/device/stm32f4xx_tim.c ****   TIMx->CCMR2 &= (uint16_t)~TIM_CCMR2_IC4PSC;
2166:cmsis/device/stm32f4xx_tim.c **** 
2167:cmsis/device/stm32f4xx_tim.c ****   /* Set the IC4PSC value */
2168:cmsis/device/stm32f4xx_tim.c ****   TIMx->CCMR2 |= (uint16_t)(TIM_ICPSC << 8);
2169:cmsis/device/stm32f4xx_tim.c **** }
2170:cmsis/device/stm32f4xx_tim.c **** /**
2171:cmsis/device/stm32f4xx_tim.c ****   * @}
2172:cmsis/device/stm32f4xx_tim.c ****   */
2173:cmsis/device/stm32f4xx_tim.c **** 
2174:cmsis/device/stm32f4xx_tim.c **** /** @defgroup TIM_Group4 Advanced-control timers (TIM1 and TIM8) specific features
2175:cmsis/device/stm32f4xx_tim.c ****  *  @brief   Advanced-control timers (TIM1 and TIM8) specific features
ARM GAS  C:\Users\CNous\AppData\Local\Temp\ccZi7tDD.s 			page 86


2176:cmsis/device/stm32f4xx_tim.c ****  *
2177:cmsis/device/stm32f4xx_tim.c **** @verbatim   
2178:cmsis/device/stm32f4xx_tim.c ****  ===============================================================================
2179:cmsis/device/stm32f4xx_tim.c ****           Advanced-control timers (TIM1 and TIM8) specific features
2180:cmsis/device/stm32f4xx_tim.c ****  ===============================================================================  
2181:cmsis/device/stm32f4xx_tim.c ****   
2182:cmsis/device/stm32f4xx_tim.c ****        ===================================================================      
2183:cmsis/device/stm32f4xx_tim.c ****               TIM Driver: how to use the Break feature
2184:cmsis/device/stm32f4xx_tim.c ****        =================================================================== 
2185:cmsis/device/stm32f4xx_tim.c ****        After configuring the Timer channel(s) in the appropriate Output Compare mode: 
2186:cmsis/device/stm32f4xx_tim.c ****                          
2187:cmsis/device/stm32f4xx_tim.c ****        1. Fill the TIM_BDTRInitStruct with the desired parameters for the Timer
2188:cmsis/device/stm32f4xx_tim.c ****           Break Polarity, dead time, Lock level, the OSSI/OSSR State and the 
2189:cmsis/device/stm32f4xx_tim.c ****           AOE(automatic output enable).
2190:cmsis/device/stm32f4xx_tim.c ****                
2191:cmsis/device/stm32f4xx_tim.c ****        2. Call TIM_BDTRConfig(TIMx, &TIM_BDTRInitStruct) to configure the Timer
2192:cmsis/device/stm32f4xx_tim.c ****           
2193:cmsis/device/stm32f4xx_tim.c ****        3. Enable the Main Output using TIM_CtrlPWMOutputs(TIM1, ENABLE) 
2194:cmsis/device/stm32f4xx_tim.c ****           
2195:cmsis/device/stm32f4xx_tim.c ****        4. Once the break even occurs, the Timer's output signals are put in reset
2196:cmsis/device/stm32f4xx_tim.c ****           state or in a known state (according to the configuration made in
2197:cmsis/device/stm32f4xx_tim.c ****           TIM_BDTRConfig() function).
2198:cmsis/device/stm32f4xx_tim.c **** 
2199:cmsis/device/stm32f4xx_tim.c **** @endverbatim
2200:cmsis/device/stm32f4xx_tim.c ****   * @{
2201:cmsis/device/stm32f4xx_tim.c ****   */
2202:cmsis/device/stm32f4xx_tim.c **** 
2203:cmsis/device/stm32f4xx_tim.c **** /**
2204:cmsis/device/stm32f4xx_tim.c ****   * @brief  Configures the Break feature, dead time, Lock level, OSSI/OSSR State
2205:cmsis/device/stm32f4xx_tim.c ****   *         and the AOE(automatic output enable).
2206:cmsis/device/stm32f4xx_tim.c ****   * @param  TIMx: where x can be  1 or 8 to select the TIM 
2207:cmsis/device/stm32f4xx_tim.c ****   * @param  TIM_BDTRInitStruct: pointer to a TIM_BDTRInitTypeDef structure that
2208:cmsis/device/stm32f4xx_tim.c ****   *         contains the BDTR Register configuration  information for the TIM peripheral.
2209:cmsis/device/stm32f4xx_tim.c ****   * @retval None
2210:cmsis/device/stm32f4xx_tim.c ****   */
2211:cmsis/device/stm32f4xx_tim.c **** void TIM_BDTRConfig(TIM_TypeDef* TIMx, TIM_BDTRInitTypeDef *TIM_BDTRInitStruct)
2212:cmsis/device/stm32f4xx_tim.c **** {
2213:cmsis/device/stm32f4xx_tim.c ****   /* Check the parameters */
2214:cmsis/device/stm32f4xx_tim.c ****   assert_param(IS_TIM_LIST4_PERIPH(TIMx));
2215:cmsis/device/stm32f4xx_tim.c ****   assert_param(IS_TIM_OSSR_STATE(TIM_BDTRInitStruct->TIM_OSSRState));
2216:cmsis/device/stm32f4xx_tim.c ****   assert_param(IS_TIM_OSSI_STATE(TIM_BDTRInitStruct->TIM_OSSIState));
2217:cmsis/device/stm32f4xx_tim.c ****   assert_param(IS_TIM_LOCK_LEVEL(TIM_BDTRInitStruct->TIM_LOCKLevel));
2218:cmsis/device/stm32f4xx_tim.c ****   assert_param(IS_TIM_BREAK_STATE(TIM_BDTRInitStruct->TIM_Break));
2219:cmsis/device/stm32f4xx_tim.c ****   assert_param(IS_TIM_BREAK_POLARITY(TIM_BDTRInitStruct->TIM_BreakPolarity));
2220:cmsis/device/stm32f4xx_tim.c ****   assert_param(IS_TIM_AUTOMATIC_OUTPUT_STATE(TIM_BDTRInitStruct->TIM_AutomaticOutput));
2221:cmsis/device/stm32f4xx_tim.c **** 
2222:cmsis/device/stm32f4xx_tim.c ****   /* Set the Lock level, the Break enable Bit and the Polarity, the OSSR State,
2223:cmsis/device/stm32f4xx_tim.c ****      the OSSI State, the dead time value and the Automatic Output Enable Bit */
2224:cmsis/device/stm32f4xx_tim.c ****   TIMx->BDTR = (uint32_t)TIM_BDTRInitStruct->TIM_OSSRState | TIM_BDTRInitStruct->TIM_OSSIState |
2225:cmsis/device/stm32f4xx_tim.c ****              TIM_BDTRInitStruct->TIM_LOCKLevel | TIM_BDTRInitStruct->TIM_DeadTime |
2226:cmsis/device/stm32f4xx_tim.c ****              TIM_BDTRInitStruct->TIM_Break | TIM_BDTRInitStruct->TIM_BreakPolarity |
2227:cmsis/device/stm32f4xx_tim.c ****              TIM_BDTRInitStruct->TIM_AutomaticOutput;
2228:cmsis/device/stm32f4xx_tim.c **** }
2229:cmsis/device/stm32f4xx_tim.c **** 
2230:cmsis/device/stm32f4xx_tim.c **** /**
2231:cmsis/device/stm32f4xx_tim.c ****   * @brief  Fills each TIM_BDTRInitStruct member with its default value.
2232:cmsis/device/stm32f4xx_tim.c ****   * @param  TIM_BDTRInitStruct: pointer to a TIM_BDTRInitTypeDef structure which
ARM GAS  C:\Users\CNous\AppData\Local\Temp\ccZi7tDD.s 			page 87


2233:cmsis/device/stm32f4xx_tim.c ****   *         will be initialized.
2234:cmsis/device/stm32f4xx_tim.c ****   * @retval None
2235:cmsis/device/stm32f4xx_tim.c ****   */
2236:cmsis/device/stm32f4xx_tim.c **** void TIM_BDTRStructInit(TIM_BDTRInitTypeDef* TIM_BDTRInitStruct)
2237:cmsis/device/stm32f4xx_tim.c **** {
2238:cmsis/device/stm32f4xx_tim.c ****   /* Set the default configuration */
2239:cmsis/device/stm32f4xx_tim.c ****   TIM_BDTRInitStruct->TIM_OSSRState = TIM_OSSRState_Disable;
2240:cmsis/device/stm32f4xx_tim.c ****   TIM_BDTRInitStruct->TIM_OSSIState = TIM_OSSIState_Disable;
2241:cmsis/device/stm32f4xx_tim.c ****   TIM_BDTRInitStruct->TIM_LOCKLevel = TIM_LOCKLevel_OFF;
2242:cmsis/device/stm32f4xx_tim.c ****   TIM_BDTRInitStruct->TIM_DeadTime = 0x00;
2243:cmsis/device/stm32f4xx_tim.c ****   TIM_BDTRInitStruct->TIM_Break = TIM_Break_Disable;
2244:cmsis/device/stm32f4xx_tim.c ****   TIM_BDTRInitStruct->TIM_BreakPolarity = TIM_BreakPolarity_Low;
2245:cmsis/device/stm32f4xx_tim.c ****   TIM_BDTRInitStruct->TIM_AutomaticOutput = TIM_AutomaticOutput_Disable;
2246:cmsis/device/stm32f4xx_tim.c **** }
2247:cmsis/device/stm32f4xx_tim.c **** 
2248:cmsis/device/stm32f4xx_tim.c **** /**
2249:cmsis/device/stm32f4xx_tim.c ****   * @brief  Enables or disables the TIM peripheral Main Outputs.
2250:cmsis/device/stm32f4xx_tim.c ****   * @param  TIMx: where x can be 1 or 8 to select the TIMx peripheral.
2251:cmsis/device/stm32f4xx_tim.c ****   * @param  NewState: new state of the TIM peripheral Main Outputs.
2252:cmsis/device/stm32f4xx_tim.c ****   *          This parameter can be: ENABLE or DISABLE.
2253:cmsis/device/stm32f4xx_tim.c ****   * @retval None
2254:cmsis/device/stm32f4xx_tim.c ****   */
2255:cmsis/device/stm32f4xx_tim.c **** void TIM_CtrlPWMOutputs(TIM_TypeDef* TIMx, FunctionalState NewState)
2256:cmsis/device/stm32f4xx_tim.c **** {
2257:cmsis/device/stm32f4xx_tim.c ****   /* Check the parameters */
2258:cmsis/device/stm32f4xx_tim.c ****   assert_param(IS_TIM_LIST4_PERIPH(TIMx));
2259:cmsis/device/stm32f4xx_tim.c ****   assert_param(IS_FUNCTIONAL_STATE(NewState));
2260:cmsis/device/stm32f4xx_tim.c **** 
2261:cmsis/device/stm32f4xx_tim.c ****   if (NewState != DISABLE)
2262:cmsis/device/stm32f4xx_tim.c ****   {
2263:cmsis/device/stm32f4xx_tim.c ****     /* Enable the TIM Main Output */
2264:cmsis/device/stm32f4xx_tim.c ****     TIMx->BDTR |= TIM_BDTR_MOE;
2265:cmsis/device/stm32f4xx_tim.c ****   }
2266:cmsis/device/stm32f4xx_tim.c ****   else
2267:cmsis/device/stm32f4xx_tim.c ****   {
2268:cmsis/device/stm32f4xx_tim.c ****     /* Disable the TIM Main Output */
2269:cmsis/device/stm32f4xx_tim.c ****     TIMx->BDTR &= (uint16_t)~TIM_BDTR_MOE;
2270:cmsis/device/stm32f4xx_tim.c ****   }  
2271:cmsis/device/stm32f4xx_tim.c **** }
2272:cmsis/device/stm32f4xx_tim.c **** 
2273:cmsis/device/stm32f4xx_tim.c **** /**
2274:cmsis/device/stm32f4xx_tim.c ****   * @brief  Selects the TIM peripheral Commutation event.
2275:cmsis/device/stm32f4xx_tim.c ****   * @param  TIMx: where x can be  1 or 8 to select the TIMx peripheral
2276:cmsis/device/stm32f4xx_tim.c ****   * @param  NewState: new state of the Commutation event.
2277:cmsis/device/stm32f4xx_tim.c ****   *          This parameter can be: ENABLE or DISABLE.
2278:cmsis/device/stm32f4xx_tim.c ****   * @retval None
2279:cmsis/device/stm32f4xx_tim.c ****   */
2280:cmsis/device/stm32f4xx_tim.c **** void TIM_SelectCOM(TIM_TypeDef* TIMx, FunctionalState NewState)
2281:cmsis/device/stm32f4xx_tim.c **** {
2282:cmsis/device/stm32f4xx_tim.c ****   /* Check the parameters */
2283:cmsis/device/stm32f4xx_tim.c ****   assert_param(IS_TIM_LIST4_PERIPH(TIMx));
2284:cmsis/device/stm32f4xx_tim.c ****   assert_param(IS_FUNCTIONAL_STATE(NewState));
2285:cmsis/device/stm32f4xx_tim.c **** 
2286:cmsis/device/stm32f4xx_tim.c ****   if (NewState != DISABLE)
2287:cmsis/device/stm32f4xx_tim.c ****   {
2288:cmsis/device/stm32f4xx_tim.c ****     /* Set the COM Bit */
2289:cmsis/device/stm32f4xx_tim.c ****     TIMx->CR2 |= TIM_CR2_CCUS;
ARM GAS  C:\Users\CNous\AppData\Local\Temp\ccZi7tDD.s 			page 88


2290:cmsis/device/stm32f4xx_tim.c ****   }
2291:cmsis/device/stm32f4xx_tim.c ****   else
2292:cmsis/device/stm32f4xx_tim.c ****   {
2293:cmsis/device/stm32f4xx_tim.c ****     /* Reset the COM Bit */
2294:cmsis/device/stm32f4xx_tim.c ****     TIMx->CR2 &= (uint16_t)~TIM_CR2_CCUS;
2295:cmsis/device/stm32f4xx_tim.c ****   }
2296:cmsis/device/stm32f4xx_tim.c **** }
2297:cmsis/device/stm32f4xx_tim.c **** 
2298:cmsis/device/stm32f4xx_tim.c **** /**
2299:cmsis/device/stm32f4xx_tim.c ****   * @brief  Sets or Resets the TIM peripheral Capture Compare Preload Control bit.
2300:cmsis/device/stm32f4xx_tim.c ****   * @param  TIMx: where x can be  1 or 8 to select the TIMx peripheral
2301:cmsis/device/stm32f4xx_tim.c ****   * @param  NewState: new state of the Capture Compare Preload Control bit
2302:cmsis/device/stm32f4xx_tim.c ****   *          This parameter can be: ENABLE or DISABLE.
2303:cmsis/device/stm32f4xx_tim.c ****   * @retval None
2304:cmsis/device/stm32f4xx_tim.c ****   */
2305:cmsis/device/stm32f4xx_tim.c **** void TIM_CCPreloadControl(TIM_TypeDef* TIMx, FunctionalState NewState)
2306:cmsis/device/stm32f4xx_tim.c **** { 
2307:cmsis/device/stm32f4xx_tim.c ****   /* Check the parameters */
2308:cmsis/device/stm32f4xx_tim.c ****   assert_param(IS_TIM_LIST4_PERIPH(TIMx));
2309:cmsis/device/stm32f4xx_tim.c ****   assert_param(IS_FUNCTIONAL_STATE(NewState));
2310:cmsis/device/stm32f4xx_tim.c ****   if (NewState != DISABLE)
2311:cmsis/device/stm32f4xx_tim.c ****   {
2312:cmsis/device/stm32f4xx_tim.c ****     /* Set the CCPC Bit */
2313:cmsis/device/stm32f4xx_tim.c ****     TIMx->CR2 |= TIM_CR2_CCPC;
2314:cmsis/device/stm32f4xx_tim.c ****   }
2315:cmsis/device/stm32f4xx_tim.c ****   else
2316:cmsis/device/stm32f4xx_tim.c ****   {
2317:cmsis/device/stm32f4xx_tim.c ****     /* Reset the CCPC Bit */
2318:cmsis/device/stm32f4xx_tim.c ****     TIMx->CR2 &= (uint16_t)~TIM_CR2_CCPC;
2319:cmsis/device/stm32f4xx_tim.c ****   }
2320:cmsis/device/stm32f4xx_tim.c **** }
2321:cmsis/device/stm32f4xx_tim.c **** /**
2322:cmsis/device/stm32f4xx_tim.c ****   * @}
2323:cmsis/device/stm32f4xx_tim.c ****   */
2324:cmsis/device/stm32f4xx_tim.c **** 
2325:cmsis/device/stm32f4xx_tim.c **** /** @defgroup TIM_Group5 Interrupts DMA and flags management functions
2326:cmsis/device/stm32f4xx_tim.c ****  *  @brief    Interrupts, DMA and flags management functions 
2327:cmsis/device/stm32f4xx_tim.c ****  *
2328:cmsis/device/stm32f4xx_tim.c **** @verbatim   
2329:cmsis/device/stm32f4xx_tim.c ****  ===============================================================================
2330:cmsis/device/stm32f4xx_tim.c ****                  Interrupts, DMA and flags management functions
2331:cmsis/device/stm32f4xx_tim.c ****  ===============================================================================  
2332:cmsis/device/stm32f4xx_tim.c **** 
2333:cmsis/device/stm32f4xx_tim.c **** @endverbatim
2334:cmsis/device/stm32f4xx_tim.c ****   * @{
2335:cmsis/device/stm32f4xx_tim.c ****   */
2336:cmsis/device/stm32f4xx_tim.c **** 
2337:cmsis/device/stm32f4xx_tim.c **** /**
2338:cmsis/device/stm32f4xx_tim.c ****   * @brief  Enables or disables the specified TIM interrupts.
2339:cmsis/device/stm32f4xx_tim.c ****   * @param  TIMx: where x can be 1 to 14 to select the TIMx peripheral.
2340:cmsis/device/stm32f4xx_tim.c ****   * @param  TIM_IT: specifies the TIM interrupts sources to be enabled or disabled.
2341:cmsis/device/stm32f4xx_tim.c ****   *          This parameter can be any combination of the following values:
2342:cmsis/device/stm32f4xx_tim.c ****   *            @arg TIM_IT_Update: TIM update Interrupt source
2343:cmsis/device/stm32f4xx_tim.c ****   *            @arg TIM_IT_CC1: TIM Capture Compare 1 Interrupt source
2344:cmsis/device/stm32f4xx_tim.c ****   *            @arg TIM_IT_CC2: TIM Capture Compare 2 Interrupt source
2345:cmsis/device/stm32f4xx_tim.c ****   *            @arg TIM_IT_CC3: TIM Capture Compare 3 Interrupt source
2346:cmsis/device/stm32f4xx_tim.c ****   *            @arg TIM_IT_CC4: TIM Capture Compare 4 Interrupt source
ARM GAS  C:\Users\CNous\AppData\Local\Temp\ccZi7tDD.s 			page 89


2347:cmsis/device/stm32f4xx_tim.c ****   *            @arg TIM_IT_COM: TIM Commutation Interrupt source
2348:cmsis/device/stm32f4xx_tim.c ****   *            @arg TIM_IT_Trigger: TIM Trigger Interrupt source
2349:cmsis/device/stm32f4xx_tim.c ****   *            @arg TIM_IT_Break: TIM Break Interrupt source
2350:cmsis/device/stm32f4xx_tim.c ****   *  
2351:cmsis/device/stm32f4xx_tim.c ****   * @note   For TIM6 and TIM7 only the parameter TIM_IT_Update can be used
2352:cmsis/device/stm32f4xx_tim.c ****   * @note   For TIM9 and TIM12 only one of the following parameters can be used: TIM_IT_Update,
2353:cmsis/device/stm32f4xx_tim.c ****   *          TIM_IT_CC1, TIM_IT_CC2 or TIM_IT_Trigger. 
2354:cmsis/device/stm32f4xx_tim.c ****   * @note   For TIM10, TIM11, TIM13 and TIM14 only one of the following parameters can
2355:cmsis/device/stm32f4xx_tim.c ****   *          be used: TIM_IT_Update or TIM_IT_CC1   
2356:cmsis/device/stm32f4xx_tim.c ****   * @note   TIM_IT_COM and TIM_IT_Break can be used only with TIM1 and TIM8 
2357:cmsis/device/stm32f4xx_tim.c ****   *        
2358:cmsis/device/stm32f4xx_tim.c ****   * @param  NewState: new state of the TIM interrupts.
2359:cmsis/device/stm32f4xx_tim.c ****   *          This parameter can be: ENABLE or DISABLE.
2360:cmsis/device/stm32f4xx_tim.c ****   * @retval None
2361:cmsis/device/stm32f4xx_tim.c ****   */
2362:cmsis/device/stm32f4xx_tim.c **** void TIM_ITConfig(TIM_TypeDef* TIMx, uint16_t TIM_IT, FunctionalState NewState)
2363:cmsis/device/stm32f4xx_tim.c **** {  
2364:cmsis/device/stm32f4xx_tim.c ****   /* Check the parameters */
2365:cmsis/device/stm32f4xx_tim.c ****   assert_param(IS_TIM_ALL_PERIPH(TIMx));
2366:cmsis/device/stm32f4xx_tim.c ****   assert_param(IS_TIM_IT(TIM_IT));
2367:cmsis/device/stm32f4xx_tim.c ****   assert_param(IS_FUNCTIONAL_STATE(NewState));
2368:cmsis/device/stm32f4xx_tim.c ****   
2369:cmsis/device/stm32f4xx_tim.c ****   if (NewState != DISABLE)
2370:cmsis/device/stm32f4xx_tim.c ****   {
2371:cmsis/device/stm32f4xx_tim.c ****     /* Enable the Interrupt sources */
2372:cmsis/device/stm32f4xx_tim.c ****     TIMx->DIER |= TIM_IT;
2373:cmsis/device/stm32f4xx_tim.c ****   }
2374:cmsis/device/stm32f4xx_tim.c ****   else
2375:cmsis/device/stm32f4xx_tim.c ****   {
2376:cmsis/device/stm32f4xx_tim.c ****     /* Disable the Interrupt sources */
2377:cmsis/device/stm32f4xx_tim.c ****     TIMx->DIER &= (uint16_t)~TIM_IT;
2378:cmsis/device/stm32f4xx_tim.c ****   }
2379:cmsis/device/stm32f4xx_tim.c **** }
2380:cmsis/device/stm32f4xx_tim.c **** 
2381:cmsis/device/stm32f4xx_tim.c **** /**
2382:cmsis/device/stm32f4xx_tim.c ****   * @brief  Configures the TIMx event to be generate by software.
2383:cmsis/device/stm32f4xx_tim.c ****   * @param  TIMx: where x can be 1 to 14 to select the TIM peripheral.
2384:cmsis/device/stm32f4xx_tim.c ****   * @param  TIM_EventSource: specifies the event source.
2385:cmsis/device/stm32f4xx_tim.c ****   *          This parameter can be one or more of the following values:	   
2386:cmsis/device/stm32f4xx_tim.c ****   *            @arg TIM_EventSource_Update: Timer update Event source
2387:cmsis/device/stm32f4xx_tim.c ****   *            @arg TIM_EventSource_CC1: Timer Capture Compare 1 Event source
2388:cmsis/device/stm32f4xx_tim.c ****   *            @arg TIM_EventSource_CC2: Timer Capture Compare 2 Event source
2389:cmsis/device/stm32f4xx_tim.c ****   *            @arg TIM_EventSource_CC3: Timer Capture Compare 3 Event source
2390:cmsis/device/stm32f4xx_tim.c ****   *            @arg TIM_EventSource_CC4: Timer Capture Compare 4 Event source
2391:cmsis/device/stm32f4xx_tim.c ****   *            @arg TIM_EventSource_COM: Timer COM event source  
2392:cmsis/device/stm32f4xx_tim.c ****   *            @arg TIM_EventSource_Trigger: Timer Trigger Event source
2393:cmsis/device/stm32f4xx_tim.c ****   *            @arg TIM_EventSource_Break: Timer Break event source
2394:cmsis/device/stm32f4xx_tim.c ****   * 
2395:cmsis/device/stm32f4xx_tim.c ****   * @note   TIM6 and TIM7 can only generate an update event. 
2396:cmsis/device/stm32f4xx_tim.c ****   * @note   TIM_EventSource_COM and TIM_EventSource_Break are used only with TIM1 and TIM8.
2397:cmsis/device/stm32f4xx_tim.c ****   *        
2398:cmsis/device/stm32f4xx_tim.c ****   * @retval None
2399:cmsis/device/stm32f4xx_tim.c ****   */
2400:cmsis/device/stm32f4xx_tim.c **** void TIM_GenerateEvent(TIM_TypeDef* TIMx, uint16_t TIM_EventSource)
2401:cmsis/device/stm32f4xx_tim.c **** { 
2402:cmsis/device/stm32f4xx_tim.c ****   /* Check the parameters */
2403:cmsis/device/stm32f4xx_tim.c ****   assert_param(IS_TIM_ALL_PERIPH(TIMx));
ARM GAS  C:\Users\CNous\AppData\Local\Temp\ccZi7tDD.s 			page 90


2404:cmsis/device/stm32f4xx_tim.c ****   assert_param(IS_TIM_EVENT_SOURCE(TIM_EventSource));
2405:cmsis/device/stm32f4xx_tim.c ****  
2406:cmsis/device/stm32f4xx_tim.c ****   /* Set the event sources */
2407:cmsis/device/stm32f4xx_tim.c ****   TIMx->EGR = TIM_EventSource;
2408:cmsis/device/stm32f4xx_tim.c **** }
2409:cmsis/device/stm32f4xx_tim.c **** 
2410:cmsis/device/stm32f4xx_tim.c **** /**
2411:cmsis/device/stm32f4xx_tim.c ****   * @brief  Checks whether the specified TIM flag is set or not.
2412:cmsis/device/stm32f4xx_tim.c ****   * @param  TIMx: where x can be 1 to 14 to select the TIM peripheral.
2413:cmsis/device/stm32f4xx_tim.c ****   * @param  TIM_FLAG: specifies the flag to check.
2414:cmsis/device/stm32f4xx_tim.c ****   *          This parameter can be one of the following values:
2415:cmsis/device/stm32f4xx_tim.c ****   *            @arg TIM_FLAG_Update: TIM update Flag
2416:cmsis/device/stm32f4xx_tim.c ****   *            @arg TIM_FLAG_CC1: TIM Capture Compare 1 Flag
2417:cmsis/device/stm32f4xx_tim.c ****   *            @arg TIM_FLAG_CC2: TIM Capture Compare 2 Flag
2418:cmsis/device/stm32f4xx_tim.c ****   *            @arg TIM_FLAG_CC3: TIM Capture Compare 3 Flag
2419:cmsis/device/stm32f4xx_tim.c ****   *            @arg TIM_FLAG_CC4: TIM Capture Compare 4 Flag
2420:cmsis/device/stm32f4xx_tim.c ****   *            @arg TIM_FLAG_COM: TIM Commutation Flag
2421:cmsis/device/stm32f4xx_tim.c ****   *            @arg TIM_FLAG_Trigger: TIM Trigger Flag
2422:cmsis/device/stm32f4xx_tim.c ****   *            @arg TIM_FLAG_Break: TIM Break Flag
2423:cmsis/device/stm32f4xx_tim.c ****   *            @arg TIM_FLAG_CC1OF: TIM Capture Compare 1 over capture Flag
2424:cmsis/device/stm32f4xx_tim.c ****   *            @arg TIM_FLAG_CC2OF: TIM Capture Compare 2 over capture Flag
2425:cmsis/device/stm32f4xx_tim.c ****   *            @arg TIM_FLAG_CC3OF: TIM Capture Compare 3 over capture Flag
2426:cmsis/device/stm32f4xx_tim.c ****   *            @arg TIM_FLAG_CC4OF: TIM Capture Compare 4 over capture Flag
2427:cmsis/device/stm32f4xx_tim.c ****   *
2428:cmsis/device/stm32f4xx_tim.c ****   * @note   TIM6 and TIM7 can have only one update flag. 
2429:cmsis/device/stm32f4xx_tim.c ****   * @note   TIM_FLAG_COM and TIM_FLAG_Break are used only with TIM1 and TIM8.    
2430:cmsis/device/stm32f4xx_tim.c ****   *
2431:cmsis/device/stm32f4xx_tim.c ****   * @retval The new state of TIM_FLAG (SET or RESET).
2432:cmsis/device/stm32f4xx_tim.c ****   */
2433:cmsis/device/stm32f4xx_tim.c **** FlagStatus TIM_GetFlagStatus(TIM_TypeDef* TIMx, uint16_t TIM_FLAG)
2434:cmsis/device/stm32f4xx_tim.c **** { 
2435:cmsis/device/stm32f4xx_tim.c ****   ITStatus bitstatus = RESET;  
2436:cmsis/device/stm32f4xx_tim.c ****   /* Check the parameters */
2437:cmsis/device/stm32f4xx_tim.c ****   assert_param(IS_TIM_ALL_PERIPH(TIMx));
2438:cmsis/device/stm32f4xx_tim.c ****   assert_param(IS_TIM_GET_FLAG(TIM_FLAG));
2439:cmsis/device/stm32f4xx_tim.c **** 
2440:cmsis/device/stm32f4xx_tim.c ****   
2441:cmsis/device/stm32f4xx_tim.c ****   if ((TIMx->SR & TIM_FLAG) != (uint16_t)RESET)
2442:cmsis/device/stm32f4xx_tim.c ****   {
2443:cmsis/device/stm32f4xx_tim.c ****     bitstatus = SET;
2444:cmsis/device/stm32f4xx_tim.c ****   }
2445:cmsis/device/stm32f4xx_tim.c ****   else
2446:cmsis/device/stm32f4xx_tim.c ****   {
2447:cmsis/device/stm32f4xx_tim.c ****     bitstatus = RESET;
2448:cmsis/device/stm32f4xx_tim.c ****   }
2449:cmsis/device/stm32f4xx_tim.c ****   return bitstatus;
2450:cmsis/device/stm32f4xx_tim.c **** }
2451:cmsis/device/stm32f4xx_tim.c **** 
2452:cmsis/device/stm32f4xx_tim.c **** /**
2453:cmsis/device/stm32f4xx_tim.c ****   * @brief  Clears the TIMx's pending flags.
2454:cmsis/device/stm32f4xx_tim.c ****   * @param  TIMx: where x can be 1 to 14 to select the TIM peripheral.
2455:cmsis/device/stm32f4xx_tim.c ****   * @param  TIM_FLAG: specifies the flag bit to clear.
2456:cmsis/device/stm32f4xx_tim.c ****   *          This parameter can be any combination of the following values:
2457:cmsis/device/stm32f4xx_tim.c ****   *            @arg TIM_FLAG_Update: TIM update Flag
2458:cmsis/device/stm32f4xx_tim.c ****   *            @arg TIM_FLAG_CC1: TIM Capture Compare 1 Flag
2459:cmsis/device/stm32f4xx_tim.c ****   *            @arg TIM_FLAG_CC2: TIM Capture Compare 2 Flag
2460:cmsis/device/stm32f4xx_tim.c ****   *            @arg TIM_FLAG_CC3: TIM Capture Compare 3 Flag
ARM GAS  C:\Users\CNous\AppData\Local\Temp\ccZi7tDD.s 			page 91


2461:cmsis/device/stm32f4xx_tim.c ****   *            @arg TIM_FLAG_CC4: TIM Capture Compare 4 Flag
2462:cmsis/device/stm32f4xx_tim.c ****   *            @arg TIM_FLAG_COM: TIM Commutation Flag
2463:cmsis/device/stm32f4xx_tim.c ****   *            @arg TIM_FLAG_Trigger: TIM Trigger Flag
2464:cmsis/device/stm32f4xx_tim.c ****   *            @arg TIM_FLAG_Break: TIM Break Flag
2465:cmsis/device/stm32f4xx_tim.c ****   *            @arg TIM_FLAG_CC1OF: TIM Capture Compare 1 over capture Flag
2466:cmsis/device/stm32f4xx_tim.c ****   *            @arg TIM_FLAG_CC2OF: TIM Capture Compare 2 over capture Flag
2467:cmsis/device/stm32f4xx_tim.c ****   *            @arg TIM_FLAG_CC3OF: TIM Capture Compare 3 over capture Flag
2468:cmsis/device/stm32f4xx_tim.c ****   *            @arg TIM_FLAG_CC4OF: TIM Capture Compare 4 over capture Flag
2469:cmsis/device/stm32f4xx_tim.c ****   *
2470:cmsis/device/stm32f4xx_tim.c ****   * @note   TIM6 and TIM7 can have only one update flag. 
2471:cmsis/device/stm32f4xx_tim.c ****   * @note   TIM_FLAG_COM and TIM_FLAG_Break are used only with TIM1 and TIM8.
2472:cmsis/device/stm32f4xx_tim.c ****   *    
2473:cmsis/device/stm32f4xx_tim.c ****   * @retval None
2474:cmsis/device/stm32f4xx_tim.c ****   */
2475:cmsis/device/stm32f4xx_tim.c **** void TIM_ClearFlag(TIM_TypeDef* TIMx, uint16_t TIM_FLAG)
2476:cmsis/device/stm32f4xx_tim.c **** {  
2477:cmsis/device/stm32f4xx_tim.c ****   /* Check the parameters */
2478:cmsis/device/stm32f4xx_tim.c ****   assert_param(IS_TIM_ALL_PERIPH(TIMx));
2479:cmsis/device/stm32f4xx_tim.c ****    
2480:cmsis/device/stm32f4xx_tim.c ****   /* Clear the flags */
2481:cmsis/device/stm32f4xx_tim.c ****   TIMx->SR = (uint16_t)~TIM_FLAG;
2482:cmsis/device/stm32f4xx_tim.c **** }
2483:cmsis/device/stm32f4xx_tim.c **** 
2484:cmsis/device/stm32f4xx_tim.c **** /**
2485:cmsis/device/stm32f4xx_tim.c ****   * @brief  Checks whether the TIM interrupt has occurred or not.
2486:cmsis/device/stm32f4xx_tim.c ****   * @param  TIMx: where x can be 1 to 14 to select the TIM peripheral.
2487:cmsis/device/stm32f4xx_tim.c ****   * @param  TIM_IT: specifies the TIM interrupt source to check.
2488:cmsis/device/stm32f4xx_tim.c ****   *          This parameter can be one of the following values:
2489:cmsis/device/stm32f4xx_tim.c ****   *            @arg TIM_IT_Update: TIM update Interrupt source
2490:cmsis/device/stm32f4xx_tim.c ****   *            @arg TIM_IT_CC1: TIM Capture Compare 1 Interrupt source
2491:cmsis/device/stm32f4xx_tim.c ****   *            @arg TIM_IT_CC2: TIM Capture Compare 2 Interrupt source
2492:cmsis/device/stm32f4xx_tim.c ****   *            @arg TIM_IT_CC3: TIM Capture Compare 3 Interrupt source
2493:cmsis/device/stm32f4xx_tim.c ****   *            @arg TIM_IT_CC4: TIM Capture Compare 4 Interrupt source
2494:cmsis/device/stm32f4xx_tim.c ****   *            @arg TIM_IT_COM: TIM Commutation Interrupt source
2495:cmsis/device/stm32f4xx_tim.c ****   *            @arg TIM_IT_Trigger: TIM Trigger Interrupt source
2496:cmsis/device/stm32f4xx_tim.c ****   *            @arg TIM_IT_Break: TIM Break Interrupt source
2497:cmsis/device/stm32f4xx_tim.c ****   *
2498:cmsis/device/stm32f4xx_tim.c ****   * @note   TIM6 and TIM7 can generate only an update interrupt.
2499:cmsis/device/stm32f4xx_tim.c ****   * @note   TIM_IT_COM and TIM_IT_Break are used only with TIM1 and TIM8.
2500:cmsis/device/stm32f4xx_tim.c ****   *     
2501:cmsis/device/stm32f4xx_tim.c ****   * @retval The new state of the TIM_IT(SET or RESET).
2502:cmsis/device/stm32f4xx_tim.c ****   */
2503:cmsis/device/stm32f4xx_tim.c **** ITStatus TIM_GetITStatus(TIM_TypeDef* TIMx, uint16_t TIM_IT)
2504:cmsis/device/stm32f4xx_tim.c **** {
2505:cmsis/device/stm32f4xx_tim.c ****   ITStatus bitstatus = RESET;  
2506:cmsis/device/stm32f4xx_tim.c ****   uint16_t itstatus = 0x0, itenable = 0x0;
2507:cmsis/device/stm32f4xx_tim.c ****   /* Check the parameters */
2508:cmsis/device/stm32f4xx_tim.c ****   assert_param(IS_TIM_ALL_PERIPH(TIMx));
2509:cmsis/device/stm32f4xx_tim.c ****   assert_param(IS_TIM_GET_IT(TIM_IT));
2510:cmsis/device/stm32f4xx_tim.c ****    
2511:cmsis/device/stm32f4xx_tim.c ****   itstatus = TIMx->SR & TIM_IT;
2512:cmsis/device/stm32f4xx_tim.c ****   
2513:cmsis/device/stm32f4xx_tim.c ****   itenable = TIMx->DIER & TIM_IT;
2514:cmsis/device/stm32f4xx_tim.c ****   if ((itstatus != (uint16_t)RESET) && (itenable != (uint16_t)RESET))
2515:cmsis/device/stm32f4xx_tim.c ****   {
2516:cmsis/device/stm32f4xx_tim.c ****     bitstatus = SET;
2517:cmsis/device/stm32f4xx_tim.c ****   }
ARM GAS  C:\Users\CNous\AppData\Local\Temp\ccZi7tDD.s 			page 92


2518:cmsis/device/stm32f4xx_tim.c ****   else
2519:cmsis/device/stm32f4xx_tim.c ****   {
2520:cmsis/device/stm32f4xx_tim.c ****     bitstatus = RESET;
2521:cmsis/device/stm32f4xx_tim.c ****   }
2522:cmsis/device/stm32f4xx_tim.c ****   return bitstatus;
2523:cmsis/device/stm32f4xx_tim.c **** }
2524:cmsis/device/stm32f4xx_tim.c **** 
2525:cmsis/device/stm32f4xx_tim.c **** /**
2526:cmsis/device/stm32f4xx_tim.c ****   * @brief  Clears the TIMx's interrupt pending bits.
2527:cmsis/device/stm32f4xx_tim.c ****   * @param  TIMx: where x can be 1 to 14 to select the TIM peripheral.
2528:cmsis/device/stm32f4xx_tim.c ****   * @param  TIM_IT: specifies the pending bit to clear.
2529:cmsis/device/stm32f4xx_tim.c ****   *          This parameter can be any combination of the following values:
2530:cmsis/device/stm32f4xx_tim.c ****   *            @arg TIM_IT_Update: TIM1 update Interrupt source
2531:cmsis/device/stm32f4xx_tim.c ****   *            @arg TIM_IT_CC1: TIM Capture Compare 1 Interrupt source
2532:cmsis/device/stm32f4xx_tim.c ****   *            @arg TIM_IT_CC2: TIM Capture Compare 2 Interrupt source
2533:cmsis/device/stm32f4xx_tim.c ****   *            @arg TIM_IT_CC3: TIM Capture Compare 3 Interrupt source
2534:cmsis/device/stm32f4xx_tim.c ****   *            @arg TIM_IT_CC4: TIM Capture Compare 4 Interrupt source
2535:cmsis/device/stm32f4xx_tim.c ****   *            @arg TIM_IT_COM: TIM Commutation Interrupt source
2536:cmsis/device/stm32f4xx_tim.c ****   *            @arg TIM_IT_Trigger: TIM Trigger Interrupt source
2537:cmsis/device/stm32f4xx_tim.c ****   *            @arg TIM_IT_Break: TIM Break Interrupt source
2538:cmsis/device/stm32f4xx_tim.c ****   *
2539:cmsis/device/stm32f4xx_tim.c ****   * @note   TIM6 and TIM7 can generate only an update interrupt.
2540:cmsis/device/stm32f4xx_tim.c ****   * @note   TIM_IT_COM and TIM_IT_Break are used only with TIM1 and TIM8.
2541:cmsis/device/stm32f4xx_tim.c ****   *      
2542:cmsis/device/stm32f4xx_tim.c ****   * @retval None
2543:cmsis/device/stm32f4xx_tim.c ****   */
2544:cmsis/device/stm32f4xx_tim.c **** void TIM_ClearITPendingBit(TIM_TypeDef* TIMx, uint16_t TIM_IT)
2545:cmsis/device/stm32f4xx_tim.c **** {
2546:cmsis/device/stm32f4xx_tim.c ****   /* Check the parameters */
2547:cmsis/device/stm32f4xx_tim.c ****   assert_param(IS_TIM_ALL_PERIPH(TIMx));
2548:cmsis/device/stm32f4xx_tim.c **** 
2549:cmsis/device/stm32f4xx_tim.c ****   /* Clear the IT pending Bit */
2550:cmsis/device/stm32f4xx_tim.c ****   TIMx->SR = (uint16_t)~TIM_IT;
2551:cmsis/device/stm32f4xx_tim.c **** }
2552:cmsis/device/stm32f4xx_tim.c **** 
2553:cmsis/device/stm32f4xx_tim.c **** /**
2554:cmsis/device/stm32f4xx_tim.c ****   * @brief  Configures the TIMx's DMA interface.
2555:cmsis/device/stm32f4xx_tim.c ****   * @param  TIMx: where x can be 1, 2, 3, 4, 5 or 8 to select the TIM peripheral.
2556:cmsis/device/stm32f4xx_tim.c ****   * @param  TIM_DMABase: DMA Base address.
2557:cmsis/device/stm32f4xx_tim.c ****   *          This parameter can be one of the following values:
2558:cmsis/device/stm32f4xx_tim.c ****   *            @arg TIM_DMABase_CR1  
2559:cmsis/device/stm32f4xx_tim.c ****   *            @arg TIM_DMABase_CR2
2560:cmsis/device/stm32f4xx_tim.c ****   *            @arg TIM_DMABase_SMCR
2561:cmsis/device/stm32f4xx_tim.c ****   *            @arg TIM_DMABase_DIER
2562:cmsis/device/stm32f4xx_tim.c ****   *            @arg TIM1_DMABase_SR
2563:cmsis/device/stm32f4xx_tim.c ****   *            @arg TIM_DMABase_EGR
2564:cmsis/device/stm32f4xx_tim.c ****   *            @arg TIM_DMABase_CCMR1
2565:cmsis/device/stm32f4xx_tim.c ****   *            @arg TIM_DMABase_CCMR2
2566:cmsis/device/stm32f4xx_tim.c ****   *            @arg TIM_DMABase_CCER
2567:cmsis/device/stm32f4xx_tim.c ****   *            @arg TIM_DMABase_CNT   
2568:cmsis/device/stm32f4xx_tim.c ****   *            @arg TIM_DMABase_PSC   
2569:cmsis/device/stm32f4xx_tim.c ****   *            @arg TIM_DMABase_ARR
2570:cmsis/device/stm32f4xx_tim.c ****   *            @arg TIM_DMABase_RCR
2571:cmsis/device/stm32f4xx_tim.c ****   *            @arg TIM_DMABase_CCR1
2572:cmsis/device/stm32f4xx_tim.c ****   *            @arg TIM_DMABase_CCR2
2573:cmsis/device/stm32f4xx_tim.c ****   *            @arg TIM_DMABase_CCR3  
2574:cmsis/device/stm32f4xx_tim.c ****   *            @arg TIM_DMABase_CCR4
ARM GAS  C:\Users\CNous\AppData\Local\Temp\ccZi7tDD.s 			page 93


2575:cmsis/device/stm32f4xx_tim.c ****   *            @arg TIM_DMABase_BDTR
2576:cmsis/device/stm32f4xx_tim.c ****   *            @arg TIM_DMABase_DCR
2577:cmsis/device/stm32f4xx_tim.c ****   * @param  TIM_DMABurstLength: DMA Burst length. This parameter can be one value
2578:cmsis/device/stm32f4xx_tim.c ****   *         between: TIM_DMABurstLength_1Transfer and TIM_DMABurstLength_18Transfers.
2579:cmsis/device/stm32f4xx_tim.c ****   * @retval None
2580:cmsis/device/stm32f4xx_tim.c ****   */
2581:cmsis/device/stm32f4xx_tim.c **** void TIM_DMAConfig(TIM_TypeDef* TIMx, uint16_t TIM_DMABase, uint16_t TIM_DMABurstLength)
2582:cmsis/device/stm32f4xx_tim.c **** {
2583:cmsis/device/stm32f4xx_tim.c ****   /* Check the parameters */
2584:cmsis/device/stm32f4xx_tim.c ****   assert_param(IS_TIM_LIST3_PERIPH(TIMx));
2585:cmsis/device/stm32f4xx_tim.c ****   assert_param(IS_TIM_DMA_BASE(TIM_DMABase)); 
2586:cmsis/device/stm32f4xx_tim.c ****   assert_param(IS_TIM_DMA_LENGTH(TIM_DMABurstLength));
2587:cmsis/device/stm32f4xx_tim.c **** 
2588:cmsis/device/stm32f4xx_tim.c ****   /* Set the DMA Base and the DMA Burst Length */
2589:cmsis/device/stm32f4xx_tim.c ****   TIMx->DCR = TIM_DMABase | TIM_DMABurstLength;
2590:cmsis/device/stm32f4xx_tim.c **** }
2591:cmsis/device/stm32f4xx_tim.c **** 
2592:cmsis/device/stm32f4xx_tim.c **** /**
2593:cmsis/device/stm32f4xx_tim.c ****   * @brief  Enables or disables the TIMx's DMA Requests.
2594:cmsis/device/stm32f4xx_tim.c ****   * @param  TIMx: where x can be 1, 2, 3, 4, 5, 6, 7 or 8 to select the TIM peripheral.
2595:cmsis/device/stm32f4xx_tim.c ****   * @param  TIM_DMASource: specifies the DMA Request sources.
2596:cmsis/device/stm32f4xx_tim.c ****   *          This parameter can be any combination of the following values:
2597:cmsis/device/stm32f4xx_tim.c ****   *            @arg TIM_DMA_Update: TIM update Interrupt source
2598:cmsis/device/stm32f4xx_tim.c ****   *            @arg TIM_DMA_CC1: TIM Capture Compare 1 DMA source
2599:cmsis/device/stm32f4xx_tim.c ****   *            @arg TIM_DMA_CC2: TIM Capture Compare 2 DMA source
2600:cmsis/device/stm32f4xx_tim.c ****   *            @arg TIM_DMA_CC3: TIM Capture Compare 3 DMA source
2601:cmsis/device/stm32f4xx_tim.c ****   *            @arg TIM_DMA_CC4: TIM Capture Compare 4 DMA source
2602:cmsis/device/stm32f4xx_tim.c ****   *            @arg TIM_DMA_COM: TIM Commutation DMA source
2603:cmsis/device/stm32f4xx_tim.c ****   *            @arg TIM_DMA_Trigger: TIM Trigger DMA source
2604:cmsis/device/stm32f4xx_tim.c ****   * @param  NewState: new state of the DMA Request sources.
2605:cmsis/device/stm32f4xx_tim.c ****   *          This parameter can be: ENABLE or DISABLE.
2606:cmsis/device/stm32f4xx_tim.c ****   * @retval None
2607:cmsis/device/stm32f4xx_tim.c ****   */
2608:cmsis/device/stm32f4xx_tim.c **** void TIM_DMACmd(TIM_TypeDef* TIMx, uint16_t TIM_DMASource, FunctionalState NewState)
2609:cmsis/device/stm32f4xx_tim.c **** { 
2610:cmsis/device/stm32f4xx_tim.c ****   /* Check the parameters */
2611:cmsis/device/stm32f4xx_tim.c ****   assert_param(IS_TIM_LIST5_PERIPH(TIMx)); 
2612:cmsis/device/stm32f4xx_tim.c ****   assert_param(IS_TIM_DMA_SOURCE(TIM_DMASource));
2613:cmsis/device/stm32f4xx_tim.c ****   assert_param(IS_FUNCTIONAL_STATE(NewState));
2614:cmsis/device/stm32f4xx_tim.c ****   
2615:cmsis/device/stm32f4xx_tim.c ****   if (NewState != DISABLE)
2616:cmsis/device/stm32f4xx_tim.c ****   {
2617:cmsis/device/stm32f4xx_tim.c ****     /* Enable the DMA sources */
2618:cmsis/device/stm32f4xx_tim.c ****     TIMx->DIER |= TIM_DMASource; 
2619:cmsis/device/stm32f4xx_tim.c ****   }
2620:cmsis/device/stm32f4xx_tim.c ****   else
2621:cmsis/device/stm32f4xx_tim.c ****   {
2622:cmsis/device/stm32f4xx_tim.c ****     /* Disable the DMA sources */
2623:cmsis/device/stm32f4xx_tim.c ****     TIMx->DIER &= (uint16_t)~TIM_DMASource;
2624:cmsis/device/stm32f4xx_tim.c ****   }
2625:cmsis/device/stm32f4xx_tim.c **** }
2626:cmsis/device/stm32f4xx_tim.c **** 
2627:cmsis/device/stm32f4xx_tim.c **** /**
2628:cmsis/device/stm32f4xx_tim.c ****   * @brief  Selects the TIMx peripheral Capture Compare DMA source.
2629:cmsis/device/stm32f4xx_tim.c ****   * @param  TIMx: where x can be  1, 2, 3, 4, 5 or 8 to select the TIM peripheral.
2630:cmsis/device/stm32f4xx_tim.c ****   * @param  NewState: new state of the Capture Compare DMA source
2631:cmsis/device/stm32f4xx_tim.c ****   *          This parameter can be: ENABLE or DISABLE.
ARM GAS  C:\Users\CNous\AppData\Local\Temp\ccZi7tDD.s 			page 94


2632:cmsis/device/stm32f4xx_tim.c ****   * @retval None
2633:cmsis/device/stm32f4xx_tim.c ****   */
2634:cmsis/device/stm32f4xx_tim.c **** void TIM_SelectCCDMA(TIM_TypeDef* TIMx, FunctionalState NewState)
2635:cmsis/device/stm32f4xx_tim.c **** {
2636:cmsis/device/stm32f4xx_tim.c ****   /* Check the parameters */
2637:cmsis/device/stm32f4xx_tim.c ****   assert_param(IS_TIM_LIST3_PERIPH(TIMx));
2638:cmsis/device/stm32f4xx_tim.c ****   assert_param(IS_FUNCTIONAL_STATE(NewState));
2639:cmsis/device/stm32f4xx_tim.c **** 
2640:cmsis/device/stm32f4xx_tim.c ****   if (NewState != DISABLE)
2641:cmsis/device/stm32f4xx_tim.c ****   {
2642:cmsis/device/stm32f4xx_tim.c ****     /* Set the CCDS Bit */
2643:cmsis/device/stm32f4xx_tim.c ****     TIMx->CR2 |= TIM_CR2_CCDS;
2644:cmsis/device/stm32f4xx_tim.c ****   }
2645:cmsis/device/stm32f4xx_tim.c ****   else
2646:cmsis/device/stm32f4xx_tim.c ****   {
2647:cmsis/device/stm32f4xx_tim.c ****     /* Reset the CCDS Bit */
2648:cmsis/device/stm32f4xx_tim.c ****     TIMx->CR2 &= (uint16_t)~TIM_CR2_CCDS;
2649:cmsis/device/stm32f4xx_tim.c ****   }
2650:cmsis/device/stm32f4xx_tim.c **** }
2651:cmsis/device/stm32f4xx_tim.c **** /**
2652:cmsis/device/stm32f4xx_tim.c ****   * @}
2653:cmsis/device/stm32f4xx_tim.c ****   */
2654:cmsis/device/stm32f4xx_tim.c **** 
2655:cmsis/device/stm32f4xx_tim.c **** /** @defgroup TIM_Group6 Clocks management functions
2656:cmsis/device/stm32f4xx_tim.c ****  *  @brief    Clocks management functions
2657:cmsis/device/stm32f4xx_tim.c ****  *
2658:cmsis/device/stm32f4xx_tim.c **** @verbatim   
2659:cmsis/device/stm32f4xx_tim.c ****  ===============================================================================
2660:cmsis/device/stm32f4xx_tim.c ****                          Clocks management functions
2661:cmsis/device/stm32f4xx_tim.c ****  ===============================================================================  
2662:cmsis/device/stm32f4xx_tim.c **** 
2663:cmsis/device/stm32f4xx_tim.c **** @endverbatim
2664:cmsis/device/stm32f4xx_tim.c ****   * @{
2665:cmsis/device/stm32f4xx_tim.c ****   */
2666:cmsis/device/stm32f4xx_tim.c **** 
2667:cmsis/device/stm32f4xx_tim.c **** /**
2668:cmsis/device/stm32f4xx_tim.c ****   * @brief  Configures the TIMx internal Clock
2669:cmsis/device/stm32f4xx_tim.c ****   * @param  TIMx: where x can be 1, 2, 3, 4, 5, 8, 9 or 12 to select the TIM 
2670:cmsis/device/stm32f4xx_tim.c ****   *         peripheral.
2671:cmsis/device/stm32f4xx_tim.c ****   * @retval None
2672:cmsis/device/stm32f4xx_tim.c ****   */
2673:cmsis/device/stm32f4xx_tim.c **** void TIM_InternalClockConfig(TIM_TypeDef* TIMx)
2674:cmsis/device/stm32f4xx_tim.c **** {
2675:cmsis/device/stm32f4xx_tim.c ****   /* Check the parameters */
2676:cmsis/device/stm32f4xx_tim.c ****   assert_param(IS_TIM_LIST2_PERIPH(TIMx));
2677:cmsis/device/stm32f4xx_tim.c **** 
2678:cmsis/device/stm32f4xx_tim.c ****   /* Disable slave mode to clock the prescaler directly with the internal clock */
2679:cmsis/device/stm32f4xx_tim.c ****   TIMx->SMCR &=  (uint16_t)~TIM_SMCR_SMS;
2680:cmsis/device/stm32f4xx_tim.c **** }
2681:cmsis/device/stm32f4xx_tim.c **** 
2682:cmsis/device/stm32f4xx_tim.c **** /**
2683:cmsis/device/stm32f4xx_tim.c ****   * @brief  Configures the TIMx Internal Trigger as External Clock
2684:cmsis/device/stm32f4xx_tim.c ****   * @param  TIMx: where x can be 1, 2, 3, 4, 5, 8, 9 or 12 to select the TIM 
2685:cmsis/device/stm32f4xx_tim.c ****   *         peripheral.
2686:cmsis/device/stm32f4xx_tim.c ****   * @param  TIM_InputTriggerSource: Trigger source.
2687:cmsis/device/stm32f4xx_tim.c ****   *          This parameter can be one of the following values:
2688:cmsis/device/stm32f4xx_tim.c ****   *            @arg TIM_TS_ITR0: Internal Trigger 0
ARM GAS  C:\Users\CNous\AppData\Local\Temp\ccZi7tDD.s 			page 95


2689:cmsis/device/stm32f4xx_tim.c ****   *            @arg TIM_TS_ITR1: Internal Trigger 1
2690:cmsis/device/stm32f4xx_tim.c ****   *            @arg TIM_TS_ITR2: Internal Trigger 2
2691:cmsis/device/stm32f4xx_tim.c ****   *            @arg TIM_TS_ITR3: Internal Trigger 3
2692:cmsis/device/stm32f4xx_tim.c ****   * @retval None
2693:cmsis/device/stm32f4xx_tim.c ****   */
2694:cmsis/device/stm32f4xx_tim.c **** void TIM_ITRxExternalClockConfig(TIM_TypeDef* TIMx, uint16_t TIM_InputTriggerSource)
2695:cmsis/device/stm32f4xx_tim.c **** {
2696:cmsis/device/stm32f4xx_tim.c ****   /* Check the parameters */
2697:cmsis/device/stm32f4xx_tim.c ****   assert_param(IS_TIM_LIST2_PERIPH(TIMx));
2698:cmsis/device/stm32f4xx_tim.c ****   assert_param(IS_TIM_INTERNAL_TRIGGER_SELECTION(TIM_InputTriggerSource));
2699:cmsis/device/stm32f4xx_tim.c **** 
2700:cmsis/device/stm32f4xx_tim.c ****   /* Select the Internal Trigger */
2701:cmsis/device/stm32f4xx_tim.c ****   TIM_SelectInputTrigger(TIMx, TIM_InputTriggerSource);
2702:cmsis/device/stm32f4xx_tim.c **** 
2703:cmsis/device/stm32f4xx_tim.c ****   /* Select the External clock mode1 */
2704:cmsis/device/stm32f4xx_tim.c ****   TIMx->SMCR |= TIM_SlaveMode_External1;
2705:cmsis/device/stm32f4xx_tim.c **** }
2706:cmsis/device/stm32f4xx_tim.c **** 
2707:cmsis/device/stm32f4xx_tim.c **** /**
2708:cmsis/device/stm32f4xx_tim.c ****   * @brief  Configures the TIMx Trigger as External Clock
2709:cmsis/device/stm32f4xx_tim.c ****   * @param  TIMx: where x can be 1, 2, 3, 4, 5, 8, 9, 10, 11, 12, 13 or 14  
2710:cmsis/device/stm32f4xx_tim.c ****   *         to select the TIM peripheral.
2711:cmsis/device/stm32f4xx_tim.c ****   * @param  TIM_TIxExternalCLKSource: Trigger source.
2712:cmsis/device/stm32f4xx_tim.c ****   *          This parameter can be one of the following values:
2713:cmsis/device/stm32f4xx_tim.c ****   *            @arg TIM_TIxExternalCLK1Source_TI1ED: TI1 Edge Detector
2714:cmsis/device/stm32f4xx_tim.c ****   *            @arg TIM_TIxExternalCLK1Source_TI1: Filtered Timer Input 1
2715:cmsis/device/stm32f4xx_tim.c ****   *            @arg TIM_TIxExternalCLK1Source_TI2: Filtered Timer Input 2
2716:cmsis/device/stm32f4xx_tim.c ****   * @param  TIM_ICPolarity: specifies the TIx Polarity.
2717:cmsis/device/stm32f4xx_tim.c ****   *          This parameter can be one of the following values:
2718:cmsis/device/stm32f4xx_tim.c ****   *            @arg TIM_ICPolarity_Rising
2719:cmsis/device/stm32f4xx_tim.c ****   *            @arg TIM_ICPolarity_Falling
2720:cmsis/device/stm32f4xx_tim.c ****   * @param  ICFilter: specifies the filter value.
2721:cmsis/device/stm32f4xx_tim.c ****   *          This parameter must be a value between 0x0 and 0xF.
2722:cmsis/device/stm32f4xx_tim.c ****   * @retval None
2723:cmsis/device/stm32f4xx_tim.c ****   */
2724:cmsis/device/stm32f4xx_tim.c **** void TIM_TIxExternalClockConfig(TIM_TypeDef* TIMx, uint16_t TIM_TIxExternalCLKSource,
2725:cmsis/device/stm32f4xx_tim.c ****                                 uint16_t TIM_ICPolarity, uint16_t ICFilter)
2726:cmsis/device/stm32f4xx_tim.c **** {
2727:cmsis/device/stm32f4xx_tim.c ****   /* Check the parameters */
2728:cmsis/device/stm32f4xx_tim.c ****   assert_param(IS_TIM_LIST1_PERIPH(TIMx));
2729:cmsis/device/stm32f4xx_tim.c ****   assert_param(IS_TIM_IC_POLARITY(TIM_ICPolarity));
2730:cmsis/device/stm32f4xx_tim.c ****   assert_param(IS_TIM_IC_FILTER(ICFilter));
2731:cmsis/device/stm32f4xx_tim.c **** 
2732:cmsis/device/stm32f4xx_tim.c ****   /* Configure the Timer Input Clock Source */
2733:cmsis/device/stm32f4xx_tim.c ****   if (TIM_TIxExternalCLKSource == TIM_TIxExternalCLK1Source_TI2)
2734:cmsis/device/stm32f4xx_tim.c ****   {
2735:cmsis/device/stm32f4xx_tim.c ****     TI2_Config(TIMx, TIM_ICPolarity, TIM_ICSelection_DirectTI, ICFilter);
2736:cmsis/device/stm32f4xx_tim.c ****   }
2737:cmsis/device/stm32f4xx_tim.c ****   else
2738:cmsis/device/stm32f4xx_tim.c ****   {
2739:cmsis/device/stm32f4xx_tim.c ****     TI1_Config(TIMx, TIM_ICPolarity, TIM_ICSelection_DirectTI, ICFilter);
2740:cmsis/device/stm32f4xx_tim.c ****   }
2741:cmsis/device/stm32f4xx_tim.c ****   /* Select the Trigger source */
2742:cmsis/device/stm32f4xx_tim.c ****   TIM_SelectInputTrigger(TIMx, TIM_TIxExternalCLKSource);
2743:cmsis/device/stm32f4xx_tim.c ****   /* Select the External clock mode1 */
2744:cmsis/device/stm32f4xx_tim.c ****   TIMx->SMCR |= TIM_SlaveMode_External1;
2745:cmsis/device/stm32f4xx_tim.c **** }
ARM GAS  C:\Users\CNous\AppData\Local\Temp\ccZi7tDD.s 			page 96


2746:cmsis/device/stm32f4xx_tim.c **** 
2747:cmsis/device/stm32f4xx_tim.c **** /**
2748:cmsis/device/stm32f4xx_tim.c ****   * @brief  Configures the External clock Mode1
2749:cmsis/device/stm32f4xx_tim.c ****   * @param  TIMx: where x can be  1, 2, 3, 4, 5 or 8 to select the TIM peripheral.
2750:cmsis/device/stm32f4xx_tim.c ****   * @param  TIM_ExtTRGPrescaler: The external Trigger Prescaler.
2751:cmsis/device/stm32f4xx_tim.c ****   *          This parameter can be one of the following values:
2752:cmsis/device/stm32f4xx_tim.c ****   *            @arg TIM_ExtTRGPSC_OFF: ETRP Prescaler OFF.
2753:cmsis/device/stm32f4xx_tim.c ****   *            @arg TIM_ExtTRGPSC_DIV2: ETRP frequency divided by 2.
2754:cmsis/device/stm32f4xx_tim.c ****   *            @arg TIM_ExtTRGPSC_DIV4: ETRP frequency divided by 4.
2755:cmsis/device/stm32f4xx_tim.c ****   *            @arg TIM_ExtTRGPSC_DIV8: ETRP frequency divided by 8.
2756:cmsis/device/stm32f4xx_tim.c ****   * @param  TIM_ExtTRGPolarity: The external Trigger Polarity.
2757:cmsis/device/stm32f4xx_tim.c ****   *          This parameter can be one of the following values:
2758:cmsis/device/stm32f4xx_tim.c ****   *            @arg TIM_ExtTRGPolarity_Inverted: active low or falling edge active.
2759:cmsis/device/stm32f4xx_tim.c ****   *            @arg TIM_ExtTRGPolarity_NonInverted: active high or rising edge active.
2760:cmsis/device/stm32f4xx_tim.c ****   * @param  ExtTRGFilter: External Trigger Filter.
2761:cmsis/device/stm32f4xx_tim.c ****   *          This parameter must be a value between 0x00 and 0x0F
2762:cmsis/device/stm32f4xx_tim.c ****   * @retval None
2763:cmsis/device/stm32f4xx_tim.c ****   */
2764:cmsis/device/stm32f4xx_tim.c **** void TIM_ETRClockMode1Config(TIM_TypeDef* TIMx, uint16_t TIM_ExtTRGPrescaler,
2765:cmsis/device/stm32f4xx_tim.c ****                             uint16_t TIM_ExtTRGPolarity, uint16_t ExtTRGFilter)
2766:cmsis/device/stm32f4xx_tim.c **** {
2767:cmsis/device/stm32f4xx_tim.c ****   uint16_t tmpsmcr = 0;
2768:cmsis/device/stm32f4xx_tim.c **** 
2769:cmsis/device/stm32f4xx_tim.c ****   /* Check the parameters */
2770:cmsis/device/stm32f4xx_tim.c ****   assert_param(IS_TIM_LIST3_PERIPH(TIMx));
2771:cmsis/device/stm32f4xx_tim.c ****   assert_param(IS_TIM_EXT_PRESCALER(TIM_ExtTRGPrescaler));
2772:cmsis/device/stm32f4xx_tim.c ****   assert_param(IS_TIM_EXT_POLARITY(TIM_ExtTRGPolarity));
2773:cmsis/device/stm32f4xx_tim.c ****   assert_param(IS_TIM_EXT_FILTER(ExtTRGFilter));
2774:cmsis/device/stm32f4xx_tim.c ****   /* Configure the ETR Clock source */
2775:cmsis/device/stm32f4xx_tim.c ****   TIM_ETRConfig(TIMx, TIM_ExtTRGPrescaler, TIM_ExtTRGPolarity, ExtTRGFilter);
2776:cmsis/device/stm32f4xx_tim.c ****   
2777:cmsis/device/stm32f4xx_tim.c ****   /* Get the TIMx SMCR register value */
2778:cmsis/device/stm32f4xx_tim.c ****   tmpsmcr = TIMx->SMCR;
2779:cmsis/device/stm32f4xx_tim.c **** 
2780:cmsis/device/stm32f4xx_tim.c ****   /* Reset the SMS Bits */
2781:cmsis/device/stm32f4xx_tim.c ****   tmpsmcr &= (uint16_t)~TIM_SMCR_SMS;
2782:cmsis/device/stm32f4xx_tim.c **** 
2783:cmsis/device/stm32f4xx_tim.c ****   /* Select the External clock mode1 */
2784:cmsis/device/stm32f4xx_tim.c ****   tmpsmcr |= TIM_SlaveMode_External1;
2785:cmsis/device/stm32f4xx_tim.c **** 
2786:cmsis/device/stm32f4xx_tim.c ****   /* Select the Trigger selection : ETRF */
2787:cmsis/device/stm32f4xx_tim.c ****   tmpsmcr &= (uint16_t)~TIM_SMCR_TS;
2788:cmsis/device/stm32f4xx_tim.c ****   tmpsmcr |= TIM_TS_ETRF;
2789:cmsis/device/stm32f4xx_tim.c **** 
2790:cmsis/device/stm32f4xx_tim.c ****   /* Write to TIMx SMCR */
2791:cmsis/device/stm32f4xx_tim.c ****   TIMx->SMCR = tmpsmcr;
2792:cmsis/device/stm32f4xx_tim.c **** }
2793:cmsis/device/stm32f4xx_tim.c **** 
2794:cmsis/device/stm32f4xx_tim.c **** /**
2795:cmsis/device/stm32f4xx_tim.c ****   * @brief  Configures the External clock Mode2
2796:cmsis/device/stm32f4xx_tim.c ****   * @param  TIMx: where x can be  1, 2, 3, 4, 5 or 8 to select the TIM peripheral.
2797:cmsis/device/stm32f4xx_tim.c ****   * @param  TIM_ExtTRGPrescaler: The external Trigger Prescaler.
2798:cmsis/device/stm32f4xx_tim.c ****   *          This parameter can be one of the following values:
2799:cmsis/device/stm32f4xx_tim.c ****   *            @arg TIM_ExtTRGPSC_OFF: ETRP Prescaler OFF.
2800:cmsis/device/stm32f4xx_tim.c ****   *            @arg TIM_ExtTRGPSC_DIV2: ETRP frequency divided by 2.
2801:cmsis/device/stm32f4xx_tim.c ****   *            @arg TIM_ExtTRGPSC_DIV4: ETRP frequency divided by 4.
2802:cmsis/device/stm32f4xx_tim.c ****   *            @arg TIM_ExtTRGPSC_DIV8: ETRP frequency divided by 8.
ARM GAS  C:\Users\CNous\AppData\Local\Temp\ccZi7tDD.s 			page 97


2803:cmsis/device/stm32f4xx_tim.c ****   * @param  TIM_ExtTRGPolarity: The external Trigger Polarity.
2804:cmsis/device/stm32f4xx_tim.c ****   *          This parameter can be one of the following values:
2805:cmsis/device/stm32f4xx_tim.c ****   *            @arg TIM_ExtTRGPolarity_Inverted: active low or falling edge active.
2806:cmsis/device/stm32f4xx_tim.c ****   *            @arg TIM_ExtTRGPolarity_NonInverted: active high or rising edge active.
2807:cmsis/device/stm32f4xx_tim.c ****   * @param  ExtTRGFilter: External Trigger Filter.
2808:cmsis/device/stm32f4xx_tim.c ****   *          This parameter must be a value between 0x00 and 0x0F
2809:cmsis/device/stm32f4xx_tim.c ****   * @retval None
2810:cmsis/device/stm32f4xx_tim.c ****   */
2811:cmsis/device/stm32f4xx_tim.c **** void TIM_ETRClockMode2Config(TIM_TypeDef* TIMx, uint16_t TIM_ExtTRGPrescaler, 
2812:cmsis/device/stm32f4xx_tim.c ****                              uint16_t TIM_ExtTRGPolarity, uint16_t ExtTRGFilter)
2813:cmsis/device/stm32f4xx_tim.c **** {
2814:cmsis/device/stm32f4xx_tim.c ****   /* Check the parameters */
2815:cmsis/device/stm32f4xx_tim.c ****   assert_param(IS_TIM_LIST3_PERIPH(TIMx));
2816:cmsis/device/stm32f4xx_tim.c ****   assert_param(IS_TIM_EXT_PRESCALER(TIM_ExtTRGPrescaler));
2817:cmsis/device/stm32f4xx_tim.c ****   assert_param(IS_TIM_EXT_POLARITY(TIM_ExtTRGPolarity));
2818:cmsis/device/stm32f4xx_tim.c ****   assert_param(IS_TIM_EXT_FILTER(ExtTRGFilter));
2819:cmsis/device/stm32f4xx_tim.c **** 
2820:cmsis/device/stm32f4xx_tim.c ****   /* Configure the ETR Clock source */
2821:cmsis/device/stm32f4xx_tim.c ****   TIM_ETRConfig(TIMx, TIM_ExtTRGPrescaler, TIM_ExtTRGPolarity, ExtTRGFilter);
2822:cmsis/device/stm32f4xx_tim.c **** 
2823:cmsis/device/stm32f4xx_tim.c ****   /* Enable the External clock mode2 */
2824:cmsis/device/stm32f4xx_tim.c ****   TIMx->SMCR |= TIM_SMCR_ECE;
2825:cmsis/device/stm32f4xx_tim.c **** }
2826:cmsis/device/stm32f4xx_tim.c **** /**
2827:cmsis/device/stm32f4xx_tim.c ****   * @}
2828:cmsis/device/stm32f4xx_tim.c ****   */
2829:cmsis/device/stm32f4xx_tim.c **** 
2830:cmsis/device/stm32f4xx_tim.c **** /** @defgroup TIM_Group7 Synchronization management functions
2831:cmsis/device/stm32f4xx_tim.c ****  *  @brief    Synchronization management functions 
2832:cmsis/device/stm32f4xx_tim.c ****  *
2833:cmsis/device/stm32f4xx_tim.c **** @verbatim   
2834:cmsis/device/stm32f4xx_tim.c ****  ===============================================================================
2835:cmsis/device/stm32f4xx_tim.c ****                        Synchronization management functions
2836:cmsis/device/stm32f4xx_tim.c ****  ===============================================================================  
2837:cmsis/device/stm32f4xx_tim.c ****                    
2838:cmsis/device/stm32f4xx_tim.c ****        ===================================================================      
2839:cmsis/device/stm32f4xx_tim.c ****               TIM Driver: how to use it in synchronization Mode
2840:cmsis/device/stm32f4xx_tim.c ****        =================================================================== 
2841:cmsis/device/stm32f4xx_tim.c ****        Case of two/several Timers
2842:cmsis/device/stm32f4xx_tim.c ****        **************************
2843:cmsis/device/stm32f4xx_tim.c ****        1. Configure the Master Timers using the following functions:
2844:cmsis/device/stm32f4xx_tim.c ****           - void TIM_SelectOutputTrigger(TIM_TypeDef* TIMx, uint16_t TIM_TRGOSource); 
2845:cmsis/device/stm32f4xx_tim.c ****           - void TIM_SelectMasterSlaveMode(TIM_TypeDef* TIMx, uint16_t TIM_MasterSlaveMode);  
2846:cmsis/device/stm32f4xx_tim.c ****        2. Configure the Slave Timers using the following functions: 
2847:cmsis/device/stm32f4xx_tim.c ****           - void TIM_SelectInputTrigger(TIM_TypeDef* TIMx, uint16_t TIM_InputTriggerSource);  
2848:cmsis/device/stm32f4xx_tim.c ****           - void TIM_SelectSlaveMode(TIM_TypeDef* TIMx, uint16_t TIM_SlaveMode); 
2849:cmsis/device/stm32f4xx_tim.c ****           
2850:cmsis/device/stm32f4xx_tim.c ****        Case of Timers and external trigger(ETR pin)
2851:cmsis/device/stm32f4xx_tim.c ****        ********************************************       
2852:cmsis/device/stm32f4xx_tim.c ****        1. Configure the External trigger using this function:
2853:cmsis/device/stm32f4xx_tim.c ****           - void TIM_ETRConfig(TIM_TypeDef* TIMx, uint16_t TIM_ExtTRGPrescaler, uint16_t TIM_ExtTRG
2854:cmsis/device/stm32f4xx_tim.c ****                                uint16_t ExtTRGFilter);
2855:cmsis/device/stm32f4xx_tim.c ****        2. Configure the Slave Timers using the following functions: 
2856:cmsis/device/stm32f4xx_tim.c ****           - void TIM_SelectInputTrigger(TIM_TypeDef* TIMx, uint16_t TIM_InputTriggerSource);  
2857:cmsis/device/stm32f4xx_tim.c ****           - void TIM_SelectSlaveMode(TIM_TypeDef* TIMx, uint16_t TIM_SlaveMode); 
2858:cmsis/device/stm32f4xx_tim.c **** 
2859:cmsis/device/stm32f4xx_tim.c **** @endverbatim
ARM GAS  C:\Users\CNous\AppData\Local\Temp\ccZi7tDD.s 			page 98


2860:cmsis/device/stm32f4xx_tim.c ****   * @{
2861:cmsis/device/stm32f4xx_tim.c ****   */
2862:cmsis/device/stm32f4xx_tim.c **** 
2863:cmsis/device/stm32f4xx_tim.c **** /**
2864:cmsis/device/stm32f4xx_tim.c ****   * @brief  Selects the Input Trigger source
2865:cmsis/device/stm32f4xx_tim.c ****   * @param  TIMx: where x can be  1, 2, 3, 4, 5, 8, 9, 10, 11, 12, 13 or 14  
2866:cmsis/device/stm32f4xx_tim.c ****   *         to select the TIM peripheral.
2867:cmsis/device/stm32f4xx_tim.c ****   * @param  TIM_InputTriggerSource: The Input Trigger source.
2868:cmsis/device/stm32f4xx_tim.c ****   *          This parameter can be one of the following values:
2869:cmsis/device/stm32f4xx_tim.c ****   *            @arg TIM_TS_ITR0: Internal Trigger 0
2870:cmsis/device/stm32f4xx_tim.c ****   *            @arg TIM_TS_ITR1: Internal Trigger 1
2871:cmsis/device/stm32f4xx_tim.c ****   *            @arg TIM_TS_ITR2: Internal Trigger 2
2872:cmsis/device/stm32f4xx_tim.c ****   *            @arg TIM_TS_ITR3: Internal Trigger 3
2873:cmsis/device/stm32f4xx_tim.c ****   *            @arg TIM_TS_TI1F_ED: TI1 Edge Detector
2874:cmsis/device/stm32f4xx_tim.c ****   *            @arg TIM_TS_TI1FP1: Filtered Timer Input 1
2875:cmsis/device/stm32f4xx_tim.c ****   *            @arg TIM_TS_TI2FP2: Filtered Timer Input 2
2876:cmsis/device/stm32f4xx_tim.c ****   *            @arg TIM_TS_ETRF: External Trigger input
2877:cmsis/device/stm32f4xx_tim.c ****   * @retval None
2878:cmsis/device/stm32f4xx_tim.c ****   */
2879:cmsis/device/stm32f4xx_tim.c **** void TIM_SelectInputTrigger(TIM_TypeDef* TIMx, uint16_t TIM_InputTriggerSource)
2880:cmsis/device/stm32f4xx_tim.c **** {
2881:cmsis/device/stm32f4xx_tim.c ****   uint16_t tmpsmcr = 0;
2882:cmsis/device/stm32f4xx_tim.c **** 
2883:cmsis/device/stm32f4xx_tim.c ****   /* Check the parameters */
2884:cmsis/device/stm32f4xx_tim.c ****   assert_param(IS_TIM_LIST1_PERIPH(TIMx)); 
2885:cmsis/device/stm32f4xx_tim.c ****   assert_param(IS_TIM_TRIGGER_SELECTION(TIM_InputTriggerSource));
2886:cmsis/device/stm32f4xx_tim.c **** 
2887:cmsis/device/stm32f4xx_tim.c ****   /* Get the TIMx SMCR register value */
2888:cmsis/device/stm32f4xx_tim.c ****   tmpsmcr = TIMx->SMCR;
2889:cmsis/device/stm32f4xx_tim.c **** 
2890:cmsis/device/stm32f4xx_tim.c ****   /* Reset the TS Bits */
2891:cmsis/device/stm32f4xx_tim.c ****   tmpsmcr &= (uint16_t)~TIM_SMCR_TS;
2892:cmsis/device/stm32f4xx_tim.c **** 
2893:cmsis/device/stm32f4xx_tim.c ****   /* Set the Input Trigger source */
2894:cmsis/device/stm32f4xx_tim.c ****   tmpsmcr |= TIM_InputTriggerSource;
2895:cmsis/device/stm32f4xx_tim.c **** 
2896:cmsis/device/stm32f4xx_tim.c ****   /* Write to TIMx SMCR */
2897:cmsis/device/stm32f4xx_tim.c ****   TIMx->SMCR = tmpsmcr;
2898:cmsis/device/stm32f4xx_tim.c **** }
2899:cmsis/device/stm32f4xx_tim.c **** 
2900:cmsis/device/stm32f4xx_tim.c **** /**
2901:cmsis/device/stm32f4xx_tim.c ****   * @brief  Selects the TIMx Trigger Output Mode.
2902:cmsis/device/stm32f4xx_tim.c ****   * @param  TIMx: where x can be 1, 2, 3, 4, 5, 6, 7 or 8 to select the TIM peripheral.
2903:cmsis/device/stm32f4xx_tim.c ****   *     
2904:cmsis/device/stm32f4xx_tim.c ****   * @param  TIM_TRGOSource: specifies the Trigger Output source.
2905:cmsis/device/stm32f4xx_tim.c ****   *   This parameter can be one of the following values:
2906:cmsis/device/stm32f4xx_tim.c ****   *
2907:cmsis/device/stm32f4xx_tim.c ****   *  - For all TIMx
2908:cmsis/device/stm32f4xx_tim.c ****   *            @arg TIM_TRGOSource_Reset:  The UG bit in the TIM_EGR register is used as the trigge
2909:cmsis/device/stm32f4xx_tim.c ****   *            @arg TIM_TRGOSource_Enable: The Counter Enable CEN is used as the trigger output(TRG
2910:cmsis/device/stm32f4xx_tim.c ****   *            @arg TIM_TRGOSource_Update: The update event is selected as the trigger output(TRGO)
2911:cmsis/device/stm32f4xx_tim.c ****   *
2912:cmsis/device/stm32f4xx_tim.c ****   *  - For all TIMx except TIM6 and TIM7
2913:cmsis/device/stm32f4xx_tim.c ****   *            @arg TIM_TRGOSource_OC1: The trigger output sends a positive pulse when the CC1IF fl
2914:cmsis/device/stm32f4xx_tim.c ****   *                                     is to be set, as soon as a capture or compare match occurs(
2915:cmsis/device/stm32f4xx_tim.c ****   *            @arg TIM_TRGOSource_OC1Ref: OC1REF signal is used as the trigger output(TRGO)
2916:cmsis/device/stm32f4xx_tim.c ****   *            @arg TIM_TRGOSource_OC2Ref: OC2REF signal is used as the trigger output(TRGO)
ARM GAS  C:\Users\CNous\AppData\Local\Temp\ccZi7tDD.s 			page 99


2917:cmsis/device/stm32f4xx_tim.c ****   *            @arg TIM_TRGOSource_OC3Ref: OC3REF signal is used as the trigger output(TRGO)
2918:cmsis/device/stm32f4xx_tim.c ****   *            @arg TIM_TRGOSource_OC4Ref: OC4REF signal is used as the trigger output(TRGO)
2919:cmsis/device/stm32f4xx_tim.c ****   *
2920:cmsis/device/stm32f4xx_tim.c ****   * @retval None
2921:cmsis/device/stm32f4xx_tim.c ****   */
2922:cmsis/device/stm32f4xx_tim.c **** void TIM_SelectOutputTrigger(TIM_TypeDef* TIMx, uint16_t TIM_TRGOSource)
2923:cmsis/device/stm32f4xx_tim.c **** {
2924:cmsis/device/stm32f4xx_tim.c ****   /* Check the parameters */
2925:cmsis/device/stm32f4xx_tim.c ****   assert_param(IS_TIM_LIST5_PERIPH(TIMx));
2926:cmsis/device/stm32f4xx_tim.c ****   assert_param(IS_TIM_TRGO_SOURCE(TIM_TRGOSource));
2927:cmsis/device/stm32f4xx_tim.c **** 
2928:cmsis/device/stm32f4xx_tim.c ****   /* Reset the MMS Bits */
2929:cmsis/device/stm32f4xx_tim.c ****   TIMx->CR2 &= (uint16_t)~TIM_CR2_MMS;
2930:cmsis/device/stm32f4xx_tim.c ****   /* Select the TRGO source */
2931:cmsis/device/stm32f4xx_tim.c ****   TIMx->CR2 |=  TIM_TRGOSource;
2932:cmsis/device/stm32f4xx_tim.c **** }
2933:cmsis/device/stm32f4xx_tim.c **** 
2934:cmsis/device/stm32f4xx_tim.c **** /**
2935:cmsis/device/stm32f4xx_tim.c ****   * @brief  Selects the TIMx Slave Mode.
2936:cmsis/device/stm32f4xx_tim.c ****   * @param  TIMx: where x can be 1, 2, 3, 4, 5, 8, 9 or 12 to select the TIM peripheral.
2937:cmsis/device/stm32f4xx_tim.c ****   * @param  TIM_SlaveMode: specifies the Timer Slave Mode.
2938:cmsis/device/stm32f4xx_tim.c ****   *          This parameter can be one of the following values:
2939:cmsis/device/stm32f4xx_tim.c ****   *            @arg TIM_SlaveMode_Reset: Rising edge of the selected trigger signal(TRGI) reinitial
2940:cmsis/device/stm32f4xx_tim.c ****   *                                      the counter and triggers an update of the registers
2941:cmsis/device/stm32f4xx_tim.c ****   *            @arg TIM_SlaveMode_Gated:     The counter clock is enabled when the trigger signal (
2942:cmsis/device/stm32f4xx_tim.c ****   *            @arg TIM_SlaveMode_Trigger:   The counter starts at a rising edge of the trigger TRG
2943:cmsis/device/stm32f4xx_tim.c ****   *            @arg TIM_SlaveMode_External1: Rising edges of the selected trigger (TRGI) clock the 
2944:cmsis/device/stm32f4xx_tim.c ****   * @retval None
2945:cmsis/device/stm32f4xx_tim.c ****   */
2946:cmsis/device/stm32f4xx_tim.c **** void TIM_SelectSlaveMode(TIM_TypeDef* TIMx, uint16_t TIM_SlaveMode)
2947:cmsis/device/stm32f4xx_tim.c **** {
2948:cmsis/device/stm32f4xx_tim.c ****   /* Check the parameters */
2949:cmsis/device/stm32f4xx_tim.c ****   assert_param(IS_TIM_LIST2_PERIPH(TIMx));
2950:cmsis/device/stm32f4xx_tim.c ****   assert_param(IS_TIM_SLAVE_MODE(TIM_SlaveMode));
2951:cmsis/device/stm32f4xx_tim.c **** 
2952:cmsis/device/stm32f4xx_tim.c ****   /* Reset the SMS Bits */
2953:cmsis/device/stm32f4xx_tim.c ****   TIMx->SMCR &= (uint16_t)~TIM_SMCR_SMS;
2954:cmsis/device/stm32f4xx_tim.c **** 
2955:cmsis/device/stm32f4xx_tim.c ****   /* Select the Slave Mode */
2956:cmsis/device/stm32f4xx_tim.c ****   TIMx->SMCR |= TIM_SlaveMode;
2957:cmsis/device/stm32f4xx_tim.c **** }
2958:cmsis/device/stm32f4xx_tim.c **** 
2959:cmsis/device/stm32f4xx_tim.c **** /**
2960:cmsis/device/stm32f4xx_tim.c ****   * @brief  Sets or Resets the TIMx Master/Slave Mode.
2961:cmsis/device/stm32f4xx_tim.c ****   * @param  TIMx: where x can be 1, 2, 3, 4, 5, 8, 9 or 12 to select the TIM peripheral.
2962:cmsis/device/stm32f4xx_tim.c ****   * @param  TIM_MasterSlaveMode: specifies the Timer Master Slave Mode.
2963:cmsis/device/stm32f4xx_tim.c ****   *          This parameter can be one of the following values:
2964:cmsis/device/stm32f4xx_tim.c ****   *            @arg TIM_MasterSlaveMode_Enable: synchronization between the current timer
2965:cmsis/device/stm32f4xx_tim.c ****   *                                             and its slaves (through TRGO)
2966:cmsis/device/stm32f4xx_tim.c ****   *            @arg TIM_MasterSlaveMode_Disable: No action
2967:cmsis/device/stm32f4xx_tim.c ****   * @retval None
2968:cmsis/device/stm32f4xx_tim.c ****   */
2969:cmsis/device/stm32f4xx_tim.c **** void TIM_SelectMasterSlaveMode(TIM_TypeDef* TIMx, uint16_t TIM_MasterSlaveMode)
2970:cmsis/device/stm32f4xx_tim.c **** {
2971:cmsis/device/stm32f4xx_tim.c ****   /* Check the parameters */
2972:cmsis/device/stm32f4xx_tim.c ****   assert_param(IS_TIM_LIST2_PERIPH(TIMx));
2973:cmsis/device/stm32f4xx_tim.c ****   assert_param(IS_TIM_MSM_STATE(TIM_MasterSlaveMode));
ARM GAS  C:\Users\CNous\AppData\Local\Temp\ccZi7tDD.s 			page 100


2974:cmsis/device/stm32f4xx_tim.c **** 
2975:cmsis/device/stm32f4xx_tim.c ****   /* Reset the MSM Bit */
2976:cmsis/device/stm32f4xx_tim.c ****   TIMx->SMCR &= (uint16_t)~TIM_SMCR_MSM;
2977:cmsis/device/stm32f4xx_tim.c ****   
2978:cmsis/device/stm32f4xx_tim.c ****   /* Set or Reset the MSM Bit */
2979:cmsis/device/stm32f4xx_tim.c ****   TIMx->SMCR |= TIM_MasterSlaveMode;
2980:cmsis/device/stm32f4xx_tim.c **** }
2981:cmsis/device/stm32f4xx_tim.c **** 
2982:cmsis/device/stm32f4xx_tim.c **** /**
2983:cmsis/device/stm32f4xx_tim.c ****   * @brief  Configures the TIMx External Trigger (ETR).
2984:cmsis/device/stm32f4xx_tim.c ****   * @param  TIMx: where x can be  1, 2, 3, 4, 5 or 8 to select the TIM peripheral.
2985:cmsis/device/stm32f4xx_tim.c ****   * @param  TIM_ExtTRGPrescaler: The external Trigger Prescaler.
2986:cmsis/device/stm32f4xx_tim.c ****   *          This parameter can be one of the following values:
2987:cmsis/device/stm32f4xx_tim.c ****   *            @arg TIM_ExtTRGPSC_OFF: ETRP Prescaler OFF.
2988:cmsis/device/stm32f4xx_tim.c ****   *            @arg TIM_ExtTRGPSC_DIV2: ETRP frequency divided by 2.
2989:cmsis/device/stm32f4xx_tim.c ****   *            @arg TIM_ExtTRGPSC_DIV4: ETRP frequency divided by 4.
2990:cmsis/device/stm32f4xx_tim.c ****   *            @arg TIM_ExtTRGPSC_DIV8: ETRP frequency divided by 8.
2991:cmsis/device/stm32f4xx_tim.c ****   * @param  TIM_ExtTRGPolarity: The external Trigger Polarity.
2992:cmsis/device/stm32f4xx_tim.c ****   *          This parameter can be one of the following values:
2993:cmsis/device/stm32f4xx_tim.c ****   *            @arg TIM_ExtTRGPolarity_Inverted: active low or falling edge active.
2994:cmsis/device/stm32f4xx_tim.c ****   *            @arg TIM_ExtTRGPolarity_NonInverted: active high or rising edge active.
2995:cmsis/device/stm32f4xx_tim.c ****   * @param  ExtTRGFilter: External Trigger Filter.
2996:cmsis/device/stm32f4xx_tim.c ****   *          This parameter must be a value between 0x00 and 0x0F
2997:cmsis/device/stm32f4xx_tim.c ****   * @retval None
2998:cmsis/device/stm32f4xx_tim.c ****   */
2999:cmsis/device/stm32f4xx_tim.c **** void TIM_ETRConfig(TIM_TypeDef* TIMx, uint16_t TIM_ExtTRGPrescaler,
3000:cmsis/device/stm32f4xx_tim.c ****                    uint16_t TIM_ExtTRGPolarity, uint16_t ExtTRGFilter)
3001:cmsis/device/stm32f4xx_tim.c **** {
3002:cmsis/device/stm32f4xx_tim.c ****   uint16_t tmpsmcr = 0;
3003:cmsis/device/stm32f4xx_tim.c **** 
3004:cmsis/device/stm32f4xx_tim.c ****   /* Check the parameters */
3005:cmsis/device/stm32f4xx_tim.c ****   assert_param(IS_TIM_LIST3_PERIPH(TIMx));
3006:cmsis/device/stm32f4xx_tim.c ****   assert_param(IS_TIM_EXT_PRESCALER(TIM_ExtTRGPrescaler));
3007:cmsis/device/stm32f4xx_tim.c ****   assert_param(IS_TIM_EXT_POLARITY(TIM_ExtTRGPolarity));
3008:cmsis/device/stm32f4xx_tim.c ****   assert_param(IS_TIM_EXT_FILTER(ExtTRGFilter));
3009:cmsis/device/stm32f4xx_tim.c **** 
3010:cmsis/device/stm32f4xx_tim.c ****   tmpsmcr = TIMx->SMCR;
3011:cmsis/device/stm32f4xx_tim.c **** 
3012:cmsis/device/stm32f4xx_tim.c ****   /* Reset the ETR Bits */
3013:cmsis/device/stm32f4xx_tim.c ****   tmpsmcr &= SMCR_ETR_MASK;
3014:cmsis/device/stm32f4xx_tim.c **** 
3015:cmsis/device/stm32f4xx_tim.c ****   /* Set the Prescaler, the Filter value and the Polarity */
3016:cmsis/device/stm32f4xx_tim.c ****   tmpsmcr |= (uint16_t)(TIM_ExtTRGPrescaler | (uint16_t)(TIM_ExtTRGPolarity | (uint16_t)(ExtTRGFilt
3017:cmsis/device/stm32f4xx_tim.c **** 
3018:cmsis/device/stm32f4xx_tim.c ****   /* Write to TIMx SMCR */
3019:cmsis/device/stm32f4xx_tim.c ****   TIMx->SMCR = tmpsmcr;
3020:cmsis/device/stm32f4xx_tim.c **** }
3021:cmsis/device/stm32f4xx_tim.c **** /**
3022:cmsis/device/stm32f4xx_tim.c ****   * @}
3023:cmsis/device/stm32f4xx_tim.c ****   */
3024:cmsis/device/stm32f4xx_tim.c **** 
3025:cmsis/device/stm32f4xx_tim.c **** /** @defgroup TIM_Group8 Specific interface management functions
3026:cmsis/device/stm32f4xx_tim.c ****  *  @brief    Specific interface management functions 
3027:cmsis/device/stm32f4xx_tim.c ****  *
3028:cmsis/device/stm32f4xx_tim.c **** @verbatim   
3029:cmsis/device/stm32f4xx_tim.c ****  ===============================================================================
3030:cmsis/device/stm32f4xx_tim.c ****                     Specific interface management functions
ARM GAS  C:\Users\CNous\AppData\Local\Temp\ccZi7tDD.s 			page 101


3031:cmsis/device/stm32f4xx_tim.c ****  ===============================================================================  
3032:cmsis/device/stm32f4xx_tim.c **** 
3033:cmsis/device/stm32f4xx_tim.c **** @endverbatim
3034:cmsis/device/stm32f4xx_tim.c ****   * @{
3035:cmsis/device/stm32f4xx_tim.c ****   */
3036:cmsis/device/stm32f4xx_tim.c **** 
3037:cmsis/device/stm32f4xx_tim.c **** /**
3038:cmsis/device/stm32f4xx_tim.c ****   * @brief  Configures the TIMx Encoder Interface.
3039:cmsis/device/stm32f4xx_tim.c ****   * @param  TIMx: where x can be 1, 2, 3, 4, 5, 8, 9 or 12 to select the TIM 
3040:cmsis/device/stm32f4xx_tim.c ****   *         peripheral.
3041:cmsis/device/stm32f4xx_tim.c ****   * @param  TIM_EncoderMode: specifies the TIMx Encoder Mode.
3042:cmsis/device/stm32f4xx_tim.c ****   *          This parameter can be one of the following values:
3043:cmsis/device/stm32f4xx_tim.c ****   *            @arg TIM_EncoderMode_TI1: Counter counts on TI1FP1 edge depending on TI2FP2 level.
3044:cmsis/device/stm32f4xx_tim.c ****   *            @arg TIM_EncoderMode_TI2: Counter counts on TI2FP2 edge depending on TI1FP1 level.
3045:cmsis/device/stm32f4xx_tim.c ****   *            @arg TIM_EncoderMode_TI12: Counter counts on both TI1FP1 and TI2FP2 edges depending
3046:cmsis/device/stm32f4xx_tim.c ****   *                                       on the level of the other input.
3047:cmsis/device/stm32f4xx_tim.c ****   * @param  TIM_IC1Polarity: specifies the IC1 Polarity
3048:cmsis/device/stm32f4xx_tim.c ****   *          This parameter can be one of the following values:
3049:cmsis/device/stm32f4xx_tim.c ****   *            @arg TIM_ICPolarity_Falling: IC Falling edge.
3050:cmsis/device/stm32f4xx_tim.c ****   *            @arg TIM_ICPolarity_Rising: IC Rising edge.
3051:cmsis/device/stm32f4xx_tim.c ****   * @param  TIM_IC2Polarity: specifies the IC2 Polarity
3052:cmsis/device/stm32f4xx_tim.c ****   *          This parameter can be one of the following values:
3053:cmsis/device/stm32f4xx_tim.c ****   *            @arg TIM_ICPolarity_Falling: IC Falling edge.
3054:cmsis/device/stm32f4xx_tim.c ****   *            @arg TIM_ICPolarity_Rising: IC Rising edge.
3055:cmsis/device/stm32f4xx_tim.c ****   * @retval None
3056:cmsis/device/stm32f4xx_tim.c ****   */
3057:cmsis/device/stm32f4xx_tim.c **** void TIM_EncoderInterfaceConfig(TIM_TypeDef* TIMx, uint16_t TIM_EncoderMode,
3058:cmsis/device/stm32f4xx_tim.c ****                                 uint16_t TIM_IC1Polarity, uint16_t TIM_IC2Polarity)
3059:cmsis/device/stm32f4xx_tim.c **** {
3060:cmsis/device/stm32f4xx_tim.c ****   uint16_t tmpsmcr = 0;
3061:cmsis/device/stm32f4xx_tim.c ****   uint16_t tmpccmr1 = 0;
3062:cmsis/device/stm32f4xx_tim.c ****   uint16_t tmpccer = 0;
3063:cmsis/device/stm32f4xx_tim.c ****     
3064:cmsis/device/stm32f4xx_tim.c ****   /* Check the parameters */
3065:cmsis/device/stm32f4xx_tim.c ****   assert_param(IS_TIM_LIST2_PERIPH(TIMx));
3066:cmsis/device/stm32f4xx_tim.c ****   assert_param(IS_TIM_ENCODER_MODE(TIM_EncoderMode));
3067:cmsis/device/stm32f4xx_tim.c ****   assert_param(IS_TIM_IC_POLARITY(TIM_IC1Polarity));
3068:cmsis/device/stm32f4xx_tim.c ****   assert_param(IS_TIM_IC_POLARITY(TIM_IC2Polarity));
3069:cmsis/device/stm32f4xx_tim.c **** 
3070:cmsis/device/stm32f4xx_tim.c ****   /* Get the TIMx SMCR register value */
3071:cmsis/device/stm32f4xx_tim.c ****   tmpsmcr = TIMx->SMCR;
3072:cmsis/device/stm32f4xx_tim.c **** 
3073:cmsis/device/stm32f4xx_tim.c ****   /* Get the TIMx CCMR1 register value */
3074:cmsis/device/stm32f4xx_tim.c ****   tmpccmr1 = TIMx->CCMR1;
3075:cmsis/device/stm32f4xx_tim.c **** 
3076:cmsis/device/stm32f4xx_tim.c ****   /* Get the TIMx CCER register value */
3077:cmsis/device/stm32f4xx_tim.c ****   tmpccer = TIMx->CCER;
3078:cmsis/device/stm32f4xx_tim.c **** 
3079:cmsis/device/stm32f4xx_tim.c ****   /* Set the encoder Mode */
3080:cmsis/device/stm32f4xx_tim.c ****   tmpsmcr &= (uint16_t)~TIM_SMCR_SMS;
3081:cmsis/device/stm32f4xx_tim.c ****   tmpsmcr |= TIM_EncoderMode;
3082:cmsis/device/stm32f4xx_tim.c **** 
3083:cmsis/device/stm32f4xx_tim.c ****   /* Select the Capture Compare 1 and the Capture Compare 2 as input */
3084:cmsis/device/stm32f4xx_tim.c ****   tmpccmr1 &= ((uint16_t)~TIM_CCMR1_CC1S) & ((uint16_t)~TIM_CCMR1_CC2S);
3085:cmsis/device/stm32f4xx_tim.c ****   tmpccmr1 |= TIM_CCMR1_CC1S_0 | TIM_CCMR1_CC2S_0;
3086:cmsis/device/stm32f4xx_tim.c **** 
3087:cmsis/device/stm32f4xx_tim.c ****   /* Set the TI1 and the TI2 Polarities */
ARM GAS  C:\Users\CNous\AppData\Local\Temp\ccZi7tDD.s 			page 102


3088:cmsis/device/stm32f4xx_tim.c ****   tmpccer &= ((uint16_t)~TIM_CCER_CC1P) & ((uint16_t)~TIM_CCER_CC2P);
3089:cmsis/device/stm32f4xx_tim.c ****   tmpccer |= (uint16_t)(TIM_IC1Polarity | (uint16_t)(TIM_IC2Polarity << (uint16_t)4));
3090:cmsis/device/stm32f4xx_tim.c **** 
3091:cmsis/device/stm32f4xx_tim.c ****   /* Write to TIMx SMCR */
3092:cmsis/device/stm32f4xx_tim.c ****   TIMx->SMCR = tmpsmcr;
3093:cmsis/device/stm32f4xx_tim.c **** 
3094:cmsis/device/stm32f4xx_tim.c ****   /* Write to TIMx CCMR1 */
3095:cmsis/device/stm32f4xx_tim.c ****   TIMx->CCMR1 = tmpccmr1;
3096:cmsis/device/stm32f4xx_tim.c **** 
3097:cmsis/device/stm32f4xx_tim.c ****   /* Write to TIMx CCER */
3098:cmsis/device/stm32f4xx_tim.c ****   TIMx->CCER = tmpccer;
3099:cmsis/device/stm32f4xx_tim.c **** }
3100:cmsis/device/stm32f4xx_tim.c **** 
3101:cmsis/device/stm32f4xx_tim.c **** /**
3102:cmsis/device/stm32f4xx_tim.c ****   * @brief  Enables or disables the TIMx's Hall sensor interface.
3103:cmsis/device/stm32f4xx_tim.c ****   * @param  TIMx: where x can be 1, 2, 3, 4, 5, 8, 9 or 12 to select the TIM 
3104:cmsis/device/stm32f4xx_tim.c ****   *         peripheral.
3105:cmsis/device/stm32f4xx_tim.c ****   * @param  NewState: new state of the TIMx Hall sensor interface.
3106:cmsis/device/stm32f4xx_tim.c ****   *          This parameter can be: ENABLE or DISABLE.
3107:cmsis/device/stm32f4xx_tim.c ****   * @retval None
3108:cmsis/device/stm32f4xx_tim.c ****   */
3109:cmsis/device/stm32f4xx_tim.c **** void TIM_SelectHallSensor(TIM_TypeDef* TIMx, FunctionalState NewState)
3110:cmsis/device/stm32f4xx_tim.c **** {
3111:cmsis/device/stm32f4xx_tim.c ****   /* Check the parameters */
3112:cmsis/device/stm32f4xx_tim.c ****   assert_param(IS_TIM_LIST2_PERIPH(TIMx));
3113:cmsis/device/stm32f4xx_tim.c ****   assert_param(IS_FUNCTIONAL_STATE(NewState));
3114:cmsis/device/stm32f4xx_tim.c **** 
3115:cmsis/device/stm32f4xx_tim.c ****   if (NewState != DISABLE)
3116:cmsis/device/stm32f4xx_tim.c ****   {
3117:cmsis/device/stm32f4xx_tim.c ****     /* Set the TI1S Bit */
3118:cmsis/device/stm32f4xx_tim.c ****     TIMx->CR2 |= TIM_CR2_TI1S;
3119:cmsis/device/stm32f4xx_tim.c ****   }
3120:cmsis/device/stm32f4xx_tim.c ****   else
3121:cmsis/device/stm32f4xx_tim.c ****   {
3122:cmsis/device/stm32f4xx_tim.c ****     /* Reset the TI1S Bit */
3123:cmsis/device/stm32f4xx_tim.c ****     TIMx->CR2 &= (uint16_t)~TIM_CR2_TI1S;
3124:cmsis/device/stm32f4xx_tim.c ****   }
3125:cmsis/device/stm32f4xx_tim.c **** }
3126:cmsis/device/stm32f4xx_tim.c **** /**
3127:cmsis/device/stm32f4xx_tim.c ****   * @}
3128:cmsis/device/stm32f4xx_tim.c ****   */
3129:cmsis/device/stm32f4xx_tim.c **** 
3130:cmsis/device/stm32f4xx_tim.c **** /** @defgroup TIM_Group9 Specific remapping management function
3131:cmsis/device/stm32f4xx_tim.c ****  *  @brief   Specific remapping management function
3132:cmsis/device/stm32f4xx_tim.c ****  *
3133:cmsis/device/stm32f4xx_tim.c **** @verbatim   
3134:cmsis/device/stm32f4xx_tim.c ****  ===============================================================================
3135:cmsis/device/stm32f4xx_tim.c ****                      Specific remapping management function
3136:cmsis/device/stm32f4xx_tim.c ****  ===============================================================================  
3137:cmsis/device/stm32f4xx_tim.c **** 
3138:cmsis/device/stm32f4xx_tim.c **** @endverbatim
3139:cmsis/device/stm32f4xx_tim.c ****   * @{
3140:cmsis/device/stm32f4xx_tim.c ****   */
3141:cmsis/device/stm32f4xx_tim.c **** 
3142:cmsis/device/stm32f4xx_tim.c **** /**
3143:cmsis/device/stm32f4xx_tim.c ****   * @brief  Configures the TIM2, TIM5 and TIM11 Remapping input capabilities.
3144:cmsis/device/stm32f4xx_tim.c ****   * @param  TIMx: where x can be 2, 5 or 11 to select the TIM peripheral.
ARM GAS  C:\Users\CNous\AppData\Local\Temp\ccZi7tDD.s 			page 103


3145:cmsis/device/stm32f4xx_tim.c ****   * @param  TIM_Remap: specifies the TIM input remapping source.
3146:cmsis/device/stm32f4xx_tim.c ****   *          This parameter can be one of the following values:
3147:cmsis/device/stm32f4xx_tim.c ****   *            @arg TIM2_TIM8_TRGO: TIM2 ITR1 input is connected to TIM8 Trigger output(default)
3148:cmsis/device/stm32f4xx_tim.c ****   *            @arg TIM2_ETH_PTP:   TIM2 ITR1 input is connected to ETH PTP trogger output.
3149:cmsis/device/stm32f4xx_tim.c ****   *            @arg TIM2_USBFS_SOF: TIM2 ITR1 input is connected to USB FS SOF. 
3150:cmsis/device/stm32f4xx_tim.c ****   *            @arg TIM2_USBHS_SOF: TIM2 ITR1 input is connected to USB HS SOF. 
3151:cmsis/device/stm32f4xx_tim.c ****   *            @arg TIM5_GPIO:      TIM5 CH4 input is connected to dedicated Timer pin(default)
3152:cmsis/device/stm32f4xx_tim.c ****   *            @arg TIM5_LSI:       TIM5 CH4 input is connected to LSI clock.
3153:cmsis/device/stm32f4xx_tim.c ****   *            @arg TIM5_LSE:       TIM5 CH4 input is connected to LSE clock.
3154:cmsis/device/stm32f4xx_tim.c ****   *            @arg TIM5_RTC:       TIM5 CH4 input is connected to RTC Output event.
3155:cmsis/device/stm32f4xx_tim.c ****   *            @arg TIM11_GPIO:     TIM11 CH4 input is connected to dedicated Timer pin(default) 
3156:cmsis/device/stm32f4xx_tim.c ****   *            @arg TIM11_HSE:      TIM11 CH4 input is connected to HSE_RTC clock
3157:cmsis/device/stm32f4xx_tim.c ****   *                                 (HSE divided by a programmable prescaler)  
3158:cmsis/device/stm32f4xx_tim.c ****   * @retval None
3159:cmsis/device/stm32f4xx_tim.c ****   */
3160:cmsis/device/stm32f4xx_tim.c **** void TIM_RemapConfig(TIM_TypeDef* TIMx, uint16_t TIM_Remap)
3161:cmsis/device/stm32f4xx_tim.c **** {
3162:cmsis/device/stm32f4xx_tim.c ****  /* Check the parameters */
3163:cmsis/device/stm32f4xx_tim.c ****   assert_param(IS_TIM_LIST6_PERIPH(TIMx));
3164:cmsis/device/stm32f4xx_tim.c ****   assert_param(IS_TIM_REMAP(TIM_Remap));
3165:cmsis/device/stm32f4xx_tim.c **** 
3166:cmsis/device/stm32f4xx_tim.c ****   /* Set the Timer remapping configuration */
3167:cmsis/device/stm32f4xx_tim.c ****   TIMx->OR =  TIM_Remap;
3168:cmsis/device/stm32f4xx_tim.c **** }
3169:cmsis/device/stm32f4xx_tim.c **** /**
3170:cmsis/device/stm32f4xx_tim.c ****   * @}
3171:cmsis/device/stm32f4xx_tim.c ****   */
3172:cmsis/device/stm32f4xx_tim.c **** 
3173:cmsis/device/stm32f4xx_tim.c **** /**
3174:cmsis/device/stm32f4xx_tim.c ****   * @brief  Configure the TI1 as Input.
3175:cmsis/device/stm32f4xx_tim.c ****   * @param  TIMx: where x can be 1, 2, 3, 4, 5, 8, 9, 10, 11, 12, 13 or 14 
3176:cmsis/device/stm32f4xx_tim.c ****   *         to select the TIM peripheral.
3177:cmsis/device/stm32f4xx_tim.c ****   * @param  TIM_ICPolarity : The Input Polarity.
3178:cmsis/device/stm32f4xx_tim.c ****   *          This parameter can be one of the following values:
3179:cmsis/device/stm32f4xx_tim.c ****   *            @arg TIM_ICPolarity_Rising
3180:cmsis/device/stm32f4xx_tim.c ****   *            @arg TIM_ICPolarity_Falling
3181:cmsis/device/stm32f4xx_tim.c ****   *            @arg TIM_ICPolarity_BothEdge  
3182:cmsis/device/stm32f4xx_tim.c ****   * @param  TIM_ICSelection: specifies the input to be used.
3183:cmsis/device/stm32f4xx_tim.c ****   *          This parameter can be one of the following values:
3184:cmsis/device/stm32f4xx_tim.c ****   *            @arg TIM_ICSelection_DirectTI: TIM Input 1 is selected to be connected to IC1.
3185:cmsis/device/stm32f4xx_tim.c ****   *            @arg TIM_ICSelection_IndirectTI: TIM Input 1 is selected to be connected to IC2.
3186:cmsis/device/stm32f4xx_tim.c ****   *            @arg TIM_ICSelection_TRC: TIM Input 1 is selected to be connected to TRC.
3187:cmsis/device/stm32f4xx_tim.c ****   * @param  TIM_ICFilter: Specifies the Input Capture Filter.
3188:cmsis/device/stm32f4xx_tim.c ****   *          This parameter must be a value between 0x00 and 0x0F.
3189:cmsis/device/stm32f4xx_tim.c ****   * @retval None
3190:cmsis/device/stm32f4xx_tim.c ****   */
3191:cmsis/device/stm32f4xx_tim.c **** static void TI1_Config(TIM_TypeDef* TIMx, uint16_t TIM_ICPolarity, uint16_t TIM_ICSelection,
3192:cmsis/device/stm32f4xx_tim.c ****                        uint16_t TIM_ICFilter)
3193:cmsis/device/stm32f4xx_tim.c **** {
3194:cmsis/device/stm32f4xx_tim.c ****   uint16_t tmpccmr1 = 0, tmpccer = 0;
3195:cmsis/device/stm32f4xx_tim.c **** 
3196:cmsis/device/stm32f4xx_tim.c ****   /* Disable the Channel 1: Reset the CC1E Bit */
3197:cmsis/device/stm32f4xx_tim.c ****   TIMx->CCER &= (uint16_t)~TIM_CCER_CC1E;
3198:cmsis/device/stm32f4xx_tim.c ****   tmpccmr1 = TIMx->CCMR1;
3199:cmsis/device/stm32f4xx_tim.c ****   tmpccer = TIMx->CCER;
3200:cmsis/device/stm32f4xx_tim.c **** 
3201:cmsis/device/stm32f4xx_tim.c ****   /* Select the Input and set the filter */
ARM GAS  C:\Users\CNous\AppData\Local\Temp\ccZi7tDD.s 			page 104


3202:cmsis/device/stm32f4xx_tim.c ****   tmpccmr1 &= ((uint16_t)~TIM_CCMR1_CC1S) & ((uint16_t)~TIM_CCMR1_IC1F);
3203:cmsis/device/stm32f4xx_tim.c ****   tmpccmr1 |= (uint16_t)(TIM_ICSelection | (uint16_t)(TIM_ICFilter << (uint16_t)4));
3204:cmsis/device/stm32f4xx_tim.c **** 
3205:cmsis/device/stm32f4xx_tim.c ****   /* Select the Polarity and set the CC1E Bit */
3206:cmsis/device/stm32f4xx_tim.c ****   tmpccer &= (uint16_t)~(TIM_CCER_CC1P | TIM_CCER_CC1NP);
3207:cmsis/device/stm32f4xx_tim.c ****   tmpccer |= (uint16_t)(TIM_ICPolarity | (uint16_t)TIM_CCER_CC1E);
3208:cmsis/device/stm32f4xx_tim.c **** 
3209:cmsis/device/stm32f4xx_tim.c ****   /* Write to TIMx CCMR1 and CCER registers */
3210:cmsis/device/stm32f4xx_tim.c ****   TIMx->CCMR1 = tmpccmr1;
3211:cmsis/device/stm32f4xx_tim.c ****   TIMx->CCER = tmpccer;
3212:cmsis/device/stm32f4xx_tim.c **** }
3213:cmsis/device/stm32f4xx_tim.c **** 
3214:cmsis/device/stm32f4xx_tim.c **** /**
3215:cmsis/device/stm32f4xx_tim.c ****   * @brief  Configure the TI2 as Input.
3216:cmsis/device/stm32f4xx_tim.c ****   * @param  TIMx: where x can be 1, 2, 3, 4, 5, 8, 9 or 12 to select the TIM 
3217:cmsis/device/stm32f4xx_tim.c ****   *         peripheral.
3218:cmsis/device/stm32f4xx_tim.c ****   * @param  TIM_ICPolarity : The Input Polarity.
3219:cmsis/device/stm32f4xx_tim.c ****   *          This parameter can be one of the following values:
3220:cmsis/device/stm32f4xx_tim.c ****   *            @arg TIM_ICPolarity_Rising
3221:cmsis/device/stm32f4xx_tim.c ****   *            @arg TIM_ICPolarity_Falling
3222:cmsis/device/stm32f4xx_tim.c ****   *            @arg TIM_ICPolarity_BothEdge   
3223:cmsis/device/stm32f4xx_tim.c ****   * @param  TIM_ICSelection: specifies the input to be used.
3224:cmsis/device/stm32f4xx_tim.c ****   *          This parameter can be one of the following values:
3225:cmsis/device/stm32f4xx_tim.c ****   *            @arg TIM_ICSelection_DirectTI: TIM Input 2 is selected to be connected to IC2.
3226:cmsis/device/stm32f4xx_tim.c ****   *            @arg TIM_ICSelection_IndirectTI: TIM Input 2 is selected to be connected to IC1.
3227:cmsis/device/stm32f4xx_tim.c ****   *            @arg TIM_ICSelection_TRC: TIM Input 2 is selected to be connected to TRC.
3228:cmsis/device/stm32f4xx_tim.c ****   * @param  TIM_ICFilter: Specifies the Input Capture Filter.
3229:cmsis/device/stm32f4xx_tim.c ****   *          This parameter must be a value between 0x00 and 0x0F.
3230:cmsis/device/stm32f4xx_tim.c ****   * @retval None
3231:cmsis/device/stm32f4xx_tim.c ****   */
3232:cmsis/device/stm32f4xx_tim.c **** static void TI2_Config(TIM_TypeDef* TIMx, uint16_t TIM_ICPolarity, uint16_t TIM_ICSelection,
3233:cmsis/device/stm32f4xx_tim.c ****                        uint16_t TIM_ICFilter)
3234:cmsis/device/stm32f4xx_tim.c **** {
3235:cmsis/device/stm32f4xx_tim.c ****   uint16_t tmpccmr1 = 0, tmpccer = 0, tmp = 0;
3236:cmsis/device/stm32f4xx_tim.c **** 
3237:cmsis/device/stm32f4xx_tim.c ****   /* Disable the Channel 2: Reset the CC2E Bit */
3238:cmsis/device/stm32f4xx_tim.c ****   TIMx->CCER &= (uint16_t)~TIM_CCER_CC2E;
3239:cmsis/device/stm32f4xx_tim.c ****   tmpccmr1 = TIMx->CCMR1;
3240:cmsis/device/stm32f4xx_tim.c ****   tmpccer = TIMx->CCER;
3241:cmsis/device/stm32f4xx_tim.c ****   tmp = (uint16_t)(TIM_ICPolarity << 4);
3242:cmsis/device/stm32f4xx_tim.c **** 
3243:cmsis/device/stm32f4xx_tim.c ****   /* Select the Input and set the filter */
3244:cmsis/device/stm32f4xx_tim.c ****   tmpccmr1 &= ((uint16_t)~TIM_CCMR1_CC2S) & ((uint16_t)~TIM_CCMR1_IC2F);
3245:cmsis/device/stm32f4xx_tim.c ****   tmpccmr1 |= (uint16_t)(TIM_ICFilter << 12);
3246:cmsis/device/stm32f4xx_tim.c ****   tmpccmr1 |= (uint16_t)(TIM_ICSelection << 8);
3247:cmsis/device/stm32f4xx_tim.c **** 
3248:cmsis/device/stm32f4xx_tim.c ****   /* Select the Polarity and set the CC2E Bit */
3249:cmsis/device/stm32f4xx_tim.c ****   tmpccer &= (uint16_t)~(TIM_CCER_CC2P | TIM_CCER_CC2NP);
3250:cmsis/device/stm32f4xx_tim.c ****   tmpccer |=  (uint16_t)(tmp | (uint16_t)TIM_CCER_CC2E);
3251:cmsis/device/stm32f4xx_tim.c **** 
3252:cmsis/device/stm32f4xx_tim.c ****   /* Write to TIMx CCMR1 and CCER registers */
3253:cmsis/device/stm32f4xx_tim.c ****   TIMx->CCMR1 = tmpccmr1 ;
3254:cmsis/device/stm32f4xx_tim.c ****   TIMx->CCER = tmpccer;
3255:cmsis/device/stm32f4xx_tim.c **** }
3256:cmsis/device/stm32f4xx_tim.c **** 
3257:cmsis/device/stm32f4xx_tim.c **** /**
3258:cmsis/device/stm32f4xx_tim.c ****   * @brief  Configure the TI3 as Input.
ARM GAS  C:\Users\CNous\AppData\Local\Temp\ccZi7tDD.s 			page 105


3259:cmsis/device/stm32f4xx_tim.c ****   * @param  TIMx: where x can be 1, 2, 3, 4, 5 or 8 to select the TIM peripheral.
3260:cmsis/device/stm32f4xx_tim.c ****   * @param  TIM_ICPolarity : The Input Polarity.
3261:cmsis/device/stm32f4xx_tim.c ****   *          This parameter can be one of the following values:
3262:cmsis/device/stm32f4xx_tim.c ****   *            @arg TIM_ICPolarity_Rising
3263:cmsis/device/stm32f4xx_tim.c ****   *            @arg TIM_ICPolarity_Falling
3264:cmsis/device/stm32f4xx_tim.c ****   *            @arg TIM_ICPolarity_BothEdge         
3265:cmsis/device/stm32f4xx_tim.c ****   * @param  TIM_ICSelection: specifies the input to be used.
3266:cmsis/device/stm32f4xx_tim.c ****   *          This parameter can be one of the following values:
3267:cmsis/device/stm32f4xx_tim.c ****   *            @arg TIM_ICSelection_DirectTI: TIM Input 3 is selected to be connected to IC3.
3268:cmsis/device/stm32f4xx_tim.c ****   *            @arg TIM_ICSelection_IndirectTI: TIM Input 3 is selected to be connected to IC4.
3269:cmsis/device/stm32f4xx_tim.c ****   *            @arg TIM_ICSelection_TRC: TIM Input 3 is selected to be connected to TRC.
3270:cmsis/device/stm32f4xx_tim.c ****   * @param  TIM_ICFilter: Specifies the Input Capture Filter.
3271:cmsis/device/stm32f4xx_tim.c ****   *          This parameter must be a value between 0x00 and 0x0F.
3272:cmsis/device/stm32f4xx_tim.c ****   * @retval None
3273:cmsis/device/stm32f4xx_tim.c ****   */
3274:cmsis/device/stm32f4xx_tim.c **** static void TI3_Config(TIM_TypeDef* TIMx, uint16_t TIM_ICPolarity, uint16_t TIM_ICSelection,
3275:cmsis/device/stm32f4xx_tim.c ****                        uint16_t TIM_ICFilter)
3276:cmsis/device/stm32f4xx_tim.c **** {
3277:cmsis/device/stm32f4xx_tim.c ****   uint16_t tmpccmr2 = 0, tmpccer = 0, tmp = 0;
3278:cmsis/device/stm32f4xx_tim.c **** 
3279:cmsis/device/stm32f4xx_tim.c ****   /* Disable the Channel 3: Reset the CC3E Bit */
3280:cmsis/device/stm32f4xx_tim.c ****   TIMx->CCER &= (uint16_t)~TIM_CCER_CC3E;
 2485              		.loc 1 3280 0
 2486 000e 028C     		ldrh	r2, [r0, #32]	@,
 2487              	.LBE47:
 2488              	.LBE46:
1922:cmsis/device/stm32f4xx_tim.c ****     TI3_Config(TIMx,  TIM_ICInitStruct->TIM_ICPolarity,
 2489              		.loc 1 1922 0
 2490 0010 4E88     		ldrh	r6, [r1, #2]	@ D.7135, TIM_ICInitStruct_1(D)->TIM_ICPolarity
1918:cmsis/device/stm32f4xx_tim.c ****   else if (TIM_ICInitStruct->TIM_Channel == TIM_Channel_3)
 2491              		.loc 1 1918 0
 2492 0012 00F08280 		beq	.L124	@,
1932:cmsis/device/stm32f4xx_tim.c ****     TI4_Config(TIMx, TIM_ICInitStruct->TIM_ICPolarity,
 2493              		.loc 1 1932 0
 2494 0016 8F88     		ldrh	r7, [r1, #4]	@ D.7136, TIM_ICInitStruct_1(D)->TIM_ICSelection
 2495 0018 0D89     		ldrh	r5, [r1, #8]	@ D.7137, TIM_ICInitStruct_1(D)->TIM_ICFilter
 2496              	.LVL295:
1936:cmsis/device/stm32f4xx_tim.c ****     TIM_SetIC4Prescaler(TIMx, TIM_ICInitStruct->TIM_ICPrescaler);
 2497              		.loc 1 1936 0
 2498 001a CC88     		ldrh	r4, [r1, #6]	@ D.7138, TIM_ICInitStruct_1(D)->TIM_ICPrescaler
 2499              	.LBB50:
 2500              	.LBB51:
3281:cmsis/device/stm32f4xx_tim.c ****   tmpccmr2 = TIMx->CCMR2;
3282:cmsis/device/stm32f4xx_tim.c ****   tmpccer = TIMx->CCER;
3283:cmsis/device/stm32f4xx_tim.c ****   tmp = (uint16_t)(TIM_ICPolarity << 8);
3284:cmsis/device/stm32f4xx_tim.c **** 
3285:cmsis/device/stm32f4xx_tim.c ****   /* Select the Input and set the filter */
3286:cmsis/device/stm32f4xx_tim.c ****   tmpccmr2 &= ((uint16_t)~TIM_CCMR1_CC1S) & ((uint16_t)~TIM_CCMR2_IC3F);
3287:cmsis/device/stm32f4xx_tim.c ****   tmpccmr2 |= (uint16_t)(TIM_ICSelection | (uint16_t)(TIM_ICFilter << (uint16_t)4));
3288:cmsis/device/stm32f4xx_tim.c **** 
3289:cmsis/device/stm32f4xx_tim.c ****   /* Select the Polarity and set the CC3E Bit */
3290:cmsis/device/stm32f4xx_tim.c ****   tmpccer &= (uint16_t)~(TIM_CCER_CC3P | TIM_CCER_CC3NP);
3291:cmsis/device/stm32f4xx_tim.c ****   tmpccer |= (uint16_t)(tmp | (uint16_t)TIM_CCER_CC3E);
3292:cmsis/device/stm32f4xx_tim.c **** 
3293:cmsis/device/stm32f4xx_tim.c ****   /* Write to TIMx CCMR2 and CCER registers */
3294:cmsis/device/stm32f4xx_tim.c ****   TIMx->CCMR2 = tmpccmr2;
3295:cmsis/device/stm32f4xx_tim.c ****   TIMx->CCER = tmpccer;
ARM GAS  C:\Users\CNous\AppData\Local\Temp\ccZi7tDD.s 			page 106


3296:cmsis/device/stm32f4xx_tim.c **** }
3297:cmsis/device/stm32f4xx_tim.c **** 
3298:cmsis/device/stm32f4xx_tim.c **** /**
3299:cmsis/device/stm32f4xx_tim.c ****   * @brief  Configure the TI4 as Input.
3300:cmsis/device/stm32f4xx_tim.c ****   * @param  TIMx: where x can be 1, 2, 3, 4, 5 or 8 to select the TIM peripheral.
3301:cmsis/device/stm32f4xx_tim.c ****   * @param  TIM_ICPolarity : The Input Polarity.
3302:cmsis/device/stm32f4xx_tim.c ****   *          This parameter can be one of the following values:
3303:cmsis/device/stm32f4xx_tim.c ****   *            @arg TIM_ICPolarity_Rising
3304:cmsis/device/stm32f4xx_tim.c ****   *            @arg TIM_ICPolarity_Falling
3305:cmsis/device/stm32f4xx_tim.c ****   *            @arg TIM_ICPolarity_BothEdge     
3306:cmsis/device/stm32f4xx_tim.c ****   * @param  TIM_ICSelection: specifies the input to be used.
3307:cmsis/device/stm32f4xx_tim.c ****   *          This parameter can be one of the following values:
3308:cmsis/device/stm32f4xx_tim.c ****   *            @arg TIM_ICSelection_DirectTI: TIM Input 4 is selected to be connected to IC4.
3309:cmsis/device/stm32f4xx_tim.c ****   *            @arg TIM_ICSelection_IndirectTI: TIM Input 4 is selected to be connected to IC3.
3310:cmsis/device/stm32f4xx_tim.c ****   *            @arg TIM_ICSelection_TRC: TIM Input 4 is selected to be connected to TRC.
3311:cmsis/device/stm32f4xx_tim.c ****   * @param  TIM_ICFilter: Specifies the Input Capture Filter.
3312:cmsis/device/stm32f4xx_tim.c ****   *          This parameter must be a value between 0x00 and 0x0F.
3313:cmsis/device/stm32f4xx_tim.c ****   * @retval None
3314:cmsis/device/stm32f4xx_tim.c ****   */
3315:cmsis/device/stm32f4xx_tim.c **** static void TI4_Config(TIM_TypeDef* TIMx, uint16_t TIM_ICPolarity, uint16_t TIM_ICSelection,
3316:cmsis/device/stm32f4xx_tim.c ****                        uint16_t TIM_ICFilter)
3317:cmsis/device/stm32f4xx_tim.c **** {
3318:cmsis/device/stm32f4xx_tim.c ****   uint16_t tmpccmr2 = 0, tmpccer = 0, tmp = 0;
3319:cmsis/device/stm32f4xx_tim.c **** 
3320:cmsis/device/stm32f4xx_tim.c ****   /* Disable the Channel 4: Reset the CC4E Bit */
3321:cmsis/device/stm32f4xx_tim.c ****   TIMx->CCER &= (uint16_t)~TIM_CCER_CC4E;
 2501              		.loc 1 3321 0
 2502 001c 22F48051 		bic	r1, r2, #4096	@ D.7647, TIMx_6(D)->CCER,
 2503              	.LVL296:
 2504 0020 0B04     		lsls	r3, r1, #16	@ D.7647, D.7647,
 2505 0022 1A0C     		lsrs	r2, r3, #16	@ D.7647, D.7647,
 2506 0024 0284     		strh	r2, [r0, #32]	@ movhi	@ D.7647, TIMx_6(D)->CCER
3322:cmsis/device/stm32f4xx_tim.c ****   tmpccmr2 = TIMx->CCMR2;
 2507              		.loc 1 3322 0
 2508 0026 818B     		ldrh	r1, [r0, #28]	@, TIMx_6(D)->CCMR2
 2509              	.LVL297:
3323:cmsis/device/stm32f4xx_tim.c ****   tmpccer = TIMx->CCER;
 2510              		.loc 1 3323 0
 2511 0028 038C     		ldrh	r3, [r0, #32]	@, TIMx_6(D)->CCER
 2512              	.LVL298:
3324:cmsis/device/stm32f4xx_tim.c ****   tmp = (uint16_t)(TIM_ICPolarity << 12);
3325:cmsis/device/stm32f4xx_tim.c **** 
3326:cmsis/device/stm32f4xx_tim.c ****   /* Select the Input and set the filter */
3327:cmsis/device/stm32f4xx_tim.c ****   tmpccmr2 &= ((uint16_t)~TIM_CCMR1_CC2S) & ((uint16_t)~TIM_CCMR1_IC2F);
 2513              		.loc 1 3327 0
 2514 002a 21F44072 		bic	r2, r1, #768	@ tmpccmr2, TIMx_6(D)->CCMR2,
3328:cmsis/device/stm32f4xx_tim.c ****   tmpccmr2 |= (uint16_t)(TIM_ICSelection << 8);
3329:cmsis/device/stm32f4xx_tim.c ****   tmpccmr2 |= (uint16_t)(TIM_ICFilter << 12);
3330:cmsis/device/stm32f4xx_tim.c **** 
3331:cmsis/device/stm32f4xx_tim.c ****   /* Select the Polarity and set the CC4E Bit */
3332:cmsis/device/stm32f4xx_tim.c ****   tmpccer &= (uint16_t)~(TIM_CCER_CC4P | TIM_CCER_CC4NP);
 2515              		.loc 1 3332 0
 2516 002e 23F40051 		bic	r1, r3, #8192	@ tmp329, TIMx_6(D)->CCER,
 2517              	.LVL299:
3327:cmsis/device/stm32f4xx_tim.c ****   tmpccmr2 &= ((uint16_t)~TIM_CCMR1_CC2S) & ((uint16_t)~TIM_CCMR1_IC2F);
 2518              		.loc 1 3327 0
 2519 0032 1205     		lsls	r2, r2, #20	@ tmpccmr2, tmpccmr2,
ARM GAS  C:\Users\CNous\AppData\Local\Temp\ccZi7tDD.s 			page 107


 2520              		.loc 1 3332 0
 2521 0034 4B04     		lsls	r3, r1, #17	@ tmp329, tmp329,
 2522              	.LVL300:
 2523 0036 5B0C     		lsrs	r3, r3, #17	@ tmp329, tmp329,
3327:cmsis/device/stm32f4xx_tim.c ****   tmpccmr2 &= ((uint16_t)~TIM_CCMR1_CC2S) & ((uint16_t)~TIM_CCMR1_IC2F);
 2524              		.loc 1 3327 0
 2525 0038 110D     		lsrs	r1, r2, #20	@ tmpccmr2, tmpccmr2,
 2526              	.LVL301:
3328:cmsis/device/stm32f4xx_tim.c ****   tmpccmr2 |= (uint16_t)(TIM_ICSelection << 8);
 2527              		.loc 1 3328 0
 2528 003a 41EA0722 		orr	r2, r1, r7, lsl #8	@, tmp324, tmpccmr2, D.7136,
 2529              	.LVL302:
3333:cmsis/device/stm32f4xx_tim.c ****   tmpccer |= (uint16_t)(tmp | (uint16_t)TIM_CCER_CC4E);
 2530              		.loc 1 3333 0
 2531 003e 43EA0631 		orr	r1, r3, r6, lsl #12	@, tmp333, tmp329, D.7135,
 2532 0042 8BB2     		uxth	r3, r1	@ D.7644, tmp333
3329:cmsis/device/stm32f4xx_tim.c ****   tmpccmr2 |= (uint16_t)(TIM_ICFilter << 12);
 2533              		.loc 1 3329 0
 2534 0044 42EA0532 		orr	r2, r2, r5, lsl #12	@, tmpccmr2, tmp324, D.7137,
 2535              	.LVL303:
 2536 0048 91B2     		uxth	r1, r2	@ tmpccmr2, tmpccmr2
 2537              	.LVL304:
 2538              		.loc 1 3333 0
 2539 004a 43F48052 		orr	r2, r3, #4096	@ tmpccer, D.7644,
 2540              	.LVL305:
3334:cmsis/device/stm32f4xx_tim.c **** 
3335:cmsis/device/stm32f4xx_tim.c ****   /* Write to TIMx CCMR2 and CCER registers */
3336:cmsis/device/stm32f4xx_tim.c ****   TIMx->CCMR2 = tmpccmr2;
 2541              		.loc 1 3336 0
 2542 004e 8183     		strh	r1, [r0, #28]	@ movhi	@ tmpccmr2, TIMx_6(D)->CCMR2
3337:cmsis/device/stm32f4xx_tim.c ****   TIMx->CCER = tmpccer ;
 2543              		.loc 1 3337 0
 2544 0050 0284     		strh	r2, [r0, #32]	@ movhi	@ tmpccer, TIMx_6(D)->CCER
 2545              	.LBE51:
 2546              	.LBE50:
 2547              	.LBB52:
 2548              	.LBB53:
2165:cmsis/device/stm32f4xx_tim.c ****   TIMx->CCMR2 &= (uint16_t)~TIM_CCMR2_IC4PSC;
 2549              		.loc 1 2165 0
 2550 0052 838B     		ldrh	r3, [r0, #28]	@, TIMx_6(D)->CCMR2
 2551 0054 23F44061 		bic	r1, r3, #3072	@ D.7654, TIMx_6(D)->CCMR2,
 2552              	.LVL306:
 2553 0058 0A04     		lsls	r2, r1, #16	@ D.7654, D.7654,
 2554              	.LVL307:
 2555 005a 130C     		lsrs	r3, r2, #16	@ D.7654, D.7654,
 2556 005c 8383     		strh	r3, [r0, #28]	@ movhi	@ D.7654, TIMx_6(D)->CCMR2
2168:cmsis/device/stm32f4xx_tim.c ****   TIMx->CCMR2 |= (uint16_t)(TIM_ICPSC << 8);
 2557              		.loc 1 2168 0
 2558 005e 818B     		ldrh	r1, [r0, #28]	@, TIMx_6(D)->CCMR2
 2559 0060 8AB2     		uxth	r2, r1	@ D.7653, TIMx_6(D)->CCMR2
 2560 0062 42EA0423 		orr	r3, r2, r4, lsl #8	@, tmp345, D.7653, D.7138,
 2561 0066 99B2     		uxth	r1, r3	@ D.7651, tmp345
 2562 0068 8183     		strh	r1, [r0, #28]	@ movhi	@ D.7651,
 2563              	.LVL308:
 2564              	.L117:
 2565              	.LBE53:
 2566              	.LBE52:
ARM GAS  C:\Users\CNous\AppData\Local\Temp\ccZi7tDD.s 			page 108


1938:cmsis/device/stm32f4xx_tim.c **** }
 2567              		.loc 1 1938 0
 2568 006a F0BC     		pop	{r4, r5, r6, r7}
 2569 006c 7047     		bx	lr
 2570              	.LVL309:
 2571              	.L122:
 2572              	.LBB54:
 2573              	.LBB55:
3197:cmsis/device/stm32f4xx_tim.c ****   TIMx->CCER &= (uint16_t)~TIM_CCER_CC1E;
 2574              		.loc 1 3197 0
 2575 006e 038C     		ldrh	r3, [r0, #32]	@, TIMx_6(D)->CCER
 2576              	.LBE55:
 2577              	.LBE54:
1902:cmsis/device/stm32f4xx_tim.c ****     TI1_Config(TIMx, TIM_ICInitStruct->TIM_ICPolarity,
 2578              		.loc 1 1902 0
 2579 0070 4E88     		ldrh	r6, [r1, #2]	@ D.7135, TIM_ICInitStruct_1(D)->TIM_ICPolarity
 2580 0072 8D88     		ldrh	r5, [r1, #4]	@ D.7136, TIM_ICInitStruct_1(D)->TIM_ICSelection
 2581 0074 0F89     		ldrh	r7, [r1, #8]	@ D.7137, TIM_ICInitStruct_1(D)->TIM_ICFilter
 2582              	.LVL310:
1906:cmsis/device/stm32f4xx_tim.c ****     TIM_SetIC1Prescaler(TIMx, TIM_ICInitStruct->TIM_ICPrescaler);
 2583              		.loc 1 1906 0
 2584 0076 CC88     		ldrh	r4, [r1, #6]	@ D.7138, TIM_ICInitStruct_1(D)->TIM_ICPrescaler
 2585              	.LBB57:
 2586              	.LBB56:
3197:cmsis/device/stm32f4xx_tim.c ****   TIMx->CCER &= (uint16_t)~TIM_CCER_CC1E;
 2587              		.loc 1 3197 0
 2588 0078 23F00101 		bic	r1, r3, #1	@ D.7592, TIMx_6(D)->CCER,
 2589              	.LVL311:
 2590 007c 0A04     		lsls	r2, r1, #16	@ D.7592, D.7592,
 2591 007e 130C     		lsrs	r3, r2, #16	@ D.7592, D.7592,
 2592 0080 0384     		strh	r3, [r0, #32]	@ movhi	@ D.7592, TIMx_6(D)->CCER
3198:cmsis/device/stm32f4xx_tim.c ****   tmpccmr1 = TIMx->CCMR1;
 2593              		.loc 1 3198 0
 2594 0082 018B     		ldrh	r1, [r0, #24]	@, TIMx_6(D)->CCMR1
 2595              	.LVL312:
3199:cmsis/device/stm32f4xx_tim.c ****   tmpccer = TIMx->CCER;
 2596              		.loc 1 3199 0
 2597 0084 038C     		ldrh	r3, [r0, #32]	@, TIMx_6(D)->CCER
 2598              	.LVL313:
3202:cmsis/device/stm32f4xx_tim.c ****   tmpccmr1 &= ((uint16_t)~TIM_CCMR1_CC1S) & ((uint16_t)~TIM_CCMR1_IC1F);
 2599              		.loc 1 3202 0
 2600 0086 21F0F302 		bic	r2, r1, #243	@ tmp228, TIMx_6(D)->CCMR1,
 2601 008a 1104     		lsls	r1, r2, #16	@ tmp228, tmp228,
 2602              	.LVL314:
 2603 008c 0A0C     		lsrs	r2, r1, #16	@ tmp228, tmp228,
3206:cmsis/device/stm32f4xx_tim.c ****   tmpccer &= (uint16_t)~(TIM_CCER_CC1P | TIM_CCER_CC1NP);
 2604              		.loc 1 3206 0
 2605 008e 23F00A03 		bic	r3, r3, #10	@ tmpccer, TIMx_6(D)->CCER,
 2606              	.LVL315:
3203:cmsis/device/stm32f4xx_tim.c ****   tmpccmr1 |= (uint16_t)(TIM_ICSelection | (uint16_t)(TIM_ICFilter << (uint16_t)4));
 2607              		.loc 1 3203 0
 2608 0092 42EA0711 		orr	r1, r2, r7, lsl #4	@, tmp232, tmp228, D.7137,
3206:cmsis/device/stm32f4xx_tim.c ****   tmpccer &= (uint16_t)~(TIM_CCER_CC1P | TIM_CCER_CC1NP);
 2609              		.loc 1 3206 0
 2610 0096 1B04     		lsls	r3, r3, #16	@ tmpccer, tmpccer,
3203:cmsis/device/stm32f4xx_tim.c ****   tmpccmr1 |= (uint16_t)(TIM_ICSelection | (uint16_t)(TIM_ICFilter << (uint16_t)4));
 2611              		.loc 1 3203 0
ARM GAS  C:\Users\CNous\AppData\Local\Temp\ccZi7tDD.s 			page 109


 2612 0098 8AB2     		uxth	r2, r1	@ D.7590, tmp232
3206:cmsis/device/stm32f4xx_tim.c ****   tmpccer &= (uint16_t)~(TIM_CCER_CC1P | TIM_CCER_CC1NP);
 2613              		.loc 1 3206 0
 2614 009a 1B0C     		lsrs	r3, r3, #16	@ tmpccer, tmpccer,
3207:cmsis/device/stm32f4xx_tim.c ****   tmpccer |= (uint16_t)(TIM_ICPolarity | (uint16_t)TIM_CCER_CC1E);
 2615              		.loc 1 3207 0
 2616 009c 46F00101 		orr	r1, r6, #1	@ tmp235, D.7135,
 2617 00a0 0B43     		orrs	r3, r3, r1	@, tmpccer, tmpccer, tmp235
3203:cmsis/device/stm32f4xx_tim.c ****   tmpccmr1 |= (uint16_t)(TIM_ICSelection | (uint16_t)(TIM_ICFilter << (uint16_t)4));
 2618              		.loc 1 3203 0
 2619 00a2 2A43     		orrs	r2, r2, r5	@, tmpccmr1, D.7590, D.7136
 2620              	.LVL316:
3210:cmsis/device/stm32f4xx_tim.c ****   TIMx->CCMR1 = tmpccmr1;
 2621              		.loc 1 3210 0
 2622 00a4 0283     		strh	r2, [r0, #24]	@ movhi	@ tmpccmr1, TIMx_6(D)->CCMR1
3211:cmsis/device/stm32f4xx_tim.c ****   TIMx->CCER = tmpccer;
 2623              		.loc 1 3211 0
 2624 00a6 0384     		strh	r3, [r0, #32]	@ movhi	@ tmpccer, TIMx_6(D)->CCER
 2625              	.LBE56:
 2626              	.LBE57:
 2627              	.LBB58:
 2628              	.LBB59:
2092:cmsis/device/stm32f4xx_tim.c ****   TIMx->CCMR1 &= (uint16_t)~TIM_CCMR1_IC1PSC;
 2629              		.loc 1 2092 0
 2630 00a8 028B     		ldrh	r2, [r0, #24]	@, TIMx_6(D)->CCMR1
 2631              	.LVL317:
 2632 00aa 22F00C03 		bic	r3, r2, #12	@ D.7598, TIMx_6(D)->CCMR1,
 2633              	.LVL318:
 2634 00ae 1904     		lsls	r1, r3, #16	@ D.7598, D.7598,
 2635 00b0 0A0C     		lsrs	r2, r1, #16	@ D.7598, D.7598,
 2636 00b2 0283     		strh	r2, [r0, #24]	@ movhi	@ D.7598, TIMx_6(D)->CCMR1
2095:cmsis/device/stm32f4xx_tim.c ****   TIMx->CCMR1 |= TIM_ICPSC;
 2637              		.loc 1 2095 0
 2638 00b4 038B     		ldrh	r3, [r0, #24]	@, TIMx_6(D)->CCMR1
 2639 00b6 99B2     		uxth	r1, r3	@ D.7597, TIMx_6(D)->CCMR1
 2640 00b8 2143     		orrs	r1, r1, r4	@, D.7596, D.7597, D.7138
 2641 00ba 0183     		strh	r1, [r0, #24]	@ movhi	@ D.7596,
 2642 00bc D5E7     		b	.L117	@
 2643              	.LVL319:
 2644              	.L123:
 2645              	.LBE59:
 2646              	.LBE58:
 2647              	.LBB60:
 2648              	.LBB61:
3238:cmsis/device/stm32f4xx_tim.c ****   TIMx->CCER &= (uint16_t)~TIM_CCER_CC2E;
 2649              		.loc 1 3238 0
 2650 00be 028C     		ldrh	r2, [r0, #32]	@, TIMx_6(D)->CCER
 2651              	.LBE61:
 2652              	.LBE60:
1912:cmsis/device/stm32f4xx_tim.c ****     TI2_Config(TIMx, TIM_ICInitStruct->TIM_ICPolarity,
 2653              		.loc 1 1912 0
 2654 00c0 4E88     		ldrh	r6, [r1, #2]	@ D.7135, TIM_ICInitStruct_1(D)->TIM_ICPolarity
 2655 00c2 8D88     		ldrh	r5, [r1, #4]	@ D.7136, TIM_ICInitStruct_1(D)->TIM_ICSelection
 2656 00c4 0F89     		ldrh	r7, [r1, #8]	@ D.7137, TIM_ICInitStruct_1(D)->TIM_ICFilter
 2657              	.LVL320:
1916:cmsis/device/stm32f4xx_tim.c ****     TIM_SetIC2Prescaler(TIMx, TIM_ICInitStruct->TIM_ICPrescaler);
 2658              		.loc 1 1916 0
ARM GAS  C:\Users\CNous\AppData\Local\Temp\ccZi7tDD.s 			page 110


 2659 00c6 CC88     		ldrh	r4, [r1, #6]	@ D.7138, TIM_ICInitStruct_1(D)->TIM_ICPrescaler
 2660              	.LBB63:
 2661              	.LBB62:
3238:cmsis/device/stm32f4xx_tim.c ****   TIMx->CCER &= (uint16_t)~TIM_CCER_CC2E;
 2662              		.loc 1 3238 0
 2663 00c8 22F01001 		bic	r1, r2, #16	@ D.7610, TIMx_6(D)->CCER,
 2664              	.LVL321:
 2665 00cc 0B04     		lsls	r3, r1, #16	@ D.7610, D.7610,
 2666 00ce 1A0C     		lsrs	r2, r3, #16	@ D.7610, D.7610,
 2667 00d0 0284     		strh	r2, [r0, #32]	@ movhi	@ D.7610, TIMx_6(D)->CCER
3239:cmsis/device/stm32f4xx_tim.c ****   tmpccmr1 = TIMx->CCMR1;
 2668              		.loc 1 3239 0
 2669 00d2 018B     		ldrh	r1, [r0, #24]	@, TIMx_6(D)->CCMR1
 2670              	.LVL322:
3240:cmsis/device/stm32f4xx_tim.c ****   tmpccer = TIMx->CCER;
 2671              		.loc 1 3240 0
 2672 00d4 038C     		ldrh	r3, [r0, #32]	@, TIMx_6(D)->CCER
 2673              	.LVL323:
3244:cmsis/device/stm32f4xx_tim.c ****   tmpccmr1 &= ((uint16_t)~TIM_CCMR1_CC2S) & ((uint16_t)~TIM_CCMR1_IC2F);
 2674              		.loc 1 3244 0
 2675 00d6 21F44072 		bic	r2, r1, #768	@ tmpccmr1, TIMx_6(D)->CCMR1,
 2676 00da 1105     		lsls	r1, r2, #20	@ tmpccmr1, tmpccmr1,
 2677              	.LVL324:
3249:cmsis/device/stm32f4xx_tim.c ****   tmpccer &= (uint16_t)~(TIM_CCER_CC2P | TIM_CCER_CC2NP);
 2678              		.loc 1 3249 0
 2679 00dc 23F0A003 		bic	r3, r3, #160	@ tmp265, TIMx_6(D)->CCER,
 2680              	.LVL325:
3244:cmsis/device/stm32f4xx_tim.c ****   tmpccmr1 &= ((uint16_t)~TIM_CCMR1_CC2S) & ((uint16_t)~TIM_CCMR1_IC2F);
 2681              		.loc 1 3244 0
 2682 00e0 0A0D     		lsrs	r2, r1, #20	@ tmpccmr1, tmpccmr1,
 2683              	.LVL326:
3249:cmsis/device/stm32f4xx_tim.c ****   tmpccer &= (uint16_t)~(TIM_CCER_CC2P | TIM_CCER_CC2NP);
 2684              		.loc 1 3249 0
 2685 00e2 1904     		lsls	r1, r3, #16	@ tmp265, tmp265,
3245:cmsis/device/stm32f4xx_tim.c ****   tmpccmr1 |= (uint16_t)(TIM_ICFilter << 12);
 2686              		.loc 1 3245 0
 2687 00e4 42EA0732 		orr	r2, r2, r7, lsl #12	@, tmp260, tmpccmr1, D.7137,
 2688              	.LVL327:
3249:cmsis/device/stm32f4xx_tim.c ****   tmpccer &= (uint16_t)~(TIM_CCER_CC2P | TIM_CCER_CC2NP);
 2689              		.loc 1 3249 0
 2690 00e8 0B0C     		lsrs	r3, r1, #16	@ tmp265, tmp265,
3250:cmsis/device/stm32f4xx_tim.c ****   tmpccer |=  (uint16_t)(tmp | (uint16_t)TIM_CCER_CC2E);
 2691              		.loc 1 3250 0
 2692 00ea 43EA0613 		orr	r3, r3, r6, lsl #4	@, tmp268, tmp265, D.7135,
3245:cmsis/device/stm32f4xx_tim.c ****   tmpccmr1 |= (uint16_t)(TIM_ICFilter << 12);
 2693              		.loc 1 3245 0
 2694 00ee 91B2     		uxth	r1, r2	@ tmpccmr1, tmp260
 2695              	.LVL328:
3246:cmsis/device/stm32f4xx_tim.c ****   tmpccmr1 |= (uint16_t)(TIM_ICSelection << 8);
 2696              		.loc 1 3246 0
 2697 00f0 41EA0522 		orr	r2, r1, r5, lsl #8	@, tmp263, tmpccmr1, D.7136,
 2698              	.LVL329:
3250:cmsis/device/stm32f4xx_tim.c ****   tmpccer |=  (uint16_t)(tmp | (uint16_t)TIM_CCER_CC2E);
 2699              		.loc 1 3250 0
 2700 00f4 99B2     		uxth	r1, r3	@ D.7607, tmp268
 2701              	.LVL330:
 2702 00f6 41F01003 		orr	r3, r1, #16	@ tmpccer, D.7607,
ARM GAS  C:\Users\CNous\AppData\Local\Temp\ccZi7tDD.s 			page 111


3246:cmsis/device/stm32f4xx_tim.c ****   tmpccmr1 |= (uint16_t)(TIM_ICSelection << 8);
 2703              		.loc 1 3246 0
 2704 00fa 92B2     		uxth	r2, r2	@ tmpccmr1, tmp263
 2705              	.LVL331:
3253:cmsis/device/stm32f4xx_tim.c ****   TIMx->CCMR1 = tmpccmr1 ;
 2706              		.loc 1 3253 0
 2707 00fc 0283     		strh	r2, [r0, #24]	@ movhi	@ tmpccmr1, TIMx_6(D)->CCMR1
3254:cmsis/device/stm32f4xx_tim.c ****   TIMx->CCER = tmpccer;
 2708              		.loc 1 3254 0
 2709 00fe 0384     		strh	r3, [r0, #32]	@ movhi	@ tmpccer, TIMx_6(D)->CCER
 2710              	.LBE62:
 2711              	.LBE63:
 2712              	.LBB64:
 2713              	.LBB65:
2117:cmsis/device/stm32f4xx_tim.c ****   TIMx->CCMR1 &= (uint16_t)~TIM_CCMR1_IC2PSC;
 2714              		.loc 1 2117 0
 2715 0100 018B     		ldrh	r1, [r0, #24]	@, TIMx_6(D)->CCMR1
 2716 0102 21F44062 		bic	r2, r1, #3072	@ D.7617, TIMx_6(D)->CCMR1,
 2717              	.LVL332:
 2718 0106 1304     		lsls	r3, r2, #16	@ D.7617, D.7617,
 2719              	.LVL333:
 2720 0108 190C     		lsrs	r1, r3, #16	@ D.7617, D.7617,
 2721 010a 0183     		strh	r1, [r0, #24]	@ movhi	@ D.7617, TIMx_6(D)->CCMR1
2120:cmsis/device/stm32f4xx_tim.c ****   TIMx->CCMR1 |= (uint16_t)(TIM_ICPSC << 8);
 2722              		.loc 1 2120 0
 2723 010c 028B     		ldrh	r2, [r0, #24]	@, TIMx_6(D)->CCMR1
 2724 010e 93B2     		uxth	r3, r2	@ D.7616, TIMx_6(D)->CCMR1
 2725 0110 43EA0421 		orr	r1, r3, r4, lsl #8	@, tmp280, D.7616, D.7138,
 2726 0114 8AB2     		uxth	r2, r1	@ D.7614, tmp280
 2727 0116 0283     		strh	r2, [r0, #24]	@ movhi	@ D.7614,
 2728 0118 A7E7     		b	.L117	@
 2729              	.LVL334:
 2730              	.L124:
 2731              	.LBE65:
 2732              	.LBE64:
 2733              	.LBB66:
 2734              	.LBB48:
3280:cmsis/device/stm32f4xx_tim.c ****   TIMx->CCER &= (uint16_t)~TIM_CCER_CC3E;
 2735              		.loc 1 3280 0
 2736 011a 22F48072 		bic	r2, r2, #256	@ D.7629, TIMx_6(D)->CCER,
 2737 011e 1304     		lsls	r3, r2, #16	@ D.7629, D.7629,
 2738              	.LBE48:
 2739              	.LBE66:
1922:cmsis/device/stm32f4xx_tim.c ****     TI3_Config(TIMx,  TIM_ICInitStruct->TIM_ICPolarity,
 2740              		.loc 1 1922 0
 2741 0120 8D88     		ldrh	r5, [r1, #4]	@ D.7136, TIM_ICInitStruct_1(D)->TIM_ICSelection
 2742 0122 0F89     		ldrh	r7, [r1, #8]	@ D.7137, TIM_ICInitStruct_1(D)->TIM_ICFilter
 2743              	.LVL335:
1926:cmsis/device/stm32f4xx_tim.c ****     TIM_SetIC3Prescaler(TIMx, TIM_ICInitStruct->TIM_ICPrescaler);
 2744              		.loc 1 1926 0
 2745 0124 CC88     		ldrh	r4, [r1, #6]	@ D.7138, TIM_ICInitStruct_1(D)->TIM_ICPrescaler
 2746              	.LBB67:
 2747              	.LBB49:
3280:cmsis/device/stm32f4xx_tim.c ****   TIMx->CCER &= (uint16_t)~TIM_CCER_CC3E;
 2748              		.loc 1 3280 0
 2749 0126 190C     		lsrs	r1, r3, #16	@ D.7629, D.7629,
 2750              	.LVL336:
ARM GAS  C:\Users\CNous\AppData\Local\Temp\ccZi7tDD.s 			page 112


 2751 0128 0184     		strh	r1, [r0, #32]	@ movhi	@ D.7629, TIMx_6(D)->CCER
3281:cmsis/device/stm32f4xx_tim.c ****   tmpccmr2 = TIMx->CCMR2;
 2752              		.loc 1 3281 0
 2753 012a 828B     		ldrh	r2, [r0, #28]	@, TIMx_6(D)->CCMR2
 2754              	.LVL337:
3282:cmsis/device/stm32f4xx_tim.c ****   tmpccer = TIMx->CCER;
 2755              		.loc 1 3282 0
 2756 012c 038C     		ldrh	r3, [r0, #32]	@, TIMx_6(D)->CCER
 2757              	.LVL338:
3286:cmsis/device/stm32f4xx_tim.c ****   tmpccmr2 &= ((uint16_t)~TIM_CCMR1_CC1S) & ((uint16_t)~TIM_CCMR2_IC3F);
 2758              		.loc 1 3286 0
 2759 012e 22F0F301 		bic	r1, r2, #243	@ tmp290, TIMx_6(D)->CCMR2,
3290:cmsis/device/stm32f4xx_tim.c ****   tmpccer &= (uint16_t)~(TIM_CCER_CC3P | TIM_CCER_CC3NP);
 2760              		.loc 1 3290 0
 2761 0132 23F42063 		bic	r3, r3, #2560	@ tmp297, TIMx_6(D)->CCER,
 2762              	.LVL339:
3286:cmsis/device/stm32f4xx_tim.c ****   tmpccmr2 &= ((uint16_t)~TIM_CCMR1_CC1S) & ((uint16_t)~TIM_CCMR2_IC3F);
 2763              		.loc 1 3286 0
 2764 0136 0A04     		lsls	r2, r1, #16	@ tmp290, tmp290,
 2765              	.LVL340:
3290:cmsis/device/stm32f4xx_tim.c ****   tmpccer &= (uint16_t)~(TIM_CCER_CC3P | TIM_CCER_CC3NP);
 2766              		.loc 1 3290 0
 2767 0138 1904     		lsls	r1, r3, #16	@ tmp297, tmp297,
3286:cmsis/device/stm32f4xx_tim.c ****   tmpccmr2 &= ((uint16_t)~TIM_CCMR1_CC1S) & ((uint16_t)~TIM_CCMR2_IC3F);
 2768              		.loc 1 3286 0
 2769 013a 120C     		lsrs	r2, r2, #16	@ tmp290, tmp290,
3290:cmsis/device/stm32f4xx_tim.c ****   tmpccer &= (uint16_t)~(TIM_CCER_CC3P | TIM_CCER_CC3NP);
 2770              		.loc 1 3290 0
 2771 013c 0B0C     		lsrs	r3, r1, #16	@ tmp297, tmp297,
3291:cmsis/device/stm32f4xx_tim.c ****   tmpccer |= (uint16_t)(tmp | (uint16_t)TIM_CCER_CC3E);
 2772              		.loc 1 3291 0
 2773 013e 43EA0623 		orr	r3, r3, r6, lsl #8	@, tmp300, tmp297, D.7135,
3287:cmsis/device/stm32f4xx_tim.c ****   tmpccmr2 |= (uint16_t)(TIM_ICSelection | (uint16_t)(TIM_ICFilter << (uint16_t)4));
 2774              		.loc 1 3287 0
 2775 0142 42EA0711 		orr	r1, r2, r7, lsl #4	@, tmp294, tmp290, D.7137,
 2776 0146 8AB2     		uxth	r2, r1	@ D.7627, tmp294
3291:cmsis/device/stm32f4xx_tim.c ****   tmpccer |= (uint16_t)(tmp | (uint16_t)TIM_CCER_CC3E);
 2777              		.loc 1 3291 0
 2778 0148 99B2     		uxth	r1, r3	@ D.7626, tmp300
 2779 014a 41F48073 		orr	r3, r1, #256	@ tmpccer, D.7626,
3287:cmsis/device/stm32f4xx_tim.c ****   tmpccmr2 |= (uint16_t)(TIM_ICSelection | (uint16_t)(TIM_ICFilter << (uint16_t)4));
 2780              		.loc 1 3287 0
 2781 014e 2A43     		orrs	r2, r2, r5	@, tmpccmr2, D.7627, D.7136
 2782              	.LVL341:
3294:cmsis/device/stm32f4xx_tim.c ****   TIMx->CCMR2 = tmpccmr2;
 2783              		.loc 1 3294 0
 2784 0150 8283     		strh	r2, [r0, #28]	@ movhi	@ tmpccmr2, TIMx_6(D)->CCMR2
3295:cmsis/device/stm32f4xx_tim.c ****   TIMx->CCER = tmpccer;
 2785              		.loc 1 3295 0
 2786 0152 0384     		strh	r3, [r0, #32]	@ movhi	@ tmpccer, TIMx_6(D)->CCER
 2787              	.LBE49:
 2788              	.LBE67:
 2789              	.LBB68:
 2790              	.LBB69:
2141:cmsis/device/stm32f4xx_tim.c ****   TIMx->CCMR2 &= (uint16_t)~TIM_CCMR2_IC3PSC;
 2791              		.loc 1 2141 0
 2792 0154 828B     		ldrh	r2, [r0, #28]	@, TIMx_6(D)->CCMR2
ARM GAS  C:\Users\CNous\AppData\Local\Temp\ccZi7tDD.s 			page 113


 2793              	.LVL342:
 2794 0156 22F00C01 		bic	r1, r2, #12	@ D.7635, TIMx_6(D)->CCMR2,
 2795 015a 0B04     		lsls	r3, r1, #16	@ D.7635, D.7635,
 2796              	.LVL343:
 2797 015c 1A0C     		lsrs	r2, r3, #16	@ D.7635, D.7635,
 2798 015e 8283     		strh	r2, [r0, #28]	@ movhi	@ D.7635, TIMx_6(D)->CCMR2
2144:cmsis/device/stm32f4xx_tim.c ****   TIMx->CCMR2 |= TIM_ICPSC;
 2799              		.loc 1 2144 0
 2800 0160 818B     		ldrh	r1, [r0, #28]	@, TIMx_6(D)->CCMR2
 2801 0162 8BB2     		uxth	r3, r1	@ D.7634, TIMx_6(D)->CCMR2
 2802 0164 2343     		orrs	r3, r3, r4	@, D.7633, D.7634, D.7138
 2803 0166 8383     		strh	r3, [r0, #28]	@ movhi	@ D.7633,
 2804 0168 7FE7     		b	.L117	@
 2805              	.LBE69:
 2806              	.LBE68:
 2807              		.cfi_endproc
 2808              	.LFE160:
 2809              		.size	TIM_ICInit, .-TIM_ICInit
 2810 016a 00BF     		.section	.text.TIM_ICStructInit,"ax",%progbits
 2811              		.align	2
 2812              		.global	TIM_ICStructInit
 2813              		.thumb
 2814              		.thumb_func
 2815              		.type	TIM_ICStructInit, %function
 2816              	TIM_ICStructInit:
 2817              	.LFB161:
1947:cmsis/device/stm32f4xx_tim.c **** {
 2818              		.loc 1 1947 0
 2819              		.cfi_startproc
 2820              		@ args = 0, pretend = 0, frame = 0
 2821              		@ frame_needed = 0, uses_anonymous_args = 0
 2822              		@ link register save eliminated.
 2823              	.LVL344:
1949:cmsis/device/stm32f4xx_tim.c ****   TIM_ICInitStruct->TIM_Channel = TIM_Channel_1;
 2824              		.loc 1 1949 0
 2825 0000 0023     		movs	r3, #0	@ tmp136,
1951:cmsis/device/stm32f4xx_tim.c ****   TIM_ICInitStruct->TIM_ICSelection = TIM_ICSelection_DirectTI;
 2826              		.loc 1 1951 0
 2827 0002 0122     		movs	r2, #1	@ tmp140,
1949:cmsis/device/stm32f4xx_tim.c ****   TIM_ICInitStruct->TIM_Channel = TIM_Channel_1;
 2828              		.loc 1 1949 0
 2829 0004 0380     		strh	r3, [r0, #0]	@ movhi	@ tmp136, TIM_ICInitStruct_1(D)->TIM_Channel
1950:cmsis/device/stm32f4xx_tim.c ****   TIM_ICInitStruct->TIM_ICPolarity = TIM_ICPolarity_Rising;
 2830              		.loc 1 1950 0
 2831 0006 4380     		strh	r3, [r0, #2]	@ movhi	@ tmp136, TIM_ICInitStruct_1(D)->TIM_ICPolarity
1951:cmsis/device/stm32f4xx_tim.c ****   TIM_ICInitStruct->TIM_ICSelection = TIM_ICSelection_DirectTI;
 2832              		.loc 1 1951 0
 2833 0008 8280     		strh	r2, [r0, #4]	@ movhi	@ tmp140, TIM_ICInitStruct_1(D)->TIM_ICSelection
1952:cmsis/device/stm32f4xx_tim.c ****   TIM_ICInitStruct->TIM_ICPrescaler = TIM_ICPSC_DIV1;
 2834              		.loc 1 1952 0
 2835 000a C380     		strh	r3, [r0, #6]	@ movhi	@ tmp136, TIM_ICInitStruct_1(D)->TIM_ICPrescaler
1953:cmsis/device/stm32f4xx_tim.c ****   TIM_ICInitStruct->TIM_ICFilter = 0x00;
 2836              		.loc 1 1953 0
 2837 000c 0381     		strh	r3, [r0, #8]	@ movhi	@ tmp136, TIM_ICInitStruct_1(D)->TIM_ICFilter
 2838 000e 7047     		bx	lr	@
 2839              		.cfi_endproc
 2840              	.LFE161:
ARM GAS  C:\Users\CNous\AppData\Local\Temp\ccZi7tDD.s 			page 114


 2841              		.size	TIM_ICStructInit, .-TIM_ICStructInit
 2842              		.section	.text.TIM_PWMIConfig,"ax",%progbits
 2843              		.align	2
 2844              		.global	TIM_PWMIConfig
 2845              		.thumb
 2846              		.thumb_func
 2847              		.type	TIM_PWMIConfig, %function
 2848              	TIM_PWMIConfig:
 2849              	.LFB162:
1966:cmsis/device/stm32f4xx_tim.c **** {
 2850              		.loc 1 1966 0
 2851              		.cfi_startproc
 2852              		@ args = 0, pretend = 0, frame = 0
 2853              		@ frame_needed = 0, uses_anonymous_args = 0
 2854              		@ link register save eliminated.
 2855              	.LVL345:
 2856 0000 2DE9F001 		push	{r4, r5, r6, r7, r8}	@
 2857              	.LCFI10:
 2858              		.cfi_def_cfa_offset 20
 2859              		.cfi_offset 4, -20
 2860              		.cfi_offset 5, -16
 2861              		.cfi_offset 6, -12
 2862              		.cfi_offset 7, -8
 2863              		.cfi_offset 8, -4
1974:cmsis/device/stm32f4xx_tim.c ****   if (TIM_ICInitStruct->TIM_ICPolarity == TIM_ICPolarity_Rising)
 2864              		.loc 1 1974 0
 2865 0004 4A88     		ldrh	r2, [r1, #2]	@ D.7118, TIM_ICInitStruct_5(D)->TIM_ICPolarity
1983:cmsis/device/stm32f4xx_tim.c ****   if (TIM_ICInitStruct->TIM_ICSelection == TIM_ICSelection_DirectTI)
 2866              		.loc 1 1983 0
 2867 0006 8B88     		ldrh	r3, [r1, #4]	@ D.7122, TIM_ICInitStruct_5(D)->TIM_ICSelection
1991:cmsis/device/stm32f4xx_tim.c ****   if (TIM_ICInitStruct->TIM_Channel == TIM_Channel_1)
 2868              		.loc 1 1991 0
 2869 0008 0C88     		ldrh	r4, [r1, #0]	@ TIM_ICInitStruct_5(D)->TIM_Channel, TIM_ICInitStruct_5(D)->TIM_Channel
1976:cmsis/device/stm32f4xx_tim.c ****     icoppositepolarity = TIM_ICPolarity_Falling;
 2870              		.loc 1 1976 0
 2871 000a 002A     		cmp	r2, #0	@ D.7118,
 2872 000c 0CBF     		ite	eq	@
 2873 000e 0226     		moveq	r6, #2	@, icoppositepolarity,
 2874 0010 0026     		movne	r6, #0	@, icoppositepolarity,
 2875              	.LVL346:
1985:cmsis/device/stm32f4xx_tim.c ****     icoppositeselection = TIM_ICSelection_IndirectTI;
 2876              		.loc 1 1985 0
 2877 0012 012B     		cmp	r3, #1	@ D.7122,
 2878 0014 14BF     		ite	ne	@
 2879 0016 0127     		movne	r7, #1	@, icoppositeselection,
 2880 0018 0227     		moveq	r7, #2	@, icoppositeselection,
 2881              	.LVL347:
1991:cmsis/device/stm32f4xx_tim.c ****   if (TIM_ICInitStruct->TIM_Channel == TIM_Channel_1)
 2882              		.loc 1 1991 0
 2883 001a 002C     		cmp	r4, #0	@ TIM_ICInitStruct_5(D)->TIM_Channel
 2884 001c 54D0     		beq	.L133	@
 2885              	.LBB70:
 2886              	.LBB71:
3238:cmsis/device/stm32f4xx_tim.c ****   TIMx->CCER &= (uint16_t)~TIM_CCER_CC2E;
 2887              		.loc 1 3238 0
 2888 001e 058C     		ldrh	r5, [r0, #32]	@, TIMx_16(D)->CCER
 2889              	.LBE71:
ARM GAS  C:\Users\CNous\AppData\Local\Temp\ccZi7tDD.s 			page 115


 2890              	.LBE70:
2006:cmsis/device/stm32f4xx_tim.c ****     TI2_Config(TIMx, TIM_ICInitStruct->TIM_ICPolarity, TIM_ICInitStruct->TIM_ICSelection,
 2891              		.loc 1 2006 0
 2892 0020 B1F80880 		ldrh	r8, [r1, #8]	@ D.7129, TIM_ICInitStruct_5(D)->TIM_ICFilter
 2893              	.LVL348:
2009:cmsis/device/stm32f4xx_tim.c ****     TIM_SetIC2Prescaler(TIMx, TIM_ICInitStruct->TIM_ICPrescaler);
 2894              		.loc 1 2009 0
 2895 0024 B1F806C0 		ldrh	ip, [r1, #6]	@ D.7130, TIM_ICInitStruct_5(D)->TIM_ICPrescaler
 2896              	.LBB73:
 2897              	.LBB72:
3238:cmsis/device/stm32f4xx_tim.c ****   TIMx->CCER &= (uint16_t)~TIM_CCER_CC2E;
 2898              		.loc 1 3238 0
 2899 0028 25F01001 		bic	r1, r5, #16	@ D.7551, TIMx_16(D)->CCER,
 2900              	.LVL349:
 2901 002c 0C04     		lsls	r4, r1, #16	@ D.7551, D.7551,
 2902 002e 250C     		lsrs	r5, r4, #16	@ D.7551, D.7551,
 2903 0030 0584     		strh	r5, [r0, #32]	@ movhi	@ D.7551, TIMx_16(D)->CCER
3239:cmsis/device/stm32f4xx_tim.c ****   tmpccmr1 = TIMx->CCMR1;
 2904              		.loc 1 3239 0
 2905 0032 048B     		ldrh	r4, [r0, #24]	@, TIMx_16(D)->CCMR1
 2906              	.LVL350:
3240:cmsis/device/stm32f4xx_tim.c ****   tmpccer = TIMx->CCER;
 2907              		.loc 1 3240 0
 2908 0034 018C     		ldrh	r1, [r0, #32]	@, TIMx_16(D)->CCER
 2909              	.LVL351:
3244:cmsis/device/stm32f4xx_tim.c ****   tmpccmr1 &= ((uint16_t)~TIM_CCMR1_CC2S) & ((uint16_t)~TIM_CCMR1_IC2F);
 2910              		.loc 1 3244 0
 2911 0036 24F44074 		bic	r4, r4, #768	@ tmpccmr1, TIMx_16(D)->CCMR1,
 2912              	.LVL352:
 2913 003a 2405     		lsls	r4, r4, #20	@ tmpccmr1, tmpccmr1,
3249:cmsis/device/stm32f4xx_tim.c ****   tmpccer &= (uint16_t)~(TIM_CCER_CC2P | TIM_CCER_CC2NP);
 2914              		.loc 1 3249 0
 2915 003c 21F0A001 		bic	r1, r1, #160	@ tmp291, TIMx_16(D)->CCER,
 2916              	.LVL353:
3244:cmsis/device/stm32f4xx_tim.c ****   tmpccmr1 &= ((uint16_t)~TIM_CCMR1_CC2S) & ((uint16_t)~TIM_CCMR1_IC2F);
 2917              		.loc 1 3244 0
 2918 0040 240D     		lsrs	r4, r4, #20	@ tmpccmr1, tmpccmr1,
 2919              	.LVL354:
3249:cmsis/device/stm32f4xx_tim.c ****   tmpccer &= (uint16_t)~(TIM_CCER_CC2P | TIM_CCER_CC2NP);
 2920              		.loc 1 3249 0
 2921 0042 0904     		lsls	r1, r1, #16	@ tmp291, tmp291,
 2922 0044 090C     		lsrs	r1, r1, #16	@ tmp291, tmp291,
3245:cmsis/device/stm32f4xx_tim.c ****   tmpccmr1 |= (uint16_t)(TIM_ICFilter << 12);
 2923              		.loc 1 3245 0
 2924 0046 44EA0834 		orr	r4, r4, r8, lsl #12	@, tmp286, tmpccmr1, D.7129,
 2925              	.LVL355:
3250:cmsis/device/stm32f4xx_tim.c ****   tmpccer |=  (uint16_t)(tmp | (uint16_t)TIM_CCER_CC2E);
 2926              		.loc 1 3250 0
 2927 004a 41EA0212 		orr	r2, r1, r2, lsl #4	@, tmp294, tmp291, D.7118,
 2928              	.LVL356:
3245:cmsis/device/stm32f4xx_tim.c ****   tmpccmr1 |= (uint16_t)(TIM_ICFilter << 12);
 2929              		.loc 1 3245 0
 2930 004e A4B2     		uxth	r4, r4	@ tmpccmr1, tmp286
 2931              	.LVL357:
3250:cmsis/device/stm32f4xx_tim.c ****   tmpccer |=  (uint16_t)(tmp | (uint16_t)TIM_CCER_CC2E);
 2932              		.loc 1 3250 0
 2933 0050 91B2     		uxth	r1, r2	@ D.7548, tmp294
ARM GAS  C:\Users\CNous\AppData\Local\Temp\ccZi7tDD.s 			page 116


3246:cmsis/device/stm32f4xx_tim.c ****   tmpccmr1 |= (uint16_t)(TIM_ICSelection << 8);
 2934              		.loc 1 3246 0
 2935 0052 44EA0323 		orr	r3, r4, r3, lsl #8	@, tmp289, tmpccmr1, D.7122,
3250:cmsis/device/stm32f4xx_tim.c ****   tmpccer |=  (uint16_t)(tmp | (uint16_t)TIM_CCER_CC2E);
 2936              		.loc 1 3250 0
 2937 0056 41F01002 		orr	r2, r1, #16	@ tmpccer, D.7548,
3246:cmsis/device/stm32f4xx_tim.c ****   tmpccmr1 |= (uint16_t)(TIM_ICSelection << 8);
 2938              		.loc 1 3246 0
 2939 005a 9BB2     		uxth	r3, r3	@ tmpccmr1, tmp289
 2940              	.LVL358:
3253:cmsis/device/stm32f4xx_tim.c ****   TIMx->CCMR1 = tmpccmr1 ;
 2941              		.loc 1 3253 0
 2942 005c 0383     		strh	r3, [r0, #24]	@ movhi	@ tmpccmr1, TIMx_16(D)->CCMR1
3254:cmsis/device/stm32f4xx_tim.c ****   TIMx->CCER = tmpccer;
 2943              		.loc 1 3254 0
 2944 005e 0284     		strh	r2, [r0, #32]	@ movhi	@ tmpccer, TIMx_16(D)->CCER
 2945              	.LBE72:
 2946              	.LBE73:
 2947              	.LBB74:
 2948              	.LBB75:
2117:cmsis/device/stm32f4xx_tim.c ****   TIMx->CCMR1 &= (uint16_t)~TIM_CCMR1_IC2PSC;
 2949              		.loc 1 2117 0
 2950 0060 018B     		ldrh	r1, [r0, #24]	@, TIMx_16(D)->CCMR1
 2951 0062 21F44063 		bic	r3, r1, #3072	@ D.7558, TIMx_16(D)->CCMR1,
 2952              	.LVL359:
 2953 0066 1A04     		lsls	r2, r3, #16	@ D.7558, D.7558,
 2954              	.LVL360:
 2955 0068 110C     		lsrs	r1, r2, #16	@ D.7558, D.7558,
 2956 006a 0183     		strh	r1, [r0, #24]	@ movhi	@ D.7558, TIMx_16(D)->CCMR1
2120:cmsis/device/stm32f4xx_tim.c ****   TIMx->CCMR1 |= (uint16_t)(TIM_ICPSC << 8);
 2957              		.loc 1 2120 0
 2958 006c 038B     		ldrh	r3, [r0, #24]	@, TIMx_16(D)->CCMR1
 2959 006e 9AB2     		uxth	r2, r3	@ D.7557, TIMx_16(D)->CCMR1
 2960 0070 42EA0C21 		orr	r1, r2, ip, lsl #8	@, tmp306, D.7557, D.7130,
 2961 0074 8BB2     		uxth	r3, r1	@ D.7555, tmp306
 2962 0076 0383     		strh	r3, [r0, #24]	@ movhi	@ D.7555, TIMx_16(D)->CCMR1
 2963              	.LVL361:
 2964              	.LBE75:
 2965              	.LBE74:
 2966              	.LBB76:
 2967              	.LBB77:
3197:cmsis/device/stm32f4xx_tim.c ****   TIMx->CCER &= (uint16_t)~TIM_CCER_CC1E;
 2968              		.loc 1 3197 0
 2969 0078 028C     		ldrh	r2, [r0, #32]	@, TIMx_16(D)->CCER
 2970 007a 22F00101 		bic	r1, r2, #1	@ D.7569, TIMx_16(D)->CCER,
 2971 007e 0B04     		lsls	r3, r1, #16	@ D.7569, D.7569,
 2972 0080 1A0C     		lsrs	r2, r3, #16	@ D.7569, D.7569,
 2973 0082 0284     		strh	r2, [r0, #32]	@ movhi	@ D.7569, TIMx_16(D)->CCER
3198:cmsis/device/stm32f4xx_tim.c ****   tmpccmr1 = TIMx->CCMR1;
 2974              		.loc 1 3198 0
 2975 0084 018B     		ldrh	r1, [r0, #24]	@, TIMx_16(D)->CCMR1
 2976              	.LVL362:
3199:cmsis/device/stm32f4xx_tim.c ****   tmpccer = TIMx->CCER;
 2977              		.loc 1 3199 0
 2978 0086 038C     		ldrh	r3, [r0, #32]	@, TIMx_16(D)->CCER
 2979              	.LVL363:
3202:cmsis/device/stm32f4xx_tim.c ****   tmpccmr1 &= ((uint16_t)~TIM_CCMR1_CC1S) & ((uint16_t)~TIM_CCMR1_IC1F);
ARM GAS  C:\Users\CNous\AppData\Local\Temp\ccZi7tDD.s 			page 117


 2980              		.loc 1 3202 0
 2981 0088 21F0F302 		bic	r2, r1, #243	@ tmp317, TIMx_16(D)->CCMR1,
 2982 008c 1104     		lsls	r1, r2, #16	@ tmp317, tmp317,
 2983              	.LVL364:
3206:cmsis/device/stm32f4xx_tim.c ****   tmpccer &= (uint16_t)~(TIM_CCER_CC1P | TIM_CCER_CC1NP);
 2984              		.loc 1 3206 0
 2985 008e 23F00A03 		bic	r3, r3, #10	@ tmp322, TIMx_16(D)->CCER,
 2986              	.LVL365:
3202:cmsis/device/stm32f4xx_tim.c ****   tmpccmr1 &= ((uint16_t)~TIM_CCMR1_CC1S) & ((uint16_t)~TIM_CCMR1_IC1F);
 2987              		.loc 1 3202 0
 2988 0092 0A0C     		lsrs	r2, r1, #16	@ tmp317, tmp317,
3206:cmsis/device/stm32f4xx_tim.c ****   tmpccer &= (uint16_t)~(TIM_CCER_CC1P | TIM_CCER_CC1NP);
 2989              		.loc 1 3206 0
 2990 0094 1904     		lsls	r1, r3, #16	@ tmp322, tmp322,
 2991 0096 0B0C     		lsrs	r3, r1, #16	@ tmp322, tmp322,
3203:cmsis/device/stm32f4xx_tim.c ****   tmpccmr1 |= (uint16_t)(TIM_ICSelection | (uint16_t)(TIM_ICFilter << (uint16_t)4));
 2992              		.loc 1 3203 0
 2993 0098 42EA0812 		orr	r2, r2, r8, lsl #4	@, tmp320, tmp317, D.7129,
 2994 009c 91B2     		uxth	r1, r2	@ D.7567, tmp320
3207:cmsis/device/stm32f4xx_tim.c ****   tmpccer |= (uint16_t)(TIM_ICPolarity | (uint16_t)TIM_CCER_CC1E);
 2995              		.loc 1 3207 0
 2996 009e 43F00102 		orr	r2, r3, #1	@ D.7566, tmp322,
3203:cmsis/device/stm32f4xx_tim.c ****   tmpccmr1 |= (uint16_t)(TIM_ICSelection | (uint16_t)(TIM_ICFilter << (uint16_t)4));
 2997              		.loc 1 3203 0
 2998 00a2 0F43     		orrs	r7, r7, r1	@, tmpccmr1, icoppositeselection, D.7567
 2999              	.LVL366:
3207:cmsis/device/stm32f4xx_tim.c ****   tmpccer |= (uint16_t)(TIM_ICPolarity | (uint16_t)TIM_CCER_CC1E);
 3000              		.loc 1 3207 0
 3001 00a4 1643     		orrs	r6, r6, r2	@, tmpccer, icoppositepolarity, D.7566
 3002              	.LVL367:
3210:cmsis/device/stm32f4xx_tim.c ****   TIMx->CCMR1 = tmpccmr1;
 3003              		.loc 1 3210 0
 3004 00a6 0783     		strh	r7, [r0, #24]	@ movhi	@ tmpccmr1, TIMx_16(D)->CCMR1
3211:cmsis/device/stm32f4xx_tim.c ****   TIMx->CCER = tmpccer;
 3005              		.loc 1 3211 0
 3006 00a8 0684     		strh	r6, [r0, #32]	@ movhi	@ tmpccer, TIMx_16(D)->CCER
 3007              	.LVL368:
 3008              	.LBE77:
 3009              	.LBE76:
 3010              	.LBB78:
 3011              	.LBB79:
2092:cmsis/device/stm32f4xx_tim.c ****   TIMx->CCMR1 &= (uint16_t)~TIM_CCMR1_IC1PSC;
 3012              		.loc 1 2092 0
 3013 00aa 038B     		ldrh	r3, [r0, #24]	@, TIMx_16(D)->CCMR1
 3014 00ac 23F00C01 		bic	r1, r3, #12	@ D.7575, TIMx_16(D)->CCMR1,
 3015 00b0 0A04     		lsls	r2, r1, #16	@ D.7575, D.7575,
 3016 00b2 130C     		lsrs	r3, r2, #16	@ D.7575, D.7575,
 3017 00b4 0383     		strh	r3, [r0, #24]	@ movhi	@ D.7575, TIMx_16(D)->CCMR1
2095:cmsis/device/stm32f4xx_tim.c ****   TIMx->CCMR1 |= TIM_ICPSC;
 3018              		.loc 1 2095 0
 3019 00b6 018B     		ldrh	r1, [r0, #24]	@, TIMx_16(D)->CCMR1
 3020 00b8 8AB2     		uxth	r2, r1	@ D.7574, TIMx_16(D)->CCMR1
 3021 00ba 42EA0C0C 		orr	ip, r2, ip	@ D.7573, D.7574, D.7130
 3022 00be A0F818C0 		strh	ip, [r0, #24]	@ movhi	@ D.7573, TIMx_16(D)->CCMR1
 3023              	.LVL369:
 3024              	.L126:
 3025              	.LBE79:
ARM GAS  C:\Users\CNous\AppData\Local\Temp\ccZi7tDD.s 			page 118


 3026              	.LBE78:
2015:cmsis/device/stm32f4xx_tim.c **** }
 3027              		.loc 1 2015 0
 3028 00c2 BDE8F001 		pop	{r4, r5, r6, r7, r8}
 3029 00c6 7047     		bx	lr
 3030              	.LVL370:
 3031              	.L133:
 3032              	.LBB80:
 3033              	.LBB81:
3197:cmsis/device/stm32f4xx_tim.c ****   TIMx->CCER &= (uint16_t)~TIM_CCER_CC1E;
 3034              		.loc 1 3197 0
 3035 00c8 048C     		ldrh	r4, [r0, #32]	@, TIMx_16(D)->CCER
 3036              	.LBE81:
 3037              	.LBE80:
1994:cmsis/device/stm32f4xx_tim.c ****     TI1_Config(TIMx, TIM_ICInitStruct->TIM_ICPolarity, TIM_ICInitStruct->TIM_ICSelection,
 3038              		.loc 1 1994 0
 3039 00ca B1F808C0 		ldrh	ip, [r1, #8]	@ D.7129, TIM_ICInitStruct_5(D)->TIM_ICFilter
 3040              	.LVL371:
1997:cmsis/device/stm32f4xx_tim.c ****     TIM_SetIC1Prescaler(TIMx, TIM_ICInitStruct->TIM_ICPrescaler);
 3041              		.loc 1 1997 0
 3042 00ce CD88     		ldrh	r5, [r1, #6]	@ D.7130, TIM_ICInitStruct_5(D)->TIM_ICPrescaler
 3043              	.LBB83:
 3044              	.LBB82:
3197:cmsis/device/stm32f4xx_tim.c ****   TIMx->CCER &= (uint16_t)~TIM_CCER_CC1E;
 3045              		.loc 1 3197 0
 3046 00d0 24F00101 		bic	r1, r4, #1	@ D.7514, TIMx_16(D)->CCER,
 3047              	.LVL372:
 3048 00d4 0C04     		lsls	r4, r1, #16	@ D.7514, D.7514,
 3049 00d6 210C     		lsrs	r1, r4, #16	@ D.7514, D.7514,
 3050 00d8 0184     		strh	r1, [r0, #32]	@ movhi	@ D.7514, TIMx_16(D)->CCER
3198:cmsis/device/stm32f4xx_tim.c ****   tmpccmr1 = TIMx->CCMR1;
 3051              		.loc 1 3198 0
 3052 00da 018B     		ldrh	r1, [r0, #24]	@, TIMx_16(D)->CCMR1
 3053              	.LVL373:
3199:cmsis/device/stm32f4xx_tim.c ****   tmpccer = TIMx->CCER;
 3054              		.loc 1 3199 0
 3055 00dc 048C     		ldrh	r4, [r0, #32]	@, TIMx_16(D)->CCER
 3056              	.LVL374:
3202:cmsis/device/stm32f4xx_tim.c ****   tmpccmr1 &= ((uint16_t)~TIM_CCMR1_CC1S) & ((uint16_t)~TIM_CCMR1_IC1F);
 3057              		.loc 1 3202 0
 3058 00de 21F0F301 		bic	r1, r1, #243	@ tmp220, TIMx_16(D)->CCMR1,
 3059              	.LVL375:
 3060 00e2 0904     		lsls	r1, r1, #16	@ tmp220, tmp220,
 3061 00e4 090C     		lsrs	r1, r1, #16	@ tmp220, tmp220,
3206:cmsis/device/stm32f4xx_tim.c ****   tmpccer &= (uint16_t)~(TIM_CCER_CC1P | TIM_CCER_CC1NP);
 3062              		.loc 1 3206 0
 3063 00e6 24F00A04 		bic	r4, r4, #10	@ tmpccer, TIMx_16(D)->CCER,
 3064              	.LVL376:
3203:cmsis/device/stm32f4xx_tim.c ****   tmpccmr1 |= (uint16_t)(TIM_ICSelection | (uint16_t)(TIM_ICFilter << (uint16_t)4));
 3065              		.loc 1 3203 0
 3066 00ea 41EA0C11 		orr	r1, r1, ip, lsl #4	@, tmp224, tmp220, D.7129,
3206:cmsis/device/stm32f4xx_tim.c ****   tmpccer &= (uint16_t)~(TIM_CCER_CC1P | TIM_CCER_CC1NP);
 3067              		.loc 1 3206 0
 3068 00ee 2404     		lsls	r4, r4, #16	@ tmpccer, tmpccer,
3203:cmsis/device/stm32f4xx_tim.c ****   tmpccmr1 |= (uint16_t)(TIM_ICSelection | (uint16_t)(TIM_ICFilter << (uint16_t)4));
 3069              		.loc 1 3203 0
 3070 00f0 89B2     		uxth	r1, r1	@ D.7512, tmp224
ARM GAS  C:\Users\CNous\AppData\Local\Temp\ccZi7tDD.s 			page 119


3207:cmsis/device/stm32f4xx_tim.c ****   tmpccer |= (uint16_t)(TIM_ICPolarity | (uint16_t)TIM_CCER_CC1E);
 3071              		.loc 1 3207 0
 3072 00f2 42F00102 		orr	r2, r2, #1	@ tmp227, D.7118,
 3073              	.LVL377:
3206:cmsis/device/stm32f4xx_tim.c ****   tmpccer &= (uint16_t)~(TIM_CCER_CC1P | TIM_CCER_CC1NP);
 3074              		.loc 1 3206 0
 3075 00f6 240C     		lsrs	r4, r4, #16	@ tmpccer, tmpccer,
3203:cmsis/device/stm32f4xx_tim.c ****   tmpccmr1 |= (uint16_t)(TIM_ICSelection | (uint16_t)(TIM_ICFilter << (uint16_t)4));
 3076              		.loc 1 3203 0
 3077 00f8 0B43     		orrs	r3, r3, r1	@, tmpccmr1, D.7122, D.7512
 3078              	.LVL378:
3207:cmsis/device/stm32f4xx_tim.c ****   tmpccer |= (uint16_t)(TIM_ICPolarity | (uint16_t)TIM_CCER_CC1E);
 3079              		.loc 1 3207 0
 3080 00fa 1443     		orrs	r4, r4, r2	@, tmpccer, tmpccer, tmp227
 3081              	.LVL379:
3210:cmsis/device/stm32f4xx_tim.c ****   TIMx->CCMR1 = tmpccmr1;
 3082              		.loc 1 3210 0
 3083 00fc 0383     		strh	r3, [r0, #24]	@ movhi	@ tmpccmr1, TIMx_16(D)->CCMR1
3211:cmsis/device/stm32f4xx_tim.c ****   TIMx->CCER = tmpccer;
 3084              		.loc 1 3211 0
 3085 00fe 0484     		strh	r4, [r0, #32]	@ movhi	@ tmpccer, TIMx_16(D)->CCER
 3086              	.LBE82:
 3087              	.LBE83:
 3088              	.LBB84:
 3089              	.LBB85:
2092:cmsis/device/stm32f4xx_tim.c ****   TIMx->CCMR1 &= (uint16_t)~TIM_CCMR1_IC1PSC;
 3090              		.loc 1 2092 0
 3091 0100 018B     		ldrh	r1, [r0, #24]	@, TIMx_16(D)->CCMR1
 3092 0102 21F00C02 		bic	r2, r1, #12	@ D.7520, TIMx_16(D)->CCMR1,
 3093 0106 1304     		lsls	r3, r2, #16	@ D.7520, D.7520,
 3094              	.LVL380:
 3095 0108 190C     		lsrs	r1, r3, #16	@ D.7520, D.7520,
 3096 010a 0183     		strh	r1, [r0, #24]	@ movhi	@ D.7520, TIMx_16(D)->CCMR1
2095:cmsis/device/stm32f4xx_tim.c ****   TIMx->CCMR1 |= TIM_ICPSC;
 3097              		.loc 1 2095 0
 3098 010c 028B     		ldrh	r2, [r0, #24]	@, TIMx_16(D)->CCMR1
 3099 010e 93B2     		uxth	r3, r2	@ D.7519, TIMx_16(D)->CCMR1
 3100 0110 2B43     		orrs	r3, r3, r5	@, D.7518, D.7519, D.7130
 3101 0112 0383     		strh	r3, [r0, #24]	@ movhi	@ D.7518, TIMx_16(D)->CCMR1
 3102              	.LVL381:
 3103              	.LBE85:
 3104              	.LBE84:
 3105              	.LBB86:
 3106              	.LBB87:
3238:cmsis/device/stm32f4xx_tim.c ****   TIMx->CCER &= (uint16_t)~TIM_CCER_CC2E;
 3107              		.loc 1 3238 0
 3108 0114 018C     		ldrh	r1, [r0, #32]	@, TIMx_16(D)->CCER
 3109 0116 21F01002 		bic	r2, r1, #16	@ D.7532, TIMx_16(D)->CCER,
 3110 011a 1304     		lsls	r3, r2, #16	@ D.7532, D.7532,
 3111 011c 190C     		lsrs	r1, r3, #16	@ D.7532, D.7532,
 3112 011e 0184     		strh	r1, [r0, #32]	@ movhi	@ D.7532, TIMx_16(D)->CCER
3239:cmsis/device/stm32f4xx_tim.c ****   tmpccmr1 = TIMx->CCMR1;
 3113              		.loc 1 3239 0
 3114 0120 028B     		ldrh	r2, [r0, #24]	@, TIMx_16(D)->CCMR1
 3115              	.LVL382:
3240:cmsis/device/stm32f4xx_tim.c ****   tmpccer = TIMx->CCER;
 3116              		.loc 1 3240 0
ARM GAS  C:\Users\CNous\AppData\Local\Temp\ccZi7tDD.s 			page 120


 3117 0122 038C     		ldrh	r3, [r0, #32]	@, TIMx_16(D)->CCER
 3118              	.LVL383:
3244:cmsis/device/stm32f4xx_tim.c ****   tmpccmr1 &= ((uint16_t)~TIM_CCMR1_CC2S) & ((uint16_t)~TIM_CCMR1_IC2F);
 3119              		.loc 1 3244 0
 3120 0124 22F44071 		bic	r1, r2, #768	@ tmpccmr1, TIMx_16(D)->CCMR1,
 3121 0128 0A05     		lsls	r2, r1, #20	@ tmpccmr1, tmpccmr1,
 3122              	.LVL384:
3249:cmsis/device/stm32f4xx_tim.c ****   tmpccer &= (uint16_t)~(TIM_CCER_CC2P | TIM_CCER_CC2NP);
 3123              		.loc 1 3249 0
 3124 012a 23F0A003 		bic	r3, r3, #160	@ tmp256, TIMx_16(D)->CCER,
 3125              	.LVL385:
3244:cmsis/device/stm32f4xx_tim.c ****   tmpccmr1 &= ((uint16_t)~TIM_CCMR1_CC2S) & ((uint16_t)~TIM_CCMR1_IC2F);
 3126              		.loc 1 3244 0
 3127 012e 110D     		lsrs	r1, r2, #20	@ tmpccmr1, tmpccmr1,
 3128              	.LVL386:
3249:cmsis/device/stm32f4xx_tim.c ****   tmpccer &= (uint16_t)~(TIM_CCER_CC2P | TIM_CCER_CC2NP);
 3129              		.loc 1 3249 0
 3130 0130 1B04     		lsls	r3, r3, #16	@ tmp256, tmp256,
3245:cmsis/device/stm32f4xx_tim.c ****   tmpccmr1 |= (uint16_t)(TIM_ICFilter << 12);
 3131              		.loc 1 3245 0
 3132 0132 41EA0C32 		orr	r2, r1, ip, lsl #12	@, tmp252, tmpccmr1, D.7129,
3249:cmsis/device/stm32f4xx_tim.c ****   tmpccer &= (uint16_t)~(TIM_CCER_CC2P | TIM_CCER_CC2NP);
 3133              		.loc 1 3249 0
 3134 0136 190C     		lsrs	r1, r3, #16	@ tmp256, tmp256,
 3135              	.LVL387:
3250:cmsis/device/stm32f4xx_tim.c ****   tmpccer |=  (uint16_t)(tmp | (uint16_t)TIM_CCER_CC2E);
 3136              		.loc 1 3250 0
 3137 0138 41F01003 		orr	r3, r1, #16	@ D.7529, tmp256,
3245:cmsis/device/stm32f4xx_tim.c ****   tmpccmr1 |= (uint16_t)(TIM_ICFilter << 12);
 3138              		.loc 1 3245 0
 3139 013c 92B2     		uxth	r2, r2	@ tmpccmr1, tmp252
 3140              	.LVL388:
3246:cmsis/device/stm32f4xx_tim.c ****   tmpccmr1 |= (uint16_t)(TIM_ICSelection << 8);
 3141              		.loc 1 3246 0
 3142 013e 42EA0727 		orr	r7, r2, r7, lsl #8	@, tmpccmr1, tmpccmr1, icoppositeselection,
 3143              	.LVL389:
3250:cmsis/device/stm32f4xx_tim.c ****   tmpccer |=  (uint16_t)(tmp | (uint16_t)TIM_CCER_CC2E);
 3144              		.loc 1 3250 0
 3145 0142 43EA0616 		orr	r6, r3, r6, lsl #4	@, tmpccer, D.7529, icoppositepolarity,
 3146              	.LVL390:
3253:cmsis/device/stm32f4xx_tim.c ****   TIMx->CCMR1 = tmpccmr1 ;
 3147              		.loc 1 3253 0
 3148 0146 0783     		strh	r7, [r0, #24]	@ movhi	@ tmpccmr1, TIMx_16(D)->CCMR1
3254:cmsis/device/stm32f4xx_tim.c ****   TIMx->CCER = tmpccer;
 3149              		.loc 1 3254 0
 3150 0148 0684     		strh	r6, [r0, #32]	@ movhi	@ tmpccer, TIMx_16(D)->CCER
 3151              	.LVL391:
 3152              	.LBE87:
 3153              	.LBE86:
 3154              	.LBB88:
 3155              	.LBB89:
2117:cmsis/device/stm32f4xx_tim.c ****   TIMx->CCMR1 &= (uint16_t)~TIM_CCMR1_IC2PSC;
 3156              		.loc 1 2117 0
 3157 014a 018B     		ldrh	r1, [r0, #24]	@, TIMx_16(D)->CCMR1
 3158 014c 21F44062 		bic	r2, r1, #3072	@ D.7539, TIMx_16(D)->CCMR1,
 3159 0150 1304     		lsls	r3, r2, #16	@ D.7539, D.7539,
 3160 0152 190C     		lsrs	r1, r3, #16	@ D.7539, D.7539,
ARM GAS  C:\Users\CNous\AppData\Local\Temp\ccZi7tDD.s 			page 121


 3161 0154 0183     		strh	r1, [r0, #24]	@ movhi	@ D.7539, TIMx_16(D)->CCMR1
2120:cmsis/device/stm32f4xx_tim.c ****   TIMx->CCMR1 |= (uint16_t)(TIM_ICPSC << 8);
 3162              		.loc 1 2120 0
 3163 0156 028B     		ldrh	r2, [r0, #24]	@, TIMx_16(D)->CCMR1
 3164 0158 93B2     		uxth	r3, r2	@ D.7538, TIMx_16(D)->CCMR1
 3165 015a 43EA0525 		orr	r5, r3, r5, lsl #8	@, tmp272, D.7538, D.7130,
 3166 015e ADB2     		uxth	r5, r5	@ D.7536, tmp272
 3167 0160 0583     		strh	r5, [r0, #24]	@ movhi	@ D.7536, TIMx_16(D)->CCMR1
 3168 0162 AEE7     		b	.L126	@
 3169              	.LBE89:
 3170              	.LBE88:
 3171              		.cfi_endproc
 3172              	.LFE162:
 3173              		.size	TIM_PWMIConfig, .-TIM_PWMIConfig
 3174              		.section	.text.TIM_GetCapture1,"ax",%progbits
 3175              		.align	2
 3176              		.global	TIM_GetCapture1
 3177              		.thumb
 3178              		.thumb_func
 3179              		.type	TIM_GetCapture1, %function
 3180              	TIM_GetCapture1:
 3181              	.LFB163:
2023:cmsis/device/stm32f4xx_tim.c **** {
 3182              		.loc 1 2023 0
 3183              		.cfi_startproc
 3184              		@ args = 0, pretend = 0, frame = 0
 3185              		@ frame_needed = 0, uses_anonymous_args = 0
 3186              		@ link register save eliminated.
 3187              	.LVL392:
2028:cmsis/device/stm32f4xx_tim.c ****   return TIMx->CCR1;
 3188              		.loc 1 2028 0
 3189 0000 406B     		ldr	r0, [r0, #52]	@ D.7116, TIMx_1(D)->CCR1
 3190              	.LVL393:
2029:cmsis/device/stm32f4xx_tim.c **** }
 3191              		.loc 1 2029 0
 3192 0002 7047     		bx	lr	@
 3193              		.cfi_endproc
 3194              	.LFE163:
 3195              		.size	TIM_GetCapture1, .-TIM_GetCapture1
 3196              		.section	.text.TIM_GetCapture2,"ax",%progbits
 3197              		.align	2
 3198              		.global	TIM_GetCapture2
 3199              		.thumb
 3200              		.thumb_func
 3201              		.type	TIM_GetCapture2, %function
 3202              	TIM_GetCapture2:
 3203              	.LFB164:
2038:cmsis/device/stm32f4xx_tim.c **** {
 3204              		.loc 1 2038 0
 3205              		.cfi_startproc
 3206              		@ args = 0, pretend = 0, frame = 0
 3207              		@ frame_needed = 0, uses_anonymous_args = 0
 3208              		@ link register save eliminated.
 3209              	.LVL394:
2043:cmsis/device/stm32f4xx_tim.c ****   return TIMx->CCR2;
 3210              		.loc 1 2043 0
 3211 0000 806B     		ldr	r0, [r0, #56]	@ D.7114, TIMx_1(D)->CCR2
ARM GAS  C:\Users\CNous\AppData\Local\Temp\ccZi7tDD.s 			page 122


 3212              	.LVL395:
2044:cmsis/device/stm32f4xx_tim.c **** }
 3213              		.loc 1 2044 0
 3214 0002 7047     		bx	lr	@
 3215              		.cfi_endproc
 3216              	.LFE164:
 3217              		.size	TIM_GetCapture2, .-TIM_GetCapture2
 3218              		.section	.text.TIM_GetCapture3,"ax",%progbits
 3219              		.align	2
 3220              		.global	TIM_GetCapture3
 3221              		.thumb
 3222              		.thumb_func
 3223              		.type	TIM_GetCapture3, %function
 3224              	TIM_GetCapture3:
 3225              	.LFB165:
2052:cmsis/device/stm32f4xx_tim.c **** {
 3226              		.loc 1 2052 0
 3227              		.cfi_startproc
 3228              		@ args = 0, pretend = 0, frame = 0
 3229              		@ frame_needed = 0, uses_anonymous_args = 0
 3230              		@ link register save eliminated.
 3231              	.LVL396:
2057:cmsis/device/stm32f4xx_tim.c ****   return TIMx->CCR3;
 3232              		.loc 1 2057 0
 3233 0000 C06B     		ldr	r0, [r0, #60]	@ D.7112, TIMx_1(D)->CCR3
 3234              	.LVL397:
2058:cmsis/device/stm32f4xx_tim.c **** }
 3235              		.loc 1 2058 0
 3236 0002 7047     		bx	lr	@
 3237              		.cfi_endproc
 3238              	.LFE165:
 3239              		.size	TIM_GetCapture3, .-TIM_GetCapture3
 3240              		.section	.text.TIM_GetCapture4,"ax",%progbits
 3241              		.align	2
 3242              		.global	TIM_GetCapture4
 3243              		.thumb
 3244              		.thumb_func
 3245              		.type	TIM_GetCapture4, %function
 3246              	TIM_GetCapture4:
 3247              	.LFB166:
2066:cmsis/device/stm32f4xx_tim.c **** {
 3248              		.loc 1 2066 0
 3249              		.cfi_startproc
 3250              		@ args = 0, pretend = 0, frame = 0
 3251              		@ frame_needed = 0, uses_anonymous_args = 0
 3252              		@ link register save eliminated.
 3253              	.LVL398:
2071:cmsis/device/stm32f4xx_tim.c ****   return TIMx->CCR4;
 3254              		.loc 1 2071 0
 3255 0000 006C     		ldr	r0, [r0, #64]	@ D.7110, TIMx_1(D)->CCR4
 3256              	.LVL399:
2072:cmsis/device/stm32f4xx_tim.c **** }
 3257              		.loc 1 2072 0
 3258 0002 7047     		bx	lr	@
 3259              		.cfi_endproc
 3260              	.LFE166:
 3261              		.size	TIM_GetCapture4, .-TIM_GetCapture4
ARM GAS  C:\Users\CNous\AppData\Local\Temp\ccZi7tDD.s 			page 123


 3262              		.section	.text.TIM_SetIC1Prescaler,"ax",%progbits
 3263              		.align	2
 3264              		.global	TIM_SetIC1Prescaler
 3265              		.thumb
 3266              		.thumb_func
 3267              		.type	TIM_SetIC1Prescaler, %function
 3268              	TIM_SetIC1Prescaler:
 3269              	.LFB167:
2086:cmsis/device/stm32f4xx_tim.c **** {
 3270              		.loc 1 2086 0
 3271              		.cfi_startproc
 3272              		@ args = 0, pretend = 0, frame = 0
 3273              		@ frame_needed = 0, uses_anonymous_args = 0
 3274              		@ link register save eliminated.
 3275              	.LVL400:
2092:cmsis/device/stm32f4xx_tim.c ****   TIMx->CCMR1 &= (uint16_t)~TIM_CCMR1_IC1PSC;
 3276              		.loc 1 2092 0
 3277 0000 038B     		ldrh	r3, [r0, #24]	@, TIMx_1(D)->CCMR1
 3278 0002 23F00C02 		bic	r2, r3, #12	@ D.7107, TIMx_1(D)->CCMR1,
 3279 0006 1304     		lsls	r3, r2, #16	@ D.7107, D.7107,
 3280 0008 1A0C     		lsrs	r2, r3, #16	@ D.7107, D.7107,
 3281 000a 0283     		strh	r2, [r0, #24]	@ movhi	@ D.7107, TIMx_1(D)->CCMR1
2095:cmsis/device/stm32f4xx_tim.c ****   TIMx->CCMR1 |= TIM_ICPSC;
 3282              		.loc 1 2095 0
 3283 000c 038B     		ldrh	r3, [r0, #24]	@, TIMx_1(D)->CCMR1
 3284 000e 9AB2     		uxth	r2, r3	@ D.7108, TIMx_1(D)->CCMR1
 3285 0010 1143     		orrs	r1, r1, r2	@, D.7109, TIM_ICPSC, D.7108
 3286              	.LVL401:
 3287 0012 0183     		strh	r1, [r0, #24]	@ movhi	@ D.7109, TIMx_1(D)->CCMR1
 3288 0014 7047     		bx	lr	@
 3289              		.cfi_endproc
 3290              	.LFE167:
 3291              		.size	TIM_SetIC1Prescaler, .-TIM_SetIC1Prescaler
 3292 0016 00BF     		.section	.text.TIM_SetIC2Prescaler,"ax",%progbits
 3293              		.align	2
 3294              		.global	TIM_SetIC2Prescaler
 3295              		.thumb
 3296              		.thumb_func
 3297              		.type	TIM_SetIC2Prescaler, %function
 3298              	TIM_SetIC2Prescaler:
 3299              	.LFB168:
2111:cmsis/device/stm32f4xx_tim.c **** {
 3300              		.loc 1 2111 0
 3301              		.cfi_startproc
 3302              		@ args = 0, pretend = 0, frame = 0
 3303              		@ frame_needed = 0, uses_anonymous_args = 0
 3304              		@ link register save eliminated.
 3305              	.LVL402:
2117:cmsis/device/stm32f4xx_tim.c ****   TIMx->CCMR1 &= (uint16_t)~TIM_CCMR1_IC2PSC;
 3306              		.loc 1 2117 0
 3307 0000 038B     		ldrh	r3, [r0, #24]	@, TIMx_1(D)->CCMR1
 3308 0002 23F44062 		bic	r2, r3, #3072	@ D.7102, TIMx_1(D)->CCMR1,
 3309 0006 1304     		lsls	r3, r2, #16	@ D.7102, D.7102,
 3310 0008 1A0C     		lsrs	r2, r3, #16	@ D.7102, D.7102,
 3311 000a 0283     		strh	r2, [r0, #24]	@ movhi	@ D.7102, TIMx_1(D)->CCMR1
2120:cmsis/device/stm32f4xx_tim.c ****   TIMx->CCMR1 |= (uint16_t)(TIM_ICPSC << 8);
 3312              		.loc 1 2120 0
ARM GAS  C:\Users\CNous\AppData\Local\Temp\ccZi7tDD.s 			page 124


 3313 000c 038B     		ldrh	r3, [r0, #24]	@, TIMx_1(D)->CCMR1
 3314 000e 9AB2     		uxth	r2, r3	@ D.7103, TIMx_1(D)->CCMR1
 3315 0010 42EA0121 		orr	r1, r2, r1, lsl #8	@, tmp149, D.7103, TIM_ICPSC,
 3316              	.LVL403:
 3317 0014 8BB2     		uxth	r3, r1	@ D.7105, tmp149
 3318 0016 0383     		strh	r3, [r0, #24]	@ movhi	@ D.7105, TIMx_1(D)->CCMR1
 3319 0018 7047     		bx	lr	@
 3320              		.cfi_endproc
 3321              	.LFE168:
 3322              		.size	TIM_SetIC2Prescaler, .-TIM_SetIC2Prescaler
 3323 001a 00BF     		.section	.text.TIM_SetIC3Prescaler,"ax",%progbits
 3324              		.align	2
 3325              		.global	TIM_SetIC3Prescaler
 3326              		.thumb
 3327              		.thumb_func
 3328              		.type	TIM_SetIC3Prescaler, %function
 3329              	TIM_SetIC3Prescaler:
 3330              	.LFB169:
2135:cmsis/device/stm32f4xx_tim.c **** {
 3331              		.loc 1 2135 0
 3332              		.cfi_startproc
 3333              		@ args = 0, pretend = 0, frame = 0
 3334              		@ frame_needed = 0, uses_anonymous_args = 0
 3335              		@ link register save eliminated.
 3336              	.LVL404:
2141:cmsis/device/stm32f4xx_tim.c ****   TIMx->CCMR2 &= (uint16_t)~TIM_CCMR2_IC3PSC;
 3337              		.loc 1 2141 0
 3338 0000 838B     		ldrh	r3, [r0, #28]	@, TIMx_1(D)->CCMR2
 3339 0002 23F00C02 		bic	r2, r3, #12	@ D.7098, TIMx_1(D)->CCMR2,
 3340 0006 1304     		lsls	r3, r2, #16	@ D.7098, D.7098,
 3341 0008 1A0C     		lsrs	r2, r3, #16	@ D.7098, D.7098,
 3342 000a 8283     		strh	r2, [r0, #28]	@ movhi	@ D.7098, TIMx_1(D)->CCMR2
2144:cmsis/device/stm32f4xx_tim.c ****   TIMx->CCMR2 |= TIM_ICPSC;
 3343              		.loc 1 2144 0
 3344 000c 838B     		ldrh	r3, [r0, #28]	@, TIMx_1(D)->CCMR2
 3345 000e 9AB2     		uxth	r2, r3	@ D.7099, TIMx_1(D)->CCMR2
 3346 0010 1143     		orrs	r1, r1, r2	@, D.7100, TIM_ICPSC, D.7099
 3347              	.LVL405:
 3348 0012 8183     		strh	r1, [r0, #28]	@ movhi	@ D.7100, TIMx_1(D)->CCMR2
 3349 0014 7047     		bx	lr	@
 3350              		.cfi_endproc
 3351              	.LFE169:
 3352              		.size	TIM_SetIC3Prescaler, .-TIM_SetIC3Prescaler
 3353 0016 00BF     		.section	.text.TIM_SetIC4Prescaler,"ax",%progbits
 3354              		.align	2
 3355              		.global	TIM_SetIC4Prescaler
 3356              		.thumb
 3357              		.thumb_func
 3358              		.type	TIM_SetIC4Prescaler, %function
 3359              	TIM_SetIC4Prescaler:
 3360              	.LFB170:
2159:cmsis/device/stm32f4xx_tim.c **** {  
 3361              		.loc 1 2159 0
 3362              		.cfi_startproc
 3363              		@ args = 0, pretend = 0, frame = 0
 3364              		@ frame_needed = 0, uses_anonymous_args = 0
 3365              		@ link register save eliminated.
ARM GAS  C:\Users\CNous\AppData\Local\Temp\ccZi7tDD.s 			page 125


 3366              	.LVL406:
2165:cmsis/device/stm32f4xx_tim.c ****   TIMx->CCMR2 &= (uint16_t)~TIM_CCMR2_IC4PSC;
 3367              		.loc 1 2165 0
 3368 0000 838B     		ldrh	r3, [r0, #28]	@, TIMx_1(D)->CCMR2
 3369 0002 23F44062 		bic	r2, r3, #3072	@ D.7093, TIMx_1(D)->CCMR2,
 3370 0006 1304     		lsls	r3, r2, #16	@ D.7093, D.7093,
 3371 0008 1A0C     		lsrs	r2, r3, #16	@ D.7093, D.7093,
 3372 000a 8283     		strh	r2, [r0, #28]	@ movhi	@ D.7093, TIMx_1(D)->CCMR2
2168:cmsis/device/stm32f4xx_tim.c ****   TIMx->CCMR2 |= (uint16_t)(TIM_ICPSC << 8);
 3373              		.loc 1 2168 0
 3374 000c 838B     		ldrh	r3, [r0, #28]	@, TIMx_1(D)->CCMR2
 3375 000e 9AB2     		uxth	r2, r3	@ D.7094, TIMx_1(D)->CCMR2
 3376 0010 42EA0121 		orr	r1, r2, r1, lsl #8	@, tmp149, D.7094, TIM_ICPSC,
 3377              	.LVL407:
 3378 0014 8BB2     		uxth	r3, r1	@ D.7096, tmp149
 3379 0016 8383     		strh	r3, [r0, #28]	@ movhi	@ D.7096, TIMx_1(D)->CCMR2
 3380 0018 7047     		bx	lr	@
 3381              		.cfi_endproc
 3382              	.LFE170:
 3383              		.size	TIM_SetIC4Prescaler, .-TIM_SetIC4Prescaler
 3384 001a 00BF     		.section	.text.TIM_BDTRConfig,"ax",%progbits
 3385              		.align	2
 3386              		.global	TIM_BDTRConfig
 3387              		.thumb
 3388              		.thumb_func
 3389              		.type	TIM_BDTRConfig, %function
 3390              	TIM_BDTRConfig:
 3391              	.LFB171:
2212:cmsis/device/stm32f4xx_tim.c **** {
 3392              		.loc 1 2212 0
 3393              		.cfi_startproc
 3394              		@ args = 0, pretend = 0, frame = 0
 3395              		@ frame_needed = 0, uses_anonymous_args = 0
 3396              		@ link register save eliminated.
 3397              	.LVL408:
2224:cmsis/device/stm32f4xx_tim.c ****   TIMx->BDTR = (uint32_t)TIM_BDTRInitStruct->TIM_OSSRState | TIM_BDTRInitStruct->TIM_OSSIState |
 3398              		.loc 1 2224 0
 3399 0000 0B88     		ldrh	r3, [r1, #0]	@, TIM_BDTRInitStruct_1(D)->TIM_OSSRState
 3400 0002 B1F802C0 		ldrh	ip, [r1, #2]	@, TIM_BDTRInitStruct_1(D)->TIM_OSSIState
 3401 0006 8A89     		ldrh	r2, [r1, #12]	@, TIM_BDTRInitStruct_1(D)->TIM_AutomaticOutput
2212:cmsis/device/stm32f4xx_tim.c **** {
 3402              		.loc 1 2212 0
 3403 0008 F0B4     		push	{r4, r5, r6, r7}	@
 3404              	.LCFI11:
 3405              		.cfi_def_cfa_offset 16
 3406              		.cfi_offset 4, -16
 3407              		.cfi_offset 5, -12
 3408              		.cfi_offset 6, -8
 3409              		.cfi_offset 7, -4
2224:cmsis/device/stm32f4xx_tim.c ****   TIMx->BDTR = (uint32_t)TIM_BDTRInitStruct->TIM_OSSRState | TIM_BDTRInitStruct->TIM_OSSIState |
 3410              		.loc 1 2224 0
 3411 000a 8F88     		ldrh	r7, [r1, #4]	@, TIM_BDTRInitStruct_1(D)->TIM_LOCKLevel
 3412 000c CE88     		ldrh	r6, [r1, #6]	@, TIM_BDTRInitStruct_1(D)->TIM_DeadTime
 3413 000e 0D89     		ldrh	r5, [r1, #8]	@, TIM_BDTRInitStruct_1(D)->TIM_Break
 3414 0010 4C89     		ldrh	r4, [r1, #10]	@, TIM_BDTRInitStruct_1(D)->TIM_BreakPolarity
 3415 0012 4CEA0301 		orr	r1, ip, r3	@ tmp151, TIM_BDTRInitStruct_1(D)->TIM_OSSIState, TIM_BDTRInitStruct_1(D)->TIM_OSSR
 3416              	.LVL409:
ARM GAS  C:\Users\CNous\AppData\Local\Temp\ccZi7tDD.s 			page 126


 3417 0016 3943     		orrs	r1, r1, r7	@, tmp154, tmp151, TIM_BDTRInitStruct_1(D)->TIM_LOCKLevel
 3418 0018 3143     		orrs	r1, r1, r6	@, tmp157, tmp154, TIM_BDTRInitStruct_1(D)->TIM_DeadTime
 3419 001a 2943     		orrs	r1, r1, r5	@, tmp160, tmp157, TIM_BDTRInitStruct_1(D)->TIM_Break
 3420 001c 2143     		orrs	r1, r1, r4	@, tmp163, tmp160, TIM_BDTRInitStruct_1(D)->TIM_BreakPolarity
 3421 001e 1143     		orrs	r1, r1, r2	@, tmp166, tmp163, TIM_BDTRInitStruct_1(D)->TIM_AutomaticOutput
 3422 0020 8BB2     		uxth	r3, r1	@ D.7091, tmp166
 3423 0022 A0F84430 		strh	r3, [r0, #68]	@ movhi	@ D.7091, TIMx_15(D)->BDTR
2228:cmsis/device/stm32f4xx_tim.c **** }
 3424              		.loc 1 2228 0
 3425 0026 F0BC     		pop	{r4, r5, r6, r7}
 3426 0028 7047     		bx	lr
 3427              		.cfi_endproc
 3428              	.LFE171:
 3429              		.size	TIM_BDTRConfig, .-TIM_BDTRConfig
 3430 002a 00BF     		.section	.text.TIM_BDTRStructInit,"ax",%progbits
 3431              		.align	2
 3432              		.global	TIM_BDTRStructInit
 3433              		.thumb
 3434              		.thumb_func
 3435              		.type	TIM_BDTRStructInit, %function
 3436              	TIM_BDTRStructInit:
 3437              	.LFB172:
2237:cmsis/device/stm32f4xx_tim.c **** {
 3438              		.loc 1 2237 0
 3439              		.cfi_startproc
 3440              		@ args = 0, pretend = 0, frame = 0
 3441              		@ frame_needed = 0, uses_anonymous_args = 0
 3442              		@ link register save eliminated.
 3443              	.LVL410:
2239:cmsis/device/stm32f4xx_tim.c ****   TIM_BDTRInitStruct->TIM_OSSRState = TIM_OSSRState_Disable;
 3444              		.loc 1 2239 0
 3445 0000 0023     		movs	r3, #0	@ tmp136,
 3446 0002 0380     		strh	r3, [r0, #0]	@ movhi	@ tmp136, TIM_BDTRInitStruct_1(D)->TIM_OSSRState
2240:cmsis/device/stm32f4xx_tim.c ****   TIM_BDTRInitStruct->TIM_OSSIState = TIM_OSSIState_Disable;
 3447              		.loc 1 2240 0
 3448 0004 4380     		strh	r3, [r0, #2]	@ movhi	@ tmp136, TIM_BDTRInitStruct_1(D)->TIM_OSSIState
2241:cmsis/device/stm32f4xx_tim.c ****   TIM_BDTRInitStruct->TIM_LOCKLevel = TIM_LOCKLevel_OFF;
 3449              		.loc 1 2241 0
 3450 0006 8380     		strh	r3, [r0, #4]	@ movhi	@ tmp136, TIM_BDTRInitStruct_1(D)->TIM_LOCKLevel
2242:cmsis/device/stm32f4xx_tim.c ****   TIM_BDTRInitStruct->TIM_DeadTime = 0x00;
 3451              		.loc 1 2242 0
 3452 0008 C380     		strh	r3, [r0, #6]	@ movhi	@ tmp136, TIM_BDTRInitStruct_1(D)->TIM_DeadTime
2243:cmsis/device/stm32f4xx_tim.c ****   TIM_BDTRInitStruct->TIM_Break = TIM_Break_Disable;
 3453              		.loc 1 2243 0
 3454 000a 0381     		strh	r3, [r0, #8]	@ movhi	@ tmp136, TIM_BDTRInitStruct_1(D)->TIM_Break
2244:cmsis/device/stm32f4xx_tim.c ****   TIM_BDTRInitStruct->TIM_BreakPolarity = TIM_BreakPolarity_Low;
 3455              		.loc 1 2244 0
 3456 000c 4381     		strh	r3, [r0, #10]	@ movhi	@ tmp136, TIM_BDTRInitStruct_1(D)->TIM_BreakPolarity
2245:cmsis/device/stm32f4xx_tim.c ****   TIM_BDTRInitStruct->TIM_AutomaticOutput = TIM_AutomaticOutput_Disable;
 3457              		.loc 1 2245 0
 3458 000e 8381     		strh	r3, [r0, #12]	@ movhi	@ tmp136, TIM_BDTRInitStruct_1(D)->TIM_AutomaticOutput
 3459 0010 7047     		bx	lr	@
 3460              		.cfi_endproc
 3461              	.LFE172:
 3462              		.size	TIM_BDTRStructInit, .-TIM_BDTRStructInit
 3463 0012 00BF     		.section	.text.TIM_CtrlPWMOutputs,"ax",%progbits
 3464              		.align	2
ARM GAS  C:\Users\CNous\AppData\Local\Temp\ccZi7tDD.s 			page 127


 3465              		.global	TIM_CtrlPWMOutputs
 3466              		.thumb
 3467              		.thumb_func
 3468              		.type	TIM_CtrlPWMOutputs, %function
 3469              	TIM_CtrlPWMOutputs:
 3470              	.LFB173:
2256:cmsis/device/stm32f4xx_tim.c **** {
 3471              		.loc 1 2256 0
 3472              		.cfi_startproc
 3473              		@ args = 0, pretend = 0, frame = 0
 3474              		@ frame_needed = 0, uses_anonymous_args = 0
 3475              		@ link register save eliminated.
 3476              	.LVL411:
2264:cmsis/device/stm32f4xx_tim.c ****     TIMx->BDTR |= TIM_BDTR_MOE;
 3477              		.loc 1 2264 0
 3478 0000 B0F84430 		ldrh	r3, [r0, #68]	@,
2261:cmsis/device/stm32f4xx_tim.c ****   if (NewState != DISABLE)
 3479              		.loc 1 2261 0
 3480 0004 21B9     		cbnz	r1, .L147	@ NewState,
2269:cmsis/device/stm32f4xx_tim.c ****     TIMx->BDTR &= (uint16_t)~TIM_BDTR_MOE;
 3481              		.loc 1 2269 0
 3482 0006 5904     		lsls	r1, r3, #17	@ D.7078, TIMx_2(D)->BDTR,
 3483              	.LVL412:
 3484 0008 4A0C     		lsrs	r2, r1, #17	@ D.7078, D.7078,
 3485 000a A0F84420 		strh	r2, [r0, #68]	@ movhi	@ D.7078,
 3486 000e 7047     		bx	lr	@
 3487              	.LVL413:
 3488              	.L147:
2264:cmsis/device/stm32f4xx_tim.c ****     TIMx->BDTR |= TIM_BDTR_MOE;
 3489              		.loc 1 2264 0
 3490 0010 6FEA4343 		mvn	r3, r3, lsl #17	@ tmp143, TIMx_2(D)->BDTR,
 3491 0014 6FEA5341 		mvn	r1, r3, lsr #17	@ tmp142, tmp143,
 3492              	.LVL414:
 3493 0018 8AB2     		uxth	r2, r1	@ D.7075, tmp142
 3494 001a A0F84420 		strh	r2, [r0, #68]	@ movhi	@ D.7075,
 3495 001e 7047     		bx	lr	@
 3496              		.cfi_endproc
 3497              	.LFE173:
 3498              		.size	TIM_CtrlPWMOutputs, .-TIM_CtrlPWMOutputs
 3499              		.section	.text.TIM_SelectCOM,"ax",%progbits
 3500              		.align	2
 3501              		.global	TIM_SelectCOM
 3502              		.thumb
 3503              		.thumb_func
 3504              		.type	TIM_SelectCOM, %function
 3505              	TIM_SelectCOM:
 3506              	.LFB174:
2281:cmsis/device/stm32f4xx_tim.c **** {
 3507              		.loc 1 2281 0
 3508              		.cfi_startproc
 3509              		@ args = 0, pretend = 0, frame = 0
 3510              		@ frame_needed = 0, uses_anonymous_args = 0
 3511              		@ link register save eliminated.
 3512              	.LVL415:
2289:cmsis/device/stm32f4xx_tim.c ****     TIMx->CR2 |= TIM_CR2_CCUS;
 3513              		.loc 1 2289 0
 3514 0000 8388     		ldrh	r3, [r0, #4]	@,
ARM GAS  C:\Users\CNous\AppData\Local\Temp\ccZi7tDD.s 			page 128


2286:cmsis/device/stm32f4xx_tim.c ****   if (NewState != DISABLE)
 3515              		.loc 1 2286 0
 3516 0002 29B9     		cbnz	r1, .L151	@ NewState,
2294:cmsis/device/stm32f4xx_tim.c ****     TIMx->CR2 &= (uint16_t)~TIM_CR2_CCUS;
 3517              		.loc 1 2294 0
 3518 0004 23F00401 		bic	r1, r3, #4	@ D.7071, TIMx_2(D)->CR2,
 3519              	.LVL416:
 3520 0008 0A04     		lsls	r2, r1, #16	@ D.7071, D.7071,
 3521 000a 130C     		lsrs	r3, r2, #16	@ D.7071, D.7071,
 3522 000c 8380     		strh	r3, [r0, #4]	@ movhi	@ D.7071,
 3523 000e 7047     		bx	lr	@
 3524              	.LVL417:
 3525              	.L151:
2289:cmsis/device/stm32f4xx_tim.c ****     TIMx->CR2 |= TIM_CR2_CCUS;
 3526              		.loc 1 2289 0
 3527 0010 99B2     		uxth	r1, r3	@ D.7067, TIMx_2(D)->CR2
 3528              	.LVL418:
 3529 0012 41F00402 		orr	r2, r1, #4	@ D.7068, D.7067,
 3530 0016 8280     		strh	r2, [r0, #4]	@ movhi	@ D.7068,
 3531 0018 7047     		bx	lr	@
 3532              		.cfi_endproc
 3533              	.LFE174:
 3534              		.size	TIM_SelectCOM, .-TIM_SelectCOM
 3535 001a 00BF     		.section	.text.TIM_CCPreloadControl,"ax",%progbits
 3536              		.align	2
 3537              		.global	TIM_CCPreloadControl
 3538              		.thumb
 3539              		.thumb_func
 3540              		.type	TIM_CCPreloadControl, %function
 3541              	TIM_CCPreloadControl:
 3542              	.LFB175:
2306:cmsis/device/stm32f4xx_tim.c **** { 
 3543              		.loc 1 2306 0
 3544              		.cfi_startproc
 3545              		@ args = 0, pretend = 0, frame = 0
 3546              		@ frame_needed = 0, uses_anonymous_args = 0
 3547              		@ link register save eliminated.
 3548              	.LVL419:
2313:cmsis/device/stm32f4xx_tim.c ****     TIMx->CR2 |= TIM_CR2_CCPC;
 3549              		.loc 1 2313 0
 3550 0000 8388     		ldrh	r3, [r0, #4]	@,
2310:cmsis/device/stm32f4xx_tim.c ****   if (NewState != DISABLE)
 3551              		.loc 1 2310 0
 3552 0002 29B9     		cbnz	r1, .L155	@ NewState,
2318:cmsis/device/stm32f4xx_tim.c ****     TIMx->CR2 &= (uint16_t)~TIM_CR2_CCPC;
 3553              		.loc 1 2318 0
 3554 0004 23F00101 		bic	r1, r3, #1	@ D.7064, TIMx_2(D)->CR2,
 3555              	.LVL420:
 3556 0008 0A04     		lsls	r2, r1, #16	@ D.7064, D.7064,
 3557 000a 130C     		lsrs	r3, r2, #16	@ D.7064, D.7064,
 3558 000c 8380     		strh	r3, [r0, #4]	@ movhi	@ D.7064,
 3559 000e 7047     		bx	lr	@
 3560              	.LVL421:
 3561              	.L155:
2313:cmsis/device/stm32f4xx_tim.c ****     TIMx->CR2 |= TIM_CR2_CCPC;
 3562              		.loc 1 2313 0
 3563 0010 99B2     		uxth	r1, r3	@ D.7060, TIMx_2(D)->CR2
ARM GAS  C:\Users\CNous\AppData\Local\Temp\ccZi7tDD.s 			page 129


 3564              	.LVL422:
 3565 0012 41F00102 		orr	r2, r1, #1	@ D.7061, D.7060,
 3566 0016 8280     		strh	r2, [r0, #4]	@ movhi	@ D.7061,
 3567 0018 7047     		bx	lr	@
 3568              		.cfi_endproc
 3569              	.LFE175:
 3570              		.size	TIM_CCPreloadControl, .-TIM_CCPreloadControl
 3571 001a 00BF     		.section	.text.TIM_ITConfig,"ax",%progbits
 3572              		.align	2
 3573              		.global	TIM_ITConfig
 3574              		.thumb
 3575              		.thumb_func
 3576              		.type	TIM_ITConfig, %function
 3577              	TIM_ITConfig:
 3578              	.LFB176:
2363:cmsis/device/stm32f4xx_tim.c **** {  
 3579              		.loc 1 2363 0
 3580              		.cfi_startproc
 3581              		@ args = 0, pretend = 0, frame = 0
 3582              		@ frame_needed = 0, uses_anonymous_args = 0
 3583              		@ link register save eliminated.
 3584              	.LVL423:
2372:cmsis/device/stm32f4xx_tim.c ****     TIMx->DIER |= TIM_IT;
 3585              		.loc 1 2372 0
 3586 0000 8389     		ldrh	r3, [r0, #12]	@,
 3587 0002 9BB2     		uxth	r3, r3	@ D.7052, TIMx_2(D)->DIER
2369:cmsis/device/stm32f4xx_tim.c ****   if (NewState != DISABLE)
 3588              		.loc 1 2369 0
 3589 0004 1AB9     		cbnz	r2, .L159	@ NewState,
2377:cmsis/device/stm32f4xx_tim.c ****     TIMx->DIER &= (uint16_t)~TIM_IT;
 3590              		.loc 1 2377 0
 3591 0006 23EA0101 		bic	r1, r3, r1	@ D.7057, D.7055, TIM_IT
 3592              	.LVL424:
 3593 000a 8181     		strh	r1, [r0, #12]	@ movhi	@ D.7057,
 3594 000c 7047     		bx	lr	@
 3595              	.LVL425:
 3596              	.L159:
2372:cmsis/device/stm32f4xx_tim.c ****     TIMx->DIER |= TIM_IT;
 3597              		.loc 1 2372 0
 3598 000e 1943     		orrs	r1, r1, r3	@, D.7053, TIM_IT, D.7052
 3599              	.LVL426:
 3600 0010 8181     		strh	r1, [r0, #12]	@ movhi	@ D.7053,
 3601 0012 7047     		bx	lr	@
 3602              		.cfi_endproc
 3603              	.LFE176:
 3604              		.size	TIM_ITConfig, .-TIM_ITConfig
 3605              		.section	.text.TIM_GenerateEvent,"ax",%progbits
 3606              		.align	2
 3607              		.global	TIM_GenerateEvent
 3608              		.thumb
 3609              		.thumb_func
 3610              		.type	TIM_GenerateEvent, %function
 3611              	TIM_GenerateEvent:
 3612              	.LFB177:
2401:cmsis/device/stm32f4xx_tim.c **** { 
 3613              		.loc 1 2401 0
 3614              		.cfi_startproc
ARM GAS  C:\Users\CNous\AppData\Local\Temp\ccZi7tDD.s 			page 130


 3615              		@ args = 0, pretend = 0, frame = 0
 3616              		@ frame_needed = 0, uses_anonymous_args = 0
 3617              		@ link register save eliminated.
 3618              	.LVL427:
2407:cmsis/device/stm32f4xx_tim.c ****   TIMx->EGR = TIM_EventSource;
 3619              		.loc 1 2407 0
 3620 0000 8182     		strh	r1, [r0, #20]	@ movhi	@ TIM_EventSource, TIMx_1(D)->EGR
 3621 0002 7047     		bx	lr	@
 3622              		.cfi_endproc
 3623              	.LFE177:
 3624              		.size	TIM_GenerateEvent, .-TIM_GenerateEvent
 3625              		.section	.text.TIM_GetFlagStatus,"ax",%progbits
 3626              		.align	2
 3627              		.global	TIM_GetFlagStatus
 3628              		.thumb
 3629              		.thumb_func
 3630              		.type	TIM_GetFlagStatus, %function
 3631              	TIM_GetFlagStatus:
 3632              	.LFB178:
2434:cmsis/device/stm32f4xx_tim.c **** { 
 3633              		.loc 1 2434 0
 3634              		.cfi_startproc
 3635              		@ args = 0, pretend = 0, frame = 0
 3636              		@ frame_needed = 0, uses_anonymous_args = 0
 3637              		@ link register save eliminated.
 3638              	.LVL428:
2441:cmsis/device/stm32f4xx_tim.c ****   if ((TIMx->SR & TIM_FLAG) != (uint16_t)RESET)
 3639              		.loc 1 2441 0
 3640 0000 038A     		ldrh	r3, [r0, #16]	@, TIMx_3(D)->SR
 3641              	.LVL429:
 3642 0002 1942     		tst	r1, r3	@ TIM_FLAG, TIMx_3(D)->SR
2450:cmsis/device/stm32f4xx_tim.c **** }
 3643              		.loc 1 2450 0
 3644 0004 0CBF     		ite	eq	@
 3645 0006 0020     		moveq	r0, #0	@,
 3646 0008 0120     		movne	r0, #1	@,
 3647              	.LVL430:
 3648 000a 7047     		bx	lr	@
 3649              		.cfi_endproc
 3650              	.LFE178:
 3651              		.size	TIM_GetFlagStatus, .-TIM_GetFlagStatus
 3652              		.section	.text.TIM_ClearFlag,"ax",%progbits
 3653              		.align	2
 3654              		.global	TIM_ClearFlag
 3655              		.thumb
 3656              		.thumb_func
 3657              		.type	TIM_ClearFlag, %function
 3658              	TIM_ClearFlag:
 3659              	.LFB179:
2476:cmsis/device/stm32f4xx_tim.c **** {  
 3660              		.loc 1 2476 0
 3661              		.cfi_startproc
 3662              		@ args = 0, pretend = 0, frame = 0
 3663              		@ frame_needed = 0, uses_anonymous_args = 0
 3664              		@ link register save eliminated.
 3665              	.LVL431:
2481:cmsis/device/stm32f4xx_tim.c ****   TIMx->SR = (uint16_t)~TIM_FLAG;
ARM GAS  C:\Users\CNous\AppData\Local\Temp\ccZi7tDD.s 			page 131


 3666              		.loc 1 2481 0
 3667 0000 C943     		mvns	r1, r1	@ tmp137, TIM_FLAG
 3668              	.LVL432:
 3669 0002 8AB2     		uxth	r2, r1	@ D.7042, tmp137
 3670 0004 0282     		strh	r2, [r0, #16]	@ movhi	@ D.7042, TIMx_3(D)->SR
 3671 0006 7047     		bx	lr	@
 3672              		.cfi_endproc
 3673              	.LFE179:
 3674              		.size	TIM_ClearFlag, .-TIM_ClearFlag
 3675              		.section	.text.TIM_GetITStatus,"ax",%progbits
 3676              		.align	2
 3677              		.global	TIM_GetITStatus
 3678              		.thumb
 3679              		.thumb_func
 3680              		.type	TIM_GetITStatus, %function
 3681              	TIM_GetITStatus:
 3682              	.LFB180:
2504:cmsis/device/stm32f4xx_tim.c **** {
 3683              		.loc 1 2504 0
 3684              		.cfi_startproc
 3685              		@ args = 0, pretend = 0, frame = 0
 3686              		@ frame_needed = 0, uses_anonymous_args = 0
 3687              		@ link register save eliminated.
 3688              	.LVL433:
2511:cmsis/device/stm32f4xx_tim.c ****   itstatus = TIMx->SR & TIM_IT;
 3689              		.loc 1 2511 0
 3690 0000 038A     		ldrh	r3, [r0, #16]	@, TIMx_5(D)->SR
 3691              	.LVL434:
2513:cmsis/device/stm32f4xx_tim.c ****   itenable = TIMx->DIER & TIM_IT;
 3692              		.loc 1 2513 0
 3693 0002 8289     		ldrh	r2, [r0, #12]	@, TIMx_5(D)->DIER
2514:cmsis/device/stm32f4xx_tim.c ****   if ((itstatus != (uint16_t)RESET) && (itenable != (uint16_t)RESET))
 3694              		.loc 1 2514 0
 3695 0004 11EA0300 		ands	r0, r1, r3	@ tmp149, TIM_IT, TIMx_5(D)->SR
 3696              	.LVL435:
2513:cmsis/device/stm32f4xx_tim.c ****   itenable = TIMx->DIER & TIM_IT;
 3697              		.loc 1 2513 0
 3698 0008 92B2     		uxth	r2, r2	@ D.7035, TIMx_5(D)->DIER
 3699              	.LVL436:
2514:cmsis/device/stm32f4xx_tim.c ****   if ((itstatus != (uint16_t)RESET) && (itenable != (uint16_t)RESET))
 3700              		.loc 1 2514 0
 3701 000a 03D0     		beq	.L164	@,
2514:cmsis/device/stm32f4xx_tim.c ****   if ((itstatus != (uint16_t)RESET) && (itenable != (uint16_t)RESET))
 3702              		.loc 1 2514 0 is_stmt 0 discriminator 1
 3703 000c 1142     		tst	r1, r2	@ TIM_IT, D.7035
2516:cmsis/device/stm32f4xx_tim.c ****     bitstatus = SET;
 3704              		.loc 1 2516 0 is_stmt 1 discriminator 1
 3705 000e 0CBF     		ite	eq	@
 3706 0010 0020     		moveq	r0, #0	@, bitstatus
 3707 0012 0120     		movne	r0, #1	@, bitstatus
 3708              	.L164:
 3709              	.LVL437:
2523:cmsis/device/stm32f4xx_tim.c **** }
 3710              		.loc 1 2523 0
 3711 0014 7047     		bx	lr	@
 3712              		.cfi_endproc
 3713              	.LFE180:
ARM GAS  C:\Users\CNous\AppData\Local\Temp\ccZi7tDD.s 			page 132


 3714              		.size	TIM_GetITStatus, .-TIM_GetITStatus
 3715 0016 00BF     		.section	.text.TIM_ClearITPendingBit,"ax",%progbits
 3716              		.align	2
 3717              		.global	TIM_ClearITPendingBit
 3718              		.thumb
 3719              		.thumb_func
 3720              		.type	TIM_ClearITPendingBit, %function
 3721              	TIM_ClearITPendingBit:
 3722              	.LFB181:
2545:cmsis/device/stm32f4xx_tim.c **** {
 3723              		.loc 1 2545 0
 3724              		.cfi_startproc
 3725              		@ args = 0, pretend = 0, frame = 0
 3726              		@ frame_needed = 0, uses_anonymous_args = 0
 3727              		@ link register save eliminated.
 3728              	.LVL438:
2550:cmsis/device/stm32f4xx_tim.c ****   TIMx->SR = (uint16_t)~TIM_IT;
 3729              		.loc 1 2550 0
 3730 0000 C943     		mvns	r1, r1	@ tmp137, TIM_IT
 3731              	.LVL439:
 3732 0002 8AB2     		uxth	r2, r1	@ D.7033, tmp137
 3733 0004 0282     		strh	r2, [r0, #16]	@ movhi	@ D.7033, TIMx_3(D)->SR
 3734 0006 7047     		bx	lr	@
 3735              		.cfi_endproc
 3736              	.LFE181:
 3737              		.size	TIM_ClearITPendingBit, .-TIM_ClearITPendingBit
 3738              		.section	.text.TIM_DMAConfig,"ax",%progbits
 3739              		.align	2
 3740              		.global	TIM_DMAConfig
 3741              		.thumb
 3742              		.thumb_func
 3743              		.type	TIM_DMAConfig, %function
 3744              	TIM_DMAConfig:
 3745              	.LFB182:
2582:cmsis/device/stm32f4xx_tim.c **** {
 3746              		.loc 1 2582 0
 3747              		.cfi_startproc
 3748              		@ args = 0, pretend = 0, frame = 0
 3749              		@ frame_needed = 0, uses_anonymous_args = 0
 3750              		@ link register save eliminated.
 3751              	.LVL440:
2589:cmsis/device/stm32f4xx_tim.c ****   TIMx->DCR = TIM_DMABase | TIM_DMABurstLength;
 3752              		.loc 1 2589 0
 3753 0000 0A43     		orrs	r2, r2, r1	@, D.7032, TIM_DMABurstLength, TIM_DMABase
 3754              	.LVL441:
 3755 0002 A0F84820 		strh	r2, [r0, #72]	@ movhi	@ D.7032, TIMx_4(D)->DCR
 3756 0006 7047     		bx	lr	@
 3757              		.cfi_endproc
 3758              	.LFE182:
 3759              		.size	TIM_DMAConfig, .-TIM_DMAConfig
 3760              		.section	.text.TIM_DMACmd,"ax",%progbits
 3761              		.align	2
 3762              		.global	TIM_DMACmd
 3763              		.thumb
 3764              		.thumb_func
 3765              		.type	TIM_DMACmd, %function
 3766              	TIM_DMACmd:
ARM GAS  C:\Users\CNous\AppData\Local\Temp\ccZi7tDD.s 			page 133


 3767              	.LFB183:
2609:cmsis/device/stm32f4xx_tim.c **** { 
 3768              		.loc 1 2609 0
 3769              		.cfi_startproc
 3770              		@ args = 0, pretend = 0, frame = 0
 3771              		@ frame_needed = 0, uses_anonymous_args = 0
 3772              		@ link register save eliminated.
 3773              	.LVL442:
2618:cmsis/device/stm32f4xx_tim.c ****     TIMx->DIER |= TIM_DMASource; 
 3774              		.loc 1 2618 0
 3775 0000 8389     		ldrh	r3, [r0, #12]	@,
 3776 0002 9BB2     		uxth	r3, r3	@ D.7026, TIMx_2(D)->DIER
2615:cmsis/device/stm32f4xx_tim.c ****   if (NewState != DISABLE)
 3777              		.loc 1 2615 0
 3778 0004 1AB9     		cbnz	r2, .L171	@ NewState,
2623:cmsis/device/stm32f4xx_tim.c ****     TIMx->DIER &= (uint16_t)~TIM_DMASource;
 3779              		.loc 1 2623 0
 3780 0006 23EA0101 		bic	r1, r3, r1	@ D.7031, D.7029, TIM_DMASource
 3781              	.LVL443:
 3782 000a 8181     		strh	r1, [r0, #12]	@ movhi	@ D.7031,
 3783 000c 7047     		bx	lr	@
 3784              	.LVL444:
 3785              	.L171:
2618:cmsis/device/stm32f4xx_tim.c ****     TIMx->DIER |= TIM_DMASource; 
 3786              		.loc 1 2618 0
 3787 000e 1943     		orrs	r1, r1, r3	@, D.7027, TIM_DMASource, D.7026
 3788              	.LVL445:
 3789 0010 8181     		strh	r1, [r0, #12]	@ movhi	@ D.7027,
 3790 0012 7047     		bx	lr	@
 3791              		.cfi_endproc
 3792              	.LFE183:
 3793              		.size	TIM_DMACmd, .-TIM_DMACmd
 3794              		.section	.text.TIM_SelectCCDMA,"ax",%progbits
 3795              		.align	2
 3796              		.global	TIM_SelectCCDMA
 3797              		.thumb
 3798              		.thumb_func
 3799              		.type	TIM_SelectCCDMA, %function
 3800              	TIM_SelectCCDMA:
 3801              	.LFB184:
2635:cmsis/device/stm32f4xx_tim.c **** {
 3802              		.loc 1 2635 0
 3803              		.cfi_startproc
 3804              		@ args = 0, pretend = 0, frame = 0
 3805              		@ frame_needed = 0, uses_anonymous_args = 0
 3806              		@ link register save eliminated.
 3807              	.LVL446:
2643:cmsis/device/stm32f4xx_tim.c ****     TIMx->CR2 |= TIM_CR2_CCDS;
 3808              		.loc 1 2643 0
 3809 0000 8388     		ldrh	r3, [r0, #4]	@,
2640:cmsis/device/stm32f4xx_tim.c ****   if (NewState != DISABLE)
 3810              		.loc 1 2640 0
 3811 0002 29B9     		cbnz	r1, .L175	@ NewState,
2648:cmsis/device/stm32f4xx_tim.c ****     TIMx->CR2 &= (uint16_t)~TIM_CR2_CCDS;
 3812              		.loc 1 2648 0
 3813 0004 23F00801 		bic	r1, r3, #8	@ D.7023, TIMx_2(D)->CR2,
 3814              	.LVL447:
ARM GAS  C:\Users\CNous\AppData\Local\Temp\ccZi7tDD.s 			page 134


 3815 0008 0A04     		lsls	r2, r1, #16	@ D.7023, D.7023,
 3816 000a 130C     		lsrs	r3, r2, #16	@ D.7023, D.7023,
 3817 000c 8380     		strh	r3, [r0, #4]	@ movhi	@ D.7023,
 3818 000e 7047     		bx	lr	@
 3819              	.LVL448:
 3820              	.L175:
2643:cmsis/device/stm32f4xx_tim.c ****     TIMx->CR2 |= TIM_CR2_CCDS;
 3821              		.loc 1 2643 0
 3822 0010 99B2     		uxth	r1, r3	@ D.7019, TIMx_2(D)->CR2
 3823              	.LVL449:
 3824 0012 41F00802 		orr	r2, r1, #8	@ D.7020, D.7019,
 3825 0016 8280     		strh	r2, [r0, #4]	@ movhi	@ D.7020,
 3826 0018 7047     		bx	lr	@
 3827              		.cfi_endproc
 3828              	.LFE184:
 3829              		.size	TIM_SelectCCDMA, .-TIM_SelectCCDMA
 3830 001a 00BF     		.section	.text.TIM_InternalClockConfig,"ax",%progbits
 3831              		.align	2
 3832              		.global	TIM_InternalClockConfig
 3833              		.thumb
 3834              		.thumb_func
 3835              		.type	TIM_InternalClockConfig, %function
 3836              	TIM_InternalClockConfig:
 3837              	.LFB185:
2674:cmsis/device/stm32f4xx_tim.c **** {
 3838              		.loc 1 2674 0
 3839              		.cfi_startproc
 3840              		@ args = 0, pretend = 0, frame = 0
 3841              		@ frame_needed = 0, uses_anonymous_args = 0
 3842              		@ link register save eliminated.
 3843              	.LVL450:
2679:cmsis/device/stm32f4xx_tim.c ****   TIMx->SMCR &=  (uint16_t)~TIM_SMCR_SMS;
 3844              		.loc 1 2679 0
 3845 0000 0389     		ldrh	r3, [r0, #8]	@, TIMx_1(D)->SMCR
 3846 0002 23F00701 		bic	r1, r3, #7	@ D.7016, TIMx_1(D)->SMCR,
 3847 0006 0A04     		lsls	r2, r1, #16	@ D.7016, D.7016,
 3848 0008 130C     		lsrs	r3, r2, #16	@ D.7016, D.7016,
 3849 000a 0381     		strh	r3, [r0, #8]	@ movhi	@ D.7016, TIMx_1(D)->SMCR
 3850 000c 7047     		bx	lr	@
 3851              		.cfi_endproc
 3852              	.LFE185:
 3853              		.size	TIM_InternalClockConfig, .-TIM_InternalClockConfig
 3854 000e 00BF     		.section	.text.TIM_ITRxExternalClockConfig,"ax",%progbits
 3855              		.align	2
 3856              		.global	TIM_ITRxExternalClockConfig
 3857              		.thumb
 3858              		.thumb_func
 3859              		.type	TIM_ITRxExternalClockConfig, %function
 3860              	TIM_ITRxExternalClockConfig:
 3861              	.LFB186:
2695:cmsis/device/stm32f4xx_tim.c **** {
 3862              		.loc 1 2695 0
 3863              		.cfi_startproc
 3864              		@ args = 0, pretend = 0, frame = 0
 3865              		@ frame_needed = 0, uses_anonymous_args = 0
 3866              		@ link register save eliminated.
 3867              	.LVL451:
ARM GAS  C:\Users\CNous\AppData\Local\Temp\ccZi7tDD.s 			page 135


 3868              	.LBB90:
 3869              	.LBB91:
2888:cmsis/device/stm32f4xx_tim.c ****   tmpsmcr = TIMx->SMCR;
 3870              		.loc 1 2888 0
 3871 0000 0389     		ldrh	r3, [r0, #8]	@, TIMx_1(D)->SMCR
 3872              	.LVL452:
2891:cmsis/device/stm32f4xx_tim.c ****   tmpsmcr &= (uint16_t)~TIM_SMCR_TS;
 3873              		.loc 1 2891 0
 3874 0002 23F07002 		bic	r2, r3, #112	@ tmpsmcr, TIMx_1(D)->SMCR,
 3875 0006 1304     		lsls	r3, r2, #16	@ tmpsmcr, tmpsmcr,
 3876              	.LVL453:
 3877 0008 1A0C     		lsrs	r2, r3, #16	@ tmpsmcr, tmpsmcr,
 3878              	.LVL454:
2894:cmsis/device/stm32f4xx_tim.c ****   tmpsmcr |= TIM_InputTriggerSource;
 3879              		.loc 1 2894 0
 3880 000a 1143     		orrs	r1, r1, r2	@, tmpsmcr, TIM_InputTriggerSource, tmpsmcr
 3881              	.LVL455:
2897:cmsis/device/stm32f4xx_tim.c ****   TIMx->SMCR = tmpsmcr;
 3882              		.loc 1 2897 0
 3883 000c 0181     		strh	r1, [r0, #8]	@ movhi	@ tmpsmcr, TIMx_1(D)->SMCR
 3884              	.LBE91:
 3885              	.LBE90:
2704:cmsis/device/stm32f4xx_tim.c ****   TIMx->SMCR |= TIM_SlaveMode_External1;
 3886              		.loc 1 2704 0
 3887 000e 0189     		ldrh	r1, [r0, #8]	@, TIMx_1(D)->SMCR
 3888              	.LVL456:
 3889 0010 8BB2     		uxth	r3, r1	@ D.7013, TIMx_1(D)->SMCR
 3890 0012 43F00702 		orr	r2, r3, #7	@ D.7014, D.7013,
 3891 0016 0281     		strh	r2, [r0, #8]	@ movhi	@ D.7014, TIMx_1(D)->SMCR
 3892 0018 7047     		bx	lr	@
 3893              		.cfi_endproc
 3894              	.LFE186:
 3895              		.size	TIM_ITRxExternalClockConfig, .-TIM_ITRxExternalClockConfig
 3896 001a 00BF     		.section	.text.TIM_TIxExternalClockConfig,"ax",%progbits
 3897              		.align	2
 3898              		.global	TIM_TIxExternalClockConfig
 3899              		.thumb
 3900              		.thumb_func
 3901              		.type	TIM_TIxExternalClockConfig, %function
 3902              	TIM_TIxExternalClockConfig:
 3903              	.LFB187:
2726:cmsis/device/stm32f4xx_tim.c **** {
 3904              		.loc 1 2726 0
 3905              		.cfi_startproc
 3906              		@ args = 0, pretend = 0, frame = 0
 3907              		@ frame_needed = 0, uses_anonymous_args = 0
 3908              		@ link register save eliminated.
 3909              	.LVL457:
2733:cmsis/device/stm32f4xx_tim.c ****   if (TIM_TIxExternalCLKSource == TIM_TIxExternalCLK1Source_TI2)
 3910              		.loc 1 2733 0
 3911 0000 6029     		cmp	r1, #96	@ TIM_TIxExternalCLKSource,
2726:cmsis/device/stm32f4xx_tim.c **** {
 3912              		.loc 1 2726 0
 3913 0002 70B4     		push	{r4, r5, r6}	@
 3914              	.LCFI12:
 3915              		.cfi_def_cfa_offset 12
 3916              		.cfi_offset 4, -12
ARM GAS  C:\Users\CNous\AppData\Local\Temp\ccZi7tDD.s 			page 136


 3917              		.cfi_offset 5, -8
 3918              		.cfi_offset 6, -4
2733:cmsis/device/stm32f4xx_tim.c ****   if (TIM_TIxExternalCLKSource == TIM_TIxExternalCLK1Source_TI2)
 3919              		.loc 1 2733 0
 3920 0004 27D0     		beq	.L181	@,
 3921              	.LVL458:
 3922              	.LBB92:
 3923              	.LBB93:
3197:cmsis/device/stm32f4xx_tim.c ****   TIMx->CCER &= (uint16_t)~TIM_CCER_CC1E;
 3924              		.loc 1 3197 0
 3925 0006 068C     		ldrh	r6, [r0, #32]	@, TIMx_2(D)->CCER
 3926 0008 26F00104 		bic	r4, r6, #1	@ D.7711, TIMx_2(D)->CCER,
 3927 000c 2504     		lsls	r5, r4, #16	@ D.7711, D.7711,
 3928 000e 2E0C     		lsrs	r6, r5, #16	@ D.7711, D.7711,
 3929 0010 0684     		strh	r6, [r0, #32]	@ movhi	@ D.7711, TIMx_2(D)->CCER
3198:cmsis/device/stm32f4xx_tim.c ****   tmpccmr1 = TIMx->CCMR1;
 3930              		.loc 1 3198 0
 3931 0012 058B     		ldrh	r5, [r0, #24]	@, TIMx_2(D)->CCMR1
 3932              	.LVL459:
3199:cmsis/device/stm32f4xx_tim.c ****   tmpccer = TIMx->CCER;
 3933              		.loc 1 3199 0
 3934 0014 048C     		ldrh	r4, [r0, #32]	@, TIMx_2(D)->CCER
 3935              	.LVL460:
3202:cmsis/device/stm32f4xx_tim.c ****   tmpccmr1 &= ((uint16_t)~TIM_CCMR1_CC1S) & ((uint16_t)~TIM_CCMR1_IC1F);
 3936              		.loc 1 3202 0
 3937 0016 25F0F305 		bic	r5, r5, #243	@ tmp196, TIMx_2(D)->CCMR1,
 3938              	.LVL461:
 3939 001a 2D04     		lsls	r5, r5, #16	@ tmp196, tmp196,
3206:cmsis/device/stm32f4xx_tim.c ****   tmpccer &= (uint16_t)~(TIM_CCER_CC1P | TIM_CCER_CC1NP);
 3940              		.loc 1 3206 0
 3941 001c 24F00A04 		bic	r4, r4, #10	@ tmp202, TIMx_2(D)->CCER,
 3942              	.LVL462:
3202:cmsis/device/stm32f4xx_tim.c ****   tmpccmr1 &= ((uint16_t)~TIM_CCMR1_CC1S) & ((uint16_t)~TIM_CCMR1_IC1F);
 3943              		.loc 1 3202 0
 3944 0020 2D0C     		lsrs	r5, r5, #16	@ tmp196, tmp196,
3206:cmsis/device/stm32f4xx_tim.c ****   tmpccer &= (uint16_t)~(TIM_CCER_CC1P | TIM_CCER_CC1NP);
 3945              		.loc 1 3206 0
 3946 0022 2404     		lsls	r4, r4, #16	@ tmp202, tmp202,
3203:cmsis/device/stm32f4xx_tim.c ****   tmpccmr1 |= (uint16_t)(TIM_ICSelection | (uint16_t)(TIM_ICFilter << (uint16_t)4));
 3947              		.loc 1 3203 0
 3948 0024 45F00105 		orr	r5, r5, #1	@ D.7709, tmp196,
3206:cmsis/device/stm32f4xx_tim.c ****   tmpccer &= (uint16_t)~(TIM_CCER_CC1P | TIM_CCER_CC1NP);
 3949              		.loc 1 3206 0
 3950 0028 240C     		lsrs	r4, r4, #16	@ tmp202, tmp202,
3203:cmsis/device/stm32f4xx_tim.c ****   tmpccmr1 |= (uint16_t)(TIM_ICSelection | (uint16_t)(TIM_ICFilter << (uint16_t)4));
 3951              		.loc 1 3203 0
 3952 002a 45EA0313 		orr	r3, r5, r3, lsl #4	@, tmp201, D.7709, ICFilter,
 3953              	.LVL463:
3207:cmsis/device/stm32f4xx_tim.c ****   tmpccer |= (uint16_t)(TIM_ICPolarity | (uint16_t)TIM_CCER_CC1E);
 3954              		.loc 1 3207 0
 3955 002e 44F00104 		orr	r4, r4, #1	@ D.7708, tmp202,
3203:cmsis/device/stm32f4xx_tim.c ****   tmpccmr1 |= (uint16_t)(TIM_ICSelection | (uint16_t)(TIM_ICFilter << (uint16_t)4));
 3956              		.loc 1 3203 0
 3957 0032 9BB2     		uxth	r3, r3	@ tmpccmr1, tmp201
 3958              	.LVL464:
3207:cmsis/device/stm32f4xx_tim.c ****   tmpccer |= (uint16_t)(TIM_ICPolarity | (uint16_t)TIM_CCER_CC1E);
 3959              		.loc 1 3207 0
ARM GAS  C:\Users\CNous\AppData\Local\Temp\ccZi7tDD.s 			page 137


 3960 0034 2243     		orrs	r2, r2, r4	@, tmpccer, TIM_ICPolarity, D.7708
 3961              	.LVL465:
3210:cmsis/device/stm32f4xx_tim.c ****   TIMx->CCMR1 = tmpccmr1;
 3962              		.loc 1 3210 0
 3963 0036 0383     		strh	r3, [r0, #24]	@ movhi	@ tmpccmr1,
3211:cmsis/device/stm32f4xx_tim.c ****   TIMx->CCER = tmpccer;
 3964              		.loc 1 3211 0
 3965 0038 0284     		strh	r2, [r0, #32]	@ movhi	@ tmpccer,
 3966              	.LVL466:
 3967              	.L180:
 3968              	.LBE93:
 3969              	.LBE92:
 3970              	.LBB94:
 3971              	.LBB95:
2888:cmsis/device/stm32f4xx_tim.c ****   tmpsmcr = TIMx->SMCR;
 3972              		.loc 1 2888 0
 3973 003a 0389     		ldrh	r3, [r0, #8]	@, TIMx_2(D)->SMCR
 3974              	.LVL467:
2891:cmsis/device/stm32f4xx_tim.c ****   tmpsmcr &= (uint16_t)~TIM_SMCR_TS;
 3975              		.loc 1 2891 0
 3976 003c 23F07002 		bic	r2, r3, #112	@ tmpsmcr, TIMx_2(D)->SMCR,
 3977 0040 1304     		lsls	r3, r2, #16	@ tmpsmcr, tmpsmcr,
 3978              	.LVL468:
 3979 0042 1A0C     		lsrs	r2, r3, #16	@ tmpsmcr, tmpsmcr,
 3980              	.LVL469:
2894:cmsis/device/stm32f4xx_tim.c ****   tmpsmcr |= TIM_InputTriggerSource;
 3981              		.loc 1 2894 0
 3982 0044 1143     		orrs	r1, r1, r2	@, tmpsmcr, TIM_TIxExternalCLKSource, tmpsmcr
 3983              	.LVL470:
2897:cmsis/device/stm32f4xx_tim.c ****   TIMx->SMCR = tmpsmcr;
 3984              		.loc 1 2897 0
 3985 0046 0181     		strh	r1, [r0, #8]	@ movhi	@ tmpsmcr, TIMx_2(D)->SMCR
 3986              	.LBE95:
 3987              	.LBE94:
2744:cmsis/device/stm32f4xx_tim.c ****   TIMx->SMCR |= TIM_SlaveMode_External1;
 3988              		.loc 1 2744 0
 3989 0048 0389     		ldrh	r3, [r0, #8]	@, TIMx_2(D)->SMCR
 3990 004a 9AB2     		uxth	r2, r3	@ D.7001, TIMx_2(D)->SMCR
 3991 004c 42F00701 		orr	r1, r2, #7	@ D.7002, D.7001,
 3992              	.LVL471:
 3993 0050 0181     		strh	r1, [r0, #8]	@ movhi	@ D.7002, TIMx_2(D)->SMCR
2745:cmsis/device/stm32f4xx_tim.c **** }
 3994              		.loc 1 2745 0
 3995 0052 70BC     		pop	{r4, r5, r6}
 3996 0054 7047     		bx	lr
 3997              	.LVL472:
 3998              	.L181:
 3999              	.LBB96:
 4000              	.LBB97:
3238:cmsis/device/stm32f4xx_tim.c ****   TIMx->CCER &= (uint16_t)~TIM_CCER_CC2E;
 4001              		.loc 1 3238 0
 4002 0056 058C     		ldrh	r5, [r0, #32]	@, TIMx_2(D)->CCER
 4003 0058 25F01004 		bic	r4, r5, #16	@ D.7700, TIMx_2(D)->CCER,
 4004 005c 2504     		lsls	r5, r4, #16	@ D.7700, D.7700,
 4005 005e 2C0C     		lsrs	r4, r5, #16	@ D.7700, D.7700,
 4006 0060 0484     		strh	r4, [r0, #32]	@ movhi	@ D.7700, TIMx_2(D)->CCER
3239:cmsis/device/stm32f4xx_tim.c ****   tmpccmr1 = TIMx->CCMR1;
ARM GAS  C:\Users\CNous\AppData\Local\Temp\ccZi7tDD.s 			page 138


 4007              		.loc 1 3239 0
 4008 0062 058B     		ldrh	r5, [r0, #24]	@, TIMx_2(D)->CCMR1
 4009              	.LVL473:
3240:cmsis/device/stm32f4xx_tim.c ****   tmpccer = TIMx->CCER;
 4010              		.loc 1 3240 0
 4011 0064 048C     		ldrh	r4, [r0, #32]	@, TIMx_2(D)->CCER
 4012              	.LVL474:
3244:cmsis/device/stm32f4xx_tim.c ****   tmpccmr1 &= ((uint16_t)~TIM_CCMR1_CC2S) & ((uint16_t)~TIM_CCMR1_IC2F);
 4013              		.loc 1 3244 0
 4014 0066 25F44075 		bic	r5, r5, #768	@ tmpccmr1, TIMx_2(D)->CCMR1,
 4015              	.LVL475:
3249:cmsis/device/stm32f4xx_tim.c ****   tmpccer &= (uint16_t)~(TIM_CCER_CC2P | TIM_CCER_CC2NP);
 4016              		.loc 1 3249 0
 4017 006a 24F0A004 		bic	r4, r4, #160	@ tmp180, TIMx_2(D)->CCER,
 4018              	.LVL476:
3244:cmsis/device/stm32f4xx_tim.c ****   tmpccmr1 &= ((uint16_t)~TIM_CCMR1_CC2S) & ((uint16_t)~TIM_CCMR1_IC2F);
 4019              		.loc 1 3244 0
 4020 006e 2D05     		lsls	r5, r5, #20	@ tmpccmr1, tmpccmr1,
3249:cmsis/device/stm32f4xx_tim.c ****   tmpccer &= (uint16_t)~(TIM_CCER_CC2P | TIM_CCER_CC2NP);
 4021              		.loc 1 3249 0
 4022 0070 2404     		lsls	r4, r4, #16	@ tmp180, tmp180,
3244:cmsis/device/stm32f4xx_tim.c ****   tmpccmr1 &= ((uint16_t)~TIM_CCMR1_CC2S) & ((uint16_t)~TIM_CCMR1_IC2F);
 4023              		.loc 1 3244 0
 4024 0072 2D0D     		lsrs	r5, r5, #20	@ tmpccmr1, tmpccmr1,
 4025              	.LVL477:
3249:cmsis/device/stm32f4xx_tim.c ****   tmpccer &= (uint16_t)~(TIM_CCER_CC2P | TIM_CCER_CC2NP);
 4026              		.loc 1 3249 0
 4027 0074 240C     		lsrs	r4, r4, #16	@ tmp180, tmp180,
3245:cmsis/device/stm32f4xx_tim.c ****   tmpccmr1 |= (uint16_t)(TIM_ICFilter << 12);
 4028              		.loc 1 3245 0
 4029 0076 45F48075 		orr	r5, r5, #256	@ tmpccmr1, tmpccmr1,
 4030              	.LVL478:
3250:cmsis/device/stm32f4xx_tim.c ****   tmpccer |=  (uint16_t)(tmp | (uint16_t)TIM_CCER_CC2E);
 4031              		.loc 1 3250 0
 4032 007a 44F01004 		orr	r4, r4, #16	@ D.7697, tmp180,
3246:cmsis/device/stm32f4xx_tim.c ****   tmpccmr1 |= (uint16_t)(TIM_ICSelection << 8);
 4033              		.loc 1 3246 0
 4034 007e 45EA0333 		orr	r3, r5, r3, lsl #12	@, tmp179, tmpccmr1, ICFilter,
 4035              	.LVL479:
3250:cmsis/device/stm32f4xx_tim.c ****   tmpccer |=  (uint16_t)(tmp | (uint16_t)TIM_CCER_CC2E);
 4036              		.loc 1 3250 0
 4037 0082 44EA0212 		orr	r2, r4, r2, lsl #4	@, tmp185, D.7697, TIM_ICPolarity,
 4038              	.LVL480:
3246:cmsis/device/stm32f4xx_tim.c ****   tmpccmr1 |= (uint16_t)(TIM_ICSelection << 8);
 4039              		.loc 1 3246 0
 4040 0086 9BB2     		uxth	r3, r3	@ tmpccmr1, tmp179
 4041              	.LVL481:
3250:cmsis/device/stm32f4xx_tim.c ****   tmpccer |=  (uint16_t)(tmp | (uint16_t)TIM_CCER_CC2E);
 4042              		.loc 1 3250 0
 4043 0088 92B2     		uxth	r2, r2	@ tmpccer, tmp185
 4044              	.LVL482:
3253:cmsis/device/stm32f4xx_tim.c ****   TIMx->CCMR1 = tmpccmr1 ;
 4045              		.loc 1 3253 0
 4046 008a 0383     		strh	r3, [r0, #24]	@ movhi	@ tmpccmr1,
3254:cmsis/device/stm32f4xx_tim.c ****   TIMx->CCER = tmpccer;
 4047              		.loc 1 3254 0
 4048 008c 0284     		strh	r2, [r0, #32]	@ movhi	@ tmpccer,
ARM GAS  C:\Users\CNous\AppData\Local\Temp\ccZi7tDD.s 			page 139


 4049 008e D4E7     		b	.L180	@
 4050              	.LBE97:
 4051              	.LBE96:
 4052              		.cfi_endproc
 4053              	.LFE187:
 4054              		.size	TIM_TIxExternalClockConfig, .-TIM_TIxExternalClockConfig
 4055              		.section	.text.TIM_ETRClockMode1Config,"ax",%progbits
 4056              		.align	2
 4057              		.global	TIM_ETRClockMode1Config
 4058              		.thumb
 4059              		.thumb_func
 4060              		.type	TIM_ETRClockMode1Config, %function
 4061              	TIM_ETRClockMode1Config:
 4062              	.LFB188:
2766:cmsis/device/stm32f4xx_tim.c **** {
 4063              		.loc 1 2766 0
 4064              		.cfi_startproc
 4065              		@ args = 0, pretend = 0, frame = 0
 4066              		@ frame_needed = 0, uses_anonymous_args = 0
 4067              		@ link register save eliminated.
 4068              	.LVL483:
 4069 0000 10B4     		push	{r4}	@
 4070              	.LCFI13:
 4071              		.cfi_def_cfa_offset 4
 4072              		.cfi_offset 4, -4
 4073              	.LBB98:
 4074              	.LBB99:
3010:cmsis/device/stm32f4xx_tim.c ****   tmpsmcr = TIMx->SMCR;
 4075              		.loc 1 3010 0
 4076 0002 0489     		ldrh	r4, [r0, #8]	@, TIMx_2(D)->SMCR
 4077              	.LVL484:
3013:cmsis/device/stm32f4xx_tim.c ****   tmpsmcr &= SMCR_ETR_MASK;
 4078              		.loc 1 3013 0
 4079 0004 E4B2     		uxtb	r4, r4	@ tmpsmcr, TIMx_2(D)->SMCR
 4080              	.LVL485:
3016:cmsis/device/stm32f4xx_tim.c ****   tmpsmcr |= (uint16_t)(TIM_ExtTRGPrescaler | (uint16_t)(TIM_ExtTRGPolarity | (uint16_t)(ExtTRGFilt
 4081              		.loc 1 3016 0
 4082 0006 2143     		orrs	r1, r1, r4	@, tmp151, TIM_ExtTRGPrescaler, tmpsmcr
 4083              	.LVL486:
 4084 0008 0A43     		orrs	r2, r2, r1	@, D.7746, TIM_ExtTRGPolarity, tmp151
 4085              	.LVL487:
 4086 000a 42EA0323 		orr	r3, r2, r3, lsl #8	@, tmp156, D.7746, ExtTRGFilter,
 4087              	.LVL488:
 4088 000e 9CB2     		uxth	r4, r3	@ tmpsmcr, tmp156
 4089              	.LVL489:
3019:cmsis/device/stm32f4xx_tim.c ****   TIMx->SMCR = tmpsmcr;
 4090              		.loc 1 3019 0
 4091 0010 0481     		strh	r4, [r0, #8]	@ movhi	@ tmpsmcr, TIMx_2(D)->SMCR
 4092              	.LBE99:
 4093              	.LBE98:
2778:cmsis/device/stm32f4xx_tim.c ****   tmpsmcr = TIMx->SMCR;
 4094              		.loc 1 2778 0
 4095 0012 0189     		ldrh	r1, [r0, #8]	@, TIMx_2(D)->SMCR
 4096              	.LVL490:
2787:cmsis/device/stm32f4xx_tim.c ****   tmpsmcr &= (uint16_t)~TIM_SMCR_TS;
 4097              		.loc 1 2787 0
 4098 0014 21F07702 		bic	r2, r1, #119	@ D.7749, TIMx_2(D)->SMCR,
ARM GAS  C:\Users\CNous\AppData\Local\Temp\ccZi7tDD.s 			page 140


 4099 0018 1304     		lsls	r3, r2, #16	@ D.7749, D.7749,
 4100              	.LVL491:
 4101 001a 190C     		lsrs	r1, r3, #16	@ D.7749, D.7749,
 4102              	.LVL492:
2788:cmsis/device/stm32f4xx_tim.c ****   tmpsmcr |= TIM_TS_ETRF;
 4103              		.loc 1 2788 0
 4104 001c 41F07702 		orr	r2, r1, #119	@ tmpsmcr, D.7749,
 4105              	.LVL493:
2791:cmsis/device/stm32f4xx_tim.c ****   TIMx->SMCR = tmpsmcr;
 4106              		.loc 1 2791 0
 4107 0020 0281     		strh	r2, [r0, #8]	@ movhi	@ tmpsmcr, TIMx_2(D)->SMCR
2792:cmsis/device/stm32f4xx_tim.c **** }
 4108              		.loc 1 2792 0
 4109 0022 10BC     		pop	{r4}
 4110 0024 7047     		bx	lr
 4111              		.cfi_endproc
 4112              	.LFE188:
 4113              		.size	TIM_ETRClockMode1Config, .-TIM_ETRClockMode1Config
 4114 0026 00BF     		.section	.text.TIM_ETRClockMode2Config,"ax",%progbits
 4115              		.align	2
 4116              		.global	TIM_ETRClockMode2Config
 4117              		.thumb
 4118              		.thumb_func
 4119              		.type	TIM_ETRClockMode2Config, %function
 4120              	TIM_ETRClockMode2Config:
 4121              	.LFB189:
2813:cmsis/device/stm32f4xx_tim.c **** {
 4122              		.loc 1 2813 0
 4123              		.cfi_startproc
 4124              		@ args = 0, pretend = 0, frame = 0
 4125              		@ frame_needed = 0, uses_anonymous_args = 0
 4126              		@ link register save eliminated.
 4127              	.LVL494:
 4128 0000 10B4     		push	{r4}	@
 4129              	.LCFI14:
 4130              		.cfi_def_cfa_offset 4
 4131              		.cfi_offset 4, -4
 4132              	.LBB100:
 4133              	.LBB101:
3010:cmsis/device/stm32f4xx_tim.c ****   tmpsmcr = TIMx->SMCR;
 4134              		.loc 1 3010 0
 4135 0002 0489     		ldrh	r4, [r0, #8]	@, TIMx_1(D)->SMCR
 4136              	.LVL495:
3013:cmsis/device/stm32f4xx_tim.c ****   tmpsmcr &= SMCR_ETR_MASK;
 4137              		.loc 1 3013 0
 4138 0004 E4B2     		uxtb	r4, r4	@ tmpsmcr, TIMx_1(D)->SMCR
 4139              	.LVL496:
3016:cmsis/device/stm32f4xx_tim.c ****   tmpsmcr |= (uint16_t)(TIM_ExtTRGPrescaler | (uint16_t)(TIM_ExtTRGPolarity | (uint16_t)(ExtTRGFilt
 4140              		.loc 1 3016 0
 4141 0006 2143     		orrs	r1, r1, r4	@, tmp150, TIM_ExtTRGPrescaler, tmpsmcr
 4142              	.LVL497:
 4143 0008 0A43     		orrs	r2, r2, r1	@, D.7736, TIM_ExtTRGPolarity, tmp150
 4144              	.LVL498:
 4145 000a 42EA0323 		orr	r3, r2, r3, lsl #8	@, tmp155, D.7736, ExtTRGFilter,
 4146              	.LVL499:
 4147 000e 9CB2     		uxth	r4, r3	@ tmpsmcr, tmp155
 4148              	.LVL500:
ARM GAS  C:\Users\CNous\AppData\Local\Temp\ccZi7tDD.s 			page 141


3019:cmsis/device/stm32f4xx_tim.c ****   TIMx->SMCR = tmpsmcr;
 4149              		.loc 1 3019 0
 4150 0010 0481     		strh	r4, [r0, #8]	@ movhi	@ tmpsmcr, TIMx_1(D)->SMCR
 4151              	.LBE101:
 4152              	.LBE100:
2824:cmsis/device/stm32f4xx_tim.c ****   TIMx->SMCR |= TIM_SMCR_ECE;
 4153              		.loc 1 2824 0
 4154 0012 0189     		ldrh	r1, [r0, #8]	@, TIMx_1(D)->SMCR
 4155 0014 8AB2     		uxth	r2, r1	@ D.6996, TIMx_1(D)->SMCR
 4156 0016 42F48043 		orr	r3, r2, #16384	@ D.6997, D.6996,
 4157              	.LVL501:
 4158 001a 0381     		strh	r3, [r0, #8]	@ movhi	@ D.6997, TIMx_1(D)->SMCR
2825:cmsis/device/stm32f4xx_tim.c **** }
 4159              		.loc 1 2825 0
 4160 001c 10BC     		pop	{r4}
 4161 001e 7047     		bx	lr
 4162              		.cfi_endproc
 4163              	.LFE189:
 4164              		.size	TIM_ETRClockMode2Config, .-TIM_ETRClockMode2Config
 4165              		.section	.text.TIM_SelectInputTrigger,"ax",%progbits
 4166              		.align	2
 4167              		.global	TIM_SelectInputTrigger
 4168              		.thumb
 4169              		.thumb_func
 4170              		.type	TIM_SelectInputTrigger, %function
 4171              	TIM_SelectInputTrigger:
 4172              	.LFB190:
2880:cmsis/device/stm32f4xx_tim.c **** {
 4173              		.loc 1 2880 0
 4174              		.cfi_startproc
 4175              		@ args = 0, pretend = 0, frame = 0
 4176              		@ frame_needed = 0, uses_anonymous_args = 0
 4177              		@ link register save eliminated.
 4178              	.LVL502:
2888:cmsis/device/stm32f4xx_tim.c ****   tmpsmcr = TIMx->SMCR;
 4179              		.loc 1 2888 0
 4180 0000 0389     		ldrh	r3, [r0, #8]	@, TIMx_2(D)->SMCR
 4181              	.LVL503:
2891:cmsis/device/stm32f4xx_tim.c ****   tmpsmcr &= (uint16_t)~TIM_SMCR_TS;
 4182              		.loc 1 2891 0
 4183 0002 23F07002 		bic	r2, r3, #112	@ tmpsmcr, TIMx_2(D)->SMCR,
 4184 0006 1304     		lsls	r3, r2, #16	@ tmpsmcr, tmpsmcr,
 4185              	.LVL504:
 4186 0008 1A0C     		lsrs	r2, r3, #16	@ tmpsmcr, tmpsmcr,
 4187              	.LVL505:
2894:cmsis/device/stm32f4xx_tim.c ****   tmpsmcr |= TIM_InputTriggerSource;
 4188              		.loc 1 2894 0
 4189 000a 1143     		orrs	r1, r1, r2	@, tmpsmcr, TIM_InputTriggerSource, tmpsmcr
 4190              	.LVL506:
2897:cmsis/device/stm32f4xx_tim.c ****   TIMx->SMCR = tmpsmcr;
 4191              		.loc 1 2897 0
 4192 000c 0181     		strh	r1, [r0, #8]	@ movhi	@ tmpsmcr, TIMx_2(D)->SMCR
 4193 000e 7047     		bx	lr	@
 4194              		.cfi_endproc
 4195              	.LFE190:
 4196              		.size	TIM_SelectInputTrigger, .-TIM_SelectInputTrigger
 4197              		.section	.text.TIM_SelectOutputTrigger,"ax",%progbits
ARM GAS  C:\Users\CNous\AppData\Local\Temp\ccZi7tDD.s 			page 142


 4198              		.align	2
 4199              		.global	TIM_SelectOutputTrigger
 4200              		.thumb
 4201              		.thumb_func
 4202              		.type	TIM_SelectOutputTrigger, %function
 4203              	TIM_SelectOutputTrigger:
 4204              	.LFB191:
2923:cmsis/device/stm32f4xx_tim.c **** {
 4205              		.loc 1 2923 0
 4206              		.cfi_startproc
 4207              		@ args = 0, pretend = 0, frame = 0
 4208              		@ frame_needed = 0, uses_anonymous_args = 0
 4209              		@ link register save eliminated.
 4210              	.LVL507:
2929:cmsis/device/stm32f4xx_tim.c ****   TIMx->CR2 &= (uint16_t)~TIM_CR2_MMS;
 4211              		.loc 1 2929 0
 4212 0000 8388     		ldrh	r3, [r0, #4]	@, TIMx_1(D)->CR2
 4213 0002 23F07002 		bic	r2, r3, #112	@ D.6993, TIMx_1(D)->CR2,
 4214 0006 1304     		lsls	r3, r2, #16	@ D.6993, D.6993,
 4215 0008 1A0C     		lsrs	r2, r3, #16	@ D.6993, D.6993,
 4216 000a 8280     		strh	r2, [r0, #4]	@ movhi	@ D.6993, TIMx_1(D)->CR2
2931:cmsis/device/stm32f4xx_tim.c ****   TIMx->CR2 |=  TIM_TRGOSource;
 4217              		.loc 1 2931 0
 4218 000c 8388     		ldrh	r3, [r0, #4]	@, TIMx_1(D)->CR2
 4219 000e 9AB2     		uxth	r2, r3	@ D.6994, TIMx_1(D)->CR2
 4220 0010 1143     		orrs	r1, r1, r2	@, D.6995, TIM_TRGOSource, D.6994
 4221              	.LVL508:
 4222 0012 8180     		strh	r1, [r0, #4]	@ movhi	@ D.6995, TIMx_1(D)->CR2
 4223 0014 7047     		bx	lr	@
 4224              		.cfi_endproc
 4225              	.LFE191:
 4226              		.size	TIM_SelectOutputTrigger, .-TIM_SelectOutputTrigger
 4227 0016 00BF     		.section	.text.TIM_SelectSlaveMode,"ax",%progbits
 4228              		.align	2
 4229              		.global	TIM_SelectSlaveMode
 4230              		.thumb
 4231              		.thumb_func
 4232              		.type	TIM_SelectSlaveMode, %function
 4233              	TIM_SelectSlaveMode:
 4234              	.LFB192:
2947:cmsis/device/stm32f4xx_tim.c **** {
 4235              		.loc 1 2947 0
 4236              		.cfi_startproc
 4237              		@ args = 0, pretend = 0, frame = 0
 4238              		@ frame_needed = 0, uses_anonymous_args = 0
 4239              		@ link register save eliminated.
 4240              	.LVL509:
2953:cmsis/device/stm32f4xx_tim.c ****   TIMx->SMCR &= (uint16_t)~TIM_SMCR_SMS;
 4241              		.loc 1 2953 0
 4242 0000 0389     		ldrh	r3, [r0, #8]	@, TIMx_1(D)->SMCR
 4243 0002 23F00702 		bic	r2, r3, #7	@ D.6989, TIMx_1(D)->SMCR,
 4244 0006 1304     		lsls	r3, r2, #16	@ D.6989, D.6989,
 4245 0008 1A0C     		lsrs	r2, r3, #16	@ D.6989, D.6989,
 4246 000a 0281     		strh	r2, [r0, #8]	@ movhi	@ D.6989, TIMx_1(D)->SMCR
2956:cmsis/device/stm32f4xx_tim.c ****   TIMx->SMCR |= TIM_SlaveMode;
 4247              		.loc 1 2956 0
 4248 000c 0389     		ldrh	r3, [r0, #8]	@, TIMx_1(D)->SMCR
ARM GAS  C:\Users\CNous\AppData\Local\Temp\ccZi7tDD.s 			page 143


 4249 000e 9AB2     		uxth	r2, r3	@ D.6990, TIMx_1(D)->SMCR
 4250 0010 1143     		orrs	r1, r1, r2	@, D.6991, TIM_SlaveMode, D.6990
 4251              	.LVL510:
 4252 0012 0181     		strh	r1, [r0, #8]	@ movhi	@ D.6991, TIMx_1(D)->SMCR
 4253 0014 7047     		bx	lr	@
 4254              		.cfi_endproc
 4255              	.LFE192:
 4256              		.size	TIM_SelectSlaveMode, .-TIM_SelectSlaveMode
 4257 0016 00BF     		.section	.text.TIM_SelectMasterSlaveMode,"ax",%progbits
 4258              		.align	2
 4259              		.global	TIM_SelectMasterSlaveMode
 4260              		.thumb
 4261              		.thumb_func
 4262              		.type	TIM_SelectMasterSlaveMode, %function
 4263              	TIM_SelectMasterSlaveMode:
 4264              	.LFB193:
2970:cmsis/device/stm32f4xx_tim.c **** {
 4265              		.loc 1 2970 0
 4266              		.cfi_startproc
 4267              		@ args = 0, pretend = 0, frame = 0
 4268              		@ frame_needed = 0, uses_anonymous_args = 0
 4269              		@ link register save eliminated.
 4270              	.LVL511:
2976:cmsis/device/stm32f4xx_tim.c ****   TIMx->SMCR &= (uint16_t)~TIM_SMCR_MSM;
 4271              		.loc 1 2976 0
 4272 0000 0389     		ldrh	r3, [r0, #8]	@, TIMx_1(D)->SMCR
 4273 0002 23F08002 		bic	r2, r3, #128	@ D.6985, TIMx_1(D)->SMCR,
 4274 0006 1304     		lsls	r3, r2, #16	@ D.6985, D.6985,
 4275 0008 1A0C     		lsrs	r2, r3, #16	@ D.6985, D.6985,
 4276 000a 0281     		strh	r2, [r0, #8]	@ movhi	@ D.6985, TIMx_1(D)->SMCR
2979:cmsis/device/stm32f4xx_tim.c ****   TIMx->SMCR |= TIM_MasterSlaveMode;
 4277              		.loc 1 2979 0
 4278 000c 0389     		ldrh	r3, [r0, #8]	@, TIMx_1(D)->SMCR
 4279 000e 9AB2     		uxth	r2, r3	@ D.6986, TIMx_1(D)->SMCR
 4280 0010 1143     		orrs	r1, r1, r2	@, D.6987, TIM_MasterSlaveMode, D.6986
 4281              	.LVL512:
 4282 0012 0181     		strh	r1, [r0, #8]	@ movhi	@ D.6987, TIMx_1(D)->SMCR
 4283 0014 7047     		bx	lr	@
 4284              		.cfi_endproc
 4285              	.LFE193:
 4286              		.size	TIM_SelectMasterSlaveMode, .-TIM_SelectMasterSlaveMode
 4287 0016 00BF     		.section	.text.TIM_ETRConfig,"ax",%progbits
 4288              		.align	2
 4289              		.global	TIM_ETRConfig
 4290              		.thumb
 4291              		.thumb_func
 4292              		.type	TIM_ETRConfig, %function
 4293              	TIM_ETRConfig:
 4294              	.LFB194:
3001:cmsis/device/stm32f4xx_tim.c **** {
 4295              		.loc 1 3001 0
 4296              		.cfi_startproc
 4297              		@ args = 0, pretend = 0, frame = 0
 4298              		@ frame_needed = 0, uses_anonymous_args = 0
 4299              		@ link register save eliminated.
 4300              	.LVL513:
 4301 0000 10B4     		push	{r4}	@
ARM GAS  C:\Users\CNous\AppData\Local\Temp\ccZi7tDD.s 			page 144


 4302              	.LCFI15:
 4303              		.cfi_def_cfa_offset 4
 4304              		.cfi_offset 4, -4
3010:cmsis/device/stm32f4xx_tim.c ****   tmpsmcr = TIMx->SMCR;
 4305              		.loc 1 3010 0
 4306 0002 0489     		ldrh	r4, [r0, #8]	@, TIMx_2(D)->SMCR
 4307              	.LVL514:
3013:cmsis/device/stm32f4xx_tim.c ****   tmpsmcr &= SMCR_ETR_MASK;
 4308              		.loc 1 3013 0
 4309 0004 E4B2     		uxtb	r4, r4	@ tmpsmcr, TIMx_2(D)->SMCR
 4310              	.LVL515:
3016:cmsis/device/stm32f4xx_tim.c ****   tmpsmcr |= (uint16_t)(TIM_ExtTRGPrescaler | (uint16_t)(TIM_ExtTRGPolarity | (uint16_t)(ExtTRGFilt
 4311              		.loc 1 3016 0
 4312 0006 2143     		orrs	r1, r1, r4	@, tmp148, TIM_ExtTRGPrescaler, tmpsmcr
 4313              	.LVL516:
 4314 0008 0A43     		orrs	r2, r2, r1	@, D.6983, TIM_ExtTRGPolarity, tmp148
 4315              	.LVL517:
 4316 000a 42EA0323 		orr	r3, r2, r3, lsl #8	@, tmp153, D.6983, ExtTRGFilter,
 4317              	.LVL518:
 4318 000e 9CB2     		uxth	r4, r3	@ tmpsmcr, tmp153
 4319              	.LVL519:
3019:cmsis/device/stm32f4xx_tim.c ****   TIMx->SMCR = tmpsmcr;
 4320              		.loc 1 3019 0
 4321 0010 0481     		strh	r4, [r0, #8]	@ movhi	@ tmpsmcr, TIMx_2(D)->SMCR
3020:cmsis/device/stm32f4xx_tim.c **** }
 4322              		.loc 1 3020 0
 4323 0012 10BC     		pop	{r4}
 4324 0014 7047     		bx	lr
 4325              		.cfi_endproc
 4326              	.LFE194:
 4327              		.size	TIM_ETRConfig, .-TIM_ETRConfig
 4328 0016 00BF     		.section	.text.TIM_EncoderInterfaceConfig,"ax",%progbits
 4329              		.align	2
 4330              		.global	TIM_EncoderInterfaceConfig
 4331              		.thumb
 4332              		.thumb_func
 4333              		.type	TIM_EncoderInterfaceConfig, %function
 4334              	TIM_EncoderInterfaceConfig:
 4335              	.LFB195:
3059:cmsis/device/stm32f4xx_tim.c **** {
 4336              		.loc 1 3059 0
 4337              		.cfi_startproc
 4338              		@ args = 0, pretend = 0, frame = 0
 4339              		@ frame_needed = 0, uses_anonymous_args = 0
 4340              		@ link register save eliminated.
 4341              	.LVL520:
 4342 0000 70B4     		push	{r4, r5, r6}	@
 4343              	.LCFI16:
 4344              		.cfi_def_cfa_offset 12
 4345              		.cfi_offset 4, -12
 4346              		.cfi_offset 5, -8
 4347              		.cfi_offset 6, -4
3071:cmsis/device/stm32f4xx_tim.c ****   tmpsmcr = TIMx->SMCR;
 4348              		.loc 1 3071 0
 4349 0002 0589     		ldrh	r5, [r0, #8]	@, TIMx_4(D)->SMCR
 4350              	.LVL521:
3074:cmsis/device/stm32f4xx_tim.c ****   tmpccmr1 = TIMx->CCMR1;
ARM GAS  C:\Users\CNous\AppData\Local\Temp\ccZi7tDD.s 			page 145


 4351              		.loc 1 3074 0
 4352 0004 048B     		ldrh	r4, [r0, #24]	@, TIMx_4(D)->CCMR1
 4353              	.LVL522:
3077:cmsis/device/stm32f4xx_tim.c ****   tmpccer = TIMx->CCER;
 4354              		.loc 1 3077 0
 4355 0006 068C     		ldrh	r6, [r0, #32]	@, TIMx_4(D)->CCER
 4356              	.LVL523:
3084:cmsis/device/stm32f4xx_tim.c ****   tmpccmr1 &= ((uint16_t)~TIM_CCMR1_CC1S) & ((uint16_t)~TIM_CCMR1_CC2S);
 4357              		.loc 1 3084 0
 4358 0008 24F44074 		bic	r4, r4, #768	@ tmpccmr1, TIMx_4(D)->CCMR1,
 4359              	.LVL524:
3088:cmsis/device/stm32f4xx_tim.c ****   tmpccer &= ((uint16_t)~TIM_CCER_CC1P) & ((uint16_t)~TIM_CCER_CC2P);
 4360              		.loc 1 3088 0
 4361 000c 26F02206 		bic	r6, r6, #34	@ tmp161, TIMx_4(D)->CCER,
 4362              	.LVL525:
3084:cmsis/device/stm32f4xx_tim.c ****   tmpccmr1 &= ((uint16_t)~TIM_CCMR1_CC1S) & ((uint16_t)~TIM_CCMR1_CC2S);
 4363              		.loc 1 3084 0
 4364 0010 24F00304 		bic	r4, r4, #3	@ tmpccmr1, tmpccmr1,
3088:cmsis/device/stm32f4xx_tim.c ****   tmpccer &= ((uint16_t)~TIM_CCER_CC1P) & ((uint16_t)~TIM_CCER_CC2P);
 4365              		.loc 1 3088 0
 4366 0014 3604     		lsls	r6, r6, #16	@ tmp161, tmp161,
 4367 0016 360C     		lsrs	r6, r6, #16	@ tmp161, tmp161,
3080:cmsis/device/stm32f4xx_tim.c ****   tmpsmcr &= (uint16_t)~TIM_SMCR_SMS;
 4368              		.loc 1 3080 0
 4369 0018 25F00705 		bic	r5, r5, #7	@ tmpsmcr, TIMx_4(D)->SMCR,
 4370              	.LVL526:
3084:cmsis/device/stm32f4xx_tim.c ****   tmpccmr1 &= ((uint16_t)~TIM_CCMR1_CC1S) & ((uint16_t)~TIM_CCMR1_CC2S);
 4371              		.loc 1 3084 0
 4372 001c 2404     		lsls	r4, r4, #16	@ tmpccmr1, tmpccmr1,
 4373 001e 240C     		lsrs	r4, r4, #16	@ tmpccmr1, tmpccmr1,
3089:cmsis/device/stm32f4xx_tim.c ****   tmpccer |= (uint16_t)(TIM_IC1Polarity | (uint16_t)(TIM_IC2Polarity << (uint16_t)4));
 4374              		.loc 1 3089 0
 4375 0020 3243     		orrs	r2, r2, r6	@, D.6980, TIM_IC1Polarity, tmp161
 4376              	.LVL527:
3080:cmsis/device/stm32f4xx_tim.c ****   tmpsmcr &= (uint16_t)~TIM_SMCR_SMS;
 4377              		.loc 1 3080 0
 4378 0022 2D04     		lsls	r5, r5, #16	@ tmpsmcr, tmpsmcr,
3085:cmsis/device/stm32f4xx_tim.c ****   tmpccmr1 |= TIM_CCMR1_CC1S_0 | TIM_CCMR1_CC2S_0;
 4379              		.loc 1 3085 0
 4380 0024 44F48076 		orr	r6, r4, #256	@ tmpccmr1, tmpccmr1,
3080:cmsis/device/stm32f4xx_tim.c ****   tmpsmcr &= (uint16_t)~TIM_SMCR_SMS;
 4381              		.loc 1 3080 0
 4382 0028 2D0C     		lsrs	r5, r5, #16	@ tmpsmcr, tmpsmcr,
 4383              	.LVL528:
3089:cmsis/device/stm32f4xx_tim.c ****   tmpccer |= (uint16_t)(TIM_IC1Polarity | (uint16_t)(TIM_IC2Polarity << (uint16_t)4));
 4384              		.loc 1 3089 0
 4385 002a 42EA0313 		orr	r3, r2, r3, lsl #4	@, tmp166, D.6980, TIM_IC2Polarity,
 4386              	.LVL529:
3085:cmsis/device/stm32f4xx_tim.c ****   tmpccmr1 |= TIM_CCMR1_CC1S_0 | TIM_CCMR1_CC2S_0;
 4387              		.loc 1 3085 0
 4388 002e 46F00104 		orr	r4, r6, #1	@ tmpccmr1, tmpccmr1,
3081:cmsis/device/stm32f4xx_tim.c ****   tmpsmcr |= TIM_EncoderMode;
 4389              		.loc 1 3081 0
 4390 0032 2943     		orrs	r1, r1, r5	@, tmpsmcr, TIM_EncoderMode, tmpsmcr
 4391              	.LVL530:
3089:cmsis/device/stm32f4xx_tim.c ****   tmpccer |= (uint16_t)(TIM_IC1Polarity | (uint16_t)(TIM_IC2Polarity << (uint16_t)4));
 4392              		.loc 1 3089 0
ARM GAS  C:\Users\CNous\AppData\Local\Temp\ccZi7tDD.s 			page 146


 4393 0034 9EB2     		uxth	r6, r3	@ tmpccer, tmp166
 4394              	.LVL531:
3092:cmsis/device/stm32f4xx_tim.c ****   TIMx->SMCR = tmpsmcr;
 4395              		.loc 1 3092 0
 4396 0036 0181     		strh	r1, [r0, #8]	@ movhi	@ tmpsmcr, TIMx_4(D)->SMCR
3095:cmsis/device/stm32f4xx_tim.c ****   TIMx->CCMR1 = tmpccmr1;
 4397              		.loc 1 3095 0
 4398 0038 0483     		strh	r4, [r0, #24]	@ movhi	@ tmpccmr1, TIMx_4(D)->CCMR1
3098:cmsis/device/stm32f4xx_tim.c ****   TIMx->CCER = tmpccer;
 4399              		.loc 1 3098 0
 4400 003a 0684     		strh	r6, [r0, #32]	@ movhi	@ tmpccer, TIMx_4(D)->CCER
3099:cmsis/device/stm32f4xx_tim.c **** }
 4401              		.loc 1 3099 0
 4402 003c 70BC     		pop	{r4, r5, r6}
 4403 003e 7047     		bx	lr
 4404              		.cfi_endproc
 4405              	.LFE195:
 4406              		.size	TIM_EncoderInterfaceConfig, .-TIM_EncoderInterfaceConfig
 4407              		.section	.text.TIM_SelectHallSensor,"ax",%progbits
 4408              		.align	2
 4409              		.global	TIM_SelectHallSensor
 4410              		.thumb
 4411              		.thumb_func
 4412              		.type	TIM_SelectHallSensor, %function
 4413              	TIM_SelectHallSensor:
 4414              	.LFB196:
3110:cmsis/device/stm32f4xx_tim.c **** {
 4415              		.loc 1 3110 0
 4416              		.cfi_startproc
 4417              		@ args = 0, pretend = 0, frame = 0
 4418              		@ frame_needed = 0, uses_anonymous_args = 0
 4419              		@ link register save eliminated.
 4420              	.LVL532:
3118:cmsis/device/stm32f4xx_tim.c ****     TIMx->CR2 |= TIM_CR2_TI1S;
 4421              		.loc 1 3118 0
 4422 0000 8388     		ldrh	r3, [r0, #4]	@,
3115:cmsis/device/stm32f4xx_tim.c ****   if (NewState != DISABLE)
 4423              		.loc 1 3115 0
 4424 0002 29B9     		cbnz	r1, .L193	@ NewState,
3123:cmsis/device/stm32f4xx_tim.c ****     TIMx->CR2 &= (uint16_t)~TIM_CR2_TI1S;
 4425              		.loc 1 3123 0
 4426 0004 23F08001 		bic	r1, r3, #128	@ D.6978, TIMx_2(D)->CR2,
 4427              	.LVL533:
 4428 0008 0A04     		lsls	r2, r1, #16	@ D.6978, D.6978,
 4429 000a 130C     		lsrs	r3, r2, #16	@ D.6978, D.6978,
 4430 000c 8380     		strh	r3, [r0, #4]	@ movhi	@ D.6978,
 4431 000e 7047     		bx	lr	@
 4432              	.LVL534:
 4433              	.L193:
3118:cmsis/device/stm32f4xx_tim.c ****     TIMx->CR2 |= TIM_CR2_TI1S;
 4434              		.loc 1 3118 0
 4435 0010 99B2     		uxth	r1, r3	@ D.6974, TIMx_2(D)->CR2
 4436              	.LVL535:
 4437 0012 41F08002 		orr	r2, r1, #128	@ D.6975, D.6974,
 4438 0016 8280     		strh	r2, [r0, #4]	@ movhi	@ D.6975,
 4439 0018 7047     		bx	lr	@
 4440              		.cfi_endproc
ARM GAS  C:\Users\CNous\AppData\Local\Temp\ccZi7tDD.s 			page 147


 4441              	.LFE196:
 4442              		.size	TIM_SelectHallSensor, .-TIM_SelectHallSensor
 4443 001a 00BF     		.section	.text.TIM_RemapConfig,"ax",%progbits
 4444              		.align	2
 4445              		.global	TIM_RemapConfig
 4446              		.thumb
 4447              		.thumb_func
 4448              		.type	TIM_RemapConfig, %function
 4449              	TIM_RemapConfig:
 4450              	.LFB197:
3161:cmsis/device/stm32f4xx_tim.c **** {
 4451              		.loc 1 3161 0
 4452              		.cfi_startproc
 4453              		@ args = 0, pretend = 0, frame = 0
 4454              		@ frame_needed = 0, uses_anonymous_args = 0
 4455              		@ link register save eliminated.
 4456              	.LVL536:
3167:cmsis/device/stm32f4xx_tim.c ****   TIMx->OR =  TIM_Remap;
 4457              		.loc 1 3167 0
 4458 0000 A0F85010 		strh	r1, [r0, #80]	@ movhi	@ TIM_Remap, TIMx_1(D)->OR
 4459 0004 7047     		bx	lr	@
 4460              		.cfi_endproc
 4461              	.LFE197:
 4462              		.size	TIM_RemapConfig, .-TIM_RemapConfig
 4463 0006 00BF     		.text
 4464              	.Letext0:
 4465              		.file 2 "c:\\gnutoolsarmembedded\\4.7-2012q4\\bin\\../lib/gcc/arm-none-eabi/4.7.3/../../../../arm-
 4466              		.file 3 "cmsis/device/stm32f4xx.h"
 4467              		.file 4 "cmsis/device/stm32f4xx_tim.h"
 4468              		.file 5 "./cmsis/device/stm32f4xx_rcc.h"
 4469              		.file 6 "./cmsis/core/core_cm4.h"
 4470              		.section	.debug_info,"",%progbits
 4471              	.Ldebug_info0:
 4472 0000 EE260000 		.4byte	0x26ee
 4473 0004 0200     		.2byte	0x2
 4474 0006 00000000 		.4byte	.Ldebug_abbrev0
 4475 000a 04       		.byte	0x4
 4476 000b 01       		.uleb128 0x1
 4477 000c C8040000 		.4byte	.LASF225
 4478 0010 01       		.byte	0x1
 4479 0011 BB060000 		.4byte	.LASF226
 4480 0015 030C0000 		.4byte	.LASF227
 4481 0019 00010000 		.4byte	.Ldebug_ranges0+0x100
 4482 001d 00000000 		.4byte	0
 4483 0021 00000000 		.4byte	0
 4484 0025 00000000 		.4byte	.Ldebug_line0
 4485 0029 02       		.uleb128 0x2
 4486 002a 01       		.byte	0x1
 4487 002b 06       		.byte	0x6
 4488 002c 7E020000 		.4byte	.LASF0
 4489 0030 03       		.uleb128 0x3
 4490 0031 520C0000 		.4byte	.LASF3
 4491 0035 02       		.byte	0x2
 4492 0036 2A       		.byte	0x2a
 4493 0037 3B000000 		.4byte	0x3b
 4494 003b 02       		.uleb128 0x2
 4495 003c 01       		.byte	0x1
ARM GAS  C:\Users\CNous\AppData\Local\Temp\ccZi7tDD.s 			page 148


 4496 003d 08       		.byte	0x8
 4497 003e 09090000 		.4byte	.LASF1
 4498 0042 02       		.uleb128 0x2
 4499 0043 02       		.byte	0x2
 4500 0044 05       		.byte	0x5
 4501 0045 47090000 		.4byte	.LASF2
 4502 0049 03       		.uleb128 0x3
 4503 004a 43030000 		.4byte	.LASF4
 4504 004e 02       		.byte	0x2
 4505 004f 36       		.byte	0x36
 4506 0050 54000000 		.4byte	0x54
 4507 0054 02       		.uleb128 0x2
 4508 0055 02       		.byte	0x2
 4509 0056 07       		.byte	0x7
 4510 0057 690B0000 		.4byte	.LASF5
 4511 005b 03       		.uleb128 0x3
 4512 005c 01090000 		.4byte	.LASF6
 4513 0060 02       		.byte	0x2
 4514 0061 4F       		.byte	0x4f
 4515 0062 66000000 		.4byte	0x66
 4516 0066 02       		.uleb128 0x2
 4517 0067 04       		.byte	0x4
 4518 0068 05       		.byte	0x5
 4519 0069 06030000 		.4byte	.LASF7
 4520 006d 03       		.uleb128 0x3
 4521 006e D30B0000 		.4byte	.LASF8
 4522 0072 02       		.byte	0x2
 4523 0073 50       		.byte	0x50
 4524 0074 78000000 		.4byte	0x78
 4525 0078 02       		.uleb128 0x2
 4526 0079 04       		.byte	0x4
 4527 007a 07       		.byte	0x7
 4528 007b 3F0A0000 		.4byte	.LASF9
 4529 007f 02       		.uleb128 0x2
 4530 0080 08       		.byte	0x8
 4531 0081 05       		.byte	0x5
 4532 0082 35030000 		.4byte	.LASF10
 4533 0086 02       		.uleb128 0x2
 4534 0087 08       		.byte	0x8
 4535 0088 07       		.byte	0x7
 4536 0089 A3020000 		.4byte	.LASF11
 4537 008d 04       		.uleb128 0x4
 4538 008e 04       		.byte	0x4
 4539 008f 05       		.byte	0x5
 4540 0090 696E7400 		.ascii	"int\000"
 4541 0094 02       		.uleb128 0x2
 4542 0095 04       		.byte	0x4
 4543 0096 07       		.byte	0x7
 4544 0097 8F040000 		.4byte	.LASF12
 4545 009b 02       		.uleb128 0x2
 4546 009c 04       		.byte	0x4
 4547 009d 07       		.byte	0x7
 4548 009e 06070000 		.4byte	.LASF13
 4549 00a2 05       		.uleb128 0x5
 4550 00a3 6D000000 		.4byte	0x6d
 4551 00a7 05       		.uleb128 0x5
 4552 00a8 49000000 		.4byte	0x49
ARM GAS  C:\Users\CNous\AppData\Local\Temp\ccZi7tDD.s 			page 149


 4553 00ac 05       		.uleb128 0x5
 4554 00ad 5B000000 		.4byte	0x5b
 4555 00b1 06       		.uleb128 0x6
 4556 00b2 01       		.byte	0x1
 4557 00b3 03       		.byte	0x3
 4558 00b4 1801     		.2byte	0x118
 4559 00b6 C7000000 		.4byte	0xc7
 4560 00ba 07       		.uleb128 0x7
 4561 00bb 9A060000 		.4byte	.LASF14
 4562 00bf 00       		.sleb128 0
 4563 00c0 08       		.uleb128 0x8
 4564 00c1 53455400 		.ascii	"SET\000"
 4565 00c5 01       		.sleb128 1
 4566 00c6 00       		.byte	0
 4567 00c7 09       		.uleb128 0x9
 4568 00c8 C5000000 		.4byte	.LASF15
 4569 00cc 03       		.byte	0x3
 4570 00cd 1801     		.2byte	0x118
 4571 00cf B1000000 		.4byte	0xb1
 4572 00d3 09       		.uleb128 0x9
 4573 00d4 800C0000 		.4byte	.LASF16
 4574 00d8 03       		.byte	0x3
 4575 00d9 1801     		.2byte	0x118
 4576 00db B1000000 		.4byte	0xb1
 4577 00df 06       		.uleb128 0x6
 4578 00e0 01       		.byte	0x1
 4579 00e1 03       		.byte	0x3
 4580 00e2 1A01     		.2byte	0x11a
 4581 00e4 F5000000 		.4byte	0xf5
 4582 00e8 07       		.uleb128 0x7
 4583 00e9 56010000 		.4byte	.LASF17
 4584 00ed 00       		.sleb128 0
 4585 00ee 07       		.uleb128 0x7
 4586 00ef 20030000 		.4byte	.LASF18
 4587 00f3 01       		.sleb128 1
 4588 00f4 00       		.byte	0
 4589 00f5 09       		.uleb128 0x9
 4590 00f6 D3070000 		.4byte	.LASF19
 4591 00fa 03       		.byte	0x3
 4592 00fb 1A01     		.2byte	0x11a
 4593 00fd DF000000 		.4byte	0xdf
 4594 0101 0A       		.uleb128 0xa
 4595 0102 54       		.byte	0x54
 4596 0103 03       		.byte	0x3
 4597 0104 6403     		.2byte	0x364
 4598 0106 25030000 		.4byte	0x325
 4599 010a 0B       		.uleb128 0xb
 4600 010b 43523100 		.ascii	"CR1\000"
 4601 010f 03       		.byte	0x3
 4602 0110 6603     		.2byte	0x366
 4603 0112 A7000000 		.4byte	0xa7
 4604 0116 02       		.byte	0x2
 4605 0117 23       		.byte	0x23
 4606 0118 00       		.uleb128 0
 4607 0119 0C       		.uleb128 0xc
 4608 011a BF090000 		.4byte	.LASF20
 4609 011e 03       		.byte	0x3
ARM GAS  C:\Users\CNous\AppData\Local\Temp\ccZi7tDD.s 			page 150


 4610 011f 6703     		.2byte	0x367
 4611 0121 49000000 		.4byte	0x49
 4612 0125 02       		.byte	0x2
 4613 0126 23       		.byte	0x23
 4614 0127 02       		.uleb128 0x2
 4615 0128 0B       		.uleb128 0xb
 4616 0129 43523200 		.ascii	"CR2\000"
 4617 012d 03       		.byte	0x3
 4618 012e 6803     		.2byte	0x368
 4619 0130 A7000000 		.4byte	0xa7
 4620 0134 02       		.byte	0x2
 4621 0135 23       		.byte	0x23
 4622 0136 04       		.uleb128 0x4
 4623 0137 0C       		.uleb128 0xc
 4624 0138 88080000 		.4byte	.LASF21
 4625 013c 03       		.byte	0x3
 4626 013d 6903     		.2byte	0x369
 4627 013f 49000000 		.4byte	0x49
 4628 0143 02       		.byte	0x2
 4629 0144 23       		.byte	0x23
 4630 0145 06       		.uleb128 0x6
 4631 0146 0C       		.uleb128 0xc
 4632 0147 D1050000 		.4byte	.LASF22
 4633 014b 03       		.byte	0x3
 4634 014c 6A03     		.2byte	0x36a
 4635 014e A7000000 		.4byte	0xa7
 4636 0152 02       		.byte	0x2
 4637 0153 23       		.byte	0x23
 4638 0154 08       		.uleb128 0x8
 4639 0155 0C       		.uleb128 0xc
 4640 0156 92080000 		.4byte	.LASF23
 4641 015a 03       		.byte	0x3
 4642 015b 6B03     		.2byte	0x36b
 4643 015d 49000000 		.4byte	0x49
 4644 0161 02       		.byte	0x2
 4645 0162 23       		.byte	0x23
 4646 0163 0A       		.uleb128 0xa
 4647 0164 0C       		.uleb128 0xc
 4648 0165 4A000000 		.4byte	.LASF24
 4649 0169 03       		.byte	0x3
 4650 016a 6C03     		.2byte	0x36c
 4651 016c A7000000 		.4byte	0xa7
 4652 0170 02       		.byte	0x2
 4653 0171 23       		.byte	0x23
 4654 0172 0C       		.uleb128 0xc
 4655 0173 0C       		.uleb128 0xc
 4656 0174 9C080000 		.4byte	.LASF25
 4657 0178 03       		.byte	0x3
 4658 0179 6D03     		.2byte	0x36d
 4659 017b 49000000 		.4byte	0x49
 4660 017f 02       		.byte	0x2
 4661 0180 23       		.byte	0x23
 4662 0181 0E       		.uleb128 0xe
 4663 0182 0B       		.uleb128 0xb
 4664 0183 535200   		.ascii	"SR\000"
 4665 0186 03       		.byte	0x3
 4666 0187 6E03     		.2byte	0x36e
ARM GAS  C:\Users\CNous\AppData\Local\Temp\ccZi7tDD.s 			page 151


 4667 0189 A7000000 		.4byte	0xa7
 4668 018d 02       		.byte	0x2
 4669 018e 23       		.byte	0x23
 4670 018f 10       		.uleb128 0x10
 4671 0190 0C       		.uleb128 0xc
 4672 0191 A6080000 		.4byte	.LASF26
 4673 0195 03       		.byte	0x3
 4674 0196 6F03     		.2byte	0x36f
 4675 0198 49000000 		.4byte	0x49
 4676 019c 02       		.byte	0x2
 4677 019d 23       		.byte	0x23
 4678 019e 12       		.uleb128 0x12
 4679 019f 0B       		.uleb128 0xb
 4680 01a0 45475200 		.ascii	"EGR\000"
 4681 01a4 03       		.byte	0x3
 4682 01a5 7003     		.2byte	0x370
 4683 01a7 A7000000 		.4byte	0xa7
 4684 01ab 02       		.byte	0x2
 4685 01ac 23       		.byte	0x23
 4686 01ad 14       		.uleb128 0x14
 4687 01ae 0C       		.uleb128 0xc
 4688 01af B0080000 		.4byte	.LASF27
 4689 01b3 03       		.byte	0x3
 4690 01b4 7103     		.2byte	0x371
 4691 01b6 49000000 		.4byte	0x49
 4692 01ba 02       		.byte	0x2
 4693 01bb 23       		.byte	0x23
 4694 01bc 16       		.uleb128 0x16
 4695 01bd 0C       		.uleb128 0xc
 4696 01be 5C020000 		.4byte	.LASF28
 4697 01c2 03       		.byte	0x3
 4698 01c3 7203     		.2byte	0x372
 4699 01c5 A7000000 		.4byte	0xa7
 4700 01c9 02       		.byte	0x2
 4701 01ca 23       		.byte	0x23
 4702 01cb 18       		.uleb128 0x18
 4703 01cc 0C       		.uleb128 0xc
 4704 01cd BA080000 		.4byte	.LASF29
 4705 01d1 03       		.byte	0x3
 4706 01d2 7303     		.2byte	0x373
 4707 01d4 49000000 		.4byte	0x49
 4708 01d8 02       		.byte	0x2
 4709 01d9 23       		.byte	0x23
 4710 01da 1A       		.uleb128 0x1a
 4711 01db 0C       		.uleb128 0xc
 4712 01dc 62020000 		.4byte	.LASF30
 4713 01e0 03       		.byte	0x3
 4714 01e1 7403     		.2byte	0x374
 4715 01e3 A7000000 		.4byte	0xa7
 4716 01e7 02       		.byte	0x2
 4717 01e8 23       		.byte	0x23
 4718 01e9 1C       		.uleb128 0x1c
 4719 01ea 0C       		.uleb128 0xc
 4720 01eb F3090000 		.4byte	.LASF31
 4721 01ef 03       		.byte	0x3
 4722 01f0 7503     		.2byte	0x375
 4723 01f2 49000000 		.4byte	0x49
ARM GAS  C:\Users\CNous\AppData\Local\Temp\ccZi7tDD.s 			page 152


 4724 01f6 02       		.byte	0x2
 4725 01f7 23       		.byte	0x23
 4726 01f8 1E       		.uleb128 0x1e
 4727 01f9 0C       		.uleb128 0xc
 4728 01fa 30030000 		.4byte	.LASF32
 4729 01fe 03       		.byte	0x3
 4730 01ff 7603     		.2byte	0x376
 4731 0201 A7000000 		.4byte	0xa7
 4732 0205 02       		.byte	0x2
 4733 0206 23       		.byte	0x23
 4734 0207 20       		.uleb128 0x20
 4735 0208 0C       		.uleb128 0xc
 4736 0209 C4080000 		.4byte	.LASF33
 4737 020d 03       		.byte	0x3
 4738 020e 7703     		.2byte	0x377
 4739 0210 49000000 		.4byte	0x49
 4740 0214 02       		.byte	0x2
 4741 0215 23       		.byte	0x23
 4742 0216 22       		.uleb128 0x22
 4743 0217 0B       		.uleb128 0xb
 4744 0218 434E5400 		.ascii	"CNT\000"
 4745 021c 03       		.byte	0x3
 4746 021d 7803     		.2byte	0x378
 4747 021f A2000000 		.4byte	0xa2
 4748 0223 02       		.byte	0x2
 4749 0224 23       		.byte	0x23
 4750 0225 24       		.uleb128 0x24
 4751 0226 0B       		.uleb128 0xb
 4752 0227 50534300 		.ascii	"PSC\000"
 4753 022b 03       		.byte	0x3
 4754 022c 7903     		.2byte	0x379
 4755 022e A7000000 		.4byte	0xa7
 4756 0232 02       		.byte	0x2
 4757 0233 23       		.byte	0x23
 4758 0234 28       		.uleb128 0x28
 4759 0235 0C       		.uleb128 0xc
 4760 0236 CE080000 		.4byte	.LASF34
 4761 023a 03       		.byte	0x3
 4762 023b 7A03     		.2byte	0x37a
 4763 023d 49000000 		.4byte	0x49
 4764 0241 02       		.byte	0x2
 4765 0242 23       		.byte	0x23
 4766 0243 2A       		.uleb128 0x2a
 4767 0244 0B       		.uleb128 0xb
 4768 0245 41525200 		.ascii	"ARR\000"
 4769 0249 03       		.byte	0x3
 4770 024a 7B03     		.2byte	0x37b
 4771 024c A2000000 		.4byte	0xa2
 4772 0250 02       		.byte	0x2
 4773 0251 23       		.byte	0x23
 4774 0252 2C       		.uleb128 0x2c
 4775 0253 0B       		.uleb128 0xb
 4776 0254 52435200 		.ascii	"RCR\000"
 4777 0258 03       		.byte	0x3
 4778 0259 7C03     		.2byte	0x37c
 4779 025b A7000000 		.4byte	0xa7
 4780 025f 02       		.byte	0x2
ARM GAS  C:\Users\CNous\AppData\Local\Temp\ccZi7tDD.s 			page 153


 4781 0260 23       		.byte	0x23
 4782 0261 30       		.uleb128 0x30
 4783 0262 0C       		.uleb128 0xc
 4784 0263 C8020000 		.4byte	.LASF35
 4785 0267 03       		.byte	0x3
 4786 0268 7D03     		.2byte	0x37d
 4787 026a 49000000 		.4byte	0x49
 4788 026e 02       		.byte	0x2
 4789 026f 23       		.byte	0x23
 4790 0270 32       		.uleb128 0x32
 4791 0271 0C       		.uleb128 0xc
 4792 0272 DC0B0000 		.4byte	.LASF36
 4793 0276 03       		.byte	0x3
 4794 0277 7E03     		.2byte	0x37e
 4795 0279 A2000000 		.4byte	0xa2
 4796 027d 02       		.byte	0x2
 4797 027e 23       		.byte	0x23
 4798 027f 34       		.uleb128 0x34
 4799 0280 0C       		.uleb128 0xc
 4800 0281 7C010000 		.4byte	.LASF37
 4801 0285 03       		.byte	0x3
 4802 0286 7F03     		.2byte	0x37f
 4803 0288 A2000000 		.4byte	0xa2
 4804 028c 02       		.byte	0x2
 4805 028d 23       		.byte	0x23
 4806 028e 38       		.uleb128 0x38
 4807 028f 0C       		.uleb128 0xc
 4808 0290 F90B0000 		.4byte	.LASF38
 4809 0294 03       		.byte	0x3
 4810 0295 8003     		.2byte	0x380
 4811 0297 A2000000 		.4byte	0xa2
 4812 029b 02       		.byte	0x2
 4813 029c 23       		.byte	0x23
 4814 029d 3C       		.uleb128 0x3c
 4815 029e 0C       		.uleb128 0xc
 4816 029f FE0B0000 		.4byte	.LASF39
 4817 02a3 03       		.byte	0x3
 4818 02a4 8103     		.2byte	0x381
 4819 02a6 A2000000 		.4byte	0xa2
 4820 02aa 02       		.byte	0x2
 4821 02ab 23       		.byte	0x23
 4822 02ac 40       		.uleb128 0x40
 4823 02ad 0C       		.uleb128 0xc
 4824 02ae 51090000 		.4byte	.LASF40
 4825 02b2 03       		.byte	0x3
 4826 02b3 8203     		.2byte	0x382
 4827 02b5 A7000000 		.4byte	0xa7
 4828 02b9 02       		.byte	0x2
 4829 02ba 23       		.byte	0x23
 4830 02bb 44       		.uleb128 0x44
 4831 02bc 0C       		.uleb128 0xc
 4832 02bd D3020000 		.4byte	.LASF41
 4833 02c1 03       		.byte	0x3
 4834 02c2 8303     		.2byte	0x383
 4835 02c4 49000000 		.4byte	0x49
 4836 02c8 02       		.byte	0x2
 4837 02c9 23       		.byte	0x23
ARM GAS  C:\Users\CNous\AppData\Local\Temp\ccZi7tDD.s 			page 154


 4838 02ca 46       		.uleb128 0x46
 4839 02cb 0B       		.uleb128 0xb
 4840 02cc 44435200 		.ascii	"DCR\000"
 4841 02d0 03       		.byte	0x3
 4842 02d1 8403     		.2byte	0x384
 4843 02d3 A7000000 		.4byte	0xa7
 4844 02d7 02       		.byte	0x2
 4845 02d8 23       		.byte	0x23
 4846 02d9 48       		.uleb128 0x48
 4847 02da 0C       		.uleb128 0xc
 4848 02db DE020000 		.4byte	.LASF42
 4849 02df 03       		.byte	0x3
 4850 02e0 8503     		.2byte	0x385
 4851 02e2 49000000 		.4byte	0x49
 4852 02e6 02       		.byte	0x2
 4853 02e7 23       		.byte	0x23
 4854 02e8 4A       		.uleb128 0x4a
 4855 02e9 0C       		.uleb128 0xc
 4856 02ea 8C0A0000 		.4byte	.LASF43
 4857 02ee 03       		.byte	0x3
 4858 02ef 8603     		.2byte	0x386
 4859 02f1 A7000000 		.4byte	0xa7
 4860 02f5 02       		.byte	0x2
 4861 02f6 23       		.byte	0x23
 4862 02f7 4C       		.uleb128 0x4c
 4863 02f8 0C       		.uleb128 0xc
 4864 02f9 E9020000 		.4byte	.LASF44
 4865 02fd 03       		.byte	0x3
 4866 02fe 8703     		.2byte	0x387
 4867 0300 49000000 		.4byte	0x49
 4868 0304 02       		.byte	0x2
 4869 0305 23       		.byte	0x23
 4870 0306 4E       		.uleb128 0x4e
 4871 0307 0B       		.uleb128 0xb
 4872 0308 4F5200   		.ascii	"OR\000"
 4873 030b 03       		.byte	0x3
 4874 030c 8803     		.2byte	0x388
 4875 030e A7000000 		.4byte	0xa7
 4876 0312 02       		.byte	0x2
 4877 0313 23       		.byte	0x23
 4878 0314 50       		.uleb128 0x50
 4879 0315 0C       		.uleb128 0xc
 4880 0316 F4020000 		.4byte	.LASF45
 4881 031a 03       		.byte	0x3
 4882 031b 8903     		.2byte	0x389
 4883 031d 49000000 		.4byte	0x49
 4884 0321 02       		.byte	0x2
 4885 0322 23       		.byte	0x23
 4886 0323 52       		.uleb128 0x52
 4887 0324 00       		.byte	0
 4888 0325 09       		.uleb128 0x9
 4889 0326 F0030000 		.4byte	.LASF46
 4890 032a 03       		.byte	0x3
 4891 032b 8A03     		.2byte	0x38a
 4892 032d 01010000 		.4byte	0x101
 4893 0331 0D       		.uleb128 0xd
 4894 0332 0C       		.byte	0xc
ARM GAS  C:\Users\CNous\AppData\Local\Temp\ccZi7tDD.s 			page 155


 4895 0333 04       		.byte	0x4
 4896 0334 31       		.byte	0x31
 4897 0335 80030000 		.4byte	0x380
 4898 0339 0E       		.uleb128 0xe
 4899 033a D8080000 		.4byte	.LASF47
 4900 033e 04       		.byte	0x4
 4901 033f 33       		.byte	0x33
 4902 0340 49000000 		.4byte	0x49
 4903 0344 02       		.byte	0x2
 4904 0345 23       		.byte	0x23
 4905 0346 00       		.uleb128 0
 4906 0347 0E       		.uleb128 0xe
 4907 0348 86000000 		.4byte	.LASF48
 4908 034c 04       		.byte	0x4
 4909 034d 36       		.byte	0x36
 4910 034e 49000000 		.4byte	0x49
 4911 0352 02       		.byte	0x2
 4912 0353 23       		.byte	0x23
 4913 0354 02       		.uleb128 0x2
 4914 0355 0E       		.uleb128 0xe
 4915 0356 B10A0000 		.4byte	.LASF49
 4916 035a 04       		.byte	0x4
 4917 035b 39       		.byte	0x39
 4918 035c 6D000000 		.4byte	0x6d
 4919 0360 02       		.byte	0x2
 4920 0361 23       		.byte	0x23
 4921 0362 04       		.uleb128 0x4
 4922 0363 0E       		.uleb128 0xe
 4923 0364 B6040000 		.4byte	.LASF50
 4924 0368 04       		.byte	0x4
 4925 0369 3D       		.byte	0x3d
 4926 036a 49000000 		.4byte	0x49
 4927 036e 02       		.byte	0x2
 4928 036f 23       		.byte	0x23
 4929 0370 08       		.uleb128 0x8
 4930 0371 0E       		.uleb128 0xe
 4931 0372 950C0000 		.4byte	.LASF51
 4932 0376 04       		.byte	0x4
 4933 0377 40       		.byte	0x40
 4934 0378 30000000 		.4byte	0x30
 4935 037c 02       		.byte	0x2
 4936 037d 23       		.byte	0x23
 4937 037e 0A       		.uleb128 0xa
 4938 037f 00       		.byte	0
 4939 0380 03       		.uleb128 0x3
 4940 0381 BC0A0000 		.4byte	.LASF52
 4941 0385 04       		.byte	0x4
 4942 0386 48       		.byte	0x48
 4943 0387 31030000 		.4byte	0x331
 4944 038b 0D       		.uleb128 0xd
 4945 038c 14       		.byte	0x14
 4946 038d 04       		.byte	0x4
 4947 038e 4E       		.byte	0x4e
 4948 038f 04040000 		.4byte	0x404
 4949 0393 0E       		.uleb128 0xe
 4950 0394 8A0B0000 		.4byte	.LASF53
 4951 0398 04       		.byte	0x4
ARM GAS  C:\Users\CNous\AppData\Local\Temp\ccZi7tDD.s 			page 156


 4952 0399 50       		.byte	0x50
 4953 039a 49000000 		.4byte	0x49
 4954 039e 02       		.byte	0x2
 4955 039f 23       		.byte	0x23
 4956 03a0 00       		.uleb128 0
 4957 03a1 0E       		.uleb128 0xe
 4958 03a2 59080000 		.4byte	.LASF54
 4959 03a6 04       		.byte	0x4
 4960 03a7 53       		.byte	0x53
 4961 03a8 49000000 		.4byte	0x49
 4962 03ac 02       		.byte	0x2
 4963 03ad 23       		.byte	0x23
 4964 03ae 02       		.uleb128 0x2
 4965 03af 0E       		.uleb128 0xe
 4966 03b0 0F030000 		.4byte	.LASF55
 4967 03b4 04       		.byte	0x4
 4968 03b5 56       		.byte	0x56
 4969 03b6 49000000 		.4byte	0x49
 4970 03ba 02       		.byte	0x2
 4971 03bb 23       		.byte	0x23
 4972 03bc 04       		.uleb128 0x4
 4973 03bd 0E       		.uleb128 0xe
 4974 03be 23010000 		.4byte	.LASF56
 4975 03c2 04       		.byte	0x4
 4976 03c3 5A       		.byte	0x5a
 4977 03c4 6D000000 		.4byte	0x6d
 4978 03c8 02       		.byte	0x2
 4979 03c9 23       		.byte	0x23
 4980 03ca 08       		.uleb128 0x8
 4981 03cb 0E       		.uleb128 0xe
 4982 03cc A7040000 		.4byte	.LASF57
 4983 03d0 04       		.byte	0x4
 4984 03d1 5D       		.byte	0x5d
 4985 03d2 49000000 		.4byte	0x49
 4986 03d6 02       		.byte	0x2
 4987 03d7 23       		.byte	0x23
 4988 03d8 0C       		.uleb128 0xc
 4989 03d9 0E       		.uleb128 0xe
 4990 03da 510A0000 		.4byte	.LASF58
 4991 03de 04       		.byte	0x4
 4992 03df 60       		.byte	0x60
 4993 03e0 49000000 		.4byte	0x49
 4994 03e4 02       		.byte	0x2
 4995 03e5 23       		.byte	0x23
 4996 03e6 0E       		.uleb128 0xe
 4997 03e7 0E       		.uleb128 0xe
 4998 03e8 0E0D0000 		.4byte	.LASF59
 4999 03ec 04       		.byte	0x4
 5000 03ed 64       		.byte	0x64
 5001 03ee 49000000 		.4byte	0x49
 5002 03f2 02       		.byte	0x2
 5003 03f3 23       		.byte	0x23
 5004 03f4 10       		.uleb128 0x10
 5005 03f5 0E       		.uleb128 0xe
 5006 03f6 99070000 		.4byte	.LASF60
 5007 03fa 04       		.byte	0x4
 5008 03fb 68       		.byte	0x68
ARM GAS  C:\Users\CNous\AppData\Local\Temp\ccZi7tDD.s 			page 157


 5009 03fc 49000000 		.4byte	0x49
 5010 0400 02       		.byte	0x2
 5011 0401 23       		.byte	0x23
 5012 0402 12       		.uleb128 0x12
 5013 0403 00       		.byte	0
 5014 0404 03       		.uleb128 0x3
 5015 0405 280C0000 		.4byte	.LASF61
 5016 0409 04       		.byte	0x4
 5017 040a 6B       		.byte	0x6b
 5018 040b 8B030000 		.4byte	0x38b
 5019 040f 0D       		.uleb128 0xd
 5020 0410 0A       		.byte	0xa
 5021 0411 04       		.byte	0x4
 5022 0412 71       		.byte	0x71
 5023 0413 5E040000 		.4byte	0x45e
 5024 0417 0E       		.uleb128 0xe
 5025 0418 50020000 		.4byte	.LASF62
 5026 041c 04       		.byte	0x4
 5027 041d 74       		.byte	0x74
 5028 041e 49000000 		.4byte	0x49
 5029 0422 02       		.byte	0x2
 5030 0423 23       		.byte	0x23
 5031 0424 00       		.uleb128 0
 5032 0425 0E       		.uleb128 0xe
 5033 0426 79080000 		.4byte	.LASF63
 5034 042a 04       		.byte	0x4
 5035 042b 77       		.byte	0x77
 5036 042c 49000000 		.4byte	0x49
 5037 0430 02       		.byte	0x2
 5038 0431 23       		.byte	0x23
 5039 0432 02       		.uleb128 0x2
 5040 0433 0E       		.uleb128 0xe
 5041 0434 DE010000 		.4byte	.LASF64
 5042 0438 04       		.byte	0x4
 5043 0439 7A       		.byte	0x7a
 5044 043a 49000000 		.4byte	0x49
 5045 043e 02       		.byte	0x2
 5046 043f 23       		.byte	0x23
 5047 0440 04       		.uleb128 0x4
 5048 0441 0E       		.uleb128 0xe
 5049 0442 74070000 		.4byte	.LASF65
 5050 0446 04       		.byte	0x4
 5051 0447 7D       		.byte	0x7d
 5052 0448 49000000 		.4byte	0x49
 5053 044c 02       		.byte	0x2
 5054 044d 23       		.byte	0x23
 5055 044e 06       		.uleb128 0x6
 5056 044f 0E       		.uleb128 0xe
 5057 0450 81010000 		.4byte	.LASF66
 5058 0454 04       		.byte	0x4
 5059 0455 80       		.byte	0x80
 5060 0456 49000000 		.4byte	0x49
 5061 045a 02       		.byte	0x2
 5062 045b 23       		.byte	0x23
 5063 045c 08       		.uleb128 0x8
 5064 045d 00       		.byte	0
 5065 045e 03       		.uleb128 0x3
ARM GAS  C:\Users\CNous\AppData\Local\Temp\ccZi7tDD.s 			page 158


 5066 045f EA0A0000 		.4byte	.LASF67
 5067 0463 04       		.byte	0x4
 5068 0464 82       		.byte	0x82
 5069 0465 0F040000 		.4byte	0x40f
 5070 0469 0D       		.uleb128 0xd
 5071 046a 0E       		.byte	0xe
 5072 046b 04       		.byte	0x4
 5073 046c 89       		.byte	0x89
 5074 046d D4040000 		.4byte	0x4d4
 5075 0471 0E       		.uleb128 0xe
 5076 0472 D6050000 		.4byte	.LASF68
 5077 0476 04       		.byte	0x4
 5078 0477 8C       		.byte	0x8c
 5079 0478 49000000 		.4byte	0x49
 5080 047c 02       		.byte	0x2
 5081 047d 23       		.byte	0x23
 5082 047e 00       		.uleb128 0
 5083 047f 0E       		.uleb128 0xe
 5084 0480 B1090000 		.4byte	.LASF69
 5085 0484 04       		.byte	0x4
 5086 0485 8F       		.byte	0x8f
 5087 0486 49000000 		.4byte	0x49
 5088 048a 02       		.byte	0x2
 5089 048b 23       		.byte	0x23
 5090 048c 02       		.uleb128 0x2
 5091 048d 0E       		.uleb128 0xe
 5092 048e 17090000 		.4byte	.LASF70
 5093 0492 04       		.byte	0x4
 5094 0493 92       		.byte	0x92
 5095 0494 49000000 		.4byte	0x49
 5096 0498 02       		.byte	0x2
 5097 0499 23       		.byte	0x23
 5098 049a 04       		.uleb128 0x4
 5099 049b 0E       		.uleb128 0xe
 5100 049c 3D070000 		.4byte	.LASF71
 5101 04a0 04       		.byte	0x4
 5102 04a1 95       		.byte	0x95
 5103 04a2 49000000 		.4byte	0x49
 5104 04a6 02       		.byte	0x2
 5105 04a7 23       		.byte	0x23
 5106 04a8 06       		.uleb128 0x6
 5107 04a9 0E       		.uleb128 0xe
 5108 04aa 23070000 		.4byte	.LASF72
 5109 04ae 04       		.byte	0x4
 5110 04af 99       		.byte	0x99
 5111 04b0 49000000 		.4byte	0x49
 5112 04b4 02       		.byte	0x2
 5113 04b5 23       		.byte	0x23
 5114 04b6 08       		.uleb128 0x8
 5115 04b7 0E       		.uleb128 0xe
 5116 04b8 950B0000 		.4byte	.LASF73
 5117 04bc 04       		.byte	0x4
 5118 04bd 9C       		.byte	0x9c
 5119 04be 49000000 		.4byte	0x49
 5120 04c2 02       		.byte	0x2
 5121 04c3 23       		.byte	0x23
 5122 04c4 0A       		.uleb128 0xa
ARM GAS  C:\Users\CNous\AppData\Local\Temp\ccZi7tDD.s 			page 159


 5123 04c5 0E       		.uleb128 0xe
 5124 04c6 0F060000 		.4byte	.LASF74
 5125 04ca 04       		.byte	0x4
 5126 04cb 9F       		.byte	0x9f
 5127 04cc 49000000 		.4byte	0x49
 5128 04d0 02       		.byte	0x2
 5129 04d1 23       		.byte	0x23
 5130 04d2 0C       		.uleb128 0xc
 5131 04d3 00       		.byte	0
 5132 04d4 03       		.uleb128 0x3
 5133 04d5 AC050000 		.4byte	.LASF75
 5134 04d9 04       		.byte	0x4
 5135 04da A1       		.byte	0xa1
 5136 04db 69040000 		.4byte	0x469
 5137 04df 0F       		.uleb128 0xf
 5138 04e0 790A0000 		.4byte	.LASF80
 5139 04e4 01       		.byte	0x1
 5140 04e5 770C     		.2byte	0xc77
 5141 04e7 01       		.byte	0x1
 5142 04e8 01       		.byte	0x1
 5143 04e9 36050000 		.4byte	0x536
 5144 04ed 10       		.uleb128 0x10
 5145 04ee E4050000 		.4byte	.LASF76
 5146 04f2 01       		.byte	0x1
 5147 04f3 770C     		.2byte	0xc77
 5148 04f5 36050000 		.4byte	0x536
 5149 04f9 10       		.uleb128 0x10
 5150 04fa 79080000 		.4byte	.LASF63
 5151 04fe 01       		.byte	0x1
 5152 04ff 770C     		.2byte	0xc77
 5153 0501 49000000 		.4byte	0x49
 5154 0505 10       		.uleb128 0x10
 5155 0506 DE010000 		.4byte	.LASF64
 5156 050a 01       		.byte	0x1
 5157 050b 770C     		.2byte	0xc77
 5158 050d 49000000 		.4byte	0x49
 5159 0511 10       		.uleb128 0x10
 5160 0512 81010000 		.4byte	.LASF66
 5161 0516 01       		.byte	0x1
 5162 0517 780C     		.2byte	0xc78
 5163 0519 49000000 		.4byte	0x49
 5164 051d 11       		.uleb128 0x11
 5165 051e 44010000 		.4byte	.LASF77
 5166 0522 01       		.byte	0x1
 5167 0523 7A0C     		.2byte	0xc7a
 5168 0525 49000000 		.4byte	0x49
 5169 0529 11       		.uleb128 0x11
 5170 052a 70040000 		.4byte	.LASF78
 5171 052e 01       		.byte	0x1
 5172 052f 7A0C     		.2byte	0xc7a
 5173 0531 49000000 		.4byte	0x49
 5174 0535 00       		.byte	0
 5175 0536 12       		.uleb128 0x12
 5176 0537 04       		.byte	0x4
 5177 0538 25030000 		.4byte	0x325
 5178 053c 13       		.uleb128 0x13
 5179 053d 01       		.byte	0x1
ARM GAS  C:\Users\CNous\AppData\Local\Temp\ccZi7tDD.s 			page 160


 5180 053e 3B060000 		.4byte	.LASF82
 5181 0542 01       		.byte	0x1
 5182 0543 2508     		.2byte	0x825
 5183 0545 01       		.byte	0x1
 5184 0546 01       		.byte	0x1
 5185 0547 64050000 		.4byte	0x564
 5186 054b 10       		.uleb128 0x10
 5187 054c E4050000 		.4byte	.LASF76
 5188 0550 01       		.byte	0x1
 5189 0551 2508     		.2byte	0x825
 5190 0553 36050000 		.4byte	0x536
 5191 0557 10       		.uleb128 0x10
 5192 0558 2A0D0000 		.4byte	.LASF79
 5193 055c 01       		.byte	0x1
 5194 055d 2508     		.2byte	0x825
 5195 055f 49000000 		.4byte	0x49
 5196 0563 00       		.byte	0
 5197 0564 0F       		.uleb128 0xf
 5198 0565 100A0000 		.4byte	.LASF81
 5199 0569 01       		.byte	0x1
 5200 056a A00C     		.2byte	0xca0
 5201 056c 01       		.byte	0x1
 5202 056d 01       		.byte	0x1
 5203 056e C7050000 		.4byte	0x5c7
 5204 0572 10       		.uleb128 0x10
 5205 0573 E4050000 		.4byte	.LASF76
 5206 0577 01       		.byte	0x1
 5207 0578 A00C     		.2byte	0xca0
 5208 057a 36050000 		.4byte	0x536
 5209 057e 10       		.uleb128 0x10
 5210 057f 79080000 		.4byte	.LASF63
 5211 0583 01       		.byte	0x1
 5212 0584 A00C     		.2byte	0xca0
 5213 0586 49000000 		.4byte	0x49
 5214 058a 10       		.uleb128 0x10
 5215 058b DE010000 		.4byte	.LASF64
 5216 058f 01       		.byte	0x1
 5217 0590 A00C     		.2byte	0xca0
 5218 0592 49000000 		.4byte	0x49
 5219 0596 10       		.uleb128 0x10
 5220 0597 81010000 		.4byte	.LASF66
 5221 059b 01       		.byte	0x1
 5222 059c A10C     		.2byte	0xca1
 5223 059e 49000000 		.4byte	0x49
 5224 05a2 11       		.uleb128 0x11
 5225 05a3 44010000 		.4byte	.LASF77
 5226 05a7 01       		.byte	0x1
 5227 05a8 A30C     		.2byte	0xca3
 5228 05aa 49000000 		.4byte	0x49
 5229 05ae 11       		.uleb128 0x11
 5230 05af 70040000 		.4byte	.LASF78
 5231 05b3 01       		.byte	0x1
 5232 05b4 A30C     		.2byte	0xca3
 5233 05b6 49000000 		.4byte	0x49
 5234 05ba 14       		.uleb128 0x14
 5235 05bb 746D7000 		.ascii	"tmp\000"
 5236 05bf 01       		.byte	0x1
ARM GAS  C:\Users\CNous\AppData\Local\Temp\ccZi7tDD.s 			page 161


 5237 05c0 A30C     		.2byte	0xca3
 5238 05c2 49000000 		.4byte	0x49
 5239 05c6 00       		.byte	0
 5240 05c7 13       		.uleb128 0x13
 5241 05c8 01       		.byte	0x1
 5242 05c9 56090000 		.4byte	.LASF83
 5243 05cd 01       		.byte	0x1
 5244 05ce 3E08     		.2byte	0x83e
 5245 05d0 01       		.byte	0x1
 5246 05d1 01       		.byte	0x1
 5247 05d2 EF050000 		.4byte	0x5ef
 5248 05d6 10       		.uleb128 0x10
 5249 05d7 E4050000 		.4byte	.LASF76
 5250 05db 01       		.byte	0x1
 5251 05dc 3E08     		.2byte	0x83e
 5252 05de 36050000 		.4byte	0x536
 5253 05e2 10       		.uleb128 0x10
 5254 05e3 2A0D0000 		.4byte	.LASF79
 5255 05e7 01       		.byte	0x1
 5256 05e8 3E08     		.2byte	0x83e
 5257 05ea 49000000 		.4byte	0x49
 5258 05ee 00       		.byte	0
 5259 05ef 0F       		.uleb128 0xf
 5260 05f0 5E060000 		.4byte	.LASF84
 5261 05f4 01       		.byte	0x1
 5262 05f5 CA0C     		.2byte	0xcca
 5263 05f7 01       		.byte	0x1
 5264 05f8 01       		.byte	0x1
 5265 05f9 52060000 		.4byte	0x652
 5266 05fd 10       		.uleb128 0x10
 5267 05fe E4050000 		.4byte	.LASF76
 5268 0602 01       		.byte	0x1
 5269 0603 CA0C     		.2byte	0xcca
 5270 0605 36050000 		.4byte	0x536
 5271 0609 10       		.uleb128 0x10
 5272 060a 79080000 		.4byte	.LASF63
 5273 060e 01       		.byte	0x1
 5274 060f CA0C     		.2byte	0xcca
 5275 0611 49000000 		.4byte	0x49
 5276 0615 10       		.uleb128 0x10
 5277 0616 DE010000 		.4byte	.LASF64
 5278 061a 01       		.byte	0x1
 5279 061b CA0C     		.2byte	0xcca
 5280 061d 49000000 		.4byte	0x49
 5281 0621 10       		.uleb128 0x10
 5282 0622 81010000 		.4byte	.LASF66
 5283 0626 01       		.byte	0x1
 5284 0627 CB0C     		.2byte	0xccb
 5285 0629 49000000 		.4byte	0x49
 5286 062d 11       		.uleb128 0x11
 5287 062e 4D010000 		.4byte	.LASF85
 5288 0632 01       		.byte	0x1
 5289 0633 CD0C     		.2byte	0xccd
 5290 0635 49000000 		.4byte	0x49
 5291 0639 11       		.uleb128 0x11
 5292 063a 70040000 		.4byte	.LASF78
 5293 063e 01       		.byte	0x1
ARM GAS  C:\Users\CNous\AppData\Local\Temp\ccZi7tDD.s 			page 162


 5294 063f CD0C     		.2byte	0xccd
 5295 0641 49000000 		.4byte	0x49
 5296 0645 14       		.uleb128 0x14
 5297 0646 746D7000 		.ascii	"tmp\000"
 5298 064a 01       		.byte	0x1
 5299 064b CD0C     		.2byte	0xccd
 5300 064d 49000000 		.4byte	0x49
 5301 0651 00       		.byte	0
 5302 0652 13       		.uleb128 0x13
 5303 0653 01       		.byte	0x1
 5304 0654 910A0000 		.4byte	.LASF86
 5305 0658 01       		.byte	0x1
 5306 0659 5608     		.2byte	0x856
 5307 065b 01       		.byte	0x1
 5308 065c 01       		.byte	0x1
 5309 065d 7A060000 		.4byte	0x67a
 5310 0661 10       		.uleb128 0x10
 5311 0662 E4050000 		.4byte	.LASF76
 5312 0666 01       		.byte	0x1
 5313 0667 5608     		.2byte	0x856
 5314 0669 36050000 		.4byte	0x536
 5315 066d 10       		.uleb128 0x10
 5316 066e 2A0D0000 		.4byte	.LASF79
 5317 0672 01       		.byte	0x1
 5318 0673 5608     		.2byte	0x856
 5319 0675 49000000 		.4byte	0x49
 5320 0679 00       		.byte	0
 5321 067a 0F       		.uleb128 0xf
 5322 067b 9C040000 		.4byte	.LASF87
 5323 067f 01       		.byte	0x1
 5324 0680 F30C     		.2byte	0xcf3
 5325 0682 01       		.byte	0x1
 5326 0683 01       		.byte	0x1
 5327 0684 DD060000 		.4byte	0x6dd
 5328 0688 10       		.uleb128 0x10
 5329 0689 E4050000 		.4byte	.LASF76
 5330 068d 01       		.byte	0x1
 5331 068e F30C     		.2byte	0xcf3
 5332 0690 36050000 		.4byte	0x536
 5333 0694 10       		.uleb128 0x10
 5334 0695 79080000 		.4byte	.LASF63
 5335 0699 01       		.byte	0x1
 5336 069a F30C     		.2byte	0xcf3
 5337 069c 49000000 		.4byte	0x49
 5338 06a0 10       		.uleb128 0x10
 5339 06a1 DE010000 		.4byte	.LASF64
 5340 06a5 01       		.byte	0x1
 5341 06a6 F30C     		.2byte	0xcf3
 5342 06a8 49000000 		.4byte	0x49
 5343 06ac 10       		.uleb128 0x10
 5344 06ad 81010000 		.4byte	.LASF66
 5345 06b1 01       		.byte	0x1
 5346 06b2 F40C     		.2byte	0xcf4
 5347 06b4 49000000 		.4byte	0x49
 5348 06b8 11       		.uleb128 0x11
 5349 06b9 4D010000 		.4byte	.LASF85
 5350 06bd 01       		.byte	0x1
ARM GAS  C:\Users\CNous\AppData\Local\Temp\ccZi7tDD.s 			page 163


 5351 06be F60C     		.2byte	0xcf6
 5352 06c0 49000000 		.4byte	0x49
 5353 06c4 11       		.uleb128 0x11
 5354 06c5 70040000 		.4byte	.LASF78
 5355 06c9 01       		.byte	0x1
 5356 06ca F60C     		.2byte	0xcf6
 5357 06cc 49000000 		.4byte	0x49
 5358 06d0 14       		.uleb128 0x14
 5359 06d1 746D7000 		.ascii	"tmp\000"
 5360 06d5 01       		.byte	0x1
 5361 06d6 F60C     		.2byte	0xcf6
 5362 06d8 49000000 		.4byte	0x49
 5363 06dc 00       		.byte	0
 5364 06dd 13       		.uleb128 0x13
 5365 06de 01       		.byte	0x1
 5366 06df 740D0000 		.4byte	.LASF88
 5367 06e3 01       		.byte	0x1
 5368 06e4 6E08     		.2byte	0x86e
 5369 06e6 01       		.byte	0x1
 5370 06e7 01       		.byte	0x1
 5371 06e8 05070000 		.4byte	0x705
 5372 06ec 10       		.uleb128 0x10
 5373 06ed E4050000 		.4byte	.LASF76
 5374 06f1 01       		.byte	0x1
 5375 06f2 6E08     		.2byte	0x86e
 5376 06f4 36050000 		.4byte	0x536
 5377 06f8 10       		.uleb128 0x10
 5378 06f9 2A0D0000 		.4byte	.LASF79
 5379 06fd 01       		.byte	0x1
 5380 06fe 6E08     		.2byte	0x86e
 5381 0700 49000000 		.4byte	0x49
 5382 0704 00       		.byte	0
 5383 0705 13       		.uleb128 0x13
 5384 0706 01       		.byte	0x1
 5385 0707 65010000 		.4byte	.LASF89
 5386 070b 01       		.byte	0x1
 5387 070c 3F0B     		.2byte	0xb3f
 5388 070e 01       		.byte	0x1
 5389 070f 01       		.byte	0x1
 5390 0710 39070000 		.4byte	0x739
 5391 0714 10       		.uleb128 0x10
 5392 0715 E4050000 		.4byte	.LASF76
 5393 0719 01       		.byte	0x1
 5394 071a 3F0B     		.2byte	0xb3f
 5395 071c 36050000 		.4byte	0x536
 5396 0720 10       		.uleb128 0x10
 5397 0721 60000000 		.4byte	.LASF90
 5398 0725 01       		.byte	0x1
 5399 0726 3F0B     		.2byte	0xb3f
 5400 0728 49000000 		.4byte	0x49
 5401 072c 11       		.uleb128 0x11
 5402 072d A0060000 		.4byte	.LASF91
 5403 0731 01       		.byte	0x1
 5404 0732 410B     		.2byte	0xb41
 5405 0734 49000000 		.4byte	0x49
 5406 0738 00       		.byte	0
 5407 0739 13       		.uleb128 0x13
ARM GAS  C:\Users\CNous\AppData\Local\Temp\ccZi7tDD.s 			page 164


 5408 073a 01       		.byte	0x1
 5409 073b 340D0000 		.4byte	.LASF92
 5410 073f 01       		.byte	0x1
 5411 0740 B70B     		.2byte	0xbb7
 5412 0742 01       		.byte	0x1
 5413 0743 01       		.byte	0x1
 5414 0744 85070000 		.4byte	0x785
 5415 0748 10       		.uleb128 0x10
 5416 0749 E4050000 		.4byte	.LASF76
 5417 074d 01       		.byte	0x1
 5418 074e B70B     		.2byte	0xbb7
 5419 0750 36050000 		.4byte	0x536
 5420 0754 10       		.uleb128 0x10
 5421 0755 0F070000 		.4byte	.LASF93
 5422 0759 01       		.byte	0x1
 5423 075a B70B     		.2byte	0xbb7
 5424 075c 49000000 		.4byte	0x49
 5425 0760 10       		.uleb128 0x10
 5426 0761 A8060000 		.4byte	.LASF94
 5427 0765 01       		.byte	0x1
 5428 0766 B80B     		.2byte	0xbb8
 5429 0768 49000000 		.4byte	0x49
 5430 076c 10       		.uleb128 0x10
 5431 076d F40C0000 		.4byte	.LASF95
 5432 0771 01       		.byte	0x1
 5433 0772 B80B     		.2byte	0xbb8
 5434 0774 49000000 		.4byte	0x49
 5435 0778 11       		.uleb128 0x11
 5436 0779 A0060000 		.4byte	.LASF91
 5437 077d 01       		.byte	0x1
 5438 077e BA0B     		.2byte	0xbba
 5439 0780 49000000 		.4byte	0x49
 5440 0784 00       		.byte	0
 5441 0785 15       		.uleb128 0x15
 5442 0786 01       		.byte	0x1
 5443 0787 420D0000 		.4byte	.LASF96
 5444 078b 01       		.byte	0x1
 5445 078c C2       		.byte	0xc2
 5446 078d 01       		.byte	0x1
 5447 078e 00000000 		.4byte	.LFB110
 5448 0792 D4010000 		.4byte	.LFE110
 5449 0796 00000000 		.4byte	.LLST0
 5450 079a 01       		.byte	0x1
 5451 079b 6F0A0000 		.4byte	0xa6f
 5452 079f 16       		.uleb128 0x16
 5453 07a0 E4050000 		.4byte	.LASF76
 5454 07a4 01       		.byte	0x1
 5455 07a5 C2       		.byte	0xc2
 5456 07a6 36050000 		.4byte	0x536
 5457 07aa 20000000 		.4byte	.LLST1
 5458 07ae 17       		.uleb128 0x17
 5459 07af B6000000 		.4byte	.LVL2
 5460 07b3 C1260000 		.4byte	0x26c1
 5461 07b7 C8070000 		.4byte	0x7c8
 5462 07bb 18       		.uleb128 0x18
 5463 07bc 01       		.byte	0x1
 5464 07bd 51       		.byte	0x51
ARM GAS  C:\Users\CNous\AppData\Local\Temp\ccZi7tDD.s 			page 165


 5465 07be 01       		.byte	0x1
 5466 07bf 31       		.byte	0x31
 5467 07c0 18       		.uleb128 0x18
 5468 07c1 01       		.byte	0x1
 5469 07c2 50       		.byte	0x50
 5470 07c3 03       		.byte	0x3
 5471 07c4 0A       		.byte	0xa
 5472 07c5 0001     		.2byte	0x100
 5473 07c7 00       		.byte	0
 5474 07c8 19       		.uleb128 0x19
 5475 07c9 C4000000 		.4byte	.LVL3
 5476 07cd 01       		.byte	0x1
 5477 07ce C1260000 		.4byte	0x26c1
 5478 07d2 E3070000 		.4byte	0x7e3
 5479 07d6 18       		.uleb128 0x18
 5480 07d7 01       		.byte	0x1
 5481 07d8 51       		.byte	0x51
 5482 07d9 01       		.byte	0x1
 5483 07da 30       		.byte	0x30
 5484 07db 18       		.uleb128 0x18
 5485 07dc 01       		.byte	0x1
 5486 07dd 50       		.byte	0x50
 5487 07de 03       		.byte	0x3
 5488 07df 0A       		.byte	0xa
 5489 07e0 0001     		.2byte	0x100
 5490 07e2 00       		.byte	0
 5491 07e3 17       		.uleb128 0x17
 5492 07e4 CC000000 		.4byte	.LVL5
 5493 07e8 DB260000 		.4byte	0x26db
 5494 07ec FB070000 		.4byte	0x7fb
 5495 07f0 18       		.uleb128 0x18
 5496 07f1 01       		.byte	0x1
 5497 07f2 51       		.byte	0x51
 5498 07f3 01       		.byte	0x1
 5499 07f4 31       		.byte	0x31
 5500 07f5 18       		.uleb128 0x18
 5501 07f6 01       		.byte	0x1
 5502 07f7 50       		.byte	0x50
 5503 07f8 01       		.byte	0x1
 5504 07f9 31       		.byte	0x31
 5505 07fa 00       		.byte	0
 5506 07fb 19       		.uleb128 0x19
 5507 07fc D8000000 		.4byte	.LVL6
 5508 0800 01       		.byte	0x1
 5509 0801 DB260000 		.4byte	0x26db
 5510 0805 14080000 		.4byte	0x814
 5511 0809 18       		.uleb128 0x18
 5512 080a 01       		.byte	0x1
 5513 080b 51       		.byte	0x51
 5514 080c 01       		.byte	0x1
 5515 080d 30       		.byte	0x30
 5516 080e 18       		.uleb128 0x18
 5517 080f 01       		.byte	0x1
 5518 0810 50       		.byte	0x50
 5519 0811 01       		.byte	0x1
 5520 0812 31       		.byte	0x31
 5521 0813 00       		.byte	0
ARM GAS  C:\Users\CNous\AppData\Local\Temp\ccZi7tDD.s 			page 166


 5522 0814 17       		.uleb128 0x17
 5523 0815 E0000000 		.4byte	.LVL8
 5524 0819 C1260000 		.4byte	0x26c1
 5525 081d 2C080000 		.4byte	0x82c
 5526 0821 18       		.uleb128 0x18
 5527 0822 01       		.byte	0x1
 5528 0823 51       		.byte	0x51
 5529 0824 01       		.byte	0x1
 5530 0825 31       		.byte	0x31
 5531 0826 18       		.uleb128 0x18
 5532 0827 01       		.byte	0x1
 5533 0828 50       		.byte	0x50
 5534 0829 01       		.byte	0x1
 5535 082a 31       		.byte	0x31
 5536 082b 00       		.byte	0
 5537 082c 19       		.uleb128 0x19
 5538 082d EC000000 		.4byte	.LVL9
 5539 0831 01       		.byte	0x1
 5540 0832 C1260000 		.4byte	0x26c1
 5541 0836 45080000 		.4byte	0x845
 5542 083a 18       		.uleb128 0x18
 5543 083b 01       		.byte	0x1
 5544 083c 51       		.byte	0x51
 5545 083d 01       		.byte	0x1
 5546 083e 30       		.byte	0x30
 5547 083f 18       		.uleb128 0x18
 5548 0840 01       		.byte	0x1
 5549 0841 50       		.byte	0x50
 5550 0842 01       		.byte	0x1
 5551 0843 31       		.byte	0x31
 5552 0844 00       		.byte	0
 5553 0845 17       		.uleb128 0x17
 5554 0846 F4000000 		.4byte	.LVL11
 5555 084a C1260000 		.4byte	0x26c1
 5556 084e 5D080000 		.4byte	0x85d
 5557 0852 18       		.uleb128 0x18
 5558 0853 01       		.byte	0x1
 5559 0854 51       		.byte	0x51
 5560 0855 01       		.byte	0x1
 5561 0856 31       		.byte	0x31
 5562 0857 18       		.uleb128 0x18
 5563 0858 01       		.byte	0x1
 5564 0859 50       		.byte	0x50
 5565 085a 01       		.byte	0x1
 5566 085b 32       		.byte	0x32
 5567 085c 00       		.byte	0
 5568 085d 19       		.uleb128 0x19
 5569 085e 00010000 		.4byte	.LVL12
 5570 0862 01       		.byte	0x1
 5571 0863 C1260000 		.4byte	0x26c1
 5572 0867 76080000 		.4byte	0x876
 5573 086b 18       		.uleb128 0x18
 5574 086c 01       		.byte	0x1
 5575 086d 51       		.byte	0x51
 5576 086e 01       		.byte	0x1
 5577 086f 30       		.byte	0x30
 5578 0870 18       		.uleb128 0x18
ARM GAS  C:\Users\CNous\AppData\Local\Temp\ccZi7tDD.s 			page 167


 5579 0871 01       		.byte	0x1
 5580 0872 50       		.byte	0x50
 5581 0873 01       		.byte	0x1
 5582 0874 32       		.byte	0x32
 5583 0875 00       		.byte	0
 5584 0876 17       		.uleb128 0x17
 5585 0877 08010000 		.4byte	.LVL14
 5586 087b C1260000 		.4byte	0x26c1
 5587 087f 8E080000 		.4byte	0x88e
 5588 0883 18       		.uleb128 0x18
 5589 0884 01       		.byte	0x1
 5590 0885 51       		.byte	0x51
 5591 0886 01       		.byte	0x1
 5592 0887 31       		.byte	0x31
 5593 0888 18       		.uleb128 0x18
 5594 0889 01       		.byte	0x1
 5595 088a 50       		.byte	0x50
 5596 088b 01       		.byte	0x1
 5597 088c 34       		.byte	0x34
 5598 088d 00       		.byte	0
 5599 088e 19       		.uleb128 0x19
 5600 088f 14010000 		.4byte	.LVL15
 5601 0893 01       		.byte	0x1
 5602 0894 C1260000 		.4byte	0x26c1
 5603 0898 A7080000 		.4byte	0x8a7
 5604 089c 18       		.uleb128 0x18
 5605 089d 01       		.byte	0x1
 5606 089e 51       		.byte	0x51
 5607 089f 01       		.byte	0x1
 5608 08a0 30       		.byte	0x30
 5609 08a1 18       		.uleb128 0x18
 5610 08a2 01       		.byte	0x1
 5611 08a3 50       		.byte	0x50
 5612 08a4 01       		.byte	0x1
 5613 08a5 34       		.byte	0x34
 5614 08a6 00       		.byte	0
 5615 08a7 17       		.uleb128 0x17
 5616 08a8 1C010000 		.4byte	.LVL17
 5617 08ac C1260000 		.4byte	0x26c1
 5618 08b0 BF080000 		.4byte	0x8bf
 5619 08b4 18       		.uleb128 0x18
 5620 08b5 01       		.byte	0x1
 5621 08b6 51       		.byte	0x51
 5622 08b7 01       		.byte	0x1
 5623 08b8 31       		.byte	0x31
 5624 08b9 18       		.uleb128 0x18
 5625 08ba 01       		.byte	0x1
 5626 08bb 50       		.byte	0x50
 5627 08bc 01       		.byte	0x1
 5628 08bd 38       		.byte	0x38
 5629 08be 00       		.byte	0
 5630 08bf 19       		.uleb128 0x19
 5631 08c0 28010000 		.4byte	.LVL18
 5632 08c4 01       		.byte	0x1
 5633 08c5 C1260000 		.4byte	0x26c1
 5634 08c9 D8080000 		.4byte	0x8d8
 5635 08cd 18       		.uleb128 0x18
ARM GAS  C:\Users\CNous\AppData\Local\Temp\ccZi7tDD.s 			page 168


 5636 08ce 01       		.byte	0x1
 5637 08cf 51       		.byte	0x51
 5638 08d0 01       		.byte	0x1
 5639 08d1 30       		.byte	0x30
 5640 08d2 18       		.uleb128 0x18
 5641 08d3 01       		.byte	0x1
 5642 08d4 50       		.byte	0x50
 5643 08d5 01       		.byte	0x1
 5644 08d6 38       		.byte	0x38
 5645 08d7 00       		.byte	0
 5646 08d8 17       		.uleb128 0x17
 5647 08d9 30010000 		.4byte	.LVL20
 5648 08dd C1260000 		.4byte	0x26c1
 5649 08e1 F0080000 		.4byte	0x8f0
 5650 08e5 18       		.uleb128 0x18
 5651 08e6 01       		.byte	0x1
 5652 08e7 51       		.byte	0x51
 5653 08e8 01       		.byte	0x1
 5654 08e9 31       		.byte	0x31
 5655 08ea 18       		.uleb128 0x18
 5656 08eb 01       		.byte	0x1
 5657 08ec 50       		.byte	0x50
 5658 08ed 01       		.byte	0x1
 5659 08ee 40       		.byte	0x40
 5660 08ef 00       		.byte	0
 5661 08f0 19       		.uleb128 0x19
 5662 08f1 3C010000 		.4byte	.LVL21
 5663 08f5 01       		.byte	0x1
 5664 08f6 C1260000 		.4byte	0x26c1
 5665 08fa 09090000 		.4byte	0x909
 5666 08fe 18       		.uleb128 0x18
 5667 08ff 01       		.byte	0x1
 5668 0900 51       		.byte	0x51
 5669 0901 01       		.byte	0x1
 5670 0902 30       		.byte	0x30
 5671 0903 18       		.uleb128 0x18
 5672 0904 01       		.byte	0x1
 5673 0905 50       		.byte	0x50
 5674 0906 01       		.byte	0x1
 5675 0907 40       		.byte	0x40
 5676 0908 00       		.byte	0
 5677 0909 17       		.uleb128 0x17
 5678 090a 44010000 		.4byte	.LVL23
 5679 090e C1260000 		.4byte	0x26c1
 5680 0912 22090000 		.4byte	0x922
 5681 0916 18       		.uleb128 0x18
 5682 0917 01       		.byte	0x1
 5683 0918 51       		.byte	0x51
 5684 0919 01       		.byte	0x1
 5685 091a 31       		.byte	0x31
 5686 091b 18       		.uleb128 0x18
 5687 091c 01       		.byte	0x1
 5688 091d 50       		.byte	0x50
 5689 091e 02       		.byte	0x2
 5690 091f 08       		.byte	0x8
 5691 0920 20       		.byte	0x20
 5692 0921 00       		.byte	0
ARM GAS  C:\Users\CNous\AppData\Local\Temp\ccZi7tDD.s 			page 169


 5693 0922 19       		.uleb128 0x19
 5694 0923 50010000 		.4byte	.LVL24
 5695 0927 01       		.byte	0x1
 5696 0928 C1260000 		.4byte	0x26c1
 5697 092c 3C090000 		.4byte	0x93c
 5698 0930 18       		.uleb128 0x18
 5699 0931 01       		.byte	0x1
 5700 0932 51       		.byte	0x51
 5701 0933 01       		.byte	0x1
 5702 0934 30       		.byte	0x30
 5703 0935 18       		.uleb128 0x18
 5704 0936 01       		.byte	0x1
 5705 0937 50       		.byte	0x50
 5706 0938 02       		.byte	0x2
 5707 0939 08       		.byte	0x8
 5708 093a 20       		.byte	0x20
 5709 093b 00       		.byte	0
 5710 093c 17       		.uleb128 0x17
 5711 093d 58010000 		.4byte	.LVL26
 5712 0941 DB260000 		.4byte	0x26db
 5713 0945 54090000 		.4byte	0x954
 5714 0949 18       		.uleb128 0x18
 5715 094a 01       		.byte	0x1
 5716 094b 51       		.byte	0x51
 5717 094c 01       		.byte	0x1
 5718 094d 31       		.byte	0x31
 5719 094e 18       		.uleb128 0x18
 5720 094f 01       		.byte	0x1
 5721 0950 50       		.byte	0x50
 5722 0951 01       		.byte	0x1
 5723 0952 32       		.byte	0x32
 5724 0953 00       		.byte	0
 5725 0954 19       		.uleb128 0x19
 5726 0955 64010000 		.4byte	.LVL27
 5727 0959 01       		.byte	0x1
 5728 095a DB260000 		.4byte	0x26db
 5729 095e 6D090000 		.4byte	0x96d
 5730 0962 18       		.uleb128 0x18
 5731 0963 01       		.byte	0x1
 5732 0964 51       		.byte	0x51
 5733 0965 01       		.byte	0x1
 5734 0966 30       		.byte	0x30
 5735 0967 18       		.uleb128 0x18
 5736 0968 01       		.byte	0x1
 5737 0969 50       		.byte	0x50
 5738 096a 01       		.byte	0x1
 5739 096b 32       		.byte	0x32
 5740 096c 00       		.byte	0
 5741 096d 17       		.uleb128 0x17
 5742 096e 6E010000 		.4byte	.LVL29
 5743 0972 DB260000 		.4byte	0x26db
 5744 0976 87090000 		.4byte	0x987
 5745 097a 18       		.uleb128 0x18
 5746 097b 01       		.byte	0x1
 5747 097c 51       		.byte	0x51
 5748 097d 01       		.byte	0x1
 5749 097e 31       		.byte	0x31
ARM GAS  C:\Users\CNous\AppData\Local\Temp\ccZi7tDD.s 			page 170


 5750 097f 18       		.uleb128 0x18
 5751 0980 01       		.byte	0x1
 5752 0981 50       		.byte	0x50
 5753 0982 03       		.byte	0x3
 5754 0983 40       		.byte	0x40
 5755 0984 3C       		.byte	0x3c
 5756 0985 24       		.byte	0x24
 5757 0986 00       		.byte	0
 5758 0987 19       		.uleb128 0x19
 5759 0988 7C010000 		.4byte	.LVL30
 5760 098c 01       		.byte	0x1
 5761 098d DB260000 		.4byte	0x26db
 5762 0991 A2090000 		.4byte	0x9a2
 5763 0995 18       		.uleb128 0x18
 5764 0996 01       		.byte	0x1
 5765 0997 51       		.byte	0x51
 5766 0998 01       		.byte	0x1
 5767 0999 30       		.byte	0x30
 5768 099a 18       		.uleb128 0x18
 5769 099b 01       		.byte	0x1
 5770 099c 50       		.byte	0x50
 5771 099d 03       		.byte	0x3
 5772 099e 40       		.byte	0x40
 5773 099f 3C       		.byte	0x3c
 5774 09a0 24       		.byte	0x24
 5775 09a1 00       		.byte	0
 5776 09a2 17       		.uleb128 0x17
 5777 09a3 86010000 		.4byte	.LVL32
 5778 09a7 DB260000 		.4byte	0x26db
 5779 09ab BC090000 		.4byte	0x9bc
 5780 09af 18       		.uleb128 0x18
 5781 09b0 01       		.byte	0x1
 5782 09b1 51       		.byte	0x51
 5783 09b2 01       		.byte	0x1
 5784 09b3 31       		.byte	0x31
 5785 09b4 18       		.uleb128 0x18
 5786 09b5 01       		.byte	0x1
 5787 09b6 50       		.byte	0x50
 5788 09b7 03       		.byte	0x3
 5789 09b8 40       		.byte	0x40
 5790 09b9 3D       		.byte	0x3d
 5791 09ba 24       		.byte	0x24
 5792 09bb 00       		.byte	0
 5793 09bc 19       		.uleb128 0x19
 5794 09bd 94010000 		.4byte	.LVL33
 5795 09c1 01       		.byte	0x1
 5796 09c2 DB260000 		.4byte	0x26db
 5797 09c6 D7090000 		.4byte	0x9d7
 5798 09ca 18       		.uleb128 0x18
 5799 09cb 01       		.byte	0x1
 5800 09cc 51       		.byte	0x51
 5801 09cd 01       		.byte	0x1
 5802 09ce 30       		.byte	0x30
 5803 09cf 18       		.uleb128 0x18
 5804 09d0 01       		.byte	0x1
 5805 09d1 50       		.byte	0x50
 5806 09d2 03       		.byte	0x3
ARM GAS  C:\Users\CNous\AppData\Local\Temp\ccZi7tDD.s 			page 171


 5807 09d3 40       		.byte	0x40
 5808 09d4 3D       		.byte	0x3d
 5809 09d5 24       		.byte	0x24
 5810 09d6 00       		.byte	0
 5811 09d7 17       		.uleb128 0x17
 5812 09d8 9E010000 		.4byte	.LVL35
 5813 09dc DB260000 		.4byte	0x26db
 5814 09e0 F1090000 		.4byte	0x9f1
 5815 09e4 18       		.uleb128 0x18
 5816 09e5 01       		.byte	0x1
 5817 09e6 51       		.byte	0x51
 5818 09e7 01       		.byte	0x1
 5819 09e8 31       		.byte	0x31
 5820 09e9 18       		.uleb128 0x18
 5821 09ea 01       		.byte	0x1
 5822 09eb 50       		.byte	0x50
 5823 09ec 03       		.byte	0x3
 5824 09ed 40       		.byte	0x40
 5825 09ee 3E       		.byte	0x3e
 5826 09ef 24       		.byte	0x24
 5827 09f0 00       		.byte	0
 5828 09f1 19       		.uleb128 0x19
 5829 09f2 AC010000 		.4byte	.LVL36
 5830 09f6 01       		.byte	0x1
 5831 09f7 DB260000 		.4byte	0x26db
 5832 09fb 0C0A0000 		.4byte	0xa0c
 5833 09ff 18       		.uleb128 0x18
 5834 0a00 01       		.byte	0x1
 5835 0a01 51       		.byte	0x51
 5836 0a02 01       		.byte	0x1
 5837 0a03 30       		.byte	0x30
 5838 0a04 18       		.uleb128 0x18
 5839 0a05 01       		.byte	0x1
 5840 0a06 50       		.byte	0x50
 5841 0a07 03       		.byte	0x3
 5842 0a08 40       		.byte	0x40
 5843 0a09 3E       		.byte	0x3e
 5844 0a0a 24       		.byte	0x24
 5845 0a0b 00       		.byte	0
 5846 0a0c 17       		.uleb128 0x17
 5847 0a0d B4010000 		.4byte	.LVL38
 5848 0a11 C1260000 		.4byte	0x26c1
 5849 0a15 250A0000 		.4byte	0xa25
 5850 0a19 18       		.uleb128 0x18
 5851 0a1a 01       		.byte	0x1
 5852 0a1b 51       		.byte	0x51
 5853 0a1c 01       		.byte	0x1
 5854 0a1d 31       		.byte	0x31
 5855 0a1e 18       		.uleb128 0x18
 5856 0a1f 01       		.byte	0x1
 5857 0a20 50       		.byte	0x50
 5858 0a21 02       		.byte	0x2
 5859 0a22 08       		.byte	0x8
 5860 0a23 40       		.byte	0x40
 5861 0a24 00       		.byte	0
 5862 0a25 19       		.uleb128 0x19
 5863 0a26 C0010000 		.4byte	.LVL39
ARM GAS  C:\Users\CNous\AppData\Local\Temp\ccZi7tDD.s 			page 172


 5864 0a2a 01       		.byte	0x1
 5865 0a2b C1260000 		.4byte	0x26c1
 5866 0a2f 3F0A0000 		.4byte	0xa3f
 5867 0a33 18       		.uleb128 0x18
 5868 0a34 01       		.byte	0x1
 5869 0a35 51       		.byte	0x51
 5870 0a36 01       		.byte	0x1
 5871 0a37 30       		.byte	0x30
 5872 0a38 18       		.uleb128 0x18
 5873 0a39 01       		.byte	0x1
 5874 0a3a 50       		.byte	0x50
 5875 0a3b 02       		.byte	0x2
 5876 0a3c 08       		.byte	0x8
 5877 0a3d 40       		.byte	0x40
 5878 0a3e 00       		.byte	0
 5879 0a3f 17       		.uleb128 0x17
 5880 0a40 C8010000 		.4byte	.LVL41
 5881 0a44 C1260000 		.4byte	0x26c1
 5882 0a48 580A0000 		.4byte	0xa58
 5883 0a4c 18       		.uleb128 0x18
 5884 0a4d 01       		.byte	0x1
 5885 0a4e 51       		.byte	0x51
 5886 0a4f 01       		.byte	0x1
 5887 0a50 31       		.byte	0x31
 5888 0a51 18       		.uleb128 0x18
 5889 0a52 01       		.byte	0x1
 5890 0a53 50       		.byte	0x50
 5891 0a54 02       		.byte	0x2
 5892 0a55 08       		.byte	0x8
 5893 0a56 80       		.byte	0x80
 5894 0a57 00       		.byte	0
 5895 0a58 1A       		.uleb128 0x1a
 5896 0a59 D4010000 		.4byte	.LVL42
 5897 0a5d 01       		.byte	0x1
 5898 0a5e C1260000 		.4byte	0x26c1
 5899 0a62 18       		.uleb128 0x18
 5900 0a63 01       		.byte	0x1
 5901 0a64 51       		.byte	0x51
 5902 0a65 01       		.byte	0x1
 5903 0a66 30       		.byte	0x30
 5904 0a67 18       		.uleb128 0x18
 5905 0a68 01       		.byte	0x1
 5906 0a69 50       		.byte	0x50
 5907 0a6a 02       		.byte	0x2
 5908 0a6b 08       		.byte	0x8
 5909 0a6c 80       		.byte	0x80
 5910 0a6d 00       		.byte	0
 5911 0a6e 00       		.byte	0
 5912 0a6f 1B       		.uleb128 0x1b
 5913 0a70 01       		.byte	0x1
 5914 0a71 C9090000 		.4byte	.LASF97
 5915 0a75 01       		.byte	0x1
 5916 0a76 1A01     		.2byte	0x11a
 5917 0a78 01       		.byte	0x1
 5918 0a79 00000000 		.4byte	.LFB111
 5919 0a7d AE000000 		.4byte	.LFE111
 5920 0a81 86010000 		.4byte	.LLST2
ARM GAS  C:\Users\CNous\AppData\Local\Temp\ccZi7tDD.s 			page 173


 5921 0a85 01       		.byte	0x1
 5922 0a86 B90A0000 		.4byte	0xab9
 5923 0a8a 1C       		.uleb128 0x1c
 5924 0a8b E4050000 		.4byte	.LASF76
 5925 0a8f 01       		.byte	0x1
 5926 0a90 1A01     		.2byte	0x11a
 5927 0a92 36050000 		.4byte	0x536
 5928 0a96 01       		.byte	0x1
 5929 0a97 50       		.byte	0x50
 5930 0a98 1D       		.uleb128 0x1d
 5931 0a99 FD070000 		.4byte	.LASF98
 5932 0a9d 01       		.byte	0x1
 5933 0a9e 1A01     		.2byte	0x11a
 5934 0aa0 B90A0000 		.4byte	0xab9
 5935 0aa4 A6010000 		.4byte	.LLST3
 5936 0aa8 1E       		.uleb128 0x1e
 5937 0aa9 EB060000 		.4byte	.LASF104
 5938 0aad 01       		.byte	0x1
 5939 0aae 1C01     		.2byte	0x11c
 5940 0ab0 49000000 		.4byte	0x49
 5941 0ab4 F9010000 		.4byte	.LLST4
 5942 0ab8 00       		.byte	0
 5943 0ab9 12       		.uleb128 0x12
 5944 0aba 04       		.byte	0x4
 5945 0abb 80030000 		.4byte	0x380
 5946 0abf 1F       		.uleb128 0x1f
 5947 0ac0 01       		.byte	0x1
 5948 0ac1 31050000 		.4byte	.LASF99
 5949 0ac5 01       		.byte	0x1
 5950 0ac6 4E01     		.2byte	0x14e
 5951 0ac8 01       		.byte	0x1
 5952 0ac9 00000000 		.4byte	.LFB112
 5953 0acd 12000000 		.4byte	.LFE112
 5954 0ad1 02       		.byte	0x2
 5955 0ad2 7D       		.byte	0x7d
 5956 0ad3 00       		.sleb128 0
 5957 0ad4 01       		.byte	0x1
 5958 0ad5 E80A0000 		.4byte	0xae8
 5959 0ad9 1C       		.uleb128 0x1c
 5960 0ada FD070000 		.4byte	.LASF98
 5961 0ade 01       		.byte	0x1
 5962 0adf 4E01     		.2byte	0x14e
 5963 0ae1 B90A0000 		.4byte	0xab9
 5964 0ae5 01       		.byte	0x1
 5965 0ae6 50       		.byte	0x50
 5966 0ae7 00       		.byte	0
 5967 0ae8 1F       		.uleb128 0x1f
 5968 0ae9 01       		.byte	0x1
 5969 0aea 6A090000 		.4byte	.LASF100
 5970 0aee 01       		.byte	0x1
 5971 0aef 6201     		.2byte	0x162
 5972 0af1 01       		.byte	0x1
 5973 0af2 00000000 		.4byte	.LFB113
 5974 0af6 06000000 		.4byte	.LFE113
 5975 0afa 02       		.byte	0x2
 5976 0afb 7D       		.byte	0x7d
 5977 0afc 00       		.sleb128 0
ARM GAS  C:\Users\CNous\AppData\Local\Temp\ccZi7tDD.s 			page 174


 5978 0afd 01       		.byte	0x1
 5979 0afe 2D0B0000 		.4byte	0xb2d
 5980 0b02 1C       		.uleb128 0x1c
 5981 0b03 E4050000 		.4byte	.LASF76
 5982 0b07 01       		.byte	0x1
 5983 0b08 6201     		.2byte	0x162
 5984 0b0a 36050000 		.4byte	0x536
 5985 0b0e 01       		.byte	0x1
 5986 0b0f 50       		.byte	0x50
 5987 0b10 1C       		.uleb128 0x1c
 5988 0b11 4A0B0000 		.4byte	.LASF101
 5989 0b15 01       		.byte	0x1
 5990 0b16 6201     		.2byte	0x162
 5991 0b18 49000000 		.4byte	0x49
 5992 0b1c 01       		.byte	0x1
 5993 0b1d 51       		.byte	0x51
 5994 0b1e 1C       		.uleb128 0x1c
 5995 0b1f 88060000 		.4byte	.LASF102
 5996 0b23 01       		.byte	0x1
 5997 0b24 6201     		.2byte	0x162
 5998 0b26 49000000 		.4byte	0x49
 5999 0b2a 01       		.byte	0x1
 6000 0b2b 52       		.byte	0x52
 6001 0b2c 00       		.byte	0
 6002 0b2d 1F       		.uleb128 0x1f
 6003 0b2e 01       		.byte	0x1
 6004 0b2f 68020000 		.4byte	.LASF103
 6005 0b33 01       		.byte	0x1
 6006 0b34 7901     		.2byte	0x179
 6007 0b36 01       		.byte	0x1
 6008 0b37 00000000 		.4byte	.LFB114
 6009 0b3b 10000000 		.4byte	.LFE114
 6010 0b3f 02       		.byte	0x2
 6011 0b40 7D       		.byte	0x7d
 6012 0b41 00       		.sleb128 0
 6013 0b42 01       		.byte	0x1
 6014 0b43 760B0000 		.4byte	0xb76
 6015 0b47 1C       		.uleb128 0x1c
 6016 0b48 E4050000 		.4byte	.LASF76
 6017 0b4c 01       		.byte	0x1
 6018 0b4d 7901     		.2byte	0x179
 6019 0b4f 36050000 		.4byte	0x536
 6020 0b53 01       		.byte	0x1
 6021 0b54 50       		.byte	0x50
 6022 0b55 1D       		.uleb128 0x1d
 6023 0b56 86000000 		.4byte	.LASF48
 6024 0b5a 01       		.byte	0x1
 6025 0b5b 7901     		.2byte	0x179
 6026 0b5d 49000000 		.4byte	0x49
 6027 0b61 44020000 		.4byte	.LLST5
 6028 0b65 1E       		.uleb128 0x1e
 6029 0b66 EB060000 		.4byte	.LASF104
 6030 0b6a 01       		.byte	0x1
 6031 0b6b 7B01     		.2byte	0x17b
 6032 0b6d 49000000 		.4byte	0x49
 6033 0b71 65020000 		.4byte	.LLST6
 6034 0b75 00       		.byte	0
ARM GAS  C:\Users\CNous\AppData\Local\Temp\ccZi7tDD.s 			page 175


 6035 0b76 1F       		.uleb128 0x1f
 6036 0b77 01       		.byte	0x1
 6037 0b78 3A0C0000 		.4byte	.LASF105
 6038 0b7c 01       		.byte	0x1
 6039 0b7d 9301     		.2byte	0x193
 6040 0b7f 01       		.byte	0x1
 6041 0b80 00000000 		.4byte	.LFB115
 6042 0b84 04000000 		.4byte	.LFE115
 6043 0b88 02       		.byte	0x2
 6044 0b89 7D       		.byte	0x7d
 6045 0b8a 00       		.sleb128 0
 6046 0b8b 01       		.byte	0x1
 6047 0b8c AD0B0000 		.4byte	0xbad
 6048 0b90 1C       		.uleb128 0x1c
 6049 0b91 E4050000 		.4byte	.LASF76
 6050 0b95 01       		.byte	0x1
 6051 0b96 9301     		.2byte	0x193
 6052 0b98 36050000 		.4byte	0x536
 6053 0b9c 01       		.byte	0x1
 6054 0b9d 50       		.byte	0x50
 6055 0b9e 1C       		.uleb128 0x1c
 6056 0b9f 48080000 		.4byte	.LASF106
 6057 0ba3 01       		.byte	0x1
 6058 0ba4 9301     		.2byte	0x193
 6059 0ba6 6D000000 		.4byte	0x6d
 6060 0baa 01       		.byte	0x1
 6061 0bab 51       		.byte	0x51
 6062 0bac 00       		.byte	0
 6063 0bad 1F       		.uleb128 0x1f
 6064 0bae 01       		.byte	0x1
 6065 0baf 54030000 		.4byte	.LASF107
 6066 0bb3 01       		.byte	0x1
 6067 0bb4 A201     		.2byte	0x1a2
 6068 0bb6 01       		.byte	0x1
 6069 0bb7 00000000 		.4byte	.LFB116
 6070 0bbb 04000000 		.4byte	.LFE116
 6071 0bbf 02       		.byte	0x2
 6072 0bc0 7D       		.byte	0x7d
 6073 0bc1 00       		.sleb128 0
 6074 0bc2 01       		.byte	0x1
 6075 0bc3 E40B0000 		.4byte	0xbe4
 6076 0bc7 1C       		.uleb128 0x1c
 6077 0bc8 E4050000 		.4byte	.LASF76
 6078 0bcc 01       		.byte	0x1
 6079 0bcd A201     		.2byte	0x1a2
 6080 0bcf 36050000 		.4byte	0x536
 6081 0bd3 01       		.byte	0x1
 6082 0bd4 50       		.byte	0x50
 6083 0bd5 1C       		.uleb128 0x1c
 6084 0bd6 96000000 		.4byte	.LASF108
 6085 0bda 01       		.byte	0x1
 6086 0bdb A201     		.2byte	0x1a2
 6087 0bdd 6D000000 		.4byte	0x6d
 6088 0be1 01       		.byte	0x1
 6089 0be2 51       		.byte	0x51
 6090 0be3 00       		.byte	0
 6091 0be4 20       		.uleb128 0x20
ARM GAS  C:\Users\CNous\AppData\Local\Temp\ccZi7tDD.s 			page 176


 6092 0be5 01       		.byte	0x1
 6093 0be6 22050000 		.4byte	.LASF109
 6094 0bea 01       		.byte	0x1
 6095 0beb B001     		.2byte	0x1b0
 6096 0bed 01       		.byte	0x1
 6097 0bee 6D000000 		.4byte	0x6d
 6098 0bf2 00000000 		.4byte	.LFB117
 6099 0bf6 04000000 		.4byte	.LFE117
 6100 0bfa 02       		.byte	0x2
 6101 0bfb 7D       		.byte	0x7d
 6102 0bfc 00       		.sleb128 0
 6103 0bfd 01       		.byte	0x1
 6104 0bfe 130C0000 		.4byte	0xc13
 6105 0c02 1D       		.uleb128 0x1d
 6106 0c03 E4050000 		.4byte	.LASF76
 6107 0c07 01       		.byte	0x1
 6108 0c08 B001     		.2byte	0x1b0
 6109 0c0a 36050000 		.4byte	0x536
 6110 0c0e 9A020000 		.4byte	.LLST7
 6111 0c12 00       		.byte	0
 6112 0c13 20       		.uleb128 0x20
 6113 0c14 01       		.byte	0x1
 6114 0c15 11050000 		.4byte	.LASF110
 6115 0c19 01       		.byte	0x1
 6116 0c1a BE01     		.2byte	0x1be
 6117 0c1c 01       		.byte	0x1
 6118 0c1d 49000000 		.4byte	0x49
 6119 0c21 00000000 		.4byte	.LFB118
 6120 0c25 06000000 		.4byte	.LFE118
 6121 0c29 02       		.byte	0x2
 6122 0c2a 7D       		.byte	0x7d
 6123 0c2b 00       		.sleb128 0
 6124 0c2c 01       		.byte	0x1
 6125 0c2d 420C0000 		.4byte	0xc42
 6126 0c31 1D       		.uleb128 0x1d
 6127 0c32 E4050000 		.4byte	.LASF76
 6128 0c36 01       		.byte	0x1
 6129 0c37 BE01     		.2byte	0x1be
 6130 0c39 36050000 		.4byte	0x536
 6131 0c3d BB020000 		.4byte	.LLST8
 6132 0c41 00       		.byte	0
 6133 0c42 1F       		.uleb128 0x1f
 6134 0c43 01       		.byte	0x1
 6135 0c44 02010000 		.4byte	.LASF111
 6136 0c48 01       		.byte	0x1
 6137 0c49 CE01     		.2byte	0x1ce
 6138 0c4b 01       		.byte	0x1
 6139 0c4c 00000000 		.4byte	.LFB119
 6140 0c50 1A000000 		.4byte	.LFE119
 6141 0c54 02       		.byte	0x2
 6142 0c55 7D       		.byte	0x7d
 6143 0c56 00       		.sleb128 0
 6144 0c57 01       		.byte	0x1
 6145 0c58 7B0C0000 		.4byte	0xc7b
 6146 0c5c 1C       		.uleb128 0x1c
 6147 0c5d E4050000 		.4byte	.LASF76
 6148 0c61 01       		.byte	0x1
ARM GAS  C:\Users\CNous\AppData\Local\Temp\ccZi7tDD.s 			page 177


 6149 0c62 CE01     		.2byte	0x1ce
 6150 0c64 36050000 		.4byte	0x536
 6151 0c68 01       		.byte	0x1
 6152 0c69 50       		.byte	0x50
 6153 0c6a 1D       		.uleb128 0x1d
 6154 0c6b 0B000000 		.4byte	.LASF112
 6155 0c6f 01       		.byte	0x1
 6156 0c70 CE01     		.2byte	0x1ce
 6157 0c72 F5000000 		.4byte	0xf5
 6158 0c76 DC020000 		.4byte	.LLST9
 6159 0c7a 00       		.byte	0
 6160 0c7b 1F       		.uleb128 0x1f
 6161 0c7c 01       		.byte	0x1
 6162 0c7d 320B0000 		.4byte	.LASF113
 6163 0c81 01       		.byte	0x1
 6164 0c82 EB01     		.2byte	0x1eb
 6165 0c84 01       		.byte	0x1
 6166 0c85 00000000 		.4byte	.LFB120
 6167 0c89 1A000000 		.4byte	.LFE120
 6168 0c8d 02       		.byte	0x2
 6169 0c8e 7D       		.byte	0x7d
 6170 0c8f 00       		.sleb128 0
 6171 0c90 01       		.byte	0x1
 6172 0c91 B40C0000 		.4byte	0xcb4
 6173 0c95 1C       		.uleb128 0x1c
 6174 0c96 E4050000 		.4byte	.LASF76
 6175 0c9a 01       		.byte	0x1
 6176 0c9b EB01     		.2byte	0x1eb
 6177 0c9d 36050000 		.4byte	0x536
 6178 0ca1 01       		.byte	0x1
 6179 0ca2 50       		.byte	0x50
 6180 0ca3 1D       		.uleb128 0x1d
 6181 0ca4 C6030000 		.4byte	.LASF114
 6182 0ca8 01       		.byte	0x1
 6183 0ca9 EB01     		.2byte	0x1eb
 6184 0cab 49000000 		.4byte	0x49
 6185 0caf 16030000 		.4byte	.LLST10
 6186 0cb3 00       		.byte	0
 6187 0cb4 1F       		.uleb128 0x1f
 6188 0cb5 01       		.byte	0x1
 6189 0cb6 BC010000 		.4byte	.LASF115
 6190 0cba 01       		.byte	0x1
 6191 0cbb 0402     		.2byte	0x204
 6192 0cbd 01       		.byte	0x1
 6193 0cbe 00000000 		.4byte	.LFB121
 6194 0cc2 1A000000 		.4byte	.LFE121
 6195 0cc6 02       		.byte	0x2
 6196 0cc7 7D       		.byte	0x7d
 6197 0cc8 00       		.sleb128 0
 6198 0cc9 01       		.byte	0x1
 6199 0cca ED0C0000 		.4byte	0xced
 6200 0cce 1C       		.uleb128 0x1c
 6201 0ccf E4050000 		.4byte	.LASF76
 6202 0cd3 01       		.byte	0x1
 6203 0cd4 0402     		.2byte	0x204
 6204 0cd6 36050000 		.4byte	0x536
 6205 0cda 01       		.byte	0x1
ARM GAS  C:\Users\CNous\AppData\Local\Temp\ccZi7tDD.s 			page 178


 6206 0cdb 50       		.byte	0x50
 6207 0cdc 1D       		.uleb128 0x1d
 6208 0cdd 0B000000 		.4byte	.LASF112
 6209 0ce1 01       		.byte	0x1
 6210 0ce2 0402     		.2byte	0x204
 6211 0ce4 F5000000 		.4byte	0xf5
 6212 0ce8 50030000 		.4byte	.LLST11
 6213 0cec 00       		.byte	0
 6214 0ced 1F       		.uleb128 0x1f
 6215 0cee 01       		.byte	0x1
 6216 0cef 28000000 		.4byte	.LASF116
 6217 0cf3 01       		.byte	0x1
 6218 0cf4 1F02     		.2byte	0x21f
 6219 0cf6 01       		.byte	0x1
 6220 0cf7 00000000 		.4byte	.LFB122
 6221 0cfb 16000000 		.4byte	.LFE122
 6222 0cff 02       		.byte	0x2
 6223 0d00 7D       		.byte	0x7d
 6224 0d01 00       		.sleb128 0
 6225 0d02 01       		.byte	0x1
 6226 0d03 260D0000 		.4byte	0xd26
 6227 0d07 1C       		.uleb128 0x1c
 6228 0d08 E4050000 		.4byte	.LASF76
 6229 0d0c 01       		.byte	0x1
 6230 0d0d 1F02     		.2byte	0x21f
 6231 0d0f 36050000 		.4byte	0x536
 6232 0d13 01       		.byte	0x1
 6233 0d14 50       		.byte	0x50
 6234 0d15 1D       		.uleb128 0x1d
 6235 0d16 00000000 		.4byte	.LASF117
 6236 0d1a 01       		.byte	0x1
 6237 0d1b 1F02     		.2byte	0x21f
 6238 0d1d 49000000 		.4byte	0x49
 6239 0d21 8A030000 		.4byte	.LLST12
 6240 0d25 00       		.byte	0
 6241 0d26 1F       		.uleb128 0x1f
 6242 0d27 01       		.byte	0x1
 6243 0d28 2B080000 		.4byte	.LASF118
 6244 0d2c 01       		.byte	0x1
 6245 0d2d 3602     		.2byte	0x236
 6246 0d2f 01       		.byte	0x1
 6247 0d30 00000000 		.4byte	.LFB123
 6248 0d34 16000000 		.4byte	.LFE123
 6249 0d38 02       		.byte	0x2
 6250 0d39 7D       		.byte	0x7d
 6251 0d3a 00       		.sleb128 0
 6252 0d3b 01       		.byte	0x1
 6253 0d3c 5F0D0000 		.4byte	0xd5f
 6254 0d40 1C       		.uleb128 0x1c
 6255 0d41 E4050000 		.4byte	.LASF76
 6256 0d45 01       		.byte	0x1
 6257 0d46 3602     		.2byte	0x236
 6258 0d48 36050000 		.4byte	0x536
 6259 0d4c 01       		.byte	0x1
 6260 0d4d 50       		.byte	0x50
 6261 0d4e 1D       		.uleb128 0x1d
 6262 0d4f 4C030000 		.4byte	.LASF119
ARM GAS  C:\Users\CNous\AppData\Local\Temp\ccZi7tDD.s 			page 179


 6263 0d53 01       		.byte	0x1
 6264 0d54 3602     		.2byte	0x236
 6265 0d56 49000000 		.4byte	0x49
 6266 0d5a AB030000 		.4byte	.LLST13
 6267 0d5e 00       		.byte	0
 6268 0d5f 1F       		.uleb128 0x1f
 6269 0d60 01       		.byte	0x1
 6270 0d61 840A0000 		.4byte	.LASF120
 6271 0d65 01       		.byte	0x1
 6272 0d66 4A02     		.2byte	0x24a
 6273 0d68 01       		.byte	0x1
 6274 0d69 00000000 		.4byte	.LFB124
 6275 0d6d 1A000000 		.4byte	.LFE124
 6276 0d71 02       		.byte	0x2
 6277 0d72 7D       		.byte	0x7d
 6278 0d73 00       		.sleb128 0
 6279 0d74 01       		.byte	0x1
 6280 0d75 980D0000 		.4byte	0xd98
 6281 0d79 1C       		.uleb128 0x1c
 6282 0d7a E4050000 		.4byte	.LASF76
 6283 0d7e 01       		.byte	0x1
 6284 0d7f 4A02     		.2byte	0x24a
 6285 0d81 36050000 		.4byte	0x536
 6286 0d85 01       		.byte	0x1
 6287 0d86 50       		.byte	0x50
 6288 0d87 1D       		.uleb128 0x1d
 6289 0d88 0B000000 		.4byte	.LASF112
 6290 0d8c 01       		.byte	0x1
 6291 0d8d 4A02     		.2byte	0x24a
 6292 0d8f F5000000 		.4byte	0xf5
 6293 0d93 CC030000 		.4byte	.LLST14
 6294 0d97 00       		.byte	0
 6295 0d98 1B       		.uleb128 0x1b
 6296 0d99 01       		.byte	0x1
 6297 0d9a 890C0000 		.4byte	.LASF121
 6298 0d9e 01       		.byte	0x1
 6299 0d9f 9902     		.2byte	0x299
 6300 0da1 01       		.byte	0x1
 6301 0da2 00000000 		.4byte	.LFB125
 6302 0da6 94000000 		.4byte	.LFE125
 6303 0daa 06040000 		.4byte	.LLST15
 6304 0dae 01       		.byte	0x1
 6305 0daf 020E0000 		.4byte	0xe02
 6306 0db3 1C       		.uleb128 0x1c
 6307 0db4 E4050000 		.4byte	.LASF76
 6308 0db8 01       		.byte	0x1
 6309 0db9 9902     		.2byte	0x299
 6310 0dbb 36050000 		.4byte	0x536
 6311 0dbf 01       		.byte	0x1
 6312 0dc0 50       		.byte	0x50
 6313 0dc1 1D       		.uleb128 0x1d
 6314 0dc2 C0050000 		.4byte	.LASF122
 6315 0dc6 01       		.byte	0x1
 6316 0dc7 9902     		.2byte	0x299
 6317 0dc9 020E0000 		.4byte	0xe02
 6318 0dcd 26040000 		.4byte	.LLST16
 6319 0dd1 1E       		.uleb128 0x1e
ARM GAS  C:\Users\CNous\AppData\Local\Temp\ccZi7tDD.s 			page 180


 6320 0dd2 27030000 		.4byte	.LASF123
 6321 0dd6 01       		.byte	0x1
 6322 0dd7 9B02     		.2byte	0x29b
 6323 0dd9 49000000 		.4byte	0x49
 6324 0ddd 52040000 		.4byte	.LLST17
 6325 0de1 1E       		.uleb128 0x1e
 6326 0de2 70040000 		.4byte	.LASF78
 6327 0de6 01       		.byte	0x1
 6328 0de7 9B02     		.2byte	0x29b
 6329 0de9 49000000 		.4byte	0x49
 6330 0ded 71040000 		.4byte	.LLST18
 6331 0df1 1E       		.uleb128 0x1e
 6332 0df2 5E010000 		.4byte	.LASF124
 6333 0df6 01       		.byte	0x1
 6334 0df7 9B02     		.2byte	0x29b
 6335 0df9 49000000 		.4byte	0x49
 6336 0dfd CE040000 		.4byte	.LLST19
 6337 0e01 00       		.byte	0
 6338 0e02 12       		.uleb128 0x12
 6339 0e03 04       		.byte	0x4
 6340 0e04 04040000 		.4byte	0x404
 6341 0e08 1B       		.uleb128 0x1b
 6342 0e09 01       		.byte	0x1
 6343 0e0a A50A0000 		.4byte	.LASF125
 6344 0e0e 01       		.byte	0x1
 6345 0e0f EA02     		.2byte	0x2ea
 6346 0e11 01       		.byte	0x1
 6347 0e12 00000000 		.4byte	.LFB126
 6348 0e16 9A000000 		.4byte	.LFE126
 6349 0e1a 0A050000 		.4byte	.LLST20
 6350 0e1e 01       		.byte	0x1
 6351 0e1f 720E0000 		.4byte	0xe72
 6352 0e23 1C       		.uleb128 0x1c
 6353 0e24 E4050000 		.4byte	.LASF76
 6354 0e28 01       		.byte	0x1
 6355 0e29 EA02     		.2byte	0x2ea
 6356 0e2b 36050000 		.4byte	0x536
 6357 0e2f 01       		.byte	0x1
 6358 0e30 50       		.byte	0x50
 6359 0e31 1D       		.uleb128 0x1d
 6360 0e32 C0050000 		.4byte	.LASF122
 6361 0e36 01       		.byte	0x1
 6362 0e37 EA02     		.2byte	0x2ea
 6363 0e39 020E0000 		.4byte	0xe02
 6364 0e3d 2A050000 		.4byte	.LLST21
 6365 0e41 1E       		.uleb128 0x1e
 6366 0e42 27030000 		.4byte	.LASF123
 6367 0e46 01       		.byte	0x1
 6368 0e47 EC02     		.2byte	0x2ec
 6369 0e49 49000000 		.4byte	0x49
 6370 0e4d 56050000 		.4byte	.LLST22
 6371 0e51 1E       		.uleb128 0x1e
 6372 0e52 70040000 		.4byte	.LASF78
 6373 0e56 01       		.byte	0x1
 6374 0e57 EC02     		.2byte	0x2ec
 6375 0e59 49000000 		.4byte	0x49
 6376 0e5d 75050000 		.4byte	.LLST23
ARM GAS  C:\Users\CNous\AppData\Local\Temp\ccZi7tDD.s 			page 181


 6377 0e61 1E       		.uleb128 0x1e
 6378 0e62 5E010000 		.4byte	.LASF124
 6379 0e66 01       		.byte	0x1
 6380 0e67 EC02     		.2byte	0x2ec
 6381 0e69 49000000 		.4byte	0x49
 6382 0e6d D1050000 		.4byte	.LLST24
 6383 0e71 00       		.byte	0
 6384 0e72 1B       		.uleb128 0x1b
 6385 0e73 01       		.byte	0x1
 6386 0e74 A7030000 		.4byte	.LASF126
 6387 0e78 01       		.byte	0x1
 6388 0e79 3B03     		.2byte	0x33b
 6389 0e7b 01       		.byte	0x1
 6390 0e7c 00000000 		.4byte	.LFB127
 6391 0e80 98000000 		.4byte	.LFE127
 6392 0e84 0D060000 		.4byte	.LLST25
 6393 0e88 01       		.byte	0x1
 6394 0e89 DC0E0000 		.4byte	0xedc
 6395 0e8d 1C       		.uleb128 0x1c
 6396 0e8e E4050000 		.4byte	.LASF76
 6397 0e92 01       		.byte	0x1
 6398 0e93 3B03     		.2byte	0x33b
 6399 0e95 36050000 		.4byte	0x536
 6400 0e99 01       		.byte	0x1
 6401 0e9a 50       		.byte	0x50
 6402 0e9b 1D       		.uleb128 0x1d
 6403 0e9c C0050000 		.4byte	.LASF122
 6404 0ea0 01       		.byte	0x1
 6405 0ea1 3B03     		.2byte	0x33b
 6406 0ea3 020E0000 		.4byte	0xe02
 6407 0ea7 2D060000 		.4byte	.LLST26
 6408 0eab 1E       		.uleb128 0x1e
 6409 0eac 27030000 		.4byte	.LASF123
 6410 0eb0 01       		.byte	0x1
 6411 0eb1 3D03     		.2byte	0x33d
 6412 0eb3 49000000 		.4byte	0x49
 6413 0eb7 59060000 		.4byte	.LLST27
 6414 0ebb 1E       		.uleb128 0x1e
 6415 0ebc 70040000 		.4byte	.LASF78
 6416 0ec0 01       		.byte	0x1
 6417 0ec1 3D03     		.2byte	0x33d
 6418 0ec3 49000000 		.4byte	0x49
 6419 0ec7 78060000 		.4byte	.LLST28
 6420 0ecb 1E       		.uleb128 0x1e
 6421 0ecc 5E010000 		.4byte	.LASF124
 6422 0ed0 01       		.byte	0x1
 6423 0ed1 3D03     		.2byte	0x33d
 6424 0ed3 49000000 		.4byte	0x49
 6425 0ed7 D4060000 		.4byte	.LLST29
 6426 0edb 00       		.byte	0
 6427 0edc 1B       		.uleb128 0x1b
 6428 0edd 01       		.byte	0x1
 6429 0ede FC0A0000 		.4byte	.LASF127
 6430 0ee2 01       		.byte	0x1
 6431 0ee3 8B03     		.2byte	0x38b
 6432 0ee5 01       		.byte	0x1
 6433 0ee6 00000000 		.4byte	.LFB128
ARM GAS  C:\Users\CNous\AppData\Local\Temp\ccZi7tDD.s 			page 182


 6434 0eea 72000000 		.4byte	.LFE128
 6435 0eee 10070000 		.4byte	.LLST30
 6436 0ef2 01       		.byte	0x1
 6437 0ef3 460F0000 		.4byte	0xf46
 6438 0ef7 1C       		.uleb128 0x1c
 6439 0ef8 E4050000 		.4byte	.LASF76
 6440 0efc 01       		.byte	0x1
 6441 0efd 8B03     		.2byte	0x38b
 6442 0eff 36050000 		.4byte	0x536
 6443 0f03 01       		.byte	0x1
 6444 0f04 50       		.byte	0x50
 6445 0f05 1D       		.uleb128 0x1d
 6446 0f06 C0050000 		.4byte	.LASF122
 6447 0f0a 01       		.byte	0x1
 6448 0f0b 8B03     		.2byte	0x38b
 6449 0f0d 020E0000 		.4byte	0xe02
 6450 0f11 30070000 		.4byte	.LLST31
 6451 0f15 1E       		.uleb128 0x1e
 6452 0f16 27030000 		.4byte	.LASF123
 6453 0f1a 01       		.byte	0x1
 6454 0f1b 8D03     		.2byte	0x38d
 6455 0f1d 49000000 		.4byte	0x49
 6456 0f21 5C070000 		.4byte	.LLST32
 6457 0f25 1E       		.uleb128 0x1e
 6458 0f26 70040000 		.4byte	.LASF78
 6459 0f2a 01       		.byte	0x1
 6460 0f2b 8D03     		.2byte	0x38d
 6461 0f2d 49000000 		.4byte	0x49
 6462 0f31 7B070000 		.4byte	.LLST33
 6463 0f35 1E       		.uleb128 0x1e
 6464 0f36 5E010000 		.4byte	.LASF124
 6465 0f3a 01       		.byte	0x1
 6466 0f3b 8D03     		.2byte	0x38d
 6467 0f3d 49000000 		.4byte	0x49
 6468 0f41 A5070000 		.4byte	.LLST34
 6469 0f45 00       		.byte	0
 6470 0f46 1F       		.uleb128 0x1f
 6471 0f47 01       		.byte	0x1
 6472 0f48 77060000 		.4byte	.LASF128
 6473 0f4c 01       		.byte	0x1
 6474 0f4d CA03     		.2byte	0x3ca
 6475 0f4f 01       		.byte	0x1
 6476 0f50 00000000 		.4byte	.LFB129
 6477 0f54 14000000 		.4byte	.LFE129
 6478 0f58 02       		.byte	0x2
 6479 0f59 7D       		.byte	0x7d
 6480 0f5a 00       		.sleb128 0
 6481 0f5b 01       		.byte	0x1
 6482 0f5c 6F0F0000 		.4byte	0xf6f
 6483 0f60 1C       		.uleb128 0x1c
 6484 0f61 C0050000 		.4byte	.LASF122
 6485 0f65 01       		.byte	0x1
 6486 0f66 CA03     		.2byte	0x3ca
 6487 0f68 020E0000 		.4byte	0xe02
 6488 0f6c 01       		.byte	0x1
 6489 0f6d 50       		.byte	0x50
 6490 0f6e 00       		.byte	0
ARM GAS  C:\Users\CNous\AppData\Local\Temp\ccZi7tDD.s 			page 183


 6491 0f6f 1B       		.uleb128 0x1b
 6492 0f70 01       		.byte	0x1
 6493 0f71 230B0000 		.4byte	.LASF129
 6494 0f75 01       		.byte	0x1
 6495 0f76 EE03     		.2byte	0x3ee
 6496 0f78 01       		.byte	0x1
 6497 0f79 00000000 		.4byte	.LFB130
 6498 0f7d 4E000000 		.4byte	.LFE130
 6499 0f81 DA070000 		.4byte	.LLST35
 6500 0f85 01       		.byte	0x1
 6501 0f86 DB0F0000 		.4byte	0xfdb
 6502 0f8a 1D       		.uleb128 0x1d
 6503 0f8b E4050000 		.4byte	.LASF76
 6504 0f8f 01       		.byte	0x1
 6505 0f90 EE03     		.2byte	0x3ee
 6506 0f92 36050000 		.4byte	0x536
 6507 0f96 FA070000 		.4byte	.LLST36
 6508 0f9a 1D       		.uleb128 0x1d
 6509 0f9b 50020000 		.4byte	.LASF62
 6510 0f9f 01       		.byte	0x1
 6511 0fa0 EE03     		.2byte	0x3ee
 6512 0fa2 49000000 		.4byte	0x49
 6513 0fa6 32080000 		.4byte	.LLST37
 6514 0faa 1D       		.uleb128 0x1d
 6515 0fab 8A0B0000 		.4byte	.LASF53
 6516 0faf 01       		.byte	0x1
 6517 0fb0 EE03     		.2byte	0x3ee
 6518 0fb2 49000000 		.4byte	0x49
 6519 0fb6 6C080000 		.4byte	.LLST38
 6520 0fba 21       		.uleb128 0x21
 6521 0fbb 746D7000 		.ascii	"tmp\000"
 6522 0fbf 01       		.byte	0x1
 6523 0fc0 F003     		.2byte	0x3f0
 6524 0fc2 6D000000 		.4byte	0x6d
 6525 0fc6 A6080000 		.4byte	.LLST39
 6526 0fca 1E       		.uleb128 0x1e
 6527 0fcb EE010000 		.4byte	.LASF130
 6528 0fcf 01       		.byte	0x1
 6529 0fd0 F103     		.2byte	0x3f1
 6530 0fd2 49000000 		.4byte	0x49
 6531 0fd6 06090000 		.4byte	.LLST40
 6532 0fda 00       		.byte	0
 6533 0fdb 1F       		.uleb128 0x1f
 6534 0fdc 01       		.byte	0x1
 6535 0fdd E2000000 		.4byte	.LASF131
 6536 0fe1 01       		.byte	0x1
 6537 0fe2 1C04     		.2byte	0x41c
 6538 0fe4 01       		.byte	0x1
 6539 0fe5 00000000 		.4byte	.LFB131
 6540 0fe9 04000000 		.4byte	.LFE131
 6541 0fed 02       		.byte	0x2
 6542 0fee 7D       		.byte	0x7d
 6543 0fef 00       		.sleb128 0
 6544 0ff0 01       		.byte	0x1
 6545 0ff1 12100000 		.4byte	0x1012
 6546 0ff5 1C       		.uleb128 0x1c
 6547 0ff6 E4050000 		.4byte	.LASF76
ARM GAS  C:\Users\CNous\AppData\Local\Temp\ccZi7tDD.s 			page 184


 6548 0ffa 01       		.byte	0x1
 6549 0ffb 1C04     		.2byte	0x41c
 6550 0ffd 36050000 		.4byte	0x536
 6551 1001 01       		.byte	0x1
 6552 1002 50       		.byte	0x50
 6553 1003 1C       		.uleb128 0x1c
 6554 1004 D9000000 		.4byte	.LASF132
 6555 1008 01       		.byte	0x1
 6556 1009 1C04     		.2byte	0x41c
 6557 100b 6D000000 		.4byte	0x6d
 6558 100f 01       		.byte	0x1
 6559 1010 51       		.byte	0x51
 6560 1011 00       		.byte	0
 6561 1012 1F       		.uleb128 0x1f
 6562 1013 01       		.byte	0x1
 6563 1014 42040000 		.4byte	.LASF133
 6564 1018 01       		.byte	0x1
 6565 1019 2C04     		.2byte	0x42c
 6566 101b 01       		.byte	0x1
 6567 101c 00000000 		.4byte	.LFB132
 6568 1020 04000000 		.4byte	.LFE132
 6569 1024 02       		.byte	0x2
 6570 1025 7D       		.byte	0x7d
 6571 1026 00       		.sleb128 0
 6572 1027 01       		.byte	0x1
 6573 1028 49100000 		.4byte	0x1049
 6574 102c 1C       		.uleb128 0x1c
 6575 102d E4050000 		.4byte	.LASF76
 6576 1031 01       		.byte	0x1
 6577 1032 2C04     		.2byte	0x42c
 6578 1034 36050000 		.4byte	0x536
 6579 1038 01       		.byte	0x1
 6580 1039 50       		.byte	0x50
 6581 103a 1C       		.uleb128 0x1c
 6582 103b 50080000 		.4byte	.LASF134
 6583 103f 01       		.byte	0x1
 6584 1040 2C04     		.2byte	0x42c
 6585 1042 6D000000 		.4byte	0x6d
 6586 1046 01       		.byte	0x1
 6587 1047 51       		.byte	0x51
 6588 1048 00       		.byte	0
 6589 1049 1F       		.uleb128 0x1f
 6590 104a 01       		.byte	0x1
 6591 104b 52040000 		.4byte	.LASF135
 6592 104f 01       		.byte	0x1
 6593 1050 3B04     		.2byte	0x43b
 6594 1052 01       		.byte	0x1
 6595 1053 00000000 		.4byte	.LFB133
 6596 1057 04000000 		.4byte	.LFE133
 6597 105b 02       		.byte	0x2
 6598 105c 7D       		.byte	0x7d
 6599 105d 00       		.sleb128 0
 6600 105e 01       		.byte	0x1
 6601 105f 80100000 		.4byte	0x1080
 6602 1063 1C       		.uleb128 0x1c
 6603 1064 E4050000 		.4byte	.LASF76
 6604 1068 01       		.byte	0x1
ARM GAS  C:\Users\CNous\AppData\Local\Temp\ccZi7tDD.s 			page 185


 6605 1069 3B04     		.2byte	0x43b
 6606 106b 36050000 		.4byte	0x536
 6607 106f 01       		.byte	0x1
 6608 1070 50       		.byte	0x50
 6609 1071 1C       		.uleb128 0x1c
 6610 1072 1A010000 		.4byte	.LASF136
 6611 1076 01       		.byte	0x1
 6612 1077 3B04     		.2byte	0x43b
 6613 1079 6D000000 		.4byte	0x6d
 6614 107d 01       		.byte	0x1
 6615 107e 51       		.byte	0x51
 6616 107f 00       		.byte	0
 6617 1080 1F       		.uleb128 0x1f
 6618 1081 01       		.byte	0x1
 6619 1082 130B0000 		.4byte	.LASF137
 6620 1086 01       		.byte	0x1
 6621 1087 4A04     		.2byte	0x44a
 6622 1089 01       		.byte	0x1
 6623 108a 00000000 		.4byte	.LFB134
 6624 108e 04000000 		.4byte	.LFE134
 6625 1092 02       		.byte	0x2
 6626 1093 7D       		.byte	0x7d
 6627 1094 00       		.sleb128 0
 6628 1095 01       		.byte	0x1
 6629 1096 B7100000 		.4byte	0x10b7
 6630 109a 1C       		.uleb128 0x1c
 6631 109b E4050000 		.4byte	.LASF76
 6632 109f 01       		.byte	0x1
 6633 10a0 4A04     		.2byte	0x44a
 6634 10a2 36050000 		.4byte	0x536
 6635 10a6 01       		.byte	0x1
 6636 10a7 50       		.byte	0x50
 6637 10a8 1C       		.uleb128 0x1c
 6638 10a9 90070000 		.4byte	.LASF138
 6639 10ad 01       		.byte	0x1
 6640 10ae 4A04     		.2byte	0x44a
 6641 10b0 6D000000 		.4byte	0x6d
 6642 10b4 01       		.byte	0x1
 6643 10b5 51       		.byte	0x51
 6644 10b6 00       		.byte	0
 6645 10b7 1F       		.uleb128 0x1f
 6646 10b8 01       		.byte	0x1
 6647 10b9 F2060000 		.4byte	.LASF139
 6648 10bd 01       		.byte	0x1
 6649 10be 5C04     		.2byte	0x45c
 6650 10c0 01       		.byte	0x1
 6651 10c1 00000000 		.4byte	.LFB135
 6652 10c5 10000000 		.4byte	.LFE135
 6653 10c9 02       		.byte	0x2
 6654 10ca 7D       		.byte	0x7d
 6655 10cb 00       		.sleb128 0
 6656 10cc 01       		.byte	0x1
 6657 10cd 00110000 		.4byte	0x1100
 6658 10d1 1C       		.uleb128 0x1c
 6659 10d2 E4050000 		.4byte	.LASF76
 6660 10d6 01       		.byte	0x1
 6661 10d7 5C04     		.2byte	0x45c
ARM GAS  C:\Users\CNous\AppData\Local\Temp\ccZi7tDD.s 			page 186


 6662 10d9 36050000 		.4byte	0x536
 6663 10dd 01       		.byte	0x1
 6664 10de 50       		.byte	0x50
 6665 10df 1D       		.uleb128 0x1d
 6666 10e0 4F000000 		.4byte	.LASF140
 6667 10e4 01       		.byte	0x1
 6668 10e5 5C04     		.2byte	0x45c
 6669 10e7 49000000 		.4byte	0x49
 6670 10eb 1A090000 		.4byte	.LLST41
 6671 10ef 1E       		.uleb128 0x1e
 6672 10f0 44010000 		.4byte	.LASF77
 6673 10f4 01       		.byte	0x1
 6674 10f5 5E04     		.2byte	0x45e
 6675 10f7 49000000 		.4byte	0x49
 6676 10fb 3B090000 		.4byte	.LLST42
 6677 10ff 00       		.byte	0
 6678 1100 1F       		.uleb128 0x1f
 6679 1101 01       		.byte	0x1
 6680 1102 14000000 		.4byte	.LASF141
 6681 1106 01       		.byte	0x1
 6682 1107 7904     		.2byte	0x479
 6683 1109 01       		.byte	0x1
 6684 110a 00000000 		.4byte	.LFB136
 6685 110e 14000000 		.4byte	.LFE136
 6686 1112 02       		.byte	0x2
 6687 1113 7D       		.byte	0x7d
 6688 1114 00       		.sleb128 0
 6689 1115 01       		.byte	0x1
 6690 1116 49110000 		.4byte	0x1149
 6691 111a 1C       		.uleb128 0x1c
 6692 111b E4050000 		.4byte	.LASF76
 6693 111f 01       		.byte	0x1
 6694 1120 7904     		.2byte	0x479
 6695 1122 36050000 		.4byte	0x536
 6696 1126 01       		.byte	0x1
 6697 1127 50       		.byte	0x50
 6698 1128 1D       		.uleb128 0x1d
 6699 1129 4F000000 		.4byte	.LASF140
 6700 112d 01       		.byte	0x1
 6701 112e 7904     		.2byte	0x479
 6702 1130 49000000 		.4byte	0x49
 6703 1134 70090000 		.4byte	.LLST43
 6704 1138 1E       		.uleb128 0x1e
 6705 1139 44010000 		.4byte	.LASF77
 6706 113d 01       		.byte	0x1
 6707 113e 7B04     		.2byte	0x47b
 6708 1140 49000000 		.4byte	0x49
 6709 1144 91090000 		.4byte	.LLST44
 6710 1148 00       		.byte	0
 6711 1149 1F       		.uleb128 0x1f
 6712 114a 01       		.byte	0x1
 6713 114b 60070000 		.4byte	.LASF142
 6714 114f 01       		.byte	0x1
 6715 1150 9504     		.2byte	0x495
 6716 1152 01       		.byte	0x1
 6717 1153 00000000 		.4byte	.LFB137
 6718 1157 10000000 		.4byte	.LFE137
ARM GAS  C:\Users\CNous\AppData\Local\Temp\ccZi7tDD.s 			page 187


 6719 115b 02       		.byte	0x2
 6720 115c 7D       		.byte	0x7d
 6721 115d 00       		.sleb128 0
 6722 115e 01       		.byte	0x1
 6723 115f 92110000 		.4byte	0x1192
 6724 1163 1C       		.uleb128 0x1c
 6725 1164 E4050000 		.4byte	.LASF76
 6726 1168 01       		.byte	0x1
 6727 1169 9504     		.2byte	0x495
 6728 116b 36050000 		.4byte	0x536
 6729 116f 01       		.byte	0x1
 6730 1170 50       		.byte	0x50
 6731 1171 1D       		.uleb128 0x1d
 6732 1172 4F000000 		.4byte	.LASF140
 6733 1176 01       		.byte	0x1
 6734 1177 9504     		.2byte	0x495
 6735 1179 49000000 		.4byte	0x49
 6736 117d C6090000 		.4byte	.LLST45
 6737 1181 1E       		.uleb128 0x1e
 6738 1182 4D010000 		.4byte	.LASF85
 6739 1186 01       		.byte	0x1
 6740 1187 9704     		.2byte	0x497
 6741 1189 49000000 		.4byte	0x49
 6742 118d E7090000 		.4byte	.LLST46
 6743 1191 00       		.byte	0
 6744 1192 1F       		.uleb128 0x1f
 6745 1193 01       		.byte	0x1
 6746 1194 A1000000 		.4byte	.LASF143
 6747 1198 01       		.byte	0x1
 6748 1199 B204     		.2byte	0x4b2
 6749 119b 01       		.byte	0x1
 6750 119c 00000000 		.4byte	.LFB138
 6751 11a0 14000000 		.4byte	.LFE138
 6752 11a4 02       		.byte	0x2
 6753 11a5 7D       		.byte	0x7d
 6754 11a6 00       		.sleb128 0
 6755 11a7 01       		.byte	0x1
 6756 11a8 DB110000 		.4byte	0x11db
 6757 11ac 1C       		.uleb128 0x1c
 6758 11ad E4050000 		.4byte	.LASF76
 6759 11b1 01       		.byte	0x1
 6760 11b2 B204     		.2byte	0x4b2
 6761 11b4 36050000 		.4byte	0x536
 6762 11b8 01       		.byte	0x1
 6763 11b9 50       		.byte	0x50
 6764 11ba 1D       		.uleb128 0x1d
 6765 11bb 4F000000 		.4byte	.LASF140
 6766 11bf 01       		.byte	0x1
 6767 11c0 B204     		.2byte	0x4b2
 6768 11c2 49000000 		.4byte	0x49
 6769 11c6 1C0A0000 		.4byte	.LLST47
 6770 11ca 1E       		.uleb128 0x1e
 6771 11cb 4D010000 		.4byte	.LASF85
 6772 11cf 01       		.byte	0x1
 6773 11d0 B404     		.2byte	0x4b4
 6774 11d2 49000000 		.4byte	0x49
 6775 11d6 3D0A0000 		.4byte	.LLST48
ARM GAS  C:\Users\CNous\AppData\Local\Temp\ccZi7tDD.s 			page 188


 6776 11da 00       		.byte	0
 6777 11db 1F       		.uleb128 0x1f
 6778 11dc 01       		.byte	0x1
 6779 11dd 0C040000 		.4byte	.LASF144
 6780 11e1 01       		.byte	0x1
 6781 11e2 CE04     		.2byte	0x4ce
 6782 11e4 01       		.byte	0x1
 6783 11e5 00000000 		.4byte	.LFB139
 6784 11e9 10000000 		.4byte	.LFE139
 6785 11ed 02       		.byte	0x2
 6786 11ee 7D       		.byte	0x7d
 6787 11ef 00       		.sleb128 0
 6788 11f0 01       		.byte	0x1
 6789 11f1 24120000 		.4byte	0x1224
 6790 11f5 1C       		.uleb128 0x1c
 6791 11f6 E4050000 		.4byte	.LASF76
 6792 11fa 01       		.byte	0x1
 6793 11fb CE04     		.2byte	0x4ce
 6794 11fd 36050000 		.4byte	0x536
 6795 1201 01       		.byte	0x1
 6796 1202 50       		.byte	0x50
 6797 1203 1D       		.uleb128 0x1d
 6798 1204 BA020000 		.4byte	.LASF145
 6799 1208 01       		.byte	0x1
 6800 1209 CE04     		.2byte	0x4ce
 6801 120b 49000000 		.4byte	0x49
 6802 120f 720A0000 		.4byte	.LLST49
 6803 1213 1E       		.uleb128 0x1e
 6804 1214 44010000 		.4byte	.LASF77
 6805 1218 01       		.byte	0x1
 6806 1219 D004     		.2byte	0x4d0
 6807 121b 49000000 		.4byte	0x49
 6808 121f 930A0000 		.4byte	.LLST50
 6809 1223 00       		.byte	0
 6810 1224 1F       		.uleb128 0x1f
 6811 1225 01       		.byte	0x1
 6812 1226 0E020000 		.4byte	.LASF146
 6813 122a 01       		.byte	0x1
 6814 122b EC04     		.2byte	0x4ec
 6815 122d 01       		.byte	0x1
 6816 122e 00000000 		.4byte	.LFB140
 6817 1232 14000000 		.4byte	.LFE140
 6818 1236 02       		.byte	0x2
 6819 1237 7D       		.byte	0x7d
 6820 1238 00       		.sleb128 0
 6821 1239 01       		.byte	0x1
 6822 123a 6D120000 		.4byte	0x126d
 6823 123e 1C       		.uleb128 0x1c
 6824 123f E4050000 		.4byte	.LASF76
 6825 1243 01       		.byte	0x1
 6826 1244 EC04     		.2byte	0x4ec
 6827 1246 36050000 		.4byte	0x536
 6828 124a 01       		.byte	0x1
 6829 124b 50       		.byte	0x50
 6830 124c 1D       		.uleb128 0x1d
 6831 124d BA020000 		.4byte	.LASF145
 6832 1251 01       		.byte	0x1
ARM GAS  C:\Users\CNous\AppData\Local\Temp\ccZi7tDD.s 			page 189


 6833 1252 EC04     		.2byte	0x4ec
 6834 1254 49000000 		.4byte	0x49
 6835 1258 C80A0000 		.4byte	.LLST51
 6836 125c 1E       		.uleb128 0x1e
 6837 125d 44010000 		.4byte	.LASF77
 6838 1261 01       		.byte	0x1
 6839 1262 EE04     		.2byte	0x4ee
 6840 1264 49000000 		.4byte	0x49
 6841 1268 E90A0000 		.4byte	.LLST52
 6842 126c 00       		.byte	0
 6843 126d 1F       		.uleb128 0x1f
 6844 126e 01       		.byte	0x1
 6845 126f 5F0D0000 		.4byte	.LASF147
 6846 1273 01       		.byte	0x1
 6847 1274 0905     		.2byte	0x509
 6848 1276 01       		.byte	0x1
 6849 1277 00000000 		.4byte	.LFB141
 6850 127b 10000000 		.4byte	.LFE141
 6851 127f 02       		.byte	0x2
 6852 1280 7D       		.byte	0x7d
 6853 1281 00       		.sleb128 0
 6854 1282 01       		.byte	0x1
 6855 1283 B6120000 		.4byte	0x12b6
 6856 1287 1C       		.uleb128 0x1c
 6857 1288 E4050000 		.4byte	.LASF76
 6858 128c 01       		.byte	0x1
 6859 128d 0905     		.2byte	0x509
 6860 128f 36050000 		.4byte	0x536
 6861 1293 01       		.byte	0x1
 6862 1294 50       		.byte	0x50
 6863 1295 1D       		.uleb128 0x1d
 6864 1296 BA020000 		.4byte	.LASF145
 6865 129a 01       		.byte	0x1
 6866 129b 0905     		.2byte	0x509
 6867 129d 49000000 		.4byte	0x49
 6868 12a1 1E0B0000 		.4byte	.LLST53
 6869 12a5 1E       		.uleb128 0x1e
 6870 12a6 4D010000 		.4byte	.LASF85
 6871 12aa 01       		.byte	0x1
 6872 12ab 0B05     		.2byte	0x50b
 6873 12ad 49000000 		.4byte	0x49
 6874 12b1 3F0B0000 		.4byte	.LLST54
 6875 12b5 00       		.byte	0
 6876 12b6 1F       		.uleb128 0x1f
 6877 12b7 01       		.byte	0x1
 6878 12b8 540B0000 		.4byte	.LASF148
 6879 12bc 01       		.byte	0x1
 6880 12bd 2605     		.2byte	0x526
 6881 12bf 01       		.byte	0x1
 6882 12c0 00000000 		.4byte	.LFB142
 6883 12c4 14000000 		.4byte	.LFE142
 6884 12c8 02       		.byte	0x2
 6885 12c9 7D       		.byte	0x7d
 6886 12ca 00       		.sleb128 0
 6887 12cb 01       		.byte	0x1
 6888 12cc FF120000 		.4byte	0x12ff
 6889 12d0 1C       		.uleb128 0x1c
ARM GAS  C:\Users\CNous\AppData\Local\Temp\ccZi7tDD.s 			page 190


 6890 12d1 E4050000 		.4byte	.LASF76
 6891 12d5 01       		.byte	0x1
 6892 12d6 2605     		.2byte	0x526
 6893 12d8 36050000 		.4byte	0x536
 6894 12dc 01       		.byte	0x1
 6895 12dd 50       		.byte	0x50
 6896 12de 1D       		.uleb128 0x1d
 6897 12df BA020000 		.4byte	.LASF145
 6898 12e3 01       		.byte	0x1
 6899 12e4 2605     		.2byte	0x526
 6900 12e6 49000000 		.4byte	0x49
 6901 12ea 740B0000 		.4byte	.LLST55
 6902 12ee 1E       		.uleb128 0x1e
 6903 12ef 4D010000 		.4byte	.LASF85
 6904 12f3 01       		.byte	0x1
 6905 12f4 2805     		.2byte	0x528
 6906 12f6 49000000 		.4byte	0x49
 6907 12fa 950B0000 		.4byte	.LLST56
 6908 12fe 00       		.byte	0
 6909 12ff 1F       		.uleb128 0x1f
 6910 1300 01       		.byte	0x1
 6911 1301 880D0000 		.4byte	.LASF149
 6912 1305 01       		.byte	0x1
 6913 1306 4305     		.2byte	0x543
 6914 1308 01       		.byte	0x1
 6915 1309 00000000 		.4byte	.LFB143
 6916 130d 10000000 		.4byte	.LFE143
 6917 1311 02       		.byte	0x2
 6918 1312 7D       		.byte	0x7d
 6919 1313 00       		.sleb128 0
 6920 1314 01       		.byte	0x1
 6921 1315 48130000 		.4byte	0x1348
 6922 1319 1C       		.uleb128 0x1c
 6923 131a E4050000 		.4byte	.LASF76
 6924 131e 01       		.byte	0x1
 6925 131f 4305     		.2byte	0x543
 6926 1321 36050000 		.4byte	0x536
 6927 1325 01       		.byte	0x1
 6928 1326 50       		.byte	0x50
 6929 1327 1D       		.uleb128 0x1d
 6930 1328 45020000 		.4byte	.LASF150
 6931 132c 01       		.byte	0x1
 6932 132d 4305     		.2byte	0x543
 6933 132f 49000000 		.4byte	0x49
 6934 1333 CA0B0000 		.4byte	.LLST57
 6935 1337 1E       		.uleb128 0x1e
 6936 1338 44010000 		.4byte	.LASF77
 6937 133c 01       		.byte	0x1
 6938 133d 4505     		.2byte	0x545
 6939 133f 49000000 		.4byte	0x49
 6940 1343 EB0B0000 		.4byte	.LLST58
 6941 1347 00       		.byte	0
 6942 1348 1F       		.uleb128 0x1f
 6943 1349 01       		.byte	0x1
 6944 134a 1B0A0000 		.4byte	.LASF151
 6945 134e 01       		.byte	0x1
 6946 134f 6205     		.2byte	0x562
ARM GAS  C:\Users\CNous\AppData\Local\Temp\ccZi7tDD.s 			page 191


 6947 1351 01       		.byte	0x1
 6948 1352 00000000 		.4byte	.LFB144
 6949 1356 14000000 		.4byte	.LFE144
 6950 135a 02       		.byte	0x2
 6951 135b 7D       		.byte	0x7d
 6952 135c 00       		.sleb128 0
 6953 135d 01       		.byte	0x1
 6954 135e 91130000 		.4byte	0x1391
 6955 1362 1C       		.uleb128 0x1c
 6956 1363 E4050000 		.4byte	.LASF76
 6957 1367 01       		.byte	0x1
 6958 1368 6205     		.2byte	0x562
 6959 136a 36050000 		.4byte	0x536
 6960 136e 01       		.byte	0x1
 6961 136f 50       		.byte	0x50
 6962 1370 1D       		.uleb128 0x1d
 6963 1371 45020000 		.4byte	.LASF150
 6964 1375 01       		.byte	0x1
 6965 1376 6205     		.2byte	0x562
 6966 1378 49000000 		.4byte	0x49
 6967 137c 200C0000 		.4byte	.LLST59
 6968 1380 1E       		.uleb128 0x1e
 6969 1381 44010000 		.4byte	.LASF77
 6970 1385 01       		.byte	0x1
 6971 1386 6405     		.2byte	0x564
 6972 1388 49000000 		.4byte	0x49
 6973 138c 410C0000 		.4byte	.LLST60
 6974 1390 00       		.byte	0
 6975 1391 1F       		.uleb128 0x1f
 6976 1392 01       		.byte	0x1
 6977 1393 4D0D0000 		.4byte	.LASF152
 6978 1397 01       		.byte	0x1
 6979 1398 8005     		.2byte	0x580
 6980 139a 01       		.byte	0x1
 6981 139b 00000000 		.4byte	.LFB145
 6982 139f 10000000 		.4byte	.LFE145
 6983 13a3 02       		.byte	0x2
 6984 13a4 7D       		.byte	0x7d
 6985 13a5 00       		.sleb128 0
 6986 13a6 01       		.byte	0x1
 6987 13a7 DA130000 		.4byte	0x13da
 6988 13ab 1C       		.uleb128 0x1c
 6989 13ac E4050000 		.4byte	.LASF76
 6990 13b0 01       		.byte	0x1
 6991 13b1 8005     		.2byte	0x580
 6992 13b3 36050000 		.4byte	0x536
 6993 13b7 01       		.byte	0x1
 6994 13b8 50       		.byte	0x50
 6995 13b9 1D       		.uleb128 0x1d
 6996 13ba 45020000 		.4byte	.LASF150
 6997 13be 01       		.byte	0x1
 6998 13bf 8005     		.2byte	0x580
 6999 13c1 49000000 		.4byte	0x49
 7000 13c5 760C0000 		.4byte	.LLST61
 7001 13c9 1E       		.uleb128 0x1e
 7002 13ca 4D010000 		.4byte	.LASF85
 7003 13ce 01       		.byte	0x1
ARM GAS  C:\Users\CNous\AppData\Local\Temp\ccZi7tDD.s 			page 192


 7004 13cf 8205     		.2byte	0x582
 7005 13d1 49000000 		.4byte	0x49
 7006 13d5 970C0000 		.4byte	.LLST62
 7007 13d9 00       		.byte	0
 7008 13da 1F       		.uleb128 0x1f
 7009 13db 01       		.byte	0x1
 7010 13dc 2D0A0000 		.4byte	.LASF153
 7011 13e0 01       		.byte	0x1
 7012 13e1 9E05     		.2byte	0x59e
 7013 13e3 01       		.byte	0x1
 7014 13e4 00000000 		.4byte	.LFB146
 7015 13e8 14000000 		.4byte	.LFE146
 7016 13ec 02       		.byte	0x2
 7017 13ed 7D       		.byte	0x7d
 7018 13ee 00       		.sleb128 0
 7019 13ef 01       		.byte	0x1
 7020 13f0 23140000 		.4byte	0x1423
 7021 13f4 1C       		.uleb128 0x1c
 7022 13f5 E4050000 		.4byte	.LASF76
 7023 13f9 01       		.byte	0x1
 7024 13fa 9E05     		.2byte	0x59e
 7025 13fc 36050000 		.4byte	0x536
 7026 1400 01       		.byte	0x1
 7027 1401 50       		.byte	0x50
 7028 1402 1D       		.uleb128 0x1d
 7029 1403 45020000 		.4byte	.LASF150
 7030 1407 01       		.byte	0x1
 7031 1408 9E05     		.2byte	0x59e
 7032 140a 49000000 		.4byte	0x49
 7033 140e CC0C0000 		.4byte	.LLST63
 7034 1412 1E       		.uleb128 0x1e
 7035 1413 4D010000 		.4byte	.LASF85
 7036 1417 01       		.byte	0x1
 7037 1418 A005     		.2byte	0x5a0
 7038 141a 49000000 		.4byte	0x49
 7039 141e ED0C0000 		.4byte	.LLST64
 7040 1422 00       		.byte	0
 7041 1423 1F       		.uleb128 0x1f
 7042 1424 01       		.byte	0x1
 7043 1425 B5000000 		.4byte	.LASF154
 7044 1429 01       		.byte	0x1
 7045 142a BC05     		.2byte	0x5bc
 7046 142c 01       		.byte	0x1
 7047 142d 00000000 		.4byte	.LFB147
 7048 1431 10000000 		.4byte	.LFE147
 7049 1435 02       		.byte	0x2
 7050 1436 7D       		.byte	0x7d
 7051 1437 00       		.sleb128 0
 7052 1438 01       		.byte	0x1
 7053 1439 6C140000 		.4byte	0x146c
 7054 143d 1C       		.uleb128 0x1c
 7055 143e E4050000 		.4byte	.LASF76
 7056 1442 01       		.byte	0x1
 7057 1443 BC05     		.2byte	0x5bc
 7058 1445 36050000 		.4byte	0x536
 7059 1449 01       		.byte	0x1
 7060 144a 50       		.byte	0x50
ARM GAS  C:\Users\CNous\AppData\Local\Temp\ccZi7tDD.s 			page 193


 7061 144b 1D       		.uleb128 0x1d
 7062 144c 1E0D0000 		.4byte	.LASF155
 7063 1450 01       		.byte	0x1
 7064 1451 BC05     		.2byte	0x5bc
 7065 1453 49000000 		.4byte	0x49
 7066 1457 220D0000 		.4byte	.LLST65
 7067 145b 1E       		.uleb128 0x1e
 7068 145c 44010000 		.4byte	.LASF77
 7069 1460 01       		.byte	0x1
 7070 1461 BE05     		.2byte	0x5be
 7071 1463 49000000 		.4byte	0x49
 7072 1467 430D0000 		.4byte	.LLST66
 7073 146b 00       		.byte	0
 7074 146c 1F       		.uleb128 0x1f
 7075 146d 01       		.byte	0x1
 7076 146e E40C0000 		.4byte	.LASF156
 7077 1472 01       		.byte	0x1
 7078 1473 DA05     		.2byte	0x5da
 7079 1475 01       		.byte	0x1
 7080 1476 00000000 		.4byte	.LFB148
 7081 147a 10000000 		.4byte	.LFE148
 7082 147e 02       		.byte	0x2
 7083 147f 7D       		.byte	0x7d
 7084 1480 00       		.sleb128 0
 7085 1481 01       		.byte	0x1
 7086 1482 B5140000 		.4byte	0x14b5
 7087 1486 1C       		.uleb128 0x1c
 7088 1487 E4050000 		.4byte	.LASF76
 7089 148b 01       		.byte	0x1
 7090 148c DA05     		.2byte	0x5da
 7091 148e 36050000 		.4byte	0x536
 7092 1492 01       		.byte	0x1
 7093 1493 50       		.byte	0x50
 7094 1494 1D       		.uleb128 0x1d
 7095 1495 1E0D0000 		.4byte	.LASF155
 7096 1499 01       		.byte	0x1
 7097 149a DA05     		.2byte	0x5da
 7098 149c 49000000 		.4byte	0x49
 7099 14a0 780D0000 		.4byte	.LLST67
 7100 14a4 1E       		.uleb128 0x1e
 7101 14a5 44010000 		.4byte	.LASF77
 7102 14a9 01       		.byte	0x1
 7103 14aa DC05     		.2byte	0x5dc
 7104 14ac 49000000 		.4byte	0x49
 7105 14b0 990D0000 		.4byte	.LLST68
 7106 14b4 00       		.byte	0
 7107 14b5 1F       		.uleb128 0x1f
 7108 14b6 01       		.byte	0x1
 7109 14b7 2D070000 		.4byte	.LASF157
 7110 14bb 01       		.byte	0x1
 7111 14bc F705     		.2byte	0x5f7
 7112 14be 01       		.byte	0x1
 7113 14bf 00000000 		.4byte	.LFB149
 7114 14c3 10000000 		.4byte	.LFE149
 7115 14c7 02       		.byte	0x2
 7116 14c8 7D       		.byte	0x7d
 7117 14c9 00       		.sleb128 0
ARM GAS  C:\Users\CNous\AppData\Local\Temp\ccZi7tDD.s 			page 194


 7118 14ca 01       		.byte	0x1
 7119 14cb FE140000 		.4byte	0x14fe
 7120 14cf 1C       		.uleb128 0x1c
 7121 14d0 E4050000 		.4byte	.LASF76
 7122 14d4 01       		.byte	0x1
 7123 14d5 F705     		.2byte	0x5f7
 7124 14d7 36050000 		.4byte	0x536
 7125 14db 01       		.byte	0x1
 7126 14dc 50       		.byte	0x50
 7127 14dd 1D       		.uleb128 0x1d
 7128 14de 1E0D0000 		.4byte	.LASF155
 7129 14e2 01       		.byte	0x1
 7130 14e3 F705     		.2byte	0x5f7
 7131 14e5 49000000 		.4byte	0x49
 7132 14e9 C30D0000 		.4byte	.LLST69
 7133 14ed 1E       		.uleb128 0x1e
 7134 14ee 4D010000 		.4byte	.LASF85
 7135 14f2 01       		.byte	0x1
 7136 14f3 F905     		.2byte	0x5f9
 7137 14f5 49000000 		.4byte	0x49
 7138 14f9 E40D0000 		.4byte	.LLST70
 7139 14fd 00       		.byte	0
 7140 14fe 1F       		.uleb128 0x1f
 7141 14ff 01       		.byte	0x1
 7142 1500 FC030000 		.4byte	.LASF158
 7143 1504 01       		.byte	0x1
 7144 1505 1406     		.2byte	0x614
 7145 1507 01       		.byte	0x1
 7146 1508 00000000 		.4byte	.LFB150
 7147 150c 10000000 		.4byte	.LFE150
 7148 1510 02       		.byte	0x2
 7149 1511 7D       		.byte	0x7d
 7150 1512 00       		.sleb128 0
 7151 1513 01       		.byte	0x1
 7152 1514 47150000 		.4byte	0x1547
 7153 1518 1C       		.uleb128 0x1c
 7154 1519 E4050000 		.4byte	.LASF76
 7155 151d 01       		.byte	0x1
 7156 151e 1406     		.2byte	0x614
 7157 1520 36050000 		.4byte	0x536
 7158 1524 01       		.byte	0x1
 7159 1525 50       		.byte	0x50
 7160 1526 1D       		.uleb128 0x1d
 7161 1527 1E0D0000 		.4byte	.LASF155
 7162 152b 01       		.byte	0x1
 7163 152c 1406     		.2byte	0x614
 7164 152e 49000000 		.4byte	0x49
 7165 1532 190E0000 		.4byte	.LLST71
 7166 1536 1E       		.uleb128 0x1e
 7167 1537 4D010000 		.4byte	.LASF85
 7168 153b 01       		.byte	0x1
 7169 153c 1606     		.2byte	0x616
 7170 153e 49000000 		.4byte	0x49
 7171 1542 3A0E0000 		.4byte	.LLST72
 7172 1546 00       		.byte	0
 7173 1547 1F       		.uleb128 0x1f
 7174 1548 01       		.byte	0x1
ARM GAS  C:\Users\CNous\AppData\Local\Temp\ccZi7tDD.s 			page 195


 7175 1549 4A070000 		.4byte	.LASF159
 7176 154d 01       		.byte	0x1
 7177 154e 3106     		.2byte	0x631
 7178 1550 01       		.byte	0x1
 7179 1551 00000000 		.4byte	.LFB151
 7180 1555 10000000 		.4byte	.LFE151
 7181 1559 02       		.byte	0x2
 7182 155a 7D       		.byte	0x7d
 7183 155b 00       		.sleb128 0
 7184 155c 01       		.byte	0x1
 7185 155d 90150000 		.4byte	0x1590
 7186 1561 1C       		.uleb128 0x1c
 7187 1562 E4050000 		.4byte	.LASF76
 7188 1566 01       		.byte	0x1
 7189 1567 3106     		.2byte	0x631
 7190 1569 36050000 		.4byte	0x536
 7191 156d 01       		.byte	0x1
 7192 156e 50       		.byte	0x50
 7193 156f 1D       		.uleb128 0x1d
 7194 1570 A7040000 		.4byte	.LASF57
 7195 1574 01       		.byte	0x1
 7196 1575 3106     		.2byte	0x631
 7197 1577 49000000 		.4byte	0x49
 7198 157b 640E0000 		.4byte	.LLST73
 7199 157f 1E       		.uleb128 0x1e
 7200 1580 70040000 		.4byte	.LASF78
 7201 1584 01       		.byte	0x1
 7202 1585 3306     		.2byte	0x633
 7203 1587 49000000 		.4byte	0x49
 7204 158b 850E0000 		.4byte	.LLST74
 7205 158f 00       		.byte	0
 7206 1590 1F       		.uleb128 0x1f
 7207 1591 01       		.byte	0x1
 7208 1592 A70B0000 		.4byte	.LASF160
 7209 1596 01       		.byte	0x1
 7210 1597 4C06     		.2byte	0x64c
 7211 1599 01       		.byte	0x1
 7212 159a 00000000 		.4byte	.LFB152
 7213 159e 10000000 		.4byte	.LFE152
 7214 15a2 02       		.byte	0x2
 7215 15a3 7D       		.byte	0x7d
 7216 15a4 00       		.sleb128 0
 7217 15a5 01       		.byte	0x1
 7218 15a6 D9150000 		.4byte	0x15d9
 7219 15aa 1C       		.uleb128 0x1c
 7220 15ab E4050000 		.4byte	.LASF76
 7221 15af 01       		.byte	0x1
 7222 15b0 4C06     		.2byte	0x64c
 7223 15b2 36050000 		.4byte	0x536
 7224 15b6 01       		.byte	0x1
 7225 15b7 50       		.byte	0x50
 7226 15b8 1D       		.uleb128 0x1d
 7227 15b9 510A0000 		.4byte	.LASF58
 7228 15bd 01       		.byte	0x1
 7229 15be 4C06     		.2byte	0x64c
 7230 15c0 49000000 		.4byte	0x49
 7231 15c4 BA0E0000 		.4byte	.LLST75
ARM GAS  C:\Users\CNous\AppData\Local\Temp\ccZi7tDD.s 			page 196


 7232 15c8 1E       		.uleb128 0x1e
 7233 15c9 70040000 		.4byte	.LASF78
 7234 15cd 01       		.byte	0x1
 7235 15ce 4E06     		.2byte	0x64e
 7236 15d0 49000000 		.4byte	0x49
 7237 15d4 DB0E0000 		.4byte	.LLST76
 7238 15d8 00       		.byte	0
 7239 15d9 1F       		.uleb128 0x1f
 7240 15da 01       		.byte	0x1
 7241 15db A6010000 		.4byte	.LASF161
 7242 15df 01       		.byte	0x1
 7243 15e0 6706     		.2byte	0x667
 7244 15e2 01       		.byte	0x1
 7245 15e3 00000000 		.4byte	.LFB153
 7246 15e7 14000000 		.4byte	.LFE153
 7247 15eb 02       		.byte	0x2
 7248 15ec 7D       		.byte	0x7d
 7249 15ed 00       		.sleb128 0
 7250 15ee 01       		.byte	0x1
 7251 15ef 22160000 		.4byte	0x1622
 7252 15f3 1C       		.uleb128 0x1c
 7253 15f4 E4050000 		.4byte	.LASF76
 7254 15f8 01       		.byte	0x1
 7255 15f9 6706     		.2byte	0x667
 7256 15fb 36050000 		.4byte	0x536
 7257 15ff 01       		.byte	0x1
 7258 1600 50       		.byte	0x50
 7259 1601 1D       		.uleb128 0x1d
 7260 1602 A7040000 		.4byte	.LASF57
 7261 1606 01       		.byte	0x1
 7262 1607 6706     		.2byte	0x667
 7263 1609 49000000 		.4byte	0x49
 7264 160d 100F0000 		.4byte	.LLST77
 7265 1611 1E       		.uleb128 0x1e
 7266 1612 70040000 		.4byte	.LASF78
 7267 1616 01       		.byte	0x1
 7268 1617 6906     		.2byte	0x669
 7269 1619 49000000 		.4byte	0x49
 7270 161d 310F0000 		.4byte	.LLST78
 7271 1621 00       		.byte	0
 7272 1622 1F       		.uleb128 0x1f
 7273 1623 01       		.byte	0x1
 7274 1624 78040000 		.4byte	.LASF162
 7275 1628 01       		.byte	0x1
 7276 1629 8206     		.2byte	0x682
 7277 162b 01       		.byte	0x1
 7278 162c 00000000 		.4byte	.LFB154
 7279 1630 14000000 		.4byte	.LFE154
 7280 1634 02       		.byte	0x2
 7281 1635 7D       		.byte	0x7d
 7282 1636 00       		.sleb128 0
 7283 1637 01       		.byte	0x1
 7284 1638 6B160000 		.4byte	0x166b
 7285 163c 1C       		.uleb128 0x1c
 7286 163d E4050000 		.4byte	.LASF76
 7287 1641 01       		.byte	0x1
 7288 1642 8206     		.2byte	0x682
ARM GAS  C:\Users\CNous\AppData\Local\Temp\ccZi7tDD.s 			page 197


 7289 1644 36050000 		.4byte	0x536
 7290 1648 01       		.byte	0x1
 7291 1649 50       		.byte	0x50
 7292 164a 1D       		.uleb128 0x1d
 7293 164b 510A0000 		.4byte	.LASF58
 7294 164f 01       		.byte	0x1
 7295 1650 8206     		.2byte	0x682
 7296 1652 49000000 		.4byte	0x49
 7297 1656 660F0000 		.4byte	.LLST79
 7298 165a 1E       		.uleb128 0x1e
 7299 165b 70040000 		.4byte	.LASF78
 7300 165f 01       		.byte	0x1
 7301 1660 8406     		.2byte	0x684
 7302 1662 49000000 		.4byte	0x49
 7303 1666 870F0000 		.4byte	.LLST80
 7304 166a 00       		.byte	0
 7305 166b 1F       		.uleb128 0x1f
 7306 166c 01       		.byte	0x1
 7307 166d 5A0C0000 		.4byte	.LASF163
 7308 1671 01       		.byte	0x1
 7309 1672 9D06     		.2byte	0x69d
 7310 1674 01       		.byte	0x1
 7311 1675 00000000 		.4byte	.LFB155
 7312 1679 14000000 		.4byte	.LFE155
 7313 167d 02       		.byte	0x2
 7314 167e 7D       		.byte	0x7d
 7315 167f 00       		.sleb128 0
 7316 1680 01       		.byte	0x1
 7317 1681 B4160000 		.4byte	0x16b4
 7318 1685 1C       		.uleb128 0x1c
 7319 1686 E4050000 		.4byte	.LASF76
 7320 168a 01       		.byte	0x1
 7321 168b 9D06     		.2byte	0x69d
 7322 168d 36050000 		.4byte	0x536
 7323 1691 01       		.byte	0x1
 7324 1692 50       		.byte	0x50
 7325 1693 1D       		.uleb128 0x1d
 7326 1694 A7040000 		.4byte	.LASF57
 7327 1698 01       		.byte	0x1
 7328 1699 9D06     		.2byte	0x69d
 7329 169b 49000000 		.4byte	0x49
 7330 169f BC0F0000 		.4byte	.LLST81
 7331 16a3 1E       		.uleb128 0x1e
 7332 16a4 70040000 		.4byte	.LASF78
 7333 16a8 01       		.byte	0x1
 7334 16a9 9F06     		.2byte	0x69f
 7335 16ab 49000000 		.4byte	0x49
 7336 16af DD0F0000 		.4byte	.LLST82
 7337 16b3 00       		.byte	0
 7338 16b4 1F       		.uleb128 0x1f
 7339 16b5 01       		.byte	0x1
 7340 16b6 9A090000 		.4byte	.LASF164
 7341 16ba 01       		.byte	0x1
 7342 16bb B806     		.2byte	0x6b8
 7343 16bd 01       		.byte	0x1
 7344 16be 00000000 		.4byte	.LFB156
 7345 16c2 14000000 		.4byte	.LFE156
ARM GAS  C:\Users\CNous\AppData\Local\Temp\ccZi7tDD.s 			page 198


 7346 16c6 02       		.byte	0x2
 7347 16c7 7D       		.byte	0x7d
 7348 16c8 00       		.sleb128 0
 7349 16c9 01       		.byte	0x1
 7350 16ca FD160000 		.4byte	0x16fd
 7351 16ce 1C       		.uleb128 0x1c
 7352 16cf E4050000 		.4byte	.LASF76
 7353 16d3 01       		.byte	0x1
 7354 16d4 B806     		.2byte	0x6b8
 7355 16d6 36050000 		.4byte	0x536
 7356 16da 01       		.byte	0x1
 7357 16db 50       		.byte	0x50
 7358 16dc 1D       		.uleb128 0x1d
 7359 16dd 510A0000 		.4byte	.LASF58
 7360 16e1 01       		.byte	0x1
 7361 16e2 B806     		.2byte	0x6b8
 7362 16e4 49000000 		.4byte	0x49
 7363 16e8 12100000 		.4byte	.LLST83
 7364 16ec 1E       		.uleb128 0x1e
 7365 16ed 70040000 		.4byte	.LASF78
 7366 16f1 01       		.byte	0x1
 7367 16f2 BA06     		.2byte	0x6ba
 7368 16f4 49000000 		.4byte	0x49
 7369 16f8 33100000 		.4byte	.LLST84
 7370 16fc 00       		.byte	0
 7371 16fd 1F       		.uleb128 0x1f
 7372 16fe 01       		.byte	0x1
 7373 16ff F9050000 		.4byte	.LASF165
 7374 1703 01       		.byte	0x1
 7375 1704 D306     		.2byte	0x6d3
 7376 1706 01       		.byte	0x1
 7377 1707 00000000 		.4byte	.LFB157
 7378 170b 14000000 		.4byte	.LFE157
 7379 170f 02       		.byte	0x2
 7380 1710 7D       		.byte	0x7d
 7381 1711 00       		.sleb128 0
 7382 1712 01       		.byte	0x1
 7383 1713 46170000 		.4byte	0x1746
 7384 1717 1C       		.uleb128 0x1c
 7385 1718 E4050000 		.4byte	.LASF76
 7386 171c 01       		.byte	0x1
 7387 171d D306     		.2byte	0x6d3
 7388 171f 36050000 		.4byte	0x536
 7389 1723 01       		.byte	0x1
 7390 1724 50       		.byte	0x50
 7391 1725 1D       		.uleb128 0x1d
 7392 1726 A7040000 		.4byte	.LASF57
 7393 172a 01       		.byte	0x1
 7394 172b D306     		.2byte	0x6d3
 7395 172d 49000000 		.4byte	0x49
 7396 1731 68100000 		.4byte	.LLST85
 7397 1735 1E       		.uleb128 0x1e
 7398 1736 70040000 		.4byte	.LASF78
 7399 173a 01       		.byte	0x1
 7400 173b D506     		.2byte	0x6d5
 7401 173d 49000000 		.4byte	0x49
 7402 1741 89100000 		.4byte	.LLST86
ARM GAS  C:\Users\CNous\AppData\Local\Temp\ccZi7tDD.s 			page 199


 7403 1745 00       		.byte	0
 7404 1746 1B       		.uleb128 0x1b
 7405 1747 01       		.byte	0x1
 7406 1748 98020000 		.4byte	.LASF166
 7407 174c 01       		.byte	0x1
 7408 174d F206     		.2byte	0x6f2
 7409 174f 01       		.byte	0x1
 7410 1750 00000000 		.4byte	.LFB158
 7411 1754 24000000 		.4byte	.LFE158
 7412 1758 BE100000 		.4byte	.LLST87
 7413 175c 01       		.byte	0x1
 7414 175d 9C170000 		.4byte	0x179c
 7415 1761 1C       		.uleb128 0x1c
 7416 1762 E4050000 		.4byte	.LASF76
 7417 1766 01       		.byte	0x1
 7418 1767 F206     		.2byte	0x6f2
 7419 1769 36050000 		.4byte	0x536
 7420 176d 01       		.byte	0x1
 7421 176e 50       		.byte	0x50
 7422 176f 1D       		.uleb128 0x1d
 7423 1770 50020000 		.4byte	.LASF62
 7424 1774 01       		.byte	0x1
 7425 1775 F206     		.2byte	0x6f2
 7426 1777 49000000 		.4byte	0x49
 7427 177b DE100000 		.4byte	.LLST88
 7428 177f 1D       		.uleb128 0x1d
 7429 1780 40080000 		.4byte	.LASF167
 7430 1784 01       		.byte	0x1
 7431 1785 F206     		.2byte	0x6f2
 7432 1787 49000000 		.4byte	0x49
 7433 178b FF100000 		.4byte	.LLST89
 7434 178f 14       		.uleb128 0x14
 7435 1790 746D7000 		.ascii	"tmp\000"
 7436 1794 01       		.byte	0x1
 7437 1795 F406     		.2byte	0x6f4
 7438 1797 49000000 		.4byte	0x49
 7439 179b 00       		.byte	0
 7440 179c 1B       		.uleb128 0x1b
 7441 179d 01       		.byte	0x1
 7442 179e 84070000 		.4byte	.LASF168
 7443 17a2 01       		.byte	0x1
 7444 17a3 1007     		.2byte	0x710
 7445 17a5 01       		.byte	0x1
 7446 17a6 00000000 		.4byte	.LFB159
 7447 17aa 24000000 		.4byte	.LFE159
 7448 17ae 20110000 		.4byte	.LLST90
 7449 17b2 01       		.byte	0x1
 7450 17b3 F2170000 		.4byte	0x17f2
 7451 17b7 1C       		.uleb128 0x1c
 7452 17b8 E4050000 		.4byte	.LASF76
 7453 17bc 01       		.byte	0x1
 7454 17bd 1007     		.2byte	0x710
 7455 17bf 36050000 		.4byte	0x536
 7456 17c3 01       		.byte	0x1
 7457 17c4 50       		.byte	0x50
 7458 17c5 1D       		.uleb128 0x1d
 7459 17c6 50020000 		.4byte	.LASF62
ARM GAS  C:\Users\CNous\AppData\Local\Temp\ccZi7tDD.s 			page 200


 7460 17ca 01       		.byte	0x1
 7461 17cb 1007     		.2byte	0x710
 7462 17cd 49000000 		.4byte	0x49
 7463 17d1 40110000 		.4byte	.LLST91
 7464 17d5 1D       		.uleb128 0x1d
 7465 17d6 D7030000 		.4byte	.LASF169
 7466 17da 01       		.byte	0x1
 7467 17db 1007     		.2byte	0x710
 7468 17dd 49000000 		.4byte	0x49
 7469 17e1 61110000 		.4byte	.LLST92
 7470 17e5 14       		.uleb128 0x14
 7471 17e6 746D7000 		.ascii	"tmp\000"
 7472 17ea 01       		.byte	0x1
 7473 17eb 1207     		.2byte	0x712
 7474 17ed 49000000 		.4byte	0x49
 7475 17f1 00       		.byte	0
 7476 17f2 1B       		.uleb128 0x1b
 7477 17f3 01       		.byte	0x1
 7478 17f4 080B0000 		.4byte	.LASF170
 7479 17f8 01       		.byte	0x1
 7480 17f9 6207     		.2byte	0x762
 7481 17fb 01       		.byte	0x1
 7482 17fc 00000000 		.4byte	.LFB160
 7483 1800 6A010000 		.4byte	.LFE160
 7484 1804 82110000 		.4byte	.LLST93
 7485 1808 01       		.byte	0x1
 7486 1809 231A0000 		.4byte	0x1a23
 7487 180d 1C       		.uleb128 0x1c
 7488 180e E4050000 		.4byte	.LASF76
 7489 1812 01       		.byte	0x1
 7490 1813 6207     		.2byte	0x762
 7491 1815 36050000 		.4byte	0x536
 7492 1819 01       		.byte	0x1
 7493 181a 50       		.byte	0x50
 7494 181b 1D       		.uleb128 0x1d
 7495 181c C00C0000 		.4byte	.LASF171
 7496 1820 01       		.byte	0x1
 7497 1821 6207     		.2byte	0x762
 7498 1823 231A0000 		.4byte	0x1a23
 7499 1827 A2110000 		.4byte	.LLST94
 7500 182b 22       		.uleb128 0x22
 7501 182c EF050000 		.4byte	0x5ef
 7502 1830 0E000000 		.4byte	.LBB46
 7503 1834 00000000 		.4byte	.Ldebug_ranges0+0
 7504 1838 01       		.byte	0x1
 7505 1839 8207     		.2byte	0x782
 7506 183b 81180000 		.4byte	0x1881
 7507 183f 23       		.uleb128 0x23
 7508 1840 21060000 		.4byte	0x621
 7509 1844 0E120000 		.4byte	.LLST95
 7510 1848 23       		.uleb128 0x23
 7511 1849 15060000 		.4byte	0x615
 7512 184d 31120000 		.4byte	.LLST96
 7513 1851 24       		.uleb128 0x24
 7514 1852 09060000 		.4byte	0x609
 7515 1856 01       		.byte	0x1
 7516 1857 56       		.byte	0x56
ARM GAS  C:\Users\CNous\AppData\Local\Temp\ccZi7tDD.s 			page 201


 7517 1858 24       		.uleb128 0x24
 7518 1859 FD050000 		.4byte	0x5fd
 7519 185d 01       		.byte	0x1
 7520 185e 50       		.byte	0x50
 7521 185f 25       		.uleb128 0x25
 7522 1860 20000000 		.4byte	.Ldebug_ranges0+0x20
 7523 1864 26       		.uleb128 0x26
 7524 1865 2D060000 		.4byte	0x62d
 7525 1869 54120000 		.4byte	.LLST97
 7526 186d 26       		.uleb128 0x26
 7527 186e 39060000 		.4byte	0x639
 7528 1872 8F120000 		.4byte	.LLST98
 7529 1876 26       		.uleb128 0x26
 7530 1877 45060000 		.4byte	0x645
 7531 187b B9120000 		.4byte	.LLST99
 7532 187f 00       		.byte	0
 7533 1880 00       		.byte	0
 7534 1881 27       		.uleb128 0x27
 7535 1882 7A060000 		.4byte	0x67a
 7536 1886 1C000000 		.4byte	.LBB50
 7537 188a 52000000 		.4byte	.LBE50
 7538 188e 01       		.byte	0x1
 7539 188f 8C07     		.2byte	0x78c
 7540 1891 DF180000 		.4byte	0x18df
 7541 1895 23       		.uleb128 0x23
 7542 1896 AC060000 		.4byte	0x6ac
 7543 189a DC120000 		.4byte	.LLST100
 7544 189e 23       		.uleb128 0x23
 7545 189f A0060000 		.4byte	0x6a0
 7546 18a3 FF120000 		.4byte	.LLST101
 7547 18a7 23       		.uleb128 0x23
 7548 18a8 94060000 		.4byte	0x694
 7549 18ac 22130000 		.4byte	.LLST102
 7550 18b0 23       		.uleb128 0x23
 7551 18b1 88060000 		.4byte	0x688
 7552 18b5 45130000 		.4byte	.LLST103
 7553 18b9 28       		.uleb128 0x28
 7554 18ba 1C000000 		.4byte	.LBB51
 7555 18be 52000000 		.4byte	.LBE51
 7556 18c2 26       		.uleb128 0x26
 7557 18c3 B8060000 		.4byte	0x6b8
 7558 18c7 58130000 		.4byte	.LLST104
 7559 18cb 26       		.uleb128 0x26
 7560 18cc C4060000 		.4byte	0x6c4
 7561 18d0 A3130000 		.4byte	.LLST105
 7562 18d4 26       		.uleb128 0x26
 7563 18d5 D0060000 		.4byte	0x6d0
 7564 18d9 CD130000 		.4byte	.LLST106
 7565 18dd 00       		.byte	0
 7566 18de 00       		.byte	0
 7567 18df 27       		.uleb128 0x27
 7568 18e0 DD060000 		.4byte	0x6dd
 7569 18e4 52000000 		.4byte	.LBB52
 7570 18e8 6A000000 		.4byte	.LBE52
 7571 18ec 01       		.byte	0x1
 7572 18ed 9007     		.2byte	0x790
 7573 18ef 06190000 		.4byte	0x1906
ARM GAS  C:\Users\CNous\AppData\Local\Temp\ccZi7tDD.s 			page 202


 7574 18f3 23       		.uleb128 0x23
 7575 18f4 F8060000 		.4byte	0x6f8
 7576 18f8 F0130000 		.4byte	.LLST107
 7577 18fc 23       		.uleb128 0x23
 7578 18fd EC060000 		.4byte	0x6ec
 7579 1901 07140000 		.4byte	.LLST108
 7580 1905 00       		.byte	0
 7581 1906 22       		.uleb128 0x22
 7582 1907 DF040000 		.4byte	0x4df
 7583 190b 6E000000 		.4byte	.LBB54
 7584 190f 40000000 		.4byte	.Ldebug_ranges0+0x40
 7585 1913 01       		.byte	0x1
 7586 1914 6E07     		.2byte	0x76e
 7587 1916 57190000 		.4byte	0x1957
 7588 191a 23       		.uleb128 0x23
 7589 191b 11050000 		.4byte	0x511
 7590 191f 1A140000 		.4byte	.LLST109
 7591 1923 23       		.uleb128 0x23
 7592 1924 05050000 		.4byte	0x505
 7593 1928 3D140000 		.4byte	.LLST110
 7594 192c 23       		.uleb128 0x23
 7595 192d F9040000 		.4byte	0x4f9
 7596 1931 60140000 		.4byte	.LLST111
 7597 1935 23       		.uleb128 0x23
 7598 1936 ED040000 		.4byte	0x4ed
 7599 193a 83140000 		.4byte	.LLST112
 7600 193e 25       		.uleb128 0x25
 7601 193f 58000000 		.4byte	.Ldebug_ranges0+0x58
 7602 1943 26       		.uleb128 0x26
 7603 1944 1D050000 		.4byte	0x51d
 7604 1948 96140000 		.4byte	.LLST113
 7605 194c 26       		.uleb128 0x26
 7606 194d 29050000 		.4byte	0x529
 7607 1951 D1140000 		.4byte	.LLST114
 7608 1955 00       		.byte	0
 7609 1956 00       		.byte	0
 7610 1957 27       		.uleb128 0x27
 7611 1958 3C050000 		.4byte	0x53c
 7612 195c A8000000 		.4byte	.LBB58
 7613 1960 BE000000 		.4byte	.LBE58
 7614 1964 01       		.byte	0x1
 7615 1965 7207     		.2byte	0x772
 7616 1967 7E190000 		.4byte	0x197e
 7617 196b 23       		.uleb128 0x23
 7618 196c 57050000 		.4byte	0x557
 7619 1970 FB140000 		.4byte	.LLST115
 7620 1974 23       		.uleb128 0x23
 7621 1975 4B050000 		.4byte	0x54b
 7622 1979 12150000 		.4byte	.LLST116
 7623 197d 00       		.byte	0
 7624 197e 22       		.uleb128 0x22
 7625 197f 64050000 		.4byte	0x564
 7626 1983 BE000000 		.4byte	.LBB60
 7627 1987 70000000 		.4byte	.Ldebug_ranges0+0x70
 7628 198b 01       		.byte	0x1
 7629 198c 7807     		.2byte	0x778
 7630 198e D8190000 		.4byte	0x19d8
ARM GAS  C:\Users\CNous\AppData\Local\Temp\ccZi7tDD.s 			page 203


 7631 1992 23       		.uleb128 0x23
 7632 1993 96050000 		.4byte	0x596
 7633 1997 25150000 		.4byte	.LLST117
 7634 199b 23       		.uleb128 0x23
 7635 199c 8A050000 		.4byte	0x58a
 7636 19a0 48150000 		.4byte	.LLST118
 7637 19a4 23       		.uleb128 0x23
 7638 19a5 7E050000 		.4byte	0x57e
 7639 19a9 6B150000 		.4byte	.LLST119
 7640 19ad 23       		.uleb128 0x23
 7641 19ae 72050000 		.4byte	0x572
 7642 19b2 8E150000 		.4byte	.LLST120
 7643 19b6 25       		.uleb128 0x25
 7644 19b7 88000000 		.4byte	.Ldebug_ranges0+0x88
 7645 19bb 26       		.uleb128 0x26
 7646 19bc A2050000 		.4byte	0x5a2
 7647 19c0 A1150000 		.4byte	.LLST121
 7648 19c4 26       		.uleb128 0x26
 7649 19c5 AE050000 		.4byte	0x5ae
 7650 19c9 EC150000 		.4byte	.LLST122
 7651 19cd 26       		.uleb128 0x26
 7652 19ce BA050000 		.4byte	0x5ba
 7653 19d2 16160000 		.4byte	.LLST123
 7654 19d6 00       		.byte	0
 7655 19d7 00       		.byte	0
 7656 19d8 27       		.uleb128 0x27
 7657 19d9 C7050000 		.4byte	0x5c7
 7658 19dd 00010000 		.4byte	.LBB64
 7659 19e1 1A010000 		.4byte	.LBE64
 7660 19e5 01       		.byte	0x1
 7661 19e6 7C07     		.2byte	0x77c
 7662 19e8 FF190000 		.4byte	0x19ff
 7663 19ec 23       		.uleb128 0x23
 7664 19ed E2050000 		.4byte	0x5e2
 7665 19f1 39160000 		.4byte	.LLST124
 7666 19f5 23       		.uleb128 0x23
 7667 19f6 D6050000 		.4byte	0x5d6
 7668 19fa 50160000 		.4byte	.LLST125
 7669 19fe 00       		.byte	0
 7670 19ff 29       		.uleb128 0x29
 7671 1a00 52060000 		.4byte	0x652
 7672 1a04 54010000 		.4byte	.LBB68
 7673 1a08 6A010000 		.4byte	.LBE68
 7674 1a0c 01       		.byte	0x1
 7675 1a0d 8607     		.2byte	0x786
 7676 1a0f 24       		.uleb128 0x24
 7677 1a10 6D060000 		.4byte	0x66d
 7678 1a14 05       		.byte	0x5
 7679 1a15 F3       		.byte	0xf3
 7680 1a16 01       		.uleb128 0x1
 7681 1a17 51       		.byte	0x51
 7682 1a18 23       		.byte	0x23
 7683 1a19 06       		.uleb128 0x6
 7684 1a1a 24       		.uleb128 0x24
 7685 1a1b 61060000 		.4byte	0x661
 7686 1a1f 01       		.byte	0x1
 7687 1a20 50       		.byte	0x50
ARM GAS  C:\Users\CNous\AppData\Local\Temp\ccZi7tDD.s 			page 204


 7688 1a21 00       		.byte	0
 7689 1a22 00       		.byte	0
 7690 1a23 12       		.uleb128 0x12
 7691 1a24 04       		.byte	0x4
 7692 1a25 5E040000 		.4byte	0x45e
 7693 1a29 1F       		.uleb128 0x1f
 7694 1a2a 01       		.byte	0x1
 7695 1a2b 66030000 		.4byte	.LASF172
 7696 1a2f 01       		.byte	0x1
 7697 1a30 9A07     		.2byte	0x79a
 7698 1a32 01       		.byte	0x1
 7699 1a33 00000000 		.4byte	.LFB161
 7700 1a37 10000000 		.4byte	.LFE161
 7701 1a3b 02       		.byte	0x2
 7702 1a3c 7D       		.byte	0x7d
 7703 1a3d 00       		.sleb128 0
 7704 1a3e 01       		.byte	0x1
 7705 1a3f 521A0000 		.4byte	0x1a52
 7706 1a43 1C       		.uleb128 0x1c
 7707 1a44 C00C0000 		.4byte	.LASF171
 7708 1a48 01       		.byte	0x1
 7709 1a49 9A07     		.2byte	0x79a
 7710 1a4b 231A0000 		.4byte	0x1a23
 7711 1a4f 01       		.byte	0x1
 7712 1a50 50       		.byte	0x50
 7713 1a51 00       		.byte	0
 7714 1a52 1B       		.uleb128 0x1b
 7715 1a53 01       		.byte	0x1
 7716 1a54 4F060000 		.4byte	.LASF173
 7717 1a58 01       		.byte	0x1
 7718 1a59 AD07     		.2byte	0x7ad
 7719 1a5b 01       		.byte	0x1
 7720 1a5c 00000000 		.4byte	.LFB162
 7721 1a60 64010000 		.4byte	.LFE162
 7722 1a64 63160000 		.4byte	.LLST126
 7723 1a68 01       		.byte	0x1
 7724 1a69 A01C0000 		.4byte	0x1ca0
 7725 1a6d 1C       		.uleb128 0x1c
 7726 1a6e E4050000 		.4byte	.LASF76
 7727 1a72 01       		.byte	0x1
 7728 1a73 AD07     		.2byte	0x7ad
 7729 1a75 36050000 		.4byte	0x536
 7730 1a79 01       		.byte	0x1
 7731 1a7a 50       		.byte	0x50
 7732 1a7b 1D       		.uleb128 0x1d
 7733 1a7c C00C0000 		.4byte	.LASF171
 7734 1a80 01       		.byte	0x1
 7735 1a81 AD07     		.2byte	0x7ad
 7736 1a83 231A0000 		.4byte	0x1a23
 7737 1a87 83160000 		.4byte	.LLST127
 7738 1a8b 1E       		.uleb128 0x1e
 7739 1a8c B3030000 		.4byte	.LASF174
 7740 1a90 01       		.byte	0x1
 7741 1a91 AF07     		.2byte	0x7af
 7742 1a93 49000000 		.4byte	0x49
 7743 1a97 BD160000 		.4byte	.LLST128
 7744 1a9b 1E       		.uleb128 0x1e
ARM GAS  C:\Users\CNous\AppData\Local\Temp\ccZi7tDD.s 			page 205


 7745 1a9c BF070000 		.4byte	.LASF175
 7746 1aa0 01       		.byte	0x1
 7747 1aa1 B007     		.2byte	0x7b0
 7748 1aa3 49000000 		.4byte	0x49
 7749 1aa7 25170000 		.4byte	.LLST129
 7750 1aab 22       		.uleb128 0x22
 7751 1aac 64050000 		.4byte	0x564
 7752 1ab0 1E000000 		.4byte	.LBB70
 7753 1ab4 A0000000 		.4byte	.Ldebug_ranges0+0xa0
 7754 1ab8 01       		.byte	0x1
 7755 1ab9 D607     		.2byte	0x7d6
 7756 1abb 051B0000 		.4byte	0x1b05
 7757 1abf 23       		.uleb128 0x23
 7758 1ac0 96050000 		.4byte	0x596
 7759 1ac4 8D170000 		.4byte	.LLST130
 7760 1ac8 23       		.uleb128 0x23
 7761 1ac9 8A050000 		.4byte	0x58a
 7762 1acd B0170000 		.4byte	.LLST131
 7763 1ad1 23       		.uleb128 0x23
 7764 1ad2 7E050000 		.4byte	0x57e
 7765 1ad6 D3170000 		.4byte	.LLST132
 7766 1ada 23       		.uleb128 0x23
 7767 1adb 72050000 		.4byte	0x572
 7768 1adf F6170000 		.4byte	.LLST133
 7769 1ae3 25       		.uleb128 0x25
 7770 1ae4 B8000000 		.4byte	.Ldebug_ranges0+0xb8
 7771 1ae8 26       		.uleb128 0x26
 7772 1ae9 A2050000 		.4byte	0x5a2
 7773 1aed 09180000 		.4byte	.LLST134
 7774 1af1 26       		.uleb128 0x26
 7775 1af2 AE050000 		.4byte	0x5ae
 7776 1af6 64180000 		.4byte	.LLST135
 7777 1afa 26       		.uleb128 0x26
 7778 1afb BA050000 		.4byte	0x5ba
 7779 1aff 8E180000 		.4byte	.LLST136
 7780 1b03 00       		.byte	0
 7781 1b04 00       		.byte	0
 7782 1b05 27       		.uleb128 0x27
 7783 1b06 C7050000 		.4byte	0x5c7
 7784 1b0a 60000000 		.4byte	.LBB74
 7785 1b0e 78000000 		.4byte	.LBE74
 7786 1b12 01       		.byte	0x1
 7787 1b13 D907     		.2byte	0x7d9
 7788 1b15 2C1B0000 		.4byte	0x1b2c
 7789 1b19 23       		.uleb128 0x23
 7790 1b1a E2050000 		.4byte	0x5e2
 7791 1b1e C5180000 		.4byte	.LLST137
 7792 1b22 23       		.uleb128 0x23
 7793 1b23 D6050000 		.4byte	0x5d6
 7794 1b27 DC180000 		.4byte	.LLST138
 7795 1b2b 00       		.byte	0
 7796 1b2c 27       		.uleb128 0x27
 7797 1b2d DF040000 		.4byte	0x4df
 7798 1b31 78000000 		.4byte	.LBB76
 7799 1b35 AA000000 		.4byte	.LBE76
 7800 1b39 01       		.byte	0x1
 7801 1b3a DB07     		.2byte	0x7db
ARM GAS  C:\Users\CNous\AppData\Local\Temp\ccZi7tDD.s 			page 206


 7802 1b3c 811B0000 		.4byte	0x1b81
 7803 1b40 23       		.uleb128 0x23
 7804 1b41 11050000 		.4byte	0x511
 7805 1b45 EF180000 		.4byte	.LLST139
 7806 1b49 23       		.uleb128 0x23
 7807 1b4a 05050000 		.4byte	0x505
 7808 1b4e 06190000 		.4byte	.LLST140
 7809 1b52 23       		.uleb128 0x23
 7810 1b53 F9040000 		.4byte	0x4f9
 7811 1b57 38190000 		.4byte	.LLST141
 7812 1b5b 23       		.uleb128 0x23
 7813 1b5c ED040000 		.4byte	0x4ed
 7814 1b60 6A190000 		.4byte	.LLST142
 7815 1b64 28       		.uleb128 0x28
 7816 1b65 78000000 		.4byte	.LBB77
 7817 1b69 AA000000 		.4byte	.LBE77
 7818 1b6d 26       		.uleb128 0x26
 7819 1b6e 1D050000 		.4byte	0x51d
 7820 1b72 7D190000 		.4byte	.LLST143
 7821 1b76 26       		.uleb128 0x26
 7822 1b77 29050000 		.4byte	0x529
 7823 1b7b B8190000 		.4byte	.LLST144
 7824 1b7f 00       		.byte	0
 7825 1b80 00       		.byte	0
 7826 1b81 27       		.uleb128 0x27
 7827 1b82 3C050000 		.4byte	0x53c
 7828 1b86 AA000000 		.4byte	.LBB78
 7829 1b8a C2000000 		.4byte	.LBE78
 7830 1b8e 01       		.byte	0x1
 7831 1b8f DD07     		.2byte	0x7dd
 7832 1b91 A81B0000 		.4byte	0x1ba8
 7833 1b95 23       		.uleb128 0x23
 7834 1b96 57050000 		.4byte	0x557
 7835 1b9a E2190000 		.4byte	.LLST145
 7836 1b9e 23       		.uleb128 0x23
 7837 1b9f 4B050000 		.4byte	0x54b
 7838 1ba3 F9190000 		.4byte	.LLST146
 7839 1ba7 00       		.byte	0
 7840 1ba8 22       		.uleb128 0x22
 7841 1ba9 DF040000 		.4byte	0x4df
 7842 1bad C8000000 		.4byte	.LBB80
 7843 1bb1 D0000000 		.4byte	.Ldebug_ranges0+0xd0
 7844 1bb5 01       		.byte	0x1
 7845 1bb6 CA07     		.2byte	0x7ca
 7846 1bb8 F71B0000 		.4byte	0x1bf7
 7847 1bbc 23       		.uleb128 0x23
 7848 1bbd 11050000 		.4byte	0x511
 7849 1bc1 0C1A0000 		.4byte	.LLST147
 7850 1bc5 23       		.uleb128 0x23
 7851 1bc6 05050000 		.4byte	0x505
 7852 1bca 2F1A0000 		.4byte	.LLST148
 7853 1bce 23       		.uleb128 0x23
 7854 1bcf F9040000 		.4byte	0x4f9
 7855 1bd3 511A0000 		.4byte	.LLST149
 7856 1bd7 24       		.uleb128 0x24
 7857 1bd8 ED040000 		.4byte	0x4ed
 7858 1bdc 01       		.byte	0x1
ARM GAS  C:\Users\CNous\AppData\Local\Temp\ccZi7tDD.s 			page 207


 7859 1bdd 50       		.byte	0x50
 7860 1bde 25       		.uleb128 0x25
 7861 1bdf E8000000 		.4byte	.Ldebug_ranges0+0xe8
 7862 1be3 26       		.uleb128 0x26
 7863 1be4 1D050000 		.4byte	0x51d
 7864 1be8 731A0000 		.4byte	.LLST150
 7865 1bec 26       		.uleb128 0x26
 7866 1bed 29050000 		.4byte	0x529
 7867 1bf1 AE1A0000 		.4byte	.LLST151
 7868 1bf5 00       		.byte	0
 7869 1bf6 00       		.byte	0
 7870 1bf7 27       		.uleb128 0x27
 7871 1bf8 3C050000 		.4byte	0x53c
 7872 1bfc 00010000 		.4byte	.LBB84
 7873 1c00 14010000 		.4byte	.LBE84
 7874 1c04 01       		.byte	0x1
 7875 1c05 CD07     		.2byte	0x7cd
 7876 1c07 1E1C0000 		.4byte	0x1c1e
 7877 1c0b 24       		.uleb128 0x24
 7878 1c0c 57050000 		.4byte	0x557
 7879 1c10 05       		.byte	0x5
 7880 1c11 F3       		.byte	0xf3
 7881 1c12 01       		.uleb128 0x1
 7882 1c13 51       		.byte	0x51
 7883 1c14 23       		.byte	0x23
 7884 1c15 06       		.uleb128 0x6
 7885 1c16 24       		.uleb128 0x24
 7886 1c17 4B050000 		.4byte	0x54b
 7887 1c1b 01       		.byte	0x1
 7888 1c1c 50       		.byte	0x50
 7889 1c1d 00       		.byte	0
 7890 1c1e 27       		.uleb128 0x27
 7891 1c1f 64050000 		.4byte	0x564
 7892 1c23 14010000 		.4byte	.LBB86
 7893 1c27 4A010000 		.4byte	.LBE86
 7894 1c2b 01       		.byte	0x1
 7895 1c2c CF07     		.2byte	0x7cf
 7896 1c2e 7C1C0000 		.4byte	0x1c7c
 7897 1c32 24       		.uleb128 0x24
 7898 1c33 96050000 		.4byte	0x596
 7899 1c37 05       		.byte	0x5
 7900 1c38 F3       		.byte	0xf3
 7901 1c39 01       		.uleb128 0x1
 7902 1c3a 51       		.byte	0x51
 7903 1c3b 23       		.byte	0x23
 7904 1c3c 08       		.uleb128 0x8
 7905 1c3d 23       		.uleb128 0x23
 7906 1c3e 8A050000 		.4byte	0x58a
 7907 1c42 D81A0000 		.4byte	.LLST152
 7908 1c46 23       		.uleb128 0x23
 7909 1c47 7E050000 		.4byte	0x57e
 7910 1c4b 0A1B0000 		.4byte	.LLST153
 7911 1c4f 24       		.uleb128 0x24
 7912 1c50 72050000 		.4byte	0x572
 7913 1c54 01       		.byte	0x1
 7914 1c55 50       		.byte	0x50
 7915 1c56 28       		.uleb128 0x28
ARM GAS  C:\Users\CNous\AppData\Local\Temp\ccZi7tDD.s 			page 208


 7916 1c57 14010000 		.4byte	.LBB87
 7917 1c5b 4A010000 		.4byte	.LBE87
 7918 1c5f 26       		.uleb128 0x26
 7919 1c60 A2050000 		.4byte	0x5a2
 7920 1c64 3C1B0000 		.4byte	.LLST154
 7921 1c68 26       		.uleb128 0x26
 7922 1c69 AE050000 		.4byte	0x5ae
 7923 1c6d 7C1B0000 		.4byte	.LLST155
 7924 1c71 26       		.uleb128 0x26
 7925 1c72 BA050000 		.4byte	0x5ba
 7926 1c76 A61B0000 		.4byte	.LLST156
 7927 1c7a 00       		.byte	0
 7928 1c7b 00       		.byte	0
 7929 1c7c 29       		.uleb128 0x29
 7930 1c7d C7050000 		.4byte	0x5c7
 7931 1c81 4A010000 		.4byte	.LBB88
 7932 1c85 64010000 		.4byte	.LBE88
 7933 1c89 01       		.byte	0x1
 7934 1c8a D107     		.2byte	0x7d1
 7935 1c8c 24       		.uleb128 0x24
 7936 1c8d E2050000 		.4byte	0x5e2
 7937 1c91 05       		.byte	0x5
 7938 1c92 F3       		.byte	0xf3
 7939 1c93 01       		.uleb128 0x1
 7940 1c94 51       		.byte	0x51
 7941 1c95 23       		.byte	0x23
 7942 1c96 06       		.uleb128 0x6
 7943 1c97 24       		.uleb128 0x24
 7944 1c98 D6050000 		.4byte	0x5d6
 7945 1c9c 01       		.byte	0x1
 7946 1c9d 50       		.byte	0x50
 7947 1c9e 00       		.byte	0
 7948 1c9f 00       		.byte	0
 7949 1ca0 20       		.uleb128 0x20
 7950 1ca1 01       		.byte	0x1
 7951 1ca2 48050000 		.4byte	.LASF176
 7952 1ca6 01       		.byte	0x1
 7953 1ca7 E607     		.2byte	0x7e6
 7954 1ca9 01       		.byte	0x1
 7955 1caa 6D000000 		.4byte	0x6d
 7956 1cae 00000000 		.4byte	.LFB163
 7957 1cb2 04000000 		.4byte	.LFE163
 7958 1cb6 02       		.byte	0x2
 7959 1cb7 7D       		.byte	0x7d
 7960 1cb8 00       		.sleb128 0
 7961 1cb9 01       		.byte	0x1
 7962 1cba CF1C0000 		.4byte	0x1ccf
 7963 1cbe 1D       		.uleb128 0x1d
 7964 1cbf E4050000 		.4byte	.LASF76
 7965 1cc3 01       		.byte	0x1
 7966 1cc4 E607     		.2byte	0x7e6
 7967 1cc6 36050000 		.4byte	0x536
 7968 1cca EA1B0000 		.4byte	.LLST157
 7969 1cce 00       		.byte	0
 7970 1ccf 20       		.uleb128 0x20
 7971 1cd0 01       		.byte	0x1
 7972 1cd1 77030000 		.4byte	.LASF177
ARM GAS  C:\Users\CNous\AppData\Local\Temp\ccZi7tDD.s 			page 209


 7973 1cd5 01       		.byte	0x1
 7974 1cd6 F507     		.2byte	0x7f5
 7975 1cd8 01       		.byte	0x1
 7976 1cd9 6D000000 		.4byte	0x6d
 7977 1cdd 00000000 		.4byte	.LFB164
 7978 1ce1 04000000 		.4byte	.LFE164
 7979 1ce5 02       		.byte	0x2
 7980 1ce6 7D       		.byte	0x7d
 7981 1ce7 00       		.sleb128 0
 7982 1ce8 01       		.byte	0x1
 7983 1ce9 FE1C0000 		.4byte	0x1cfe
 7984 1ced 1D       		.uleb128 0x1d
 7985 1cee E4050000 		.4byte	.LASF76
 7986 1cf2 01       		.byte	0x1
 7987 1cf3 F507     		.2byte	0x7f5
 7988 1cf5 36050000 		.4byte	0x536
 7989 1cf9 0B1C0000 		.4byte	.LLST158
 7990 1cfd 00       		.byte	0
 7991 1cfe 20       		.uleb128 0x20
 7992 1cff 01       		.byte	0x1
 7993 1d00 87030000 		.4byte	.LASF178
 7994 1d04 01       		.byte	0x1
 7995 1d05 0308     		.2byte	0x803
 7996 1d07 01       		.byte	0x1
 7997 1d08 6D000000 		.4byte	0x6d
 7998 1d0c 00000000 		.4byte	.LFB165
 7999 1d10 04000000 		.4byte	.LFE165
 8000 1d14 02       		.byte	0x2
 8001 1d15 7D       		.byte	0x7d
 8002 1d16 00       		.sleb128 0
 8003 1d17 01       		.byte	0x1
 8004 1d18 2D1D0000 		.4byte	0x1d2d
 8005 1d1c 1D       		.uleb128 0x1d
 8006 1d1d E4050000 		.4byte	.LASF76
 8007 1d21 01       		.byte	0x1
 8008 1d22 0308     		.2byte	0x803
 8009 1d24 36050000 		.4byte	0x536
 8010 1d28 2C1C0000 		.4byte	.LLST159
 8011 1d2c 00       		.byte	0
 8012 1d2d 20       		.uleb128 0x20
 8013 1d2e 01       		.byte	0x1
 8014 1d2f 97030000 		.4byte	.LASF179
 8015 1d33 01       		.byte	0x1
 8016 1d34 1108     		.2byte	0x811
 8017 1d36 01       		.byte	0x1
 8018 1d37 6D000000 		.4byte	0x6d
 8019 1d3b 00000000 		.4byte	.LFB166
 8020 1d3f 04000000 		.4byte	.LFE166
 8021 1d43 02       		.byte	0x2
 8022 1d44 7D       		.byte	0x7d
 8023 1d45 00       		.sleb128 0
 8024 1d46 01       		.byte	0x1
 8025 1d47 5C1D0000 		.4byte	0x1d5c
 8026 1d4b 1D       		.uleb128 0x1d
 8027 1d4c E4050000 		.4byte	.LASF76
 8028 1d50 01       		.byte	0x1
 8029 1d51 1108     		.2byte	0x811
ARM GAS  C:\Users\CNous\AppData\Local\Temp\ccZi7tDD.s 			page 210


 8030 1d53 36050000 		.4byte	0x536
 8031 1d57 4D1C0000 		.4byte	.LLST160
 8032 1d5b 00       		.byte	0
 8033 1d5c 2A       		.uleb128 0x2a
 8034 1d5d 3C050000 		.4byte	0x53c
 8035 1d61 00000000 		.4byte	.LFB167
 8036 1d65 16000000 		.4byte	.LFE167
 8037 1d69 02       		.byte	0x2
 8038 1d6a 7D       		.byte	0x7d
 8039 1d6b 00       		.sleb128 0
 8040 1d6c 01       		.byte	0x1
 8041 1d6d 821D0000 		.4byte	0x1d82
 8042 1d71 24       		.uleb128 0x24
 8043 1d72 4B050000 		.4byte	0x54b
 8044 1d76 01       		.byte	0x1
 8045 1d77 50       		.byte	0x50
 8046 1d78 23       		.uleb128 0x23
 8047 1d79 57050000 		.4byte	0x557
 8048 1d7d 6E1C0000 		.4byte	.LLST161
 8049 1d81 00       		.byte	0
 8050 1d82 2A       		.uleb128 0x2a
 8051 1d83 C7050000 		.4byte	0x5c7
 8052 1d87 00000000 		.4byte	.LFB168
 8053 1d8b 1A000000 		.4byte	.LFE168
 8054 1d8f 02       		.byte	0x2
 8055 1d90 7D       		.byte	0x7d
 8056 1d91 00       		.sleb128 0
 8057 1d92 01       		.byte	0x1
 8058 1d93 A81D0000 		.4byte	0x1da8
 8059 1d97 24       		.uleb128 0x24
 8060 1d98 D6050000 		.4byte	0x5d6
 8061 1d9c 01       		.byte	0x1
 8062 1d9d 50       		.byte	0x50
 8063 1d9e 23       		.uleb128 0x23
 8064 1d9f E2050000 		.4byte	0x5e2
 8065 1da3 8F1C0000 		.4byte	.LLST162
 8066 1da7 00       		.byte	0
 8067 1da8 2A       		.uleb128 0x2a
 8068 1da9 52060000 		.4byte	0x652
 8069 1dad 00000000 		.4byte	.LFB169
 8070 1db1 16000000 		.4byte	.LFE169
 8071 1db5 02       		.byte	0x2
 8072 1db6 7D       		.byte	0x7d
 8073 1db7 00       		.sleb128 0
 8074 1db8 01       		.byte	0x1
 8075 1db9 CE1D0000 		.4byte	0x1dce
 8076 1dbd 24       		.uleb128 0x24
 8077 1dbe 61060000 		.4byte	0x661
 8078 1dc2 01       		.byte	0x1
 8079 1dc3 50       		.byte	0x50
 8080 1dc4 23       		.uleb128 0x23
 8081 1dc5 6D060000 		.4byte	0x66d
 8082 1dc9 B01C0000 		.4byte	.LLST163
 8083 1dcd 00       		.byte	0
 8084 1dce 2A       		.uleb128 0x2a
 8085 1dcf DD060000 		.4byte	0x6dd
 8086 1dd3 00000000 		.4byte	.LFB170
ARM GAS  C:\Users\CNous\AppData\Local\Temp\ccZi7tDD.s 			page 211


 8087 1dd7 1A000000 		.4byte	.LFE170
 8088 1ddb 02       		.byte	0x2
 8089 1ddc 7D       		.byte	0x7d
 8090 1ddd 00       		.sleb128 0
 8091 1dde 01       		.byte	0x1
 8092 1ddf F41D0000 		.4byte	0x1df4
 8093 1de3 24       		.uleb128 0x24
 8094 1de4 EC060000 		.4byte	0x6ec
 8095 1de8 01       		.byte	0x1
 8096 1de9 50       		.byte	0x50
 8097 1dea 23       		.uleb128 0x23
 8098 1deb F8060000 		.4byte	0x6f8
 8099 1def D11C0000 		.4byte	.LLST164
 8100 1df3 00       		.byte	0
 8101 1df4 1B       		.uleb128 0x1b
 8102 1df5 01       		.byte	0x1
 8103 1df6 38090000 		.4byte	.LASF180
 8104 1dfa 01       		.byte	0x1
 8105 1dfb A308     		.2byte	0x8a3
 8106 1dfd 01       		.byte	0x1
 8107 1dfe 00000000 		.4byte	.LFB171
 8108 1e02 2A000000 		.4byte	.LFE171
 8109 1e06 F21C0000 		.4byte	.LLST165
 8110 1e0a 01       		.byte	0x1
 8111 1e0b 2E1E0000 		.4byte	0x1e2e
 8112 1e0f 1C       		.uleb128 0x1c
 8113 1e10 E4050000 		.4byte	.LASF76
 8114 1e14 01       		.byte	0x1
 8115 1e15 A308     		.2byte	0x8a3
 8116 1e17 36050000 		.4byte	0x536
 8117 1e1b 01       		.byte	0x1
 8118 1e1c 50       		.byte	0x50
 8119 1e1d 1D       		.uleb128 0x1d
 8120 1e1e FD090000 		.4byte	.LASF181
 8121 1e22 01       		.byte	0x1
 8122 1e23 A308     		.2byte	0x8a3
 8123 1e25 2E1E0000 		.4byte	0x1e2e
 8124 1e29 121D0000 		.4byte	.LLST166
 8125 1e2d 00       		.byte	0
 8126 1e2e 12       		.uleb128 0x12
 8127 1e2f 04       		.byte	0x4
 8128 1e30 D4040000 		.4byte	0x4d4
 8129 1e34 1F       		.uleb128 0x1f
 8130 1e35 01       		.byte	0x1
 8131 1e36 D8060000 		.4byte	.LASF182
 8132 1e3a 01       		.byte	0x1
 8133 1e3b BC08     		.2byte	0x8bc
 8134 1e3d 01       		.byte	0x1
 8135 1e3e 00000000 		.4byte	.LFB172
 8136 1e42 12000000 		.4byte	.LFE172
 8137 1e46 02       		.byte	0x2
 8138 1e47 7D       		.byte	0x7d
 8139 1e48 00       		.sleb128 0
 8140 1e49 01       		.byte	0x1
 8141 1e4a 5D1E0000 		.4byte	0x1e5d
 8142 1e4e 1C       		.uleb128 0x1c
 8143 1e4f FD090000 		.4byte	.LASF181
ARM GAS  C:\Users\CNous\AppData\Local\Temp\ccZi7tDD.s 			page 212


 8144 1e53 01       		.byte	0x1
 8145 1e54 BC08     		.2byte	0x8bc
 8146 1e56 2E1E0000 		.4byte	0x1e2e
 8147 1e5a 01       		.byte	0x1
 8148 1e5b 50       		.byte	0x50
 8149 1e5c 00       		.byte	0
 8150 1e5d 1F       		.uleb128 0x1f
 8151 1e5e 01       		.byte	0x1
 8152 1e5f 25090000 		.4byte	.LASF183
 8153 1e63 01       		.byte	0x1
 8154 1e64 CF08     		.2byte	0x8cf
 8155 1e66 01       		.byte	0x1
 8156 1e67 00000000 		.4byte	.LFB173
 8157 1e6b 20000000 		.4byte	.LFE173
 8158 1e6f 02       		.byte	0x2
 8159 1e70 7D       		.byte	0x7d
 8160 1e71 00       		.sleb128 0
 8161 1e72 01       		.byte	0x1
 8162 1e73 961E0000 		.4byte	0x1e96
 8163 1e77 1C       		.uleb128 0x1c
 8164 1e78 E4050000 		.4byte	.LASF76
 8165 1e7c 01       		.byte	0x1
 8166 1e7d CF08     		.2byte	0x8cf
 8167 1e7f 36050000 		.4byte	0x536
 8168 1e83 01       		.byte	0x1
 8169 1e84 50       		.byte	0x50
 8170 1e85 1D       		.uleb128 0x1d
 8171 1e86 0B000000 		.4byte	.LASF112
 8172 1e8a 01       		.byte	0x1
 8173 1e8b CF08     		.2byte	0x8cf
 8174 1e8d F5000000 		.4byte	0xf5
 8175 1e91 331D0000 		.4byte	.LLST167
 8176 1e95 00       		.byte	0
 8177 1e96 1F       		.uleb128 0x1f
 8178 1e97 01       		.byte	0x1
 8179 1e98 62040000 		.4byte	.LASF184
 8180 1e9c 01       		.byte	0x1
 8181 1e9d E808     		.2byte	0x8e8
 8182 1e9f 01       		.byte	0x1
 8183 1ea0 00000000 		.4byte	.LFB174
 8184 1ea4 1A000000 		.4byte	.LFE174
 8185 1ea8 02       		.byte	0x2
 8186 1ea9 7D       		.byte	0x7d
 8187 1eaa 00       		.sleb128 0
 8188 1eab 01       		.byte	0x1
 8189 1eac CF1E0000 		.4byte	0x1ecf
 8190 1eb0 1C       		.uleb128 0x1c
 8191 1eb1 E4050000 		.4byte	.LASF76
 8192 1eb5 01       		.byte	0x1
 8193 1eb6 E808     		.2byte	0x8e8
 8194 1eb8 36050000 		.4byte	0x536
 8195 1ebc 01       		.byte	0x1
 8196 1ebd 50       		.byte	0x50
 8197 1ebe 1D       		.uleb128 0x1d
 8198 1ebf 0B000000 		.4byte	.LASF112
 8199 1ec3 01       		.byte	0x1
 8200 1ec4 E808     		.2byte	0x8e8
ARM GAS  C:\Users\CNous\AppData\Local\Temp\ccZi7tDD.s 			page 213


 8201 1ec6 F5000000 		.4byte	0xf5
 8202 1eca 6D1D0000 		.4byte	.LLST168
 8203 1ece 00       		.byte	0
 8204 1ecf 1F       		.uleb128 0x1f
 8205 1ed0 01       		.byte	0x1
 8206 1ed1 BE0B0000 		.4byte	.LASF185
 8207 1ed5 01       		.byte	0x1
 8208 1ed6 0109     		.2byte	0x901
 8209 1ed8 01       		.byte	0x1
 8210 1ed9 00000000 		.4byte	.LFB175
 8211 1edd 1A000000 		.4byte	.LFE175
 8212 1ee1 02       		.byte	0x2
 8213 1ee2 7D       		.byte	0x7d
 8214 1ee3 00       		.sleb128 0
 8215 1ee4 01       		.byte	0x1
 8216 1ee5 081F0000 		.4byte	0x1f08
 8217 1ee9 1C       		.uleb128 0x1c
 8218 1eea E4050000 		.4byte	.LASF76
 8219 1eee 01       		.byte	0x1
 8220 1eef 0109     		.2byte	0x901
 8221 1ef1 36050000 		.4byte	0x536
 8222 1ef5 01       		.byte	0x1
 8223 1ef6 50       		.byte	0x50
 8224 1ef7 1D       		.uleb128 0x1d
 8225 1ef8 0B000000 		.4byte	.LASF112
 8226 1efc 01       		.byte	0x1
 8227 1efd 0109     		.2byte	0x901
 8228 1eff F5000000 		.4byte	0xf5
 8229 1f03 A71D0000 		.4byte	.LLST169
 8230 1f07 00       		.byte	0
 8231 1f08 1F       		.uleb128 0x1f
 8232 1f09 01       		.byte	0x1
 8233 1f0a 010D0000 		.4byte	.LASF186
 8234 1f0e 01       		.byte	0x1
 8235 1f0f 3A09     		.2byte	0x93a
 8236 1f11 01       		.byte	0x1
 8237 1f12 00000000 		.4byte	.LFB176
 8238 1f16 14000000 		.4byte	.LFE176
 8239 1f1a 02       		.byte	0x2
 8240 1f1b 7D       		.byte	0x7d
 8241 1f1c 00       		.sleb128 0
 8242 1f1d 01       		.byte	0x1
 8243 1f1e 4F1F0000 		.4byte	0x1f4f
 8244 1f22 1C       		.uleb128 0x1c
 8245 1f23 E4050000 		.4byte	.LASF76
 8246 1f27 01       		.byte	0x1
 8247 1f28 3A09     		.2byte	0x93a
 8248 1f2a 36050000 		.4byte	0x536
 8249 1f2e 01       		.byte	0x1
 8250 1f2f 50       		.byte	0x50
 8251 1f30 1D       		.uleb128 0x1d
 8252 1f31 FF020000 		.4byte	.LASF187
 8253 1f35 01       		.byte	0x1
 8254 1f36 3A09     		.2byte	0x93a
 8255 1f38 49000000 		.4byte	0x49
 8256 1f3c E11D0000 		.4byte	.LLST170
 8257 1f40 1C       		.uleb128 0x1c
ARM GAS  C:\Users\CNous\AppData\Local\Temp\ccZi7tDD.s 			page 214


 8258 1f41 0B000000 		.4byte	.LASF112
 8259 1f45 01       		.byte	0x1
 8260 1f46 3A09     		.2byte	0x93a
 8261 1f48 F5000000 		.4byte	0xf5
 8262 1f4c 01       		.byte	0x1
 8263 1f4d 52       		.byte	0x52
 8264 1f4e 00       		.byte	0
 8265 1f4f 1F       		.uleb128 0x1f
 8266 1f50 01       		.byte	0x1
 8267 1f51 23020000 		.4byte	.LASF188
 8268 1f55 01       		.byte	0x1
 8269 1f56 6009     		.2byte	0x960
 8270 1f58 01       		.byte	0x1
 8271 1f59 00000000 		.4byte	.LFB177
 8272 1f5d 04000000 		.4byte	.LFE177
 8273 1f61 02       		.byte	0x2
 8274 1f62 7D       		.byte	0x7d
 8275 1f63 00       		.sleb128 0
 8276 1f64 01       		.byte	0x1
 8277 1f65 861F0000 		.4byte	0x1f86
 8278 1f69 1C       		.uleb128 0x1c
 8279 1f6a E4050000 		.4byte	.LASF76
 8280 1f6e 01       		.byte	0x1
 8281 1f6f 6009     		.2byte	0x960
 8282 1f71 36050000 		.4byte	0x536
 8283 1f75 01       		.byte	0x1
 8284 1f76 50       		.byte	0x50
 8285 1f77 1C       		.uleb128 0x1c
 8286 1f78 69080000 		.4byte	.LASF189
 8287 1f7c 01       		.byte	0x1
 8288 1f7d 6009     		.2byte	0x960
 8289 1f7f 49000000 		.4byte	0x49
 8290 1f83 01       		.byte	0x1
 8291 1f84 51       		.byte	0x51
 8292 1f85 00       		.byte	0
 8293 1f86 20       		.uleb128 0x20
 8294 1f87 01       		.byte	0x1
 8295 1f88 9A050000 		.4byte	.LASF190
 8296 1f8c 01       		.byte	0x1
 8297 1f8d 8109     		.2byte	0x981
 8298 1f8f 01       		.byte	0x1
 8299 1f90 C7000000 		.4byte	0xc7
 8300 1f94 00000000 		.4byte	.LFB178
 8301 1f98 0C000000 		.4byte	.LFE178
 8302 1f9c 02       		.byte	0x2
 8303 1f9d 7D       		.byte	0x7d
 8304 1f9e 00       		.sleb128 0
 8305 1f9f 01       		.byte	0x1
 8306 1fa0 D31F0000 		.4byte	0x1fd3
 8307 1fa4 1D       		.uleb128 0x1d
 8308 1fa5 E4050000 		.4byte	.LASF76
 8309 1fa9 01       		.byte	0x1
 8310 1faa 8109     		.2byte	0x981
 8311 1fac 36050000 		.4byte	0x536
 8312 1fb0 1B1E0000 		.4byte	.LLST171
 8313 1fb4 1C       		.uleb128 0x1c
 8314 1fb5 D0000000 		.4byte	.LASF191
ARM GAS  C:\Users\CNous\AppData\Local\Temp\ccZi7tDD.s 			page 215


 8315 1fb9 01       		.byte	0x1
 8316 1fba 8109     		.2byte	0x981
 8317 1fbc 49000000 		.4byte	0x49
 8318 1fc0 01       		.byte	0x1
 8319 1fc1 51       		.byte	0x51
 8320 1fc2 1E       		.uleb128 0x1e
 8321 1fc3 D10C0000 		.4byte	.LASF192
 8322 1fc7 01       		.byte	0x1
 8323 1fc8 8309     		.2byte	0x983
 8324 1fca D3000000 		.4byte	0xd3
 8325 1fce 3C1E0000 		.4byte	.LLST172
 8326 1fd2 00       		.byte	0
 8327 1fd3 1F       		.uleb128 0x1f
 8328 1fd4 01       		.byte	0x1
 8329 1fd5 34040000 		.4byte	.LASF193
 8330 1fd9 01       		.byte	0x1
 8331 1fda AB09     		.2byte	0x9ab
 8332 1fdc 01       		.byte	0x1
 8333 1fdd 00000000 		.4byte	.LFB179
 8334 1fe1 08000000 		.4byte	.LFE179
 8335 1fe5 02       		.byte	0x2
 8336 1fe6 7D       		.byte	0x7d
 8337 1fe7 00       		.sleb128 0
 8338 1fe8 01       		.byte	0x1
 8339 1fe9 0C200000 		.4byte	0x200c
 8340 1fed 1C       		.uleb128 0x1c
 8341 1fee E4050000 		.4byte	.LASF76
 8342 1ff2 01       		.byte	0x1
 8343 1ff3 AB09     		.2byte	0x9ab
 8344 1ff5 36050000 		.4byte	0x536
 8345 1ff9 01       		.byte	0x1
 8346 1ffa 50       		.byte	0x50
 8347 1ffb 1D       		.uleb128 0x1d
 8348 1ffc D0000000 		.4byte	.LASF191
 8349 2000 01       		.byte	0x1
 8350 2001 AB09     		.2byte	0x9ab
 8351 2003 49000000 		.4byte	0x49
 8352 2007 641E0000 		.4byte	.LLST173
 8353 200b 00       		.byte	0
 8354 200c 20       		.uleb128 0x20
 8355 200d 01       		.byte	0x1
 8356 200e ED070000 		.4byte	.LASF194
 8357 2012 01       		.byte	0x1
 8358 2013 C709     		.2byte	0x9c7
 8359 2015 01       		.byte	0x1
 8360 2016 D3000000 		.4byte	0xd3
 8361 201a 00000000 		.4byte	.LFB180
 8362 201e 16000000 		.4byte	.LFE180
 8363 2022 02       		.byte	0x2
 8364 2023 7D       		.byte	0x7d
 8365 2024 00       		.sleb128 0
 8366 2025 01       		.byte	0x1
 8367 2026 79200000 		.4byte	0x2079
 8368 202a 1D       		.uleb128 0x1d
 8369 202b E4050000 		.4byte	.LASF76
 8370 202f 01       		.byte	0x1
 8371 2030 C709     		.2byte	0x9c7
ARM GAS  C:\Users\CNous\AppData\Local\Temp\ccZi7tDD.s 			page 216


 8372 2032 36050000 		.4byte	0x536
 8373 2036 851E0000 		.4byte	.LLST174
 8374 203a 1C       		.uleb128 0x1c
 8375 203b FF020000 		.4byte	.LASF187
 8376 203f 01       		.byte	0x1
 8377 2040 C709     		.2byte	0x9c7
 8378 2042 49000000 		.4byte	0x49
 8379 2046 01       		.byte	0x1
 8380 2047 51       		.byte	0x51
 8381 2048 1E       		.uleb128 0x1e
 8382 2049 D10C0000 		.4byte	.LASF192
 8383 204d 01       		.byte	0x1
 8384 204e C909     		.2byte	0x9c9
 8385 2050 D3000000 		.4byte	0xd3
 8386 2054 A61E0000 		.4byte	.LLST175
 8387 2058 1E       		.uleb128 0x1e
 8388 2059 AA070000 		.4byte	.LASF195
 8389 205d 01       		.byte	0x1
 8390 205e CA09     		.2byte	0x9ca
 8391 2060 49000000 		.4byte	0x49
 8392 2064 C51E0000 		.4byte	.LLST176
 8393 2068 1E       		.uleb128 0x1e
 8394 2069 490C0000 		.4byte	.LASF196
 8395 206d 01       		.byte	0x1
 8396 206e CA09     		.2byte	0x9ca
 8397 2070 49000000 		.4byte	0x49
 8398 2074 E91E0000 		.4byte	.LLST177
 8399 2078 00       		.byte	0
 8400 2079 1F       		.uleb128 0x1f
 8401 207a 01       		.byte	0x1
 8402 207b D40A0000 		.4byte	.LASF197
 8403 207f 01       		.byte	0x1
 8404 2080 F009     		.2byte	0x9f0
 8405 2082 01       		.byte	0x1
 8406 2083 00000000 		.4byte	.LFB181
 8407 2087 08000000 		.4byte	.LFE181
 8408 208b 02       		.byte	0x2
 8409 208c 7D       		.byte	0x7d
 8410 208d 00       		.sleb128 0
 8411 208e 01       		.byte	0x1
 8412 208f B2200000 		.4byte	0x20b2
 8413 2093 1C       		.uleb128 0x1c
 8414 2094 E4050000 		.4byte	.LASF76
 8415 2098 01       		.byte	0x1
 8416 2099 F009     		.2byte	0x9f0
 8417 209b 36050000 		.4byte	0x536
 8418 209f 01       		.byte	0x1
 8419 20a0 50       		.byte	0x50
 8420 20a1 1D       		.uleb128 0x1d
 8421 20a2 FF020000 		.4byte	.LASF187
 8422 20a6 01       		.byte	0x1
 8423 20a7 F009     		.2byte	0x9f0
 8424 20a9 49000000 		.4byte	0x49
 8425 20ad 0D1F0000 		.4byte	.LLST178
 8426 20b1 00       		.byte	0
 8427 20b2 1F       		.uleb128 0x1f
 8428 20b3 01       		.byte	0x1
ARM GAS  C:\Users\CNous\AppData\Local\Temp\ccZi7tDD.s 			page 217


 8429 20b4 8A020000 		.4byte	.LASF198
 8430 20b8 01       		.byte	0x1
 8431 20b9 150A     		.2byte	0xa15
 8432 20bb 01       		.byte	0x1
 8433 20bc 00000000 		.4byte	.LFB182
 8434 20c0 08000000 		.4byte	.LFE182
 8435 20c4 02       		.byte	0x2
 8436 20c5 7D       		.byte	0x7d
 8437 20c6 00       		.sleb128 0
 8438 20c7 01       		.byte	0x1
 8439 20c8 F9200000 		.4byte	0x20f9
 8440 20cc 1C       		.uleb128 0x1c
 8441 20cd E4050000 		.4byte	.LASF76
 8442 20d1 01       		.byte	0x1
 8443 20d2 150A     		.2byte	0xa15
 8444 20d4 36050000 		.4byte	0x536
 8445 20d8 01       		.byte	0x1
 8446 20d9 50       		.byte	0x50
 8447 20da 1C       		.uleb128 0x1c
 8448 20db B3070000 		.4byte	.LASF199
 8449 20df 01       		.byte	0x1
 8450 20e0 150A     		.2byte	0xa15
 8451 20e2 49000000 		.4byte	0x49
 8452 20e6 01       		.byte	0x1
 8453 20e7 51       		.byte	0x51
 8454 20e8 1D       		.uleb128 0x1d
 8455 20e9 21040000 		.4byte	.LASF200
 8456 20ed 01       		.byte	0x1
 8457 20ee 150A     		.2byte	0xa15
 8458 20f0 49000000 		.4byte	0x49
 8459 20f4 2E1F0000 		.4byte	.LLST179
 8460 20f8 00       		.byte	0
 8461 20f9 1F       		.uleb128 0x1f
 8462 20fa 01       		.byte	0x1
 8463 20fb 3F000000 		.4byte	.LASF201
 8464 20ff 01       		.byte	0x1
 8465 2100 300A     		.2byte	0xa30
 8466 2102 01       		.byte	0x1
 8467 2103 00000000 		.4byte	.LFB183
 8468 2107 14000000 		.4byte	.LFE183
 8469 210b 02       		.byte	0x2
 8470 210c 7D       		.byte	0x7d
 8471 210d 00       		.sleb128 0
 8472 210e 01       		.byte	0x1
 8473 210f 40210000 		.4byte	0x2140
 8474 2113 1C       		.uleb128 0x1c
 8475 2114 E4050000 		.4byte	.LASF76
 8476 2118 01       		.byte	0x1
 8477 2119 300A     		.2byte	0xa30
 8478 211b 36050000 		.4byte	0x536
 8479 211f 01       		.byte	0x1
 8480 2120 50       		.byte	0x50
 8481 2121 1D       		.uleb128 0x1d
 8482 2122 69060000 		.4byte	.LASF202
 8483 2126 01       		.byte	0x1
 8484 2127 300A     		.2byte	0xa30
 8485 2129 49000000 		.4byte	0x49
ARM GAS  C:\Users\CNous\AppData\Local\Temp\ccZi7tDD.s 			page 218


 8486 212d 4F1F0000 		.4byte	.LLST180
 8487 2131 1C       		.uleb128 0x1c
 8488 2132 0B000000 		.4byte	.LASF112
 8489 2136 01       		.byte	0x1
 8490 2137 300A     		.2byte	0xa30
 8491 2139 F5000000 		.4byte	0xf5
 8492 213d 01       		.byte	0x1
 8493 213e 52       		.byte	0x52
 8494 213f 00       		.byte	0
 8495 2140 1F       		.uleb128 0x1f
 8496 2141 01       		.byte	0x1
 8497 2142 E0030000 		.4byte	.LASF203
 8498 2146 01       		.byte	0x1
 8499 2147 4A0A     		.2byte	0xa4a
 8500 2149 01       		.byte	0x1
 8501 214a 00000000 		.4byte	.LFB184
 8502 214e 1A000000 		.4byte	.LFE184
 8503 2152 02       		.byte	0x2
 8504 2153 7D       		.byte	0x7d
 8505 2154 00       		.sleb128 0
 8506 2155 01       		.byte	0x1
 8507 2156 79210000 		.4byte	0x2179
 8508 215a 1C       		.uleb128 0x1c
 8509 215b E4050000 		.4byte	.LASF76
 8510 215f 01       		.byte	0x1
 8511 2160 4A0A     		.2byte	0xa4a
 8512 2162 36050000 		.4byte	0x536
 8513 2166 01       		.byte	0x1
 8514 2167 50       		.byte	0x50
 8515 2168 1D       		.uleb128 0x1d
 8516 2169 0B000000 		.4byte	.LASF112
 8517 216d 01       		.byte	0x1
 8518 216e 4A0A     		.2byte	0xa4a
 8519 2170 F5000000 		.4byte	0xf5
 8520 2174 891F0000 		.4byte	.LLST181
 8521 2178 00       		.byte	0
 8522 2179 1F       		.uleb128 0x1f
 8523 217a 01       		.byte	0x1
 8524 217b 8E010000 		.4byte	.LASF204
 8525 217f 01       		.byte	0x1
 8526 2180 710A     		.2byte	0xa71
 8527 2182 01       		.byte	0x1
 8528 2183 00000000 		.4byte	.LFB185
 8529 2187 0E000000 		.4byte	.LFE185
 8530 218b 02       		.byte	0x2
 8531 218c 7D       		.byte	0x7d
 8532 218d 00       		.sleb128 0
 8533 218e 01       		.byte	0x1
 8534 218f A2210000 		.4byte	0x21a2
 8535 2193 1C       		.uleb128 0x1c
 8536 2194 E4050000 		.4byte	.LASF76
 8537 2198 01       		.byte	0x1
 8538 2199 710A     		.2byte	0xa71
 8539 219b 36050000 		.4byte	0x536
 8540 219f 01       		.byte	0x1
 8541 21a0 50       		.byte	0x50
 8542 21a1 00       		.byte	0
ARM GAS  C:\Users\CNous\AppData\Local\Temp\ccZi7tDD.s 			page 219


 8543 21a2 1F       		.uleb128 0x1f
 8544 21a3 01       		.byte	0x1
 8545 21a4 7E090000 		.4byte	.LASF205
 8546 21a8 01       		.byte	0x1
 8547 21a9 860A     		.2byte	0xa86
 8548 21ab 01       		.byte	0x1
 8549 21ac 00000000 		.4byte	.LFB186
 8550 21b0 1A000000 		.4byte	.LFE186
 8551 21b4 02       		.byte	0x2
 8552 21b5 7D       		.byte	0x7d
 8553 21b6 00       		.sleb128 0
 8554 21b7 01       		.byte	0x1
 8555 21b8 0F220000 		.4byte	0x220f
 8556 21bc 1C       		.uleb128 0x1c
 8557 21bd E4050000 		.4byte	.LASF76
 8558 21c1 01       		.byte	0x1
 8559 21c2 860A     		.2byte	0xa86
 8560 21c4 36050000 		.4byte	0x536
 8561 21c8 01       		.byte	0x1
 8562 21c9 50       		.byte	0x50
 8563 21ca 1D       		.uleb128 0x1d
 8564 21cb 60000000 		.4byte	.LASF90
 8565 21cf 01       		.byte	0x1
 8566 21d0 860A     		.2byte	0xa86
 8567 21d2 49000000 		.4byte	0x49
 8568 21d6 C31F0000 		.4byte	.LLST182
 8569 21da 29       		.uleb128 0x29
 8570 21db 05070000 		.4byte	0x705
 8571 21df 00000000 		.4byte	.LBB90
 8572 21e3 0E000000 		.4byte	.LBE90
 8573 21e7 01       		.byte	0x1
 8574 21e8 8D0A     		.2byte	0xa8d
 8575 21ea 23       		.uleb128 0x23
 8576 21eb 20070000 		.4byte	0x720
 8577 21ef C31F0000 		.4byte	.LLST182
 8578 21f3 24       		.uleb128 0x24
 8579 21f4 14070000 		.4byte	0x714
 8580 21f8 01       		.byte	0x1
 8581 21f9 50       		.byte	0x50
 8582 21fa 28       		.uleb128 0x28
 8583 21fb 00000000 		.4byte	.LBB91
 8584 21ff 0E000000 		.4byte	.LBE91
 8585 2203 26       		.uleb128 0x26
 8586 2204 2C070000 		.4byte	0x72c
 8587 2208 E41F0000 		.4byte	.LLST184
 8588 220c 00       		.byte	0
 8589 220d 00       		.byte	0
 8590 220e 00       		.byte	0
 8591 220f 1B       		.uleb128 0x1b
 8592 2210 01       		.byte	0x1
 8593 2211 E6080000 		.4byte	.LASF206
 8594 2215 01       		.byte	0x1
 8595 2216 A40A     		.2byte	0xaa4
 8596 2218 01       		.byte	0x1
 8597 2219 00000000 		.4byte	.LFB187
 8598 221d 90000000 		.4byte	.LFE187
 8599 2221 19200000 		.4byte	.LLST185
ARM GAS  C:\Users\CNous\AppData\Local\Temp\ccZi7tDD.s 			page 220


 8600 2225 01       		.byte	0x1
 8601 2226 4D230000 		.4byte	0x234d
 8602 222a 1C       		.uleb128 0x1c
 8603 222b E4050000 		.4byte	.LASF76
 8604 222f 01       		.byte	0x1
 8605 2230 A40A     		.2byte	0xaa4
 8606 2232 36050000 		.4byte	0x536
 8607 2236 01       		.byte	0x1
 8608 2237 50       		.byte	0x50
 8609 2238 1D       		.uleb128 0x1d
 8610 2239 DA090000 		.4byte	.LASF207
 8611 223d 01       		.byte	0x1
 8612 223e A40A     		.2byte	0xaa4
 8613 2240 49000000 		.4byte	0x49
 8614 2244 39200000 		.4byte	.LLST186
 8615 2248 1D       		.uleb128 0x1d
 8616 2249 79080000 		.4byte	.LASF63
 8617 224d 01       		.byte	0x1
 8618 224e A50A     		.2byte	0xaa5
 8619 2250 49000000 		.4byte	0x49
 8620 2254 65200000 		.4byte	.LLST187
 8621 2258 1D       		.uleb128 0x1d
 8622 2259 DB0C0000 		.4byte	.LASF208
 8623 225d 01       		.byte	0x1
 8624 225e A50A     		.2byte	0xaa5
 8625 2260 49000000 		.4byte	0x49
 8626 2264 9F200000 		.4byte	.LLST188
 8627 2268 27       		.uleb128 0x27
 8628 2269 DF040000 		.4byte	0x4df
 8629 226d 06000000 		.4byte	.LBB92
 8630 2271 3A000000 		.4byte	.LBE92
 8631 2275 01       		.byte	0x1
 8632 2276 B30A     		.2byte	0xab3
 8633 2278 BD220000 		.4byte	0x22bd
 8634 227c 23       		.uleb128 0x23
 8635 227d 11050000 		.4byte	0x511
 8636 2281 D9200000 		.4byte	.LLST189
 8637 2285 23       		.uleb128 0x23
 8638 2286 05050000 		.4byte	0x505
 8639 228a EC200000 		.4byte	.LLST190
 8640 228e 23       		.uleb128 0x23
 8641 228f F9040000 		.4byte	0x4f9
 8642 2293 00210000 		.4byte	.LLST191
 8643 2297 23       		.uleb128 0x23
 8644 2298 ED040000 		.4byte	0x4ed
 8645 229c 13210000 		.4byte	.LLST192
 8646 22a0 28       		.uleb128 0x28
 8647 22a1 06000000 		.4byte	.LBB93
 8648 22a5 3A000000 		.4byte	.LBE93
 8649 22a9 26       		.uleb128 0x26
 8650 22aa 1D050000 		.4byte	0x51d
 8651 22ae 26210000 		.4byte	.LLST193
 8652 22b2 26       		.uleb128 0x26
 8653 22b3 29050000 		.4byte	0x529
 8654 22b7 61210000 		.4byte	.LLST194
 8655 22bb 00       		.byte	0
 8656 22bc 00       		.byte	0
ARM GAS  C:\Users\CNous\AppData\Local\Temp\ccZi7tDD.s 			page 221


 8657 22bd 27       		.uleb128 0x27
 8658 22be 05070000 		.4byte	0x705
 8659 22c2 3A000000 		.4byte	.LBB94
 8660 22c6 48000000 		.4byte	.LBE94
 8661 22ca 01       		.byte	0x1
 8662 22cb B60A     		.2byte	0xab6
 8663 22cd F7220000 		.4byte	0x22f7
 8664 22d1 23       		.uleb128 0x23
 8665 22d2 20070000 		.4byte	0x720
 8666 22d6 8B210000 		.4byte	.LLST195
 8667 22da 23       		.uleb128 0x23
 8668 22db 14070000 		.4byte	0x714
 8669 22df 9E210000 		.4byte	.LLST196
 8670 22e3 28       		.uleb128 0x28
 8671 22e4 3A000000 		.4byte	.LBB95
 8672 22e8 48000000 		.4byte	.LBE95
 8673 22ec 26       		.uleb128 0x26
 8674 22ed 2C070000 		.4byte	0x72c
 8675 22f1 B1210000 		.4byte	.LLST197
 8676 22f5 00       		.byte	0
 8677 22f6 00       		.byte	0
 8678 22f7 29       		.uleb128 0x29
 8679 22f8 64050000 		.4byte	0x564
 8680 22fc 56000000 		.4byte	.LBB96
 8681 2300 90000000 		.4byte	.LBE96
 8682 2304 01       		.byte	0x1
 8683 2305 AF0A     		.2byte	0xaaf
 8684 2307 23       		.uleb128 0x23
 8685 2308 96050000 		.4byte	0x596
 8686 230c E6210000 		.4byte	.LLST198
 8687 2310 2B       		.uleb128 0x2b
 8688 2311 8A050000 		.4byte	0x58a
 8689 2315 01       		.byte	0x1
 8690 2316 23       		.uleb128 0x23
 8691 2317 7E050000 		.4byte	0x57e
 8692 231b F9210000 		.4byte	.LLST199
 8693 231f 24       		.uleb128 0x24
 8694 2320 72050000 		.4byte	0x572
 8695 2324 01       		.byte	0x1
 8696 2325 50       		.byte	0x50
 8697 2326 28       		.uleb128 0x28
 8698 2327 56000000 		.4byte	.LBB97
 8699 232b 90000000 		.4byte	.LBE97
 8700 232f 26       		.uleb128 0x26
 8701 2330 A2050000 		.4byte	0x5a2
 8702 2334 0C220000 		.4byte	.LLST200
 8703 2338 26       		.uleb128 0x26
 8704 2339 AE050000 		.4byte	0x5ae
 8705 233d 48220000 		.4byte	.LLST201
 8706 2341 26       		.uleb128 0x26
 8707 2342 BA050000 		.4byte	0x5ba
 8708 2346 72220000 		.4byte	.LLST202
 8709 234a 00       		.byte	0
 8710 234b 00       		.byte	0
 8711 234c 00       		.byte	0
 8712 234d 1B       		.uleb128 0x1b
 8713 234e 01       		.byte	0x1
ARM GAS  C:\Users\CNous\AppData\Local\Temp\ccZi7tDD.s 			page 222


 8714 234f E10B0000 		.4byte	.LASF209
 8715 2353 01       		.byte	0x1
 8716 2354 CC0A     		.2byte	0xacc
 8717 2356 01       		.byte	0x1
 8718 2357 00000000 		.4byte	.LFB188
 8719 235b 26000000 		.4byte	.LFE188
 8720 235f 95220000 		.4byte	.LLST203
 8721 2363 01       		.byte	0x1
 8722 2364 FD230000 		.4byte	0x23fd
 8723 2368 1C       		.uleb128 0x1c
 8724 2369 E4050000 		.4byte	.LASF76
 8725 236d 01       		.byte	0x1
 8726 236e CC0A     		.2byte	0xacc
 8727 2370 36050000 		.4byte	0x536
 8728 2374 01       		.byte	0x1
 8729 2375 50       		.byte	0x50
 8730 2376 1D       		.uleb128 0x1d
 8731 2377 0F070000 		.4byte	.LASF93
 8732 237b 01       		.byte	0x1
 8733 237c CC0A     		.2byte	0xacc
 8734 237e 49000000 		.4byte	0x49
 8735 2382 B5220000 		.4byte	.LLST204
 8736 2386 1D       		.uleb128 0x1d
 8737 2387 A8060000 		.4byte	.LASF94
 8738 238b 01       		.byte	0x1
 8739 238c CD0A     		.2byte	0xacd
 8740 238e 49000000 		.4byte	0x49
 8741 2392 D6220000 		.4byte	.LLST205
 8742 2396 1D       		.uleb128 0x1d
 8743 2397 F40C0000 		.4byte	.LASF95
 8744 239b 01       		.byte	0x1
 8745 239c CD0A     		.2byte	0xacd
 8746 239e 49000000 		.4byte	0x49
 8747 23a2 F7220000 		.4byte	.LLST206
 8748 23a6 1E       		.uleb128 0x1e
 8749 23a7 A0060000 		.4byte	.LASF91
 8750 23ab 01       		.byte	0x1
 8751 23ac CF0A     		.2byte	0xacf
 8752 23ae 49000000 		.4byte	0x49
 8753 23b2 18230000 		.4byte	.LLST207
 8754 23b6 29       		.uleb128 0x29
 8755 23b7 39070000 		.4byte	0x739
 8756 23bb 02000000 		.4byte	.LBB98
 8757 23bf 12000000 		.4byte	.LBE98
 8758 23c3 01       		.byte	0x1
 8759 23c4 D70A     		.2byte	0xad7
 8760 23c6 23       		.uleb128 0x23
 8761 23c7 6C070000 		.4byte	0x76c
 8762 23cb F7220000 		.4byte	.LLST206
 8763 23cf 23       		.uleb128 0x23
 8764 23d0 60070000 		.4byte	0x760
 8765 23d4 D6220000 		.4byte	.LLST205
 8766 23d8 23       		.uleb128 0x23
 8767 23d9 54070000 		.4byte	0x754
 8768 23dd B5220000 		.4byte	.LLST204
 8769 23e1 24       		.uleb128 0x24
 8770 23e2 48070000 		.4byte	0x748
ARM GAS  C:\Users\CNous\AppData\Local\Temp\ccZi7tDD.s 			page 223


 8771 23e6 01       		.byte	0x1
 8772 23e7 50       		.byte	0x50
 8773 23e8 28       		.uleb128 0x28
 8774 23e9 02000000 		.4byte	.LBB99
 8775 23ed 12000000 		.4byte	.LBE99
 8776 23f1 26       		.uleb128 0x26
 8777 23f2 78070000 		.4byte	0x778
 8778 23f6 46230000 		.4byte	.LLST211
 8779 23fa 00       		.byte	0
 8780 23fb 00       		.byte	0
 8781 23fc 00       		.byte	0
 8782 23fd 1B       		.uleb128 0x1b
 8783 23fe 01       		.byte	0x1
 8784 23ff 610A0000 		.4byte	.LASF210
 8785 2403 01       		.byte	0x1
 8786 2404 FB0A     		.2byte	0xafb
 8787 2406 01       		.byte	0x1
 8788 2407 00000000 		.4byte	.LFB189
 8789 240b 20000000 		.4byte	.LFE189
 8790 240f 80230000 		.4byte	.LLST212
 8791 2413 01       		.byte	0x1
 8792 2414 9D240000 		.4byte	0x249d
 8793 2418 1C       		.uleb128 0x1c
 8794 2419 E4050000 		.4byte	.LASF76
 8795 241d 01       		.byte	0x1
 8796 241e FB0A     		.2byte	0xafb
 8797 2420 36050000 		.4byte	0x536
 8798 2424 01       		.byte	0x1
 8799 2425 50       		.byte	0x50
 8800 2426 1D       		.uleb128 0x1d
 8801 2427 0F070000 		.4byte	.LASF93
 8802 242b 01       		.byte	0x1
 8803 242c FB0A     		.2byte	0xafb
 8804 242e 49000000 		.4byte	0x49
 8805 2432 A0230000 		.4byte	.LLST213
 8806 2436 1D       		.uleb128 0x1d
 8807 2437 A8060000 		.4byte	.LASF94
 8808 243b 01       		.byte	0x1
 8809 243c FC0A     		.2byte	0xafc
 8810 243e 49000000 		.4byte	0x49
 8811 2442 C1230000 		.4byte	.LLST214
 8812 2446 1D       		.uleb128 0x1d
 8813 2447 F40C0000 		.4byte	.LASF95
 8814 244b 01       		.byte	0x1
 8815 244c FC0A     		.2byte	0xafc
 8816 244e 49000000 		.4byte	0x49
 8817 2452 E2230000 		.4byte	.LLST215
 8818 2456 29       		.uleb128 0x29
 8819 2457 39070000 		.4byte	0x739
 8820 245b 02000000 		.4byte	.LBB100
 8821 245f 12000000 		.4byte	.LBE100
 8822 2463 01       		.byte	0x1
 8823 2464 050B     		.2byte	0xb05
 8824 2466 23       		.uleb128 0x23
 8825 2467 6C070000 		.4byte	0x76c
 8826 246b E2230000 		.4byte	.LLST215
 8827 246f 23       		.uleb128 0x23
ARM GAS  C:\Users\CNous\AppData\Local\Temp\ccZi7tDD.s 			page 224


 8828 2470 60070000 		.4byte	0x760
 8829 2474 C1230000 		.4byte	.LLST214
 8830 2478 23       		.uleb128 0x23
 8831 2479 54070000 		.4byte	0x754
 8832 247d A0230000 		.4byte	.LLST213
 8833 2481 24       		.uleb128 0x24
 8834 2482 48070000 		.4byte	0x748
 8835 2486 01       		.byte	0x1
 8836 2487 50       		.byte	0x50
 8837 2488 28       		.uleb128 0x28
 8838 2489 02000000 		.4byte	.LBB101
 8839 248d 12000000 		.4byte	.LBE101
 8840 2491 26       		.uleb128 0x26
 8841 2492 78070000 		.4byte	0x778
 8842 2496 03240000 		.4byte	.LLST219
 8843 249a 00       		.byte	0
 8844 249b 00       		.byte	0
 8845 249c 00       		.byte	0
 8846 249d 2A       		.uleb128 0x2a
 8847 249e 05070000 		.4byte	0x705
 8848 24a2 00000000 		.4byte	.LFB190
 8849 24a6 10000000 		.4byte	.LFE190
 8850 24aa 02       		.byte	0x2
 8851 24ab 7D       		.byte	0x7d
 8852 24ac 00       		.sleb128 0
 8853 24ad 01       		.byte	0x1
 8854 24ae CC240000 		.4byte	0x24cc
 8855 24b2 24       		.uleb128 0x24
 8856 24b3 14070000 		.4byte	0x714
 8857 24b7 01       		.byte	0x1
 8858 24b8 50       		.byte	0x50
 8859 24b9 23       		.uleb128 0x23
 8860 24ba 20070000 		.4byte	0x720
 8861 24be 3D240000 		.4byte	.LLST220
 8862 24c2 26       		.uleb128 0x26
 8863 24c3 2C070000 		.4byte	0x72c
 8864 24c7 5E240000 		.4byte	.LLST221
 8865 24cb 00       		.byte	0
 8866 24cc 1F       		.uleb128 0x1f
 8867 24cd 01       		.byte	0x1
 8868 24ce 23060000 		.4byte	.LASF211
 8869 24d2 01       		.byte	0x1
 8870 24d3 6A0B     		.2byte	0xb6a
 8871 24d5 01       		.byte	0x1
 8872 24d6 00000000 		.4byte	.LFB191
 8873 24da 16000000 		.4byte	.LFE191
 8874 24de 02       		.byte	0x2
 8875 24df 7D       		.byte	0x7d
 8876 24e0 00       		.sleb128 0
 8877 24e1 01       		.byte	0x1
 8878 24e2 05250000 		.4byte	0x2505
 8879 24e6 1C       		.uleb128 0x1c
 8880 24e7 E4050000 		.4byte	.LASF76
 8881 24eb 01       		.byte	0x1
 8882 24ec 6A0B     		.2byte	0xb6a
 8883 24ee 36050000 		.4byte	0x536
 8884 24f2 01       		.byte	0x1
ARM GAS  C:\Users\CNous\AppData\Local\Temp\ccZi7tDD.s 			page 225


 8885 24f3 50       		.byte	0x50
 8886 24f4 1D       		.uleb128 0x1d
 8887 24f5 77000000 		.4byte	.LASF212
 8888 24f9 01       		.byte	0x1
 8889 24fa 6A0B     		.2byte	0xb6a
 8890 24fc 49000000 		.4byte	0x49
 8891 2500 93240000 		.4byte	.LLST222
 8892 2504 00       		.byte	0
 8893 2505 1F       		.uleb128 0x1f
 8894 2506 01       		.byte	0x1
 8895 2507 6C050000 		.4byte	.LASF213
 8896 250b 01       		.byte	0x1
 8897 250c 820B     		.2byte	0xb82
 8898 250e 01       		.byte	0x1
 8899 250f 00000000 		.4byte	.LFB192
 8900 2513 16000000 		.4byte	.LFE192
 8901 2517 02       		.byte	0x2
 8902 2518 7D       		.byte	0x7d
 8903 2519 00       		.sleb128 0
 8904 251a 01       		.byte	0x1
 8905 251b 3E250000 		.4byte	0x253e
 8906 251f 1C       		.uleb128 0x1c
 8907 2520 E4050000 		.4byte	.LASF76
 8908 2524 01       		.byte	0x1
 8909 2525 820B     		.2byte	0xb82
 8910 2527 36050000 		.4byte	0x536
 8911 252b 01       		.byte	0x1
 8912 252c 50       		.byte	0x50
 8913 252d 1D       		.uleb128 0x1d
 8914 252e 7C0B0000 		.4byte	.LASF214
 8915 2532 01       		.byte	0x1
 8916 2533 820B     		.2byte	0xb82
 8917 2535 49000000 		.4byte	0x49
 8918 2539 B4240000 		.4byte	.LLST223
 8919 253d 00       		.byte	0
 8920 253e 1F       		.uleb128 0x1f
 8921 253f 01       		.byte	0x1
 8922 2540 80050000 		.4byte	.LASF215
 8923 2544 01       		.byte	0x1
 8924 2545 990B     		.2byte	0xb99
 8925 2547 01       		.byte	0x1
 8926 2548 00000000 		.4byte	.LFB193
 8927 254c 16000000 		.4byte	.LFE193
 8928 2550 02       		.byte	0x2
 8929 2551 7D       		.byte	0x7d
 8930 2552 00       		.sleb128 0
 8931 2553 01       		.byte	0x1
 8932 2554 77250000 		.4byte	0x2577
 8933 2558 1C       		.uleb128 0x1c
 8934 2559 E4050000 		.4byte	.LASF76
 8935 255d 01       		.byte	0x1
 8936 255e 990B     		.2byte	0xb99
 8937 2560 36050000 		.4byte	0x536
 8938 2564 01       		.byte	0x1
 8939 2565 50       		.byte	0x50
 8940 2566 1D       		.uleb128 0x1d
 8941 2567 58050000 		.4byte	.LASF216
ARM GAS  C:\Users\CNous\AppData\Local\Temp\ccZi7tDD.s 			page 226


 8942 256b 01       		.byte	0x1
 8943 256c 990B     		.2byte	0xb99
 8944 256e 49000000 		.4byte	0x49
 8945 2572 D5240000 		.4byte	.LLST224
 8946 2576 00       		.byte	0
 8947 2577 2C       		.uleb128 0x2c
 8948 2578 39070000 		.4byte	0x739
 8949 257c 00000000 		.4byte	.LFB194
 8950 2580 16000000 		.4byte	.LFE194
 8951 2584 F6240000 		.4byte	.LLST225
 8952 2588 01       		.byte	0x1
 8953 2589 B9250000 		.4byte	0x25b9
 8954 258d 24       		.uleb128 0x24
 8955 258e 48070000 		.4byte	0x748
 8956 2592 01       		.byte	0x1
 8957 2593 50       		.byte	0x50
 8958 2594 23       		.uleb128 0x23
 8959 2595 54070000 		.4byte	0x754
 8960 2599 16250000 		.4byte	.LLST226
 8961 259d 23       		.uleb128 0x23
 8962 259e 60070000 		.4byte	0x760
 8963 25a2 37250000 		.4byte	.LLST227
 8964 25a6 23       		.uleb128 0x23
 8965 25a7 6C070000 		.4byte	0x76c
 8966 25ab 58250000 		.4byte	.LLST228
 8967 25af 26       		.uleb128 0x26
 8968 25b0 78070000 		.4byte	0x778
 8969 25b4 79250000 		.4byte	.LLST229
 8970 25b8 00       		.byte	0
 8971 25b9 1B       		.uleb128 0x1b
 8972 25ba 01       		.byte	0x1
 8973 25bb F3010000 		.4byte	.LASF217
 8974 25bf 01       		.byte	0x1
 8975 25c0 F10B     		.2byte	0xbf1
 8976 25c2 01       		.byte	0x1
 8977 25c3 00000000 		.4byte	.LFB195
 8978 25c7 40000000 		.4byte	.LFE195
 8979 25cb A8250000 		.4byte	.LLST230
 8980 25cf 01       		.byte	0x1
 8981 25d0 43260000 		.4byte	0x2643
 8982 25d4 1C       		.uleb128 0x1c
 8983 25d5 E4050000 		.4byte	.LASF76
 8984 25d9 01       		.byte	0x1
 8985 25da F10B     		.2byte	0xbf1
 8986 25dc 36050000 		.4byte	0x536
 8987 25e0 01       		.byte	0x1
 8988 25e1 50       		.byte	0x50
 8989 25e2 1D       		.uleb128 0x1d
 8990 25e3 E9050000 		.4byte	.LASF218
 8991 25e7 01       		.byte	0x1
 8992 25e8 F10B     		.2byte	0xbf1
 8993 25ea 49000000 		.4byte	0x49
 8994 25ee C8250000 		.4byte	.LLST231
 8995 25f2 1D       		.uleb128 0x1d
 8996 25f3 35020000 		.4byte	.LASF219
 8997 25f7 01       		.byte	0x1
 8998 25f8 F20B     		.2byte	0xbf2
ARM GAS  C:\Users\CNous\AppData\Local\Temp\ccZi7tDD.s 			page 227


 8999 25fa 49000000 		.4byte	0x49
 9000 25fe E9250000 		.4byte	.LLST232
 9001 2602 1D       		.uleb128 0x1d
 9002 2603 F2000000 		.4byte	.LASF220
 9003 2607 01       		.byte	0x1
 9004 2608 F20B     		.2byte	0xbf2
 9005 260a 49000000 		.4byte	0x49
 9006 260e 0A260000 		.4byte	.LLST233
 9007 2612 1E       		.uleb128 0x1e
 9008 2613 A0060000 		.4byte	.LASF91
 9009 2617 01       		.byte	0x1
 9010 2618 F40B     		.2byte	0xbf4
 9011 261a 49000000 		.4byte	0x49
 9012 261e 2B260000 		.4byte	.LLST234
 9013 2622 1E       		.uleb128 0x1e
 9014 2623 44010000 		.4byte	.LASF77
 9015 2627 01       		.byte	0x1
 9016 2628 F50B     		.2byte	0xbf5
 9017 262a 49000000 		.4byte	0x49
 9018 262e 60260000 		.4byte	.LLST235
 9019 2632 1E       		.uleb128 0x1e
 9020 2633 70040000 		.4byte	.LASF78
 9021 2637 01       		.byte	0x1
 9022 2638 F60B     		.2byte	0xbf6
 9023 263a 49000000 		.4byte	0x49
 9024 263e 8A260000 		.4byte	.LLST236
 9025 2642 00       		.byte	0
 9026 2643 1F       		.uleb128 0x1f
 9027 2644 01       		.byte	0x1
 9028 2645 AB0C0000 		.4byte	.LASF221
 9029 2649 01       		.byte	0x1
 9030 264a 250C     		.2byte	0xc25
 9031 264c 01       		.byte	0x1
 9032 264d 00000000 		.4byte	.LFB196
 9033 2651 1A000000 		.4byte	.LFE196
 9034 2655 02       		.byte	0x2
 9035 2656 7D       		.byte	0x7d
 9036 2657 00       		.sleb128 0
 9037 2658 01       		.byte	0x1
 9038 2659 7C260000 		.4byte	0x267c
 9039 265d 1C       		.uleb128 0x1c
 9040 265e E4050000 		.4byte	.LASF76
 9041 2662 01       		.byte	0x1
 9042 2663 250C     		.2byte	0xc25
 9043 2665 36050000 		.4byte	0x536
 9044 2669 01       		.byte	0x1
 9045 266a 50       		.byte	0x50
 9046 266b 1D       		.uleb128 0x1d
 9047 266c 0B000000 		.4byte	.LASF112
 9048 2670 01       		.byte	0x1
 9049 2671 250C     		.2byte	0xc25
 9050 2673 F5000000 		.4byte	0xf5
 9051 2677 B4260000 		.4byte	.LLST237
 9052 267b 00       		.byte	0
 9053 267c 1F       		.uleb128 0x1f
 9054 267d 01       		.byte	0x1
 9055 267e 700C0000 		.4byte	.LASF222
ARM GAS  C:\Users\CNous\AppData\Local\Temp\ccZi7tDD.s 			page 228


 9056 2682 01       		.byte	0x1
 9057 2683 580C     		.2byte	0xc58
 9058 2685 01       		.byte	0x1
 9059 2686 00000000 		.4byte	.LFB197
 9060 268a 06000000 		.4byte	.LFE197
 9061 268e 02       		.byte	0x2
 9062 268f 7D       		.byte	0x7d
 9063 2690 00       		.sleb128 0
 9064 2691 01       		.byte	0x1
 9065 2692 B3260000 		.4byte	0x26b3
 9066 2696 1C       		.uleb128 0x1c
 9067 2697 E4050000 		.4byte	.LASF76
 9068 269b 01       		.byte	0x1
 9069 269c 580C     		.2byte	0xc58
 9070 269e 36050000 		.4byte	0x536
 9071 26a2 01       		.byte	0x1
 9072 26a3 50       		.byte	0x50
 9073 26a4 1C       		.uleb128 0x1c
 9074 26a5 E3070000 		.4byte	.LASF223
 9075 26a9 01       		.byte	0x1
 9076 26aa 580C     		.2byte	0xc58
 9077 26ac 49000000 		.4byte	0x49
 9078 26b0 01       		.byte	0x1
 9079 26b1 51       		.byte	0x51
 9080 26b2 00       		.byte	0
 9081 26b3 2D       		.uleb128 0x2d
 9082 26b4 D1010000 		.4byte	.LASF228
 9083 26b8 06       		.byte	0x6
 9084 26b9 1A05     		.2byte	0x51a
 9085 26bb AC000000 		.4byte	0xac
 9086 26bf 01       		.byte	0x1
 9087 26c0 01       		.byte	0x1
 9088 26c1 2E       		.uleb128 0x2e
 9089 26c2 01       		.byte	0x1
 9090 26c3 2D010000 		.4byte	.LASF224
 9091 26c7 05       		.byte	0x5
 9092 26c8 E001     		.2byte	0x1e0
 9093 26ca 01       		.byte	0x1
 9094 26cb 01       		.byte	0x1
 9095 26cc DB260000 		.4byte	0x26db
 9096 26d0 2F       		.uleb128 0x2f
 9097 26d1 6D000000 		.4byte	0x6d
 9098 26d5 2F       		.uleb128 0x2f
 9099 26d6 F5000000 		.4byte	0xf5
 9100 26da 00       		.byte	0
 9101 26db 30       		.uleb128 0x30
 9102 26dc 01       		.byte	0x1
 9103 26dd 14080000 		.4byte	.LASF229
 9104 26e1 05       		.byte	0x5
 9105 26e2 E101     		.2byte	0x1e1
 9106 26e4 01       		.byte	0x1
 9107 26e5 01       		.byte	0x1
 9108 26e6 2F       		.uleb128 0x2f
 9109 26e7 6D000000 		.4byte	0x6d
 9110 26eb 2F       		.uleb128 0x2f
 9111 26ec F5000000 		.4byte	0xf5
 9112 26f0 00       		.byte	0
ARM GAS  C:\Users\CNous\AppData\Local\Temp\ccZi7tDD.s 			page 229


 9113 26f1 00       		.byte	0
 9114              		.section	.debug_abbrev,"",%progbits
 9115              	.Ldebug_abbrev0:
 9116 0000 01       		.uleb128 0x1
 9117 0001 11       		.uleb128 0x11
 9118 0002 01       		.byte	0x1
 9119 0003 25       		.uleb128 0x25
 9120 0004 0E       		.uleb128 0xe
 9121 0005 13       		.uleb128 0x13
 9122 0006 0B       		.uleb128 0xb
 9123 0007 03       		.uleb128 0x3
 9124 0008 0E       		.uleb128 0xe
 9125 0009 1B       		.uleb128 0x1b
 9126 000a 0E       		.uleb128 0xe
 9127 000b 55       		.uleb128 0x55
 9128 000c 06       		.uleb128 0x6
 9129 000d 11       		.uleb128 0x11
 9130 000e 01       		.uleb128 0x1
 9131 000f 52       		.uleb128 0x52
 9132 0010 01       		.uleb128 0x1
 9133 0011 10       		.uleb128 0x10
 9134 0012 06       		.uleb128 0x6
 9135 0013 00       		.byte	0
 9136 0014 00       		.byte	0
 9137 0015 02       		.uleb128 0x2
 9138 0016 24       		.uleb128 0x24
 9139 0017 00       		.byte	0
 9140 0018 0B       		.uleb128 0xb
 9141 0019 0B       		.uleb128 0xb
 9142 001a 3E       		.uleb128 0x3e
 9143 001b 0B       		.uleb128 0xb
 9144 001c 03       		.uleb128 0x3
 9145 001d 0E       		.uleb128 0xe
 9146 001e 00       		.byte	0
 9147 001f 00       		.byte	0
 9148 0020 03       		.uleb128 0x3
 9149 0021 16       		.uleb128 0x16
 9150 0022 00       		.byte	0
 9151 0023 03       		.uleb128 0x3
 9152 0024 0E       		.uleb128 0xe
 9153 0025 3A       		.uleb128 0x3a
 9154 0026 0B       		.uleb128 0xb
 9155 0027 3B       		.uleb128 0x3b
 9156 0028 0B       		.uleb128 0xb
 9157 0029 49       		.uleb128 0x49
 9158 002a 13       		.uleb128 0x13
 9159 002b 00       		.byte	0
 9160 002c 00       		.byte	0
 9161 002d 04       		.uleb128 0x4
 9162 002e 24       		.uleb128 0x24
 9163 002f 00       		.byte	0
 9164 0030 0B       		.uleb128 0xb
 9165 0031 0B       		.uleb128 0xb
 9166 0032 3E       		.uleb128 0x3e
 9167 0033 0B       		.uleb128 0xb
 9168 0034 03       		.uleb128 0x3
 9169 0035 08       		.uleb128 0x8
ARM GAS  C:\Users\CNous\AppData\Local\Temp\ccZi7tDD.s 			page 230


 9170 0036 00       		.byte	0
 9171 0037 00       		.byte	0
 9172 0038 05       		.uleb128 0x5
 9173 0039 35       		.uleb128 0x35
 9174 003a 00       		.byte	0
 9175 003b 49       		.uleb128 0x49
 9176 003c 13       		.uleb128 0x13
 9177 003d 00       		.byte	0
 9178 003e 00       		.byte	0
 9179 003f 06       		.uleb128 0x6
 9180 0040 04       		.uleb128 0x4
 9181 0041 01       		.byte	0x1
 9182 0042 0B       		.uleb128 0xb
 9183 0043 0B       		.uleb128 0xb
 9184 0044 3A       		.uleb128 0x3a
 9185 0045 0B       		.uleb128 0xb
 9186 0046 3B       		.uleb128 0x3b
 9187 0047 05       		.uleb128 0x5
 9188 0048 01       		.uleb128 0x1
 9189 0049 13       		.uleb128 0x13
 9190 004a 00       		.byte	0
 9191 004b 00       		.byte	0
 9192 004c 07       		.uleb128 0x7
 9193 004d 28       		.uleb128 0x28
 9194 004e 00       		.byte	0
 9195 004f 03       		.uleb128 0x3
 9196 0050 0E       		.uleb128 0xe
 9197 0051 1C       		.uleb128 0x1c
 9198 0052 0D       		.uleb128 0xd
 9199 0053 00       		.byte	0
 9200 0054 00       		.byte	0
 9201 0055 08       		.uleb128 0x8
 9202 0056 28       		.uleb128 0x28
 9203 0057 00       		.byte	0
 9204 0058 03       		.uleb128 0x3
 9205 0059 08       		.uleb128 0x8
 9206 005a 1C       		.uleb128 0x1c
 9207 005b 0D       		.uleb128 0xd
 9208 005c 00       		.byte	0
 9209 005d 00       		.byte	0
 9210 005e 09       		.uleb128 0x9
 9211 005f 16       		.uleb128 0x16
 9212 0060 00       		.byte	0
 9213 0061 03       		.uleb128 0x3
 9214 0062 0E       		.uleb128 0xe
 9215 0063 3A       		.uleb128 0x3a
 9216 0064 0B       		.uleb128 0xb
 9217 0065 3B       		.uleb128 0x3b
 9218 0066 05       		.uleb128 0x5
 9219 0067 49       		.uleb128 0x49
 9220 0068 13       		.uleb128 0x13
 9221 0069 00       		.byte	0
 9222 006a 00       		.byte	0
 9223 006b 0A       		.uleb128 0xa
 9224 006c 13       		.uleb128 0x13
 9225 006d 01       		.byte	0x1
 9226 006e 0B       		.uleb128 0xb
ARM GAS  C:\Users\CNous\AppData\Local\Temp\ccZi7tDD.s 			page 231


 9227 006f 0B       		.uleb128 0xb
 9228 0070 3A       		.uleb128 0x3a
 9229 0071 0B       		.uleb128 0xb
 9230 0072 3B       		.uleb128 0x3b
 9231 0073 05       		.uleb128 0x5
 9232 0074 01       		.uleb128 0x1
 9233 0075 13       		.uleb128 0x13
 9234 0076 00       		.byte	0
 9235 0077 00       		.byte	0
 9236 0078 0B       		.uleb128 0xb
 9237 0079 0D       		.uleb128 0xd
 9238 007a 00       		.byte	0
 9239 007b 03       		.uleb128 0x3
 9240 007c 08       		.uleb128 0x8
 9241 007d 3A       		.uleb128 0x3a
 9242 007e 0B       		.uleb128 0xb
 9243 007f 3B       		.uleb128 0x3b
 9244 0080 05       		.uleb128 0x5
 9245 0081 49       		.uleb128 0x49
 9246 0082 13       		.uleb128 0x13
 9247 0083 38       		.uleb128 0x38
 9248 0084 0A       		.uleb128 0xa
 9249 0085 00       		.byte	0
 9250 0086 00       		.byte	0
 9251 0087 0C       		.uleb128 0xc
 9252 0088 0D       		.uleb128 0xd
 9253 0089 00       		.byte	0
 9254 008a 03       		.uleb128 0x3
 9255 008b 0E       		.uleb128 0xe
 9256 008c 3A       		.uleb128 0x3a
 9257 008d 0B       		.uleb128 0xb
 9258 008e 3B       		.uleb128 0x3b
 9259 008f 05       		.uleb128 0x5
 9260 0090 49       		.uleb128 0x49
 9261 0091 13       		.uleb128 0x13
 9262 0092 38       		.uleb128 0x38
 9263 0093 0A       		.uleb128 0xa
 9264 0094 00       		.byte	0
 9265 0095 00       		.byte	0
 9266 0096 0D       		.uleb128 0xd
 9267 0097 13       		.uleb128 0x13
 9268 0098 01       		.byte	0x1
 9269 0099 0B       		.uleb128 0xb
 9270 009a 0B       		.uleb128 0xb
 9271 009b 3A       		.uleb128 0x3a
 9272 009c 0B       		.uleb128 0xb
 9273 009d 3B       		.uleb128 0x3b
 9274 009e 0B       		.uleb128 0xb
 9275 009f 01       		.uleb128 0x1
 9276 00a0 13       		.uleb128 0x13
 9277 00a1 00       		.byte	0
 9278 00a2 00       		.byte	0
 9279 00a3 0E       		.uleb128 0xe
 9280 00a4 0D       		.uleb128 0xd
 9281 00a5 00       		.byte	0
 9282 00a6 03       		.uleb128 0x3
 9283 00a7 0E       		.uleb128 0xe
ARM GAS  C:\Users\CNous\AppData\Local\Temp\ccZi7tDD.s 			page 232


 9284 00a8 3A       		.uleb128 0x3a
 9285 00a9 0B       		.uleb128 0xb
 9286 00aa 3B       		.uleb128 0x3b
 9287 00ab 0B       		.uleb128 0xb
 9288 00ac 49       		.uleb128 0x49
 9289 00ad 13       		.uleb128 0x13
 9290 00ae 38       		.uleb128 0x38
 9291 00af 0A       		.uleb128 0xa
 9292 00b0 00       		.byte	0
 9293 00b1 00       		.byte	0
 9294 00b2 0F       		.uleb128 0xf
 9295 00b3 2E       		.uleb128 0x2e
 9296 00b4 01       		.byte	0x1
 9297 00b5 03       		.uleb128 0x3
 9298 00b6 0E       		.uleb128 0xe
 9299 00b7 3A       		.uleb128 0x3a
 9300 00b8 0B       		.uleb128 0xb
 9301 00b9 3B       		.uleb128 0x3b
 9302 00ba 05       		.uleb128 0x5
 9303 00bb 27       		.uleb128 0x27
 9304 00bc 0C       		.uleb128 0xc
 9305 00bd 20       		.uleb128 0x20
 9306 00be 0B       		.uleb128 0xb
 9307 00bf 01       		.uleb128 0x1
 9308 00c0 13       		.uleb128 0x13
 9309 00c1 00       		.byte	0
 9310 00c2 00       		.byte	0
 9311 00c3 10       		.uleb128 0x10
 9312 00c4 05       		.uleb128 0x5
 9313 00c5 00       		.byte	0
 9314 00c6 03       		.uleb128 0x3
 9315 00c7 0E       		.uleb128 0xe
 9316 00c8 3A       		.uleb128 0x3a
 9317 00c9 0B       		.uleb128 0xb
 9318 00ca 3B       		.uleb128 0x3b
 9319 00cb 05       		.uleb128 0x5
 9320 00cc 49       		.uleb128 0x49
 9321 00cd 13       		.uleb128 0x13
 9322 00ce 00       		.byte	0
 9323 00cf 00       		.byte	0
 9324 00d0 11       		.uleb128 0x11
 9325 00d1 34       		.uleb128 0x34
 9326 00d2 00       		.byte	0
 9327 00d3 03       		.uleb128 0x3
 9328 00d4 0E       		.uleb128 0xe
 9329 00d5 3A       		.uleb128 0x3a
 9330 00d6 0B       		.uleb128 0xb
 9331 00d7 3B       		.uleb128 0x3b
 9332 00d8 05       		.uleb128 0x5
 9333 00d9 49       		.uleb128 0x49
 9334 00da 13       		.uleb128 0x13
 9335 00db 00       		.byte	0
 9336 00dc 00       		.byte	0
 9337 00dd 12       		.uleb128 0x12
 9338 00de 0F       		.uleb128 0xf
 9339 00df 00       		.byte	0
 9340 00e0 0B       		.uleb128 0xb
ARM GAS  C:\Users\CNous\AppData\Local\Temp\ccZi7tDD.s 			page 233


 9341 00e1 0B       		.uleb128 0xb
 9342 00e2 49       		.uleb128 0x49
 9343 00e3 13       		.uleb128 0x13
 9344 00e4 00       		.byte	0
 9345 00e5 00       		.byte	0
 9346 00e6 13       		.uleb128 0x13
 9347 00e7 2E       		.uleb128 0x2e
 9348 00e8 01       		.byte	0x1
 9349 00e9 3F       		.uleb128 0x3f
 9350 00ea 0C       		.uleb128 0xc
 9351 00eb 03       		.uleb128 0x3
 9352 00ec 0E       		.uleb128 0xe
 9353 00ed 3A       		.uleb128 0x3a
 9354 00ee 0B       		.uleb128 0xb
 9355 00ef 3B       		.uleb128 0x3b
 9356 00f0 05       		.uleb128 0x5
 9357 00f1 27       		.uleb128 0x27
 9358 00f2 0C       		.uleb128 0xc
 9359 00f3 20       		.uleb128 0x20
 9360 00f4 0B       		.uleb128 0xb
 9361 00f5 01       		.uleb128 0x1
 9362 00f6 13       		.uleb128 0x13
 9363 00f7 00       		.byte	0
 9364 00f8 00       		.byte	0
 9365 00f9 14       		.uleb128 0x14
 9366 00fa 34       		.uleb128 0x34
 9367 00fb 00       		.byte	0
 9368 00fc 03       		.uleb128 0x3
 9369 00fd 08       		.uleb128 0x8
 9370 00fe 3A       		.uleb128 0x3a
 9371 00ff 0B       		.uleb128 0xb
 9372 0100 3B       		.uleb128 0x3b
 9373 0101 05       		.uleb128 0x5
 9374 0102 49       		.uleb128 0x49
 9375 0103 13       		.uleb128 0x13
 9376 0104 00       		.byte	0
 9377 0105 00       		.byte	0
 9378 0106 15       		.uleb128 0x15
 9379 0107 2E       		.uleb128 0x2e
 9380 0108 01       		.byte	0x1
 9381 0109 3F       		.uleb128 0x3f
 9382 010a 0C       		.uleb128 0xc
 9383 010b 03       		.uleb128 0x3
 9384 010c 0E       		.uleb128 0xe
 9385 010d 3A       		.uleb128 0x3a
 9386 010e 0B       		.uleb128 0xb
 9387 010f 3B       		.uleb128 0x3b
 9388 0110 0B       		.uleb128 0xb
 9389 0111 27       		.uleb128 0x27
 9390 0112 0C       		.uleb128 0xc
 9391 0113 11       		.uleb128 0x11
 9392 0114 01       		.uleb128 0x1
 9393 0115 12       		.uleb128 0x12
 9394 0116 01       		.uleb128 0x1
 9395 0117 40       		.uleb128 0x40
 9396 0118 06       		.uleb128 0x6
 9397 0119 9742     		.uleb128 0x2117
ARM GAS  C:\Users\CNous\AppData\Local\Temp\ccZi7tDD.s 			page 234


 9398 011b 0C       		.uleb128 0xc
 9399 011c 01       		.uleb128 0x1
 9400 011d 13       		.uleb128 0x13
 9401 011e 00       		.byte	0
 9402 011f 00       		.byte	0
 9403 0120 16       		.uleb128 0x16
 9404 0121 05       		.uleb128 0x5
 9405 0122 00       		.byte	0
 9406 0123 03       		.uleb128 0x3
 9407 0124 0E       		.uleb128 0xe
 9408 0125 3A       		.uleb128 0x3a
 9409 0126 0B       		.uleb128 0xb
 9410 0127 3B       		.uleb128 0x3b
 9411 0128 0B       		.uleb128 0xb
 9412 0129 49       		.uleb128 0x49
 9413 012a 13       		.uleb128 0x13
 9414 012b 02       		.uleb128 0x2
 9415 012c 06       		.uleb128 0x6
 9416 012d 00       		.byte	0
 9417 012e 00       		.byte	0
 9418 012f 17       		.uleb128 0x17
 9419 0130 898201   		.uleb128 0x4109
 9420 0133 01       		.byte	0x1
 9421 0134 11       		.uleb128 0x11
 9422 0135 01       		.uleb128 0x1
 9423 0136 31       		.uleb128 0x31
 9424 0137 13       		.uleb128 0x13
 9425 0138 01       		.uleb128 0x1
 9426 0139 13       		.uleb128 0x13
 9427 013a 00       		.byte	0
 9428 013b 00       		.byte	0
 9429 013c 18       		.uleb128 0x18
 9430 013d 8A8201   		.uleb128 0x410a
 9431 0140 00       		.byte	0
 9432 0141 02       		.uleb128 0x2
 9433 0142 0A       		.uleb128 0xa
 9434 0143 9142     		.uleb128 0x2111
 9435 0145 0A       		.uleb128 0xa
 9436 0146 00       		.byte	0
 9437 0147 00       		.byte	0
 9438 0148 19       		.uleb128 0x19
 9439 0149 898201   		.uleb128 0x4109
 9440 014c 01       		.byte	0x1
 9441 014d 11       		.uleb128 0x11
 9442 014e 01       		.uleb128 0x1
 9443 014f 9542     		.uleb128 0x2115
 9444 0151 0C       		.uleb128 0xc
 9445 0152 31       		.uleb128 0x31
 9446 0153 13       		.uleb128 0x13
 9447 0154 01       		.uleb128 0x1
 9448 0155 13       		.uleb128 0x13
 9449 0156 00       		.byte	0
 9450 0157 00       		.byte	0
 9451 0158 1A       		.uleb128 0x1a
 9452 0159 898201   		.uleb128 0x4109
 9453 015c 01       		.byte	0x1
 9454 015d 11       		.uleb128 0x11
ARM GAS  C:\Users\CNous\AppData\Local\Temp\ccZi7tDD.s 			page 235


 9455 015e 01       		.uleb128 0x1
 9456 015f 9542     		.uleb128 0x2115
 9457 0161 0C       		.uleb128 0xc
 9458 0162 31       		.uleb128 0x31
 9459 0163 13       		.uleb128 0x13
 9460 0164 00       		.byte	0
 9461 0165 00       		.byte	0
 9462 0166 1B       		.uleb128 0x1b
 9463 0167 2E       		.uleb128 0x2e
 9464 0168 01       		.byte	0x1
 9465 0169 3F       		.uleb128 0x3f
 9466 016a 0C       		.uleb128 0xc
 9467 016b 03       		.uleb128 0x3
 9468 016c 0E       		.uleb128 0xe
 9469 016d 3A       		.uleb128 0x3a
 9470 016e 0B       		.uleb128 0xb
 9471 016f 3B       		.uleb128 0x3b
 9472 0170 05       		.uleb128 0x5
 9473 0171 27       		.uleb128 0x27
 9474 0172 0C       		.uleb128 0xc
 9475 0173 11       		.uleb128 0x11
 9476 0174 01       		.uleb128 0x1
 9477 0175 12       		.uleb128 0x12
 9478 0176 01       		.uleb128 0x1
 9479 0177 40       		.uleb128 0x40
 9480 0178 06       		.uleb128 0x6
 9481 0179 9742     		.uleb128 0x2117
 9482 017b 0C       		.uleb128 0xc
 9483 017c 01       		.uleb128 0x1
 9484 017d 13       		.uleb128 0x13
 9485 017e 00       		.byte	0
 9486 017f 00       		.byte	0
 9487 0180 1C       		.uleb128 0x1c
 9488 0181 05       		.uleb128 0x5
 9489 0182 00       		.byte	0
 9490 0183 03       		.uleb128 0x3
 9491 0184 0E       		.uleb128 0xe
 9492 0185 3A       		.uleb128 0x3a
 9493 0186 0B       		.uleb128 0xb
 9494 0187 3B       		.uleb128 0x3b
 9495 0188 05       		.uleb128 0x5
 9496 0189 49       		.uleb128 0x49
 9497 018a 13       		.uleb128 0x13
 9498 018b 02       		.uleb128 0x2
 9499 018c 0A       		.uleb128 0xa
 9500 018d 00       		.byte	0
 9501 018e 00       		.byte	0
 9502 018f 1D       		.uleb128 0x1d
 9503 0190 05       		.uleb128 0x5
 9504 0191 00       		.byte	0
 9505 0192 03       		.uleb128 0x3
 9506 0193 0E       		.uleb128 0xe
 9507 0194 3A       		.uleb128 0x3a
 9508 0195 0B       		.uleb128 0xb
 9509 0196 3B       		.uleb128 0x3b
 9510 0197 05       		.uleb128 0x5
 9511 0198 49       		.uleb128 0x49
ARM GAS  C:\Users\CNous\AppData\Local\Temp\ccZi7tDD.s 			page 236


 9512 0199 13       		.uleb128 0x13
 9513 019a 02       		.uleb128 0x2
 9514 019b 06       		.uleb128 0x6
 9515 019c 00       		.byte	0
 9516 019d 00       		.byte	0
 9517 019e 1E       		.uleb128 0x1e
 9518 019f 34       		.uleb128 0x34
 9519 01a0 00       		.byte	0
 9520 01a1 03       		.uleb128 0x3
 9521 01a2 0E       		.uleb128 0xe
 9522 01a3 3A       		.uleb128 0x3a
 9523 01a4 0B       		.uleb128 0xb
 9524 01a5 3B       		.uleb128 0x3b
 9525 01a6 05       		.uleb128 0x5
 9526 01a7 49       		.uleb128 0x49
 9527 01a8 13       		.uleb128 0x13
 9528 01a9 02       		.uleb128 0x2
 9529 01aa 06       		.uleb128 0x6
 9530 01ab 00       		.byte	0
 9531 01ac 00       		.byte	0
 9532 01ad 1F       		.uleb128 0x1f
 9533 01ae 2E       		.uleb128 0x2e
 9534 01af 01       		.byte	0x1
 9535 01b0 3F       		.uleb128 0x3f
 9536 01b1 0C       		.uleb128 0xc
 9537 01b2 03       		.uleb128 0x3
 9538 01b3 0E       		.uleb128 0xe
 9539 01b4 3A       		.uleb128 0x3a
 9540 01b5 0B       		.uleb128 0xb
 9541 01b6 3B       		.uleb128 0x3b
 9542 01b7 05       		.uleb128 0x5
 9543 01b8 27       		.uleb128 0x27
 9544 01b9 0C       		.uleb128 0xc
 9545 01ba 11       		.uleb128 0x11
 9546 01bb 01       		.uleb128 0x1
 9547 01bc 12       		.uleb128 0x12
 9548 01bd 01       		.uleb128 0x1
 9549 01be 40       		.uleb128 0x40
 9550 01bf 0A       		.uleb128 0xa
 9551 01c0 9742     		.uleb128 0x2117
 9552 01c2 0C       		.uleb128 0xc
 9553 01c3 01       		.uleb128 0x1
 9554 01c4 13       		.uleb128 0x13
 9555 01c5 00       		.byte	0
 9556 01c6 00       		.byte	0
 9557 01c7 20       		.uleb128 0x20
 9558 01c8 2E       		.uleb128 0x2e
 9559 01c9 01       		.byte	0x1
 9560 01ca 3F       		.uleb128 0x3f
 9561 01cb 0C       		.uleb128 0xc
 9562 01cc 03       		.uleb128 0x3
 9563 01cd 0E       		.uleb128 0xe
 9564 01ce 3A       		.uleb128 0x3a
 9565 01cf 0B       		.uleb128 0xb
 9566 01d0 3B       		.uleb128 0x3b
 9567 01d1 05       		.uleb128 0x5
 9568 01d2 27       		.uleb128 0x27
ARM GAS  C:\Users\CNous\AppData\Local\Temp\ccZi7tDD.s 			page 237


 9569 01d3 0C       		.uleb128 0xc
 9570 01d4 49       		.uleb128 0x49
 9571 01d5 13       		.uleb128 0x13
 9572 01d6 11       		.uleb128 0x11
 9573 01d7 01       		.uleb128 0x1
 9574 01d8 12       		.uleb128 0x12
 9575 01d9 01       		.uleb128 0x1
 9576 01da 40       		.uleb128 0x40
 9577 01db 0A       		.uleb128 0xa
 9578 01dc 9742     		.uleb128 0x2117
 9579 01de 0C       		.uleb128 0xc
 9580 01df 01       		.uleb128 0x1
 9581 01e0 13       		.uleb128 0x13
 9582 01e1 00       		.byte	0
 9583 01e2 00       		.byte	0
 9584 01e3 21       		.uleb128 0x21
 9585 01e4 34       		.uleb128 0x34
 9586 01e5 00       		.byte	0
 9587 01e6 03       		.uleb128 0x3
 9588 01e7 08       		.uleb128 0x8
 9589 01e8 3A       		.uleb128 0x3a
 9590 01e9 0B       		.uleb128 0xb
 9591 01ea 3B       		.uleb128 0x3b
 9592 01eb 05       		.uleb128 0x5
 9593 01ec 49       		.uleb128 0x49
 9594 01ed 13       		.uleb128 0x13
 9595 01ee 02       		.uleb128 0x2
 9596 01ef 06       		.uleb128 0x6
 9597 01f0 00       		.byte	0
 9598 01f1 00       		.byte	0
 9599 01f2 22       		.uleb128 0x22
 9600 01f3 1D       		.uleb128 0x1d
 9601 01f4 01       		.byte	0x1
 9602 01f5 31       		.uleb128 0x31
 9603 01f6 13       		.uleb128 0x13
 9604 01f7 52       		.uleb128 0x52
 9605 01f8 01       		.uleb128 0x1
 9606 01f9 55       		.uleb128 0x55
 9607 01fa 06       		.uleb128 0x6
 9608 01fb 58       		.uleb128 0x58
 9609 01fc 0B       		.uleb128 0xb
 9610 01fd 59       		.uleb128 0x59
 9611 01fe 05       		.uleb128 0x5
 9612 01ff 01       		.uleb128 0x1
 9613 0200 13       		.uleb128 0x13
 9614 0201 00       		.byte	0
 9615 0202 00       		.byte	0
 9616 0203 23       		.uleb128 0x23
 9617 0204 05       		.uleb128 0x5
 9618 0205 00       		.byte	0
 9619 0206 31       		.uleb128 0x31
 9620 0207 13       		.uleb128 0x13
 9621 0208 02       		.uleb128 0x2
 9622 0209 06       		.uleb128 0x6
 9623 020a 00       		.byte	0
 9624 020b 00       		.byte	0
 9625 020c 24       		.uleb128 0x24
ARM GAS  C:\Users\CNous\AppData\Local\Temp\ccZi7tDD.s 			page 238


 9626 020d 05       		.uleb128 0x5
 9627 020e 00       		.byte	0
 9628 020f 31       		.uleb128 0x31
 9629 0210 13       		.uleb128 0x13
 9630 0211 02       		.uleb128 0x2
 9631 0212 0A       		.uleb128 0xa
 9632 0213 00       		.byte	0
 9633 0214 00       		.byte	0
 9634 0215 25       		.uleb128 0x25
 9635 0216 0B       		.uleb128 0xb
 9636 0217 01       		.byte	0x1
 9637 0218 55       		.uleb128 0x55
 9638 0219 06       		.uleb128 0x6
 9639 021a 00       		.byte	0
 9640 021b 00       		.byte	0
 9641 021c 26       		.uleb128 0x26
 9642 021d 34       		.uleb128 0x34
 9643 021e 00       		.byte	0
 9644 021f 31       		.uleb128 0x31
 9645 0220 13       		.uleb128 0x13
 9646 0221 02       		.uleb128 0x2
 9647 0222 06       		.uleb128 0x6
 9648 0223 00       		.byte	0
 9649 0224 00       		.byte	0
 9650 0225 27       		.uleb128 0x27
 9651 0226 1D       		.uleb128 0x1d
 9652 0227 01       		.byte	0x1
 9653 0228 31       		.uleb128 0x31
 9654 0229 13       		.uleb128 0x13
 9655 022a 11       		.uleb128 0x11
 9656 022b 01       		.uleb128 0x1
 9657 022c 12       		.uleb128 0x12
 9658 022d 01       		.uleb128 0x1
 9659 022e 58       		.uleb128 0x58
 9660 022f 0B       		.uleb128 0xb
 9661 0230 59       		.uleb128 0x59
 9662 0231 05       		.uleb128 0x5
 9663 0232 01       		.uleb128 0x1
 9664 0233 13       		.uleb128 0x13
 9665 0234 00       		.byte	0
 9666 0235 00       		.byte	0
 9667 0236 28       		.uleb128 0x28
 9668 0237 0B       		.uleb128 0xb
 9669 0238 01       		.byte	0x1
 9670 0239 11       		.uleb128 0x11
 9671 023a 01       		.uleb128 0x1
 9672 023b 12       		.uleb128 0x12
 9673 023c 01       		.uleb128 0x1
 9674 023d 00       		.byte	0
 9675 023e 00       		.byte	0
 9676 023f 29       		.uleb128 0x29
 9677 0240 1D       		.uleb128 0x1d
 9678 0241 01       		.byte	0x1
 9679 0242 31       		.uleb128 0x31
 9680 0243 13       		.uleb128 0x13
 9681 0244 11       		.uleb128 0x11
 9682 0245 01       		.uleb128 0x1
ARM GAS  C:\Users\CNous\AppData\Local\Temp\ccZi7tDD.s 			page 239


 9683 0246 12       		.uleb128 0x12
 9684 0247 01       		.uleb128 0x1
 9685 0248 58       		.uleb128 0x58
 9686 0249 0B       		.uleb128 0xb
 9687 024a 59       		.uleb128 0x59
 9688 024b 05       		.uleb128 0x5
 9689 024c 00       		.byte	0
 9690 024d 00       		.byte	0
 9691 024e 2A       		.uleb128 0x2a
 9692 024f 2E       		.uleb128 0x2e
 9693 0250 01       		.byte	0x1
 9694 0251 31       		.uleb128 0x31
 9695 0252 13       		.uleb128 0x13
 9696 0253 11       		.uleb128 0x11
 9697 0254 01       		.uleb128 0x1
 9698 0255 12       		.uleb128 0x12
 9699 0256 01       		.uleb128 0x1
 9700 0257 40       		.uleb128 0x40
 9701 0258 0A       		.uleb128 0xa
 9702 0259 9742     		.uleb128 0x2117
 9703 025b 0C       		.uleb128 0xc
 9704 025c 01       		.uleb128 0x1
 9705 025d 13       		.uleb128 0x13
 9706 025e 00       		.byte	0
 9707 025f 00       		.byte	0
 9708 0260 2B       		.uleb128 0x2b
 9709 0261 05       		.uleb128 0x5
 9710 0262 00       		.byte	0
 9711 0263 31       		.uleb128 0x31
 9712 0264 13       		.uleb128 0x13
 9713 0265 1C       		.uleb128 0x1c
 9714 0266 0B       		.uleb128 0xb
 9715 0267 00       		.byte	0
 9716 0268 00       		.byte	0
 9717 0269 2C       		.uleb128 0x2c
 9718 026a 2E       		.uleb128 0x2e
 9719 026b 01       		.byte	0x1
 9720 026c 31       		.uleb128 0x31
 9721 026d 13       		.uleb128 0x13
 9722 026e 11       		.uleb128 0x11
 9723 026f 01       		.uleb128 0x1
 9724 0270 12       		.uleb128 0x12
 9725 0271 01       		.uleb128 0x1
 9726 0272 40       		.uleb128 0x40
 9727 0273 06       		.uleb128 0x6
 9728 0274 9742     		.uleb128 0x2117
 9729 0276 0C       		.uleb128 0xc
 9730 0277 01       		.uleb128 0x1
 9731 0278 13       		.uleb128 0x13
 9732 0279 00       		.byte	0
 9733 027a 00       		.byte	0
 9734 027b 2D       		.uleb128 0x2d
 9735 027c 34       		.uleb128 0x34
 9736 027d 00       		.byte	0
 9737 027e 03       		.uleb128 0x3
 9738 027f 0E       		.uleb128 0xe
 9739 0280 3A       		.uleb128 0x3a
ARM GAS  C:\Users\CNous\AppData\Local\Temp\ccZi7tDD.s 			page 240


 9740 0281 0B       		.uleb128 0xb
 9741 0282 3B       		.uleb128 0x3b
 9742 0283 05       		.uleb128 0x5
 9743 0284 49       		.uleb128 0x49
 9744 0285 13       		.uleb128 0x13
 9745 0286 3F       		.uleb128 0x3f
 9746 0287 0C       		.uleb128 0xc
 9747 0288 3C       		.uleb128 0x3c
 9748 0289 0C       		.uleb128 0xc
 9749 028a 00       		.byte	0
 9750 028b 00       		.byte	0
 9751 028c 2E       		.uleb128 0x2e
 9752 028d 2E       		.uleb128 0x2e
 9753 028e 01       		.byte	0x1
 9754 028f 3F       		.uleb128 0x3f
 9755 0290 0C       		.uleb128 0xc
 9756 0291 03       		.uleb128 0x3
 9757 0292 0E       		.uleb128 0xe
 9758 0293 3A       		.uleb128 0x3a
 9759 0294 0B       		.uleb128 0xb
 9760 0295 3B       		.uleb128 0x3b
 9761 0296 05       		.uleb128 0x5
 9762 0297 27       		.uleb128 0x27
 9763 0298 0C       		.uleb128 0xc
 9764 0299 3C       		.uleb128 0x3c
 9765 029a 0C       		.uleb128 0xc
 9766 029b 01       		.uleb128 0x1
 9767 029c 13       		.uleb128 0x13
 9768 029d 00       		.byte	0
 9769 029e 00       		.byte	0
 9770 029f 2F       		.uleb128 0x2f
 9771 02a0 05       		.uleb128 0x5
 9772 02a1 00       		.byte	0
 9773 02a2 49       		.uleb128 0x49
 9774 02a3 13       		.uleb128 0x13
 9775 02a4 00       		.byte	0
 9776 02a5 00       		.byte	0
 9777 02a6 30       		.uleb128 0x30
 9778 02a7 2E       		.uleb128 0x2e
 9779 02a8 01       		.byte	0x1
 9780 02a9 3F       		.uleb128 0x3f
 9781 02aa 0C       		.uleb128 0xc
 9782 02ab 03       		.uleb128 0x3
 9783 02ac 0E       		.uleb128 0xe
 9784 02ad 3A       		.uleb128 0x3a
 9785 02ae 0B       		.uleb128 0xb
 9786 02af 3B       		.uleb128 0x3b
 9787 02b0 05       		.uleb128 0x5
 9788 02b1 27       		.uleb128 0x27
 9789 02b2 0C       		.uleb128 0xc
 9790 02b3 3C       		.uleb128 0x3c
 9791 02b4 0C       		.uleb128 0xc
 9792 02b5 00       		.byte	0
 9793 02b6 00       		.byte	0
 9794 02b7 00       		.byte	0
 9795              		.section	.debug_loc,"",%progbits
 9796              	.Ldebug_loc0:
ARM GAS  C:\Users\CNous\AppData\Local\Temp\ccZi7tDD.s 			page 241


 9797              	.LLST0:
 9798 0000 00000000 		.4byte	.LFB110
 9799 0004 02000000 		.4byte	.LCFI0
 9800 0008 0200     		.2byte	0x2
 9801 000a 7D       		.byte	0x7d
 9802 000b 00       		.sleb128 0
 9803 000c 02000000 		.4byte	.LCFI0
 9804 0010 D4010000 		.4byte	.LFE110
 9805 0014 0200     		.2byte	0x2
 9806 0016 7D       		.byte	0x7d
 9807 0017 08       		.sleb128 8
 9808 0018 00000000 		.4byte	0
 9809 001c 00000000 		.4byte	0
 9810              	.LLST1:
 9811 0020 00000000 		.4byte	.LVL0
 9812 0024 B2000000 		.4byte	.LVL1
 9813 0028 0100     		.2byte	0x1
 9814 002a 50       		.byte	0x50
 9815 002b B2000000 		.4byte	.LVL1
 9816 002f C4000000 		.4byte	.LVL3
 9817 0033 0400     		.2byte	0x4
 9818 0035 F3       		.byte	0xf3
 9819 0036 01       		.uleb128 0x1
 9820 0037 50       		.byte	0x50
 9821 0038 9F       		.byte	0x9f
 9822 0039 C4000000 		.4byte	.LVL3
 9823 003d C6000000 		.4byte	.LVL4
 9824 0041 0100     		.2byte	0x1
 9825 0043 50       		.byte	0x50
 9826 0044 C6000000 		.4byte	.LVL4
 9827 0048 D8000000 		.4byte	.LVL6
 9828 004c 0400     		.2byte	0x4
 9829 004e F3       		.byte	0xf3
 9830 004f 01       		.uleb128 0x1
 9831 0050 50       		.byte	0x50
 9832 0051 9F       		.byte	0x9f
 9833 0052 D8000000 		.4byte	.LVL6
 9834 0056 DA000000 		.4byte	.LVL7
 9835 005a 0100     		.2byte	0x1
 9836 005c 50       		.byte	0x50
 9837 005d DA000000 		.4byte	.LVL7
 9838 0061 EC000000 		.4byte	.LVL9
 9839 0065 0400     		.2byte	0x4
 9840 0067 F3       		.byte	0xf3
 9841 0068 01       		.uleb128 0x1
 9842 0069 50       		.byte	0x50
 9843 006a 9F       		.byte	0x9f
 9844 006b EC000000 		.4byte	.LVL9
 9845 006f EE000000 		.4byte	.LVL10
 9846 0073 0100     		.2byte	0x1
 9847 0075 50       		.byte	0x50
 9848 0076 EE000000 		.4byte	.LVL10
 9849 007a 00010000 		.4byte	.LVL12
 9850 007e 0400     		.2byte	0x4
 9851 0080 F3       		.byte	0xf3
 9852 0081 01       		.uleb128 0x1
 9853 0082 50       		.byte	0x50
ARM GAS  C:\Users\CNous\AppData\Local\Temp\ccZi7tDD.s 			page 242


 9854 0083 9F       		.byte	0x9f
 9855 0084 00010000 		.4byte	.LVL12
 9856 0088 02010000 		.4byte	.LVL13
 9857 008c 0100     		.2byte	0x1
 9858 008e 50       		.byte	0x50
 9859 008f 02010000 		.4byte	.LVL13
 9860 0093 14010000 		.4byte	.LVL15
 9861 0097 0400     		.2byte	0x4
 9862 0099 F3       		.byte	0xf3
 9863 009a 01       		.uleb128 0x1
 9864 009b 50       		.byte	0x50
 9865 009c 9F       		.byte	0x9f
 9866 009d 14010000 		.4byte	.LVL15
 9867 00a1 16010000 		.4byte	.LVL16
 9868 00a5 0100     		.2byte	0x1
 9869 00a7 50       		.byte	0x50
 9870 00a8 16010000 		.4byte	.LVL16
 9871 00ac 28010000 		.4byte	.LVL18
 9872 00b0 0400     		.2byte	0x4
 9873 00b2 F3       		.byte	0xf3
 9874 00b3 01       		.uleb128 0x1
 9875 00b4 50       		.byte	0x50
 9876 00b5 9F       		.byte	0x9f
 9877 00b6 28010000 		.4byte	.LVL18
 9878 00ba 2A010000 		.4byte	.LVL19
 9879 00be 0100     		.2byte	0x1
 9880 00c0 50       		.byte	0x50
 9881 00c1 2A010000 		.4byte	.LVL19
 9882 00c5 3C010000 		.4byte	.LVL21
 9883 00c9 0400     		.2byte	0x4
 9884 00cb F3       		.byte	0xf3
 9885 00cc 01       		.uleb128 0x1
 9886 00cd 50       		.byte	0x50
 9887 00ce 9F       		.byte	0x9f
 9888 00cf 3C010000 		.4byte	.LVL21
 9889 00d3 3E010000 		.4byte	.LVL22
 9890 00d7 0100     		.2byte	0x1
 9891 00d9 50       		.byte	0x50
 9892 00da 3E010000 		.4byte	.LVL22
 9893 00de 50010000 		.4byte	.LVL24
 9894 00e2 0400     		.2byte	0x4
 9895 00e4 F3       		.byte	0xf3
 9896 00e5 01       		.uleb128 0x1
 9897 00e6 50       		.byte	0x50
 9898 00e7 9F       		.byte	0x9f
 9899 00e8 50010000 		.4byte	.LVL24
 9900 00ec 52010000 		.4byte	.LVL25
 9901 00f0 0100     		.2byte	0x1
 9902 00f2 50       		.byte	0x50
 9903 00f3 52010000 		.4byte	.LVL25
 9904 00f7 64010000 		.4byte	.LVL27
 9905 00fb 0400     		.2byte	0x4
 9906 00fd F3       		.byte	0xf3
 9907 00fe 01       		.uleb128 0x1
 9908 00ff 50       		.byte	0x50
 9909 0100 9F       		.byte	0x9f
 9910 0101 64010000 		.4byte	.LVL27
ARM GAS  C:\Users\CNous\AppData\Local\Temp\ccZi7tDD.s 			page 243


 9911 0105 6A010000 		.4byte	.LVL28
 9912 0109 0100     		.2byte	0x1
 9913 010b 50       		.byte	0x50
 9914 010c 6A010000 		.4byte	.LVL28
 9915 0110 7C010000 		.4byte	.LVL30
 9916 0114 0400     		.2byte	0x4
 9917 0116 F3       		.byte	0xf3
 9918 0117 01       		.uleb128 0x1
 9919 0118 50       		.byte	0x50
 9920 0119 9F       		.byte	0x9f
 9921 011a 7C010000 		.4byte	.LVL30
 9922 011e 82010000 		.4byte	.LVL31
 9923 0122 0100     		.2byte	0x1
 9924 0124 50       		.byte	0x50
 9925 0125 82010000 		.4byte	.LVL31
 9926 0129 94010000 		.4byte	.LVL33
 9927 012d 0400     		.2byte	0x4
 9928 012f F3       		.byte	0xf3
 9929 0130 01       		.uleb128 0x1
 9930 0131 50       		.byte	0x50
 9931 0132 9F       		.byte	0x9f
 9932 0133 94010000 		.4byte	.LVL33
 9933 0137 9A010000 		.4byte	.LVL34
 9934 013b 0100     		.2byte	0x1
 9935 013d 50       		.byte	0x50
 9936 013e 9A010000 		.4byte	.LVL34
 9937 0142 AC010000 		.4byte	.LVL36
 9938 0146 0400     		.2byte	0x4
 9939 0148 F3       		.byte	0xf3
 9940 0149 01       		.uleb128 0x1
 9941 014a 50       		.byte	0x50
 9942 014b 9F       		.byte	0x9f
 9943 014c AC010000 		.4byte	.LVL36
 9944 0150 AE010000 		.4byte	.LVL37
 9945 0154 0100     		.2byte	0x1
 9946 0156 50       		.byte	0x50
 9947 0157 AE010000 		.4byte	.LVL37
 9948 015b C0010000 		.4byte	.LVL39
 9949 015f 0400     		.2byte	0x4
 9950 0161 F3       		.byte	0xf3
 9951 0162 01       		.uleb128 0x1
 9952 0163 50       		.byte	0x50
 9953 0164 9F       		.byte	0x9f
 9954 0165 C0010000 		.4byte	.LVL39
 9955 0169 C2010000 		.4byte	.LVL40
 9956 016d 0100     		.2byte	0x1
 9957 016f 50       		.byte	0x50
 9958 0170 C2010000 		.4byte	.LVL40
 9959 0174 D4010000 		.4byte	.LFE110
 9960 0178 0400     		.2byte	0x4
 9961 017a F3       		.byte	0xf3
 9962 017b 01       		.uleb128 0x1
 9963 017c 50       		.byte	0x50
 9964 017d 9F       		.byte	0x9f
 9965 017e 00000000 		.4byte	0
 9966 0182 00000000 		.4byte	0
 9967              	.LLST2:
ARM GAS  C:\Users\CNous\AppData\Local\Temp\ccZi7tDD.s 			page 244


 9968 0186 00000000 		.4byte	.LFB111
 9969 018a 0C000000 		.4byte	.LCFI1
 9970 018e 0200     		.2byte	0x2
 9971 0190 7D       		.byte	0x7d
 9972 0191 00       		.sleb128 0
 9973 0192 0C000000 		.4byte	.LCFI1
 9974 0196 AE000000 		.4byte	.LFE111
 9975 019a 0200     		.2byte	0x2
 9976 019c 7D       		.byte	0x7d
 9977 019d 0C       		.sleb128 12
 9978 019e 00000000 		.4byte	0
 9979 01a2 00000000 		.4byte	0
 9980              	.LLST3:
 9981 01a6 00000000 		.4byte	.LVL43
 9982 01aa 94000000 		.4byte	.LVL50
 9983 01ae 0100     		.2byte	0x1
 9984 01b0 51       		.byte	0x51
 9985 01b1 94000000 		.4byte	.LVL50
 9986 01b5 9C000000 		.4byte	.LVL51
 9987 01b9 0400     		.2byte	0x4
 9988 01bb F3       		.byte	0xf3
 9989 01bc 01       		.uleb128 0x1
 9990 01bd 51       		.byte	0x51
 9991 01be 9F       		.byte	0x9f
 9992 01bf 9C000000 		.4byte	.LVL51
 9993 01c3 9E000000 		.4byte	.LVL52
 9994 01c7 0100     		.2byte	0x1
 9995 01c9 51       		.byte	0x51
 9996 01ca 9E000000 		.4byte	.LVL52
 9997 01ce A2000000 		.4byte	.LVL53
 9998 01d2 0400     		.2byte	0x4
 9999 01d4 F3       		.byte	0xf3
 10000 01d5 01       		.uleb128 0x1
 10001 01d6 51       		.byte	0x51
 10002 01d7 9F       		.byte	0x9f
 10003 01d8 A2000000 		.4byte	.LVL53
 10004 01dc A8000000 		.4byte	.LVL54
 10005 01e0 0100     		.2byte	0x1
 10006 01e2 51       		.byte	0x51
 10007 01e3 A8000000 		.4byte	.LVL54
 10008 01e7 AE000000 		.4byte	.LFE111
 10009 01eb 0400     		.2byte	0x4
 10010 01ed F3       		.byte	0xf3
 10011 01ee 01       		.uleb128 0x1
 10012 01ef 51       		.byte	0x51
 10013 01f0 9F       		.byte	0x9f
 10014 01f1 00000000 		.4byte	0
 10015 01f5 00000000 		.4byte	0
 10016              	.LLST4:
 10017 01f9 00000000 		.4byte	.LVL43
 10018 01fd 0E000000 		.4byte	.LVL44
 10019 0201 0200     		.2byte	0x2
 10020 0203 30       		.byte	0x30
 10021 0204 9F       		.byte	0x9f
 10022 0205 0E000000 		.4byte	.LVL44
 10023 0209 4E000000 		.4byte	.LVL45
 10024 020d 0100     		.2byte	0x1
ARM GAS  C:\Users\CNous\AppData\Local\Temp\ccZi7tDD.s 			page 245


 10025 020f 53       		.byte	0x53
 10026 0210 4E000000 		.4byte	.LVL45
 10027 0214 52000000 		.4byte	.LVL46
 10028 0218 0100     		.2byte	0x1
 10029 021a 52       		.byte	0x52
 10030 021b 52000000 		.4byte	.LVL46
 10031 021f 76000000 		.4byte	.LVL47
 10032 0223 0100     		.2byte	0x1
 10033 0225 53       		.byte	0x53
 10034 0226 76000000 		.4byte	.LVL47
 10035 022a 8C000000 		.4byte	.LVL49
 10036 022e 0100     		.2byte	0x1
 10037 0230 52       		.byte	0x52
 10038 0231 A2000000 		.4byte	.LVL53
 10039 0235 AE000000 		.4byte	.LFE111
 10040 0239 0100     		.2byte	0x1
 10041 023b 53       		.byte	0x53
 10042 023c 00000000 		.4byte	0
 10043 0240 00000000 		.4byte	0
 10044              	.LLST5:
 10045 0244 00000000 		.4byte	.LVL57
 10046 0248 0C000000 		.4byte	.LVL61
 10047 024c 0100     		.2byte	0x1
 10048 024e 51       		.byte	0x51
 10049 024f 0C000000 		.4byte	.LVL61
 10050 0253 10000000 		.4byte	.LFE114
 10051 0257 0400     		.2byte	0x4
 10052 0259 F3       		.byte	0xf3
 10053 025a 01       		.uleb128 0x1
 10054 025b 51       		.byte	0x51
 10055 025c 9F       		.byte	0x9f
 10056 025d 00000000 		.4byte	0
 10057 0261 00000000 		.4byte	0
 10058              	.LLST6:
 10059 0265 00000000 		.4byte	.LVL57
 10060 0269 02000000 		.4byte	.LVL58
 10061 026d 0200     		.2byte	0x2
 10062 026f 30       		.byte	0x30
 10063 0270 9F       		.byte	0x9f
 10064 0271 02000000 		.4byte	.LVL58
 10065 0275 08000000 		.4byte	.LVL59
 10066 0279 0100     		.2byte	0x1
 10067 027b 53       		.byte	0x53
 10068 027c 0A000000 		.4byte	.LVL60
 10069 0280 0C000000 		.4byte	.LVL61
 10070 0284 0100     		.2byte	0x1
 10071 0286 52       		.byte	0x52
 10072 0287 0C000000 		.4byte	.LVL61
 10073 028b 10000000 		.4byte	.LFE114
 10074 028f 0100     		.2byte	0x1
 10075 0291 51       		.byte	0x51
 10076 0292 00000000 		.4byte	0
 10077 0296 00000000 		.4byte	0
 10078              	.LLST7:
 10079 029a 00000000 		.4byte	.LVL64
 10080 029e 02000000 		.4byte	.LVL65
 10081 02a2 0100     		.2byte	0x1
ARM GAS  C:\Users\CNous\AppData\Local\Temp\ccZi7tDD.s 			page 246


 10082 02a4 50       		.byte	0x50
 10083 02a5 02000000 		.4byte	.LVL65
 10084 02a9 04000000 		.4byte	.LFE117
 10085 02ad 0400     		.2byte	0x4
 10086 02af F3       		.byte	0xf3
 10087 02b0 01       		.uleb128 0x1
 10088 02b1 50       		.byte	0x50
 10089 02b2 9F       		.byte	0x9f
 10090 02b3 00000000 		.4byte	0
 10091 02b7 00000000 		.4byte	0
 10092              	.LLST8:
 10093 02bb 00000000 		.4byte	.LVL66
 10094 02bf 02000000 		.4byte	.LVL67
 10095 02c3 0100     		.2byte	0x1
 10096 02c5 50       		.byte	0x50
 10097 02c6 02000000 		.4byte	.LVL67
 10098 02ca 06000000 		.4byte	.LFE118
 10099 02ce 0400     		.2byte	0x4
 10100 02d0 F3       		.byte	0xf3
 10101 02d1 01       		.uleb128 0x1
 10102 02d2 50       		.byte	0x50
 10103 02d3 9F       		.byte	0x9f
 10104 02d4 00000000 		.4byte	0
 10105 02d8 00000000 		.4byte	0
 10106              	.LLST9:
 10107 02dc 00000000 		.4byte	.LVL68
 10108 02e0 08000000 		.4byte	.LVL69
 10109 02e4 0100     		.2byte	0x1
 10110 02e6 51       		.byte	0x51
 10111 02e7 08000000 		.4byte	.LVL69
 10112 02eb 10000000 		.4byte	.LVL70
 10113 02ef 0400     		.2byte	0x4
 10114 02f1 F3       		.byte	0xf3
 10115 02f2 01       		.uleb128 0x1
 10116 02f3 51       		.byte	0x51
 10117 02f4 9F       		.byte	0x9f
 10118 02f5 10000000 		.4byte	.LVL70
 10119 02f9 12000000 		.4byte	.LVL71
 10120 02fd 0100     		.2byte	0x1
 10121 02ff 51       		.byte	0x51
 10122 0300 12000000 		.4byte	.LVL71
 10123 0304 1A000000 		.4byte	.LFE119
 10124 0308 0400     		.2byte	0x4
 10125 030a F3       		.byte	0xf3
 10126 030b 01       		.uleb128 0x1
 10127 030c 51       		.byte	0x51
 10128 030d 9F       		.byte	0x9f
 10129 030e 00000000 		.4byte	0
 10130 0312 00000000 		.4byte	0
 10131              	.LLST10:
 10132 0316 00000000 		.4byte	.LVL72
 10133 031a 08000000 		.4byte	.LVL73
 10134 031e 0100     		.2byte	0x1
 10135 0320 51       		.byte	0x51
 10136 0321 08000000 		.4byte	.LVL73
 10137 0325 10000000 		.4byte	.LVL74
 10138 0329 0400     		.2byte	0x4
ARM GAS  C:\Users\CNous\AppData\Local\Temp\ccZi7tDD.s 			page 247


 10139 032b F3       		.byte	0xf3
 10140 032c 01       		.uleb128 0x1
 10141 032d 51       		.byte	0x51
 10142 032e 9F       		.byte	0x9f
 10143 032f 10000000 		.4byte	.LVL74
 10144 0333 12000000 		.4byte	.LVL75
 10145 0337 0100     		.2byte	0x1
 10146 0339 51       		.byte	0x51
 10147 033a 12000000 		.4byte	.LVL75
 10148 033e 1A000000 		.4byte	.LFE120
 10149 0342 0400     		.2byte	0x4
 10150 0344 F3       		.byte	0xf3
 10151 0345 01       		.uleb128 0x1
 10152 0346 51       		.byte	0x51
 10153 0347 9F       		.byte	0x9f
 10154 0348 00000000 		.4byte	0
 10155 034c 00000000 		.4byte	0
 10156              	.LLST11:
 10157 0350 00000000 		.4byte	.LVL76
 10158 0354 08000000 		.4byte	.LVL77
 10159 0358 0100     		.2byte	0x1
 10160 035a 51       		.byte	0x51
 10161 035b 08000000 		.4byte	.LVL77
 10162 035f 10000000 		.4byte	.LVL78
 10163 0363 0400     		.2byte	0x4
 10164 0365 F3       		.byte	0xf3
 10165 0366 01       		.uleb128 0x1
 10166 0367 51       		.byte	0x51
 10167 0368 9F       		.byte	0x9f
 10168 0369 10000000 		.4byte	.LVL78
 10169 036d 12000000 		.4byte	.LVL79
 10170 0371 0100     		.2byte	0x1
 10171 0373 51       		.byte	0x51
 10172 0374 12000000 		.4byte	.LVL79
 10173 0378 1A000000 		.4byte	.LFE121
 10174 037c 0400     		.2byte	0x4
 10175 037e F3       		.byte	0xf3
 10176 037f 01       		.uleb128 0x1
 10177 0380 51       		.byte	0x51
 10178 0381 9F       		.byte	0x9f
 10179 0382 00000000 		.4byte	0
 10180 0386 00000000 		.4byte	0
 10181              	.LLST12:
 10182 038a 00000000 		.4byte	.LVL80
 10183 038e 12000000 		.4byte	.LVL81
 10184 0392 0100     		.2byte	0x1
 10185 0394 51       		.byte	0x51
 10186 0395 12000000 		.4byte	.LVL81
 10187 0399 16000000 		.4byte	.LFE122
 10188 039d 0400     		.2byte	0x4
 10189 039f F3       		.byte	0xf3
 10190 03a0 01       		.uleb128 0x1
 10191 03a1 51       		.byte	0x51
 10192 03a2 9F       		.byte	0x9f
 10193 03a3 00000000 		.4byte	0
 10194 03a7 00000000 		.4byte	0
 10195              	.LLST13:
ARM GAS  C:\Users\CNous\AppData\Local\Temp\ccZi7tDD.s 			page 248


 10196 03ab 00000000 		.4byte	.LVL82
 10197 03af 12000000 		.4byte	.LVL83
 10198 03b3 0100     		.2byte	0x1
 10199 03b5 51       		.byte	0x51
 10200 03b6 12000000 		.4byte	.LVL83
 10201 03ba 16000000 		.4byte	.LFE123
 10202 03be 0400     		.2byte	0x4
 10203 03c0 F3       		.byte	0xf3
 10204 03c1 01       		.uleb128 0x1
 10205 03c2 51       		.byte	0x51
 10206 03c3 9F       		.byte	0x9f
 10207 03c4 00000000 		.4byte	0
 10208 03c8 00000000 		.4byte	0
 10209              	.LLST14:
 10210 03cc 00000000 		.4byte	.LVL84
 10211 03d0 08000000 		.4byte	.LVL85
 10212 03d4 0100     		.2byte	0x1
 10213 03d6 51       		.byte	0x51
 10214 03d7 08000000 		.4byte	.LVL85
 10215 03db 10000000 		.4byte	.LVL86
 10216 03df 0400     		.2byte	0x4
 10217 03e1 F3       		.byte	0xf3
 10218 03e2 01       		.uleb128 0x1
 10219 03e3 51       		.byte	0x51
 10220 03e4 9F       		.byte	0x9f
 10221 03e5 10000000 		.4byte	.LVL86
 10222 03e9 12000000 		.4byte	.LVL87
 10223 03ed 0100     		.2byte	0x1
 10224 03ef 51       		.byte	0x51
 10225 03f0 12000000 		.4byte	.LVL87
 10226 03f4 1A000000 		.4byte	.LFE124
 10227 03f8 0400     		.2byte	0x4
 10228 03fa F3       		.byte	0xf3
 10229 03fb 01       		.uleb128 0x1
 10230 03fc 51       		.byte	0x51
 10231 03fd 9F       		.byte	0x9f
 10232 03fe 00000000 		.4byte	0
 10233 0402 00000000 		.4byte	0
 10234              	.LLST15:
 10235 0406 00000000 		.4byte	.LFB125
 10236 040a 04000000 		.4byte	.LCFI2
 10237 040e 0200     		.2byte	0x2
 10238 0410 7D       		.byte	0x7d
 10239 0411 00       		.sleb128 0
 10240 0412 04000000 		.4byte	.LCFI2
 10241 0416 94000000 		.4byte	.LFE125
 10242 041a 0200     		.2byte	0x2
 10243 041c 7D       		.byte	0x7d
 10244 041d 14       		.sleb128 20
 10245 041e 00000000 		.4byte	0
 10246 0422 00000000 		.4byte	0
 10247              	.LLST16:
 10248 0426 00000000 		.4byte	.LVL88
 10249 042a 56000000 		.4byte	.LVL95
 10250 042e 0100     		.2byte	0x1
 10251 0430 51       		.byte	0x51
 10252 0431 56000000 		.4byte	.LVL95
ARM GAS  C:\Users\CNous\AppData\Local\Temp\ccZi7tDD.s 			page 249


 10253 0435 64000000 		.4byte	.LVL96
 10254 0439 0400     		.2byte	0x4
 10255 043b F3       		.byte	0xf3
 10256 043c 01       		.uleb128 0x1
 10257 043d 51       		.byte	0x51
 10258 043e 9F       		.byte	0x9f
 10259 043f 64000000 		.4byte	.LVL96
 10260 0443 94000000 		.4byte	.LFE125
 10261 0447 0100     		.2byte	0x1
 10262 0449 51       		.byte	0x51
 10263 044a 00000000 		.4byte	0
 10264 044e 00000000 		.4byte	0
 10265              	.LLST17:
 10266 0452 00000000 		.4byte	.LVL88
 10267 0456 3E000000 		.4byte	.LVL91
 10268 045a 0200     		.2byte	0x2
 10269 045c 30       		.byte	0x30
 10270 045d 9F       		.byte	0x9f
 10271 045e 3E000000 		.4byte	.LVL91
 10272 0462 94000000 		.4byte	.LFE125
 10273 0466 0100     		.2byte	0x1
 10274 0468 52       		.byte	0x52
 10275 0469 00000000 		.4byte	0
 10276 046d 00000000 		.4byte	0
 10277              	.LLST18:
 10278 0471 00000000 		.4byte	.LVL88
 10279 0475 1A000000 		.4byte	.LVL89
 10280 0479 0200     		.2byte	0x2
 10281 047b 30       		.byte	0x30
 10282 047c 9F       		.byte	0x9f
 10283 047d 1A000000 		.4byte	.LVL89
 10284 0481 26000000 		.4byte	.LVL90
 10285 0485 0100     		.2byte	0x1
 10286 0487 54       		.byte	0x54
 10287 0488 42000000 		.4byte	.LVL92
 10288 048c 46000000 		.4byte	.LVL93
 10289 0490 0800     		.2byte	0x8
 10290 0492 71       		.byte	0x71
 10291 0493 0C       		.sleb128 12
 10292 0494 94       		.byte	0x94
 10293 0495 02       		.byte	0x2
 10294 0496 73       		.byte	0x73
 10295 0497 00       		.sleb128 0
 10296 0498 21       		.byte	0x21
 10297 0499 9F       		.byte	0x9f
 10298 049a 46000000 		.4byte	.LVL93
 10299 049e 76000000 		.4byte	.LVL97
 10300 04a2 0100     		.2byte	0x1
 10301 04a4 53       		.byte	0x53
 10302 04a5 76000000 		.4byte	.LVL97
 10303 04a9 7A000000 		.4byte	.LVL98
 10304 04ad 0100     		.2byte	0x1
 10305 04af 54       		.byte	0x54
 10306 04b0 7A000000 		.4byte	.LVL98
 10307 04b4 8C000000 		.4byte	.LVL99
 10308 04b8 0100     		.2byte	0x1
 10309 04ba 5C       		.byte	0x5c
ARM GAS  C:\Users\CNous\AppData\Local\Temp\ccZi7tDD.s 			page 250


 10310 04bb 8C000000 		.4byte	.LVL99
 10311 04bf 94000000 		.4byte	.LFE125
 10312 04c3 0100     		.2byte	0x1
 10313 04c5 53       		.byte	0x53
 10314 04c6 00000000 		.4byte	0
 10315 04ca 00000000 		.4byte	0
 10316              	.LLST19:
 10317 04ce 00000000 		.4byte	.LVL88
 10318 04d2 3E000000 		.4byte	.LVL91
 10319 04d6 0200     		.2byte	0x2
 10320 04d8 30       		.byte	0x30
 10321 04d9 9F       		.byte	0x9f
 10322 04da 3E000000 		.4byte	.LVL91
 10323 04de 8E000000 		.4byte	.LVL100
 10324 04e2 0100     		.2byte	0x1
 10325 04e4 55       		.byte	0x55
 10326 04e5 90000000 		.4byte	.LVL101
 10327 04e9 92000000 		.4byte	.LVL102
 10328 04ed 0800     		.2byte	0x8
 10329 04ef 71       		.byte	0x71
 10330 04f0 10       		.sleb128 16
 10331 04f1 94       		.byte	0x94
 10332 04f2 02       		.byte	0x2
 10333 04f3 74       		.byte	0x74
 10334 04f4 00       		.sleb128 0
 10335 04f5 21       		.byte	0x21
 10336 04f6 9F       		.byte	0x9f
 10337 04f7 92000000 		.4byte	.LVL102
 10338 04fb 94000000 		.4byte	.LFE125
 10339 04ff 0100     		.2byte	0x1
 10340 0501 55       		.byte	0x55
 10341 0502 00000000 		.4byte	0
 10342 0506 00000000 		.4byte	0
 10343              	.LLST20:
 10344 050a 00000000 		.4byte	.LFB126
 10345 050e 04000000 		.4byte	.LCFI3
 10346 0512 0200     		.2byte	0x2
 10347 0514 7D       		.byte	0x7d
 10348 0515 00       		.sleb128 0
 10349 0516 04000000 		.4byte	.LCFI3
 10350 051a 9A000000 		.4byte	.LFE126
 10351 051e 0200     		.2byte	0x2
 10352 0520 7D       		.byte	0x7d
 10353 0521 18       		.sleb128 24
 10354 0522 00000000 		.4byte	0
 10355 0526 00000000 		.4byte	0
 10356              	.LLST21:
 10357 052a 00000000 		.4byte	.LVL103
 10358 052e 56000000 		.4byte	.LVL110
 10359 0532 0100     		.2byte	0x1
 10360 0534 51       		.byte	0x51
 10361 0535 56000000 		.4byte	.LVL110
 10362 0539 64000000 		.4byte	.LVL111
 10363 053d 0400     		.2byte	0x4
 10364 053f F3       		.byte	0xf3
 10365 0540 01       		.uleb128 0x1
 10366 0541 51       		.byte	0x51
ARM GAS  C:\Users\CNous\AppData\Local\Temp\ccZi7tDD.s 			page 251


 10367 0542 9F       		.byte	0x9f
 10368 0543 64000000 		.4byte	.LVL111
 10369 0547 9A000000 		.4byte	.LFE126
 10370 054b 0100     		.2byte	0x1
 10371 054d 51       		.byte	0x51
 10372 054e 00000000 		.4byte	0
 10373 0552 00000000 		.4byte	0
 10374              	.LLST22:
 10375 0556 00000000 		.4byte	.LVL103
 10376 055a 42000000 		.4byte	.LVL106
 10377 055e 0200     		.2byte	0x2
 10378 0560 30       		.byte	0x30
 10379 0561 9F       		.byte	0x9f
 10380 0562 44000000 		.4byte	.LVL107
 10381 0566 9A000000 		.4byte	.LFE126
 10382 056a 0100     		.2byte	0x1
 10383 056c 53       		.byte	0x53
 10384 056d 00000000 		.4byte	0
 10385 0571 00000000 		.4byte	0
 10386              	.LLST23:
 10387 0575 00000000 		.4byte	.LVL103
 10388 0579 18000000 		.4byte	.LVL104
 10389 057d 0200     		.2byte	0x2
 10390 057f 30       		.byte	0x30
 10391 0580 9F       		.byte	0x9f
 10392 0581 18000000 		.4byte	.LVL104
 10393 0585 20000000 		.4byte	.LVL105
 10394 0589 0100     		.2byte	0x1
 10395 058b 52       		.byte	0x52
 10396 058c 46000000 		.4byte	.LVL108
 10397 0590 78000000 		.4byte	.LVL112
 10398 0594 0100     		.2byte	0x1
 10399 0596 52       		.byte	0x52
 10400 0597 78000000 		.4byte	.LVL112
 10401 059b 88000000 		.4byte	.LVL114
 10402 059f 0100     		.2byte	0x1
 10403 05a1 56       		.byte	0x56
 10404 05a2 88000000 		.4byte	.LVL114
 10405 05a6 90000000 		.4byte	.LVL116
 10406 05aa 0100     		.2byte	0x1
 10407 05ac 52       		.byte	0x52
 10408 05ad 90000000 		.4byte	.LVL116
 10409 05b1 96000000 		.4byte	.LVL117
 10410 05b5 0700     		.2byte	0x7
 10411 05b7 76       		.byte	0x76
 10412 05b8 00       		.sleb128 0
 10413 05b9 0A       		.byte	0xa
 10414 05ba BFFF     		.2byte	0xffbf
 10415 05bc 1A       		.byte	0x1a
 10416 05bd 9F       		.byte	0x9f
 10417 05be 96000000 		.4byte	.LVL117
 10418 05c2 9A000000 		.4byte	.LFE126
 10419 05c6 0100     		.2byte	0x1
 10420 05c8 52       		.byte	0x52
 10421 05c9 00000000 		.4byte	0
 10422 05cd 00000000 		.4byte	0
 10423              	.LLST24:
ARM GAS  C:\Users\CNous\AppData\Local\Temp\ccZi7tDD.s 			page 252


 10424 05d1 00000000 		.4byte	.LVL103
 10425 05d5 42000000 		.4byte	.LVL106
 10426 05d9 0200     		.2byte	0x2
 10427 05db 30       		.byte	0x30
 10428 05dc 9F       		.byte	0x9f
 10429 05dd 42000000 		.4byte	.LVL106
 10430 05e1 8C000000 		.4byte	.LVL115
 10431 05e5 0100     		.2byte	0x1
 10432 05e7 54       		.byte	0x54
 10433 05e8 96000000 		.4byte	.LVL117
 10434 05ec 98000000 		.4byte	.LVL118
 10435 05f0 0800     		.2byte	0x8
 10436 05f2 78       		.byte	0x78
 10437 05f3 00       		.sleb128 0
 10438 05f4 32       		.byte	0x32
 10439 05f5 24       		.byte	0x24
 10440 05f6 75       		.byte	0x75
 10441 05f7 00       		.sleb128 0
 10442 05f8 21       		.byte	0x21
 10443 05f9 9F       		.byte	0x9f
 10444 05fa 98000000 		.4byte	.LVL118
 10445 05fe 9A000000 		.4byte	.LFE126
 10446 0602 0100     		.2byte	0x1
 10447 0604 54       		.byte	0x54
 10448 0605 00000000 		.4byte	0
 10449 0609 00000000 		.4byte	0
 10450              	.LLST25:
 10451 060d 00000000 		.4byte	.LFB127
 10452 0611 04000000 		.4byte	.LCFI4
 10453 0615 0200     		.2byte	0x2
 10454 0617 7D       		.byte	0x7d
 10455 0618 00       		.sleb128 0
 10456 0619 04000000 		.4byte	.LCFI4
 10457 061d 98000000 		.4byte	.LFE127
 10458 0621 0200     		.2byte	0x2
 10459 0623 7D       		.byte	0x7d
 10460 0624 18       		.sleb128 24
 10461 0625 00000000 		.4byte	0
 10462 0629 00000000 		.4byte	0
 10463              	.LLST26:
 10464 062d 00000000 		.4byte	.LVL119
 10465 0631 54000000 		.4byte	.LVL126
 10466 0635 0100     		.2byte	0x1
 10467 0637 51       		.byte	0x51
 10468 0638 54000000 		.4byte	.LVL126
 10469 063c 62000000 		.4byte	.LVL127
 10470 0640 0400     		.2byte	0x4
 10471 0642 F3       		.byte	0xf3
 10472 0643 01       		.uleb128 0x1
 10473 0644 51       		.byte	0x51
 10474 0645 9F       		.byte	0x9f
 10475 0646 62000000 		.4byte	.LVL127
 10476 064a 98000000 		.4byte	.LFE127
 10477 064e 0100     		.2byte	0x1
 10478 0650 51       		.byte	0x51
 10479 0651 00000000 		.4byte	0
 10480 0655 00000000 		.4byte	0
ARM GAS  C:\Users\CNous\AppData\Local\Temp\ccZi7tDD.s 			page 253


 10481              	.LLST27:
 10482 0659 00000000 		.4byte	.LVL119
 10483 065d 3E000000 		.4byte	.LVL122
 10484 0661 0200     		.2byte	0x2
 10485 0663 30       		.byte	0x30
 10486 0664 9F       		.byte	0x9f
 10487 0665 3E000000 		.4byte	.LVL122
 10488 0669 98000000 		.4byte	.LFE127
 10489 066d 0100     		.2byte	0x1
 10490 066f 53       		.byte	0x53
 10491 0670 00000000 		.4byte	0
 10492 0674 00000000 		.4byte	0
 10493              	.LLST28:
 10494 0678 00000000 		.4byte	.LVL119
 10495 067c 18000000 		.4byte	.LVL120
 10496 0680 0200     		.2byte	0x2
 10497 0682 30       		.byte	0x30
 10498 0683 9F       		.byte	0x9f
 10499 0684 18000000 		.4byte	.LVL120
 10500 0688 20000000 		.4byte	.LVL121
 10501 068c 0100     		.2byte	0x1
 10502 068e 52       		.byte	0x52
 10503 068f 44000000 		.4byte	.LVL124
 10504 0693 76000000 		.4byte	.LVL128
 10505 0697 0100     		.2byte	0x1
 10506 0699 52       		.byte	0x52
 10507 069a 76000000 		.4byte	.LVL128
 10508 069e 86000000 		.4byte	.LVL130
 10509 06a2 0100     		.2byte	0x1
 10510 06a4 56       		.byte	0x56
 10511 06a5 86000000 		.4byte	.LVL130
 10512 06a9 8E000000 		.4byte	.LVL132
 10513 06ad 0100     		.2byte	0x1
 10514 06af 52       		.byte	0x52
 10515 06b0 8E000000 		.4byte	.LVL132
 10516 06b4 94000000 		.4byte	.LVL133
 10517 06b8 0700     		.2byte	0x7
 10518 06ba 76       		.byte	0x76
 10519 06bb 00       		.sleb128 0
 10520 06bc 0A       		.byte	0xa
 10521 06bd FFFB     		.2byte	0xfbff
 10522 06bf 1A       		.byte	0x1a
 10523 06c0 9F       		.byte	0x9f
 10524 06c1 94000000 		.4byte	.LVL133
 10525 06c5 98000000 		.4byte	.LFE127
 10526 06c9 0100     		.2byte	0x1
 10527 06cb 52       		.byte	0x52
 10528 06cc 00000000 		.4byte	0
 10529 06d0 00000000 		.4byte	0
 10530              	.LLST29:
 10531 06d4 00000000 		.4byte	.LVL119
 10532 06d8 3E000000 		.4byte	.LVL122
 10533 06dc 0200     		.2byte	0x2
 10534 06de 30       		.byte	0x30
 10535 06df 9F       		.byte	0x9f
 10536 06e0 3E000000 		.4byte	.LVL122
 10537 06e4 8A000000 		.4byte	.LVL131
ARM GAS  C:\Users\CNous\AppData\Local\Temp\ccZi7tDD.s 			page 254


 10538 06e8 0100     		.2byte	0x1
 10539 06ea 54       		.byte	0x54
 10540 06eb 94000000 		.4byte	.LVL133
 10541 06ef 96000000 		.4byte	.LVL134
 10542 06f3 0800     		.2byte	0x8
 10543 06f5 78       		.byte	0x78
 10544 06f6 00       		.sleb128 0
 10545 06f7 34       		.byte	0x34
 10546 06f8 24       		.byte	0x24
 10547 06f9 75       		.byte	0x75
 10548 06fa 00       		.sleb128 0
 10549 06fb 21       		.byte	0x21
 10550 06fc 9F       		.byte	0x9f
 10551 06fd 96000000 		.4byte	.LVL134
 10552 0701 98000000 		.4byte	.LFE127
 10553 0705 0100     		.2byte	0x1
 10554 0707 54       		.byte	0x54
 10555 0708 00000000 		.4byte	0
 10556 070c 00000000 		.4byte	0
 10557              	.LLST30:
 10558 0710 00000000 		.4byte	.LFB128
 10559 0714 02000000 		.4byte	.LCFI5
 10560 0718 0200     		.2byte	0x2
 10561 071a 7D       		.byte	0x7d
 10562 071b 00       		.sleb128 0
 10563 071c 02000000 		.4byte	.LCFI5
 10564 0720 72000000 		.4byte	.LFE128
 10565 0724 0200     		.2byte	0x2
 10566 0726 7D       		.byte	0x7d
 10567 0727 10       		.sleb128 16
 10568 0728 00000000 		.4byte	0
 10569 072c 00000000 		.4byte	0
 10570              	.LLST31:
 10571 0730 00000000 		.4byte	.LVL135
 10572 0734 56000000 		.4byte	.LVL142
 10573 0738 0100     		.2byte	0x1
 10574 073a 51       		.byte	0x51
 10575 073b 56000000 		.4byte	.LVL142
 10576 073f 62000000 		.4byte	.LVL143
 10577 0743 0400     		.2byte	0x4
 10578 0745 F3       		.byte	0xf3
 10579 0746 01       		.uleb128 0x1
 10580 0747 51       		.byte	0x51
 10581 0748 9F       		.byte	0x9f
 10582 0749 62000000 		.4byte	.LVL143
 10583 074d 72000000 		.4byte	.LFE128
 10584 0751 0100     		.2byte	0x1
 10585 0753 51       		.byte	0x51
 10586 0754 00000000 		.4byte	0
 10587 0758 00000000 		.4byte	0
 10588              	.LLST32:
 10589 075c 00000000 		.4byte	.LVL135
 10590 0760 42000000 		.4byte	.LVL138
 10591 0764 0200     		.2byte	0x2
 10592 0766 30       		.byte	0x30
 10593 0767 9F       		.byte	0x9f
 10594 0768 44000000 		.4byte	.LVL139
ARM GAS  C:\Users\CNous\AppData\Local\Temp\ccZi7tDD.s 			page 255


 10595 076c 72000000 		.4byte	.LFE128
 10596 0770 0100     		.2byte	0x1
 10597 0772 53       		.byte	0x53
 10598 0773 00000000 		.4byte	0
 10599 0777 00000000 		.4byte	0
 10600              	.LLST33:
 10601 077b 00000000 		.4byte	.LVL135
 10602 077f 18000000 		.4byte	.LVL136
 10603 0783 0200     		.2byte	0x2
 10604 0785 30       		.byte	0x30
 10605 0786 9F       		.byte	0x9f
 10606 0787 18000000 		.4byte	.LVL136
 10607 078b 26000000 		.4byte	.LVL137
 10608 078f 0100     		.2byte	0x1
 10609 0791 54       		.byte	0x54
 10610 0792 46000000 		.4byte	.LVL140
 10611 0796 72000000 		.4byte	.LFE128
 10612 079a 0100     		.2byte	0x1
 10613 079c 52       		.byte	0x52
 10614 079d 00000000 		.4byte	0
 10615 07a1 00000000 		.4byte	0
 10616              	.LLST34:
 10617 07a5 00000000 		.4byte	.LVL135
 10618 07a9 42000000 		.4byte	.LVL138
 10619 07ad 0200     		.2byte	0x2
 10620 07af 30       		.byte	0x30
 10621 07b0 9F       		.byte	0x9f
 10622 07b1 42000000 		.4byte	.LVL138
 10623 07b5 6A000000 		.4byte	.LVL144
 10624 07b9 0100     		.2byte	0x1
 10625 07bb 55       		.byte	0x55
 10626 07bc 6A000000 		.4byte	.LVL144
 10627 07c0 70000000 		.4byte	.LVL145
 10628 07c4 0100     		.2byte	0x1
 10629 07c6 54       		.byte	0x54
 10630 07c7 70000000 		.4byte	.LVL145
 10631 07cb 72000000 		.4byte	.LFE128
 10632 07cf 0100     		.2byte	0x1
 10633 07d1 55       		.byte	0x55
 10634 07d2 00000000 		.4byte	0
 10635 07d6 00000000 		.4byte	0
 10636              	.LLST35:
 10637 07da 00000000 		.4byte	.LFB130
 10638 07de 04000000 		.4byte	.LCFI6
 10639 07e2 0200     		.2byte	0x2
 10640 07e4 7D       		.byte	0x7d
 10641 07e5 00       		.sleb128 0
 10642 07e6 04000000 		.4byte	.LCFI6
 10643 07ea 4E000000 		.4byte	.LFE130
 10644 07ee 0200     		.2byte	0x2
 10645 07f0 7D       		.byte	0x7d
 10646 07f1 04       		.sleb128 4
 10647 07f2 00000000 		.4byte	0
 10648 07f6 00000000 		.4byte	0
 10649              	.LLST36:
 10650 07fa 00000000 		.4byte	.LVL147
 10651 07fe 26000000 		.4byte	.LVL152
ARM GAS  C:\Users\CNous\AppData\Local\Temp\ccZi7tDD.s 			page 256


 10652 0802 0100     		.2byte	0x1
 10653 0804 50       		.byte	0x50
 10654 0805 26000000 		.4byte	.LVL152
 10655 0809 38000000 		.4byte	.LVL154
 10656 080d 0300     		.2byte	0x3
 10657 080f 73       		.byte	0x73
 10658 0810 68       		.sleb128 -24
 10659 0811 9F       		.byte	0x9f
 10660 0812 38000000 		.4byte	.LVL154
 10661 0816 3E000000 		.4byte	.LVL156
 10662 081a 0100     		.2byte	0x1
 10663 081c 50       		.byte	0x50
 10664 081d 3E000000 		.4byte	.LVL156
 10665 0821 4E000000 		.4byte	.LFE130
 10666 0825 0300     		.2byte	0x3
 10667 0827 73       		.byte	0x73
 10668 0828 68       		.sleb128 -24
 10669 0829 9F       		.byte	0x9f
 10670 082a 00000000 		.4byte	0
 10671 082e 00000000 		.4byte	0
 10672              	.LLST37:
 10673 0832 00000000 		.4byte	.LVL147
 10674 0836 1E000000 		.4byte	.LVL150
 10675 083a 0100     		.2byte	0x1
 10676 083c 51       		.byte	0x51
 10677 083d 1E000000 		.4byte	.LVL150
 10678 0841 38000000 		.4byte	.LVL154
 10679 0845 0400     		.2byte	0x4
 10680 0847 F3       		.byte	0xf3
 10681 0848 01       		.uleb128 0x1
 10682 0849 51       		.byte	0x51
 10683 084a 9F       		.byte	0x9f
 10684 084b 38000000 		.4byte	.LVL154
 10685 084f 3A000000 		.4byte	.LVL155
 10686 0853 0100     		.2byte	0x1
 10687 0855 51       		.byte	0x51
 10688 0856 3A000000 		.4byte	.LVL155
 10689 085a 4E000000 		.4byte	.LFE130
 10690 085e 0400     		.2byte	0x4
 10691 0860 F3       		.byte	0xf3
 10692 0861 01       		.uleb128 0x1
 10693 0862 51       		.byte	0x51
 10694 0863 9F       		.byte	0x9f
 10695 0864 00000000 		.4byte	0
 10696 0868 00000000 		.4byte	0
 10697              	.LLST38:
 10698 086c 00000000 		.4byte	.LVL147
 10699 0870 2E000000 		.4byte	.LVL153
 10700 0874 0100     		.2byte	0x1
 10701 0876 52       		.byte	0x52
 10702 0877 2E000000 		.4byte	.LVL153
 10703 087b 38000000 		.4byte	.LVL154
 10704 087f 0400     		.2byte	0x4
 10705 0881 F3       		.byte	0xf3
 10706 0882 01       		.uleb128 0x1
 10707 0883 52       		.byte	0x52
 10708 0884 9F       		.byte	0x9f
ARM GAS  C:\Users\CNous\AppData\Local\Temp\ccZi7tDD.s 			page 257


 10709 0885 38000000 		.4byte	.LVL154
 10710 0889 48000000 		.4byte	.LVL157
 10711 088d 0100     		.2byte	0x1
 10712 088f 52       		.byte	0x52
 10713 0890 48000000 		.4byte	.LVL157
 10714 0894 4E000000 		.4byte	.LFE130
 10715 0898 0400     		.2byte	0x4
 10716 089a F3       		.byte	0xf3
 10717 089b 01       		.uleb128 0x1
 10718 089c 52       		.byte	0x52
 10719 089d 9F       		.byte	0x9f
 10720 089e 00000000 		.4byte	0
 10721 08a2 00000000 		.4byte	0
 10722              	.LLST39:
 10723 08a6 00000000 		.4byte	.LVL147
 10724 08aa 16000000 		.4byte	.LVL148
 10725 08ae 0100     		.2byte	0x1
 10726 08b0 50       		.byte	0x50
 10727 08b1 16000000 		.4byte	.LVL148
 10728 08b5 1C000000 		.4byte	.LVL149
 10729 08b9 0100     		.2byte	0x1
 10730 08bb 53       		.byte	0x53
 10731 08bc 1C000000 		.4byte	.LVL149
 10732 08c0 1E000000 		.4byte	.LVL150
 10733 08c4 0C00     		.2byte	0xc
 10734 08c6 71       		.byte	0x71
 10735 08c7 7C       		.sleb128 -4
 10736 08c8 31       		.byte	0x31
 10737 08c9 25       		.byte	0x25
 10738 08ca 0A       		.byte	0xa
 10739 08cb FFFF     		.2byte	0xffff
 10740 08cd 1A       		.byte	0x1a
 10741 08ce 73       		.byte	0x73
 10742 08cf 00       		.sleb128 0
 10743 08d0 22       		.byte	0x22
 10744 08d1 9F       		.byte	0x9f
 10745 08d2 1E000000 		.4byte	.LVL150
 10746 08d6 22000000 		.4byte	.LVL151
 10747 08da 0C00     		.2byte	0xc
 10748 08dc 71       		.byte	0x71
 10749 08dd 00       		.sleb128 0
 10750 08de 31       		.byte	0x31
 10751 08df 25       		.byte	0x25
 10752 08e0 0A       		.byte	0xa
 10753 08e1 FFFF     		.2byte	0xffff
 10754 08e3 1A       		.byte	0x1a
 10755 08e4 73       		.byte	0x73
 10756 08e5 00       		.sleb128 0
 10757 08e6 22       		.byte	0x22
 10758 08e7 9F       		.byte	0x9f
 10759 08e8 38000000 		.4byte	.LVL154
 10760 08ec 3A000000 		.4byte	.LVL155
 10761 08f0 0C00     		.2byte	0xc
 10762 08f2 71       		.byte	0x71
 10763 08f3 00       		.sleb128 0
 10764 08f4 31       		.byte	0x31
 10765 08f5 25       		.byte	0x25
ARM GAS  C:\Users\CNous\AppData\Local\Temp\ccZi7tDD.s 			page 258


 10766 08f6 0A       		.byte	0xa
 10767 08f7 FFFF     		.2byte	0xffff
 10768 08f9 1A       		.byte	0x1a
 10769 08fa 73       		.byte	0x73
 10770 08fb 00       		.sleb128 0
 10771 08fc 22       		.byte	0x22
 10772 08fd 9F       		.byte	0x9f
 10773 08fe 00000000 		.4byte	0
 10774 0902 00000000 		.4byte	0
 10775              	.LLST40:
 10776 0906 00000000 		.4byte	.LVL147
 10777 090a 16000000 		.4byte	.LVL148
 10778 090e 0200     		.2byte	0x2
 10779 0910 30       		.byte	0x30
 10780 0911 9F       		.byte	0x9f
 10781 0912 00000000 		.4byte	0
 10782 0916 00000000 		.4byte	0
 10783              	.LLST41:
 10784 091a 00000000 		.4byte	.LVL162
 10785 091e 0C000000 		.4byte	.LVL166
 10786 0922 0100     		.2byte	0x1
 10787 0924 51       		.byte	0x51
 10788 0925 0C000000 		.4byte	.LVL166
 10789 0929 10000000 		.4byte	.LFE135
 10790 092d 0400     		.2byte	0x4
 10791 092f F3       		.byte	0xf3
 10792 0930 01       		.uleb128 0x1
 10793 0931 51       		.byte	0x51
 10794 0932 9F       		.byte	0x9f
 10795 0933 00000000 		.4byte	0
 10796 0937 00000000 		.4byte	0
 10797              	.LLST42:
 10798 093b 00000000 		.4byte	.LVL162
 10799 093f 02000000 		.4byte	.LVL163
 10800 0943 0200     		.2byte	0x2
 10801 0945 30       		.byte	0x30
 10802 0946 9F       		.byte	0x9f
 10803 0947 02000000 		.4byte	.LVL163
 10804 094b 08000000 		.4byte	.LVL164
 10805 094f 0100     		.2byte	0x1
 10806 0951 53       		.byte	0x53
 10807 0952 0A000000 		.4byte	.LVL165
 10808 0956 0C000000 		.4byte	.LVL166
 10809 095a 0100     		.2byte	0x1
 10810 095c 52       		.byte	0x52
 10811 095d 0C000000 		.4byte	.LVL166
 10812 0961 10000000 		.4byte	.LFE135
 10813 0965 0100     		.2byte	0x1
 10814 0967 51       		.byte	0x51
 10815 0968 00000000 		.4byte	0
 10816 096c 00000000 		.4byte	0
 10817              	.LLST43:
 10818 0970 00000000 		.4byte	.LVL167
 10819 0974 0E000000 		.4byte	.LVL171
 10820 0978 0100     		.2byte	0x1
 10821 097a 51       		.byte	0x51
 10822 097b 0E000000 		.4byte	.LVL171
ARM GAS  C:\Users\CNous\AppData\Local\Temp\ccZi7tDD.s 			page 259


 10823 097f 14000000 		.4byte	.LFE136
 10824 0983 0400     		.2byte	0x4
 10825 0985 F3       		.byte	0xf3
 10826 0986 01       		.uleb128 0x1
 10827 0987 51       		.byte	0x51
 10828 0988 9F       		.byte	0x9f
 10829 0989 00000000 		.4byte	0
 10830 098d 00000000 		.4byte	0
 10831              	.LLST44:
 10832 0991 00000000 		.4byte	.LVL167
 10833 0995 02000000 		.4byte	.LVL168
 10834 0999 0200     		.2byte	0x2
 10835 099b 30       		.byte	0x30
 10836 099c 9F       		.byte	0x9f
 10837 099d 02000000 		.4byte	.LVL168
 10838 09a1 08000000 		.4byte	.LVL169
 10839 09a5 0100     		.2byte	0x1
 10840 09a7 53       		.byte	0x53
 10841 09a8 0A000000 		.4byte	.LVL170
 10842 09ac 10000000 		.4byte	.LVL172
 10843 09b0 0100     		.2byte	0x1
 10844 09b2 52       		.byte	0x52
 10845 09b3 10000000 		.4byte	.LVL172
 10846 09b7 14000000 		.4byte	.LFE136
 10847 09bb 0100     		.2byte	0x1
 10848 09bd 51       		.byte	0x51
 10849 09be 00000000 		.4byte	0
 10850 09c2 00000000 		.4byte	0
 10851              	.LLST45:
 10852 09c6 00000000 		.4byte	.LVL173
 10853 09ca 0C000000 		.4byte	.LVL177
 10854 09ce 0100     		.2byte	0x1
 10855 09d0 51       		.byte	0x51
 10856 09d1 0C000000 		.4byte	.LVL177
 10857 09d5 10000000 		.4byte	.LFE137
 10858 09d9 0400     		.2byte	0x4
 10859 09db F3       		.byte	0xf3
 10860 09dc 01       		.uleb128 0x1
 10861 09dd 51       		.byte	0x51
 10862 09de 9F       		.byte	0x9f
 10863 09df 00000000 		.4byte	0
 10864 09e3 00000000 		.4byte	0
 10865              	.LLST46:
 10866 09e7 00000000 		.4byte	.LVL173
 10867 09eb 02000000 		.4byte	.LVL174
 10868 09ef 0200     		.2byte	0x2
 10869 09f1 30       		.byte	0x30
 10870 09f2 9F       		.byte	0x9f
 10871 09f3 02000000 		.4byte	.LVL174
 10872 09f7 08000000 		.4byte	.LVL175
 10873 09fb 0100     		.2byte	0x1
 10874 09fd 53       		.byte	0x53
 10875 09fe 0A000000 		.4byte	.LVL176
 10876 0a02 0C000000 		.4byte	.LVL177
 10877 0a06 0100     		.2byte	0x1
 10878 0a08 52       		.byte	0x52
 10879 0a09 0C000000 		.4byte	.LVL177
ARM GAS  C:\Users\CNous\AppData\Local\Temp\ccZi7tDD.s 			page 260


 10880 0a0d 10000000 		.4byte	.LFE137
 10881 0a11 0100     		.2byte	0x1
 10882 0a13 51       		.byte	0x51
 10883 0a14 00000000 		.4byte	0
 10884 0a18 00000000 		.4byte	0
 10885              	.LLST47:
 10886 0a1c 00000000 		.4byte	.LVL178
 10887 0a20 0E000000 		.4byte	.LVL182
 10888 0a24 0100     		.2byte	0x1
 10889 0a26 51       		.byte	0x51
 10890 0a27 0E000000 		.4byte	.LVL182
 10891 0a2b 14000000 		.4byte	.LFE138
 10892 0a2f 0400     		.2byte	0x4
 10893 0a31 F3       		.byte	0xf3
 10894 0a32 01       		.uleb128 0x1
 10895 0a33 51       		.byte	0x51
 10896 0a34 9F       		.byte	0x9f
 10897 0a35 00000000 		.4byte	0
 10898 0a39 00000000 		.4byte	0
 10899              	.LLST48:
 10900 0a3d 00000000 		.4byte	.LVL178
 10901 0a41 02000000 		.4byte	.LVL179
 10902 0a45 0200     		.2byte	0x2
 10903 0a47 30       		.byte	0x30
 10904 0a48 9F       		.byte	0x9f
 10905 0a49 02000000 		.4byte	.LVL179
 10906 0a4d 08000000 		.4byte	.LVL180
 10907 0a51 0100     		.2byte	0x1
 10908 0a53 53       		.byte	0x53
 10909 0a54 0A000000 		.4byte	.LVL181
 10910 0a58 10000000 		.4byte	.LVL183
 10911 0a5c 0100     		.2byte	0x1
 10912 0a5e 52       		.byte	0x52
 10913 0a5f 10000000 		.4byte	.LVL183
 10914 0a63 14000000 		.4byte	.LFE138
 10915 0a67 0100     		.2byte	0x1
 10916 0a69 51       		.byte	0x51
 10917 0a6a 00000000 		.4byte	0
 10918 0a6e 00000000 		.4byte	0
 10919              	.LLST49:
 10920 0a72 00000000 		.4byte	.LVL184
 10921 0a76 0C000000 		.4byte	.LVL188
 10922 0a7a 0100     		.2byte	0x1
 10923 0a7c 51       		.byte	0x51
 10924 0a7d 0C000000 		.4byte	.LVL188
 10925 0a81 10000000 		.4byte	.LFE139
 10926 0a85 0400     		.2byte	0x4
 10927 0a87 F3       		.byte	0xf3
 10928 0a88 01       		.uleb128 0x1
 10929 0a89 51       		.byte	0x51
 10930 0a8a 9F       		.byte	0x9f
 10931 0a8b 00000000 		.4byte	0
 10932 0a8f 00000000 		.4byte	0
 10933              	.LLST50:
 10934 0a93 00000000 		.4byte	.LVL184
 10935 0a97 02000000 		.4byte	.LVL185
 10936 0a9b 0200     		.2byte	0x2
ARM GAS  C:\Users\CNous\AppData\Local\Temp\ccZi7tDD.s 			page 261


 10937 0a9d 30       		.byte	0x30
 10938 0a9e 9F       		.byte	0x9f
 10939 0a9f 02000000 		.4byte	.LVL185
 10940 0aa3 08000000 		.4byte	.LVL186
 10941 0aa7 0100     		.2byte	0x1
 10942 0aa9 53       		.byte	0x53
 10943 0aaa 0A000000 		.4byte	.LVL187
 10944 0aae 0C000000 		.4byte	.LVL188
 10945 0ab2 0100     		.2byte	0x1
 10946 0ab4 52       		.byte	0x52
 10947 0ab5 0C000000 		.4byte	.LVL188
 10948 0ab9 10000000 		.4byte	.LFE139
 10949 0abd 0100     		.2byte	0x1
 10950 0abf 51       		.byte	0x51
 10951 0ac0 00000000 		.4byte	0
 10952 0ac4 00000000 		.4byte	0
 10953              	.LLST51:
 10954 0ac8 00000000 		.4byte	.LVL189
 10955 0acc 0E000000 		.4byte	.LVL193
 10956 0ad0 0100     		.2byte	0x1
 10957 0ad2 51       		.byte	0x51
 10958 0ad3 0E000000 		.4byte	.LVL193
 10959 0ad7 14000000 		.4byte	.LFE140
 10960 0adb 0400     		.2byte	0x4
 10961 0add F3       		.byte	0xf3
 10962 0ade 01       		.uleb128 0x1
 10963 0adf 51       		.byte	0x51
 10964 0ae0 9F       		.byte	0x9f
 10965 0ae1 00000000 		.4byte	0
 10966 0ae5 00000000 		.4byte	0
 10967              	.LLST52:
 10968 0ae9 00000000 		.4byte	.LVL189
 10969 0aed 02000000 		.4byte	.LVL190
 10970 0af1 0200     		.2byte	0x2
 10971 0af3 30       		.byte	0x30
 10972 0af4 9F       		.byte	0x9f
 10973 0af5 02000000 		.4byte	.LVL190
 10974 0af9 08000000 		.4byte	.LVL191
 10975 0afd 0100     		.2byte	0x1
 10976 0aff 53       		.byte	0x53
 10977 0b00 0A000000 		.4byte	.LVL192
 10978 0b04 10000000 		.4byte	.LVL194
 10979 0b08 0100     		.2byte	0x1
 10980 0b0a 52       		.byte	0x52
 10981 0b0b 10000000 		.4byte	.LVL194
 10982 0b0f 14000000 		.4byte	.LFE140
 10983 0b13 0100     		.2byte	0x1
 10984 0b15 51       		.byte	0x51
 10985 0b16 00000000 		.4byte	0
 10986 0b1a 00000000 		.4byte	0
 10987              	.LLST53:
 10988 0b1e 00000000 		.4byte	.LVL195
 10989 0b22 0C000000 		.4byte	.LVL199
 10990 0b26 0100     		.2byte	0x1
 10991 0b28 51       		.byte	0x51
 10992 0b29 0C000000 		.4byte	.LVL199
 10993 0b2d 10000000 		.4byte	.LFE141
ARM GAS  C:\Users\CNous\AppData\Local\Temp\ccZi7tDD.s 			page 262


 10994 0b31 0400     		.2byte	0x4
 10995 0b33 F3       		.byte	0xf3
 10996 0b34 01       		.uleb128 0x1
 10997 0b35 51       		.byte	0x51
 10998 0b36 9F       		.byte	0x9f
 10999 0b37 00000000 		.4byte	0
 11000 0b3b 00000000 		.4byte	0
 11001              	.LLST54:
 11002 0b3f 00000000 		.4byte	.LVL195
 11003 0b43 02000000 		.4byte	.LVL196
 11004 0b47 0200     		.2byte	0x2
 11005 0b49 30       		.byte	0x30
 11006 0b4a 9F       		.byte	0x9f
 11007 0b4b 02000000 		.4byte	.LVL196
 11008 0b4f 08000000 		.4byte	.LVL197
 11009 0b53 0100     		.2byte	0x1
 11010 0b55 53       		.byte	0x53
 11011 0b56 0A000000 		.4byte	.LVL198
 11012 0b5a 0C000000 		.4byte	.LVL199
 11013 0b5e 0100     		.2byte	0x1
 11014 0b60 52       		.byte	0x52
 11015 0b61 0C000000 		.4byte	.LVL199
 11016 0b65 10000000 		.4byte	.LFE141
 11017 0b69 0100     		.2byte	0x1
 11018 0b6b 51       		.byte	0x51
 11019 0b6c 00000000 		.4byte	0
 11020 0b70 00000000 		.4byte	0
 11021              	.LLST55:
 11022 0b74 00000000 		.4byte	.LVL200
 11023 0b78 0E000000 		.4byte	.LVL204
 11024 0b7c 0100     		.2byte	0x1
 11025 0b7e 51       		.byte	0x51
 11026 0b7f 0E000000 		.4byte	.LVL204
 11027 0b83 14000000 		.4byte	.LFE142
 11028 0b87 0400     		.2byte	0x4
 11029 0b89 F3       		.byte	0xf3
 11030 0b8a 01       		.uleb128 0x1
 11031 0b8b 51       		.byte	0x51
 11032 0b8c 9F       		.byte	0x9f
 11033 0b8d 00000000 		.4byte	0
 11034 0b91 00000000 		.4byte	0
 11035              	.LLST56:
 11036 0b95 00000000 		.4byte	.LVL200
 11037 0b99 02000000 		.4byte	.LVL201
 11038 0b9d 0200     		.2byte	0x2
 11039 0b9f 30       		.byte	0x30
 11040 0ba0 9F       		.byte	0x9f
 11041 0ba1 02000000 		.4byte	.LVL201
 11042 0ba5 08000000 		.4byte	.LVL202
 11043 0ba9 0100     		.2byte	0x1
 11044 0bab 53       		.byte	0x53
 11045 0bac 0A000000 		.4byte	.LVL203
 11046 0bb0 10000000 		.4byte	.LVL205
 11047 0bb4 0100     		.2byte	0x1
 11048 0bb6 52       		.byte	0x52
 11049 0bb7 10000000 		.4byte	.LVL205
 11050 0bbb 14000000 		.4byte	.LFE142
ARM GAS  C:\Users\CNous\AppData\Local\Temp\ccZi7tDD.s 			page 263


 11051 0bbf 0100     		.2byte	0x1
 11052 0bc1 51       		.byte	0x51
 11053 0bc2 00000000 		.4byte	0
 11054 0bc6 00000000 		.4byte	0
 11055              	.LLST57:
 11056 0bca 00000000 		.4byte	.LVL206
 11057 0bce 0C000000 		.4byte	.LVL210
 11058 0bd2 0100     		.2byte	0x1
 11059 0bd4 51       		.byte	0x51
 11060 0bd5 0C000000 		.4byte	.LVL210
 11061 0bd9 10000000 		.4byte	.LFE143
 11062 0bdd 0400     		.2byte	0x4
 11063 0bdf F3       		.byte	0xf3
 11064 0be0 01       		.uleb128 0x1
 11065 0be1 51       		.byte	0x51
 11066 0be2 9F       		.byte	0x9f
 11067 0be3 00000000 		.4byte	0
 11068 0be7 00000000 		.4byte	0
 11069              	.LLST58:
 11070 0beb 00000000 		.4byte	.LVL206
 11071 0bef 02000000 		.4byte	.LVL207
 11072 0bf3 0200     		.2byte	0x2
 11073 0bf5 30       		.byte	0x30
 11074 0bf6 9F       		.byte	0x9f
 11075 0bf7 02000000 		.4byte	.LVL207
 11076 0bfb 08000000 		.4byte	.LVL208
 11077 0bff 0100     		.2byte	0x1
 11078 0c01 53       		.byte	0x53
 11079 0c02 0A000000 		.4byte	.LVL209
 11080 0c06 0C000000 		.4byte	.LVL210
 11081 0c0a 0100     		.2byte	0x1
 11082 0c0c 52       		.byte	0x52
 11083 0c0d 0C000000 		.4byte	.LVL210
 11084 0c11 10000000 		.4byte	.LFE143
 11085 0c15 0100     		.2byte	0x1
 11086 0c17 51       		.byte	0x51
 11087 0c18 00000000 		.4byte	0
 11088 0c1c 00000000 		.4byte	0
 11089              	.LLST59:
 11090 0c20 00000000 		.4byte	.LVL211
 11091 0c24 0E000000 		.4byte	.LVL215
 11092 0c28 0100     		.2byte	0x1
 11093 0c2a 51       		.byte	0x51
 11094 0c2b 0E000000 		.4byte	.LVL215
 11095 0c2f 14000000 		.4byte	.LFE144
 11096 0c33 0400     		.2byte	0x4
 11097 0c35 F3       		.byte	0xf3
 11098 0c36 01       		.uleb128 0x1
 11099 0c37 51       		.byte	0x51
 11100 0c38 9F       		.byte	0x9f
 11101 0c39 00000000 		.4byte	0
 11102 0c3d 00000000 		.4byte	0
 11103              	.LLST60:
 11104 0c41 00000000 		.4byte	.LVL211
 11105 0c45 02000000 		.4byte	.LVL212
 11106 0c49 0200     		.2byte	0x2
 11107 0c4b 30       		.byte	0x30
ARM GAS  C:\Users\CNous\AppData\Local\Temp\ccZi7tDD.s 			page 264


 11108 0c4c 9F       		.byte	0x9f
 11109 0c4d 02000000 		.4byte	.LVL212
 11110 0c51 08000000 		.4byte	.LVL213
 11111 0c55 0100     		.2byte	0x1
 11112 0c57 53       		.byte	0x53
 11113 0c58 0A000000 		.4byte	.LVL214
 11114 0c5c 10000000 		.4byte	.LVL216
 11115 0c60 0100     		.2byte	0x1
 11116 0c62 52       		.byte	0x52
 11117 0c63 10000000 		.4byte	.LVL216
 11118 0c67 14000000 		.4byte	.LFE144
 11119 0c6b 0100     		.2byte	0x1
 11120 0c6d 51       		.byte	0x51
 11121 0c6e 00000000 		.4byte	0
 11122 0c72 00000000 		.4byte	0
 11123              	.LLST61:
 11124 0c76 00000000 		.4byte	.LVL217
 11125 0c7a 0C000000 		.4byte	.LVL221
 11126 0c7e 0100     		.2byte	0x1
 11127 0c80 51       		.byte	0x51
 11128 0c81 0C000000 		.4byte	.LVL221
 11129 0c85 10000000 		.4byte	.LFE145
 11130 0c89 0400     		.2byte	0x4
 11131 0c8b F3       		.byte	0xf3
 11132 0c8c 01       		.uleb128 0x1
 11133 0c8d 51       		.byte	0x51
 11134 0c8e 9F       		.byte	0x9f
 11135 0c8f 00000000 		.4byte	0
 11136 0c93 00000000 		.4byte	0
 11137              	.LLST62:
 11138 0c97 00000000 		.4byte	.LVL217
 11139 0c9b 02000000 		.4byte	.LVL218
 11140 0c9f 0200     		.2byte	0x2
 11141 0ca1 30       		.byte	0x30
 11142 0ca2 9F       		.byte	0x9f
 11143 0ca3 02000000 		.4byte	.LVL218
 11144 0ca7 08000000 		.4byte	.LVL219
 11145 0cab 0100     		.2byte	0x1
 11146 0cad 53       		.byte	0x53
 11147 0cae 0A000000 		.4byte	.LVL220
 11148 0cb2 0C000000 		.4byte	.LVL221
 11149 0cb6 0100     		.2byte	0x1
 11150 0cb8 52       		.byte	0x52
 11151 0cb9 0C000000 		.4byte	.LVL221
 11152 0cbd 10000000 		.4byte	.LFE145
 11153 0cc1 0100     		.2byte	0x1
 11154 0cc3 51       		.byte	0x51
 11155 0cc4 00000000 		.4byte	0
 11156 0cc8 00000000 		.4byte	0
 11157              	.LLST63:
 11158 0ccc 00000000 		.4byte	.LVL222
 11159 0cd0 0E000000 		.4byte	.LVL226
 11160 0cd4 0100     		.2byte	0x1
 11161 0cd6 51       		.byte	0x51
 11162 0cd7 0E000000 		.4byte	.LVL226
 11163 0cdb 14000000 		.4byte	.LFE146
 11164 0cdf 0400     		.2byte	0x4
ARM GAS  C:\Users\CNous\AppData\Local\Temp\ccZi7tDD.s 			page 265


 11165 0ce1 F3       		.byte	0xf3
 11166 0ce2 01       		.uleb128 0x1
 11167 0ce3 51       		.byte	0x51
 11168 0ce4 9F       		.byte	0x9f
 11169 0ce5 00000000 		.4byte	0
 11170 0ce9 00000000 		.4byte	0
 11171              	.LLST64:
 11172 0ced 00000000 		.4byte	.LVL222
 11173 0cf1 02000000 		.4byte	.LVL223
 11174 0cf5 0200     		.2byte	0x2
 11175 0cf7 30       		.byte	0x30
 11176 0cf8 9F       		.byte	0x9f
 11177 0cf9 02000000 		.4byte	.LVL223
 11178 0cfd 08000000 		.4byte	.LVL224
 11179 0d01 0100     		.2byte	0x1
 11180 0d03 53       		.byte	0x53
 11181 0d04 0A000000 		.4byte	.LVL225
 11182 0d08 10000000 		.4byte	.LVL227
 11183 0d0c 0100     		.2byte	0x1
 11184 0d0e 52       		.byte	0x52
 11185 0d0f 10000000 		.4byte	.LVL227
 11186 0d13 14000000 		.4byte	.LFE146
 11187 0d17 0100     		.2byte	0x1
 11188 0d19 51       		.byte	0x51
 11189 0d1a 00000000 		.4byte	0
 11190 0d1e 00000000 		.4byte	0
 11191              	.LLST65:
 11192 0d22 00000000 		.4byte	.LVL228
 11193 0d26 0C000000 		.4byte	.LVL232
 11194 0d2a 0100     		.2byte	0x1
 11195 0d2c 51       		.byte	0x51
 11196 0d2d 0C000000 		.4byte	.LVL232
 11197 0d31 10000000 		.4byte	.LFE147
 11198 0d35 0400     		.2byte	0x4
 11199 0d37 F3       		.byte	0xf3
 11200 0d38 01       		.uleb128 0x1
 11201 0d39 51       		.byte	0x51
 11202 0d3a 9F       		.byte	0x9f
 11203 0d3b 00000000 		.4byte	0
 11204 0d3f 00000000 		.4byte	0
 11205              	.LLST66:
 11206 0d43 00000000 		.4byte	.LVL228
 11207 0d47 02000000 		.4byte	.LVL229
 11208 0d4b 0200     		.2byte	0x2
 11209 0d4d 30       		.byte	0x30
 11210 0d4e 9F       		.byte	0x9f
 11211 0d4f 02000000 		.4byte	.LVL229
 11212 0d53 08000000 		.4byte	.LVL230
 11213 0d57 0100     		.2byte	0x1
 11214 0d59 53       		.byte	0x53
 11215 0d5a 0A000000 		.4byte	.LVL231
 11216 0d5e 0C000000 		.4byte	.LVL232
 11217 0d62 0100     		.2byte	0x1
 11218 0d64 52       		.byte	0x52
 11219 0d65 0C000000 		.4byte	.LVL232
 11220 0d69 10000000 		.4byte	.LFE147
 11221 0d6d 0100     		.2byte	0x1
ARM GAS  C:\Users\CNous\AppData\Local\Temp\ccZi7tDD.s 			page 266


 11222 0d6f 51       		.byte	0x51
 11223 0d70 00000000 		.4byte	0
 11224 0d74 00000000 		.4byte	0
 11225              	.LLST67:
 11226 0d78 00000000 		.4byte	.LVL233
 11227 0d7c 0A000000 		.4byte	.LVL236
 11228 0d80 0100     		.2byte	0x1
 11229 0d82 51       		.byte	0x51
 11230 0d83 0A000000 		.4byte	.LVL236
 11231 0d87 10000000 		.4byte	.LFE148
 11232 0d8b 0400     		.2byte	0x4
 11233 0d8d F3       		.byte	0xf3
 11234 0d8e 01       		.uleb128 0x1
 11235 0d8f 51       		.byte	0x51
 11236 0d90 9F       		.byte	0x9f
 11237 0d91 00000000 		.4byte	0
 11238 0d95 00000000 		.4byte	0
 11239              	.LLST68:
 11240 0d99 00000000 		.4byte	.LVL233
 11241 0d9d 02000000 		.4byte	.LVL234
 11242 0da1 0200     		.2byte	0x2
 11243 0da3 30       		.byte	0x30
 11244 0da4 9F       		.byte	0x9f
 11245 0da5 02000000 		.4byte	.LVL234
 11246 0da9 0C000000 		.4byte	.LVL237
 11247 0dad 0100     		.2byte	0x1
 11248 0daf 53       		.byte	0x53
 11249 0db0 0C000000 		.4byte	.LVL237
 11250 0db4 10000000 		.4byte	.LFE148
 11251 0db8 0100     		.2byte	0x1
 11252 0dba 51       		.byte	0x51
 11253 0dbb 00000000 		.4byte	0
 11254 0dbf 00000000 		.4byte	0
 11255              	.LLST69:
 11256 0dc3 00000000 		.4byte	.LVL238
 11257 0dc7 0C000000 		.4byte	.LVL242
 11258 0dcb 0100     		.2byte	0x1
 11259 0dcd 51       		.byte	0x51
 11260 0dce 0C000000 		.4byte	.LVL242
 11261 0dd2 10000000 		.4byte	.LFE149
 11262 0dd6 0400     		.2byte	0x4
 11263 0dd8 F3       		.byte	0xf3
 11264 0dd9 01       		.uleb128 0x1
 11265 0dda 51       		.byte	0x51
 11266 0ddb 9F       		.byte	0x9f
 11267 0ddc 00000000 		.4byte	0
 11268 0de0 00000000 		.4byte	0
 11269              	.LLST70:
 11270 0de4 00000000 		.4byte	.LVL238
 11271 0de8 02000000 		.4byte	.LVL239
 11272 0dec 0200     		.2byte	0x2
 11273 0dee 30       		.byte	0x30
 11274 0def 9F       		.byte	0x9f
 11275 0df0 02000000 		.4byte	.LVL239
 11276 0df4 08000000 		.4byte	.LVL240
 11277 0df8 0100     		.2byte	0x1
 11278 0dfa 53       		.byte	0x53
ARM GAS  C:\Users\CNous\AppData\Local\Temp\ccZi7tDD.s 			page 267


 11279 0dfb 0A000000 		.4byte	.LVL241
 11280 0dff 0C000000 		.4byte	.LVL242
 11281 0e03 0100     		.2byte	0x1
 11282 0e05 52       		.byte	0x52
 11283 0e06 0C000000 		.4byte	.LVL242
 11284 0e0a 10000000 		.4byte	.LFE149
 11285 0e0e 0100     		.2byte	0x1
 11286 0e10 51       		.byte	0x51
 11287 0e11 00000000 		.4byte	0
 11288 0e15 00000000 		.4byte	0
 11289              	.LLST71:
 11290 0e19 00000000 		.4byte	.LVL243
 11291 0e1d 0A000000 		.4byte	.LVL246
 11292 0e21 0100     		.2byte	0x1
 11293 0e23 51       		.byte	0x51
 11294 0e24 0A000000 		.4byte	.LVL246
 11295 0e28 10000000 		.4byte	.LFE150
 11296 0e2c 0400     		.2byte	0x4
 11297 0e2e F3       		.byte	0xf3
 11298 0e2f 01       		.uleb128 0x1
 11299 0e30 51       		.byte	0x51
 11300 0e31 9F       		.byte	0x9f
 11301 0e32 00000000 		.4byte	0
 11302 0e36 00000000 		.4byte	0
 11303              	.LLST72:
 11304 0e3a 00000000 		.4byte	.LVL243
 11305 0e3e 02000000 		.4byte	.LVL244
 11306 0e42 0200     		.2byte	0x2
 11307 0e44 30       		.byte	0x30
 11308 0e45 9F       		.byte	0x9f
 11309 0e46 02000000 		.4byte	.LVL244
 11310 0e4a 0C000000 		.4byte	.LVL247
 11311 0e4e 0100     		.2byte	0x1
 11312 0e50 53       		.byte	0x53
 11313 0e51 0C000000 		.4byte	.LVL247
 11314 0e55 10000000 		.4byte	.LFE150
 11315 0e59 0100     		.2byte	0x1
 11316 0e5b 51       		.byte	0x51
 11317 0e5c 00000000 		.4byte	0
 11318 0e60 00000000 		.4byte	0
 11319              	.LLST73:
 11320 0e64 00000000 		.4byte	.LVL248
 11321 0e68 0C000000 		.4byte	.LVL252
 11322 0e6c 0100     		.2byte	0x1
 11323 0e6e 51       		.byte	0x51
 11324 0e6f 0C000000 		.4byte	.LVL252
 11325 0e73 10000000 		.4byte	.LFE151
 11326 0e77 0400     		.2byte	0x4
 11327 0e79 F3       		.byte	0xf3
 11328 0e7a 01       		.uleb128 0x1
 11329 0e7b 51       		.byte	0x51
 11330 0e7c 9F       		.byte	0x9f
 11331 0e7d 00000000 		.4byte	0
 11332 0e81 00000000 		.4byte	0
 11333              	.LLST74:
 11334 0e85 00000000 		.4byte	.LVL248
 11335 0e89 02000000 		.4byte	.LVL249
ARM GAS  C:\Users\CNous\AppData\Local\Temp\ccZi7tDD.s 			page 268


 11336 0e8d 0200     		.2byte	0x2
 11337 0e8f 30       		.byte	0x30
 11338 0e90 9F       		.byte	0x9f
 11339 0e91 02000000 		.4byte	.LVL249
 11340 0e95 08000000 		.4byte	.LVL250
 11341 0e99 0100     		.2byte	0x1
 11342 0e9b 53       		.byte	0x53
 11343 0e9c 0A000000 		.4byte	.LVL251
 11344 0ea0 0C000000 		.4byte	.LVL252
 11345 0ea4 0100     		.2byte	0x1
 11346 0ea6 52       		.byte	0x52
 11347 0ea7 0C000000 		.4byte	.LVL252
 11348 0eab 10000000 		.4byte	.LFE151
 11349 0eaf 0100     		.2byte	0x1
 11350 0eb1 51       		.byte	0x51
 11351 0eb2 00000000 		.4byte	0
 11352 0eb6 00000000 		.4byte	0
 11353              	.LLST75:
 11354 0eba 00000000 		.4byte	.LVL253
 11355 0ebe 0C000000 		.4byte	.LVL257
 11356 0ec2 0100     		.2byte	0x1
 11357 0ec4 51       		.byte	0x51
 11358 0ec5 0C000000 		.4byte	.LVL257
 11359 0ec9 10000000 		.4byte	.LFE152
 11360 0ecd 0400     		.2byte	0x4
 11361 0ecf F3       		.byte	0xf3
 11362 0ed0 01       		.uleb128 0x1
 11363 0ed1 51       		.byte	0x51
 11364 0ed2 9F       		.byte	0x9f
 11365 0ed3 00000000 		.4byte	0
 11366 0ed7 00000000 		.4byte	0
 11367              	.LLST76:
 11368 0edb 00000000 		.4byte	.LVL253
 11369 0edf 02000000 		.4byte	.LVL254
 11370 0ee3 0200     		.2byte	0x2
 11371 0ee5 30       		.byte	0x30
 11372 0ee6 9F       		.byte	0x9f
 11373 0ee7 02000000 		.4byte	.LVL254
 11374 0eeb 08000000 		.4byte	.LVL255
 11375 0eef 0100     		.2byte	0x1
 11376 0ef1 53       		.byte	0x53
 11377 0ef2 0A000000 		.4byte	.LVL256
 11378 0ef6 0C000000 		.4byte	.LVL257
 11379 0efa 0100     		.2byte	0x1
 11380 0efc 52       		.byte	0x52
 11381 0efd 0C000000 		.4byte	.LVL257
 11382 0f01 10000000 		.4byte	.LFE152
 11383 0f05 0100     		.2byte	0x1
 11384 0f07 51       		.byte	0x51
 11385 0f08 00000000 		.4byte	0
 11386 0f0c 00000000 		.4byte	0
 11387              	.LLST77:
 11388 0f10 00000000 		.4byte	.LVL258
 11389 0f14 0E000000 		.4byte	.LVL262
 11390 0f18 0100     		.2byte	0x1
 11391 0f1a 51       		.byte	0x51
 11392 0f1b 0E000000 		.4byte	.LVL262
ARM GAS  C:\Users\CNous\AppData\Local\Temp\ccZi7tDD.s 			page 269


 11393 0f1f 14000000 		.4byte	.LFE153
 11394 0f23 0400     		.2byte	0x4
 11395 0f25 F3       		.byte	0xf3
 11396 0f26 01       		.uleb128 0x1
 11397 0f27 51       		.byte	0x51
 11398 0f28 9F       		.byte	0x9f
 11399 0f29 00000000 		.4byte	0
 11400 0f2d 00000000 		.4byte	0
 11401              	.LLST78:
 11402 0f31 00000000 		.4byte	.LVL258
 11403 0f35 02000000 		.4byte	.LVL259
 11404 0f39 0200     		.2byte	0x2
 11405 0f3b 30       		.byte	0x30
 11406 0f3c 9F       		.byte	0x9f
 11407 0f3d 02000000 		.4byte	.LVL259
 11408 0f41 08000000 		.4byte	.LVL260
 11409 0f45 0100     		.2byte	0x1
 11410 0f47 53       		.byte	0x53
 11411 0f48 0A000000 		.4byte	.LVL261
 11412 0f4c 10000000 		.4byte	.LVL263
 11413 0f50 0100     		.2byte	0x1
 11414 0f52 52       		.byte	0x52
 11415 0f53 10000000 		.4byte	.LVL263
 11416 0f57 14000000 		.4byte	.LFE153
 11417 0f5b 0100     		.2byte	0x1
 11418 0f5d 51       		.byte	0x51
 11419 0f5e 00000000 		.4byte	0
 11420 0f62 00000000 		.4byte	0
 11421              	.LLST79:
 11422 0f66 00000000 		.4byte	.LVL264
 11423 0f6a 0E000000 		.4byte	.LVL268
 11424 0f6e 0100     		.2byte	0x1
 11425 0f70 51       		.byte	0x51
 11426 0f71 0E000000 		.4byte	.LVL268
 11427 0f75 14000000 		.4byte	.LFE154
 11428 0f79 0400     		.2byte	0x4
 11429 0f7b F3       		.byte	0xf3
 11430 0f7c 01       		.uleb128 0x1
 11431 0f7d 51       		.byte	0x51
 11432 0f7e 9F       		.byte	0x9f
 11433 0f7f 00000000 		.4byte	0
 11434 0f83 00000000 		.4byte	0
 11435              	.LLST80:
 11436 0f87 00000000 		.4byte	.LVL264
 11437 0f8b 02000000 		.4byte	.LVL265
 11438 0f8f 0200     		.2byte	0x2
 11439 0f91 30       		.byte	0x30
 11440 0f92 9F       		.byte	0x9f
 11441 0f93 02000000 		.4byte	.LVL265
 11442 0f97 08000000 		.4byte	.LVL266
 11443 0f9b 0100     		.2byte	0x1
 11444 0f9d 53       		.byte	0x53
 11445 0f9e 0A000000 		.4byte	.LVL267
 11446 0fa2 10000000 		.4byte	.LVL269
 11447 0fa6 0100     		.2byte	0x1
 11448 0fa8 52       		.byte	0x52
 11449 0fa9 10000000 		.4byte	.LVL269
ARM GAS  C:\Users\CNous\AppData\Local\Temp\ccZi7tDD.s 			page 270


 11450 0fad 14000000 		.4byte	.LFE154
 11451 0fb1 0100     		.2byte	0x1
 11452 0fb3 51       		.byte	0x51
 11453 0fb4 00000000 		.4byte	0
 11454 0fb8 00000000 		.4byte	0
 11455              	.LLST81:
 11456 0fbc 00000000 		.4byte	.LVL270
 11457 0fc0 0E000000 		.4byte	.LVL274
 11458 0fc4 0100     		.2byte	0x1
 11459 0fc6 51       		.byte	0x51
 11460 0fc7 0E000000 		.4byte	.LVL274
 11461 0fcb 14000000 		.4byte	.LFE155
 11462 0fcf 0400     		.2byte	0x4
 11463 0fd1 F3       		.byte	0xf3
 11464 0fd2 01       		.uleb128 0x1
 11465 0fd3 51       		.byte	0x51
 11466 0fd4 9F       		.byte	0x9f
 11467 0fd5 00000000 		.4byte	0
 11468 0fd9 00000000 		.4byte	0
 11469              	.LLST82:
 11470 0fdd 00000000 		.4byte	.LVL270
 11471 0fe1 02000000 		.4byte	.LVL271
 11472 0fe5 0200     		.2byte	0x2
 11473 0fe7 30       		.byte	0x30
 11474 0fe8 9F       		.byte	0x9f
 11475 0fe9 02000000 		.4byte	.LVL271
 11476 0fed 08000000 		.4byte	.LVL272
 11477 0ff1 0100     		.2byte	0x1
 11478 0ff3 53       		.byte	0x53
 11479 0ff4 0A000000 		.4byte	.LVL273
 11480 0ff8 10000000 		.4byte	.LVL275
 11481 0ffc 0100     		.2byte	0x1
 11482 0ffe 52       		.byte	0x52
 11483 0fff 10000000 		.4byte	.LVL275
 11484 1003 14000000 		.4byte	.LFE155
 11485 1007 0100     		.2byte	0x1
 11486 1009 51       		.byte	0x51
 11487 100a 00000000 		.4byte	0
 11488 100e 00000000 		.4byte	0
 11489              	.LLST83:
 11490 1012 00000000 		.4byte	.LVL276
 11491 1016 0E000000 		.4byte	.LVL280
 11492 101a 0100     		.2byte	0x1
 11493 101c 51       		.byte	0x51
 11494 101d 0E000000 		.4byte	.LVL280
 11495 1021 14000000 		.4byte	.LFE156
 11496 1025 0400     		.2byte	0x4
 11497 1027 F3       		.byte	0xf3
 11498 1028 01       		.uleb128 0x1
 11499 1029 51       		.byte	0x51
 11500 102a 9F       		.byte	0x9f
 11501 102b 00000000 		.4byte	0
 11502 102f 00000000 		.4byte	0
 11503              	.LLST84:
 11504 1033 00000000 		.4byte	.LVL276
 11505 1037 02000000 		.4byte	.LVL277
 11506 103b 0200     		.2byte	0x2
ARM GAS  C:\Users\CNous\AppData\Local\Temp\ccZi7tDD.s 			page 271


 11507 103d 30       		.byte	0x30
 11508 103e 9F       		.byte	0x9f
 11509 103f 02000000 		.4byte	.LVL277
 11510 1043 08000000 		.4byte	.LVL278
 11511 1047 0100     		.2byte	0x1
 11512 1049 53       		.byte	0x53
 11513 104a 0A000000 		.4byte	.LVL279
 11514 104e 10000000 		.4byte	.LVL281
 11515 1052 0100     		.2byte	0x1
 11516 1054 52       		.byte	0x52
 11517 1055 10000000 		.4byte	.LVL281
 11518 1059 14000000 		.4byte	.LFE156
 11519 105d 0100     		.2byte	0x1
 11520 105f 51       		.byte	0x51
 11521 1060 00000000 		.4byte	0
 11522 1064 00000000 		.4byte	0
 11523              	.LLST85:
 11524 1068 00000000 		.4byte	.LVL282
 11525 106c 0E000000 		.4byte	.LVL286
 11526 1070 0100     		.2byte	0x1
 11527 1072 51       		.byte	0x51
 11528 1073 0E000000 		.4byte	.LVL286
 11529 1077 14000000 		.4byte	.LFE157
 11530 107b 0400     		.2byte	0x4
 11531 107d F3       		.byte	0xf3
 11532 107e 01       		.uleb128 0x1
 11533 107f 51       		.byte	0x51
 11534 1080 9F       		.byte	0x9f
 11535 1081 00000000 		.4byte	0
 11536 1085 00000000 		.4byte	0
 11537              	.LLST86:
 11538 1089 00000000 		.4byte	.LVL282
 11539 108d 02000000 		.4byte	.LVL283
 11540 1091 0200     		.2byte	0x2
 11541 1093 30       		.byte	0x30
 11542 1094 9F       		.byte	0x9f
 11543 1095 02000000 		.4byte	.LVL283
 11544 1099 08000000 		.4byte	.LVL284
 11545 109d 0100     		.2byte	0x1
 11546 109f 53       		.byte	0x53
 11547 10a0 0A000000 		.4byte	.LVL285
 11548 10a4 10000000 		.4byte	.LVL287
 11549 10a8 0100     		.2byte	0x1
 11550 10aa 52       		.byte	0x52
 11551 10ab 10000000 		.4byte	.LVL287
 11552 10af 14000000 		.4byte	.LFE157
 11553 10b3 0100     		.2byte	0x1
 11554 10b5 51       		.byte	0x51
 11555 10b6 00000000 		.4byte	0
 11556 10ba 00000000 		.4byte	0
 11557              	.LLST87:
 11558 10be 00000000 		.4byte	.LFB158
 11559 10c2 02000000 		.4byte	.LCFI7
 11560 10c6 0200     		.2byte	0x2
 11561 10c8 7D       		.byte	0x7d
 11562 10c9 00       		.sleb128 0
 11563 10ca 02000000 		.4byte	.LCFI7
ARM GAS  C:\Users\CNous\AppData\Local\Temp\ccZi7tDD.s 			page 272


 11564 10ce 24000000 		.4byte	.LFE158
 11565 10d2 0200     		.2byte	0x2
 11566 10d4 7D       		.byte	0x7d
 11567 10d5 04       		.sleb128 4
 11568 10d6 00000000 		.4byte	0
 11569 10da 00000000 		.4byte	0
 11570              	.LLST88:
 11571 10de 00000000 		.4byte	.LVL288
 11572 10e2 1C000000 		.4byte	.LVL290
 11573 10e6 0100     		.2byte	0x1
 11574 10e8 51       		.byte	0x51
 11575 10e9 1C000000 		.4byte	.LVL290
 11576 10ed 24000000 		.4byte	.LFE158
 11577 10f1 0400     		.2byte	0x4
 11578 10f3 F3       		.byte	0xf3
 11579 10f4 01       		.uleb128 0x1
 11580 10f5 51       		.byte	0x51
 11581 10f6 9F       		.byte	0x9f
 11582 10f7 00000000 		.4byte	0
 11583 10fb 00000000 		.4byte	0
 11584              	.LLST89:
 11585 10ff 00000000 		.4byte	.LVL288
 11586 1103 18000000 		.4byte	.LVL289
 11587 1107 0100     		.2byte	0x1
 11588 1109 52       		.byte	0x52
 11589 110a 18000000 		.4byte	.LVL289
 11590 110e 24000000 		.4byte	.LFE158
 11591 1112 0400     		.2byte	0x4
 11592 1114 F3       		.byte	0xf3
 11593 1115 01       		.uleb128 0x1
 11594 1116 52       		.byte	0x52
 11595 1117 9F       		.byte	0x9f
 11596 1118 00000000 		.4byte	0
 11597 111c 00000000 		.4byte	0
 11598              	.LLST90:
 11599 1120 00000000 		.4byte	.LFB159
 11600 1124 02000000 		.4byte	.LCFI8
 11601 1128 0200     		.2byte	0x2
 11602 112a 7D       		.byte	0x7d
 11603 112b 00       		.sleb128 0
 11604 112c 02000000 		.4byte	.LCFI8
 11605 1130 24000000 		.4byte	.LFE159
 11606 1134 0200     		.2byte	0x2
 11607 1136 7D       		.byte	0x7d
 11608 1137 04       		.sleb128 4
 11609 1138 00000000 		.4byte	0
 11610 113c 00000000 		.4byte	0
 11611              	.LLST91:
 11612 1140 00000000 		.4byte	.LVL291
 11613 1144 1C000000 		.4byte	.LVL293
 11614 1148 0100     		.2byte	0x1
 11615 114a 51       		.byte	0x51
 11616 114b 1C000000 		.4byte	.LVL293
 11617 114f 24000000 		.4byte	.LFE159
 11618 1153 0400     		.2byte	0x4
 11619 1155 F3       		.byte	0xf3
 11620 1156 01       		.uleb128 0x1
ARM GAS  C:\Users\CNous\AppData\Local\Temp\ccZi7tDD.s 			page 273


 11621 1157 51       		.byte	0x51
 11622 1158 9F       		.byte	0x9f
 11623 1159 00000000 		.4byte	0
 11624 115d 00000000 		.4byte	0
 11625              	.LLST92:
 11626 1161 00000000 		.4byte	.LVL291
 11627 1165 18000000 		.4byte	.LVL292
 11628 1169 0100     		.2byte	0x1
 11629 116b 52       		.byte	0x52
 11630 116c 18000000 		.4byte	.LVL292
 11631 1170 24000000 		.4byte	.LFE159
 11632 1174 0400     		.2byte	0x4
 11633 1176 F3       		.byte	0xf3
 11634 1177 01       		.uleb128 0x1
 11635 1178 52       		.byte	0x52
 11636 1179 9F       		.byte	0x9f
 11637 117a 00000000 		.4byte	0
 11638 117e 00000000 		.4byte	0
 11639              	.LLST93:
 11640 1182 00000000 		.4byte	.LFB160
 11641 1186 04000000 		.4byte	.LCFI9
 11642 118a 0200     		.2byte	0x2
 11643 118c 7D       		.byte	0x7d
 11644 118d 00       		.sleb128 0
 11645 118e 04000000 		.4byte	.LCFI9
 11646 1192 6A010000 		.4byte	.LFE160
 11647 1196 0200     		.2byte	0x2
 11648 1198 7D       		.byte	0x7d
 11649 1199 10       		.sleb128 16
 11650 119a 00000000 		.4byte	0
 11651 119e 00000000 		.4byte	0
 11652              	.LLST94:
 11653 11a2 00000000 		.4byte	.LVL294
 11654 11a6 20000000 		.4byte	.LVL296
 11655 11aa 0100     		.2byte	0x1
 11656 11ac 51       		.byte	0x51
 11657 11ad 20000000 		.4byte	.LVL296
 11658 11b1 6E000000 		.4byte	.LVL309
 11659 11b5 0400     		.2byte	0x4
 11660 11b7 F3       		.byte	0xf3
 11661 11b8 01       		.uleb128 0x1
 11662 11b9 51       		.byte	0x51
 11663 11ba 9F       		.byte	0x9f
 11664 11bb 6E000000 		.4byte	.LVL309
 11665 11bf 7C000000 		.4byte	.LVL311
 11666 11c3 0100     		.2byte	0x1
 11667 11c5 51       		.byte	0x51
 11668 11c6 7C000000 		.4byte	.LVL311
 11669 11ca BE000000 		.4byte	.LVL319
 11670 11ce 0400     		.2byte	0x4
 11671 11d0 F3       		.byte	0xf3
 11672 11d1 01       		.uleb128 0x1
 11673 11d2 51       		.byte	0x51
 11674 11d3 9F       		.byte	0x9f
 11675 11d4 BE000000 		.4byte	.LVL319
 11676 11d8 CC000000 		.4byte	.LVL321
 11677 11dc 0100     		.2byte	0x1
ARM GAS  C:\Users\CNous\AppData\Local\Temp\ccZi7tDD.s 			page 274


 11678 11de 51       		.byte	0x51
 11679 11df CC000000 		.4byte	.LVL321
 11680 11e3 1A010000 		.4byte	.LVL334
 11681 11e7 0400     		.2byte	0x4
 11682 11e9 F3       		.byte	0xf3
 11683 11ea 01       		.uleb128 0x1
 11684 11eb 51       		.byte	0x51
 11685 11ec 9F       		.byte	0x9f
 11686 11ed 1A010000 		.4byte	.LVL334
 11687 11f1 28010000 		.4byte	.LVL336
 11688 11f5 0100     		.2byte	0x1
 11689 11f7 51       		.byte	0x51
 11690 11f8 28010000 		.4byte	.LVL336
 11691 11fc 6A010000 		.4byte	.LFE160
 11692 1200 0400     		.2byte	0x4
 11693 1202 F3       		.byte	0xf3
 11694 1203 01       		.uleb128 0x1
 11695 1204 51       		.byte	0x51
 11696 1205 9F       		.byte	0x9f
 11697 1206 00000000 		.4byte	0
 11698 120a 00000000 		.4byte	0
 11699              	.LLST95:
 11700 120e 24010000 		.4byte	.LVL335
 11701 1212 28010000 		.4byte	.LVL336
 11702 1216 0200     		.2byte	0x2
 11703 1218 71       		.byte	0x71
 11704 1219 08       		.sleb128 8
 11705 121a 28010000 		.4byte	.LVL336
 11706 121e 6A010000 		.4byte	.LFE160
 11707 1222 0500     		.2byte	0x5
 11708 1224 F3       		.byte	0xf3
 11709 1225 01       		.uleb128 0x1
 11710 1226 51       		.byte	0x51
 11711 1227 23       		.byte	0x23
 11712 1228 08       		.uleb128 0x8
 11713 1229 00000000 		.4byte	0
 11714 122d 00000000 		.4byte	0
 11715              	.LLST96:
 11716 1231 24010000 		.4byte	.LVL335
 11717 1235 28010000 		.4byte	.LVL336
 11718 1239 0200     		.2byte	0x2
 11719 123b 71       		.byte	0x71
 11720 123c 04       		.sleb128 4
 11721 123d 28010000 		.4byte	.LVL336
 11722 1241 6A010000 		.4byte	.LFE160
 11723 1245 0500     		.2byte	0x5
 11724 1247 F3       		.byte	0xf3
 11725 1248 01       		.uleb128 0x1
 11726 1249 51       		.byte	0x51
 11727 124a 23       		.byte	0x23
 11728 124b 04       		.uleb128 0x4
 11729 124c 00000000 		.4byte	0
 11730 1250 00000000 		.4byte	0
 11731              	.LLST97:
 11732 1254 24010000 		.4byte	.LVL335
 11733 1258 2C010000 		.4byte	.LVL337
 11734 125c 0200     		.2byte	0x2
ARM GAS  C:\Users\CNous\AppData\Local\Temp\ccZi7tDD.s 			page 275


 11735 125e 30       		.byte	0x30
 11736 125f 9F       		.byte	0x9f
 11737 1260 2C010000 		.4byte	.LVL337
 11738 1264 2E010000 		.4byte	.LVL338
 11739 1268 0100     		.2byte	0x1
 11740 126a 52       		.byte	0x52
 11741 126b 2E010000 		.4byte	.LVL338
 11742 126f 38010000 		.4byte	.LVL340
 11743 1273 0700     		.2byte	0x7
 11744 1275 72       		.byte	0x72
 11745 1276 00       		.sleb128 0
 11746 1277 0B       		.byte	0xb
 11747 1278 0CFF     		.2byte	0xff0c
 11748 127a 1A       		.byte	0x1a
 11749 127b 9F       		.byte	0x9f
 11750 127c 50010000 		.4byte	.LVL341
 11751 1280 56010000 		.4byte	.LVL342
 11752 1284 0100     		.2byte	0x1
 11753 1286 52       		.byte	0x52
 11754 1287 00000000 		.4byte	0
 11755 128b 00000000 		.4byte	0
 11756              	.LLST98:
 11757 128f 24010000 		.4byte	.LVL335
 11758 1293 2E010000 		.4byte	.LVL338
 11759 1297 0200     		.2byte	0x2
 11760 1299 30       		.byte	0x30
 11761 129a 9F       		.byte	0x9f
 11762 129b 2E010000 		.4byte	.LVL338
 11763 129f 36010000 		.4byte	.LVL339
 11764 12a3 0100     		.2byte	0x1
 11765 12a5 53       		.byte	0x53
 11766 12a6 50010000 		.4byte	.LVL341
 11767 12aa 5C010000 		.4byte	.LVL343
 11768 12ae 0100     		.2byte	0x1
 11769 12b0 53       		.byte	0x53
 11770 12b1 00000000 		.4byte	0
 11771 12b5 00000000 		.4byte	0
 11772              	.LLST99:
 11773 12b9 24010000 		.4byte	.LVL335
 11774 12bd 2E010000 		.4byte	.LVL338
 11775 12c1 0200     		.2byte	0x2
 11776 12c3 30       		.byte	0x30
 11777 12c4 9F       		.byte	0x9f
 11778 12c5 2E010000 		.4byte	.LVL338
 11779 12c9 6A010000 		.4byte	.LFE160
 11780 12cd 0500     		.2byte	0x5
 11781 12cf 76       		.byte	0x76
 11782 12d0 00       		.sleb128 0
 11783 12d1 38       		.byte	0x38
 11784 12d2 24       		.byte	0x24
 11785 12d3 9F       		.byte	0x9f
 11786 12d4 00000000 		.4byte	0
 11787 12d8 00000000 		.4byte	0
 11788              	.LLST100:
 11789 12dc 1A000000 		.4byte	.LVL295
 11790 12e0 20000000 		.4byte	.LVL296
 11791 12e4 0200     		.2byte	0x2
ARM GAS  C:\Users\CNous\AppData\Local\Temp\ccZi7tDD.s 			page 276


 11792 12e6 71       		.byte	0x71
 11793 12e7 08       		.sleb128 8
 11794 12e8 20000000 		.4byte	.LVL296
 11795 12ec 6A000000 		.4byte	.LVL308
 11796 12f0 0500     		.2byte	0x5
 11797 12f2 F3       		.byte	0xf3
 11798 12f3 01       		.uleb128 0x1
 11799 12f4 51       		.byte	0x51
 11800 12f5 23       		.byte	0x23
 11801 12f6 08       		.uleb128 0x8
 11802 12f7 00000000 		.4byte	0
 11803 12fb 00000000 		.4byte	0
 11804              	.LLST101:
 11805 12ff 1A000000 		.4byte	.LVL295
 11806 1303 20000000 		.4byte	.LVL296
 11807 1307 0200     		.2byte	0x2
 11808 1309 71       		.byte	0x71
 11809 130a 04       		.sleb128 4
 11810 130b 20000000 		.4byte	.LVL296
 11811 130f 6A000000 		.4byte	.LVL308
 11812 1313 0500     		.2byte	0x5
 11813 1315 F3       		.byte	0xf3
 11814 1316 01       		.uleb128 0x1
 11815 1317 51       		.byte	0x51
 11816 1318 23       		.byte	0x23
 11817 1319 04       		.uleb128 0x4
 11818 131a 00000000 		.4byte	0
 11819 131e 00000000 		.4byte	0
 11820              	.LLST102:
 11821 1322 1A000000 		.4byte	.LVL295
 11822 1326 20000000 		.4byte	.LVL296
 11823 132a 0200     		.2byte	0x2
 11824 132c 71       		.byte	0x71
 11825 132d 02       		.sleb128 2
 11826 132e 20000000 		.4byte	.LVL296
 11827 1332 6A000000 		.4byte	.LVL308
 11828 1336 0500     		.2byte	0x5
 11829 1338 F3       		.byte	0xf3
 11830 1339 01       		.uleb128 0x1
 11831 133a 51       		.byte	0x51
 11832 133b 23       		.byte	0x23
 11833 133c 02       		.uleb128 0x2
 11834 133d 00000000 		.4byte	0
 11835 1341 00000000 		.4byte	0
 11836              	.LLST103:
 11837 1345 1A000000 		.4byte	.LVL295
 11838 1349 6A000000 		.4byte	.LVL308
 11839 134d 0100     		.2byte	0x1
 11840 134f 50       		.byte	0x50
 11841 1350 00000000 		.4byte	0
 11842 1354 00000000 		.4byte	0
 11843              	.LLST104:
 11844 1358 1A000000 		.4byte	.LVL295
 11845 135c 28000000 		.4byte	.LVL297
 11846 1360 0200     		.2byte	0x2
 11847 1362 30       		.byte	0x30
 11848 1363 9F       		.byte	0x9f
ARM GAS  C:\Users\CNous\AppData\Local\Temp\ccZi7tDD.s 			page 277


 11849 1364 28000000 		.4byte	.LVL297
 11850 1368 32000000 		.4byte	.LVL299
 11851 136c 0100     		.2byte	0x1
 11852 136e 51       		.byte	0x51
 11853 136f 3A000000 		.4byte	.LVL301
 11854 1373 3E000000 		.4byte	.LVL302
 11855 1377 0100     		.2byte	0x1
 11856 1379 51       		.byte	0x51
 11857 137a 3E000000 		.4byte	.LVL302
 11858 137e 48000000 		.4byte	.LVL303
 11859 1382 0100     		.2byte	0x1
 11860 1384 52       		.byte	0x52
 11861 1385 4A000000 		.4byte	.LVL304
 11862 1389 4E000000 		.4byte	.LVL305
 11863 138d 0100     		.2byte	0x1
 11864 138f 52       		.byte	0x52
 11865 1390 4E000000 		.4byte	.LVL305
 11866 1394 58000000 		.4byte	.LVL306
 11867 1398 0100     		.2byte	0x1
 11868 139a 51       		.byte	0x51
 11869 139b 00000000 		.4byte	0
 11870 139f 00000000 		.4byte	0
 11871              	.LLST105:
 11872 13a3 1A000000 		.4byte	.LVL295
 11873 13a7 2A000000 		.4byte	.LVL298
 11874 13ab 0200     		.2byte	0x2
 11875 13ad 30       		.byte	0x30
 11876 13ae 9F       		.byte	0x9f
 11877 13af 2A000000 		.4byte	.LVL298
 11878 13b3 36000000 		.4byte	.LVL300
 11879 13b7 0100     		.2byte	0x1
 11880 13b9 53       		.byte	0x53
 11881 13ba 4E000000 		.4byte	.LVL305
 11882 13be 5A000000 		.4byte	.LVL307
 11883 13c2 0100     		.2byte	0x1
 11884 13c4 52       		.byte	0x52
 11885 13c5 00000000 		.4byte	0
 11886 13c9 00000000 		.4byte	0
 11887              	.LLST106:
 11888 13cd 1A000000 		.4byte	.LVL295
 11889 13d1 2A000000 		.4byte	.LVL298
 11890 13d5 0200     		.2byte	0x2
 11891 13d7 30       		.byte	0x30
 11892 13d8 9F       		.byte	0x9f
 11893 13d9 2A000000 		.4byte	.LVL298
 11894 13dd 6A000000 		.4byte	.LVL308
 11895 13e1 0500     		.2byte	0x5
 11896 13e3 76       		.byte	0x76
 11897 13e4 00       		.sleb128 0
 11898 13e5 3C       		.byte	0x3c
 11899 13e6 24       		.byte	0x24
 11900 13e7 9F       		.byte	0x9f
 11901 13e8 00000000 		.4byte	0
 11902 13ec 00000000 		.4byte	0
 11903              	.LLST107:
 11904 13f0 4E000000 		.4byte	.LVL305
 11905 13f4 6A000000 		.4byte	.LVL308
ARM GAS  C:\Users\CNous\AppData\Local\Temp\ccZi7tDD.s 			page 278


 11906 13f8 0500     		.2byte	0x5
 11907 13fa F3       		.byte	0xf3
 11908 13fb 01       		.uleb128 0x1
 11909 13fc 51       		.byte	0x51
 11910 13fd 23       		.byte	0x23
 11911 13fe 06       		.uleb128 0x6
 11912 13ff 00000000 		.4byte	0
 11913 1403 00000000 		.4byte	0
 11914              	.LLST108:
 11915 1407 4E000000 		.4byte	.LVL305
 11916 140b 6A000000 		.4byte	.LVL308
 11917 140f 0100     		.2byte	0x1
 11918 1411 50       		.byte	0x50
 11919 1412 00000000 		.4byte	0
 11920 1416 00000000 		.4byte	0
 11921              	.LLST109:
 11922 141a 76000000 		.4byte	.LVL310
 11923 141e 7C000000 		.4byte	.LVL311
 11924 1422 0200     		.2byte	0x2
 11925 1424 71       		.byte	0x71
 11926 1425 08       		.sleb128 8
 11927 1426 7C000000 		.4byte	.LVL311
 11928 142a BE000000 		.4byte	.LVL319
 11929 142e 0500     		.2byte	0x5
 11930 1430 F3       		.byte	0xf3
 11931 1431 01       		.uleb128 0x1
 11932 1432 51       		.byte	0x51
 11933 1433 23       		.byte	0x23
 11934 1434 08       		.uleb128 0x8
 11935 1435 00000000 		.4byte	0
 11936 1439 00000000 		.4byte	0
 11937              	.LLST110:
 11938 143d 76000000 		.4byte	.LVL310
 11939 1441 7C000000 		.4byte	.LVL311
 11940 1445 0200     		.2byte	0x2
 11941 1447 71       		.byte	0x71
 11942 1448 04       		.sleb128 4
 11943 1449 7C000000 		.4byte	.LVL311
 11944 144d BE000000 		.4byte	.LVL319
 11945 1451 0500     		.2byte	0x5
 11946 1453 F3       		.byte	0xf3
 11947 1454 01       		.uleb128 0x1
 11948 1455 51       		.byte	0x51
 11949 1456 23       		.byte	0x23
 11950 1457 04       		.uleb128 0x4
 11951 1458 00000000 		.4byte	0
 11952 145c 00000000 		.4byte	0
 11953              	.LLST111:
 11954 1460 76000000 		.4byte	.LVL310
 11955 1464 7C000000 		.4byte	.LVL311
 11956 1468 0200     		.2byte	0x2
 11957 146a 71       		.byte	0x71
 11958 146b 02       		.sleb128 2
 11959 146c 7C000000 		.4byte	.LVL311
 11960 1470 BE000000 		.4byte	.LVL319
 11961 1474 0500     		.2byte	0x5
 11962 1476 F3       		.byte	0xf3
ARM GAS  C:\Users\CNous\AppData\Local\Temp\ccZi7tDD.s 			page 279


 11963 1477 01       		.uleb128 0x1
 11964 1478 51       		.byte	0x51
 11965 1479 23       		.byte	0x23
 11966 147a 02       		.uleb128 0x2
 11967 147b 00000000 		.4byte	0
 11968 147f 00000000 		.4byte	0
 11969              	.LLST112:
 11970 1483 76000000 		.4byte	.LVL310
 11971 1487 BE000000 		.4byte	.LVL319
 11972 148b 0100     		.2byte	0x1
 11973 148d 50       		.byte	0x50
 11974 148e 00000000 		.4byte	0
 11975 1492 00000000 		.4byte	0
 11976              	.LLST113:
 11977 1496 76000000 		.4byte	.LVL310
 11978 149a 84000000 		.4byte	.LVL312
 11979 149e 0200     		.2byte	0x2
 11980 14a0 30       		.byte	0x30
 11981 14a1 9F       		.byte	0x9f
 11982 14a2 84000000 		.4byte	.LVL312
 11983 14a6 86000000 		.4byte	.LVL313
 11984 14aa 0100     		.2byte	0x1
 11985 14ac 51       		.byte	0x51
 11986 14ad 86000000 		.4byte	.LVL313
 11987 14b1 8C000000 		.4byte	.LVL314
 11988 14b5 0700     		.2byte	0x7
 11989 14b7 71       		.byte	0x71
 11990 14b8 00       		.sleb128 0
 11991 14b9 0B       		.byte	0xb
 11992 14ba 0CFF     		.2byte	0xff0c
 11993 14bc 1A       		.byte	0x1a
 11994 14bd 9F       		.byte	0x9f
 11995 14be A4000000 		.4byte	.LVL316
 11996 14c2 AA000000 		.4byte	.LVL317
 11997 14c6 0100     		.2byte	0x1
 11998 14c8 52       		.byte	0x52
 11999 14c9 00000000 		.4byte	0
 12000 14cd 00000000 		.4byte	0
 12001              	.LLST114:
 12002 14d1 76000000 		.4byte	.LVL310
 12003 14d5 86000000 		.4byte	.LVL313
 12004 14d9 0200     		.2byte	0x2
 12005 14db 30       		.byte	0x30
 12006 14dc 9F       		.byte	0x9f
 12007 14dd 86000000 		.4byte	.LVL313
 12008 14e1 92000000 		.4byte	.LVL315
 12009 14e5 0100     		.2byte	0x1
 12010 14e7 53       		.byte	0x53
 12011 14e8 A4000000 		.4byte	.LVL316
 12012 14ec AE000000 		.4byte	.LVL318
 12013 14f0 0100     		.2byte	0x1
 12014 14f2 53       		.byte	0x53
 12015 14f3 00000000 		.4byte	0
 12016 14f7 00000000 		.4byte	0
 12017              	.LLST115:
 12018 14fb A4000000 		.4byte	.LVL316
 12019 14ff BE000000 		.4byte	.LVL319
ARM GAS  C:\Users\CNous\AppData\Local\Temp\ccZi7tDD.s 			page 280


 12020 1503 0500     		.2byte	0x5
 12021 1505 F3       		.byte	0xf3
 12022 1506 01       		.uleb128 0x1
 12023 1507 51       		.byte	0x51
 12024 1508 23       		.byte	0x23
 12025 1509 06       		.uleb128 0x6
 12026 150a 00000000 		.4byte	0
 12027 150e 00000000 		.4byte	0
 12028              	.LLST116:
 12029 1512 A4000000 		.4byte	.LVL316
 12030 1516 BE000000 		.4byte	.LVL319
 12031 151a 0100     		.2byte	0x1
 12032 151c 50       		.byte	0x50
 12033 151d 00000000 		.4byte	0
 12034 1521 00000000 		.4byte	0
 12035              	.LLST117:
 12036 1525 C6000000 		.4byte	.LVL320
 12037 1529 CC000000 		.4byte	.LVL321
 12038 152d 0200     		.2byte	0x2
 12039 152f 71       		.byte	0x71
 12040 1530 08       		.sleb128 8
 12041 1531 CC000000 		.4byte	.LVL321
 12042 1535 1A010000 		.4byte	.LVL334
 12043 1539 0500     		.2byte	0x5
 12044 153b F3       		.byte	0xf3
 12045 153c 01       		.uleb128 0x1
 12046 153d 51       		.byte	0x51
 12047 153e 23       		.byte	0x23
 12048 153f 08       		.uleb128 0x8
 12049 1540 00000000 		.4byte	0
 12050 1544 00000000 		.4byte	0
 12051              	.LLST118:
 12052 1548 C6000000 		.4byte	.LVL320
 12053 154c CC000000 		.4byte	.LVL321
 12054 1550 0200     		.2byte	0x2
 12055 1552 71       		.byte	0x71
 12056 1553 04       		.sleb128 4
 12057 1554 CC000000 		.4byte	.LVL321
 12058 1558 1A010000 		.4byte	.LVL334
 12059 155c 0500     		.2byte	0x5
 12060 155e F3       		.byte	0xf3
 12061 155f 01       		.uleb128 0x1
 12062 1560 51       		.byte	0x51
 12063 1561 23       		.byte	0x23
 12064 1562 04       		.uleb128 0x4
 12065 1563 00000000 		.4byte	0
 12066 1567 00000000 		.4byte	0
 12067              	.LLST119:
 12068 156b C6000000 		.4byte	.LVL320
 12069 156f CC000000 		.4byte	.LVL321
 12070 1573 0200     		.2byte	0x2
 12071 1575 71       		.byte	0x71
 12072 1576 02       		.sleb128 2
 12073 1577 CC000000 		.4byte	.LVL321
 12074 157b 1A010000 		.4byte	.LVL334
 12075 157f 0500     		.2byte	0x5
 12076 1581 F3       		.byte	0xf3
ARM GAS  C:\Users\CNous\AppData\Local\Temp\ccZi7tDD.s 			page 281


 12077 1582 01       		.uleb128 0x1
 12078 1583 51       		.byte	0x51
 12079 1584 23       		.byte	0x23
 12080 1585 02       		.uleb128 0x2
 12081 1586 00000000 		.4byte	0
 12082 158a 00000000 		.4byte	0
 12083              	.LLST120:
 12084 158e C6000000 		.4byte	.LVL320
 12085 1592 1A010000 		.4byte	.LVL334
 12086 1596 0100     		.2byte	0x1
 12087 1598 50       		.byte	0x50
 12088 1599 00000000 		.4byte	0
 12089 159d 00000000 		.4byte	0
 12090              	.LLST121:
 12091 15a1 C6000000 		.4byte	.LVL320
 12092 15a5 D4000000 		.4byte	.LVL322
 12093 15a9 0200     		.2byte	0x2
 12094 15ab 30       		.byte	0x30
 12095 15ac 9F       		.byte	0x9f
 12096 15ad D4000000 		.4byte	.LVL322
 12097 15b1 DC000000 		.4byte	.LVL324
 12098 15b5 0100     		.2byte	0x1
 12099 15b7 51       		.byte	0x51
 12100 15b8 E2000000 		.4byte	.LVL326
 12101 15bc E8000000 		.4byte	.LVL327
 12102 15c0 0100     		.2byte	0x1
 12103 15c2 52       		.byte	0x52
 12104 15c3 F0000000 		.4byte	.LVL328
 12105 15c7 F4000000 		.4byte	.LVL329
 12106 15cb 0100     		.2byte	0x1
 12107 15cd 52       		.byte	0x52
 12108 15ce F4000000 		.4byte	.LVL329
 12109 15d2 F6000000 		.4byte	.LVL330
 12110 15d6 0100     		.2byte	0x1
 12111 15d8 51       		.byte	0x51
 12112 15d9 FC000000 		.4byte	.LVL331
 12113 15dd 06010000 		.4byte	.LVL332
 12114 15e1 0100     		.2byte	0x1
 12115 15e3 52       		.byte	0x52
 12116 15e4 00000000 		.4byte	0
 12117 15e8 00000000 		.4byte	0
 12118              	.LLST122:
 12119 15ec C6000000 		.4byte	.LVL320
 12120 15f0 D6000000 		.4byte	.LVL323
 12121 15f4 0200     		.2byte	0x2
 12122 15f6 30       		.byte	0x30
 12123 15f7 9F       		.byte	0x9f
 12124 15f8 D6000000 		.4byte	.LVL323
 12125 15fc E0000000 		.4byte	.LVL325
 12126 1600 0100     		.2byte	0x1
 12127 1602 53       		.byte	0x53
 12128 1603 FC000000 		.4byte	.LVL331
 12129 1607 08010000 		.4byte	.LVL333
 12130 160b 0100     		.2byte	0x1
 12131 160d 53       		.byte	0x53
 12132 160e 00000000 		.4byte	0
 12133 1612 00000000 		.4byte	0
ARM GAS  C:\Users\CNous\AppData\Local\Temp\ccZi7tDD.s 			page 282


 12134              	.LLST123:
 12135 1616 C6000000 		.4byte	.LVL320
 12136 161a D6000000 		.4byte	.LVL323
 12137 161e 0200     		.2byte	0x2
 12138 1620 30       		.byte	0x30
 12139 1621 9F       		.byte	0x9f
 12140 1622 D6000000 		.4byte	.LVL323
 12141 1626 1A010000 		.4byte	.LVL334
 12142 162a 0500     		.2byte	0x5
 12143 162c 76       		.byte	0x76
 12144 162d 00       		.sleb128 0
 12145 162e 34       		.byte	0x34
 12146 162f 24       		.byte	0x24
 12147 1630 9F       		.byte	0x9f
 12148 1631 00000000 		.4byte	0
 12149 1635 00000000 		.4byte	0
 12150              	.LLST124:
 12151 1639 FC000000 		.4byte	.LVL331
 12152 163d 1A010000 		.4byte	.LVL334
 12153 1641 0500     		.2byte	0x5
 12154 1643 F3       		.byte	0xf3
 12155 1644 01       		.uleb128 0x1
 12156 1645 51       		.byte	0x51
 12157 1646 23       		.byte	0x23
 12158 1647 06       		.uleb128 0x6
 12159 1648 00000000 		.4byte	0
 12160 164c 00000000 		.4byte	0
 12161              	.LLST125:
 12162 1650 FC000000 		.4byte	.LVL331
 12163 1654 1A010000 		.4byte	.LVL334
 12164 1658 0100     		.2byte	0x1
 12165 165a 50       		.byte	0x50
 12166 165b 00000000 		.4byte	0
 12167 165f 00000000 		.4byte	0
 12168              	.LLST126:
 12169 1663 00000000 		.4byte	.LFB162
 12170 1667 04000000 		.4byte	.LCFI10
 12171 166b 0200     		.2byte	0x2
 12172 166d 7D       		.byte	0x7d
 12173 166e 00       		.sleb128 0
 12174 166f 04000000 		.4byte	.LCFI10
 12175 1673 64010000 		.4byte	.LFE162
 12176 1677 0200     		.2byte	0x2
 12177 1679 7D       		.byte	0x7d
 12178 167a 14       		.sleb128 20
 12179 167b 00000000 		.4byte	0
 12180 167f 00000000 		.4byte	0
 12181              	.LLST127:
 12182 1683 00000000 		.4byte	.LVL345
 12183 1687 2C000000 		.4byte	.LVL349
 12184 168b 0100     		.2byte	0x1
 12185 168d 51       		.byte	0x51
 12186 168e 2C000000 		.4byte	.LVL349
 12187 1692 C8000000 		.4byte	.LVL370
 12188 1696 0400     		.2byte	0x4
 12189 1698 F3       		.byte	0xf3
 12190 1699 01       		.uleb128 0x1
ARM GAS  C:\Users\CNous\AppData\Local\Temp\ccZi7tDD.s 			page 283


 12191 169a 51       		.byte	0x51
 12192 169b 9F       		.byte	0x9f
 12193 169c C8000000 		.4byte	.LVL370
 12194 16a0 D4000000 		.4byte	.LVL372
 12195 16a4 0100     		.2byte	0x1
 12196 16a6 51       		.byte	0x51
 12197 16a7 D4000000 		.4byte	.LVL372
 12198 16ab 64010000 		.4byte	.LFE162
 12199 16af 0400     		.2byte	0x4
 12200 16b1 F3       		.byte	0xf3
 12201 16b2 01       		.uleb128 0x1
 12202 16b3 51       		.byte	0x51
 12203 16b4 9F       		.byte	0x9f
 12204 16b5 00000000 		.4byte	0
 12205 16b9 00000000 		.4byte	0
 12206              	.LLST128:
 12207 16bd 00000000 		.4byte	.LVL345
 12208 16c1 12000000 		.4byte	.LVL346
 12209 16c5 0200     		.2byte	0x2
 12210 16c7 30       		.byte	0x30
 12211 16c8 9F       		.byte	0x9f
 12212 16c9 12000000 		.4byte	.LVL346
 12213 16cd A6000000 		.4byte	.LVL367
 12214 16d1 0100     		.2byte	0x1
 12215 16d3 56       		.byte	0x56
 12216 16d4 A6000000 		.4byte	.LVL367
 12217 16d8 C8000000 		.4byte	.LVL370
 12218 16dc 1500     		.2byte	0x15
 12219 16de 32       		.byte	0x32
 12220 16df 30       		.byte	0x30
 12221 16e0 F3       		.byte	0xf3
 12222 16e1 01       		.uleb128 0x1
 12223 16e2 51       		.byte	0x51
 12224 16e3 23       		.byte	0x23
 12225 16e4 02       		.uleb128 0x2
 12226 16e5 94       		.byte	0x94
 12227 16e6 02       		.byte	0x2
 12228 16e7 0A       		.byte	0xa
 12229 16e8 FFFF     		.2byte	0xffff
 12230 16ea 1A       		.byte	0x1a
 12231 16eb 30       		.byte	0x30
 12232 16ec 29       		.byte	0x29
 12233 16ed 28       		.byte	0x28
 12234 16ee 0100     		.2byte	0x1
 12235 16f0 16       		.byte	0x16
 12236 16f1 13       		.byte	0x13
 12237 16f2 9F       		.byte	0x9f
 12238 16f3 C8000000 		.4byte	.LVL370
 12239 16f7 46010000 		.4byte	.LVL390
 12240 16fb 0100     		.2byte	0x1
 12241 16fd 56       		.byte	0x56
 12242 16fe 46010000 		.4byte	.LVL390
 12243 1702 64010000 		.4byte	.LFE162
 12244 1706 1500     		.2byte	0x15
 12245 1708 32       		.byte	0x32
 12246 1709 30       		.byte	0x30
 12247 170a F3       		.byte	0xf3
ARM GAS  C:\Users\CNous\AppData\Local\Temp\ccZi7tDD.s 			page 284


 12248 170b 01       		.uleb128 0x1
 12249 170c 51       		.byte	0x51
 12250 170d 23       		.byte	0x23
 12251 170e 02       		.uleb128 0x2
 12252 170f 94       		.byte	0x94
 12253 1710 02       		.byte	0x2
 12254 1711 0A       		.byte	0xa
 12255 1712 FFFF     		.2byte	0xffff
 12256 1714 1A       		.byte	0x1a
 12257 1715 30       		.byte	0x30
 12258 1716 29       		.byte	0x29
 12259 1717 28       		.byte	0x28
 12260 1718 0100     		.2byte	0x1
 12261 171a 16       		.byte	0x16
 12262 171b 13       		.byte	0x13
 12263 171c 9F       		.byte	0x9f
 12264 171d 00000000 		.4byte	0
 12265 1721 00000000 		.4byte	0
 12266              	.LLST129:
 12267 1725 00000000 		.4byte	.LVL345
 12268 1729 1A000000 		.4byte	.LVL347
 12269 172d 0200     		.2byte	0x2
 12270 172f 31       		.byte	0x31
 12271 1730 9F       		.byte	0x9f
 12272 1731 1A000000 		.4byte	.LVL347
 12273 1735 A4000000 		.4byte	.LVL366
 12274 1739 0100     		.2byte	0x1
 12275 173b 57       		.byte	0x57
 12276 173c A4000000 		.4byte	.LVL366
 12277 1740 C8000000 		.4byte	.LVL370
 12278 1744 1500     		.2byte	0x15
 12279 1746 31       		.byte	0x31
 12280 1747 32       		.byte	0x32
 12281 1748 F3       		.byte	0xf3
 12282 1749 01       		.uleb128 0x1
 12283 174a 51       		.byte	0x51
 12284 174b 23       		.byte	0x23
 12285 174c 04       		.uleb128 0x4
 12286 174d 94       		.byte	0x94
 12287 174e 02       		.byte	0x2
 12288 174f 0A       		.byte	0xa
 12289 1750 FFFF     		.2byte	0xffff
 12290 1752 1A       		.byte	0x1a
 12291 1753 31       		.byte	0x31
 12292 1754 2E       		.byte	0x2e
 12293 1755 28       		.byte	0x28
 12294 1756 0100     		.2byte	0x1
 12295 1758 16       		.byte	0x16
 12296 1759 13       		.byte	0x13
 12297 175a 9F       		.byte	0x9f
 12298 175b C8000000 		.4byte	.LVL370
 12299 175f 42010000 		.4byte	.LVL389
 12300 1763 0100     		.2byte	0x1
 12301 1765 57       		.byte	0x57
 12302 1766 42010000 		.4byte	.LVL389
 12303 176a 64010000 		.4byte	.LFE162
 12304 176e 1500     		.2byte	0x15
ARM GAS  C:\Users\CNous\AppData\Local\Temp\ccZi7tDD.s 			page 285


 12305 1770 31       		.byte	0x31
 12306 1771 32       		.byte	0x32
 12307 1772 F3       		.byte	0xf3
 12308 1773 01       		.uleb128 0x1
 12309 1774 51       		.byte	0x51
 12310 1775 23       		.byte	0x23
 12311 1776 04       		.uleb128 0x4
 12312 1777 94       		.byte	0x94
 12313 1778 02       		.byte	0x2
 12314 1779 0A       		.byte	0xa
 12315 177a FFFF     		.2byte	0xffff
 12316 177c 1A       		.byte	0x1a
 12317 177d 31       		.byte	0x31
 12318 177e 2E       		.byte	0x2e
 12319 177f 28       		.byte	0x28
 12320 1780 0100     		.2byte	0x1
 12321 1782 16       		.byte	0x16
 12322 1783 13       		.byte	0x13
 12323 1784 9F       		.byte	0x9f
 12324 1785 00000000 		.4byte	0
 12325 1789 00000000 		.4byte	0
 12326              	.LLST130:
 12327 178d 24000000 		.4byte	.LVL348
 12328 1791 2C000000 		.4byte	.LVL349
 12329 1795 0200     		.2byte	0x2
 12330 1797 71       		.byte	0x71
 12331 1798 08       		.sleb128 8
 12332 1799 2C000000 		.4byte	.LVL349
 12333 179d C2000000 		.4byte	.LVL369
 12334 17a1 0500     		.2byte	0x5
 12335 17a3 F3       		.byte	0xf3
 12336 17a4 01       		.uleb128 0x1
 12337 17a5 51       		.byte	0x51
 12338 17a6 23       		.byte	0x23
 12339 17a7 08       		.uleb128 0x8
 12340 17a8 00000000 		.4byte	0
 12341 17ac 00000000 		.4byte	0
 12342              	.LLST131:
 12343 17b0 24000000 		.4byte	.LVL348
 12344 17b4 2C000000 		.4byte	.LVL349
 12345 17b8 0200     		.2byte	0x2
 12346 17ba 71       		.byte	0x71
 12347 17bb 04       		.sleb128 4
 12348 17bc 2C000000 		.4byte	.LVL349
 12349 17c0 C2000000 		.4byte	.LVL369
 12350 17c4 0500     		.2byte	0x5
 12351 17c6 F3       		.byte	0xf3
 12352 17c7 01       		.uleb128 0x1
 12353 17c8 51       		.byte	0x51
 12354 17c9 23       		.byte	0x23
 12355 17ca 04       		.uleb128 0x4
 12356 17cb 00000000 		.4byte	0
 12357 17cf 00000000 		.4byte	0
 12358              	.LLST132:
 12359 17d3 24000000 		.4byte	.LVL348
 12360 17d7 2C000000 		.4byte	.LVL349
 12361 17db 0200     		.2byte	0x2
ARM GAS  C:\Users\CNous\AppData\Local\Temp\ccZi7tDD.s 			page 286


 12362 17dd 71       		.byte	0x71
 12363 17de 02       		.sleb128 2
 12364 17df 2C000000 		.4byte	.LVL349
 12365 17e3 C2000000 		.4byte	.LVL369
 12366 17e7 0500     		.2byte	0x5
 12367 17e9 F3       		.byte	0xf3
 12368 17ea 01       		.uleb128 0x1
 12369 17eb 51       		.byte	0x51
 12370 17ec 23       		.byte	0x23
 12371 17ed 02       		.uleb128 0x2
 12372 17ee 00000000 		.4byte	0
 12373 17f2 00000000 		.4byte	0
 12374              	.LLST133:
 12375 17f6 24000000 		.4byte	.LVL348
 12376 17fa C2000000 		.4byte	.LVL369
 12377 17fe 0100     		.2byte	0x1
 12378 1800 50       		.byte	0x50
 12379 1801 00000000 		.4byte	0
 12380 1805 00000000 		.4byte	0
 12381              	.LLST134:
 12382 1809 24000000 		.4byte	.LVL348
 12383 180d 34000000 		.4byte	.LVL350
 12384 1811 0200     		.2byte	0x2
 12385 1813 30       		.byte	0x30
 12386 1814 9F       		.byte	0x9f
 12387 1815 34000000 		.4byte	.LVL350
 12388 1819 3A000000 		.4byte	.LVL352
 12389 181d 0100     		.2byte	0x1
 12390 181f 54       		.byte	0x54
 12391 1820 42000000 		.4byte	.LVL354
 12392 1824 4A000000 		.4byte	.LVL355
 12393 1828 0100     		.2byte	0x1
 12394 182a 54       		.byte	0x54
 12395 182b 50000000 		.4byte	.LVL357
 12396 182f 5C000000 		.4byte	.LVL358
 12397 1833 0100     		.2byte	0x1
 12398 1835 54       		.byte	0x54
 12399 1836 5C000000 		.4byte	.LVL358
 12400 183a 66000000 		.4byte	.LVL359
 12401 183e 0100     		.2byte	0x1
 12402 1840 53       		.byte	0x53
 12403 1841 66000000 		.4byte	.LVL359
 12404 1845 C2000000 		.4byte	.LVL369
 12405 1849 1100     		.2byte	0x11
 12406 184b F3       		.byte	0xf3
 12407 184c 01       		.uleb128 0x1
 12408 184d 51       		.byte	0x51
 12409 184e 23       		.byte	0x23
 12410 184f 04       		.uleb128 0x4
 12411 1850 94       		.byte	0x94
 12412 1851 02       		.byte	0x2
 12413 1852 0A       		.byte	0xa
 12414 1853 FFFF     		.2byte	0xffff
 12415 1855 1A       		.byte	0x1a
 12416 1856 38       		.byte	0x38
 12417 1857 24       		.byte	0x24
 12418 1858 74       		.byte	0x74
ARM GAS  C:\Users\CNous\AppData\Local\Temp\ccZi7tDD.s 			page 287


 12419 1859 00       		.sleb128 0
 12420 185a 21       		.byte	0x21
 12421 185b 9F       		.byte	0x9f
 12422 185c 00000000 		.4byte	0
 12423 1860 00000000 		.4byte	0
 12424              	.LLST135:
 12425 1864 24000000 		.4byte	.LVL348
 12426 1868 36000000 		.4byte	.LVL351
 12427 186c 0200     		.2byte	0x2
 12428 186e 30       		.byte	0x30
 12429 186f 9F       		.byte	0x9f
 12430 1870 36000000 		.4byte	.LVL351
 12431 1874 40000000 		.4byte	.LVL353
 12432 1878 0100     		.2byte	0x1
 12433 187a 51       		.byte	0x51
 12434 187b 5C000000 		.4byte	.LVL358
 12435 187f 68000000 		.4byte	.LVL360
 12436 1883 0100     		.2byte	0x1
 12437 1885 52       		.byte	0x52
 12438 1886 00000000 		.4byte	0
 12439 188a 00000000 		.4byte	0
 12440              	.LLST136:
 12441 188e 24000000 		.4byte	.LVL348
 12442 1892 36000000 		.4byte	.LVL351
 12443 1896 0200     		.2byte	0x2
 12444 1898 30       		.byte	0x30
 12445 1899 9F       		.byte	0x9f
 12446 189a 36000000 		.4byte	.LVL351
 12447 189e 4E000000 		.4byte	.LVL356
 12448 18a2 0500     		.2byte	0x5
 12449 18a4 72       		.byte	0x72
 12450 18a5 00       		.sleb128 0
 12451 18a6 34       		.byte	0x34
 12452 18a7 24       		.byte	0x24
 12453 18a8 9F       		.byte	0x9f
 12454 18a9 4E000000 		.4byte	.LVL356
 12455 18ad C2000000 		.4byte	.LVL369
 12456 18b1 0A00     		.2byte	0xa
 12457 18b3 F3       		.byte	0xf3
 12458 18b4 01       		.uleb128 0x1
 12459 18b5 51       		.byte	0x51
 12460 18b6 23       		.byte	0x23
 12461 18b7 02       		.uleb128 0x2
 12462 18b8 94       		.byte	0x94
 12463 18b9 02       		.byte	0x2
 12464 18ba 34       		.byte	0x34
 12465 18bb 24       		.byte	0x24
 12466 18bc 9F       		.byte	0x9f
 12467 18bd 00000000 		.4byte	0
 12468 18c1 00000000 		.4byte	0
 12469              	.LLST137:
 12470 18c5 5C000000 		.4byte	.LVL358
 12471 18c9 C2000000 		.4byte	.LVL369
 12472 18cd 0500     		.2byte	0x5
 12473 18cf F3       		.byte	0xf3
 12474 18d0 01       		.uleb128 0x1
 12475 18d1 51       		.byte	0x51
ARM GAS  C:\Users\CNous\AppData\Local\Temp\ccZi7tDD.s 			page 288


 12476 18d2 23       		.byte	0x23
 12477 18d3 06       		.uleb128 0x6
 12478 18d4 00000000 		.4byte	0
 12479 18d8 00000000 		.4byte	0
 12480              	.LLST138:
 12481 18dc 5C000000 		.4byte	.LVL358
 12482 18e0 C2000000 		.4byte	.LVL369
 12483 18e4 0100     		.2byte	0x1
 12484 18e6 50       		.byte	0x50
 12485 18e7 00000000 		.4byte	0
 12486 18eb 00000000 		.4byte	0
 12487              	.LLST139:
 12488 18ef 78000000 		.4byte	.LVL361
 12489 18f3 C2000000 		.4byte	.LVL369
 12490 18f7 0500     		.2byte	0x5
 12491 18f9 F3       		.byte	0xf3
 12492 18fa 01       		.uleb128 0x1
 12493 18fb 51       		.byte	0x51
 12494 18fc 23       		.byte	0x23
 12495 18fd 08       		.uleb128 0x8
 12496 18fe 00000000 		.4byte	0
 12497 1902 00000000 		.4byte	0
 12498              	.LLST140:
 12499 1906 78000000 		.4byte	.LVL361
 12500 190a A4000000 		.4byte	.LVL366
 12501 190e 0100     		.2byte	0x1
 12502 1910 57       		.byte	0x57
 12503 1911 A4000000 		.4byte	.LVL366
 12504 1915 C2000000 		.4byte	.LVL369
 12505 1919 1500     		.2byte	0x15
 12506 191b 31       		.byte	0x31
 12507 191c 32       		.byte	0x32
 12508 191d F3       		.byte	0xf3
 12509 191e 01       		.uleb128 0x1
 12510 191f 51       		.byte	0x51
 12511 1920 23       		.byte	0x23
 12512 1921 04       		.uleb128 0x4
 12513 1922 94       		.byte	0x94
 12514 1923 02       		.byte	0x2
 12515 1924 0A       		.byte	0xa
 12516 1925 FFFF     		.2byte	0xffff
 12517 1927 1A       		.byte	0x1a
 12518 1928 31       		.byte	0x31
 12519 1929 2E       		.byte	0x2e
 12520 192a 28       		.byte	0x28
 12521 192b 0100     		.2byte	0x1
 12522 192d 16       		.byte	0x16
 12523 192e 13       		.byte	0x13
 12524 192f 9F       		.byte	0x9f
 12525 1930 00000000 		.4byte	0
 12526 1934 00000000 		.4byte	0
 12527              	.LLST141:
 12528 1938 78000000 		.4byte	.LVL361
 12529 193c A6000000 		.4byte	.LVL367
 12530 1940 0100     		.2byte	0x1
 12531 1942 56       		.byte	0x56
 12532 1943 A6000000 		.4byte	.LVL367
ARM GAS  C:\Users\CNous\AppData\Local\Temp\ccZi7tDD.s 			page 289


 12533 1947 C2000000 		.4byte	.LVL369
 12534 194b 1500     		.2byte	0x15
 12535 194d 32       		.byte	0x32
 12536 194e 30       		.byte	0x30
 12537 194f F3       		.byte	0xf3
 12538 1950 01       		.uleb128 0x1
 12539 1951 51       		.byte	0x51
 12540 1952 23       		.byte	0x23
 12541 1953 02       		.uleb128 0x2
 12542 1954 94       		.byte	0x94
 12543 1955 02       		.byte	0x2
 12544 1956 0A       		.byte	0xa
 12545 1957 FFFF     		.2byte	0xffff
 12546 1959 1A       		.byte	0x1a
 12547 195a 30       		.byte	0x30
 12548 195b 29       		.byte	0x29
 12549 195c 28       		.byte	0x28
 12550 195d 0100     		.2byte	0x1
 12551 195f 16       		.byte	0x16
 12552 1960 13       		.byte	0x13
 12553 1961 9F       		.byte	0x9f
 12554 1962 00000000 		.4byte	0
 12555 1966 00000000 		.4byte	0
 12556              	.LLST142:
 12557 196a 78000000 		.4byte	.LVL361
 12558 196e C2000000 		.4byte	.LVL369
 12559 1972 0100     		.2byte	0x1
 12560 1974 50       		.byte	0x50
 12561 1975 00000000 		.4byte	0
 12562 1979 00000000 		.4byte	0
 12563              	.LLST143:
 12564 197d 78000000 		.4byte	.LVL361
 12565 1981 86000000 		.4byte	.LVL362
 12566 1985 0200     		.2byte	0x2
 12567 1987 30       		.byte	0x30
 12568 1988 9F       		.byte	0x9f
 12569 1989 86000000 		.4byte	.LVL362
 12570 198d 88000000 		.4byte	.LVL363
 12571 1991 0100     		.2byte	0x1
 12572 1993 51       		.byte	0x51
 12573 1994 88000000 		.4byte	.LVL363
 12574 1998 8E000000 		.4byte	.LVL364
 12575 199c 0700     		.2byte	0x7
 12576 199e 71       		.byte	0x71
 12577 199f 00       		.sleb128 0
 12578 19a0 0B       		.byte	0xb
 12579 19a1 0CFF     		.2byte	0xff0c
 12580 19a3 1A       		.byte	0x1a
 12581 19a4 9F       		.byte	0x9f
 12582 19a5 A4000000 		.4byte	.LVL366
 12583 19a9 C2000000 		.4byte	.LVL369
 12584 19ad 0100     		.2byte	0x1
 12585 19af 57       		.byte	0x57
 12586 19b0 00000000 		.4byte	0
 12587 19b4 00000000 		.4byte	0
 12588              	.LLST144:
 12589 19b8 78000000 		.4byte	.LVL361
ARM GAS  C:\Users\CNous\AppData\Local\Temp\ccZi7tDD.s 			page 290


 12590 19bc 88000000 		.4byte	.LVL363
 12591 19c0 0200     		.2byte	0x2
 12592 19c2 30       		.byte	0x30
 12593 19c3 9F       		.byte	0x9f
 12594 19c4 88000000 		.4byte	.LVL363
 12595 19c8 92000000 		.4byte	.LVL365
 12596 19cc 0100     		.2byte	0x1
 12597 19ce 53       		.byte	0x53
 12598 19cf A6000000 		.4byte	.LVL367
 12599 19d3 C2000000 		.4byte	.LVL369
 12600 19d7 0100     		.2byte	0x1
 12601 19d9 56       		.byte	0x56
 12602 19da 00000000 		.4byte	0
 12603 19de 00000000 		.4byte	0
 12604              	.LLST145:
 12605 19e2 AA000000 		.4byte	.LVL368
 12606 19e6 C2000000 		.4byte	.LVL369
 12607 19ea 0500     		.2byte	0x5
 12608 19ec F3       		.byte	0xf3
 12609 19ed 01       		.uleb128 0x1
 12610 19ee 51       		.byte	0x51
 12611 19ef 23       		.byte	0x23
 12612 19f0 06       		.uleb128 0x6
 12613 19f1 00000000 		.4byte	0
 12614 19f5 00000000 		.4byte	0
 12615              	.LLST146:
 12616 19f9 AA000000 		.4byte	.LVL368
 12617 19fd C2000000 		.4byte	.LVL369
 12618 1a01 0100     		.2byte	0x1
 12619 1a03 50       		.byte	0x50
 12620 1a04 00000000 		.4byte	0
 12621 1a08 00000000 		.4byte	0
 12622              	.LLST147:
 12623 1a0c CE000000 		.4byte	.LVL371
 12624 1a10 D4000000 		.4byte	.LVL372
 12625 1a14 0200     		.2byte	0x2
 12626 1a16 71       		.byte	0x71
 12627 1a17 08       		.sleb128 8
 12628 1a18 D4000000 		.4byte	.LVL372
 12629 1a1c 64010000 		.4byte	.LFE162
 12630 1a20 0500     		.2byte	0x5
 12631 1a22 F3       		.byte	0xf3
 12632 1a23 01       		.uleb128 0x1
 12633 1a24 51       		.byte	0x51
 12634 1a25 23       		.byte	0x23
 12635 1a26 08       		.uleb128 0x8
 12636 1a27 00000000 		.4byte	0
 12637 1a2b 00000000 		.4byte	0
 12638              	.LLST148:
 12639 1a2f CE000000 		.4byte	.LVL371
 12640 1a33 FA000000 		.4byte	.LVL378
 12641 1a37 0100     		.2byte	0x1
 12642 1a39 53       		.byte	0x53
 12643 1a3a FA000000 		.4byte	.LVL378
 12644 1a3e 64010000 		.4byte	.LFE162
 12645 1a42 0500     		.2byte	0x5
 12646 1a44 F3       		.byte	0xf3
ARM GAS  C:\Users\CNous\AppData\Local\Temp\ccZi7tDD.s 			page 291


 12647 1a45 01       		.uleb128 0x1
 12648 1a46 51       		.byte	0x51
 12649 1a47 23       		.byte	0x23
 12650 1a48 04       		.uleb128 0x4
 12651 1a49 00000000 		.4byte	0
 12652 1a4d 00000000 		.4byte	0
 12653              	.LLST149:
 12654 1a51 CE000000 		.4byte	.LVL371
 12655 1a55 F6000000 		.4byte	.LVL377
 12656 1a59 0100     		.2byte	0x1
 12657 1a5b 52       		.byte	0x52
 12658 1a5c F6000000 		.4byte	.LVL377
 12659 1a60 64010000 		.4byte	.LFE162
 12660 1a64 0500     		.2byte	0x5
 12661 1a66 F3       		.byte	0xf3
 12662 1a67 01       		.uleb128 0x1
 12663 1a68 51       		.byte	0x51
 12664 1a69 23       		.byte	0x23
 12665 1a6a 02       		.uleb128 0x2
 12666 1a6b 00000000 		.4byte	0
 12667 1a6f 00000000 		.4byte	0
 12668              	.LLST150:
 12669 1a73 CE000000 		.4byte	.LVL371
 12670 1a77 DC000000 		.4byte	.LVL373
 12671 1a7b 0200     		.2byte	0x2
 12672 1a7d 30       		.byte	0x30
 12673 1a7e 9F       		.byte	0x9f
 12674 1a7f DC000000 		.4byte	.LVL373
 12675 1a83 DE000000 		.4byte	.LVL374
 12676 1a87 0100     		.2byte	0x1
 12677 1a89 51       		.byte	0x51
 12678 1a8a DE000000 		.4byte	.LVL374
 12679 1a8e E2000000 		.4byte	.LVL375
 12680 1a92 0700     		.2byte	0x7
 12681 1a94 71       		.byte	0x71
 12682 1a95 00       		.sleb128 0
 12683 1a96 0B       		.byte	0xb
 12684 1a97 0CFF     		.2byte	0xff0c
 12685 1a99 1A       		.byte	0x1a
 12686 1a9a 9F       		.byte	0x9f
 12687 1a9b FA000000 		.4byte	.LVL378
 12688 1a9f 08010000 		.4byte	.LVL380
 12689 1aa3 0100     		.2byte	0x1
 12690 1aa5 53       		.byte	0x53
 12691 1aa6 00000000 		.4byte	0
 12692 1aaa 00000000 		.4byte	0
 12693              	.LLST151:
 12694 1aae CE000000 		.4byte	.LVL371
 12695 1ab2 DE000000 		.4byte	.LVL374
 12696 1ab6 0200     		.2byte	0x2
 12697 1ab8 30       		.byte	0x30
 12698 1ab9 9F       		.byte	0x9f
 12699 1aba DE000000 		.4byte	.LVL374
 12700 1abe EA000000 		.4byte	.LVL376
 12701 1ac2 0100     		.2byte	0x1
 12702 1ac4 54       		.byte	0x54
 12703 1ac5 FA000000 		.4byte	.LVL378
ARM GAS  C:\Users\CNous\AppData\Local\Temp\ccZi7tDD.s 			page 292


 12704 1ac9 64010000 		.4byte	.LFE162
 12705 1acd 0100     		.2byte	0x1
 12706 1acf 54       		.byte	0x54
 12707 1ad0 00000000 		.4byte	0
 12708 1ad4 00000000 		.4byte	0
 12709              	.LLST152:
 12710 1ad8 14010000 		.4byte	.LVL381
 12711 1adc 42010000 		.4byte	.LVL389
 12712 1ae0 0100     		.2byte	0x1
 12713 1ae2 57       		.byte	0x57
 12714 1ae3 42010000 		.4byte	.LVL389
 12715 1ae7 64010000 		.4byte	.LFE162
 12716 1aeb 1500     		.2byte	0x15
 12717 1aed 31       		.byte	0x31
 12718 1aee 32       		.byte	0x32
 12719 1aef F3       		.byte	0xf3
 12720 1af0 01       		.uleb128 0x1
 12721 1af1 51       		.byte	0x51
 12722 1af2 23       		.byte	0x23
 12723 1af3 04       		.uleb128 0x4
 12724 1af4 94       		.byte	0x94
 12725 1af5 02       		.byte	0x2
 12726 1af6 0A       		.byte	0xa
 12727 1af7 FFFF     		.2byte	0xffff
 12728 1af9 1A       		.byte	0x1a
 12729 1afa 31       		.byte	0x31
 12730 1afb 2E       		.byte	0x2e
 12731 1afc 28       		.byte	0x28
 12732 1afd 0100     		.2byte	0x1
 12733 1aff 16       		.byte	0x16
 12734 1b00 13       		.byte	0x13
 12735 1b01 9F       		.byte	0x9f
 12736 1b02 00000000 		.4byte	0
 12737 1b06 00000000 		.4byte	0
 12738              	.LLST153:
 12739 1b0a 14010000 		.4byte	.LVL381
 12740 1b0e 46010000 		.4byte	.LVL390
 12741 1b12 0100     		.2byte	0x1
 12742 1b14 56       		.byte	0x56
 12743 1b15 46010000 		.4byte	.LVL390
 12744 1b19 64010000 		.4byte	.LFE162
 12745 1b1d 1500     		.2byte	0x15
 12746 1b1f 32       		.byte	0x32
 12747 1b20 30       		.byte	0x30
 12748 1b21 F3       		.byte	0xf3
 12749 1b22 01       		.uleb128 0x1
 12750 1b23 51       		.byte	0x51
 12751 1b24 23       		.byte	0x23
 12752 1b25 02       		.uleb128 0x2
 12753 1b26 94       		.byte	0x94
 12754 1b27 02       		.byte	0x2
 12755 1b28 0A       		.byte	0xa
 12756 1b29 FFFF     		.2byte	0xffff
 12757 1b2b 1A       		.byte	0x1a
 12758 1b2c 30       		.byte	0x30
 12759 1b2d 29       		.byte	0x29
 12760 1b2e 28       		.byte	0x28
ARM GAS  C:\Users\CNous\AppData\Local\Temp\ccZi7tDD.s 			page 293


 12761 1b2f 0100     		.2byte	0x1
 12762 1b31 16       		.byte	0x16
 12763 1b32 13       		.byte	0x13
 12764 1b33 9F       		.byte	0x9f
 12765 1b34 00000000 		.4byte	0
 12766 1b38 00000000 		.4byte	0
 12767              	.LLST154:
 12768 1b3c 14010000 		.4byte	.LVL381
 12769 1b40 22010000 		.4byte	.LVL382
 12770 1b44 0200     		.2byte	0x2
 12771 1b46 30       		.byte	0x30
 12772 1b47 9F       		.byte	0x9f
 12773 1b48 22010000 		.4byte	.LVL382
 12774 1b4c 2A010000 		.4byte	.LVL384
 12775 1b50 0100     		.2byte	0x1
 12776 1b52 52       		.byte	0x52
 12777 1b53 30010000 		.4byte	.LVL386
 12778 1b57 38010000 		.4byte	.LVL387
 12779 1b5b 0100     		.2byte	0x1
 12780 1b5d 51       		.byte	0x51
 12781 1b5e 3E010000 		.4byte	.LVL388
 12782 1b62 42010000 		.4byte	.LVL389
 12783 1b66 0100     		.2byte	0x1
 12784 1b68 52       		.byte	0x52
 12785 1b69 42010000 		.4byte	.LVL389
 12786 1b6d 64010000 		.4byte	.LFE162
 12787 1b71 0100     		.2byte	0x1
 12788 1b73 57       		.byte	0x57
 12789 1b74 00000000 		.4byte	0
 12790 1b78 00000000 		.4byte	0
 12791              	.LLST155:
 12792 1b7c 14010000 		.4byte	.LVL381
 12793 1b80 24010000 		.4byte	.LVL383
 12794 1b84 0200     		.2byte	0x2
 12795 1b86 30       		.byte	0x30
 12796 1b87 9F       		.byte	0x9f
 12797 1b88 24010000 		.4byte	.LVL383
 12798 1b8c 2E010000 		.4byte	.LVL385
 12799 1b90 0100     		.2byte	0x1
 12800 1b92 53       		.byte	0x53
 12801 1b93 46010000 		.4byte	.LVL390
 12802 1b97 64010000 		.4byte	.LFE162
 12803 1b9b 0100     		.2byte	0x1
 12804 1b9d 56       		.byte	0x56
 12805 1b9e 00000000 		.4byte	0
 12806 1ba2 00000000 		.4byte	0
 12807              	.LLST156:
 12808 1ba6 14010000 		.4byte	.LVL381
 12809 1baa 24010000 		.4byte	.LVL383
 12810 1bae 0200     		.2byte	0x2
 12811 1bb0 30       		.byte	0x30
 12812 1bb1 9F       		.byte	0x9f
 12813 1bb2 24010000 		.4byte	.LVL383
 12814 1bb6 46010000 		.4byte	.LVL390
 12815 1bba 0500     		.2byte	0x5
 12816 1bbc 76       		.byte	0x76
 12817 1bbd 00       		.sleb128 0
ARM GAS  C:\Users\CNous\AppData\Local\Temp\ccZi7tDD.s 			page 294


 12818 1bbe 34       		.byte	0x34
 12819 1bbf 24       		.byte	0x24
 12820 1bc0 9F       		.byte	0x9f
 12821 1bc1 46010000 		.4byte	.LVL390
 12822 1bc5 64010000 		.4byte	.LFE162
 12823 1bc9 1700     		.2byte	0x17
 12824 1bcb 32       		.byte	0x32
 12825 1bcc 30       		.byte	0x30
 12826 1bcd F3       		.byte	0xf3
 12827 1bce 01       		.uleb128 0x1
 12828 1bcf 51       		.byte	0x51
 12829 1bd0 23       		.byte	0x23
 12830 1bd1 02       		.uleb128 0x2
 12831 1bd2 94       		.byte	0x94
 12832 1bd3 02       		.byte	0x2
 12833 1bd4 0A       		.byte	0xa
 12834 1bd5 FFFF     		.2byte	0xffff
 12835 1bd7 1A       		.byte	0x1a
 12836 1bd8 30       		.byte	0x30
 12837 1bd9 29       		.byte	0x29
 12838 1bda 28       		.byte	0x28
 12839 1bdb 0100     		.2byte	0x1
 12840 1bdd 16       		.byte	0x16
 12841 1bde 13       		.byte	0x13
 12842 1bdf 34       		.byte	0x34
 12843 1be0 24       		.byte	0x24
 12844 1be1 9F       		.byte	0x9f
 12845 1be2 00000000 		.4byte	0
 12846 1be6 00000000 		.4byte	0
 12847              	.LLST157:
 12848 1bea 00000000 		.4byte	.LVL392
 12849 1bee 02000000 		.4byte	.LVL393
 12850 1bf2 0100     		.2byte	0x1
 12851 1bf4 50       		.byte	0x50
 12852 1bf5 02000000 		.4byte	.LVL393
 12853 1bf9 04000000 		.4byte	.LFE163
 12854 1bfd 0400     		.2byte	0x4
 12855 1bff F3       		.byte	0xf3
 12856 1c00 01       		.uleb128 0x1
 12857 1c01 50       		.byte	0x50
 12858 1c02 9F       		.byte	0x9f
 12859 1c03 00000000 		.4byte	0
 12860 1c07 00000000 		.4byte	0
 12861              	.LLST158:
 12862 1c0b 00000000 		.4byte	.LVL394
 12863 1c0f 02000000 		.4byte	.LVL395
 12864 1c13 0100     		.2byte	0x1
 12865 1c15 50       		.byte	0x50
 12866 1c16 02000000 		.4byte	.LVL395
 12867 1c1a 04000000 		.4byte	.LFE164
 12868 1c1e 0400     		.2byte	0x4
 12869 1c20 F3       		.byte	0xf3
 12870 1c21 01       		.uleb128 0x1
 12871 1c22 50       		.byte	0x50
 12872 1c23 9F       		.byte	0x9f
 12873 1c24 00000000 		.4byte	0
 12874 1c28 00000000 		.4byte	0
ARM GAS  C:\Users\CNous\AppData\Local\Temp\ccZi7tDD.s 			page 295


 12875              	.LLST159:
 12876 1c2c 00000000 		.4byte	.LVL396
 12877 1c30 02000000 		.4byte	.LVL397
 12878 1c34 0100     		.2byte	0x1
 12879 1c36 50       		.byte	0x50
 12880 1c37 02000000 		.4byte	.LVL397
 12881 1c3b 04000000 		.4byte	.LFE165
 12882 1c3f 0400     		.2byte	0x4
 12883 1c41 F3       		.byte	0xf3
 12884 1c42 01       		.uleb128 0x1
 12885 1c43 50       		.byte	0x50
 12886 1c44 9F       		.byte	0x9f
 12887 1c45 00000000 		.4byte	0
 12888 1c49 00000000 		.4byte	0
 12889              	.LLST160:
 12890 1c4d 00000000 		.4byte	.LVL398
 12891 1c51 02000000 		.4byte	.LVL399
 12892 1c55 0100     		.2byte	0x1
 12893 1c57 50       		.byte	0x50
 12894 1c58 02000000 		.4byte	.LVL399
 12895 1c5c 04000000 		.4byte	.LFE166
 12896 1c60 0400     		.2byte	0x4
 12897 1c62 F3       		.byte	0xf3
 12898 1c63 01       		.uleb128 0x1
 12899 1c64 50       		.byte	0x50
 12900 1c65 9F       		.byte	0x9f
 12901 1c66 00000000 		.4byte	0
 12902 1c6a 00000000 		.4byte	0
 12903              	.LLST161:
 12904 1c6e 00000000 		.4byte	.LVL400
 12905 1c72 12000000 		.4byte	.LVL401
 12906 1c76 0100     		.2byte	0x1
 12907 1c78 51       		.byte	0x51
 12908 1c79 12000000 		.4byte	.LVL401
 12909 1c7d 16000000 		.4byte	.LFE167
 12910 1c81 0400     		.2byte	0x4
 12911 1c83 F3       		.byte	0xf3
 12912 1c84 01       		.uleb128 0x1
 12913 1c85 51       		.byte	0x51
 12914 1c86 9F       		.byte	0x9f
 12915 1c87 00000000 		.4byte	0
 12916 1c8b 00000000 		.4byte	0
 12917              	.LLST162:
 12918 1c8f 00000000 		.4byte	.LVL402
 12919 1c93 14000000 		.4byte	.LVL403
 12920 1c97 0100     		.2byte	0x1
 12921 1c99 51       		.byte	0x51
 12922 1c9a 14000000 		.4byte	.LVL403
 12923 1c9e 1A000000 		.4byte	.LFE168
 12924 1ca2 0400     		.2byte	0x4
 12925 1ca4 F3       		.byte	0xf3
 12926 1ca5 01       		.uleb128 0x1
 12927 1ca6 51       		.byte	0x51
 12928 1ca7 9F       		.byte	0x9f
 12929 1ca8 00000000 		.4byte	0
 12930 1cac 00000000 		.4byte	0
 12931              	.LLST163:
ARM GAS  C:\Users\CNous\AppData\Local\Temp\ccZi7tDD.s 			page 296


 12932 1cb0 00000000 		.4byte	.LVL404
 12933 1cb4 12000000 		.4byte	.LVL405
 12934 1cb8 0100     		.2byte	0x1
 12935 1cba 51       		.byte	0x51
 12936 1cbb 12000000 		.4byte	.LVL405
 12937 1cbf 16000000 		.4byte	.LFE169
 12938 1cc3 0400     		.2byte	0x4
 12939 1cc5 F3       		.byte	0xf3
 12940 1cc6 01       		.uleb128 0x1
 12941 1cc7 51       		.byte	0x51
 12942 1cc8 9F       		.byte	0x9f
 12943 1cc9 00000000 		.4byte	0
 12944 1ccd 00000000 		.4byte	0
 12945              	.LLST164:
 12946 1cd1 00000000 		.4byte	.LVL406
 12947 1cd5 14000000 		.4byte	.LVL407
 12948 1cd9 0100     		.2byte	0x1
 12949 1cdb 51       		.byte	0x51
 12950 1cdc 14000000 		.4byte	.LVL407
 12951 1ce0 1A000000 		.4byte	.LFE170
 12952 1ce4 0400     		.2byte	0x4
 12953 1ce6 F3       		.byte	0xf3
 12954 1ce7 01       		.uleb128 0x1
 12955 1ce8 51       		.byte	0x51
 12956 1ce9 9F       		.byte	0x9f
 12957 1cea 00000000 		.4byte	0
 12958 1cee 00000000 		.4byte	0
 12959              	.LLST165:
 12960 1cf2 00000000 		.4byte	.LFB171
 12961 1cf6 0A000000 		.4byte	.LCFI11
 12962 1cfa 0200     		.2byte	0x2
 12963 1cfc 7D       		.byte	0x7d
 12964 1cfd 00       		.sleb128 0
 12965 1cfe 0A000000 		.4byte	.LCFI11
 12966 1d02 2A000000 		.4byte	.LFE171
 12967 1d06 0200     		.2byte	0x2
 12968 1d08 7D       		.byte	0x7d
 12969 1d09 10       		.sleb128 16
 12970 1d0a 00000000 		.4byte	0
 12971 1d0e 00000000 		.4byte	0
 12972              	.LLST166:
 12973 1d12 00000000 		.4byte	.LVL408
 12974 1d16 16000000 		.4byte	.LVL409
 12975 1d1a 0100     		.2byte	0x1
 12976 1d1c 51       		.byte	0x51
 12977 1d1d 16000000 		.4byte	.LVL409
 12978 1d21 2A000000 		.4byte	.LFE171
 12979 1d25 0400     		.2byte	0x4
 12980 1d27 F3       		.byte	0xf3
 12981 1d28 01       		.uleb128 0x1
 12982 1d29 51       		.byte	0x51
 12983 1d2a 9F       		.byte	0x9f
 12984 1d2b 00000000 		.4byte	0
 12985 1d2f 00000000 		.4byte	0
 12986              	.LLST167:
 12987 1d33 00000000 		.4byte	.LVL411
 12988 1d37 08000000 		.4byte	.LVL412
ARM GAS  C:\Users\CNous\AppData\Local\Temp\ccZi7tDD.s 			page 297


 12989 1d3b 0100     		.2byte	0x1
 12990 1d3d 51       		.byte	0x51
 12991 1d3e 08000000 		.4byte	.LVL412
 12992 1d42 10000000 		.4byte	.LVL413
 12993 1d46 0400     		.2byte	0x4
 12994 1d48 F3       		.byte	0xf3
 12995 1d49 01       		.uleb128 0x1
 12996 1d4a 51       		.byte	0x51
 12997 1d4b 9F       		.byte	0x9f
 12998 1d4c 10000000 		.4byte	.LVL413
 12999 1d50 18000000 		.4byte	.LVL414
 13000 1d54 0100     		.2byte	0x1
 13001 1d56 51       		.byte	0x51
 13002 1d57 18000000 		.4byte	.LVL414
 13003 1d5b 20000000 		.4byte	.LFE173
 13004 1d5f 0400     		.2byte	0x4
 13005 1d61 F3       		.byte	0xf3
 13006 1d62 01       		.uleb128 0x1
 13007 1d63 51       		.byte	0x51
 13008 1d64 9F       		.byte	0x9f
 13009 1d65 00000000 		.4byte	0
 13010 1d69 00000000 		.4byte	0
 13011              	.LLST168:
 13012 1d6d 00000000 		.4byte	.LVL415
 13013 1d71 08000000 		.4byte	.LVL416
 13014 1d75 0100     		.2byte	0x1
 13015 1d77 51       		.byte	0x51
 13016 1d78 08000000 		.4byte	.LVL416
 13017 1d7c 10000000 		.4byte	.LVL417
 13018 1d80 0400     		.2byte	0x4
 13019 1d82 F3       		.byte	0xf3
 13020 1d83 01       		.uleb128 0x1
 13021 1d84 51       		.byte	0x51
 13022 1d85 9F       		.byte	0x9f
 13023 1d86 10000000 		.4byte	.LVL417
 13024 1d8a 12000000 		.4byte	.LVL418
 13025 1d8e 0100     		.2byte	0x1
 13026 1d90 51       		.byte	0x51
 13027 1d91 12000000 		.4byte	.LVL418
 13028 1d95 1A000000 		.4byte	.LFE174
 13029 1d99 0400     		.2byte	0x4
 13030 1d9b F3       		.byte	0xf3
 13031 1d9c 01       		.uleb128 0x1
 13032 1d9d 51       		.byte	0x51
 13033 1d9e 9F       		.byte	0x9f
 13034 1d9f 00000000 		.4byte	0
 13035 1da3 00000000 		.4byte	0
 13036              	.LLST169:
 13037 1da7 00000000 		.4byte	.LVL419
 13038 1dab 08000000 		.4byte	.LVL420
 13039 1daf 0100     		.2byte	0x1
 13040 1db1 51       		.byte	0x51
 13041 1db2 08000000 		.4byte	.LVL420
 13042 1db6 10000000 		.4byte	.LVL421
 13043 1dba 0400     		.2byte	0x4
 13044 1dbc F3       		.byte	0xf3
 13045 1dbd 01       		.uleb128 0x1
ARM GAS  C:\Users\CNous\AppData\Local\Temp\ccZi7tDD.s 			page 298


 13046 1dbe 51       		.byte	0x51
 13047 1dbf 9F       		.byte	0x9f
 13048 1dc0 10000000 		.4byte	.LVL421
 13049 1dc4 12000000 		.4byte	.LVL422
 13050 1dc8 0100     		.2byte	0x1
 13051 1dca 51       		.byte	0x51
 13052 1dcb 12000000 		.4byte	.LVL422
 13053 1dcf 1A000000 		.4byte	.LFE175
 13054 1dd3 0400     		.2byte	0x4
 13055 1dd5 F3       		.byte	0xf3
 13056 1dd6 01       		.uleb128 0x1
 13057 1dd7 51       		.byte	0x51
 13058 1dd8 9F       		.byte	0x9f
 13059 1dd9 00000000 		.4byte	0
 13060 1ddd 00000000 		.4byte	0
 13061              	.LLST170:
 13062 1de1 00000000 		.4byte	.LVL423
 13063 1de5 0A000000 		.4byte	.LVL424
 13064 1de9 0100     		.2byte	0x1
 13065 1deb 51       		.byte	0x51
 13066 1dec 0A000000 		.4byte	.LVL424
 13067 1df0 0E000000 		.4byte	.LVL425
 13068 1df4 0400     		.2byte	0x4
 13069 1df6 F3       		.byte	0xf3
 13070 1df7 01       		.uleb128 0x1
 13071 1df8 51       		.byte	0x51
 13072 1df9 9F       		.byte	0x9f
 13073 1dfa 0E000000 		.4byte	.LVL425
 13074 1dfe 10000000 		.4byte	.LVL426
 13075 1e02 0100     		.2byte	0x1
 13076 1e04 51       		.byte	0x51
 13077 1e05 10000000 		.4byte	.LVL426
 13078 1e09 14000000 		.4byte	.LFE176
 13079 1e0d 0400     		.2byte	0x4
 13080 1e0f F3       		.byte	0xf3
 13081 1e10 01       		.uleb128 0x1
 13082 1e11 51       		.byte	0x51
 13083 1e12 9F       		.byte	0x9f
 13084 1e13 00000000 		.4byte	0
 13085 1e17 00000000 		.4byte	0
 13086              	.LLST171:
 13087 1e1b 00000000 		.4byte	.LVL428
 13088 1e1f 0A000000 		.4byte	.LVL430
 13089 1e23 0100     		.2byte	0x1
 13090 1e25 50       		.byte	0x50
 13091 1e26 0A000000 		.4byte	.LVL430
 13092 1e2a 0C000000 		.4byte	.LFE178
 13093 1e2e 0400     		.2byte	0x4
 13094 1e30 F3       		.byte	0xf3
 13095 1e31 01       		.uleb128 0x1
 13096 1e32 50       		.byte	0x50
 13097 1e33 9F       		.byte	0x9f
 13098 1e34 00000000 		.4byte	0
 13099 1e38 00000000 		.4byte	0
 13100              	.LLST172:
 13101 1e3c 00000000 		.4byte	.LVL428
 13102 1e40 02000000 		.4byte	.LVL429
ARM GAS  C:\Users\CNous\AppData\Local\Temp\ccZi7tDD.s 			page 299


 13103 1e44 0200     		.2byte	0x2
 13104 1e46 30       		.byte	0x30
 13105 1e47 9F       		.byte	0x9f
 13106 1e48 02000000 		.4byte	.LVL429
 13107 1e4c 0C000000 		.4byte	.LFE178
 13108 1e50 0A00     		.2byte	0xa
 13109 1e52 71       		.byte	0x71
 13110 1e53 00       		.sleb128 0
 13111 1e54 73       		.byte	0x73
 13112 1e55 00       		.sleb128 0
 13113 1e56 1A       		.byte	0x1a
 13114 1e57 40       		.byte	0x40
 13115 1e58 24       		.byte	0x24
 13116 1e59 30       		.byte	0x30
 13117 1e5a 2E       		.byte	0x2e
 13118 1e5b 9F       		.byte	0x9f
 13119 1e5c 00000000 		.4byte	0
 13120 1e60 00000000 		.4byte	0
 13121              	.LLST173:
 13122 1e64 00000000 		.4byte	.LVL431
 13123 1e68 02000000 		.4byte	.LVL432
 13124 1e6c 0100     		.2byte	0x1
 13125 1e6e 51       		.byte	0x51
 13126 1e6f 02000000 		.4byte	.LVL432
 13127 1e73 08000000 		.4byte	.LFE179
 13128 1e77 0400     		.2byte	0x4
 13129 1e79 F3       		.byte	0xf3
 13130 1e7a 01       		.uleb128 0x1
 13131 1e7b 51       		.byte	0x51
 13132 1e7c 9F       		.byte	0x9f
 13133 1e7d 00000000 		.4byte	0
 13134 1e81 00000000 		.4byte	0
 13135              	.LLST174:
 13136 1e85 00000000 		.4byte	.LVL433
 13137 1e89 08000000 		.4byte	.LVL435
 13138 1e8d 0100     		.2byte	0x1
 13139 1e8f 50       		.byte	0x50
 13140 1e90 08000000 		.4byte	.LVL435
 13141 1e94 16000000 		.4byte	.LFE180
 13142 1e98 0400     		.2byte	0x4
 13143 1e9a F3       		.byte	0xf3
 13144 1e9b 01       		.uleb128 0x1
 13145 1e9c 50       		.byte	0x50
 13146 1e9d 9F       		.byte	0x9f
 13147 1e9e 00000000 		.4byte	0
 13148 1ea2 00000000 		.4byte	0
 13149              	.LLST175:
 13150 1ea6 00000000 		.4byte	.LVL433
 13151 1eaa 14000000 		.4byte	.LVL437
 13152 1eae 0200     		.2byte	0x2
 13153 1eb0 30       		.byte	0x30
 13154 1eb1 9F       		.byte	0x9f
 13155 1eb2 14000000 		.4byte	.LVL437
 13156 1eb6 16000000 		.4byte	.LFE180
 13157 1eba 0100     		.2byte	0x1
 13158 1ebc 50       		.byte	0x50
 13159 1ebd 00000000 		.4byte	0
ARM GAS  C:\Users\CNous\AppData\Local\Temp\ccZi7tDD.s 			page 300


 13160 1ec1 00000000 		.4byte	0
 13161              	.LLST176:
 13162 1ec5 00000000 		.4byte	.LVL433
 13163 1ec9 02000000 		.4byte	.LVL434
 13164 1ecd 0200     		.2byte	0x2
 13165 1ecf 30       		.byte	0x30
 13166 1ed0 9F       		.byte	0x9f
 13167 1ed1 02000000 		.4byte	.LVL434
 13168 1ed5 16000000 		.4byte	.LFE180
 13169 1ed9 0600     		.2byte	0x6
 13170 1edb 73       		.byte	0x73
 13171 1edc 00       		.sleb128 0
 13172 1edd 71       		.byte	0x71
 13173 1ede 00       		.sleb128 0
 13174 1edf 1A       		.byte	0x1a
 13175 1ee0 9F       		.byte	0x9f
 13176 1ee1 00000000 		.4byte	0
 13177 1ee5 00000000 		.4byte	0
 13178              	.LLST177:
 13179 1ee9 00000000 		.4byte	.LVL433
 13180 1eed 0A000000 		.4byte	.LVL436
 13181 1ef1 0200     		.2byte	0x2
 13182 1ef3 30       		.byte	0x30
 13183 1ef4 9F       		.byte	0x9f
 13184 1ef5 0A000000 		.4byte	.LVL436
 13185 1ef9 16000000 		.4byte	.LFE180
 13186 1efd 0600     		.2byte	0x6
 13187 1eff 71       		.byte	0x71
 13188 1f00 00       		.sleb128 0
 13189 1f01 72       		.byte	0x72
 13190 1f02 00       		.sleb128 0
 13191 1f03 1A       		.byte	0x1a
 13192 1f04 9F       		.byte	0x9f
 13193 1f05 00000000 		.4byte	0
 13194 1f09 00000000 		.4byte	0
 13195              	.LLST178:
 13196 1f0d 00000000 		.4byte	.LVL438
 13197 1f11 02000000 		.4byte	.LVL439
 13198 1f15 0100     		.2byte	0x1
 13199 1f17 51       		.byte	0x51
 13200 1f18 02000000 		.4byte	.LVL439
 13201 1f1c 08000000 		.4byte	.LFE181
 13202 1f20 0400     		.2byte	0x4
 13203 1f22 F3       		.byte	0xf3
 13204 1f23 01       		.uleb128 0x1
 13205 1f24 51       		.byte	0x51
 13206 1f25 9F       		.byte	0x9f
 13207 1f26 00000000 		.4byte	0
 13208 1f2a 00000000 		.4byte	0
 13209              	.LLST179:
 13210 1f2e 00000000 		.4byte	.LVL440
 13211 1f32 02000000 		.4byte	.LVL441
 13212 1f36 0100     		.2byte	0x1
 13213 1f38 52       		.byte	0x52
 13214 1f39 02000000 		.4byte	.LVL441
 13215 1f3d 08000000 		.4byte	.LFE182
 13216 1f41 0400     		.2byte	0x4
ARM GAS  C:\Users\CNous\AppData\Local\Temp\ccZi7tDD.s 			page 301


 13217 1f43 F3       		.byte	0xf3
 13218 1f44 01       		.uleb128 0x1
 13219 1f45 52       		.byte	0x52
 13220 1f46 9F       		.byte	0x9f
 13221 1f47 00000000 		.4byte	0
 13222 1f4b 00000000 		.4byte	0
 13223              	.LLST180:
 13224 1f4f 00000000 		.4byte	.LVL442
 13225 1f53 0A000000 		.4byte	.LVL443
 13226 1f57 0100     		.2byte	0x1
 13227 1f59 51       		.byte	0x51
 13228 1f5a 0A000000 		.4byte	.LVL443
 13229 1f5e 0E000000 		.4byte	.LVL444
 13230 1f62 0400     		.2byte	0x4
 13231 1f64 F3       		.byte	0xf3
 13232 1f65 01       		.uleb128 0x1
 13233 1f66 51       		.byte	0x51
 13234 1f67 9F       		.byte	0x9f
 13235 1f68 0E000000 		.4byte	.LVL444
 13236 1f6c 10000000 		.4byte	.LVL445
 13237 1f70 0100     		.2byte	0x1
 13238 1f72 51       		.byte	0x51
 13239 1f73 10000000 		.4byte	.LVL445
 13240 1f77 14000000 		.4byte	.LFE183
 13241 1f7b 0400     		.2byte	0x4
 13242 1f7d F3       		.byte	0xf3
 13243 1f7e 01       		.uleb128 0x1
 13244 1f7f 51       		.byte	0x51
 13245 1f80 9F       		.byte	0x9f
 13246 1f81 00000000 		.4byte	0
 13247 1f85 00000000 		.4byte	0
 13248              	.LLST181:
 13249 1f89 00000000 		.4byte	.LVL446
 13250 1f8d 08000000 		.4byte	.LVL447
 13251 1f91 0100     		.2byte	0x1
 13252 1f93 51       		.byte	0x51
 13253 1f94 08000000 		.4byte	.LVL447
 13254 1f98 10000000 		.4byte	.LVL448
 13255 1f9c 0400     		.2byte	0x4
 13256 1f9e F3       		.byte	0xf3
 13257 1f9f 01       		.uleb128 0x1
 13258 1fa0 51       		.byte	0x51
 13259 1fa1 9F       		.byte	0x9f
 13260 1fa2 10000000 		.4byte	.LVL448
 13261 1fa6 12000000 		.4byte	.LVL449
 13262 1faa 0100     		.2byte	0x1
 13263 1fac 51       		.byte	0x51
 13264 1fad 12000000 		.4byte	.LVL449
 13265 1fb1 1A000000 		.4byte	.LFE184
 13266 1fb5 0400     		.2byte	0x4
 13267 1fb7 F3       		.byte	0xf3
 13268 1fb8 01       		.uleb128 0x1
 13269 1fb9 51       		.byte	0x51
 13270 1fba 9F       		.byte	0x9f
 13271 1fbb 00000000 		.4byte	0
 13272 1fbf 00000000 		.4byte	0
 13273              	.LLST182:
ARM GAS  C:\Users\CNous\AppData\Local\Temp\ccZi7tDD.s 			page 302


 13274 1fc3 00000000 		.4byte	.LVL451
 13275 1fc7 0C000000 		.4byte	.LVL455
 13276 1fcb 0100     		.2byte	0x1
 13277 1fcd 51       		.byte	0x51
 13278 1fce 0C000000 		.4byte	.LVL455
 13279 1fd2 1A000000 		.4byte	.LFE186
 13280 1fd6 0400     		.2byte	0x4
 13281 1fd8 F3       		.byte	0xf3
 13282 1fd9 01       		.uleb128 0x1
 13283 1fda 51       		.byte	0x51
 13284 1fdb 9F       		.byte	0x9f
 13285 1fdc 00000000 		.4byte	0
 13286 1fe0 00000000 		.4byte	0
 13287              	.LLST184:
 13288 1fe4 00000000 		.4byte	.LVL451
 13289 1fe8 02000000 		.4byte	.LVL452
 13290 1fec 0200     		.2byte	0x2
 13291 1fee 30       		.byte	0x30
 13292 1fef 9F       		.byte	0x9f
 13293 1ff0 02000000 		.4byte	.LVL452
 13294 1ff4 08000000 		.4byte	.LVL453
 13295 1ff8 0100     		.2byte	0x1
 13296 1ffa 53       		.byte	0x53
 13297 1ffb 0A000000 		.4byte	.LVL454
 13298 1fff 0C000000 		.4byte	.LVL455
 13299 2003 0100     		.2byte	0x1
 13300 2005 52       		.byte	0x52
 13301 2006 0C000000 		.4byte	.LVL455
 13302 200a 10000000 		.4byte	.LVL456
 13303 200e 0100     		.2byte	0x1
 13304 2010 51       		.byte	0x51
 13305 2011 00000000 		.4byte	0
 13306 2015 00000000 		.4byte	0
 13307              	.LLST185:
 13308 2019 00000000 		.4byte	.LFB187
 13309 201d 04000000 		.4byte	.LCFI12
 13310 2021 0200     		.2byte	0x2
 13311 2023 7D       		.byte	0x7d
 13312 2024 00       		.sleb128 0
 13313 2025 04000000 		.4byte	.LCFI12
 13314 2029 90000000 		.4byte	.LFE187
 13315 202d 0200     		.2byte	0x2
 13316 202f 7D       		.byte	0x7d
 13317 2030 0C       		.sleb128 12
 13318 2031 00000000 		.4byte	0
 13319 2035 00000000 		.4byte	0
 13320              	.LLST186:
 13321 2039 00000000 		.4byte	.LVL457
 13322 203d 46000000 		.4byte	.LVL470
 13323 2041 0100     		.2byte	0x1
 13324 2043 51       		.byte	0x51
 13325 2044 46000000 		.4byte	.LVL470
 13326 2048 56000000 		.4byte	.LVL472
 13327 204c 0400     		.2byte	0x4
 13328 204e F3       		.byte	0xf3
 13329 204f 01       		.uleb128 0x1
 13330 2050 51       		.byte	0x51
ARM GAS  C:\Users\CNous\AppData\Local\Temp\ccZi7tDD.s 			page 303


 13331 2051 9F       		.byte	0x9f
 13332 2052 56000000 		.4byte	.LVL472
 13333 2056 90000000 		.4byte	.LFE187
 13334 205a 0100     		.2byte	0x1
 13335 205c 51       		.byte	0x51
 13336 205d 00000000 		.4byte	0
 13337 2061 00000000 		.4byte	0
 13338              	.LLST187:
 13339 2065 00000000 		.4byte	.LVL457
 13340 2069 36000000 		.4byte	.LVL465
 13341 206d 0100     		.2byte	0x1
 13342 206f 52       		.byte	0x52
 13343 2070 36000000 		.4byte	.LVL465
 13344 2074 56000000 		.4byte	.LVL472
 13345 2078 0400     		.2byte	0x4
 13346 207a F3       		.byte	0xf3
 13347 207b 01       		.uleb128 0x1
 13348 207c 52       		.byte	0x52
 13349 207d 9F       		.byte	0x9f
 13350 207e 56000000 		.4byte	.LVL472
 13351 2082 86000000 		.4byte	.LVL480
 13352 2086 0100     		.2byte	0x1
 13353 2088 52       		.byte	0x52
 13354 2089 86000000 		.4byte	.LVL480
 13355 208d 90000000 		.4byte	.LFE187
 13356 2091 0400     		.2byte	0x4
 13357 2093 F3       		.byte	0xf3
 13358 2094 01       		.uleb128 0x1
 13359 2095 52       		.byte	0x52
 13360 2096 9F       		.byte	0x9f
 13361 2097 00000000 		.4byte	0
 13362 209b 00000000 		.4byte	0
 13363              	.LLST188:
 13364 209f 00000000 		.4byte	.LVL457
 13365 20a3 2E000000 		.4byte	.LVL463
 13366 20a7 0100     		.2byte	0x1
 13367 20a9 53       		.byte	0x53
 13368 20aa 2E000000 		.4byte	.LVL463
 13369 20ae 56000000 		.4byte	.LVL472
 13370 20b2 0400     		.2byte	0x4
 13371 20b4 F3       		.byte	0xf3
 13372 20b5 01       		.uleb128 0x1
 13373 20b6 53       		.byte	0x53
 13374 20b7 9F       		.byte	0x9f
 13375 20b8 56000000 		.4byte	.LVL472
 13376 20bc 82000000 		.4byte	.LVL479
 13377 20c0 0100     		.2byte	0x1
 13378 20c2 53       		.byte	0x53
 13379 20c3 82000000 		.4byte	.LVL479
 13380 20c7 90000000 		.4byte	.LFE187
 13381 20cb 0400     		.2byte	0x4
 13382 20cd F3       		.byte	0xf3
 13383 20ce 01       		.uleb128 0x1
 13384 20cf 53       		.byte	0x53
 13385 20d0 9F       		.byte	0x9f
 13386 20d1 00000000 		.4byte	0
 13387 20d5 00000000 		.4byte	0
ARM GAS  C:\Users\CNous\AppData\Local\Temp\ccZi7tDD.s 			page 304


 13388              	.LLST189:
 13389 20d9 06000000 		.4byte	.LVL458
 13390 20dd 2E000000 		.4byte	.LVL463
 13391 20e1 0100     		.2byte	0x1
 13392 20e3 53       		.byte	0x53
 13393 20e4 00000000 		.4byte	0
 13394 20e8 00000000 		.4byte	0
 13395              	.LLST190:
 13396 20ec 06000000 		.4byte	.LVL458
 13397 20f0 3A000000 		.4byte	.LVL466
 13398 20f4 0200     		.2byte	0x2
 13399 20f6 31       		.byte	0x31
 13400 20f7 9F       		.byte	0x9f
 13401 20f8 00000000 		.4byte	0
 13402 20fc 00000000 		.4byte	0
 13403              	.LLST191:
 13404 2100 06000000 		.4byte	.LVL458
 13405 2104 36000000 		.4byte	.LVL465
 13406 2108 0100     		.2byte	0x1
 13407 210a 52       		.byte	0x52
 13408 210b 00000000 		.4byte	0
 13409 210f 00000000 		.4byte	0
 13410              	.LLST192:
 13411 2113 06000000 		.4byte	.LVL458
 13412 2117 3A000000 		.4byte	.LVL466
 13413 211b 0100     		.2byte	0x1
 13414 211d 50       		.byte	0x50
 13415 211e 00000000 		.4byte	0
 13416 2122 00000000 		.4byte	0
 13417              	.LLST193:
 13418 2126 06000000 		.4byte	.LVL458
 13419 212a 14000000 		.4byte	.LVL459
 13420 212e 0200     		.2byte	0x2
 13421 2130 30       		.byte	0x30
 13422 2131 9F       		.byte	0x9f
 13423 2132 14000000 		.4byte	.LVL459
 13424 2136 16000000 		.4byte	.LVL460
 13425 213a 0100     		.2byte	0x1
 13426 213c 55       		.byte	0x55
 13427 213d 16000000 		.4byte	.LVL460
 13428 2141 1A000000 		.4byte	.LVL461
 13429 2145 0700     		.2byte	0x7
 13430 2147 75       		.byte	0x75
 13431 2148 00       		.sleb128 0
 13432 2149 0B       		.byte	0xb
 13433 214a 0CFF     		.2byte	0xff0c
 13434 214c 1A       		.byte	0x1a
 13435 214d 9F       		.byte	0x9f
 13436 214e 34000000 		.4byte	.LVL464
 13437 2152 3A000000 		.4byte	.LVL466
 13438 2156 0100     		.2byte	0x1
 13439 2158 53       		.byte	0x53
 13440 2159 00000000 		.4byte	0
 13441 215d 00000000 		.4byte	0
 13442              	.LLST194:
 13443 2161 06000000 		.4byte	.LVL458
 13444 2165 16000000 		.4byte	.LVL460
ARM GAS  C:\Users\CNous\AppData\Local\Temp\ccZi7tDD.s 			page 305


 13445 2169 0200     		.2byte	0x2
 13446 216b 30       		.byte	0x30
 13447 216c 9F       		.byte	0x9f
 13448 216d 16000000 		.4byte	.LVL460
 13449 2171 20000000 		.4byte	.LVL462
 13450 2175 0100     		.2byte	0x1
 13451 2177 54       		.byte	0x54
 13452 2178 36000000 		.4byte	.LVL465
 13453 217c 3A000000 		.4byte	.LVL466
 13454 2180 0100     		.2byte	0x1
 13455 2182 52       		.byte	0x52
 13456 2183 00000000 		.4byte	0
 13457 2187 00000000 		.4byte	0
 13458              	.LLST195:
 13459 218b 3A000000 		.4byte	.LVL466
 13460 218f 46000000 		.4byte	.LVL470
 13461 2193 0100     		.2byte	0x1
 13462 2195 51       		.byte	0x51
 13463 2196 00000000 		.4byte	0
 13464 219a 00000000 		.4byte	0
 13465              	.LLST196:
 13466 219e 3A000000 		.4byte	.LVL466
 13467 21a2 56000000 		.4byte	.LVL472
 13468 21a6 0100     		.2byte	0x1
 13469 21a8 50       		.byte	0x50
 13470 21a9 00000000 		.4byte	0
 13471 21ad 00000000 		.4byte	0
 13472              	.LLST197:
 13473 21b1 3A000000 		.4byte	.LVL466
 13474 21b5 3C000000 		.4byte	.LVL467
 13475 21b9 0200     		.2byte	0x2
 13476 21bb 30       		.byte	0x30
 13477 21bc 9F       		.byte	0x9f
 13478 21bd 3C000000 		.4byte	.LVL467
 13479 21c1 42000000 		.4byte	.LVL468
 13480 21c5 0100     		.2byte	0x1
 13481 21c7 53       		.byte	0x53
 13482 21c8 44000000 		.4byte	.LVL469
 13483 21cc 46000000 		.4byte	.LVL470
 13484 21d0 0100     		.2byte	0x1
 13485 21d2 52       		.byte	0x52
 13486 21d3 46000000 		.4byte	.LVL470
 13487 21d7 50000000 		.4byte	.LVL471
 13488 21db 0100     		.2byte	0x1
 13489 21dd 51       		.byte	0x51
 13490 21de 00000000 		.4byte	0
 13491 21e2 00000000 		.4byte	0
 13492              	.LLST198:
 13493 21e6 56000000 		.4byte	.LVL472
 13494 21ea 82000000 		.4byte	.LVL479
 13495 21ee 0100     		.2byte	0x1
 13496 21f0 53       		.byte	0x53
 13497 21f1 00000000 		.4byte	0
 13498 21f5 00000000 		.4byte	0
 13499              	.LLST199:
 13500 21f9 56000000 		.4byte	.LVL472
 13501 21fd 86000000 		.4byte	.LVL480
ARM GAS  C:\Users\CNous\AppData\Local\Temp\ccZi7tDD.s 			page 306


 13502 2201 0100     		.2byte	0x1
 13503 2203 52       		.byte	0x52
 13504 2204 00000000 		.4byte	0
 13505 2208 00000000 		.4byte	0
 13506              	.LLST200:
 13507 220c 56000000 		.4byte	.LVL472
 13508 2210 64000000 		.4byte	.LVL473
 13509 2214 0200     		.2byte	0x2
 13510 2216 30       		.byte	0x30
 13511 2217 9F       		.byte	0x9f
 13512 2218 64000000 		.4byte	.LVL473
 13513 221c 6A000000 		.4byte	.LVL475
 13514 2220 0100     		.2byte	0x1
 13515 2222 55       		.byte	0x55
 13516 2223 74000000 		.4byte	.LVL477
 13517 2227 7A000000 		.4byte	.LVL478
 13518 222b 0800     		.2byte	0x8
 13519 222d 73       		.byte	0x73
 13520 222e 00       		.sleb128 0
 13521 222f 3C       		.byte	0x3c
 13522 2230 24       		.byte	0x24
 13523 2231 75       		.byte	0x75
 13524 2232 00       		.sleb128 0
 13525 2233 21       		.byte	0x21
 13526 2234 9F       		.byte	0x9f
 13527 2235 88000000 		.4byte	.LVL481
 13528 2239 90000000 		.4byte	.LFE187
 13529 223d 0100     		.2byte	0x1
 13530 223f 53       		.byte	0x53
 13531 2240 00000000 		.4byte	0
 13532 2244 00000000 		.4byte	0
 13533              	.LLST201:
 13534 2248 56000000 		.4byte	.LVL472
 13535 224c 66000000 		.4byte	.LVL474
 13536 2250 0200     		.2byte	0x2
 13537 2252 30       		.byte	0x30
 13538 2253 9F       		.byte	0x9f
 13539 2254 66000000 		.4byte	.LVL474
 13540 2258 6E000000 		.4byte	.LVL476
 13541 225c 0100     		.2byte	0x1
 13542 225e 54       		.byte	0x54
 13543 225f 8A000000 		.4byte	.LVL482
 13544 2263 90000000 		.4byte	.LFE187
 13545 2267 0100     		.2byte	0x1
 13546 2269 52       		.byte	0x52
 13547 226a 00000000 		.4byte	0
 13548 226e 00000000 		.4byte	0
 13549              	.LLST202:
 13550 2272 56000000 		.4byte	.LVL472
 13551 2276 66000000 		.4byte	.LVL474
 13552 227a 0200     		.2byte	0x2
 13553 227c 30       		.byte	0x30
 13554 227d 9F       		.byte	0x9f
 13555 227e 66000000 		.4byte	.LVL474
 13556 2282 86000000 		.4byte	.LVL480
 13557 2286 0500     		.2byte	0x5
 13558 2288 72       		.byte	0x72
ARM GAS  C:\Users\CNous\AppData\Local\Temp\ccZi7tDD.s 			page 307


 13559 2289 00       		.sleb128 0
 13560 228a 34       		.byte	0x34
 13561 228b 24       		.byte	0x24
 13562 228c 9F       		.byte	0x9f
 13563 228d 00000000 		.4byte	0
 13564 2291 00000000 		.4byte	0
 13565              	.LLST203:
 13566 2295 00000000 		.4byte	.LFB188
 13567 2299 02000000 		.4byte	.LCFI13
 13568 229d 0200     		.2byte	0x2
 13569 229f 7D       		.byte	0x7d
 13570 22a0 00       		.sleb128 0
 13571 22a1 02000000 		.4byte	.LCFI13
 13572 22a5 26000000 		.4byte	.LFE188
 13573 22a9 0200     		.2byte	0x2
 13574 22ab 7D       		.byte	0x7d
 13575 22ac 04       		.sleb128 4
 13576 22ad 00000000 		.4byte	0
 13577 22b1 00000000 		.4byte	0
 13578              	.LLST204:
 13579 22b5 00000000 		.4byte	.LVL483
 13580 22b9 08000000 		.4byte	.LVL486
 13581 22bd 0100     		.2byte	0x1
 13582 22bf 51       		.byte	0x51
 13583 22c0 08000000 		.4byte	.LVL486
 13584 22c4 26000000 		.4byte	.LFE188
 13585 22c8 0400     		.2byte	0x4
 13586 22ca F3       		.byte	0xf3
 13587 22cb 01       		.uleb128 0x1
 13588 22cc 51       		.byte	0x51
 13589 22cd 9F       		.byte	0x9f
 13590 22ce 00000000 		.4byte	0
 13591 22d2 00000000 		.4byte	0
 13592              	.LLST205:
 13593 22d6 00000000 		.4byte	.LVL483
 13594 22da 0A000000 		.4byte	.LVL487
 13595 22de 0100     		.2byte	0x1
 13596 22e0 52       		.byte	0x52
 13597 22e1 0A000000 		.4byte	.LVL487
 13598 22e5 26000000 		.4byte	.LFE188
 13599 22e9 0400     		.2byte	0x4
 13600 22eb F3       		.byte	0xf3
 13601 22ec 01       		.uleb128 0x1
 13602 22ed 52       		.byte	0x52
 13603 22ee 9F       		.byte	0x9f
 13604 22ef 00000000 		.4byte	0
 13605 22f3 00000000 		.4byte	0
 13606              	.LLST206:
 13607 22f7 00000000 		.4byte	.LVL483
 13608 22fb 0E000000 		.4byte	.LVL488
 13609 22ff 0100     		.2byte	0x1
 13610 2301 53       		.byte	0x53
 13611 2302 0E000000 		.4byte	.LVL488
 13612 2306 26000000 		.4byte	.LFE188
 13613 230a 0400     		.2byte	0x4
 13614 230c F3       		.byte	0xf3
 13615 230d 01       		.uleb128 0x1
ARM GAS  C:\Users\CNous\AppData\Local\Temp\ccZi7tDD.s 			page 308


 13616 230e 53       		.byte	0x53
 13617 230f 9F       		.byte	0x9f
 13618 2310 00000000 		.4byte	0
 13619 2314 00000000 		.4byte	0
 13620              	.LLST207:
 13621 2318 00000000 		.4byte	.LVL483
 13622 231c 14000000 		.4byte	.LVL490
 13623 2320 0200     		.2byte	0x2
 13624 2322 30       		.byte	0x30
 13625 2323 9F       		.byte	0x9f
 13626 2324 14000000 		.4byte	.LVL490
 13627 2328 20000000 		.4byte	.LVL493
 13628 232c 0500     		.2byte	0x5
 13629 232e 71       		.byte	0x71
 13630 232f 00       		.sleb128 0
 13631 2330 37       		.byte	0x37
 13632 2331 21       		.byte	0x21
 13633 2332 9F       		.byte	0x9f
 13634 2333 20000000 		.4byte	.LVL493
 13635 2337 26000000 		.4byte	.LFE188
 13636 233b 0100     		.2byte	0x1
 13637 233d 52       		.byte	0x52
 13638 233e 00000000 		.4byte	0
 13639 2342 00000000 		.4byte	0
 13640              	.LLST211:
 13641 2346 00000000 		.4byte	.LVL483
 13642 234a 04000000 		.4byte	.LVL484
 13643 234e 0200     		.2byte	0x2
 13644 2350 30       		.byte	0x30
 13645 2351 9F       		.byte	0x9f
 13646 2352 04000000 		.4byte	.LVL484
 13647 2356 06000000 		.4byte	.LVL485
 13648 235a 0600     		.2byte	0x6
 13649 235c 74       		.byte	0x74
 13650 235d 00       		.sleb128 0
 13651 235e 08       		.byte	0x8
 13652 235f FF       		.byte	0xff
 13653 2360 1A       		.byte	0x1a
 13654 2361 9F       		.byte	0x9f
 13655 2362 10000000 		.4byte	.LVL489
 13656 2366 1A000000 		.4byte	.LVL491
 13657 236a 0100     		.2byte	0x1
 13658 236c 53       		.byte	0x53
 13659 236d 1A000000 		.4byte	.LVL491
 13660 2371 26000000 		.4byte	.LFE188
 13661 2375 0100     		.2byte	0x1
 13662 2377 54       		.byte	0x54
 13663 2378 00000000 		.4byte	0
 13664 237c 00000000 		.4byte	0
 13665              	.LLST212:
 13666 2380 00000000 		.4byte	.LFB189
 13667 2384 02000000 		.4byte	.LCFI14
 13668 2388 0200     		.2byte	0x2
 13669 238a 7D       		.byte	0x7d
 13670 238b 00       		.sleb128 0
 13671 238c 02000000 		.4byte	.LCFI14
 13672 2390 20000000 		.4byte	.LFE189
ARM GAS  C:\Users\CNous\AppData\Local\Temp\ccZi7tDD.s 			page 309


 13673 2394 0200     		.2byte	0x2
 13674 2396 7D       		.byte	0x7d
 13675 2397 04       		.sleb128 4
 13676 2398 00000000 		.4byte	0
 13677 239c 00000000 		.4byte	0
 13678              	.LLST213:
 13679 23a0 00000000 		.4byte	.LVL494
 13680 23a4 08000000 		.4byte	.LVL497
 13681 23a8 0100     		.2byte	0x1
 13682 23aa 51       		.byte	0x51
 13683 23ab 08000000 		.4byte	.LVL497
 13684 23af 20000000 		.4byte	.LFE189
 13685 23b3 0400     		.2byte	0x4
 13686 23b5 F3       		.byte	0xf3
 13687 23b6 01       		.uleb128 0x1
 13688 23b7 51       		.byte	0x51
 13689 23b8 9F       		.byte	0x9f
 13690 23b9 00000000 		.4byte	0
 13691 23bd 00000000 		.4byte	0
 13692              	.LLST214:
 13693 23c1 00000000 		.4byte	.LVL494
 13694 23c5 0A000000 		.4byte	.LVL498
 13695 23c9 0100     		.2byte	0x1
 13696 23cb 52       		.byte	0x52
 13697 23cc 0A000000 		.4byte	.LVL498
 13698 23d0 20000000 		.4byte	.LFE189
 13699 23d4 0400     		.2byte	0x4
 13700 23d6 F3       		.byte	0xf3
 13701 23d7 01       		.uleb128 0x1
 13702 23d8 52       		.byte	0x52
 13703 23d9 9F       		.byte	0x9f
 13704 23da 00000000 		.4byte	0
 13705 23de 00000000 		.4byte	0
 13706              	.LLST215:
 13707 23e2 00000000 		.4byte	.LVL494
 13708 23e6 0E000000 		.4byte	.LVL499
 13709 23ea 0100     		.2byte	0x1
 13710 23ec 53       		.byte	0x53
 13711 23ed 0E000000 		.4byte	.LVL499
 13712 23f1 20000000 		.4byte	.LFE189
 13713 23f5 0400     		.2byte	0x4
 13714 23f7 F3       		.byte	0xf3
 13715 23f8 01       		.uleb128 0x1
 13716 23f9 53       		.byte	0x53
 13717 23fa 9F       		.byte	0x9f
 13718 23fb 00000000 		.4byte	0
 13719 23ff 00000000 		.4byte	0
 13720              	.LLST219:
 13721 2403 00000000 		.4byte	.LVL494
 13722 2407 04000000 		.4byte	.LVL495
 13723 240b 0200     		.2byte	0x2
 13724 240d 30       		.byte	0x30
 13725 240e 9F       		.byte	0x9f
 13726 240f 04000000 		.4byte	.LVL495
 13727 2413 06000000 		.4byte	.LVL496
 13728 2417 0600     		.2byte	0x6
 13729 2419 74       		.byte	0x74
ARM GAS  C:\Users\CNous\AppData\Local\Temp\ccZi7tDD.s 			page 310


 13730 241a 00       		.sleb128 0
 13731 241b 08       		.byte	0x8
 13732 241c FF       		.byte	0xff
 13733 241d 1A       		.byte	0x1a
 13734 241e 9F       		.byte	0x9f
 13735 241f 10000000 		.4byte	.LVL500
 13736 2423 1A000000 		.4byte	.LVL501
 13737 2427 0100     		.2byte	0x1
 13738 2429 53       		.byte	0x53
 13739 242a 1A000000 		.4byte	.LVL501
 13740 242e 20000000 		.4byte	.LFE189
 13741 2432 0100     		.2byte	0x1
 13742 2434 54       		.byte	0x54
 13743 2435 00000000 		.4byte	0
 13744 2439 00000000 		.4byte	0
 13745              	.LLST220:
 13746 243d 00000000 		.4byte	.LVL502
 13747 2441 0C000000 		.4byte	.LVL506
 13748 2445 0100     		.2byte	0x1
 13749 2447 51       		.byte	0x51
 13750 2448 0C000000 		.4byte	.LVL506
 13751 244c 10000000 		.4byte	.LFE190
 13752 2450 0400     		.2byte	0x4
 13753 2452 F3       		.byte	0xf3
 13754 2453 01       		.uleb128 0x1
 13755 2454 51       		.byte	0x51
 13756 2455 9F       		.byte	0x9f
 13757 2456 00000000 		.4byte	0
 13758 245a 00000000 		.4byte	0
 13759              	.LLST221:
 13760 245e 00000000 		.4byte	.LVL502
 13761 2462 02000000 		.4byte	.LVL503
 13762 2466 0200     		.2byte	0x2
 13763 2468 30       		.byte	0x30
 13764 2469 9F       		.byte	0x9f
 13765 246a 02000000 		.4byte	.LVL503
 13766 246e 08000000 		.4byte	.LVL504
 13767 2472 0100     		.2byte	0x1
 13768 2474 53       		.byte	0x53
 13769 2475 0A000000 		.4byte	.LVL505
 13770 2479 0C000000 		.4byte	.LVL506
 13771 247d 0100     		.2byte	0x1
 13772 247f 52       		.byte	0x52
 13773 2480 0C000000 		.4byte	.LVL506
 13774 2484 10000000 		.4byte	.LFE190
 13775 2488 0100     		.2byte	0x1
 13776 248a 51       		.byte	0x51
 13777 248b 00000000 		.4byte	0
 13778 248f 00000000 		.4byte	0
 13779              	.LLST222:
 13780 2493 00000000 		.4byte	.LVL507
 13781 2497 12000000 		.4byte	.LVL508
 13782 249b 0100     		.2byte	0x1
 13783 249d 51       		.byte	0x51
 13784 249e 12000000 		.4byte	.LVL508
 13785 24a2 16000000 		.4byte	.LFE191
 13786 24a6 0400     		.2byte	0x4
ARM GAS  C:\Users\CNous\AppData\Local\Temp\ccZi7tDD.s 			page 311


 13787 24a8 F3       		.byte	0xf3
 13788 24a9 01       		.uleb128 0x1
 13789 24aa 51       		.byte	0x51
 13790 24ab 9F       		.byte	0x9f
 13791 24ac 00000000 		.4byte	0
 13792 24b0 00000000 		.4byte	0
 13793              	.LLST223:
 13794 24b4 00000000 		.4byte	.LVL509
 13795 24b8 12000000 		.4byte	.LVL510
 13796 24bc 0100     		.2byte	0x1
 13797 24be 51       		.byte	0x51
 13798 24bf 12000000 		.4byte	.LVL510
 13799 24c3 16000000 		.4byte	.LFE192
 13800 24c7 0400     		.2byte	0x4
 13801 24c9 F3       		.byte	0xf3
 13802 24ca 01       		.uleb128 0x1
 13803 24cb 51       		.byte	0x51
 13804 24cc 9F       		.byte	0x9f
 13805 24cd 00000000 		.4byte	0
 13806 24d1 00000000 		.4byte	0
 13807              	.LLST224:
 13808 24d5 00000000 		.4byte	.LVL511
 13809 24d9 12000000 		.4byte	.LVL512
 13810 24dd 0100     		.2byte	0x1
 13811 24df 51       		.byte	0x51
 13812 24e0 12000000 		.4byte	.LVL512
 13813 24e4 16000000 		.4byte	.LFE193
 13814 24e8 0400     		.2byte	0x4
 13815 24ea F3       		.byte	0xf3
 13816 24eb 01       		.uleb128 0x1
 13817 24ec 51       		.byte	0x51
 13818 24ed 9F       		.byte	0x9f
 13819 24ee 00000000 		.4byte	0
 13820 24f2 00000000 		.4byte	0
 13821              	.LLST225:
 13822 24f6 00000000 		.4byte	.LFB194
 13823 24fa 02000000 		.4byte	.LCFI15
 13824 24fe 0200     		.2byte	0x2
 13825 2500 7D       		.byte	0x7d
 13826 2501 00       		.sleb128 0
 13827 2502 02000000 		.4byte	.LCFI15
 13828 2506 16000000 		.4byte	.LFE194
 13829 250a 0200     		.2byte	0x2
 13830 250c 7D       		.byte	0x7d
 13831 250d 04       		.sleb128 4
 13832 250e 00000000 		.4byte	0
 13833 2512 00000000 		.4byte	0
 13834              	.LLST226:
 13835 2516 00000000 		.4byte	.LVL513
 13836 251a 08000000 		.4byte	.LVL516
 13837 251e 0100     		.2byte	0x1
 13838 2520 51       		.byte	0x51
 13839 2521 08000000 		.4byte	.LVL516
 13840 2525 16000000 		.4byte	.LFE194
 13841 2529 0400     		.2byte	0x4
 13842 252b F3       		.byte	0xf3
 13843 252c 01       		.uleb128 0x1
ARM GAS  C:\Users\CNous\AppData\Local\Temp\ccZi7tDD.s 			page 312


 13844 252d 51       		.byte	0x51
 13845 252e 9F       		.byte	0x9f
 13846 252f 00000000 		.4byte	0
 13847 2533 00000000 		.4byte	0
 13848              	.LLST227:
 13849 2537 00000000 		.4byte	.LVL513
 13850 253b 0A000000 		.4byte	.LVL517
 13851 253f 0100     		.2byte	0x1
 13852 2541 52       		.byte	0x52
 13853 2542 0A000000 		.4byte	.LVL517
 13854 2546 16000000 		.4byte	.LFE194
 13855 254a 0400     		.2byte	0x4
 13856 254c F3       		.byte	0xf3
 13857 254d 01       		.uleb128 0x1
 13858 254e 52       		.byte	0x52
 13859 254f 9F       		.byte	0x9f
 13860 2550 00000000 		.4byte	0
 13861 2554 00000000 		.4byte	0
 13862              	.LLST228:
 13863 2558 00000000 		.4byte	.LVL513
 13864 255c 0E000000 		.4byte	.LVL518
 13865 2560 0100     		.2byte	0x1
 13866 2562 53       		.byte	0x53
 13867 2563 0E000000 		.4byte	.LVL518
 13868 2567 16000000 		.4byte	.LFE194
 13869 256b 0400     		.2byte	0x4
 13870 256d F3       		.byte	0xf3
 13871 256e 01       		.uleb128 0x1
 13872 256f 53       		.byte	0x53
 13873 2570 9F       		.byte	0x9f
 13874 2571 00000000 		.4byte	0
 13875 2575 00000000 		.4byte	0
 13876              	.LLST229:
 13877 2579 00000000 		.4byte	.LVL513
 13878 257d 04000000 		.4byte	.LVL514
 13879 2581 0200     		.2byte	0x2
 13880 2583 30       		.byte	0x30
 13881 2584 9F       		.byte	0x9f
 13882 2585 04000000 		.4byte	.LVL514
 13883 2589 06000000 		.4byte	.LVL515
 13884 258d 0600     		.2byte	0x6
 13885 258f 74       		.byte	0x74
 13886 2590 00       		.sleb128 0
 13887 2591 08       		.byte	0x8
 13888 2592 FF       		.byte	0xff
 13889 2593 1A       		.byte	0x1a
 13890 2594 9F       		.byte	0x9f
 13891 2595 10000000 		.4byte	.LVL519
 13892 2599 16000000 		.4byte	.LFE194
 13893 259d 0100     		.2byte	0x1
 13894 259f 53       		.byte	0x53
 13895 25a0 00000000 		.4byte	0
 13896 25a4 00000000 		.4byte	0
 13897              	.LLST230:
 13898 25a8 00000000 		.4byte	.LFB195
 13899 25ac 02000000 		.4byte	.LCFI16
 13900 25b0 0200     		.2byte	0x2
ARM GAS  C:\Users\CNous\AppData\Local\Temp\ccZi7tDD.s 			page 313


 13901 25b2 7D       		.byte	0x7d
 13902 25b3 00       		.sleb128 0
 13903 25b4 02000000 		.4byte	.LCFI16
 13904 25b8 40000000 		.4byte	.LFE195
 13905 25bc 0200     		.2byte	0x2
 13906 25be 7D       		.byte	0x7d
 13907 25bf 0C       		.sleb128 12
 13908 25c0 00000000 		.4byte	0
 13909 25c4 00000000 		.4byte	0
 13910              	.LLST231:
 13911 25c8 00000000 		.4byte	.LVL520
 13912 25cc 34000000 		.4byte	.LVL530
 13913 25d0 0100     		.2byte	0x1
 13914 25d2 51       		.byte	0x51
 13915 25d3 34000000 		.4byte	.LVL530
 13916 25d7 40000000 		.4byte	.LFE195
 13917 25db 0400     		.2byte	0x4
 13918 25dd F3       		.byte	0xf3
 13919 25de 01       		.uleb128 0x1
 13920 25df 51       		.byte	0x51
 13921 25e0 9F       		.byte	0x9f
 13922 25e1 00000000 		.4byte	0
 13923 25e5 00000000 		.4byte	0
 13924              	.LLST232:
 13925 25e9 00000000 		.4byte	.LVL520
 13926 25ed 22000000 		.4byte	.LVL527
 13927 25f1 0100     		.2byte	0x1
 13928 25f3 52       		.byte	0x52
 13929 25f4 22000000 		.4byte	.LVL527
 13930 25f8 40000000 		.4byte	.LFE195
 13931 25fc 0400     		.2byte	0x4
 13932 25fe F3       		.byte	0xf3
 13933 25ff 01       		.uleb128 0x1
 13934 2600 52       		.byte	0x52
 13935 2601 9F       		.byte	0x9f
 13936 2602 00000000 		.4byte	0
 13937 2606 00000000 		.4byte	0
 13938              	.LLST233:
 13939 260a 00000000 		.4byte	.LVL520
 13940 260e 2E000000 		.4byte	.LVL529
 13941 2612 0100     		.2byte	0x1
 13942 2614 53       		.byte	0x53
 13943 2615 2E000000 		.4byte	.LVL529
 13944 2619 40000000 		.4byte	.LFE195
 13945 261d 0400     		.2byte	0x4
 13946 261f F3       		.byte	0xf3
 13947 2620 01       		.uleb128 0x1
 13948 2621 53       		.byte	0x53
 13949 2622 9F       		.byte	0x9f
 13950 2623 00000000 		.4byte	0
 13951 2627 00000000 		.4byte	0
 13952              	.LLST234:
 13953 262b 00000000 		.4byte	.LVL520
 13954 262f 04000000 		.4byte	.LVL521
 13955 2633 0200     		.2byte	0x2
 13956 2635 30       		.byte	0x30
 13957 2636 9F       		.byte	0x9f
ARM GAS  C:\Users\CNous\AppData\Local\Temp\ccZi7tDD.s 			page 314


 13958 2637 04000000 		.4byte	.LVL521
 13959 263b 1C000000 		.4byte	.LVL526
 13960 263f 0100     		.2byte	0x1
 13961 2641 55       		.byte	0x55
 13962 2642 2A000000 		.4byte	.LVL528
 13963 2646 34000000 		.4byte	.LVL530
 13964 264a 0100     		.2byte	0x1
 13965 264c 55       		.byte	0x55
 13966 264d 34000000 		.4byte	.LVL530
 13967 2651 40000000 		.4byte	.LFE195
 13968 2655 0100     		.2byte	0x1
 13969 2657 51       		.byte	0x51
 13970 2658 00000000 		.4byte	0
 13971 265c 00000000 		.4byte	0
 13972              	.LLST235:
 13973 2660 00000000 		.4byte	.LVL520
 13974 2664 06000000 		.4byte	.LVL522
 13975 2668 0200     		.2byte	0x2
 13976 266a 30       		.byte	0x30
 13977 266b 9F       		.byte	0x9f
 13978 266c 06000000 		.4byte	.LVL522
 13979 2670 0C000000 		.4byte	.LVL524
 13980 2674 0100     		.2byte	0x1
 13981 2676 54       		.byte	0x54
 13982 2677 34000000 		.4byte	.LVL530
 13983 267b 40000000 		.4byte	.LFE195
 13984 267f 0100     		.2byte	0x1
 13985 2681 54       		.byte	0x54
 13986 2682 00000000 		.4byte	0
 13987 2686 00000000 		.4byte	0
 13988              	.LLST236:
 13989 268a 00000000 		.4byte	.LVL520
 13990 268e 08000000 		.4byte	.LVL523
 13991 2692 0200     		.2byte	0x2
 13992 2694 30       		.byte	0x30
 13993 2695 9F       		.byte	0x9f
 13994 2696 08000000 		.4byte	.LVL523
 13995 269a 10000000 		.4byte	.LVL525
 13996 269e 0100     		.2byte	0x1
 13997 26a0 56       		.byte	0x56
 13998 26a1 36000000 		.4byte	.LVL531
 13999 26a5 40000000 		.4byte	.LFE195
 14000 26a9 0100     		.2byte	0x1
 14001 26ab 53       		.byte	0x53
 14002 26ac 00000000 		.4byte	0
 14003 26b0 00000000 		.4byte	0
 14004              	.LLST237:
 14005 26b4 00000000 		.4byte	.LVL532
 14006 26b8 08000000 		.4byte	.LVL533
 14007 26bc 0100     		.2byte	0x1
 14008 26be 51       		.byte	0x51
 14009 26bf 08000000 		.4byte	.LVL533
 14010 26c3 10000000 		.4byte	.LVL534
 14011 26c7 0400     		.2byte	0x4
 14012 26c9 F3       		.byte	0xf3
 14013 26ca 01       		.uleb128 0x1
 14014 26cb 51       		.byte	0x51
ARM GAS  C:\Users\CNous\AppData\Local\Temp\ccZi7tDD.s 			page 315


 14015 26cc 9F       		.byte	0x9f
 14016 26cd 10000000 		.4byte	.LVL534
 14017 26d1 12000000 		.4byte	.LVL535
 14018 26d5 0100     		.2byte	0x1
 14019 26d7 51       		.byte	0x51
 14020 26d8 12000000 		.4byte	.LVL535
 14021 26dc 1A000000 		.4byte	.LFE196
 14022 26e0 0400     		.2byte	0x4
 14023 26e2 F3       		.byte	0xf3
 14024 26e3 01       		.uleb128 0x1
 14025 26e4 51       		.byte	0x51
 14026 26e5 9F       		.byte	0x9f
 14027 26e6 00000000 		.4byte	0
 14028 26ea 00000000 		.4byte	0
 14029              		.section	.debug_aranges,"",%progbits
 14030 0000 D4020000 		.4byte	0x2d4
 14031 0004 0200     		.2byte	0x2
 14032 0006 00000000 		.4byte	.Ldebug_info0
 14033 000a 04       		.byte	0x4
 14034 000b 00       		.byte	0
 14035 000c 0000     		.2byte	0
 14036 000e 0000     		.2byte	0
 14037 0010 00000000 		.4byte	.LFB110
 14038 0014 D4010000 		.4byte	.LFE110-.LFB110
 14039 0018 00000000 		.4byte	.LFB111
 14040 001c AE000000 		.4byte	.LFE111-.LFB111
 14041 0020 00000000 		.4byte	.LFB112
 14042 0024 12000000 		.4byte	.LFE112-.LFB112
 14043 0028 00000000 		.4byte	.LFB113
 14044 002c 06000000 		.4byte	.LFE113-.LFB113
 14045 0030 00000000 		.4byte	.LFB114
 14046 0034 10000000 		.4byte	.LFE114-.LFB114
 14047 0038 00000000 		.4byte	.LFB115
 14048 003c 04000000 		.4byte	.LFE115-.LFB115
 14049 0040 00000000 		.4byte	.LFB116
 14050 0044 04000000 		.4byte	.LFE116-.LFB116
 14051 0048 00000000 		.4byte	.LFB117
 14052 004c 04000000 		.4byte	.LFE117-.LFB117
 14053 0050 00000000 		.4byte	.LFB118
 14054 0054 06000000 		.4byte	.LFE118-.LFB118
 14055 0058 00000000 		.4byte	.LFB119
 14056 005c 1A000000 		.4byte	.LFE119-.LFB119
 14057 0060 00000000 		.4byte	.LFB120
 14058 0064 1A000000 		.4byte	.LFE120-.LFB120
 14059 0068 00000000 		.4byte	.LFB121
 14060 006c 1A000000 		.4byte	.LFE121-.LFB121
 14061 0070 00000000 		.4byte	.LFB122
 14062 0074 16000000 		.4byte	.LFE122-.LFB122
 14063 0078 00000000 		.4byte	.LFB123
 14064 007c 16000000 		.4byte	.LFE123-.LFB123
 14065 0080 00000000 		.4byte	.LFB124
 14066 0084 1A000000 		.4byte	.LFE124-.LFB124
 14067 0088 00000000 		.4byte	.LFB125
 14068 008c 94000000 		.4byte	.LFE125-.LFB125
 14069 0090 00000000 		.4byte	.LFB126
 14070 0094 9A000000 		.4byte	.LFE126-.LFB126
 14071 0098 00000000 		.4byte	.LFB127
ARM GAS  C:\Users\CNous\AppData\Local\Temp\ccZi7tDD.s 			page 316


 14072 009c 98000000 		.4byte	.LFE127-.LFB127
 14073 00a0 00000000 		.4byte	.LFB128
 14074 00a4 72000000 		.4byte	.LFE128-.LFB128
 14075 00a8 00000000 		.4byte	.LFB129
 14076 00ac 14000000 		.4byte	.LFE129-.LFB129
 14077 00b0 00000000 		.4byte	.LFB130
 14078 00b4 4E000000 		.4byte	.LFE130-.LFB130
 14079 00b8 00000000 		.4byte	.LFB131
 14080 00bc 04000000 		.4byte	.LFE131-.LFB131
 14081 00c0 00000000 		.4byte	.LFB132
 14082 00c4 04000000 		.4byte	.LFE132-.LFB132
 14083 00c8 00000000 		.4byte	.LFB133
 14084 00cc 04000000 		.4byte	.LFE133-.LFB133
 14085 00d0 00000000 		.4byte	.LFB134
 14086 00d4 04000000 		.4byte	.LFE134-.LFB134
 14087 00d8 00000000 		.4byte	.LFB135
 14088 00dc 10000000 		.4byte	.LFE135-.LFB135
 14089 00e0 00000000 		.4byte	.LFB136
 14090 00e4 14000000 		.4byte	.LFE136-.LFB136
 14091 00e8 00000000 		.4byte	.LFB137
 14092 00ec 10000000 		.4byte	.LFE137-.LFB137
 14093 00f0 00000000 		.4byte	.LFB138
 14094 00f4 14000000 		.4byte	.LFE138-.LFB138
 14095 00f8 00000000 		.4byte	.LFB139
 14096 00fc 10000000 		.4byte	.LFE139-.LFB139
 14097 0100 00000000 		.4byte	.LFB140
 14098 0104 14000000 		.4byte	.LFE140-.LFB140
 14099 0108 00000000 		.4byte	.LFB141
 14100 010c 10000000 		.4byte	.LFE141-.LFB141
 14101 0110 00000000 		.4byte	.LFB142
 14102 0114 14000000 		.4byte	.LFE142-.LFB142
 14103 0118 00000000 		.4byte	.LFB143
 14104 011c 10000000 		.4byte	.LFE143-.LFB143
 14105 0120 00000000 		.4byte	.LFB144
 14106 0124 14000000 		.4byte	.LFE144-.LFB144
 14107 0128 00000000 		.4byte	.LFB145
 14108 012c 10000000 		.4byte	.LFE145-.LFB145
 14109 0130 00000000 		.4byte	.LFB146
 14110 0134 14000000 		.4byte	.LFE146-.LFB146
 14111 0138 00000000 		.4byte	.LFB147
 14112 013c 10000000 		.4byte	.LFE147-.LFB147
 14113 0140 00000000 		.4byte	.LFB148
 14114 0144 10000000 		.4byte	.LFE148-.LFB148
 14115 0148 00000000 		.4byte	.LFB149
 14116 014c 10000000 		.4byte	.LFE149-.LFB149
 14117 0150 00000000 		.4byte	.LFB150
 14118 0154 10000000 		.4byte	.LFE150-.LFB150
 14119 0158 00000000 		.4byte	.LFB151
 14120 015c 10000000 		.4byte	.LFE151-.LFB151
 14121 0160 00000000 		.4byte	.LFB152
 14122 0164 10000000 		.4byte	.LFE152-.LFB152
 14123 0168 00000000 		.4byte	.LFB153
 14124 016c 14000000 		.4byte	.LFE153-.LFB153
 14125 0170 00000000 		.4byte	.LFB154
 14126 0174 14000000 		.4byte	.LFE154-.LFB154
 14127 0178 00000000 		.4byte	.LFB155
 14128 017c 14000000 		.4byte	.LFE155-.LFB155
ARM GAS  C:\Users\CNous\AppData\Local\Temp\ccZi7tDD.s 			page 317


 14129 0180 00000000 		.4byte	.LFB156
 14130 0184 14000000 		.4byte	.LFE156-.LFB156
 14131 0188 00000000 		.4byte	.LFB157
 14132 018c 14000000 		.4byte	.LFE157-.LFB157
 14133 0190 00000000 		.4byte	.LFB158
 14134 0194 24000000 		.4byte	.LFE158-.LFB158
 14135 0198 00000000 		.4byte	.LFB159
 14136 019c 24000000 		.4byte	.LFE159-.LFB159
 14137 01a0 00000000 		.4byte	.LFB160
 14138 01a4 6A010000 		.4byte	.LFE160-.LFB160
 14139 01a8 00000000 		.4byte	.LFB161
 14140 01ac 10000000 		.4byte	.LFE161-.LFB161
 14141 01b0 00000000 		.4byte	.LFB162
 14142 01b4 64010000 		.4byte	.LFE162-.LFB162
 14143 01b8 00000000 		.4byte	.LFB163
 14144 01bc 04000000 		.4byte	.LFE163-.LFB163
 14145 01c0 00000000 		.4byte	.LFB164
 14146 01c4 04000000 		.4byte	.LFE164-.LFB164
 14147 01c8 00000000 		.4byte	.LFB165
 14148 01cc 04000000 		.4byte	.LFE165-.LFB165
 14149 01d0 00000000 		.4byte	.LFB166
 14150 01d4 04000000 		.4byte	.LFE166-.LFB166
 14151 01d8 00000000 		.4byte	.LFB167
 14152 01dc 16000000 		.4byte	.LFE167-.LFB167
 14153 01e0 00000000 		.4byte	.LFB168
 14154 01e4 1A000000 		.4byte	.LFE168-.LFB168
 14155 01e8 00000000 		.4byte	.LFB169
 14156 01ec 16000000 		.4byte	.LFE169-.LFB169
 14157 01f0 00000000 		.4byte	.LFB170
 14158 01f4 1A000000 		.4byte	.LFE170-.LFB170
 14159 01f8 00000000 		.4byte	.LFB171
 14160 01fc 2A000000 		.4byte	.LFE171-.LFB171
 14161 0200 00000000 		.4byte	.LFB172
 14162 0204 12000000 		.4byte	.LFE172-.LFB172
 14163 0208 00000000 		.4byte	.LFB173
 14164 020c 20000000 		.4byte	.LFE173-.LFB173
 14165 0210 00000000 		.4byte	.LFB174
 14166 0214 1A000000 		.4byte	.LFE174-.LFB174
 14167 0218 00000000 		.4byte	.LFB175
 14168 021c 1A000000 		.4byte	.LFE175-.LFB175
 14169 0220 00000000 		.4byte	.LFB176
 14170 0224 14000000 		.4byte	.LFE176-.LFB176
 14171 0228 00000000 		.4byte	.LFB177
 14172 022c 04000000 		.4byte	.LFE177-.LFB177
 14173 0230 00000000 		.4byte	.LFB178
 14174 0234 0C000000 		.4byte	.LFE178-.LFB178
 14175 0238 00000000 		.4byte	.LFB179
 14176 023c 08000000 		.4byte	.LFE179-.LFB179
 14177 0240 00000000 		.4byte	.LFB180
 14178 0244 16000000 		.4byte	.LFE180-.LFB180
 14179 0248 00000000 		.4byte	.LFB181
 14180 024c 08000000 		.4byte	.LFE181-.LFB181
 14181 0250 00000000 		.4byte	.LFB182
 14182 0254 08000000 		.4byte	.LFE182-.LFB182
 14183 0258 00000000 		.4byte	.LFB183
 14184 025c 14000000 		.4byte	.LFE183-.LFB183
 14185 0260 00000000 		.4byte	.LFB184
ARM GAS  C:\Users\CNous\AppData\Local\Temp\ccZi7tDD.s 			page 318


 14186 0264 1A000000 		.4byte	.LFE184-.LFB184
 14187 0268 00000000 		.4byte	.LFB185
 14188 026c 0E000000 		.4byte	.LFE185-.LFB185
 14189 0270 00000000 		.4byte	.LFB186
 14190 0274 1A000000 		.4byte	.LFE186-.LFB186
 14191 0278 00000000 		.4byte	.LFB187
 14192 027c 90000000 		.4byte	.LFE187-.LFB187
 14193 0280 00000000 		.4byte	.LFB188
 14194 0284 26000000 		.4byte	.LFE188-.LFB188
 14195 0288 00000000 		.4byte	.LFB189
 14196 028c 20000000 		.4byte	.LFE189-.LFB189
 14197 0290 00000000 		.4byte	.LFB190
 14198 0294 10000000 		.4byte	.LFE190-.LFB190
 14199 0298 00000000 		.4byte	.LFB191
 14200 029c 16000000 		.4byte	.LFE191-.LFB191
 14201 02a0 00000000 		.4byte	.LFB192
 14202 02a4 16000000 		.4byte	.LFE192-.LFB192
 14203 02a8 00000000 		.4byte	.LFB193
 14204 02ac 16000000 		.4byte	.LFE193-.LFB193
 14205 02b0 00000000 		.4byte	.LFB194
 14206 02b4 16000000 		.4byte	.LFE194-.LFB194
 14207 02b8 00000000 		.4byte	.LFB195
 14208 02bc 40000000 		.4byte	.LFE195-.LFB195
 14209 02c0 00000000 		.4byte	.LFB196
 14210 02c4 1A000000 		.4byte	.LFE196-.LFB196
 14211 02c8 00000000 		.4byte	.LFB197
 14212 02cc 06000000 		.4byte	.LFE197-.LFB197
 14213 02d0 00000000 		.4byte	0
 14214 02d4 00000000 		.4byte	0
 14215              		.section	.debug_ranges,"",%progbits
 14216              	.Ldebug_ranges0:
 14217 0000 0E000000 		.4byte	.LBB46
 14218 0004 10000000 		.4byte	.LBE46
 14219 0008 1A010000 		.4byte	.LBB66
 14220 000c 20010000 		.4byte	.LBE66
 14221 0010 26010000 		.4byte	.LBB67
 14222 0014 54010000 		.4byte	.LBE67
 14223 0018 00000000 		.4byte	0
 14224 001c 00000000 		.4byte	0
 14225 0020 0E000000 		.4byte	.LBB47
 14226 0024 10000000 		.4byte	.LBE47
 14227 0028 1A010000 		.4byte	.LBB48
 14228 002c 20010000 		.4byte	.LBE48
 14229 0030 26010000 		.4byte	.LBB49
 14230 0034 54010000 		.4byte	.LBE49
 14231 0038 00000000 		.4byte	0
 14232 003c 00000000 		.4byte	0
 14233 0040 6E000000 		.4byte	.LBB54
 14234 0044 70000000 		.4byte	.LBE54
 14235 0048 78000000 		.4byte	.LBB57
 14236 004c A8000000 		.4byte	.LBE57
 14237 0050 00000000 		.4byte	0
 14238 0054 00000000 		.4byte	0
 14239 0058 6E000000 		.4byte	.LBB55
 14240 005c 70000000 		.4byte	.LBE55
 14241 0060 78000000 		.4byte	.LBB56
 14242 0064 A8000000 		.4byte	.LBE56
ARM GAS  C:\Users\CNous\AppData\Local\Temp\ccZi7tDD.s 			page 319


 14243 0068 00000000 		.4byte	0
 14244 006c 00000000 		.4byte	0
 14245 0070 BE000000 		.4byte	.LBB60
 14246 0074 C0000000 		.4byte	.LBE60
 14247 0078 C8000000 		.4byte	.LBB63
 14248 007c 00010000 		.4byte	.LBE63
 14249 0080 00000000 		.4byte	0
 14250 0084 00000000 		.4byte	0
 14251 0088 BE000000 		.4byte	.LBB61
 14252 008c C0000000 		.4byte	.LBE61
 14253 0090 C8000000 		.4byte	.LBB62
 14254 0094 00010000 		.4byte	.LBE62
 14255 0098 00000000 		.4byte	0
 14256 009c 00000000 		.4byte	0
 14257 00a0 1E000000 		.4byte	.LBB70
 14258 00a4 20000000 		.4byte	.LBE70
 14259 00a8 28000000 		.4byte	.LBB73
 14260 00ac 60000000 		.4byte	.LBE73
 14261 00b0 00000000 		.4byte	0
 14262 00b4 00000000 		.4byte	0
 14263 00b8 1E000000 		.4byte	.LBB71
 14264 00bc 20000000 		.4byte	.LBE71
 14265 00c0 28000000 		.4byte	.LBB72
 14266 00c4 60000000 		.4byte	.LBE72
 14267 00c8 00000000 		.4byte	0
 14268 00cc 00000000 		.4byte	0
 14269 00d0 C8000000 		.4byte	.LBB80
 14270 00d4 CA000000 		.4byte	.LBE80
 14271 00d8 D0000000 		.4byte	.LBB83
 14272 00dc 00010000 		.4byte	.LBE83
 14273 00e0 00000000 		.4byte	0
 14274 00e4 00000000 		.4byte	0
 14275 00e8 C8000000 		.4byte	.LBB81
 14276 00ec CA000000 		.4byte	.LBE81
 14277 00f0 D0000000 		.4byte	.LBB82
 14278 00f4 00010000 		.4byte	.LBE82
 14279 00f8 00000000 		.4byte	0
 14280 00fc 00000000 		.4byte	0
 14281 0100 00000000 		.4byte	.LFB110
 14282 0104 D4010000 		.4byte	.LFE110
 14283 0108 00000000 		.4byte	.LFB111
 14284 010c AE000000 		.4byte	.LFE111
 14285 0110 00000000 		.4byte	.LFB112
 14286 0114 12000000 		.4byte	.LFE112
 14287 0118 00000000 		.4byte	.LFB113
 14288 011c 06000000 		.4byte	.LFE113
 14289 0120 00000000 		.4byte	.LFB114
 14290 0124 10000000 		.4byte	.LFE114
 14291 0128 00000000 		.4byte	.LFB115
 14292 012c 04000000 		.4byte	.LFE115
 14293 0130 00000000 		.4byte	.LFB116
 14294 0134 04000000 		.4byte	.LFE116
 14295 0138 00000000 		.4byte	.LFB117
 14296 013c 04000000 		.4byte	.LFE117
 14297 0140 00000000 		.4byte	.LFB118
 14298 0144 06000000 		.4byte	.LFE118
 14299 0148 00000000 		.4byte	.LFB119
ARM GAS  C:\Users\CNous\AppData\Local\Temp\ccZi7tDD.s 			page 320


 14300 014c 1A000000 		.4byte	.LFE119
 14301 0150 00000000 		.4byte	.LFB120
 14302 0154 1A000000 		.4byte	.LFE120
 14303 0158 00000000 		.4byte	.LFB121
 14304 015c 1A000000 		.4byte	.LFE121
 14305 0160 00000000 		.4byte	.LFB122
 14306 0164 16000000 		.4byte	.LFE122
 14307 0168 00000000 		.4byte	.LFB123
 14308 016c 16000000 		.4byte	.LFE123
 14309 0170 00000000 		.4byte	.LFB124
 14310 0174 1A000000 		.4byte	.LFE124
 14311 0178 00000000 		.4byte	.LFB125
 14312 017c 94000000 		.4byte	.LFE125
 14313 0180 00000000 		.4byte	.LFB126
 14314 0184 9A000000 		.4byte	.LFE126
 14315 0188 00000000 		.4byte	.LFB127
 14316 018c 98000000 		.4byte	.LFE127
 14317 0190 00000000 		.4byte	.LFB128
 14318 0194 72000000 		.4byte	.LFE128
 14319 0198 00000000 		.4byte	.LFB129
 14320 019c 14000000 		.4byte	.LFE129
 14321 01a0 00000000 		.4byte	.LFB130
 14322 01a4 4E000000 		.4byte	.LFE130
 14323 01a8 00000000 		.4byte	.LFB131
 14324 01ac 04000000 		.4byte	.LFE131
 14325 01b0 00000000 		.4byte	.LFB132
 14326 01b4 04000000 		.4byte	.LFE132
 14327 01b8 00000000 		.4byte	.LFB133
 14328 01bc 04000000 		.4byte	.LFE133
 14329 01c0 00000000 		.4byte	.LFB134
 14330 01c4 04000000 		.4byte	.LFE134
 14331 01c8 00000000 		.4byte	.LFB135
 14332 01cc 10000000 		.4byte	.LFE135
 14333 01d0 00000000 		.4byte	.LFB136
 14334 01d4 14000000 		.4byte	.LFE136
 14335 01d8 00000000 		.4byte	.LFB137
 14336 01dc 10000000 		.4byte	.LFE137
 14337 01e0 00000000 		.4byte	.LFB138
 14338 01e4 14000000 		.4byte	.LFE138
 14339 01e8 00000000 		.4byte	.LFB139
 14340 01ec 10000000 		.4byte	.LFE139
 14341 01f0 00000000 		.4byte	.LFB140
 14342 01f4 14000000 		.4byte	.LFE140
 14343 01f8 00000000 		.4byte	.LFB141
 14344 01fc 10000000 		.4byte	.LFE141
 14345 0200 00000000 		.4byte	.LFB142
 14346 0204 14000000 		.4byte	.LFE142
 14347 0208 00000000 		.4byte	.LFB143
 14348 020c 10000000 		.4byte	.LFE143
 14349 0210 00000000 		.4byte	.LFB144
 14350 0214 14000000 		.4byte	.LFE144
 14351 0218 00000000 		.4byte	.LFB145
 14352 021c 10000000 		.4byte	.LFE145
 14353 0220 00000000 		.4byte	.LFB146
 14354 0224 14000000 		.4byte	.LFE146
 14355 0228 00000000 		.4byte	.LFB147
 14356 022c 10000000 		.4byte	.LFE147
ARM GAS  C:\Users\CNous\AppData\Local\Temp\ccZi7tDD.s 			page 321


 14357 0230 00000000 		.4byte	.LFB148
 14358 0234 10000000 		.4byte	.LFE148
 14359 0238 00000000 		.4byte	.LFB149
 14360 023c 10000000 		.4byte	.LFE149
 14361 0240 00000000 		.4byte	.LFB150
 14362 0244 10000000 		.4byte	.LFE150
 14363 0248 00000000 		.4byte	.LFB151
 14364 024c 10000000 		.4byte	.LFE151
 14365 0250 00000000 		.4byte	.LFB152
 14366 0254 10000000 		.4byte	.LFE152
 14367 0258 00000000 		.4byte	.LFB153
 14368 025c 14000000 		.4byte	.LFE153
 14369 0260 00000000 		.4byte	.LFB154
 14370 0264 14000000 		.4byte	.LFE154
 14371 0268 00000000 		.4byte	.LFB155
 14372 026c 14000000 		.4byte	.LFE155
 14373 0270 00000000 		.4byte	.LFB156
 14374 0274 14000000 		.4byte	.LFE156
 14375 0278 00000000 		.4byte	.LFB157
 14376 027c 14000000 		.4byte	.LFE157
 14377 0280 00000000 		.4byte	.LFB158
 14378 0284 24000000 		.4byte	.LFE158
 14379 0288 00000000 		.4byte	.LFB159
 14380 028c 24000000 		.4byte	.LFE159
 14381 0290 00000000 		.4byte	.LFB160
 14382 0294 6A010000 		.4byte	.LFE160
 14383 0298 00000000 		.4byte	.LFB161
 14384 029c 10000000 		.4byte	.LFE161
 14385 02a0 00000000 		.4byte	.LFB162
 14386 02a4 64010000 		.4byte	.LFE162
 14387 02a8 00000000 		.4byte	.LFB163
 14388 02ac 04000000 		.4byte	.LFE163
 14389 02b0 00000000 		.4byte	.LFB164
 14390 02b4 04000000 		.4byte	.LFE164
 14391 02b8 00000000 		.4byte	.LFB165
 14392 02bc 04000000 		.4byte	.LFE165
 14393 02c0 00000000 		.4byte	.LFB166
 14394 02c4 04000000 		.4byte	.LFE166
 14395 02c8 00000000 		.4byte	.LFB167
 14396 02cc 16000000 		.4byte	.LFE167
 14397 02d0 00000000 		.4byte	.LFB168
 14398 02d4 1A000000 		.4byte	.LFE168
 14399 02d8 00000000 		.4byte	.LFB169
 14400 02dc 16000000 		.4byte	.LFE169
 14401 02e0 00000000 		.4byte	.LFB170
 14402 02e4 1A000000 		.4byte	.LFE170
 14403 02e8 00000000 		.4byte	.LFB171
 14404 02ec 2A000000 		.4byte	.LFE171
 14405 02f0 00000000 		.4byte	.LFB172
 14406 02f4 12000000 		.4byte	.LFE172
 14407 02f8 00000000 		.4byte	.LFB173
 14408 02fc 20000000 		.4byte	.LFE173
 14409 0300 00000000 		.4byte	.LFB174
 14410 0304 1A000000 		.4byte	.LFE174
 14411 0308 00000000 		.4byte	.LFB175
 14412 030c 1A000000 		.4byte	.LFE175
 14413 0310 00000000 		.4byte	.LFB176
ARM GAS  C:\Users\CNous\AppData\Local\Temp\ccZi7tDD.s 			page 322


 14414 0314 14000000 		.4byte	.LFE176
 14415 0318 00000000 		.4byte	.LFB177
 14416 031c 04000000 		.4byte	.LFE177
 14417 0320 00000000 		.4byte	.LFB178
 14418 0324 0C000000 		.4byte	.LFE178
 14419 0328 00000000 		.4byte	.LFB179
 14420 032c 08000000 		.4byte	.LFE179
 14421 0330 00000000 		.4byte	.LFB180
 14422 0334 16000000 		.4byte	.LFE180
 14423 0338 00000000 		.4byte	.LFB181
 14424 033c 08000000 		.4byte	.LFE181
 14425 0340 00000000 		.4byte	.LFB182
 14426 0344 08000000 		.4byte	.LFE182
 14427 0348 00000000 		.4byte	.LFB183
 14428 034c 14000000 		.4byte	.LFE183
 14429 0350 00000000 		.4byte	.LFB184
 14430 0354 1A000000 		.4byte	.LFE184
 14431 0358 00000000 		.4byte	.LFB185
 14432 035c 0E000000 		.4byte	.LFE185
 14433 0360 00000000 		.4byte	.LFB186
 14434 0364 1A000000 		.4byte	.LFE186
 14435 0368 00000000 		.4byte	.LFB187
 14436 036c 90000000 		.4byte	.LFE187
 14437 0370 00000000 		.4byte	.LFB188
 14438 0374 26000000 		.4byte	.LFE188
 14439 0378 00000000 		.4byte	.LFB189
 14440 037c 20000000 		.4byte	.LFE189
 14441 0380 00000000 		.4byte	.LFB190
 14442 0384 10000000 		.4byte	.LFE190
 14443 0388 00000000 		.4byte	.LFB191
 14444 038c 16000000 		.4byte	.LFE191
 14445 0390 00000000 		.4byte	.LFB192
 14446 0394 16000000 		.4byte	.LFE192
 14447 0398 00000000 		.4byte	.LFB193
 14448 039c 16000000 		.4byte	.LFE193
 14449 03a0 00000000 		.4byte	.LFB194
 14450 03a4 16000000 		.4byte	.LFE194
 14451 03a8 00000000 		.4byte	.LFB195
 14452 03ac 40000000 		.4byte	.LFE195
 14453 03b0 00000000 		.4byte	.LFB196
 14454 03b4 1A000000 		.4byte	.LFE196
 14455 03b8 00000000 		.4byte	.LFB197
 14456 03bc 06000000 		.4byte	.LFE197
 14457 03c0 00000000 		.4byte	0
 14458 03c4 00000000 		.4byte	0
 14459              		.section	.debug_line,"",%progbits
 14460              	.Ldebug_line0:
 14461 0000 540B0000 		.section	.debug_str,"MS",%progbits,1
 14461      02000501 
 14461      00000201 
 14461      FB0E0D00 
 14461      01010101 
 14462              	.LASF117:
 14463 0000 54494D5F 		.ascii	"TIM_OPMode\000"
 14463      4F504D6F 
 14463      646500
 14464              	.LASF112:
ARM GAS  C:\Users\CNous\AppData\Local\Temp\ccZi7tDD.s 			page 323


 14465 000b 4E657753 		.ascii	"NewState\000"
 14465      74617465 
 14465      00
 14466              	.LASF141:
 14467 0014 54494D5F 		.ascii	"TIM_ForcedOC2Config\000"
 14467      466F7263 
 14467      65644F43 
 14467      32436F6E 
 14467      66696700 
 14468              	.LASF116:
 14469 0028 54494D5F 		.ascii	"TIM_SelectOnePulseMode\000"
 14469      53656C65 
 14469      63744F6E 
 14469      6550756C 
 14469      73654D6F 
 14470              	.LASF201:
 14471 003f 54494D5F 		.ascii	"TIM_DMACmd\000"
 14471      444D4143 
 14471      6D6400
 14472              	.LASF24:
 14473 004a 44494552 		.ascii	"DIER\000"
 14473      00
 14474              	.LASF140:
 14475 004f 54494D5F 		.ascii	"TIM_ForcedAction\000"
 14475      466F7263 
 14475      65644163 
 14475      74696F6E 
 14475      00
 14476              	.LASF90:
 14477 0060 54494D5F 		.ascii	"TIM_InputTriggerSource\000"
 14477      496E7075 
 14477      74547269 
 14477      67676572 
 14477      536F7572 
 14478              	.LASF212:
 14479 0077 54494D5F 		.ascii	"TIM_TRGOSource\000"
 14479      5452474F 
 14479      536F7572 
 14479      636500
 14480              	.LASF48:
 14481 0086 54494D5F 		.ascii	"TIM_CounterMode\000"
 14481      436F756E 
 14481      7465724D 
 14481      6F646500 
 14482              	.LASF108:
 14483 0096 4175746F 		.ascii	"Autoreload\000"
 14483      72656C6F 
 14483      616400
 14484              	.LASF143:
 14485 00a1 54494D5F 		.ascii	"TIM_ForcedOC4Config\000"
 14485      466F7263 
 14485      65644F43 
 14485      34436F6E 
 14485      66696700 
 14486              	.LASF154:
 14487 00b5 54494D5F 		.ascii	"TIM_ClearOC1Ref\000"
 14487      436C6561 
ARM GAS  C:\Users\CNous\AppData\Local\Temp\ccZi7tDD.s 			page 324


 14487      724F4331 
 14487      52656600 
 14488              	.LASF15:
 14489 00c5 466C6167 		.ascii	"FlagStatus\000"
 14489      53746174 
 14489      757300
 14490              	.LASF191:
 14491 00d0 54494D5F 		.ascii	"TIM_FLAG\000"
 14491      464C4147 
 14491      00
 14492              	.LASF132:
 14493 00d9 436F6D70 		.ascii	"Compare1\000"
 14493      61726531 
 14493      00
 14494              	.LASF131:
 14495 00e2 54494D5F 		.ascii	"TIM_SetCompare1\000"
 14495      53657443 
 14495      6F6D7061 
 14495      72653100 
 14496              	.LASF220:
 14497 00f2 54494D5F 		.ascii	"TIM_IC2Polarity\000"
 14497      49433250 
 14497      6F6C6172 
 14497      69747900 
 14498              	.LASF111:
 14499 0102 54494D5F 		.ascii	"TIM_UpdateDisableConfig\000"
 14499      55706461 
 14499      74654469 
 14499      7361626C 
 14499      65436F6E 
 14500              	.LASF136:
 14501 011a 436F6D70 		.ascii	"Compare3\000"
 14501      61726533 
 14501      00
 14502              	.LASF56:
 14503 0123 54494D5F 		.ascii	"TIM_Pulse\000"
 14503      50756C73 
 14503      6500
 14504              	.LASF224:
 14505 012d 5243435F 		.ascii	"RCC_APB1PeriphResetCmd\000"
 14505      41504231 
 14505      50657269 
 14505      70685265 
 14505      73657443 
 14506              	.LASF77:
 14507 0144 746D7063 		.ascii	"tmpccmr1\000"
 14507      636D7231 
 14507      00
 14508              	.LASF85:
 14509 014d 746D7063 		.ascii	"tmpccmr2\000"
 14509      636D7232 
 14509      00
 14510              	.LASF17:
 14511 0156 44495341 		.ascii	"DISABLE\000"
 14511      424C4500 
 14512              	.LASF124:
 14513 015e 746D7063 		.ascii	"tmpcr2\000"
ARM GAS  C:\Users\CNous\AppData\Local\Temp\ccZi7tDD.s 			page 325


 14513      723200
 14514              	.LASF89:
 14515 0165 54494D5F 		.ascii	"TIM_SelectInputTrigger\000"
 14515      53656C65 
 14515      6374496E 
 14515      70757454 
 14515      72696767 
 14516              	.LASF37:
 14517 017c 43435232 		.ascii	"CCR2\000"
 14517      00
 14518              	.LASF66:
 14519 0181 54494D5F 		.ascii	"TIM_ICFilter\000"
 14519      49434669 
 14519      6C746572 
 14519      00
 14520              	.LASF204:
 14521 018e 54494D5F 		.ascii	"TIM_InternalClockConfig\000"
 14521      496E7465 
 14521      726E616C 
 14521      436C6F63 
 14521      6B436F6E 
 14522              	.LASF161:
 14523 01a6 54494D5F 		.ascii	"TIM_OC2PolarityConfig\000"
 14523      4F433250 
 14523      6F6C6172 
 14523      69747943 
 14523      6F6E6669 
 14524              	.LASF115:
 14525 01bc 54494D5F 		.ascii	"TIM_ARRPreloadConfig\000"
 14525      41525250 
 14525      72656C6F 
 14525      6164436F 
 14525      6E666967 
 14526              	.LASF228:
 14527 01d1 49544D5F 		.ascii	"ITM_RxBuffer\000"
 14527      52784275 
 14527      66666572 
 14527      00
 14528              	.LASF64:
 14529 01de 54494D5F 		.ascii	"TIM_ICSelection\000"
 14529      49435365 
 14529      6C656374 
 14529      696F6E00 
 14530              	.LASF130:
 14531 01ee 746D7031 		.ascii	"tmp1\000"
 14531      00
 14532              	.LASF217:
 14533 01f3 54494D5F 		.ascii	"TIM_EncoderInterfaceConfig\000"
 14533      456E636F 
 14533      64657249 
 14533      6E746572 
 14533      66616365 
 14534              	.LASF146:
 14535 020e 54494D5F 		.ascii	"TIM_OC2PreloadConfig\000"
 14535      4F433250 
 14535      72656C6F 
 14535      6164436F 
ARM GAS  C:\Users\CNous\AppData\Local\Temp\ccZi7tDD.s 			page 326


 14535      6E666967 
 14536              	.LASF188:
 14537 0223 54494D5F 		.ascii	"TIM_GenerateEvent\000"
 14537      47656E65 
 14537      72617465 
 14537      4576656E 
 14537      7400
 14538              	.LASF219:
 14539 0235 54494D5F 		.ascii	"TIM_IC1Polarity\000"
 14539      49433150 
 14539      6F6C6172 
 14539      69747900 
 14540              	.LASF150:
 14541 0245 54494D5F 		.ascii	"TIM_OCFast\000"
 14541      4F434661 
 14541      737400
 14542              	.LASF62:
 14543 0250 54494D5F 		.ascii	"TIM_Channel\000"
 14543      4368616E 
 14543      6E656C00 
 14544              	.LASF28:
 14545 025c 43434D52 		.ascii	"CCMR1\000"
 14545      3100
 14546              	.LASF30:
 14547 0262 43434D52 		.ascii	"CCMR2\000"
 14547      3200
 14548              	.LASF103:
 14549 0268 54494D5F 		.ascii	"TIM_CounterModeConfig\000"
 14549      436F756E 
 14549      7465724D 
 14549      6F646543 
 14549      6F6E6669 
 14550              	.LASF0:
 14551 027e 7369676E 		.ascii	"signed char\000"
 14551      65642063 
 14551      68617200 
 14552              	.LASF198:
 14553 028a 54494D5F 		.ascii	"TIM_DMAConfig\000"
 14553      444D4143 
 14553      6F6E6669 
 14553      6700
 14554              	.LASF166:
 14555 0298 54494D5F 		.ascii	"TIM_CCxCmd\000"
 14555      43437843 
 14555      6D6400
 14556              	.LASF11:
 14557 02a3 6C6F6E67 		.ascii	"long long unsigned int\000"
 14557      206C6F6E 
 14557      6720756E 
 14557      7369676E 
 14557      65642069 
 14558              	.LASF145:
 14559 02ba 54494D5F 		.ascii	"TIM_OCPreload\000"
 14559      4F435072 
 14559      656C6F61 
 14559      6400
 14560              	.LASF35:
ARM GAS  C:\Users\CNous\AppData\Local\Temp\ccZi7tDD.s 			page 327


 14561 02c8 52455345 		.ascii	"RESERVED10\000"
 14561      52564544 
 14561      313000
 14562              	.LASF41:
 14563 02d3 52455345 		.ascii	"RESERVED11\000"
 14563      52564544 
 14563      313100
 14564              	.LASF42:
 14565 02de 52455345 		.ascii	"RESERVED12\000"
 14565      52564544 
 14565      313200
 14566              	.LASF44:
 14567 02e9 52455345 		.ascii	"RESERVED13\000"
 14567      52564544 
 14567      313300
 14568              	.LASF45:
 14569 02f4 52455345 		.ascii	"RESERVED14\000"
 14569      52564544 
 14569      313400
 14570              	.LASF187:
 14571 02ff 54494D5F 		.ascii	"TIM_IT\000"
 14571      495400
 14572              	.LASF7:
 14573 0306 6C6F6E67 		.ascii	"long int\000"
 14573      20696E74 
 14573      00
 14574              	.LASF55:
 14575 030f 54494D5F 		.ascii	"TIM_OutputNState\000"
 14575      4F757470 
 14575      75744E53 
 14575      74617465 
 14575      00
 14576              	.LASF18:
 14577 0320 454E4142 		.ascii	"ENABLE\000"
 14577      4C4500
 14578              	.LASF123:
 14579 0327 746D7063 		.ascii	"tmpccmrx\000"
 14579      636D7278 
 14579      00
 14580              	.LASF32:
 14581 0330 43434552 		.ascii	"CCER\000"
 14581      00
 14582              	.LASF10:
 14583 0335 6C6F6E67 		.ascii	"long long int\000"
 14583      206C6F6E 
 14583      6720696E 
 14583      7400
 14584              	.LASF4:
 14585 0343 75696E74 		.ascii	"uint16_t\000"
 14585      31365F74 
 14585      00
 14586              	.LASF119:
 14587 034c 54494D5F 		.ascii	"TIM_CKD\000"
 14587      434B4400 
 14588              	.LASF107:
 14589 0354 54494D5F 		.ascii	"TIM_SetAutoreload\000"
 14589      53657441 
ARM GAS  C:\Users\CNous\AppData\Local\Temp\ccZi7tDD.s 			page 328


 14589      75746F72 
 14589      656C6F61 
 14589      6400
 14590              	.LASF172:
 14591 0366 54494D5F 		.ascii	"TIM_ICStructInit\000"
 14591      49435374 
 14591      72756374 
 14591      496E6974 
 14591      00
 14592              	.LASF177:
 14593 0377 54494D5F 		.ascii	"TIM_GetCapture2\000"
 14593      47657443 
 14593      61707475 
 14593      72653200 
 14594              	.LASF178:
 14595 0387 54494D5F 		.ascii	"TIM_GetCapture3\000"
 14595      47657443 
 14595      61707475 
 14595      72653300 
 14596              	.LASF179:
 14597 0397 54494D5F 		.ascii	"TIM_GetCapture4\000"
 14597      47657443 
 14597      61707475 
 14597      72653400 
 14598              	.LASF126:
 14599 03a7 54494D5F 		.ascii	"TIM_OC3Init\000"
 14599      4F433349 
 14599      6E697400 
 14600              	.LASF174:
 14601 03b3 69636F70 		.ascii	"icoppositepolarity\000"
 14601      706F7369 
 14601      7465706F 
 14601      6C617269 
 14601      747900
 14602              	.LASF114:
 14603 03c6 54494D5F 		.ascii	"TIM_UpdateSource\000"
 14603      55706461 
 14603      7465536F 
 14603      75726365 
 14603      00
 14604              	.LASF169:
 14605 03d7 54494D5F 		.ascii	"TIM_CCxN\000"
 14605      4343784E 
 14605      00
 14606              	.LASF203:
 14607 03e0 54494D5F 		.ascii	"TIM_SelectCCDMA\000"
 14607      53656C65 
 14607      63744343 
 14607      444D4100 
 14608              	.LASF46:
 14609 03f0 54494D5F 		.ascii	"TIM_TypeDef\000"
 14609      54797065 
 14609      44656600 
 14610              	.LASF158:
 14611 03fc 54494D5F 		.ascii	"TIM_ClearOC4Ref\000"
 14611      436C6561 
 14611      724F4334 
ARM GAS  C:\Users\CNous\AppData\Local\Temp\ccZi7tDD.s 			page 329


 14611      52656600 
 14612              	.LASF144:
 14613 040c 54494D5F 		.ascii	"TIM_OC1PreloadConfig\000"
 14613      4F433150 
 14613      72656C6F 
 14613      6164436F 
 14613      6E666967 
 14614              	.LASF200:
 14615 0421 54494D5F 		.ascii	"TIM_DMABurstLength\000"
 14615      444D4142 
 14615      75727374 
 14615      4C656E67 
 14615      746800
 14616              	.LASF193:
 14617 0434 54494D5F 		.ascii	"TIM_ClearFlag\000"
 14617      436C6561 
 14617      72466C61 
 14617      6700
 14618              	.LASF133:
 14619 0442 54494D5F 		.ascii	"TIM_SetCompare2\000"
 14619      53657443 
 14619      6F6D7061 
 14619      72653200 
 14620              	.LASF135:
 14621 0452 54494D5F 		.ascii	"TIM_SetCompare3\000"
 14621      53657443 
 14621      6F6D7061 
 14621      72653300 
 14622              	.LASF184:
 14623 0462 54494D5F 		.ascii	"TIM_SelectCOM\000"
 14623      53656C65 
 14623      6374434F 
 14623      4D00
 14624              	.LASF78:
 14625 0470 746D7063 		.ascii	"tmpccer\000"
 14625      63657200 
 14626              	.LASF162:
 14627 0478 54494D5F 		.ascii	"TIM_OC2NPolarityConfig\000"
 14627      4F43324E 
 14627      506F6C61 
 14627      72697479 
 14627      436F6E66 
 14628              	.LASF12:
 14629 048f 756E7369 		.ascii	"unsigned int\000"
 14629      676E6564 
 14629      20696E74 
 14629      00
 14630              	.LASF87:
 14631 049c 5449345F 		.ascii	"TI4_Config\000"
 14631      436F6E66 
 14631      696700
 14632              	.LASF57:
 14633 04a7 54494D5F 		.ascii	"TIM_OCPolarity\000"
 14633      4F43506F 
 14633      6C617269 
 14633      747900
 14634              	.LASF50:
ARM GAS  C:\Users\CNous\AppData\Local\Temp\ccZi7tDD.s 			page 330


 14635 04b6 54494D5F 		.ascii	"TIM_ClockDivision\000"
 14635      436C6F63 
 14635      6B446976 
 14635      6973696F 
 14635      6E00
 14636              	.LASF225:
 14637 04c8 474E5520 		.ascii	"GNU C 4.7.3 20121207 (release) [ARM/embedded-4_7-br"
 14637      4320342E 
 14637      372E3320 
 14637      32303132 
 14637      31323037 
 14638 04fb 616E6368 		.ascii	"anch revision 194305]\000"
 14638      20726576 
 14638      6973696F 
 14638      6E203139 
 14638      34333035 
 14639              	.LASF110:
 14640 0511 54494D5F 		.ascii	"TIM_GetPrescaler\000"
 14640      47657450 
 14640      72657363 
 14640      616C6572 
 14640      00
 14641              	.LASF109:
 14642 0522 54494D5F 		.ascii	"TIM_GetCounter\000"
 14642      47657443 
 14642      6F756E74 
 14642      657200
 14643              	.LASF99:
 14644 0531 54494D5F 		.ascii	"TIM_TimeBaseStructInit\000"
 14644      54696D65 
 14644      42617365 
 14644      53747275 
 14644      6374496E 
 14645              	.LASF176:
 14646 0548 54494D5F 		.ascii	"TIM_GetCapture1\000"
 14646      47657443 
 14646      61707475 
 14646      72653100 
 14647              	.LASF216:
 14648 0558 54494D5F 		.ascii	"TIM_MasterSlaveMode\000"
 14648      4D617374 
 14648      6572536C 
 14648      6176654D 
 14648      6F646500 
 14649              	.LASF213:
 14650 056c 54494D5F 		.ascii	"TIM_SelectSlaveMode\000"
 14650      53656C65 
 14650      6374536C 
 14650      6176654D 
 14650      6F646500 
 14651              	.LASF215:
 14652 0580 54494D5F 		.ascii	"TIM_SelectMasterSlaveMode\000"
 14652      53656C65 
 14652      63744D61 
 14652      73746572 
 14652      536C6176 
 14653              	.LASF190:
ARM GAS  C:\Users\CNous\AppData\Local\Temp\ccZi7tDD.s 			page 331


 14654 059a 54494D5F 		.ascii	"TIM_GetFlagStatus\000"
 14654      47657446 
 14654      6C616753 
 14654      74617475 
 14654      7300
 14655              	.LASF75:
 14656 05ac 54494D5F 		.ascii	"TIM_BDTRInitTypeDef\000"
 14656      42445452 
 14656      496E6974 
 14656      54797065 
 14656      44656600 
 14657              	.LASF122:
 14658 05c0 54494D5F 		.ascii	"TIM_OCInitStruct\000"
 14658      4F43496E 
 14658      69745374 
 14658      72756374 
 14658      00
 14659              	.LASF22:
 14660 05d1 534D4352 		.ascii	"SMCR\000"
 14660      00
 14661              	.LASF68:
 14662 05d6 54494D5F 		.ascii	"TIM_OSSRState\000"
 14662      4F535352 
 14662      53746174 
 14662      6500
 14663              	.LASF76:
 14664 05e4 54494D78 		.ascii	"TIMx\000"
 14664      00
 14665              	.LASF218:
 14666 05e9 54494D5F 		.ascii	"TIM_EncoderMode\000"
 14666      456E636F 
 14666      6465724D 
 14666      6F646500 
 14667              	.LASF165:
 14668 05f9 54494D5F 		.ascii	"TIM_OC4PolarityConfig\000"
 14668      4F433450 
 14668      6F6C6172 
 14668      69747943 
 14668      6F6E6669 
 14669              	.LASF74:
 14670 060f 54494D5F 		.ascii	"TIM_AutomaticOutput\000"
 14670      4175746F 
 14670      6D617469 
 14670      634F7574 
 14670      70757400 
 14671              	.LASF211:
 14672 0623 54494D5F 		.ascii	"TIM_SelectOutputTrigger\000"
 14672      53656C65 
 14672      63744F75 
 14672      74707574 
 14672      54726967 
 14673              	.LASF82:
 14674 063b 54494D5F 		.ascii	"TIM_SetIC1Prescaler\000"
 14674      53657449 
 14674      43315072 
 14674      65736361 
 14674      6C657200 
ARM GAS  C:\Users\CNous\AppData\Local\Temp\ccZi7tDD.s 			page 332


 14675              	.LASF173:
 14676 064f 54494D5F 		.ascii	"TIM_PWMIConfig\000"
 14676      50574D49 
 14676      436F6E66 
 14676      696700
 14677              	.LASF84:
 14678 065e 5449335F 		.ascii	"TI3_Config\000"
 14678      436F6E66 
 14678      696700
 14679              	.LASF202:
 14680 0669 54494D5F 		.ascii	"TIM_DMASource\000"
 14680      444D4153 
 14680      6F757263 
 14680      6500
 14681              	.LASF128:
 14682 0677 54494D5F 		.ascii	"TIM_OCStructInit\000"
 14682      4F435374 
 14682      72756374 
 14682      496E6974 
 14682      00
 14683              	.LASF102:
 14684 0688 54494D5F 		.ascii	"TIM_PSCReloadMode\000"
 14684      50534352 
 14684      656C6F61 
 14684      644D6F64 
 14684      6500
 14685              	.LASF14:
 14686 069a 52455345 		.ascii	"RESET\000"
 14686      5400
 14687              	.LASF91:
 14688 06a0 746D7073 		.ascii	"tmpsmcr\000"
 14688      6D637200 
 14689              	.LASF94:
 14690 06a8 54494D5F 		.ascii	"TIM_ExtTRGPolarity\000"
 14690      45787454 
 14690      5247506F 
 14690      6C617269 
 14690      747900
 14691              	.LASF226:
 14692 06bb 636D7369 		.ascii	"cmsis/device/stm32f4xx_tim.c\000"
 14692      732F6465 
 14692      76696365 
 14692      2F73746D 
 14692      33326634 
 14693              	.LASF182:
 14694 06d8 54494D5F 		.ascii	"TIM_BDTRStructInit\000"
 14694      42445452 
 14694      53747275 
 14694      6374496E 
 14694      697400
 14695              	.LASF104:
 14696 06eb 746D7063 		.ascii	"tmpcr1\000"
 14696      723100
 14697              	.LASF139:
 14698 06f2 54494D5F 		.ascii	"TIM_ForcedOC1Config\000"
 14698      466F7263 
 14698      65644F43 
ARM GAS  C:\Users\CNous\AppData\Local\Temp\ccZi7tDD.s 			page 333


 14698      31436F6E 
 14698      66696700 
 14699              	.LASF13:
 14700 0706 73697A65 		.ascii	"sizetype\000"
 14700      74797065 
 14700      00
 14701              	.LASF93:
 14702 070f 54494D5F 		.ascii	"TIM_ExtTRGPrescaler\000"
 14702      45787454 
 14702      52475072 
 14702      65736361 
 14702      6C657200 
 14703              	.LASF72:
 14704 0723 54494D5F 		.ascii	"TIM_Break\000"
 14704      42726561 
 14704      6B00
 14705              	.LASF157:
 14706 072d 54494D5F 		.ascii	"TIM_ClearOC3Ref\000"
 14706      436C6561 
 14706      724F4333 
 14706      52656600 
 14707              	.LASF71:
 14708 073d 54494D5F 		.ascii	"TIM_DeadTime\000"
 14708      44656164 
 14708      54696D65 
 14708      00
 14709              	.LASF159:
 14710 074a 54494D5F 		.ascii	"TIM_OC1PolarityConfig\000"
 14710      4F433150 
 14710      6F6C6172 
 14710      69747943 
 14710      6F6E6669 
 14711              	.LASF142:
 14712 0760 54494D5F 		.ascii	"TIM_ForcedOC3Config\000"
 14712      466F7263 
 14712      65644F43 
 14712      33436F6E 
 14712      66696700 
 14713              	.LASF65:
 14714 0774 54494D5F 		.ascii	"TIM_ICPrescaler\000"
 14714      49435072 
 14714      65736361 
 14714      6C657200 
 14715              	.LASF168:
 14716 0784 54494D5F 		.ascii	"TIM_CCxNCmd\000"
 14716      4343784E 
 14716      436D6400 
 14717              	.LASF138:
 14718 0790 436F6D70 		.ascii	"Compare4\000"
 14718      61726534 
 14718      00
 14719              	.LASF60:
 14720 0799 54494D5F 		.ascii	"TIM_OCNIdleState\000"
 14720      4F434E49 
 14720      646C6553 
 14720      74617465 
 14720      00
ARM GAS  C:\Users\CNous\AppData\Local\Temp\ccZi7tDD.s 			page 334


 14721              	.LASF195:
 14722 07aa 69747374 		.ascii	"itstatus\000"
 14722      61747573 
 14722      00
 14723              	.LASF199:
 14724 07b3 54494D5F 		.ascii	"TIM_DMABase\000"
 14724      444D4142 
 14724      61736500 
 14725              	.LASF175:
 14726 07bf 69636F70 		.ascii	"icoppositeselection\000"
 14726      706F7369 
 14726      74657365 
 14726      6C656374 
 14726      696F6E00 
 14727              	.LASF19:
 14728 07d3 46756E63 		.ascii	"FunctionalState\000"
 14728      74696F6E 
 14728      616C5374 
 14728      61746500 
 14729              	.LASF223:
 14730 07e3 54494D5F 		.ascii	"TIM_Remap\000"
 14730      52656D61 
 14730      7000
 14731              	.LASF194:
 14732 07ed 54494D5F 		.ascii	"TIM_GetITStatus\000"
 14732      47657449 
 14732      54537461 
 14732      74757300 
 14733              	.LASF98:
 14734 07fd 54494D5F 		.ascii	"TIM_TimeBaseInitStruct\000"
 14734      54696D65 
 14734      42617365 
 14734      496E6974 
 14734      53747275 
 14735              	.LASF229:
 14736 0814 5243435F 		.ascii	"RCC_APB2PeriphResetCmd\000"
 14736      41504232 
 14736      50657269 
 14736      70685265 
 14736      73657443 
 14737              	.LASF118:
 14738 082b 54494D5F 		.ascii	"TIM_SetClockDivision\000"
 14738      53657443 
 14738      6C6F636B 
 14738      44697669 
 14738      73696F6E 
 14739              	.LASF167:
 14740 0840 54494D5F 		.ascii	"TIM_CCx\000"
 14740      43437800 
 14741              	.LASF106:
 14742 0848 436F756E 		.ascii	"Counter\000"
 14742      74657200 
 14743              	.LASF134:
 14744 0850 436F6D70 		.ascii	"Compare2\000"
 14744      61726532 
 14744      00
 14745              	.LASF54:
ARM GAS  C:\Users\CNous\AppData\Local\Temp\ccZi7tDD.s 			page 335


 14746 0859 54494D5F 		.ascii	"TIM_OutputState\000"
 14746      4F757470 
 14746      75745374 
 14746      61746500 
 14747              	.LASF189:
 14748 0869 54494D5F 		.ascii	"TIM_EventSource\000"
 14748      4576656E 
 14748      74536F75 
 14748      72636500 
 14749              	.LASF63:
 14750 0879 54494D5F 		.ascii	"TIM_ICPolarity\000"
 14750      4943506F 
 14750      6C617269 
 14750      747900
 14751              	.LASF21:
 14752 0888 52455345 		.ascii	"RESERVED1\000"
 14752      52564544 
 14752      3100
 14753              	.LASF23:
 14754 0892 52455345 		.ascii	"RESERVED2\000"
 14754      52564544 
 14754      3200
 14755              	.LASF25:
 14756 089c 52455345 		.ascii	"RESERVED3\000"
 14756      52564544 
 14756      3300
 14757              	.LASF26:
 14758 08a6 52455345 		.ascii	"RESERVED4\000"
 14758      52564544 
 14758      3400
 14759              	.LASF27:
 14760 08b0 52455345 		.ascii	"RESERVED5\000"
 14760      52564544 
 14760      3500
 14761              	.LASF29:
 14762 08ba 52455345 		.ascii	"RESERVED6\000"
 14762      52564544 
 14762      3600
 14763              	.LASF33:
 14764 08c4 52455345 		.ascii	"RESERVED8\000"
 14764      52564544 
 14764      3800
 14765              	.LASF34:
 14766 08ce 52455345 		.ascii	"RESERVED9\000"
 14766      52564544 
 14766      3900
 14767              	.LASF47:
 14768 08d8 54494D5F 		.ascii	"TIM_Prescaler\000"
 14768      50726573 
 14768      63616C65 
 14768      7200
 14769              	.LASF206:
 14770 08e6 54494D5F 		.ascii	"TIM_TIxExternalClockConfig\000"
 14770      54497845 
 14770      78746572 
 14770      6E616C43 
 14770      6C6F636B 
ARM GAS  C:\Users\CNous\AppData\Local\Temp\ccZi7tDD.s 			page 336


 14771              	.LASF6:
 14772 0901 696E7433 		.ascii	"int32_t\000"
 14772      325F7400 
 14773              	.LASF1:
 14774 0909 756E7369 		.ascii	"unsigned char\000"
 14774      676E6564 
 14774      20636861 
 14774      7200
 14775              	.LASF70:
 14776 0917 54494D5F 		.ascii	"TIM_LOCKLevel\000"
 14776      4C4F434B 
 14776      4C657665 
 14776      6C00
 14777              	.LASF183:
 14778 0925 54494D5F 		.ascii	"TIM_CtrlPWMOutputs\000"
 14778      4374726C 
 14778      50574D4F 
 14778      75747075 
 14778      747300
 14779              	.LASF180:
 14780 0938 54494D5F 		.ascii	"TIM_BDTRConfig\000"
 14780      42445452 
 14780      436F6E66 
 14780      696700
 14781              	.LASF2:
 14782 0947 73686F72 		.ascii	"short int\000"
 14782      7420696E 
 14782      7400
 14783              	.LASF40:
 14784 0951 42445452 		.ascii	"BDTR\000"
 14784      00
 14785              	.LASF83:
 14786 0956 54494D5F 		.ascii	"TIM_SetIC2Prescaler\000"
 14786      53657449 
 14786      43325072 
 14786      65736361 
 14786      6C657200 
 14787              	.LASF100:
 14788 096a 54494D5F 		.ascii	"TIM_PrescalerConfig\000"
 14788      50726573 
 14788      63616C65 
 14788      72436F6E 
 14788      66696700 
 14789              	.LASF205:
 14790 097e 54494D5F 		.ascii	"TIM_ITRxExternalClockConfig\000"
 14790      49545278 
 14790      45787465 
 14790      726E616C 
 14790      436C6F63 
 14791              	.LASF164:
 14792 099a 54494D5F 		.ascii	"TIM_OC3NPolarityConfig\000"
 14792      4F43334E 
 14792      506F6C61 
 14792      72697479 
 14792      436F6E66 
 14793              	.LASF69:
 14794 09b1 54494D5F 		.ascii	"TIM_OSSIState\000"
ARM GAS  C:\Users\CNous\AppData\Local\Temp\ccZi7tDD.s 			page 337


 14794      4F535349 
 14794      53746174 
 14794      6500
 14795              	.LASF20:
 14796 09bf 52455345 		.ascii	"RESERVED0\000"
 14796      52564544 
 14796      3000
 14797              	.LASF97:
 14798 09c9 54494D5F 		.ascii	"TIM_TimeBaseInit\000"
 14798      54696D65 
 14798      42617365 
 14798      496E6974 
 14798      00
 14799              	.LASF207:
 14800 09da 54494D5F 		.ascii	"TIM_TIxExternalCLKSource\000"
 14800      54497845 
 14800      78746572 
 14800      6E616C43 
 14800      4C4B536F 
 14801              	.LASF31:
 14802 09f3 52455345 		.ascii	"RESERVED7\000"
 14802      52564544 
 14802      3700
 14803              	.LASF181:
 14804 09fd 54494D5F 		.ascii	"TIM_BDTRInitStruct\000"
 14804      42445452 
 14804      496E6974 
 14804      53747275 
 14804      637400
 14805              	.LASF81:
 14806 0a10 5449325F 		.ascii	"TI2_Config\000"
 14806      436F6E66 
 14806      696700
 14807              	.LASF151:
 14808 0a1b 54494D5F 		.ascii	"TIM_OC2FastConfig\000"
 14808      4F433246 
 14808      61737443 
 14808      6F6E6669 
 14808      6700
 14809              	.LASF153:
 14810 0a2d 54494D5F 		.ascii	"TIM_OC4FastConfig\000"
 14810      4F433446 
 14810      61737443 
 14810      6F6E6669 
 14810      6700
 14811              	.LASF9:
 14812 0a3f 6C6F6E67 		.ascii	"long unsigned int\000"
 14812      20756E73 
 14812      69676E65 
 14812      6420696E 
 14812      7400
 14813              	.LASF58:
 14814 0a51 54494D5F 		.ascii	"TIM_OCNPolarity\000"
 14814      4F434E50 
 14814      6F6C6172 
 14814      69747900 
 14815              	.LASF210:
ARM GAS  C:\Users\CNous\AppData\Local\Temp\ccZi7tDD.s 			page 338


 14816 0a61 54494D5F 		.ascii	"TIM_ETRClockMode2Config\000"
 14816      45545243 
 14816      6C6F636B 
 14816      4D6F6465 
 14816      32436F6E 
 14817              	.LASF80:
 14818 0a79 5449315F 		.ascii	"TI1_Config\000"
 14818      436F6E66 
 14818      696700
 14819              	.LASF120:
 14820 0a84 54494D5F 		.ascii	"TIM_Cmd\000"
 14820      436D6400 
 14821              	.LASF43:
 14822 0a8c 444D4152 		.ascii	"DMAR\000"
 14822      00
 14823              	.LASF86:
 14824 0a91 54494D5F 		.ascii	"TIM_SetIC3Prescaler\000"
 14824      53657449 
 14824      43335072 
 14824      65736361 
 14824      6C657200 
 14825              	.LASF125:
 14826 0aa5 54494D5F 		.ascii	"TIM_OC2Init\000"
 14826      4F433249 
 14826      6E697400 
 14827              	.LASF49:
 14828 0ab1 54494D5F 		.ascii	"TIM_Period\000"
 14828      50657269 
 14828      6F6400
 14829              	.LASF52:
 14830 0abc 54494D5F 		.ascii	"TIM_TimeBaseInitTypeDef\000"
 14830      54696D65 
 14830      42617365 
 14830      496E6974 
 14830      54797065 
 14831              	.LASF197:
 14832 0ad4 54494D5F 		.ascii	"TIM_ClearITPendingBit\000"
 14832      436C6561 
 14832      72495450 
 14832      656E6469 
 14832      6E674269 
 14833              	.LASF67:
 14834 0aea 54494D5F 		.ascii	"TIM_ICInitTypeDef\000"
 14834      4943496E 
 14834      69745479 
 14834      70654465 
 14834      6600
 14835              	.LASF127:
 14836 0afc 54494D5F 		.ascii	"TIM_OC4Init\000"
 14836      4F433449 
 14836      6E697400 
 14837              	.LASF170:
 14838 0b08 54494D5F 		.ascii	"TIM_ICInit\000"
 14838      4943496E 
 14838      697400
 14839              	.LASF137:
 14840 0b13 54494D5F 		.ascii	"TIM_SetCompare4\000"
ARM GAS  C:\Users\CNous\AppData\Local\Temp\ccZi7tDD.s 			page 339


 14840      53657443 
 14840      6F6D7061 
 14840      72653400 
 14841              	.LASF129:
 14842 0b23 54494D5F 		.ascii	"TIM_SelectOCxM\000"
 14842      53656C65 
 14842      63744F43 
 14842      784D00
 14843              	.LASF113:
 14844 0b32 54494D5F 		.ascii	"TIM_UpdateRequestConfig\000"
 14844      55706461 
 14844      74655265 
 14844      71756573 
 14844      74436F6E 
 14845              	.LASF101:
 14846 0b4a 50726573 		.ascii	"Prescaler\000"
 14846      63616C65 
 14846      7200
 14847              	.LASF148:
 14848 0b54 54494D5F 		.ascii	"TIM_OC4PreloadConfig\000"
 14848      4F433450 
 14848      72656C6F 
 14848      6164436F 
 14848      6E666967 
 14849              	.LASF5:
 14850 0b69 73686F72 		.ascii	"short unsigned int\000"
 14850      7420756E 
 14850      7369676E 
 14850      65642069 
 14850      6E7400
 14851              	.LASF214:
 14852 0b7c 54494D5F 		.ascii	"TIM_SlaveMode\000"
 14852      536C6176 
 14852      654D6F64 
 14852      6500
 14853              	.LASF53:
 14854 0b8a 54494D5F 		.ascii	"TIM_OCMode\000"
 14854      4F434D6F 
 14854      646500
 14855              	.LASF73:
 14856 0b95 54494D5F 		.ascii	"TIM_BreakPolarity\000"
 14856      42726561 
 14856      6B506F6C 
 14856      61726974 
 14856      7900
 14857              	.LASF160:
 14858 0ba7 54494D5F 		.ascii	"TIM_OC1NPolarityConfig\000"
 14858      4F43314E 
 14858      506F6C61 
 14858      72697479 
 14858      436F6E66 
 14859              	.LASF185:
 14860 0bbe 54494D5F 		.ascii	"TIM_CCPreloadControl\000"
 14860      43435072 
 14860      656C6F61 
 14860      64436F6E 
 14860      74726F6C 
ARM GAS  C:\Users\CNous\AppData\Local\Temp\ccZi7tDD.s 			page 340


 14861              	.LASF8:
 14862 0bd3 75696E74 		.ascii	"uint32_t\000"
 14862      33325F74 
 14862      00
 14863              	.LASF36:
 14864 0bdc 43435231 		.ascii	"CCR1\000"
 14864      00
 14865              	.LASF209:
 14866 0be1 54494D5F 		.ascii	"TIM_ETRClockMode1Config\000"
 14866      45545243 
 14866      6C6F636B 
 14866      4D6F6465 
 14866      31436F6E 
 14867              	.LASF38:
 14868 0bf9 43435233 		.ascii	"CCR3\000"
 14868      00
 14869              	.LASF39:
 14870 0bfe 43435234 		.ascii	"CCR4\000"
 14870      00
 14871              	.LASF227:
 14872 0c03 433A5C78 		.ascii	"C:\\xav_dev\\eclipse\\ambiantiseur-make\000"
 14872      61765F64 
 14872      65765C65 
 14872      636C6970 
 14872      73655C61 
 14873              	.LASF61:
 14874 0c28 54494D5F 		.ascii	"TIM_OCInitTypeDef\000"
 14874      4F43496E 
 14874      69745479 
 14874      70654465 
 14874      6600
 14875              	.LASF105:
 14876 0c3a 54494D5F 		.ascii	"TIM_SetCounter\000"
 14876      53657443 
 14876      6F756E74 
 14876      657200
 14877              	.LASF196:
 14878 0c49 6974656E 		.ascii	"itenable\000"
 14878      61626C65 
 14878      00
 14879              	.LASF3:
 14880 0c52 75696E74 		.ascii	"uint8_t\000"
 14880      385F7400 
 14881              	.LASF163:
 14882 0c5a 54494D5F 		.ascii	"TIM_OC3PolarityConfig\000"
 14882      4F433350 
 14882      6F6C6172 
 14882      69747943 
 14882      6F6E6669 
 14883              	.LASF222:
 14884 0c70 54494D5F 		.ascii	"TIM_RemapConfig\000"
 14884      52656D61 
 14884      70436F6E 
 14884      66696700 
 14885              	.LASF16:
 14886 0c80 49545374 		.ascii	"ITStatus\000"
 14886      61747573 
ARM GAS  C:\Users\CNous\AppData\Local\Temp\ccZi7tDD.s 			page 341


 14886      00
 14887              	.LASF121:
 14888 0c89 54494D5F 		.ascii	"TIM_OC1Init\000"
 14888      4F433149 
 14888      6E697400 
 14889              	.LASF51:
 14890 0c95 54494D5F 		.ascii	"TIM_RepetitionCounter\000"
 14890      52657065 
 14890      74697469 
 14890      6F6E436F 
 14890      756E7465 
 14891              	.LASF221:
 14892 0cab 54494D5F 		.ascii	"TIM_SelectHallSensor\000"
 14892      53656C65 
 14892      63744861 
 14892      6C6C5365 
 14892      6E736F72 
 14893              	.LASF171:
 14894 0cc0 54494D5F 		.ascii	"TIM_ICInitStruct\000"
 14894      4943496E 
 14894      69745374 
 14894      72756374 
 14894      00
 14895              	.LASF192:
 14896 0cd1 62697473 		.ascii	"bitstatus\000"
 14896      74617475 
 14896      7300
 14897              	.LASF208:
 14898 0cdb 49434669 		.ascii	"ICFilter\000"
 14898      6C746572 
 14898      00
 14899              	.LASF156:
 14900 0ce4 54494D5F 		.ascii	"TIM_ClearOC2Ref\000"
 14900      436C6561 
 14900      724F4332 
 14900      52656600 
 14901              	.LASF95:
 14902 0cf4 45787454 		.ascii	"ExtTRGFilter\000"
 14902      52474669 
 14902      6C746572 
 14902      00
 14903              	.LASF186:
 14904 0d01 54494D5F 		.ascii	"TIM_ITConfig\000"
 14904      4954436F 
 14904      6E666967 
 14904      00
 14905              	.LASF59:
 14906 0d0e 54494D5F 		.ascii	"TIM_OCIdleState\000"
 14906      4F434964 
 14906      6C655374 
 14906      61746500 
 14907              	.LASF155:
 14908 0d1e 54494D5F 		.ascii	"TIM_OCClear\000"
 14908      4F43436C 
 14908      65617200 
 14909              	.LASF79:
 14910 0d2a 54494D5F 		.ascii	"TIM_ICPSC\000"
ARM GAS  C:\Users\CNous\AppData\Local\Temp\ccZi7tDD.s 			page 342


 14910      49435053 
 14910      4300
 14911              	.LASF92:
 14912 0d34 54494D5F 		.ascii	"TIM_ETRConfig\000"
 14912      45545243 
 14912      6F6E6669 
 14912      6700
 14913              	.LASF96:
 14914 0d42 54494D5F 		.ascii	"TIM_DeInit\000"
 14914      4465496E 
 14914      697400
 14915              	.LASF152:
 14916 0d4d 54494D5F 		.ascii	"TIM_OC3FastConfig\000"
 14916      4F433346 
 14916      61737443 
 14916      6F6E6669 
 14916      6700
 14917              	.LASF147:
 14918 0d5f 54494D5F 		.ascii	"TIM_OC3PreloadConfig\000"
 14918      4F433350 
 14918      72656C6F 
 14918      6164436F 
 14918      6E666967 
 14919              	.LASF88:
 14920 0d74 54494D5F 		.ascii	"TIM_SetIC4Prescaler\000"
 14920      53657449 
 14920      43345072 
 14920      65736361 
 14920      6C657200 
 14921              	.LASF149:
 14922 0d88 54494D5F 		.ascii	"TIM_OC1FastConfig\000"
 14922      4F433146 
 14922      61737443 
 14922      6F6E6669 
 14922      6700
 14923              		.ident	"GCC: (GNU Tools for ARM Embedded Processors) 4.7.3 20121207 (release) [ARM/embedded-4_7-br
ARM GAS  C:\Users\CNous\AppData\Local\Temp\ccZi7tDD.s 			page 343


DEFINED SYMBOLS
                            *ABS*:00000000 stm32f4xx_tim.c
C:\Users\CNous\AppData\Local\Temp\ccZi7tDD.s:71     .text.TIM_DeInit:00000000 $t
C:\Users\CNous\AppData\Local\Temp\ccZi7tDD.s:76     .text.TIM_DeInit:00000000 TIM_DeInit
C:\Users\CNous\AppData\Local\Temp\ccZi7tDD.s:372    .text.TIM_TimeBaseInit:00000000 $t
C:\Users\CNous\AppData\Local\Temp\ccZi7tDD.s:377    .text.TIM_TimeBaseInit:00000000 TIM_TimeBaseInit
C:\Users\CNous\AppData\Local\Temp\ccZi7tDD.s:514    .text.TIM_TimeBaseStructInit:00000000 $t
C:\Users\CNous\AppData\Local\Temp\ccZi7tDD.s:519    .text.TIM_TimeBaseStructInit:00000000 TIM_TimeBaseStructInit
C:\Users\CNous\AppData\Local\Temp\ccZi7tDD.s:545    .text.TIM_PrescalerConfig:00000000 $t
C:\Users\CNous\AppData\Local\Temp\ccZi7tDD.s:550    .text.TIM_PrescalerConfig:00000000 TIM_PrescalerConfig
C:\Users\CNous\AppData\Local\Temp\ccZi7tDD.s:567    .text.TIM_CounterModeConfig:00000000 $t
C:\Users\CNous\AppData\Local\Temp\ccZi7tDD.s:572    .text.TIM_CounterModeConfig:00000000 TIM_CounterModeConfig
C:\Users\CNous\AppData\Local\Temp\ccZi7tDD.s:599    .text.TIM_SetCounter:00000000 $t
C:\Users\CNous\AppData\Local\Temp\ccZi7tDD.s:604    .text.TIM_SetCounter:00000000 TIM_SetCounter
C:\Users\CNous\AppData\Local\Temp\ccZi7tDD.s:619    .text.TIM_SetAutoreload:00000000 $t
C:\Users\CNous\AppData\Local\Temp\ccZi7tDD.s:624    .text.TIM_SetAutoreload:00000000 TIM_SetAutoreload
C:\Users\CNous\AppData\Local\Temp\ccZi7tDD.s:639    .text.TIM_GetCounter:00000000 $t
C:\Users\CNous\AppData\Local\Temp\ccZi7tDD.s:644    .text.TIM_GetCounter:00000000 TIM_GetCounter
C:\Users\CNous\AppData\Local\Temp\ccZi7tDD.s:661    .text.TIM_GetPrescaler:00000000 $t
C:\Users\CNous\AppData\Local\Temp\ccZi7tDD.s:666    .text.TIM_GetPrescaler:00000000 TIM_GetPrescaler
C:\Users\CNous\AppData\Local\Temp\ccZi7tDD.s:684    .text.TIM_UpdateDisableConfig:00000000 $t
C:\Users\CNous\AppData\Local\Temp\ccZi7tDD.s:689    .text.TIM_UpdateDisableConfig:00000000 TIM_UpdateDisableConfig
C:\Users\CNous\AppData\Local\Temp\ccZi7tDD.s:720    .text.TIM_UpdateRequestConfig:00000000 $t
C:\Users\CNous\AppData\Local\Temp\ccZi7tDD.s:725    .text.TIM_UpdateRequestConfig:00000000 TIM_UpdateRequestConfig
C:\Users\CNous\AppData\Local\Temp\ccZi7tDD.s:756    .text.TIM_ARRPreloadConfig:00000000 $t
C:\Users\CNous\AppData\Local\Temp\ccZi7tDD.s:761    .text.TIM_ARRPreloadConfig:00000000 TIM_ARRPreloadConfig
C:\Users\CNous\AppData\Local\Temp\ccZi7tDD.s:792    .text.TIM_SelectOnePulseMode:00000000 $t
C:\Users\CNous\AppData\Local\Temp\ccZi7tDD.s:797    .text.TIM_SelectOnePulseMode:00000000 TIM_SelectOnePulseMode
C:\Users\CNous\AppData\Local\Temp\ccZi7tDD.s:822    .text.TIM_SetClockDivision:00000000 $t
C:\Users\CNous\AppData\Local\Temp\ccZi7tDD.s:827    .text.TIM_SetClockDivision:00000000 TIM_SetClockDivision
C:\Users\CNous\AppData\Local\Temp\ccZi7tDD.s:852    .text.TIM_Cmd:00000000 $t
C:\Users\CNous\AppData\Local\Temp\ccZi7tDD.s:857    .text.TIM_Cmd:00000000 TIM_Cmd
C:\Users\CNous\AppData\Local\Temp\ccZi7tDD.s:888    .text.TIM_OC1Init:00000000 $t
C:\Users\CNous\AppData\Local\Temp\ccZi7tDD.s:893    .text.TIM_OC1Init:00000000 TIM_OC1Init
C:\Users\CNous\AppData\Local\Temp\ccZi7tDD.s:1024   .text.TIM_OC2Init:00000000 $t
C:\Users\CNous\AppData\Local\Temp\ccZi7tDD.s:1029   .text.TIM_OC2Init:00000000 TIM_OC2Init
C:\Users\CNous\AppData\Local\Temp\ccZi7tDD.s:1164   .text.TIM_OC3Init:00000000 $t
C:\Users\CNous\AppData\Local\Temp\ccZi7tDD.s:1169   .text.TIM_OC3Init:00000000 TIM_OC3Init
C:\Users\CNous\AppData\Local\Temp\ccZi7tDD.s:1303   .text.TIM_OC4Init:00000000 $t
C:\Users\CNous\AppData\Local\Temp\ccZi7tDD.s:1308   .text.TIM_OC4Init:00000000 TIM_OC4Init
C:\Users\CNous\AppData\Local\Temp\ccZi7tDD.s:1416   .text.TIM_OCStructInit:00000000 $t
C:\Users\CNous\AppData\Local\Temp\ccZi7tDD.s:1421   .text.TIM_OCStructInit:00000000 TIM_OCStructInit
C:\Users\CNous\AppData\Local\Temp\ccZi7tDD.s:1451   .text.TIM_SelectOCxM:00000000 $t
C:\Users\CNous\AppData\Local\Temp\ccZi7tDD.s:1456   .text.TIM_SelectOCxM:00000000 TIM_SelectOCxM
C:\Users\CNous\AppData\Local\Temp\ccZi7tDD.s:1532   .text.TIM_SetCompare1:00000000 $t
C:\Users\CNous\AppData\Local\Temp\ccZi7tDD.s:1537   .text.TIM_SetCompare1:00000000 TIM_SetCompare1
C:\Users\CNous\AppData\Local\Temp\ccZi7tDD.s:1552   .text.TIM_SetCompare2:00000000 $t
C:\Users\CNous\AppData\Local\Temp\ccZi7tDD.s:1557   .text.TIM_SetCompare2:00000000 TIM_SetCompare2
C:\Users\CNous\AppData\Local\Temp\ccZi7tDD.s:1572   .text.TIM_SetCompare3:00000000 $t
C:\Users\CNous\AppData\Local\Temp\ccZi7tDD.s:1577   .text.TIM_SetCompare3:00000000 TIM_SetCompare3
C:\Users\CNous\AppData\Local\Temp\ccZi7tDD.s:1592   .text.TIM_SetCompare4:00000000 $t
C:\Users\CNous\AppData\Local\Temp\ccZi7tDD.s:1597   .text.TIM_SetCompare4:00000000 TIM_SetCompare4
C:\Users\CNous\AppData\Local\Temp\ccZi7tDD.s:1612   .text.TIM_ForcedOC1Config:00000000 $t
C:\Users\CNous\AppData\Local\Temp\ccZi7tDD.s:1617   .text.TIM_ForcedOC1Config:00000000 TIM_ForcedOC1Config
C:\Users\CNous\AppData\Local\Temp\ccZi7tDD.s:1644   .text.TIM_ForcedOC2Config:00000000 $t
C:\Users\CNous\AppData\Local\Temp\ccZi7tDD.s:1649   .text.TIM_ForcedOC2Config:00000000 TIM_ForcedOC2Config
C:\Users\CNous\AppData\Local\Temp\ccZi7tDD.s:1678   .text.TIM_ForcedOC3Config:00000000 $t
ARM GAS  C:\Users\CNous\AppData\Local\Temp\ccZi7tDD.s 			page 344


C:\Users\CNous\AppData\Local\Temp\ccZi7tDD.s:1683   .text.TIM_ForcedOC3Config:00000000 TIM_ForcedOC3Config
C:\Users\CNous\AppData\Local\Temp\ccZi7tDD.s:1710   .text.TIM_ForcedOC4Config:00000000 $t
C:\Users\CNous\AppData\Local\Temp\ccZi7tDD.s:1715   .text.TIM_ForcedOC4Config:00000000 TIM_ForcedOC4Config
C:\Users\CNous\AppData\Local\Temp\ccZi7tDD.s:1744   .text.TIM_OC1PreloadConfig:00000000 $t
C:\Users\CNous\AppData\Local\Temp\ccZi7tDD.s:1749   .text.TIM_OC1PreloadConfig:00000000 TIM_OC1PreloadConfig
C:\Users\CNous\AppData\Local\Temp\ccZi7tDD.s:1776   .text.TIM_OC2PreloadConfig:00000000 $t
C:\Users\CNous\AppData\Local\Temp\ccZi7tDD.s:1781   .text.TIM_OC2PreloadConfig:00000000 TIM_OC2PreloadConfig
C:\Users\CNous\AppData\Local\Temp\ccZi7tDD.s:1810   .text.TIM_OC3PreloadConfig:00000000 $t
C:\Users\CNous\AppData\Local\Temp\ccZi7tDD.s:1815   .text.TIM_OC3PreloadConfig:00000000 TIM_OC3PreloadConfig
C:\Users\CNous\AppData\Local\Temp\ccZi7tDD.s:1842   .text.TIM_OC4PreloadConfig:00000000 $t
C:\Users\CNous\AppData\Local\Temp\ccZi7tDD.s:1847   .text.TIM_OC4PreloadConfig:00000000 TIM_OC4PreloadConfig
C:\Users\CNous\AppData\Local\Temp\ccZi7tDD.s:1876   .text.TIM_OC1FastConfig:00000000 $t
C:\Users\CNous\AppData\Local\Temp\ccZi7tDD.s:1881   .text.TIM_OC1FastConfig:00000000 TIM_OC1FastConfig
C:\Users\CNous\AppData\Local\Temp\ccZi7tDD.s:1908   .text.TIM_OC2FastConfig:00000000 $t
C:\Users\CNous\AppData\Local\Temp\ccZi7tDD.s:1913   .text.TIM_OC2FastConfig:00000000 TIM_OC2FastConfig
C:\Users\CNous\AppData\Local\Temp\ccZi7tDD.s:1942   .text.TIM_OC3FastConfig:00000000 $t
C:\Users\CNous\AppData\Local\Temp\ccZi7tDD.s:1947   .text.TIM_OC3FastConfig:00000000 TIM_OC3FastConfig
C:\Users\CNous\AppData\Local\Temp\ccZi7tDD.s:1974   .text.TIM_OC4FastConfig:00000000 $t
C:\Users\CNous\AppData\Local\Temp\ccZi7tDD.s:1979   .text.TIM_OC4FastConfig:00000000 TIM_OC4FastConfig
C:\Users\CNous\AppData\Local\Temp\ccZi7tDD.s:2008   .text.TIM_ClearOC1Ref:00000000 $t
C:\Users\CNous\AppData\Local\Temp\ccZi7tDD.s:2013   .text.TIM_ClearOC1Ref:00000000 TIM_ClearOC1Ref
C:\Users\CNous\AppData\Local\Temp\ccZi7tDD.s:2040   .text.TIM_ClearOC2Ref:00000000 $t
C:\Users\CNous\AppData\Local\Temp\ccZi7tDD.s:2045   .text.TIM_ClearOC2Ref:00000000 TIM_ClearOC2Ref
C:\Users\CNous\AppData\Local\Temp\ccZi7tDD.s:2072   .text.TIM_ClearOC3Ref:00000000 $t
C:\Users\CNous\AppData\Local\Temp\ccZi7tDD.s:2077   .text.TIM_ClearOC3Ref:00000000 TIM_ClearOC3Ref
C:\Users\CNous\AppData\Local\Temp\ccZi7tDD.s:2104   .text.TIM_ClearOC4Ref:00000000 $t
C:\Users\CNous\AppData\Local\Temp\ccZi7tDD.s:2109   .text.TIM_ClearOC4Ref:00000000 TIM_ClearOC4Ref
C:\Users\CNous\AppData\Local\Temp\ccZi7tDD.s:2136   .text.TIM_OC1PolarityConfig:00000000 $t
C:\Users\CNous\AppData\Local\Temp\ccZi7tDD.s:2141   .text.TIM_OC1PolarityConfig:00000000 TIM_OC1PolarityConfig
C:\Users\CNous\AppData\Local\Temp\ccZi7tDD.s:2168   .text.TIM_OC1NPolarityConfig:00000000 $t
C:\Users\CNous\AppData\Local\Temp\ccZi7tDD.s:2173   .text.TIM_OC1NPolarityConfig:00000000 TIM_OC1NPolarityConfig
C:\Users\CNous\AppData\Local\Temp\ccZi7tDD.s:2200   .text.TIM_OC2PolarityConfig:00000000 $t
C:\Users\CNous\AppData\Local\Temp\ccZi7tDD.s:2205   .text.TIM_OC2PolarityConfig:00000000 TIM_OC2PolarityConfig
C:\Users\CNous\AppData\Local\Temp\ccZi7tDD.s:2234   .text.TIM_OC2NPolarityConfig:00000000 $t
C:\Users\CNous\AppData\Local\Temp\ccZi7tDD.s:2239   .text.TIM_OC2NPolarityConfig:00000000 TIM_OC2NPolarityConfig
C:\Users\CNous\AppData\Local\Temp\ccZi7tDD.s:2268   .text.TIM_OC3PolarityConfig:00000000 $t
C:\Users\CNous\AppData\Local\Temp\ccZi7tDD.s:2273   .text.TIM_OC3PolarityConfig:00000000 TIM_OC3PolarityConfig
C:\Users\CNous\AppData\Local\Temp\ccZi7tDD.s:2302   .text.TIM_OC3NPolarityConfig:00000000 $t
C:\Users\CNous\AppData\Local\Temp\ccZi7tDD.s:2307   .text.TIM_OC3NPolarityConfig:00000000 TIM_OC3NPolarityConfig
C:\Users\CNous\AppData\Local\Temp\ccZi7tDD.s:2336   .text.TIM_OC4PolarityConfig:00000000 $t
C:\Users\CNous\AppData\Local\Temp\ccZi7tDD.s:2341   .text.TIM_OC4PolarityConfig:00000000 TIM_OC4PolarityConfig
C:\Users\CNous\AppData\Local\Temp\ccZi7tDD.s:2370   .text.TIM_CCxCmd:00000000 $t
C:\Users\CNous\AppData\Local\Temp\ccZi7tDD.s:2375   .text.TIM_CCxCmd:00000000 TIM_CCxCmd
C:\Users\CNous\AppData\Local\Temp\ccZi7tDD.s:2411   .text.TIM_CCxNCmd:00000000 $t
C:\Users\CNous\AppData\Local\Temp\ccZi7tDD.s:2416   .text.TIM_CCxNCmd:00000000 TIM_CCxNCmd
C:\Users\CNous\AppData\Local\Temp\ccZi7tDD.s:2452   .text.TIM_ICInit:00000000 $t
C:\Users\CNous\AppData\Local\Temp\ccZi7tDD.s:2457   .text.TIM_ICInit:00000000 TIM_ICInit
C:\Users\CNous\AppData\Local\Temp\ccZi7tDD.s:2811   .text.TIM_ICStructInit:00000000 $t
C:\Users\CNous\AppData\Local\Temp\ccZi7tDD.s:2816   .text.TIM_ICStructInit:00000000 TIM_ICStructInit
C:\Users\CNous\AppData\Local\Temp\ccZi7tDD.s:2843   .text.TIM_PWMIConfig:00000000 $t
C:\Users\CNous\AppData\Local\Temp\ccZi7tDD.s:2848   .text.TIM_PWMIConfig:00000000 TIM_PWMIConfig
C:\Users\CNous\AppData\Local\Temp\ccZi7tDD.s:3175   .text.TIM_GetCapture1:00000000 $t
C:\Users\CNous\AppData\Local\Temp\ccZi7tDD.s:3180   .text.TIM_GetCapture1:00000000 TIM_GetCapture1
C:\Users\CNous\AppData\Local\Temp\ccZi7tDD.s:3197   .text.TIM_GetCapture2:00000000 $t
C:\Users\CNous\AppData\Local\Temp\ccZi7tDD.s:3202   .text.TIM_GetCapture2:00000000 TIM_GetCapture2
C:\Users\CNous\AppData\Local\Temp\ccZi7tDD.s:3219   .text.TIM_GetCapture3:00000000 $t
C:\Users\CNous\AppData\Local\Temp\ccZi7tDD.s:3224   .text.TIM_GetCapture3:00000000 TIM_GetCapture3
ARM GAS  C:\Users\CNous\AppData\Local\Temp\ccZi7tDD.s 			page 345


C:\Users\CNous\AppData\Local\Temp\ccZi7tDD.s:3241   .text.TIM_GetCapture4:00000000 $t
C:\Users\CNous\AppData\Local\Temp\ccZi7tDD.s:3246   .text.TIM_GetCapture4:00000000 TIM_GetCapture4
C:\Users\CNous\AppData\Local\Temp\ccZi7tDD.s:3263   .text.TIM_SetIC1Prescaler:00000000 $t
C:\Users\CNous\AppData\Local\Temp\ccZi7tDD.s:3268   .text.TIM_SetIC1Prescaler:00000000 TIM_SetIC1Prescaler
C:\Users\CNous\AppData\Local\Temp\ccZi7tDD.s:3293   .text.TIM_SetIC2Prescaler:00000000 $t
C:\Users\CNous\AppData\Local\Temp\ccZi7tDD.s:3298   .text.TIM_SetIC2Prescaler:00000000 TIM_SetIC2Prescaler
C:\Users\CNous\AppData\Local\Temp\ccZi7tDD.s:3324   .text.TIM_SetIC3Prescaler:00000000 $t
C:\Users\CNous\AppData\Local\Temp\ccZi7tDD.s:3329   .text.TIM_SetIC3Prescaler:00000000 TIM_SetIC3Prescaler
C:\Users\CNous\AppData\Local\Temp\ccZi7tDD.s:3354   .text.TIM_SetIC4Prescaler:00000000 $t
C:\Users\CNous\AppData\Local\Temp\ccZi7tDD.s:3359   .text.TIM_SetIC4Prescaler:00000000 TIM_SetIC4Prescaler
C:\Users\CNous\AppData\Local\Temp\ccZi7tDD.s:3385   .text.TIM_BDTRConfig:00000000 $t
C:\Users\CNous\AppData\Local\Temp\ccZi7tDD.s:3390   .text.TIM_BDTRConfig:00000000 TIM_BDTRConfig
C:\Users\CNous\AppData\Local\Temp\ccZi7tDD.s:3431   .text.TIM_BDTRStructInit:00000000 $t
C:\Users\CNous\AppData\Local\Temp\ccZi7tDD.s:3436   .text.TIM_BDTRStructInit:00000000 TIM_BDTRStructInit
C:\Users\CNous\AppData\Local\Temp\ccZi7tDD.s:3464   .text.TIM_CtrlPWMOutputs:00000000 $t
C:\Users\CNous\AppData\Local\Temp\ccZi7tDD.s:3469   .text.TIM_CtrlPWMOutputs:00000000 TIM_CtrlPWMOutputs
C:\Users\CNous\AppData\Local\Temp\ccZi7tDD.s:3500   .text.TIM_SelectCOM:00000000 $t
C:\Users\CNous\AppData\Local\Temp\ccZi7tDD.s:3505   .text.TIM_SelectCOM:00000000 TIM_SelectCOM
C:\Users\CNous\AppData\Local\Temp\ccZi7tDD.s:3536   .text.TIM_CCPreloadControl:00000000 $t
C:\Users\CNous\AppData\Local\Temp\ccZi7tDD.s:3541   .text.TIM_CCPreloadControl:00000000 TIM_CCPreloadControl
C:\Users\CNous\AppData\Local\Temp\ccZi7tDD.s:3572   .text.TIM_ITConfig:00000000 $t
C:\Users\CNous\AppData\Local\Temp\ccZi7tDD.s:3577   .text.TIM_ITConfig:00000000 TIM_ITConfig
C:\Users\CNous\AppData\Local\Temp\ccZi7tDD.s:3606   .text.TIM_GenerateEvent:00000000 $t
C:\Users\CNous\AppData\Local\Temp\ccZi7tDD.s:3611   .text.TIM_GenerateEvent:00000000 TIM_GenerateEvent
C:\Users\CNous\AppData\Local\Temp\ccZi7tDD.s:3626   .text.TIM_GetFlagStatus:00000000 $t
C:\Users\CNous\AppData\Local\Temp\ccZi7tDD.s:3631   .text.TIM_GetFlagStatus:00000000 TIM_GetFlagStatus
C:\Users\CNous\AppData\Local\Temp\ccZi7tDD.s:3653   .text.TIM_ClearFlag:00000000 $t
C:\Users\CNous\AppData\Local\Temp\ccZi7tDD.s:3658   .text.TIM_ClearFlag:00000000 TIM_ClearFlag
C:\Users\CNous\AppData\Local\Temp\ccZi7tDD.s:3676   .text.TIM_GetITStatus:00000000 $t
C:\Users\CNous\AppData\Local\Temp\ccZi7tDD.s:3681   .text.TIM_GetITStatus:00000000 TIM_GetITStatus
C:\Users\CNous\AppData\Local\Temp\ccZi7tDD.s:3716   .text.TIM_ClearITPendingBit:00000000 $t
C:\Users\CNous\AppData\Local\Temp\ccZi7tDD.s:3721   .text.TIM_ClearITPendingBit:00000000 TIM_ClearITPendingBit
C:\Users\CNous\AppData\Local\Temp\ccZi7tDD.s:3739   .text.TIM_DMAConfig:00000000 $t
C:\Users\CNous\AppData\Local\Temp\ccZi7tDD.s:3744   .text.TIM_DMAConfig:00000000 TIM_DMAConfig
C:\Users\CNous\AppData\Local\Temp\ccZi7tDD.s:3761   .text.TIM_DMACmd:00000000 $t
C:\Users\CNous\AppData\Local\Temp\ccZi7tDD.s:3766   .text.TIM_DMACmd:00000000 TIM_DMACmd
C:\Users\CNous\AppData\Local\Temp\ccZi7tDD.s:3795   .text.TIM_SelectCCDMA:00000000 $t
C:\Users\CNous\AppData\Local\Temp\ccZi7tDD.s:3800   .text.TIM_SelectCCDMA:00000000 TIM_SelectCCDMA
C:\Users\CNous\AppData\Local\Temp\ccZi7tDD.s:3831   .text.TIM_InternalClockConfig:00000000 $t
C:\Users\CNous\AppData\Local\Temp\ccZi7tDD.s:3836   .text.TIM_InternalClockConfig:00000000 TIM_InternalClockConfig
C:\Users\CNous\AppData\Local\Temp\ccZi7tDD.s:3855   .text.TIM_ITRxExternalClockConfig:00000000 $t
C:\Users\CNous\AppData\Local\Temp\ccZi7tDD.s:3860   .text.TIM_ITRxExternalClockConfig:00000000 TIM_ITRxExternalClockConfig
C:\Users\CNous\AppData\Local\Temp\ccZi7tDD.s:3897   .text.TIM_TIxExternalClockConfig:00000000 $t
C:\Users\CNous\AppData\Local\Temp\ccZi7tDD.s:3902   .text.TIM_TIxExternalClockConfig:00000000 TIM_TIxExternalClockConfig
C:\Users\CNous\AppData\Local\Temp\ccZi7tDD.s:4056   .text.TIM_ETRClockMode1Config:00000000 $t
C:\Users\CNous\AppData\Local\Temp\ccZi7tDD.s:4061   .text.TIM_ETRClockMode1Config:00000000 TIM_ETRClockMode1Config
C:\Users\CNous\AppData\Local\Temp\ccZi7tDD.s:4115   .text.TIM_ETRClockMode2Config:00000000 $t
C:\Users\CNous\AppData\Local\Temp\ccZi7tDD.s:4120   .text.TIM_ETRClockMode2Config:00000000 TIM_ETRClockMode2Config
C:\Users\CNous\AppData\Local\Temp\ccZi7tDD.s:4166   .text.TIM_SelectInputTrigger:00000000 $t
C:\Users\CNous\AppData\Local\Temp\ccZi7tDD.s:4171   .text.TIM_SelectInputTrigger:00000000 TIM_SelectInputTrigger
C:\Users\CNous\AppData\Local\Temp\ccZi7tDD.s:4198   .text.TIM_SelectOutputTrigger:00000000 $t
C:\Users\CNous\AppData\Local\Temp\ccZi7tDD.s:4203   .text.TIM_SelectOutputTrigger:00000000 TIM_SelectOutputTrigger
C:\Users\CNous\AppData\Local\Temp\ccZi7tDD.s:4228   .text.TIM_SelectSlaveMode:00000000 $t
C:\Users\CNous\AppData\Local\Temp\ccZi7tDD.s:4233   .text.TIM_SelectSlaveMode:00000000 TIM_SelectSlaveMode
C:\Users\CNous\AppData\Local\Temp\ccZi7tDD.s:4258   .text.TIM_SelectMasterSlaveMode:00000000 $t
C:\Users\CNous\AppData\Local\Temp\ccZi7tDD.s:4263   .text.TIM_SelectMasterSlaveMode:00000000 TIM_SelectMasterSlaveMode
C:\Users\CNous\AppData\Local\Temp\ccZi7tDD.s:4288   .text.TIM_ETRConfig:00000000 $t
ARM GAS  C:\Users\CNous\AppData\Local\Temp\ccZi7tDD.s 			page 346


C:\Users\CNous\AppData\Local\Temp\ccZi7tDD.s:4293   .text.TIM_ETRConfig:00000000 TIM_ETRConfig
C:\Users\CNous\AppData\Local\Temp\ccZi7tDD.s:4329   .text.TIM_EncoderInterfaceConfig:00000000 $t
C:\Users\CNous\AppData\Local\Temp\ccZi7tDD.s:4334   .text.TIM_EncoderInterfaceConfig:00000000 TIM_EncoderInterfaceConfig
C:\Users\CNous\AppData\Local\Temp\ccZi7tDD.s:4408   .text.TIM_SelectHallSensor:00000000 $t
C:\Users\CNous\AppData\Local\Temp\ccZi7tDD.s:4413   .text.TIM_SelectHallSensor:00000000 TIM_SelectHallSensor
C:\Users\CNous\AppData\Local\Temp\ccZi7tDD.s:4444   .text.TIM_RemapConfig:00000000 $t
C:\Users\CNous\AppData\Local\Temp\ccZi7tDD.s:4449   .text.TIM_RemapConfig:00000000 TIM_RemapConfig
                     .debug_frame:00000010 $d

UNDEFINED SYMBOLS
RCC_APB1PeriphResetCmd
RCC_APB2PeriphResetCmd
