ARM GAS  C:\Users\CNous\AppData\Local\Temp\ccLIBeCO.s 			page 1


   1              		.syntax unified
   2              		.cpu cortex-m4
   3              		.eabi_attribute 27, 3	@ Tag_ABI_HardFP_use
   4              		.eabi_attribute 28, 1	@ Tag_ABI_VFP_args
   5              		.fpu fpv4-sp-d16
   6              		.eabi_attribute 20, 1	@ Tag_ABI_FP_denormal
   7              		.eabi_attribute 21, 1	@ Tag_ABI_FP_exceptions
   8              		.eabi_attribute 23, 3	@ Tag_ABI_FP_number_model
   9              		.eabi_attribute 24, 1	@ Tag_ABI_align8_needed
  10              		.eabi_attribute 25, 1	@ Tag_ABI_align8_preserved
  11              		.eabi_attribute 26, 1	@ Tag_ABI_enum_size
  12              		.eabi_attribute 30, 2	@ Tag_ABI_optimization_goals
  13              		.eabi_attribute 34, 1	@ Tag_CPU_unaligned_access
  14              		.eabi_attribute 18, 4	@ Tag_ABI_PCS_wchar_t
  15              		.file	"stm32f4xx_i2c.c"
  16              	@ GNU C (GNU Tools for ARM Embedded Processors) version 4.7.3 20121207 (release) [ARM/embedded-4_7-
  17              	@	compiled by GNU C version 4.2.1-sjlj (mingw32-2), GMP version 4.3.2, MPFR version 2.4.2, MPC vers
  18              	@ GGC heuristics: --param ggc-min-expand=100 --param ggc-min-heapsize=131072
  19              	@ options passed:  -I . -I ./inc -I ./cmsis/core -I ./cmsis/device
  20              	@ -imultilib armv7e-m/fpu
  21              	@ -iprefix c:\gnutoolsarmembedded\4.7-2012q4\bin\../lib/gcc/arm-none-eabi/4.7.3/
  22              	@ -isysroot c:\gnutoolsarmembedded\4.7-2012q4\bin\../arm-none-eabi
  23              	@ -MD cmsis/device/stm32f4xx_i2c.d -MF .dep/stm32f4xx_i2c.o.d -MP
  24              	@ -MQ cmsis/device/stm32f4xx_i2c.o -D__USES_INITFINI__ -D __FPU_USED=1
  25              	@ -D __arm__ -D __ASSEMBLY__ -D USE_STDPERIPH_DRIVER -D STM32F4XX
  26              	@ -D HSE_VALUE=8000000 -D __FPU_PRESENT=1 -D STM32F407VG
  27              	@ -D RUN_FROM_FLASH=1 cmsis/device/stm32f4xx_i2c.c -mthumb -mcpu=cortex-m4
  28              	@ -mfloat-abi=hard -mfpu=fpv4-sp-d16
  29              	@ -auxbase-strip cmsis/device/stm32f4xx_i2c.o -gdwarf-2 -O2 -Wall
  30              	@ -Wstrict-prototypes -fverbose-asm -ffunction-sections -fdata-sections
  31              	@ options enabled:  -fauto-inc-dec -fbranch-count-reg -fcaller-saves
  32              	@ -fcombine-stack-adjustments -fcommon -fcompare-elim -fcprop-registers
  33              	@ -fcrossjumping -fcse-follow-jumps -fdata-sections -fdebug-types-section
  34              	@ -fdefer-pop -fdelete-null-pointer-checks -fdevirtualize -fdwarf2-cfi-asm
  35              	@ -fearly-inlining -feliminate-unused-debug-types -fexpensive-optimizations
  36              	@ -fforward-propagate -ffunction-cse -ffunction-sections -fgcse -fgcse-lm
  37              	@ -fgnu-runtime -fguess-branch-probability -fident -fif-conversion
  38              	@ -fif-conversion2 -findirect-inlining -finline -finline-atomics
  39              	@ -finline-functions-called-once -finline-small-functions -fipa-cp
  40              	@ -fipa-profile -fipa-pure-const -fipa-reference -fipa-sra
  41              	@ -fira-share-save-slots -fira-share-spill-slots -fivopts
  42              	@ -fkeep-static-consts -fleading-underscore -fmath-errno -fmerge-constants
  43              	@ -fmerge-debug-strings -fmove-loop-invariants -fomit-frame-pointer
  44              	@ -foptimize-register-move -foptimize-sibling-calls -foptimize-strlen
  45              	@ -fpartial-inlining -fpeephole -fpeephole2 -fprefetch-loop-arrays
  46              	@ -freg-struct-return -fregmove -frename-registers -freorder-blocks
  47              	@ -freorder-functions -frerun-cse-after-loop
  48              	@ -fsched-critical-path-heuristic -fsched-dep-count-heuristic
  49              	@ -fsched-group-heuristic -fsched-interblock -fsched-last-insn-heuristic
  50              	@ -fsched-rank-heuristic -fsched-spec -fsched-spec-insn-heuristic
  51              	@ -fsched-stalled-insns-dep -fschedule-insns -fschedule-insns2
  52              	@ -fsection-anchors -fshow-column -fshrink-wrap -fsigned-zeros
  53              	@ -fsplit-ivs-in-unroller -fsplit-wide-types -fstrict-aliasing
  54              	@ -fstrict-overflow -fstrict-volatile-bitfields -fthread-jumps
  55              	@ -ftoplevel-reorder -ftrapping-math -ftree-bit-ccp -ftree-builtin-call-dce
  56              	@ -ftree-ccp -ftree-ch -ftree-copy-prop -ftree-copyrename -ftree-cselim
  57              	@ -ftree-dce -ftree-dominator-opts -ftree-dse -ftree-forwprop -ftree-fre
ARM GAS  C:\Users\CNous\AppData\Local\Temp\ccLIBeCO.s 			page 2


  58              	@ -ftree-loop-if-convert -ftree-loop-im -ftree-loop-ivcanon
  59              	@ -ftree-loop-optimize -ftree-parallelize-loops= -ftree-phiprop -ftree-pre
  60              	@ -ftree-pta -ftree-reassoc -ftree-scev-cprop -ftree-sink
  61              	@ -ftree-slp-vectorize -ftree-sra -ftree-switch-conversion
  62              	@ -ftree-tail-merge -ftree-ter -ftree-vect-loop-version -ftree-vrp
  63              	@ -funit-at-a-time -funroll-loops -fvar-tracking -fvar-tracking-assignments
  64              	@ -fverbose-asm -fweb -fzero-initialized-in-bss -mlittle-endian
  65              	@ -msched-prolog -mthumb -munaligned-access -mvectorize-with-neon-quad
  66              	
  67              		.text
  68              	.Ltext0:
  69              		.cfi_sections	.debug_frame
  70              		.section	.text.I2C_DeInit,"ax",%progbits
  71              		.align	2
  72              		.global	I2C_DeInit
  73              		.thumb
  74              		.thumb_func
  75              		.type	I2C_DeInit, %function
  76              	I2C_DeInit:
  77              	.LFB110:
  78              		.file 1 "cmsis/device/stm32f4xx_i2c.c"
   1:cmsis/device/stm32f4xx_i2c.c **** /**
   2:cmsis/device/stm32f4xx_i2c.c ****   ******************************************************************************
   3:cmsis/device/stm32f4xx_i2c.c ****   * @file    stm32f4xx_i2c.c
   4:cmsis/device/stm32f4xx_i2c.c ****   * @author  MCD Application Team
   5:cmsis/device/stm32f4xx_i2c.c ****   * @version V1.0.0
   6:cmsis/device/stm32f4xx_i2c.c ****   * @date    30-September-2011
   7:cmsis/device/stm32f4xx_i2c.c ****   * @brief   This file provides firmware functions to manage the following 
   8:cmsis/device/stm32f4xx_i2c.c ****   *          functionalities of the Inter-integrated circuit (I2C)
   9:cmsis/device/stm32f4xx_i2c.c ****   *           - Initialization and Configuration
  10:cmsis/device/stm32f4xx_i2c.c ****   *           - Data transfers
  11:cmsis/device/stm32f4xx_i2c.c ****   *           - PEC management
  12:cmsis/device/stm32f4xx_i2c.c ****   *           - DMA transfers management
  13:cmsis/device/stm32f4xx_i2c.c ****   *           - Interrupts, events and flags management 
  14:cmsis/device/stm32f4xx_i2c.c ****   *           
  15:cmsis/device/stm32f4xx_i2c.c ****   *  @verbatim
  16:cmsis/device/stm32f4xx_i2c.c ****   *    
  17:cmsis/device/stm32f4xx_i2c.c ****   *          ===================================================================
  18:cmsis/device/stm32f4xx_i2c.c ****   *                                 How to use this driver
  19:cmsis/device/stm32f4xx_i2c.c ****   *          ===================================================================
  20:cmsis/device/stm32f4xx_i2c.c ****   *          1. Enable peripheral clock using RCC_APB1PeriphClockCmd(RCC_APB1Periph_I2Cx, ENABLE)
  21:cmsis/device/stm32f4xx_i2c.c ****   *             function for I2C1, I2C2 or I2C3.
  22:cmsis/device/stm32f4xx_i2c.c ****   *
  23:cmsis/device/stm32f4xx_i2c.c ****   *          2. Enable SDA, SCL  and SMBA (when used) GPIO clocks using 
  24:cmsis/device/stm32f4xx_i2c.c ****   *             RCC_AHBPeriphClockCmd() function. 
  25:cmsis/device/stm32f4xx_i2c.c ****   *
  26:cmsis/device/stm32f4xx_i2c.c ****   *          3. Peripherals alternate function: 
  27:cmsis/device/stm32f4xx_i2c.c ****   *                 - Connect the pin to the desired peripherals' Alternate 
  28:cmsis/device/stm32f4xx_i2c.c ****   *                   Function (AF) using GPIO_PinAFConfig() function
  29:cmsis/device/stm32f4xx_i2c.c ****   *                 - Configure the desired pin in alternate function by:
  30:cmsis/device/stm32f4xx_i2c.c ****   *                   GPIO_InitStruct->GPIO_Mode = GPIO_Mode_AF
  31:cmsis/device/stm32f4xx_i2c.c ****   *                 - Select the type, pull-up/pull-down and output speed via 
  32:cmsis/device/stm32f4xx_i2c.c ****   *                   GPIO_PuPd, GPIO_OType and GPIO_Speed members
  33:cmsis/device/stm32f4xx_i2c.c ****   *                 - Call GPIO_Init() function
  34:cmsis/device/stm32f4xx_i2c.c ****   *                 Recommended configuration is Push-Pull, Pull-up, Open-Drain.
  35:cmsis/device/stm32f4xx_i2c.c ****   *                 Add an external pull up if necessary (typically 4.7 KOhm).      
  36:cmsis/device/stm32f4xx_i2c.c ****   *        
ARM GAS  C:\Users\CNous\AppData\Local\Temp\ccLIBeCO.s 			page 3


  37:cmsis/device/stm32f4xx_i2c.c ****   *          4. Program the Mode, duty cycle , Own address, Ack, Speed and Acknowledged
  38:cmsis/device/stm32f4xx_i2c.c ****   *             Address using the I2C_Init() function.
  39:cmsis/device/stm32f4xx_i2c.c ****   *
  40:cmsis/device/stm32f4xx_i2c.c ****   *          5. Optionally you can enable/configure the following parameters without
  41:cmsis/device/stm32f4xx_i2c.c ****   *             re-initialization (i.e there is no need to call again I2C_Init() function):
  42:cmsis/device/stm32f4xx_i2c.c ****   *              - Enable the acknowledge feature using I2C_AcknowledgeConfig() function
  43:cmsis/device/stm32f4xx_i2c.c ****   *              - Enable the dual addressing mode using I2C_DualAddressCmd() function
  44:cmsis/device/stm32f4xx_i2c.c ****   *              - Enable the general call using the I2C_GeneralCallCmd() function
  45:cmsis/device/stm32f4xx_i2c.c ****   *              - Enable the clock stretching using I2C_StretchClockCmd() function
  46:cmsis/device/stm32f4xx_i2c.c ****   *              - Enable the fast mode duty cycle using the I2C_FastModeDutyCycleConfig()
  47:cmsis/device/stm32f4xx_i2c.c ****   *                function.
  48:cmsis/device/stm32f4xx_i2c.c ****   *              - Configure the NACK position for Master Receiver mode in case of 
  49:cmsis/device/stm32f4xx_i2c.c ****   *                2 bytes reception using the function I2C_NACKPositionConfig().  
  50:cmsis/device/stm32f4xx_i2c.c ****   *              - Enable the PEC Calculation using I2C_CalculatePEC() function
  51:cmsis/device/stm32f4xx_i2c.c ****   *              - For SMBus Mode: 
  52:cmsis/device/stm32f4xx_i2c.c ****   *                   - Enable the Address Resolution Protocol (ARP) using I2C_ARPCmd() function
  53:cmsis/device/stm32f4xx_i2c.c ****   *                   - Configure the SMBusAlert pin using I2C_SMBusAlertConfig() function
  54:cmsis/device/stm32f4xx_i2c.c ****   *
  55:cmsis/device/stm32f4xx_i2c.c ****   *          6. Enable the NVIC and the corresponding interrupt using the function 
  56:cmsis/device/stm32f4xx_i2c.c ****   *             I2C_ITConfig() if you need to use interrupt mode. 
  57:cmsis/device/stm32f4xx_i2c.c ****   *
  58:cmsis/device/stm32f4xx_i2c.c ****   *          7. When using the DMA mode 
  59:cmsis/device/stm32f4xx_i2c.c ****   *                   - Configure the DMA using DMA_Init() function
  60:cmsis/device/stm32f4xx_i2c.c ****   *                   - Active the needed channel Request using I2C_DMACmd() or
  61:cmsis/device/stm32f4xx_i2c.c ****   *                     I2C_DMALastTransferCmd() function.
  62:cmsis/device/stm32f4xx_i2c.c ****   *              @note When using DMA mode, I2C interrupts may be used at the same time to
  63:cmsis/device/stm32f4xx_i2c.c ****   *                    control the communication flow (Start/Stop/Ack... events and errors).
  64:cmsis/device/stm32f4xx_i2c.c ****   * 
  65:cmsis/device/stm32f4xx_i2c.c ****   *          8. Enable the I2C using the I2C_Cmd() function.
  66:cmsis/device/stm32f4xx_i2c.c ****   * 
  67:cmsis/device/stm32f4xx_i2c.c ****   *          9. Enable the DMA using the DMA_Cmd() function when using DMA mode in the 
  68:cmsis/device/stm32f4xx_i2c.c ****   *             transfers. 
  69:cmsis/device/stm32f4xx_i2c.c ****   *
  70:cmsis/device/stm32f4xx_i2c.c ****   *  @endverbatim
  71:cmsis/device/stm32f4xx_i2c.c ****   *  
  72:cmsis/device/stm32f4xx_i2c.c ****   ******************************************************************************
  73:cmsis/device/stm32f4xx_i2c.c ****   * @attention
  74:cmsis/device/stm32f4xx_i2c.c ****   *
  75:cmsis/device/stm32f4xx_i2c.c ****   * THE PRESENT FIRMWARE WHICH IS FOR GUIDANCE ONLY AIMS AT PROVIDING CUSTOMERS
  76:cmsis/device/stm32f4xx_i2c.c ****   * WITH CODING INFORMATION REGARDING THEIR PRODUCTS IN ORDER FOR THEM TO SAVE
  77:cmsis/device/stm32f4xx_i2c.c ****   * TIME. AS A RESULT, STMICROELECTRONICS SHALL NOT BE HELD LIABLE FOR ANY
  78:cmsis/device/stm32f4xx_i2c.c ****   * DIRECT, INDIRECT OR CONSEQUENTIAL DAMAGES WITH RESPECT TO ANY CLAIMS ARISING
  79:cmsis/device/stm32f4xx_i2c.c ****   * FROM THE CONTENT OF SUCH FIRMWARE AND/OR THE USE MADE BY CUSTOMERS OF THE
  80:cmsis/device/stm32f4xx_i2c.c ****   * CODING INFORMATION CONTAINED HEREIN IN CONNECTION WITH THEIR PRODUCTS.
  81:cmsis/device/stm32f4xx_i2c.c ****   *
  82:cmsis/device/stm32f4xx_i2c.c ****   * <h2><center>&copy; COPYRIGHT 2011 STMicroelectronics</center></h2>
  83:cmsis/device/stm32f4xx_i2c.c ****   ******************************************************************************  
  84:cmsis/device/stm32f4xx_i2c.c ****   */ 
  85:cmsis/device/stm32f4xx_i2c.c **** 
  86:cmsis/device/stm32f4xx_i2c.c **** /* Includes ------------------------------------------------------------------*/
  87:cmsis/device/stm32f4xx_i2c.c **** #include "stm32f4xx_i2c.h"
  88:cmsis/device/stm32f4xx_i2c.c **** #include "stm32f4xx_rcc.h"
  89:cmsis/device/stm32f4xx_i2c.c **** 
  90:cmsis/device/stm32f4xx_i2c.c **** /** @addtogroup STM32F4xx_StdPeriph_Driver
  91:cmsis/device/stm32f4xx_i2c.c ****   * @{
  92:cmsis/device/stm32f4xx_i2c.c ****   */
  93:cmsis/device/stm32f4xx_i2c.c **** 
ARM GAS  C:\Users\CNous\AppData\Local\Temp\ccLIBeCO.s 			page 4


  94:cmsis/device/stm32f4xx_i2c.c **** /** @defgroup I2C 
  95:cmsis/device/stm32f4xx_i2c.c ****   * @brief I2C driver modules
  96:cmsis/device/stm32f4xx_i2c.c ****   * @{
  97:cmsis/device/stm32f4xx_i2c.c ****   */ 
  98:cmsis/device/stm32f4xx_i2c.c **** 
  99:cmsis/device/stm32f4xx_i2c.c **** /* Private typedef -----------------------------------------------------------*/
 100:cmsis/device/stm32f4xx_i2c.c **** /* Private define ------------------------------------------------------------*/
 101:cmsis/device/stm32f4xx_i2c.c **** 
 102:cmsis/device/stm32f4xx_i2c.c **** #define CR1_CLEAR_MASK    ((uint16_t)0xFBF5)      /*<! I2C registers Masks */
 103:cmsis/device/stm32f4xx_i2c.c **** #define FLAG_MASK         ((uint32_t)0x00FFFFFF)  /*<! I2C FLAG mask */
 104:cmsis/device/stm32f4xx_i2c.c **** #define ITEN_MASK         ((uint32_t)0x07000000)  /*<! I2C Interrupt Enable mask */
 105:cmsis/device/stm32f4xx_i2c.c **** 
 106:cmsis/device/stm32f4xx_i2c.c **** /* Private macro -------------------------------------------------------------*/
 107:cmsis/device/stm32f4xx_i2c.c **** /* Private variables ---------------------------------------------------------*/
 108:cmsis/device/stm32f4xx_i2c.c **** /* Private function prototypes -----------------------------------------------*/
 109:cmsis/device/stm32f4xx_i2c.c **** /* Private functions ---------------------------------------------------------*/
 110:cmsis/device/stm32f4xx_i2c.c **** 
 111:cmsis/device/stm32f4xx_i2c.c **** /** @defgroup I2C_Private_Functions
 112:cmsis/device/stm32f4xx_i2c.c ****   * @{
 113:cmsis/device/stm32f4xx_i2c.c ****   */
 114:cmsis/device/stm32f4xx_i2c.c **** 
 115:cmsis/device/stm32f4xx_i2c.c **** /** @defgroup I2C_Group1 Initialization and Configuration functions
 116:cmsis/device/stm32f4xx_i2c.c ****  *  @brief   Initialization and Configuration functions 
 117:cmsis/device/stm32f4xx_i2c.c ****  *
 118:cmsis/device/stm32f4xx_i2c.c **** @verbatim   
 119:cmsis/device/stm32f4xx_i2c.c ****  ===============================================================================
 120:cmsis/device/stm32f4xx_i2c.c ****                    Initialization and Configuration functions
 121:cmsis/device/stm32f4xx_i2c.c ****  ===============================================================================  
 122:cmsis/device/stm32f4xx_i2c.c **** 
 123:cmsis/device/stm32f4xx_i2c.c **** @endverbatim
 124:cmsis/device/stm32f4xx_i2c.c ****   * @{
 125:cmsis/device/stm32f4xx_i2c.c ****   */
 126:cmsis/device/stm32f4xx_i2c.c **** 
 127:cmsis/device/stm32f4xx_i2c.c **** /**
 128:cmsis/device/stm32f4xx_i2c.c ****   * @brief  Deinitialize the I2Cx peripheral registers to their default reset values.
 129:cmsis/device/stm32f4xx_i2c.c ****   * @param  I2Cx: where x can be 1, 2 or 3 to select the I2C peripheral.
 130:cmsis/device/stm32f4xx_i2c.c ****   * @retval None
 131:cmsis/device/stm32f4xx_i2c.c ****   */
 132:cmsis/device/stm32f4xx_i2c.c **** void I2C_DeInit(I2C_TypeDef* I2Cx)
 133:cmsis/device/stm32f4xx_i2c.c **** {
  79              		.loc 1 133 0
  80              		.cfi_startproc
  81              		@ args = 0, pretend = 0, frame = 0
  82              		@ frame_needed = 0, uses_anonymous_args = 0
  83              	.LVL0:
  84 0000 08B5     		push	{r3, lr}	@
  85              	.LCFI0:
  86              		.cfi_def_cfa_offset 8
  87              		.cfi_offset 3, -8
  88              		.cfi_offset 14, -4
 134:cmsis/device/stm32f4xx_i2c.c ****   /* Check the parameters */
 135:cmsis/device/stm32f4xx_i2c.c ****   assert_param(IS_I2C_ALL_PERIPH(I2Cx));
 136:cmsis/device/stm32f4xx_i2c.c **** 
 137:cmsis/device/stm32f4xx_i2c.c ****   if (I2Cx == I2C1)
  89              		.loc 1 137 0
  90 0002 4FF4A843 		mov	r3, #21504	@ tmp135,
  91 0006 C4F20003 		movt	r3, 16384	@ tmp135,
ARM GAS  C:\Users\CNous\AppData\Local\Temp\ccLIBeCO.s 			page 5


  92 000a 9842     		cmp	r0, r3	@ I2Cx, tmp135
  93 000c 18D0     		beq	.L6	@,
 138:cmsis/device/stm32f4xx_i2c.c ****   {
 139:cmsis/device/stm32f4xx_i2c.c ****     /* Enable I2C1 reset state */
 140:cmsis/device/stm32f4xx_i2c.c ****     RCC_APB1PeriphResetCmd(RCC_APB1Periph_I2C1, ENABLE);
 141:cmsis/device/stm32f4xx_i2c.c ****     /* Release I2C1 from reset state */
 142:cmsis/device/stm32f4xx_i2c.c ****     RCC_APB1PeriphResetCmd(RCC_APB1Periph_I2C1, DISABLE);    
 143:cmsis/device/stm32f4xx_i2c.c ****   }
 144:cmsis/device/stm32f4xx_i2c.c ****   else if (I2Cx == I2C2)
  94              		.loc 1 144 0
  95 000e 4FF4B041 		mov	r1, #22528	@ tmp136,
  96 0012 C4F20001 		movt	r1, 16384	@ tmp136,
  97 0016 8842     		cmp	r0, r1	@ I2Cx, tmp136
  98 0018 1ED0     		beq	.L7	@,
 145:cmsis/device/stm32f4xx_i2c.c ****   {
 146:cmsis/device/stm32f4xx_i2c.c ****     /* Enable I2C2 reset state */
 147:cmsis/device/stm32f4xx_i2c.c ****     RCC_APB1PeriphResetCmd(RCC_APB1Periph_I2C2, ENABLE);
 148:cmsis/device/stm32f4xx_i2c.c ****     /* Release I2C2 from reset state */
 149:cmsis/device/stm32f4xx_i2c.c ****     RCC_APB1PeriphResetCmd(RCC_APB1Periph_I2C2, DISABLE);      
 150:cmsis/device/stm32f4xx_i2c.c ****   }
 151:cmsis/device/stm32f4xx_i2c.c ****   else 
 152:cmsis/device/stm32f4xx_i2c.c ****   {
 153:cmsis/device/stm32f4xx_i2c.c ****     if (I2Cx == I2C3)
  99              		.loc 1 153 0
 100 001a 4FF4B842 		mov	r2, #23552	@ tmp137,
 101 001e C4F20002 		movt	r2, 16384	@ tmp137,
 102 0022 9042     		cmp	r0, r2	@ I2Cx, tmp137
 103 0024 00D0     		beq	.L8	@,
 104 0026 08BD     		pop	{r3, pc}	@
 105              	.L8:
 154:cmsis/device/stm32f4xx_i2c.c ****     {
 155:cmsis/device/stm32f4xx_i2c.c ****       /* Enable I2C3 reset state */
 156:cmsis/device/stm32f4xx_i2c.c ****       RCC_APB1PeriphResetCmd(RCC_APB1Periph_I2C3, ENABLE);
 106              		.loc 1 156 0
 107 0028 0121     		movs	r1, #1	@,
 108 002a 4FF40000 		mov	r0, #8388608	@,
 109              	.LVL1:
 110 002e FFF7FEFF 		bl	RCC_APB1PeriphResetCmd	@
 111              	.LVL2:
 157:cmsis/device/stm32f4xx_i2c.c ****       /* Release I2C3 from reset state */
 158:cmsis/device/stm32f4xx_i2c.c ****       RCC_APB1PeriphResetCmd(RCC_APB1Periph_I2C3, DISABLE);     
 112              		.loc 1 158 0
 113 0032 4FF40000 		mov	r0, #8388608	@,
 114 0036 0021     		movs	r1, #0	@,
 159:cmsis/device/stm32f4xx_i2c.c ****     }
 160:cmsis/device/stm32f4xx_i2c.c ****   }
 161:cmsis/device/stm32f4xx_i2c.c **** }
 115              		.loc 1 161 0
 116 0038 BDE80840 		pop	{r3, lr}	@
 158:cmsis/device/stm32f4xx_i2c.c ****       RCC_APB1PeriphResetCmd(RCC_APB1Periph_I2C3, DISABLE);     
 117              		.loc 1 158 0
 118 003c FFF7FEBF 		b	RCC_APB1PeriphResetCmd	@
 119              	.LVL3:
 120              	.L6:
 140:cmsis/device/stm32f4xx_i2c.c ****     RCC_APB1PeriphResetCmd(RCC_APB1Periph_I2C1, ENABLE);
 121              		.loc 1 140 0
 122 0040 0121     		movs	r1, #1	@,
ARM GAS  C:\Users\CNous\AppData\Local\Temp\ccLIBeCO.s 			page 6


 123 0042 4FF40010 		mov	r0, #2097152	@,
 124              	.LVL4:
 125 0046 FFF7FEFF 		bl	RCC_APB1PeriphResetCmd	@
 126              	.LVL5:
 142:cmsis/device/stm32f4xx_i2c.c ****     RCC_APB1PeriphResetCmd(RCC_APB1Periph_I2C1, DISABLE);    
 127              		.loc 1 142 0
 128 004a 4FF40010 		mov	r0, #2097152	@,
 129 004e 0021     		movs	r1, #0	@,
 130              		.loc 1 161 0
 131 0050 BDE80840 		pop	{r3, lr}	@
 142:cmsis/device/stm32f4xx_i2c.c ****     RCC_APB1PeriphResetCmd(RCC_APB1Periph_I2C1, DISABLE);    
 132              		.loc 1 142 0
 133 0054 FFF7FEBF 		b	RCC_APB1PeriphResetCmd	@
 134              	.LVL6:
 135              	.L7:
 147:cmsis/device/stm32f4xx_i2c.c ****     RCC_APB1PeriphResetCmd(RCC_APB1Periph_I2C2, ENABLE);
 136              		.loc 1 147 0
 137 0058 0121     		movs	r1, #1	@,
 138 005a 4FF48000 		mov	r0, #4194304	@,
 139              	.LVL7:
 140 005e FFF7FEFF 		bl	RCC_APB1PeriphResetCmd	@
 141              	.LVL8:
 149:cmsis/device/stm32f4xx_i2c.c ****     RCC_APB1PeriphResetCmd(RCC_APB1Periph_I2C2, DISABLE);      
 142              		.loc 1 149 0
 143 0062 4FF48000 		mov	r0, #4194304	@,
 144 0066 0021     		movs	r1, #0	@,
 145              		.loc 1 161 0
 146 0068 BDE80840 		pop	{r3, lr}	@
 149:cmsis/device/stm32f4xx_i2c.c ****     RCC_APB1PeriphResetCmd(RCC_APB1Periph_I2C2, DISABLE);      
 147              		.loc 1 149 0
 148 006c FFF7FEBF 		b	RCC_APB1PeriphResetCmd	@
 149              	.LVL9:
 150              		.cfi_endproc
 151              	.LFE110:
 152              		.size	I2C_DeInit, .-I2C_DeInit
 153              		.section	.text.I2C_Init,"ax",%progbits
 154              		.align	2
 155              		.global	I2C_Init
 156              		.thumb
 157              		.thumb_func
 158              		.type	I2C_Init, %function
 159              	I2C_Init:
 160              	.LFB111:
 162:cmsis/device/stm32f4xx_i2c.c **** 
 163:cmsis/device/stm32f4xx_i2c.c **** /**
 164:cmsis/device/stm32f4xx_i2c.c ****   * @brief  Initializes the I2Cx peripheral according to the specified 
 165:cmsis/device/stm32f4xx_i2c.c ****   *         parameters in the I2C_InitStruct.
 166:cmsis/device/stm32f4xx_i2c.c ****   *           
 167:cmsis/device/stm32f4xx_i2c.c ****   * @note   To use the I2C at 400 KHz (in fast mode), the PCLK1 frequency 
 168:cmsis/device/stm32f4xx_i2c.c ****   *         (I2C peripheral input clock) must be a multiple of 10 MHz.  
 169:cmsis/device/stm32f4xx_i2c.c ****   *           
 170:cmsis/device/stm32f4xx_i2c.c ****   * @param  I2Cx: where x can be 1, 2 or 3 to select the I2C peripheral.
 171:cmsis/device/stm32f4xx_i2c.c ****   * @param  I2C_InitStruct: pointer to a I2C_InitTypeDef structure that contains 
 172:cmsis/device/stm32f4xx_i2c.c ****   *         the configuration information for the specified I2C peripheral.
 173:cmsis/device/stm32f4xx_i2c.c ****   * @retval None
 174:cmsis/device/stm32f4xx_i2c.c ****   */
 175:cmsis/device/stm32f4xx_i2c.c **** void I2C_Init(I2C_TypeDef* I2Cx, I2C_InitTypeDef* I2C_InitStruct)
ARM GAS  C:\Users\CNous\AppData\Local\Temp\ccLIBeCO.s 			page 7


 176:cmsis/device/stm32f4xx_i2c.c **** {
 161              		.loc 1 176 0
 162              		.cfi_startproc
 163              		@ args = 0, pretend = 0, frame = 16
 164              		@ frame_needed = 0, uses_anonymous_args = 0
 165              	.LVL10:
 166 0000 F0B5     		push	{r4, r5, r6, r7, lr}	@
 167              	.LCFI1:
 168              		.cfi_def_cfa_offset 20
 169              		.cfi_offset 4, -20
 170              		.cfi_offset 5, -16
 171              		.cfi_offset 6, -12
 172              		.cfi_offset 7, -8
 173              		.cfi_offset 14, -4
 174 0002 0446     		mov	r4, r0	@ I2Cx, I2Cx
 175 0004 85B0     		sub	sp, sp, #20	@,,
 176              	.LCFI2:
 177              		.cfi_def_cfa_offset 40
 177:cmsis/device/stm32f4xx_i2c.c ****   uint16_t tmpreg = 0, freqrange = 0;
 178:cmsis/device/stm32f4xx_i2c.c ****   uint16_t result = 0x04;
 179:cmsis/device/stm32f4xx_i2c.c ****   uint32_t pclk1 = 8000000;
 180:cmsis/device/stm32f4xx_i2c.c ****   RCC_ClocksTypeDef  rcc_clocks;
 181:cmsis/device/stm32f4xx_i2c.c ****   /* Check the parameters */
 182:cmsis/device/stm32f4xx_i2c.c ****   assert_param(IS_I2C_ALL_PERIPH(I2Cx));
 183:cmsis/device/stm32f4xx_i2c.c ****   assert_param(IS_I2C_CLOCK_SPEED(I2C_InitStruct->I2C_ClockSpeed));
 184:cmsis/device/stm32f4xx_i2c.c ****   assert_param(IS_I2C_MODE(I2C_InitStruct->I2C_Mode));
 185:cmsis/device/stm32f4xx_i2c.c ****   assert_param(IS_I2C_DUTY_CYCLE(I2C_InitStruct->I2C_DutyCycle));
 186:cmsis/device/stm32f4xx_i2c.c ****   assert_param(IS_I2C_OWN_ADDRESS1(I2C_InitStruct->I2C_OwnAddress1));
 187:cmsis/device/stm32f4xx_i2c.c ****   assert_param(IS_I2C_ACK_STATE(I2C_InitStruct->I2C_Ack));
 188:cmsis/device/stm32f4xx_i2c.c ****   assert_param(IS_I2C_ACKNOWLEDGE_ADDRESS(I2C_InitStruct->I2C_AcknowledgedAddress));
 189:cmsis/device/stm32f4xx_i2c.c **** 
 190:cmsis/device/stm32f4xx_i2c.c **** /*---------------------------- I2Cx CR2 Configuration ------------------------*/
 191:cmsis/device/stm32f4xx_i2c.c ****   /* Get the I2Cx CR2 value */
 192:cmsis/device/stm32f4xx_i2c.c ****   tmpreg = I2Cx->CR2;
 193:cmsis/device/stm32f4xx_i2c.c ****   /* Clear frequency FREQ[5:0] bits */
 194:cmsis/device/stm32f4xx_i2c.c ****   tmpreg &= (uint16_t)~((uint16_t)I2C_CR2_FREQ);
 195:cmsis/device/stm32f4xx_i2c.c ****   /* Get pclk1 frequency value */
 196:cmsis/device/stm32f4xx_i2c.c ****   RCC_GetClocksFreq(&rcc_clocks);
 178              		.loc 1 196 0
 179 0006 6846     		mov	r0, sp	@,
 180              	.LVL11:
 192:cmsis/device/stm32f4xx_i2c.c ****   tmpreg = I2Cx->CR2;
 181              		.loc 1 192 0
 182 0008 A688     		ldrh	r6, [r4, #4]	@, I2Cx_9(D)->CR2
 183              	.LVL12:
 176:cmsis/device/stm32f4xx_i2c.c **** {
 184              		.loc 1 176 0
 185 000a 0D46     		mov	r5, r1	@ I2C_InitStruct, I2C_InitStruct
 186              		.loc 1 196 0
 187 000c FFF7FEFF 		bl	RCC_GetClocksFreq	@
 188              	.LVL13:
 197:cmsis/device/stm32f4xx_i2c.c ****   pclk1 = rcc_clocks.PCLK1_Frequency;
 189              		.loc 1 197 0
 190 0010 0299     		ldr	r1, [sp, #8]	@ pclk1, rcc_clocks.PCLK1_Frequency
 198:cmsis/device/stm32f4xx_i2c.c ****   /* Set frequency bits depending on pclk1 value */
 199:cmsis/device/stm32f4xx_i2c.c ****   freqrange = (uint16_t)(pclk1 / 1000000);
 200:cmsis/device/stm32f4xx_i2c.c ****   tmpreg |= freqrange;
ARM GAS  C:\Users\CNous\AppData\Local\Temp\ccLIBeCO.s 			page 8


 201:cmsis/device/stm32f4xx_i2c.c ****   /* Write to I2Cx CR2 */
 202:cmsis/device/stm32f4xx_i2c.c ****   I2Cx->CR2 = tmpreg;
 203:cmsis/device/stm32f4xx_i2c.c **** 
 204:cmsis/device/stm32f4xx_i2c.c **** /*---------------------------- I2Cx CCR Configuration ------------------------*/
 205:cmsis/device/stm32f4xx_i2c.c ****   /* Disable the selected I2C peripheral to configure TRISE */
 206:cmsis/device/stm32f4xx_i2c.c ****   I2Cx->CR1 &= (uint16_t)~((uint16_t)I2C_CR1_PE);
 207:cmsis/device/stm32f4xx_i2c.c ****   /* Reset tmpreg value */
 208:cmsis/device/stm32f4xx_i2c.c ****   /* Clear F/S, DUTY and CCR[11:0] bits */
 209:cmsis/device/stm32f4xx_i2c.c ****   tmpreg = 0;
 210:cmsis/device/stm32f4xx_i2c.c **** 
 211:cmsis/device/stm32f4xx_i2c.c ****   /* Configure speed in standard mode */
 212:cmsis/device/stm32f4xx_i2c.c ****   if (I2C_InitStruct->I2C_ClockSpeed <= 100000)
 191              		.loc 1 212 0
 192 0012 2A68     		ldr	r2, [r5, #0]	@ D.6861, I2C_InitStruct_19(D)->I2C_ClockSpeed
 199:cmsis/device/stm32f4xx_i2c.c ****   freqrange = (uint16_t)(pclk1 / 1000000);
 193              		.loc 1 199 0
 194 0014 4DF68363 		movw	r3, #56963	@ tmp179,
 195 0018 C4F21B33 		movt	r3, 17179	@ tmp179,
 194:cmsis/device/stm32f4xx_i2c.c ****   tmpreg &= (uint16_t)~((uint16_t)I2C_CR2_FREQ);
 196              		.loc 1 194 0
 197 001c 26F03F07 		bic	r7, r6, #63	@ tmpreg, I2Cx_9(D)->CR2,
 199:cmsis/device/stm32f4xx_i2c.c ****   freqrange = (uint16_t)(pclk1 / 1000000);
 198              		.loc 1 199 0
 199 0020 A3FB0103 		umull	r0, r3, r3, r1	@, tmp178, tmp179, pclk1
 194:cmsis/device/stm32f4xx_i2c.c ****   tmpreg &= (uint16_t)~((uint16_t)I2C_CR2_FREQ);
 200              		.loc 1 194 0
 201 0024 3804     		lsls	r0, r7, #16	@ tmpreg, tmpreg,
 199:cmsis/device/stm32f4xx_i2c.c ****   freqrange = (uint16_t)(pclk1 / 1000000);
 202              		.loc 1 199 0
 203 0026 9F0C     		lsrs	r7, r3, #18	@ D.6909, tmp178,
 194:cmsis/device/stm32f4xx_i2c.c ****   tmpreg &= (uint16_t)~((uint16_t)I2C_CR2_FREQ);
 204              		.loc 1 194 0
 205 0028 060C     		lsrs	r6, r0, #16	@ tmpreg, tmpreg,
 206              	.LVL14:
 199:cmsis/device/stm32f4xx_i2c.c ****   freqrange = (uint16_t)(pclk1 / 1000000);
 207              		.loc 1 199 0
 208 002a 1FFA87FC 		uxth	ip, r7	@ freqrange, D.6909
 209              	.LVL15:
 200:cmsis/device/stm32f4xx_i2c.c ****   tmpreg |= freqrange;
 210              		.loc 1 200 0
 211 002e 4CEA0603 		orr	r3, ip, r6	@ tmpreg, freqrange, tmpreg
 212              	.LVL16:
 202:cmsis/device/stm32f4xx_i2c.c ****   I2Cx->CR2 = tmpreg;
 213              		.loc 1 202 0
 214 0032 A380     		strh	r3, [r4, #4]	@ movhi	@ tmpreg, I2Cx_9(D)->CR2
 206:cmsis/device/stm32f4xx_i2c.c ****   I2Cx->CR1 &= (uint16_t)~((uint16_t)I2C_CR1_PE);
 215              		.loc 1 206 0
 216 0034 2088     		ldrh	r0, [r4, #0]	@, I2Cx_9(D)->CR1
 217 0036 20F00106 		bic	r6, r0, #1	@ D.6860, I2Cx_9(D)->CR1,
 218              		.loc 1 212 0
 219 003a 48F2A060 		movw	r0, #34464	@ tmp185,
 206:cmsis/device/stm32f4xx_i2c.c ****   I2Cx->CR1 &= (uint16_t)~((uint16_t)I2C_CR1_PE);
 220              		.loc 1 206 0
 221 003e 3304     		lsls	r3, r6, #16	@ D.6860, D.6860,
 222              	.LVL17:
 223              		.loc 1 212 0
 224 0040 C0F20100 		movt	r0, 1	@ tmp185,
ARM GAS  C:\Users\CNous\AppData\Local\Temp\ccLIBeCO.s 			page 9


 206:cmsis/device/stm32f4xx_i2c.c ****   I2Cx->CR1 &= (uint16_t)~((uint16_t)I2C_CR1_PE);
 225              		.loc 1 206 0
 226 0044 1E0C     		lsrs	r6, r3, #16	@ D.6860, D.6860,
 227              		.loc 1 212 0
 228 0046 8242     		cmp	r2, r0	@ D.6861, tmp185
 206:cmsis/device/stm32f4xx_i2c.c ****   I2Cx->CR1 &= (uint16_t)~((uint16_t)I2C_CR1_PE);
 229              		.loc 1 206 0
 230 0048 2680     		strh	r6, [r4, #0]	@ movhi	@ D.6860, I2Cx_9(D)->CR1
 231              	.LVL18:
 232              		.loc 1 212 0
 233 004a 24D8     		bhi	.L10	@,
 213:cmsis/device/stm32f4xx_i2c.c ****   {
 214:cmsis/device/stm32f4xx_i2c.c ****     /* Standard mode speed calculate */
 215:cmsis/device/stm32f4xx_i2c.c ****     result = (uint16_t)(pclk1 / (I2C_InitStruct->I2C_ClockSpeed << 1));
 234              		.loc 1 215 0
 235 004c 5300     		lsls	r3, r2, #1	@ tmp186, D.6861,
 236 004e B1FBF3F6 		udiv	r6, r1, r3	@ tmp188, pclk1, tmp186
 237 0052 B1B2     		uxth	r1, r6	@ result, tmp188
 238              	.LVL19:
 216:cmsis/device/stm32f4xx_i2c.c ****     /* Test if CCR value is under 0x4*/
 217:cmsis/device/stm32f4xx_i2c.c ****     if (result < 0x04)
 218:cmsis/device/stm32f4xx_i2c.c ****     {
 219:cmsis/device/stm32f4xx_i2c.c ****       /* Set minimum allowed value */
 220:cmsis/device/stm32f4xx_i2c.c ****       result = 0x04;  
 221:cmsis/device/stm32f4xx_i2c.c ****     }
 222:cmsis/device/stm32f4xx_i2c.c ****     /* Set speed value for standard mode */
 223:cmsis/device/stm32f4xx_i2c.c ****     tmpreg |= result;	  
 224:cmsis/device/stm32f4xx_i2c.c ****     /* Set Maximum Rise Time for standard mode */
 225:cmsis/device/stm32f4xx_i2c.c ****     I2Cx->TRISE = freqrange + 1; 
 239              		.loc 1 225 0
 240 0054 0CF1010E 		add	lr, ip, #1	@ D.6868, freqrange,
 241 0058 A4F820E0 		strh	lr, [r4, #32]	@ movhi	@ D.6868, I2Cx_9(D)->TRISE
 223:cmsis/device/stm32f4xx_i2c.c ****     tmpreg |= result;	  
 242              		.loc 1 223 0
 243 005c 0329     		cmp	r1, #3	@ result,
 244 005e 98BF     		it	ls	@
 245 0060 0421     		movls	r1, #4	@, tmpreg,
 246              	.LVL20:
 247              	.L12:
 226:cmsis/device/stm32f4xx_i2c.c ****   }
 227:cmsis/device/stm32f4xx_i2c.c ****   /* Configure speed in fast mode */
 228:cmsis/device/stm32f4xx_i2c.c ****   /* To use the I2C at 400 KHz (in fast mode), the PCLK1 frequency (I2C peripheral
 229:cmsis/device/stm32f4xx_i2c.c ****      input clock) must be a multiple of 10 MHz */
 230:cmsis/device/stm32f4xx_i2c.c ****   else /*(I2C_InitStruct->I2C_ClockSpeed <= 400000)*/
 231:cmsis/device/stm32f4xx_i2c.c ****   {
 232:cmsis/device/stm32f4xx_i2c.c ****     if (I2C_InitStruct->I2C_DutyCycle == I2C_DutyCycle_2)
 233:cmsis/device/stm32f4xx_i2c.c ****     {
 234:cmsis/device/stm32f4xx_i2c.c ****       /* Fast mode speed calculate: Tlow/Thigh = 2 */
 235:cmsis/device/stm32f4xx_i2c.c ****       result = (uint16_t)(pclk1 / (I2C_InitStruct->I2C_ClockSpeed * 3));
 236:cmsis/device/stm32f4xx_i2c.c ****     }
 237:cmsis/device/stm32f4xx_i2c.c ****     else /*I2C_InitStruct->I2C_DutyCycle == I2C_DutyCycle_16_9*/
 238:cmsis/device/stm32f4xx_i2c.c ****     {
 239:cmsis/device/stm32f4xx_i2c.c ****       /* Fast mode speed calculate: Tlow/Thigh = 16/9 */
 240:cmsis/device/stm32f4xx_i2c.c ****       result = (uint16_t)(pclk1 / (I2C_InitStruct->I2C_ClockSpeed * 25));
 241:cmsis/device/stm32f4xx_i2c.c ****       /* Set DUTY bit */
 242:cmsis/device/stm32f4xx_i2c.c ****       result |= I2C_DutyCycle_16_9;
 243:cmsis/device/stm32f4xx_i2c.c ****     }
ARM GAS  C:\Users\CNous\AppData\Local\Temp\ccLIBeCO.s 			page 10


 244:cmsis/device/stm32f4xx_i2c.c **** 
 245:cmsis/device/stm32f4xx_i2c.c ****     /* Test if CCR value is under 0x1*/
 246:cmsis/device/stm32f4xx_i2c.c ****     if ((result & I2C_CCR_CCR) == 0)
 247:cmsis/device/stm32f4xx_i2c.c ****     {
 248:cmsis/device/stm32f4xx_i2c.c ****       /* Set minimum allowed value */
 249:cmsis/device/stm32f4xx_i2c.c ****       result |= (uint16_t)0x0001;  
 250:cmsis/device/stm32f4xx_i2c.c ****     }
 251:cmsis/device/stm32f4xx_i2c.c ****     /* Set speed value and set F/S bit for fast mode */
 252:cmsis/device/stm32f4xx_i2c.c ****     tmpreg |= (uint16_t)(result | I2C_CCR_FS);
 253:cmsis/device/stm32f4xx_i2c.c ****     /* Set Maximum Rise Time for fast mode */
 254:cmsis/device/stm32f4xx_i2c.c ****     I2Cx->TRISE = (uint16_t)(((freqrange * (uint16_t)300) / (uint16_t)1000) + (uint16_t)1);  
 255:cmsis/device/stm32f4xx_i2c.c ****   }
 256:cmsis/device/stm32f4xx_i2c.c **** 
 257:cmsis/device/stm32f4xx_i2c.c ****   /* Write to I2Cx CCR */
 258:cmsis/device/stm32f4xx_i2c.c ****   I2Cx->CCR = tmpreg;
 248              		.loc 1 258 0
 249 0062 A183     		strh	r1, [r4, #28]	@ movhi	@ tmpreg, I2Cx_9(D)->CCR
 259:cmsis/device/stm32f4xx_i2c.c ****   /* Enable the selected I2C peripheral */
 260:cmsis/device/stm32f4xx_i2c.c ****   I2Cx->CR1 |= I2C_CR1_PE;
 250              		.loc 1 260 0
 251 0064 2388     		ldrh	r3, [r4, #0]	@, I2Cx_9(D)->CR1
 261:cmsis/device/stm32f4xx_i2c.c **** 
 262:cmsis/device/stm32f4xx_i2c.c **** /*---------------------------- I2Cx CR1 Configuration ------------------------*/
 263:cmsis/device/stm32f4xx_i2c.c ****   /* Get the I2Cx CR1 value */
 264:cmsis/device/stm32f4xx_i2c.c ****   tmpreg = I2Cx->CR1;
 265:cmsis/device/stm32f4xx_i2c.c ****   /* Clear ACK, SMBTYPE and  SMBUS bits */
 266:cmsis/device/stm32f4xx_i2c.c ****   tmpreg &= CR1_CLEAR_MASK;
 267:cmsis/device/stm32f4xx_i2c.c ****   /* Configure I2Cx: mode and acknowledgement */
 268:cmsis/device/stm32f4xx_i2c.c ****   /* Set SMBTYPE and SMBUS bits according to I2C_Mode value */
 269:cmsis/device/stm32f4xx_i2c.c ****   /* Set ACK bit according to I2C_Ack value */
 270:cmsis/device/stm32f4xx_i2c.c ****   tmpreg |= (uint16_t)((uint32_t)I2C_InitStruct->I2C_Mode | I2C_InitStruct->I2C_Ack);
 271:cmsis/device/stm32f4xx_i2c.c ****   /* Write to I2Cx CR1 */
 272:cmsis/device/stm32f4xx_i2c.c ****   I2Cx->CR1 = tmpreg;
 273:cmsis/device/stm32f4xx_i2c.c **** 
 274:cmsis/device/stm32f4xx_i2c.c **** /*---------------------------- I2Cx OAR1 Configuration -----------------------*/
 275:cmsis/device/stm32f4xx_i2c.c ****   /* Set I2Cx Own Address1 and acknowledged address */
 276:cmsis/device/stm32f4xx_i2c.c ****   I2Cx->OAR1 = (I2C_InitStruct->I2C_AcknowledgedAddress | I2C_InitStruct->I2C_OwnAddress1);
 252              		.loc 1 276 0
 253 0066 AA89     		ldrh	r2, [r5, #12]	@, I2C_InitStruct_19(D)->I2C_AcknowledgedAddress
 270:cmsis/device/stm32f4xx_i2c.c ****   tmpreg |= (uint16_t)((uint32_t)I2C_InitStruct->I2C_Mode | I2C_InitStruct->I2C_Ack);
 254              		.loc 1 270 0
 255 0068 6E89     		ldrh	r6, [r5, #10]	@, I2C_InitStruct_19(D)->I2C_Ack
 256 006a A888     		ldrh	r0, [r5, #4]	@, I2C_InitStruct_19(D)->I2C_Mode
 257              		.loc 1 276 0
 258 006c 2989     		ldrh	r1, [r5, #8]	@, I2C_InitStruct_19(D)->I2C_OwnAddress1
 259              	.LVL21:
 260:cmsis/device/stm32f4xx_i2c.c ****   I2Cx->CR1 |= I2C_CR1_PE;
 260              		.loc 1 260 0
 261 006e 9BB2     		uxth	r3, r3	@ D.6888, I2Cx_9(D)->CR1
 262 0070 43F00103 		orr	r3, r3, #1	@ D.6889, D.6888,
 263 0074 2380     		strh	r3, [r4, #0]	@ movhi	@ D.6889, I2Cx_9(D)->CR1
 264:cmsis/device/stm32f4xx_i2c.c ****   tmpreg = I2Cx->CR1;
 264              		.loc 1 264 0
 265 0076 2388     		ldrh	r3, [r4, #0]	@, I2Cx_9(D)->CR1
 266              	.LVL22:
 266:cmsis/device/stm32f4xx_i2c.c ****   tmpreg &= CR1_CLEAR_MASK;
 267              		.loc 1 266 0
ARM GAS  C:\Users\CNous\AppData\Local\Temp\ccLIBeCO.s 			page 11


 268 0078 23F48163 		bic	r3, r3, #1032	@ tmpreg, I2Cx_9(D)->CR1,
 269              	.LVL23:
 270 007c 23F00203 		bic	r3, r3, #2	@ tmpreg, tmpreg,
 271 0080 1B04     		lsls	r3, r3, #16	@ tmpreg, tmpreg,
 272 0082 1B0C     		lsrs	r3, r3, #16	@ tmpreg, tmpreg,
 273              	.LVL24:
 270:cmsis/device/stm32f4xx_i2c.c ****   tmpreg |= (uint16_t)((uint32_t)I2C_InitStruct->I2C_Mode | I2C_InitStruct->I2C_Ack);
 274              		.loc 1 270 0
 275 0084 3043     		orrs	r0, r0, r6	@, tmp232, I2C_InitStruct_19(D)->I2C_Mode, I2C_InitStruct_19(D)->I2C_Ack
 276 0086 0343     		orrs	r3, r3, r0	@, tmp234, tmpreg, tmp232
 277              	.LVL25:
 278              		.loc 1 276 0
 279 0088 1143     		orrs	r1, r1, r2	@, tmp238, I2C_InitStruct_19(D)->I2C_OwnAddress1, I2C_InitStruct_19(D)->I2C_Acknow
 270:cmsis/device/stm32f4xx_i2c.c ****   tmpreg |= (uint16_t)((uint32_t)I2C_InitStruct->I2C_Mode | I2C_InitStruct->I2C_Ack);
 280              		.loc 1 270 0
 281 008a 9BB2     		uxth	r3, r3	@ tmpreg, tmp234
 282              	.LVL26:
 283              		.loc 1 276 0
 284 008c 8AB2     		uxth	r2, r1	@ D.6895, tmp238
 272:cmsis/device/stm32f4xx_i2c.c ****   I2Cx->CR1 = tmpreg;
 285              		.loc 1 272 0
 286 008e 2380     		strh	r3, [r4, #0]	@ movhi	@ tmpreg, I2Cx_9(D)->CR1
 287              		.loc 1 276 0
 288 0090 2281     		strh	r2, [r4, #8]	@ movhi	@ D.6895, I2Cx_9(D)->OAR1
 277:cmsis/device/stm32f4xx_i2c.c **** }
 289              		.loc 1 277 0
 290 0092 05B0     		add	sp, sp, #20	@,,
 291 0094 F0BD     		pop	{r4, r5, r6, r7, pc}
 292              	.LVL27:
 293              	.L10:
 232:cmsis/device/stm32f4xx_i2c.c ****     if (I2C_InitStruct->I2C_DutyCycle == I2C_DutyCycle_2)
 294              		.loc 1 232 0
 295 0096 E888     		ldrh	r0, [r5, #6]	@ I2C_InitStruct_19(D)->I2C_DutyCycle, I2C_InitStruct_19(D)->I2C_DutyCycle
 296 0098 4BF6FF73 		movw	r3, #49151	@ tmp192,
 297 009c 9842     		cmp	r0, r3	@ I2C_InitStruct_19(D)->I2C_DutyCycle, tmp192
 298 009e 1DD0     		beq	.L17	@,
 299              	.LVL28:
 240:cmsis/device/stm32f4xx_i2c.c ****       result = (uint16_t)(pclk1 / (I2C_InitStruct->I2C_ClockSpeed * 25));
 300              		.loc 1 240 0
 301 00a0 02EB8202 		add	r2, r2, r2, lsl #2	@, tmp200, D.6861, D.6861,
 302              	.LVL29:
 303 00a4 02EB8206 		add	r6, r2, r2, lsl #2	@, tmp202, tmp200, tmp200,
 304 00a8 B1FBF6F1 		udiv	r1, r1, r6	@ tmp204, pclk1, tmp202
 305              	.LVL30:
 242:cmsis/device/stm32f4xx_i2c.c ****       result |= I2C_DutyCycle_16_9;
 306              		.loc 1 242 0
 307 00ac 41F48040 		orr	r0, r1, #16384	@ tmp205, tmp204,
 308 00b0 81B2     		uxth	r1, r0	@ result, tmp205
 309              	.LVL31:
 310              	.L14:
 246:cmsis/device/stm32f4xx_i2c.c ****     if ((result & I2C_CCR_CCR) == 0)
 311              		.loc 1 246 0
 312 00b2 0E05     		lsls	r6, r1, #20	@ tmp209, result,
 313 00b4 300D     		lsrs	r0, r6, #20	@ tmp209, tmp209,
 314 00b6 08B9     		cbnz	r0, .L15	@ tmp209,
 249:cmsis/device/stm32f4xx_i2c.c ****       result |= (uint16_t)0x0001;  
 315              		.loc 1 249 0
ARM GAS  C:\Users\CNous\AppData\Local\Temp\ccLIBeCO.s 			page 12


 316 00b8 41F00101 		orr	r1, r1, #1	@ result, result,
 317              	.LVL32:
 318              	.L15:
 254:cmsis/device/stm32f4xx_i2c.c ****     I2Cx->TRISE = (uint16_t)(((freqrange * (uint16_t)300) / (uint16_t)1000) + (uint16_t)1);  
 319              		.loc 1 254 0
 320 00bc 4FF49673 		mov	r3, #300	@ tmp214,
 321 00c0 44F6D352 		movw	r2, #19923	@ tmp217,
 322 00c4 C1F26202 		movt	r2, 4194	@ tmp217,
 323 00c8 03FB07F7 		mul	r7, r3, r7	@ tmp213, tmp214, D.6909
 324              	.LVL33:
 325 00cc 82FB0736 		smull	r3, r6, r2, r7	@, tmp216, tmp217, tmp213
 326 00d0 B009     		lsrs	r0, r6, #6	@ tmp215, tmp216,
 327 00d2 421C     		adds	r2, r0, #1	@ D.6887, tmp215,
 252:cmsis/device/stm32f4xx_i2c.c ****     tmpreg |= (uint16_t)(result | I2C_CCR_FS);
 328              		.loc 1 252 0
 329 00d4 41F40041 		orr	r1, r1, #32768	@ tmpreg, result,
 330              	.LVL34:
 254:cmsis/device/stm32f4xx_i2c.c ****     I2Cx->TRISE = (uint16_t)(((freqrange * (uint16_t)300) / (uint16_t)1000) + (uint16_t)1);  
 331              		.loc 1 254 0
 332 00d8 2284     		strh	r2, [r4, #32]	@ movhi	@ D.6887, I2Cx_9(D)->TRISE
 333 00da C2E7     		b	.L12	@
 334              	.LVL35:
 335              	.L17:
 235:cmsis/device/stm32f4xx_i2c.c ****       result = (uint16_t)(pclk1 / (I2C_InitStruct->I2C_ClockSpeed * 3));
 336              		.loc 1 235 0
 337 00dc 02EB4203 		add	r3, r2, r2, lsl #1	@, tmp195, D.6861, D.6861,
 338 00e0 B1FBF3F2 		udiv	r2, r1, r3	@ tmp197, pclk1, tmp195
 339 00e4 91B2     		uxth	r1, r2	@ result, tmp197
 340              	.LVL36:
 341 00e6 E4E7     		b	.L14	@
 342              		.cfi_endproc
 343              	.LFE111:
 344              		.size	I2C_Init, .-I2C_Init
 345              		.section	.text.I2C_StructInit,"ax",%progbits
 346              		.align	2
 347              		.global	I2C_StructInit
 348              		.thumb
 349              		.thumb_func
 350              		.type	I2C_StructInit, %function
 351              	I2C_StructInit:
 352              	.LFB112:
 278:cmsis/device/stm32f4xx_i2c.c **** 
 279:cmsis/device/stm32f4xx_i2c.c **** /**
 280:cmsis/device/stm32f4xx_i2c.c ****   * @brief  Fills each I2C_InitStruct member with its default value.
 281:cmsis/device/stm32f4xx_i2c.c ****   * @param  I2C_InitStruct: pointer to an I2C_InitTypeDef structure which will be initialized.
 282:cmsis/device/stm32f4xx_i2c.c ****   * @retval None
 283:cmsis/device/stm32f4xx_i2c.c ****   */
 284:cmsis/device/stm32f4xx_i2c.c **** void I2C_StructInit(I2C_InitTypeDef* I2C_InitStruct)
 285:cmsis/device/stm32f4xx_i2c.c **** {
 353              		.loc 1 285 0
 354              		.cfi_startproc
 355              		@ args = 0, pretend = 0, frame = 0
 356              		@ frame_needed = 0, uses_anonymous_args = 0
 357              		@ link register save eliminated.
 358              	.LVL37:
 286:cmsis/device/stm32f4xx_i2c.c **** /*---------------- Reset I2C init structure parameters values ----------------*/
 287:cmsis/device/stm32f4xx_i2c.c ****   /* initialize the I2C_ClockSpeed member */
ARM GAS  C:\Users\CNous\AppData\Local\Temp\ccLIBeCO.s 			page 13


 288:cmsis/device/stm32f4xx_i2c.c ****   I2C_InitStruct->I2C_ClockSpeed = 5000;
 289:cmsis/device/stm32f4xx_i2c.c ****   /* Initialize the I2C_Mode member */
 290:cmsis/device/stm32f4xx_i2c.c ****   I2C_InitStruct->I2C_Mode = I2C_Mode_I2C;
 359              		.loc 1 290 0
 360 0000 0023     		movs	r3, #0	@ tmp137,
 288:cmsis/device/stm32f4xx_i2c.c ****   I2C_InitStruct->I2C_ClockSpeed = 5000;
 361              		.loc 1 288 0
 362 0002 41F28832 		movw	r2, #5000	@ tmp135,
 363              		.loc 1 290 0
 364 0006 8380     		strh	r3, [r0, #4]	@ movhi	@ tmp137, I2C_InitStruct_1(D)->I2C_Mode
 291:cmsis/device/stm32f4xx_i2c.c ****   /* Initialize the I2C_DutyCycle member */
 292:cmsis/device/stm32f4xx_i2c.c ****   I2C_InitStruct->I2C_DutyCycle = I2C_DutyCycle_2;
 365              		.loc 1 292 0
 366 0008 4BF6FF71 		movw	r1, #49151	@ tmp139,
 293:cmsis/device/stm32f4xx_i2c.c ****   /* Initialize the I2C_OwnAddress1 member */
 294:cmsis/device/stm32f4xx_i2c.c ****   I2C_InitStruct->I2C_OwnAddress1 = 0;
 367              		.loc 1 294 0
 368 000c 0381     		strh	r3, [r0, #8]	@ movhi	@ tmp137, I2C_InitStruct_1(D)->I2C_OwnAddress1
 295:cmsis/device/stm32f4xx_i2c.c ****   /* Initialize the I2C_Ack member */
 296:cmsis/device/stm32f4xx_i2c.c ****   I2C_InitStruct->I2C_Ack = I2C_Ack_Disable;
 369              		.loc 1 296 0
 370 000e 4381     		strh	r3, [r0, #10]	@ movhi	@ tmp137, I2C_InitStruct_1(D)->I2C_Ack
 297:cmsis/device/stm32f4xx_i2c.c ****   /* Initialize the I2C_AcknowledgedAddress member */
 298:cmsis/device/stm32f4xx_i2c.c ****   I2C_InitStruct->I2C_AcknowledgedAddress = I2C_AcknowledgedAddress_7bit;
 371              		.loc 1 298 0
 372 0010 4FF48043 		mov	r3, #16384	@ tmp145,
 288:cmsis/device/stm32f4xx_i2c.c ****   I2C_InitStruct->I2C_ClockSpeed = 5000;
 373              		.loc 1 288 0
 374 0014 0260     		str	r2, [r0, #0]	@ tmp135, I2C_InitStruct_1(D)->I2C_ClockSpeed
 292:cmsis/device/stm32f4xx_i2c.c ****   I2C_InitStruct->I2C_DutyCycle = I2C_DutyCycle_2;
 375              		.loc 1 292 0
 376 0016 C180     		strh	r1, [r0, #6]	@ movhi	@ tmp139, I2C_InitStruct_1(D)->I2C_DutyCycle
 377              		.loc 1 298 0
 378 0018 8381     		strh	r3, [r0, #12]	@ movhi	@ tmp145, I2C_InitStruct_1(D)->I2C_AcknowledgedAddress
 379 001a 7047     		bx	lr	@
 380              		.cfi_endproc
 381              	.LFE112:
 382              		.size	I2C_StructInit, .-I2C_StructInit
 383              		.section	.text.I2C_Cmd,"ax",%progbits
 384              		.align	2
 385              		.global	I2C_Cmd
 386              		.thumb
 387              		.thumb_func
 388              		.type	I2C_Cmd, %function
 389              	I2C_Cmd:
 390              	.LFB113:
 299:cmsis/device/stm32f4xx_i2c.c **** }
 300:cmsis/device/stm32f4xx_i2c.c **** 
 301:cmsis/device/stm32f4xx_i2c.c **** /**
 302:cmsis/device/stm32f4xx_i2c.c ****   * @brief  Enables or disables the specified I2C peripheral.
 303:cmsis/device/stm32f4xx_i2c.c ****   * @param  I2Cx: where x can be 1, 2 or 3 to select the I2C peripheral.
 304:cmsis/device/stm32f4xx_i2c.c ****   * @param  NewState: new state of the I2Cx peripheral. 
 305:cmsis/device/stm32f4xx_i2c.c ****   *          This parameter can be: ENABLE or DISABLE.
 306:cmsis/device/stm32f4xx_i2c.c ****   * @retval None
 307:cmsis/device/stm32f4xx_i2c.c ****   */
 308:cmsis/device/stm32f4xx_i2c.c **** void I2C_Cmd(I2C_TypeDef* I2Cx, FunctionalState NewState)
 309:cmsis/device/stm32f4xx_i2c.c **** {
ARM GAS  C:\Users\CNous\AppData\Local\Temp\ccLIBeCO.s 			page 14


 391              		.loc 1 309 0
 392              		.cfi_startproc
 393              		@ args = 0, pretend = 0, frame = 0
 394              		@ frame_needed = 0, uses_anonymous_args = 0
 395              		@ link register save eliminated.
 396              	.LVL38:
 310:cmsis/device/stm32f4xx_i2c.c ****   /* Check the parameters */
 311:cmsis/device/stm32f4xx_i2c.c ****   assert_param(IS_I2C_ALL_PERIPH(I2Cx));
 312:cmsis/device/stm32f4xx_i2c.c ****   assert_param(IS_FUNCTIONAL_STATE(NewState));
 313:cmsis/device/stm32f4xx_i2c.c ****   if (NewState != DISABLE)
 314:cmsis/device/stm32f4xx_i2c.c ****   {
 315:cmsis/device/stm32f4xx_i2c.c ****     /* Enable the selected I2C peripheral */
 316:cmsis/device/stm32f4xx_i2c.c ****     I2Cx->CR1 |= I2C_CR1_PE;
 397              		.loc 1 316 0
 398 0000 0388     		ldrh	r3, [r0, #0]	@,* I2Cx
 313:cmsis/device/stm32f4xx_i2c.c ****   if (NewState != DISABLE)
 399              		.loc 1 313 0
 400 0002 29B9     		cbnz	r1, .L22	@ NewState,
 317:cmsis/device/stm32f4xx_i2c.c ****   }
 318:cmsis/device/stm32f4xx_i2c.c ****   else
 319:cmsis/device/stm32f4xx_i2c.c ****   {
 320:cmsis/device/stm32f4xx_i2c.c ****     /* Disable the selected I2C peripheral */
 321:cmsis/device/stm32f4xx_i2c.c ****     I2Cx->CR1 &= (uint16_t)~((uint16_t)I2C_CR1_PE);
 401              		.loc 1 321 0
 402 0004 23F00101 		bic	r1, r3, #1	@ D.6857, I2Cx_2(D)->CR1,
 403              	.LVL39:
 404 0008 0A04     		lsls	r2, r1, #16	@ D.6857, D.6857,
 405 000a 130C     		lsrs	r3, r2, #16	@ D.6857, D.6857,
 406 000c 0380     		strh	r3, [r0, #0]	@ movhi	@ D.6857,* I2Cx
 407 000e 7047     		bx	lr	@
 408              	.LVL40:
 409              	.L22:
 316:cmsis/device/stm32f4xx_i2c.c ****     I2Cx->CR1 |= I2C_CR1_PE;
 410              		.loc 1 316 0
 411 0010 99B2     		uxth	r1, r3	@ D.6853, I2Cx_2(D)->CR1
 412              	.LVL41:
 413 0012 41F00102 		orr	r2, r1, #1	@ D.6854, D.6853,
 414 0016 0280     		strh	r2, [r0, #0]	@ movhi	@ D.6854,* I2Cx
 415 0018 7047     		bx	lr	@
 416              		.cfi_endproc
 417              	.LFE113:
 418              		.size	I2C_Cmd, .-I2C_Cmd
 419 001a 00BF     		.section	.text.I2C_GenerateSTART,"ax",%progbits
 420              		.align	2
 421              		.global	I2C_GenerateSTART
 422              		.thumb
 423              		.thumb_func
 424              		.type	I2C_GenerateSTART, %function
 425              	I2C_GenerateSTART:
 426              	.LFB114:
 322:cmsis/device/stm32f4xx_i2c.c ****   }
 323:cmsis/device/stm32f4xx_i2c.c **** }
 324:cmsis/device/stm32f4xx_i2c.c **** 
 325:cmsis/device/stm32f4xx_i2c.c **** /**
 326:cmsis/device/stm32f4xx_i2c.c ****   * @brief  Generates I2Cx communication START condition.
 327:cmsis/device/stm32f4xx_i2c.c ****   * @param  I2Cx: where x can be 1, 2 or 3 to select the I2C peripheral.
 328:cmsis/device/stm32f4xx_i2c.c ****   * @param  NewState: new state of the I2C START condition generation.
ARM GAS  C:\Users\CNous\AppData\Local\Temp\ccLIBeCO.s 			page 15


 329:cmsis/device/stm32f4xx_i2c.c ****   *          This parameter can be: ENABLE or DISABLE.
 330:cmsis/device/stm32f4xx_i2c.c ****   * @retval None.
 331:cmsis/device/stm32f4xx_i2c.c ****   */
 332:cmsis/device/stm32f4xx_i2c.c **** void I2C_GenerateSTART(I2C_TypeDef* I2Cx, FunctionalState NewState)
 333:cmsis/device/stm32f4xx_i2c.c **** {
 427              		.loc 1 333 0
 428              		.cfi_startproc
 429              		@ args = 0, pretend = 0, frame = 0
 430              		@ frame_needed = 0, uses_anonymous_args = 0
 431              		@ link register save eliminated.
 432              	.LVL42:
 334:cmsis/device/stm32f4xx_i2c.c ****   /* Check the parameters */
 335:cmsis/device/stm32f4xx_i2c.c ****   assert_param(IS_I2C_ALL_PERIPH(I2Cx));
 336:cmsis/device/stm32f4xx_i2c.c ****   assert_param(IS_FUNCTIONAL_STATE(NewState));
 337:cmsis/device/stm32f4xx_i2c.c ****   if (NewState != DISABLE)
 338:cmsis/device/stm32f4xx_i2c.c ****   {
 339:cmsis/device/stm32f4xx_i2c.c ****     /* Generate a START condition */
 340:cmsis/device/stm32f4xx_i2c.c ****     I2Cx->CR1 |= I2C_CR1_START;
 433              		.loc 1 340 0
 434 0000 0388     		ldrh	r3, [r0, #0]	@,* I2Cx
 337:cmsis/device/stm32f4xx_i2c.c ****   if (NewState != DISABLE)
 435              		.loc 1 337 0
 436 0002 29B9     		cbnz	r1, .L26	@ NewState,
 341:cmsis/device/stm32f4xx_i2c.c ****   }
 342:cmsis/device/stm32f4xx_i2c.c ****   else
 343:cmsis/device/stm32f4xx_i2c.c ****   {
 344:cmsis/device/stm32f4xx_i2c.c ****     /* Disable the START condition generation */
 345:cmsis/device/stm32f4xx_i2c.c ****     I2Cx->CR1 &= (uint16_t)~((uint16_t)I2C_CR1_START);
 437              		.loc 1 345 0
 438 0004 23F48071 		bic	r1, r3, #256	@ D.6850, I2Cx_2(D)->CR1,
 439              	.LVL43:
 440 0008 0A04     		lsls	r2, r1, #16	@ D.6850, D.6850,
 441 000a 130C     		lsrs	r3, r2, #16	@ D.6850, D.6850,
 442 000c 0380     		strh	r3, [r0, #0]	@ movhi	@ D.6850,* I2Cx
 443 000e 7047     		bx	lr	@
 444              	.LVL44:
 445              	.L26:
 340:cmsis/device/stm32f4xx_i2c.c ****     I2Cx->CR1 |= I2C_CR1_START;
 446              		.loc 1 340 0
 447 0010 99B2     		uxth	r1, r3	@ D.6846, I2Cx_2(D)->CR1
 448              	.LVL45:
 449 0012 41F48072 		orr	r2, r1, #256	@ D.6847, D.6846,
 450 0016 0280     		strh	r2, [r0, #0]	@ movhi	@ D.6847,* I2Cx
 451 0018 7047     		bx	lr	@
 452              		.cfi_endproc
 453              	.LFE114:
 454              		.size	I2C_GenerateSTART, .-I2C_GenerateSTART
 455 001a 00BF     		.section	.text.I2C_GenerateSTOP,"ax",%progbits
 456              		.align	2
 457              		.global	I2C_GenerateSTOP
 458              		.thumb
 459              		.thumb_func
 460              		.type	I2C_GenerateSTOP, %function
 461              	I2C_GenerateSTOP:
 462              	.LFB115:
 346:cmsis/device/stm32f4xx_i2c.c ****   }
 347:cmsis/device/stm32f4xx_i2c.c **** }
ARM GAS  C:\Users\CNous\AppData\Local\Temp\ccLIBeCO.s 			page 16


 348:cmsis/device/stm32f4xx_i2c.c **** 
 349:cmsis/device/stm32f4xx_i2c.c **** /**
 350:cmsis/device/stm32f4xx_i2c.c ****   * @brief  Generates I2Cx communication STOP condition.
 351:cmsis/device/stm32f4xx_i2c.c ****   * @param  I2Cx: where x can be 1, 2 or 3 to select the I2C peripheral.
 352:cmsis/device/stm32f4xx_i2c.c ****   * @param  NewState: new state of the I2C STOP condition generation.
 353:cmsis/device/stm32f4xx_i2c.c ****   *          This parameter can be: ENABLE or DISABLE.
 354:cmsis/device/stm32f4xx_i2c.c ****   * @retval None.
 355:cmsis/device/stm32f4xx_i2c.c ****   */
 356:cmsis/device/stm32f4xx_i2c.c **** void I2C_GenerateSTOP(I2C_TypeDef* I2Cx, FunctionalState NewState)
 357:cmsis/device/stm32f4xx_i2c.c **** {
 463              		.loc 1 357 0
 464              		.cfi_startproc
 465              		@ args = 0, pretend = 0, frame = 0
 466              		@ frame_needed = 0, uses_anonymous_args = 0
 467              		@ link register save eliminated.
 468              	.LVL46:
 358:cmsis/device/stm32f4xx_i2c.c ****   /* Check the parameters */
 359:cmsis/device/stm32f4xx_i2c.c ****   assert_param(IS_I2C_ALL_PERIPH(I2Cx));
 360:cmsis/device/stm32f4xx_i2c.c ****   assert_param(IS_FUNCTIONAL_STATE(NewState));
 361:cmsis/device/stm32f4xx_i2c.c ****   if (NewState != DISABLE)
 362:cmsis/device/stm32f4xx_i2c.c ****   {
 363:cmsis/device/stm32f4xx_i2c.c ****     /* Generate a STOP condition */
 364:cmsis/device/stm32f4xx_i2c.c ****     I2Cx->CR1 |= I2C_CR1_STOP;
 469              		.loc 1 364 0
 470 0000 0388     		ldrh	r3, [r0, #0]	@,* I2Cx
 361:cmsis/device/stm32f4xx_i2c.c ****   if (NewState != DISABLE)
 471              		.loc 1 361 0
 472 0002 29B9     		cbnz	r1, .L30	@ NewState,
 365:cmsis/device/stm32f4xx_i2c.c ****   }
 366:cmsis/device/stm32f4xx_i2c.c ****   else
 367:cmsis/device/stm32f4xx_i2c.c ****   {
 368:cmsis/device/stm32f4xx_i2c.c ****     /* Disable the STOP condition generation */
 369:cmsis/device/stm32f4xx_i2c.c ****     I2Cx->CR1 &= (uint16_t)~((uint16_t)I2C_CR1_STOP);
 473              		.loc 1 369 0
 474 0004 23F40071 		bic	r1, r3, #512	@ D.6843, I2Cx_2(D)->CR1,
 475              	.LVL47:
 476 0008 0A04     		lsls	r2, r1, #16	@ D.6843, D.6843,
 477 000a 130C     		lsrs	r3, r2, #16	@ D.6843, D.6843,
 478 000c 0380     		strh	r3, [r0, #0]	@ movhi	@ D.6843,* I2Cx
 479 000e 7047     		bx	lr	@
 480              	.LVL48:
 481              	.L30:
 364:cmsis/device/stm32f4xx_i2c.c ****     I2Cx->CR1 |= I2C_CR1_STOP;
 482              		.loc 1 364 0
 483 0010 99B2     		uxth	r1, r3	@ D.6839, I2Cx_2(D)->CR1
 484              	.LVL49:
 485 0012 41F40072 		orr	r2, r1, #512	@ D.6840, D.6839,
 486 0016 0280     		strh	r2, [r0, #0]	@ movhi	@ D.6840,* I2Cx
 487 0018 7047     		bx	lr	@
 488              		.cfi_endproc
 489              	.LFE115:
 490              		.size	I2C_GenerateSTOP, .-I2C_GenerateSTOP
 491 001a 00BF     		.section	.text.I2C_Send7bitAddress,"ax",%progbits
 492              		.align	2
 493              		.global	I2C_Send7bitAddress
 494              		.thumb
 495              		.thumb_func
ARM GAS  C:\Users\CNous\AppData\Local\Temp\ccLIBeCO.s 			page 17


 496              		.type	I2C_Send7bitAddress, %function
 497              	I2C_Send7bitAddress:
 498              	.LFB116:
 370:cmsis/device/stm32f4xx_i2c.c ****   }
 371:cmsis/device/stm32f4xx_i2c.c **** }
 372:cmsis/device/stm32f4xx_i2c.c **** 
 373:cmsis/device/stm32f4xx_i2c.c **** /**
 374:cmsis/device/stm32f4xx_i2c.c ****   * @brief  Transmits the address byte to select the slave device.
 375:cmsis/device/stm32f4xx_i2c.c ****   * @param  I2Cx: where x can be 1, 2 or 3 to select the I2C peripheral.
 376:cmsis/device/stm32f4xx_i2c.c ****   * @param  Address: specifies the slave address which will be transmitted
 377:cmsis/device/stm32f4xx_i2c.c ****   * @param  I2C_Direction: specifies whether the I2C device will be a Transmitter
 378:cmsis/device/stm32f4xx_i2c.c ****   *         or a Receiver. 
 379:cmsis/device/stm32f4xx_i2c.c ****   *          This parameter can be one of the following values
 380:cmsis/device/stm32f4xx_i2c.c ****   *            @arg I2C_Direction_Transmitter: Transmitter mode
 381:cmsis/device/stm32f4xx_i2c.c ****   *            @arg I2C_Direction_Receiver: Receiver mode
 382:cmsis/device/stm32f4xx_i2c.c ****   * @retval None.
 383:cmsis/device/stm32f4xx_i2c.c ****   */
 384:cmsis/device/stm32f4xx_i2c.c **** void I2C_Send7bitAddress(I2C_TypeDef* I2Cx, uint8_t Address, uint8_t I2C_Direction)
 385:cmsis/device/stm32f4xx_i2c.c **** {
 499              		.loc 1 385 0
 500              		.cfi_startproc
 501              		@ args = 0, pretend = 0, frame = 0
 502              		@ frame_needed = 0, uses_anonymous_args = 0
 503              		@ link register save eliminated.
 504              	.LVL50:
 386:cmsis/device/stm32f4xx_i2c.c ****   /* Check the parameters */
 387:cmsis/device/stm32f4xx_i2c.c ****   assert_param(IS_I2C_ALL_PERIPH(I2Cx));
 388:cmsis/device/stm32f4xx_i2c.c ****   assert_param(IS_I2C_DIRECTION(I2C_Direction));
 389:cmsis/device/stm32f4xx_i2c.c ****   /* Test on the direction to set/reset the read/write bit */
 390:cmsis/device/stm32f4xx_i2c.c ****   if (I2C_Direction != I2C_Direction_Transmitter)
 505              		.loc 1 390 0
 506 0000 1AB9     		cbnz	r2, .L34	@ I2C_Direction,
 391:cmsis/device/stm32f4xx_i2c.c ****   {
 392:cmsis/device/stm32f4xx_i2c.c ****     /* Set the address bit0 for read */
 393:cmsis/device/stm32f4xx_i2c.c ****     Address |= I2C_OAR1_ADD0;
 394:cmsis/device/stm32f4xx_i2c.c ****   }
 395:cmsis/device/stm32f4xx_i2c.c ****   else
 396:cmsis/device/stm32f4xx_i2c.c ****   {
 397:cmsis/device/stm32f4xx_i2c.c ****     /* Reset the address bit0 for write */
 398:cmsis/device/stm32f4xx_i2c.c ****     Address &= (uint8_t)~((uint8_t)I2C_OAR1_ADD0);
 507              		.loc 1 398 0
 508 0002 01F0FE01 		and	r1, r1, #254	@ Address, Address,
 509              	.LVL51:
 399:cmsis/device/stm32f4xx_i2c.c ****   }
 400:cmsis/device/stm32f4xx_i2c.c ****   /* Send the address */
 401:cmsis/device/stm32f4xx_i2c.c ****   I2Cx->DR = Address;
 510              		.loc 1 401 0
 511 0006 0182     		strh	r1, [r0, #16]	@ movhi	@ Address, I2Cx_7(D)->DR
 512 0008 7047     		bx	lr	@
 513              	.L34:
 393:cmsis/device/stm32f4xx_i2c.c ****     Address |= I2C_OAR1_ADD0;
 514              		.loc 1 393 0
 515 000a 41F00101 		orr	r1, r1, #1	@ Address, Address,
 516              	.LVL52:
 517              		.loc 1 401 0
 518 000e 0182     		strh	r1, [r0, #16]	@ movhi	@ Address, I2Cx_7(D)->DR
 519 0010 7047     		bx	lr	@
ARM GAS  C:\Users\CNous\AppData\Local\Temp\ccLIBeCO.s 			page 18


 520              		.cfi_endproc
 521              	.LFE116:
 522              		.size	I2C_Send7bitAddress, .-I2C_Send7bitAddress
 523 0012 00BF     		.section	.text.I2C_AcknowledgeConfig,"ax",%progbits
 524              		.align	2
 525              		.global	I2C_AcknowledgeConfig
 526              		.thumb
 527              		.thumb_func
 528              		.type	I2C_AcknowledgeConfig, %function
 529              	I2C_AcknowledgeConfig:
 530              	.LFB117:
 402:cmsis/device/stm32f4xx_i2c.c **** }
 403:cmsis/device/stm32f4xx_i2c.c **** 
 404:cmsis/device/stm32f4xx_i2c.c **** /**
 405:cmsis/device/stm32f4xx_i2c.c ****   * @brief  Enables or disables the specified I2C acknowledge feature.
 406:cmsis/device/stm32f4xx_i2c.c ****   * @param  I2Cx: where x can be 1, 2 or 3 to select the I2C peripheral.
 407:cmsis/device/stm32f4xx_i2c.c ****   * @param  NewState: new state of the I2C Acknowledgement.
 408:cmsis/device/stm32f4xx_i2c.c ****   *          This parameter can be: ENABLE or DISABLE.
 409:cmsis/device/stm32f4xx_i2c.c ****   * @retval None.
 410:cmsis/device/stm32f4xx_i2c.c ****   */
 411:cmsis/device/stm32f4xx_i2c.c **** void I2C_AcknowledgeConfig(I2C_TypeDef* I2Cx, FunctionalState NewState)
 412:cmsis/device/stm32f4xx_i2c.c **** {
 531              		.loc 1 412 0
 532              		.cfi_startproc
 533              		@ args = 0, pretend = 0, frame = 0
 534              		@ frame_needed = 0, uses_anonymous_args = 0
 535              		@ link register save eliminated.
 536              	.LVL53:
 413:cmsis/device/stm32f4xx_i2c.c ****   /* Check the parameters */
 414:cmsis/device/stm32f4xx_i2c.c ****   assert_param(IS_I2C_ALL_PERIPH(I2Cx));
 415:cmsis/device/stm32f4xx_i2c.c ****   assert_param(IS_FUNCTIONAL_STATE(NewState));
 416:cmsis/device/stm32f4xx_i2c.c ****   if (NewState != DISABLE)
 417:cmsis/device/stm32f4xx_i2c.c ****   {
 418:cmsis/device/stm32f4xx_i2c.c ****     /* Enable the acknowledgement */
 419:cmsis/device/stm32f4xx_i2c.c ****     I2Cx->CR1 |= I2C_CR1_ACK;
 537              		.loc 1 419 0
 538 0000 0388     		ldrh	r3, [r0, #0]	@,* I2Cx
 416:cmsis/device/stm32f4xx_i2c.c ****   if (NewState != DISABLE)
 539              		.loc 1 416 0
 540 0002 29B9     		cbnz	r1, .L38	@ NewState,
 420:cmsis/device/stm32f4xx_i2c.c ****   }
 421:cmsis/device/stm32f4xx_i2c.c ****   else
 422:cmsis/device/stm32f4xx_i2c.c ****   {
 423:cmsis/device/stm32f4xx_i2c.c ****     /* Disable the acknowledgement */
 424:cmsis/device/stm32f4xx_i2c.c ****     I2Cx->CR1 &= (uint16_t)~((uint16_t)I2C_CR1_ACK);
 541              		.loc 1 424 0
 542 0004 23F48061 		bic	r1, r3, #1024	@ D.6832, I2Cx_2(D)->CR1,
 543              	.LVL54:
 544 0008 0A04     		lsls	r2, r1, #16	@ D.6832, D.6832,
 545 000a 130C     		lsrs	r3, r2, #16	@ D.6832, D.6832,
 546 000c 0380     		strh	r3, [r0, #0]	@ movhi	@ D.6832,* I2Cx
 547 000e 7047     		bx	lr	@
 548              	.LVL55:
 549              	.L38:
 419:cmsis/device/stm32f4xx_i2c.c ****     I2Cx->CR1 |= I2C_CR1_ACK;
 550              		.loc 1 419 0
 551 0010 99B2     		uxth	r1, r3	@ D.6828, I2Cx_2(D)->CR1
ARM GAS  C:\Users\CNous\AppData\Local\Temp\ccLIBeCO.s 			page 19


 552              	.LVL56:
 553 0012 41F48062 		orr	r2, r1, #1024	@ D.6829, D.6828,
 554 0016 0280     		strh	r2, [r0, #0]	@ movhi	@ D.6829,* I2Cx
 555 0018 7047     		bx	lr	@
 556              		.cfi_endproc
 557              	.LFE117:
 558              		.size	I2C_AcknowledgeConfig, .-I2C_AcknowledgeConfig
 559 001a 00BF     		.section	.text.I2C_OwnAddress2Config,"ax",%progbits
 560              		.align	2
 561              		.global	I2C_OwnAddress2Config
 562              		.thumb
 563              		.thumb_func
 564              		.type	I2C_OwnAddress2Config, %function
 565              	I2C_OwnAddress2Config:
 566              	.LFB118:
 425:cmsis/device/stm32f4xx_i2c.c ****   }
 426:cmsis/device/stm32f4xx_i2c.c **** }
 427:cmsis/device/stm32f4xx_i2c.c **** 
 428:cmsis/device/stm32f4xx_i2c.c **** /**
 429:cmsis/device/stm32f4xx_i2c.c ****   * @brief  Configures the specified I2C own address2.
 430:cmsis/device/stm32f4xx_i2c.c ****   * @param  I2Cx: where x can be 1, 2 or 3 to select the I2C peripheral.
 431:cmsis/device/stm32f4xx_i2c.c ****   * @param  Address: specifies the 7bit I2C own address2.
 432:cmsis/device/stm32f4xx_i2c.c ****   * @retval None.
 433:cmsis/device/stm32f4xx_i2c.c ****   */
 434:cmsis/device/stm32f4xx_i2c.c **** void I2C_OwnAddress2Config(I2C_TypeDef* I2Cx, uint8_t Address)
 435:cmsis/device/stm32f4xx_i2c.c **** {
 567              		.loc 1 435 0
 568              		.cfi_startproc
 569              		@ args = 0, pretend = 0, frame = 0
 570              		@ frame_needed = 0, uses_anonymous_args = 0
 571              		@ link register save eliminated.
 572              	.LVL57:
 436:cmsis/device/stm32f4xx_i2c.c ****   uint16_t tmpreg = 0;
 437:cmsis/device/stm32f4xx_i2c.c **** 
 438:cmsis/device/stm32f4xx_i2c.c ****   /* Check the parameters */
 439:cmsis/device/stm32f4xx_i2c.c ****   assert_param(IS_I2C_ALL_PERIPH(I2Cx));
 440:cmsis/device/stm32f4xx_i2c.c **** 
 441:cmsis/device/stm32f4xx_i2c.c ****   /* Get the old register value */
 442:cmsis/device/stm32f4xx_i2c.c ****   tmpreg = I2Cx->OAR2;
 573              		.loc 1 442 0
 574 0000 8389     		ldrh	r3, [r0, #12]	@, I2Cx_2(D)->OAR2
 575              	.LVL58:
 443:cmsis/device/stm32f4xx_i2c.c **** 
 444:cmsis/device/stm32f4xx_i2c.c ****   /* Reset I2Cx Own address2 bit [7:1] */
 445:cmsis/device/stm32f4xx_i2c.c ****   tmpreg &= (uint16_t)~((uint16_t)I2C_OAR2_ADD2);
 576              		.loc 1 445 0
 577 0002 23F0FE02 		bic	r2, r3, #254	@ tmp148, I2Cx_2(D)->OAR2,
 578 0006 1304     		lsls	r3, r2, #16	@ tmp148, tmp148,
 579              	.LVL59:
 446:cmsis/device/stm32f4xx_i2c.c **** 
 447:cmsis/device/stm32f4xx_i2c.c ****   /* Set I2Cx Own address2 */
 448:cmsis/device/stm32f4xx_i2c.c ****   tmpreg |= (uint16_t)((uint16_t)Address & (uint16_t)0x00FE);
 580              		.loc 1 448 0
 581 0008 01F0FE01 		and	r1, r1, #254	@ tmp147, Address,
 582              	.LVL60:
 445:cmsis/device/stm32f4xx_i2c.c ****   tmpreg &= (uint16_t)~((uint16_t)I2C_OAR2_ADD2);
 583              		.loc 1 445 0
ARM GAS  C:\Users\CNous\AppData\Local\Temp\ccLIBeCO.s 			page 20


 584 000c 1A0C     		lsrs	r2, r3, #16	@ tmp148, tmp148,
 585              		.loc 1 448 0
 586 000e 1143     		orrs	r1, r1, r2	@, tmpreg, tmp147, tmp148
 587              	.LVL61:
 449:cmsis/device/stm32f4xx_i2c.c **** 
 450:cmsis/device/stm32f4xx_i2c.c ****   /* Store the new register value */
 451:cmsis/device/stm32f4xx_i2c.c ****   I2Cx->OAR2 = tmpreg;
 588              		.loc 1 451 0
 589 0010 8181     		strh	r1, [r0, #12]	@ movhi	@ tmpreg, I2Cx_2(D)->OAR2
 590 0012 7047     		bx	lr	@
 591              		.cfi_endproc
 592              	.LFE118:
 593              		.size	I2C_OwnAddress2Config, .-I2C_OwnAddress2Config
 594              		.section	.text.I2C_DualAddressCmd,"ax",%progbits
 595              		.align	2
 596              		.global	I2C_DualAddressCmd
 597              		.thumb
 598              		.thumb_func
 599              		.type	I2C_DualAddressCmd, %function
 600              	I2C_DualAddressCmd:
 601              	.LFB119:
 452:cmsis/device/stm32f4xx_i2c.c **** }
 453:cmsis/device/stm32f4xx_i2c.c **** 
 454:cmsis/device/stm32f4xx_i2c.c **** /**
 455:cmsis/device/stm32f4xx_i2c.c ****   * @brief  Enables or disables the specified I2C dual addressing mode.
 456:cmsis/device/stm32f4xx_i2c.c ****   * @param  I2Cx: where x can be 1, 2 or 3 to select the I2C peripheral.
 457:cmsis/device/stm32f4xx_i2c.c ****   * @param  NewState: new state of the I2C dual addressing mode.
 458:cmsis/device/stm32f4xx_i2c.c ****   *          This parameter can be: ENABLE or DISABLE.
 459:cmsis/device/stm32f4xx_i2c.c ****   * @retval None
 460:cmsis/device/stm32f4xx_i2c.c ****   */
 461:cmsis/device/stm32f4xx_i2c.c **** void I2C_DualAddressCmd(I2C_TypeDef* I2Cx, FunctionalState NewState)
 462:cmsis/device/stm32f4xx_i2c.c **** {
 602              		.loc 1 462 0
 603              		.cfi_startproc
 604              		@ args = 0, pretend = 0, frame = 0
 605              		@ frame_needed = 0, uses_anonymous_args = 0
 606              		@ link register save eliminated.
 607              	.LVL62:
 463:cmsis/device/stm32f4xx_i2c.c ****   /* Check the parameters */
 464:cmsis/device/stm32f4xx_i2c.c ****   assert_param(IS_I2C_ALL_PERIPH(I2Cx));
 465:cmsis/device/stm32f4xx_i2c.c ****   assert_param(IS_FUNCTIONAL_STATE(NewState));
 466:cmsis/device/stm32f4xx_i2c.c ****   if (NewState != DISABLE)
 467:cmsis/device/stm32f4xx_i2c.c ****   {
 468:cmsis/device/stm32f4xx_i2c.c ****     /* Enable dual addressing mode */
 469:cmsis/device/stm32f4xx_i2c.c ****     I2Cx->OAR2 |= I2C_OAR2_ENDUAL;
 608              		.loc 1 469 0
 609 0000 8389     		ldrh	r3, [r0, #12]	@,
 466:cmsis/device/stm32f4xx_i2c.c ****   if (NewState != DISABLE)
 610              		.loc 1 466 0
 611 0002 29B9     		cbnz	r1, .L43	@ NewState,
 470:cmsis/device/stm32f4xx_i2c.c ****   }
 471:cmsis/device/stm32f4xx_i2c.c ****   else
 472:cmsis/device/stm32f4xx_i2c.c ****   {
 473:cmsis/device/stm32f4xx_i2c.c ****     /* Disable dual addressing mode */
 474:cmsis/device/stm32f4xx_i2c.c ****     I2Cx->OAR2 &= (uint16_t)~((uint16_t)I2C_OAR2_ENDUAL);
 612              		.loc 1 474 0
 613 0004 23F00101 		bic	r1, r3, #1	@ D.6821, I2Cx_2(D)->OAR2,
ARM GAS  C:\Users\CNous\AppData\Local\Temp\ccLIBeCO.s 			page 21


 614              	.LVL63:
 615 0008 0A04     		lsls	r2, r1, #16	@ D.6821, D.6821,
 616 000a 130C     		lsrs	r3, r2, #16	@ D.6821, D.6821,
 617 000c 8381     		strh	r3, [r0, #12]	@ movhi	@ D.6821,
 618 000e 7047     		bx	lr	@
 619              	.LVL64:
 620              	.L43:
 469:cmsis/device/stm32f4xx_i2c.c ****     I2Cx->OAR2 |= I2C_OAR2_ENDUAL;
 621              		.loc 1 469 0
 622 0010 99B2     		uxth	r1, r3	@ D.6817, I2Cx_2(D)->OAR2
 623              	.LVL65:
 624 0012 41F00102 		orr	r2, r1, #1	@ D.6818, D.6817,
 625 0016 8281     		strh	r2, [r0, #12]	@ movhi	@ D.6818,
 626 0018 7047     		bx	lr	@
 627              		.cfi_endproc
 628              	.LFE119:
 629              		.size	I2C_DualAddressCmd, .-I2C_DualAddressCmd
 630 001a 00BF     		.section	.text.I2C_GeneralCallCmd,"ax",%progbits
 631              		.align	2
 632              		.global	I2C_GeneralCallCmd
 633              		.thumb
 634              		.thumb_func
 635              		.type	I2C_GeneralCallCmd, %function
 636              	I2C_GeneralCallCmd:
 637              	.LFB120:
 475:cmsis/device/stm32f4xx_i2c.c ****   }
 476:cmsis/device/stm32f4xx_i2c.c **** }
 477:cmsis/device/stm32f4xx_i2c.c **** 
 478:cmsis/device/stm32f4xx_i2c.c **** /**
 479:cmsis/device/stm32f4xx_i2c.c ****   * @brief  Enables or disables the specified I2C general call feature.
 480:cmsis/device/stm32f4xx_i2c.c ****   * @param  I2Cx: where x can be 1, 2 or 3 to select the I2C peripheral.
 481:cmsis/device/stm32f4xx_i2c.c ****   * @param  NewState: new state of the I2C General call.
 482:cmsis/device/stm32f4xx_i2c.c ****   *          This parameter can be: ENABLE or DISABLE.
 483:cmsis/device/stm32f4xx_i2c.c ****   * @retval None
 484:cmsis/device/stm32f4xx_i2c.c ****   */
 485:cmsis/device/stm32f4xx_i2c.c **** void I2C_GeneralCallCmd(I2C_TypeDef* I2Cx, FunctionalState NewState)
 486:cmsis/device/stm32f4xx_i2c.c **** {
 638              		.loc 1 486 0
 639              		.cfi_startproc
 640              		@ args = 0, pretend = 0, frame = 0
 641              		@ frame_needed = 0, uses_anonymous_args = 0
 642              		@ link register save eliminated.
 643              	.LVL66:
 487:cmsis/device/stm32f4xx_i2c.c ****   /* Check the parameters */
 488:cmsis/device/stm32f4xx_i2c.c ****   assert_param(IS_I2C_ALL_PERIPH(I2Cx));
 489:cmsis/device/stm32f4xx_i2c.c ****   assert_param(IS_FUNCTIONAL_STATE(NewState));
 490:cmsis/device/stm32f4xx_i2c.c ****   if (NewState != DISABLE)
 491:cmsis/device/stm32f4xx_i2c.c ****   {
 492:cmsis/device/stm32f4xx_i2c.c ****     /* Enable generall call */
 493:cmsis/device/stm32f4xx_i2c.c ****     I2Cx->CR1 |= I2C_CR1_ENGC;
 644              		.loc 1 493 0
 645 0000 0388     		ldrh	r3, [r0, #0]	@,* I2Cx
 490:cmsis/device/stm32f4xx_i2c.c ****   if (NewState != DISABLE)
 646              		.loc 1 490 0
 647 0002 29B9     		cbnz	r1, .L47	@ NewState,
 494:cmsis/device/stm32f4xx_i2c.c ****   }
 495:cmsis/device/stm32f4xx_i2c.c ****   else
ARM GAS  C:\Users\CNous\AppData\Local\Temp\ccLIBeCO.s 			page 22


 496:cmsis/device/stm32f4xx_i2c.c ****   {
 497:cmsis/device/stm32f4xx_i2c.c ****     /* Disable generall call */
 498:cmsis/device/stm32f4xx_i2c.c ****     I2Cx->CR1 &= (uint16_t)~((uint16_t)I2C_CR1_ENGC);
 648              		.loc 1 498 0
 649 0004 23F04001 		bic	r1, r3, #64	@ D.6814, I2Cx_2(D)->CR1,
 650              	.LVL67:
 651 0008 0A04     		lsls	r2, r1, #16	@ D.6814, D.6814,
 652 000a 130C     		lsrs	r3, r2, #16	@ D.6814, D.6814,
 653 000c 0380     		strh	r3, [r0, #0]	@ movhi	@ D.6814,* I2Cx
 654 000e 7047     		bx	lr	@
 655              	.LVL68:
 656              	.L47:
 493:cmsis/device/stm32f4xx_i2c.c ****     I2Cx->CR1 |= I2C_CR1_ENGC;
 657              		.loc 1 493 0
 658 0010 99B2     		uxth	r1, r3	@ D.6810, I2Cx_2(D)->CR1
 659              	.LVL69:
 660 0012 41F04002 		orr	r2, r1, #64	@ D.6811, D.6810,
 661 0016 0280     		strh	r2, [r0, #0]	@ movhi	@ D.6811,* I2Cx
 662 0018 7047     		bx	lr	@
 663              		.cfi_endproc
 664              	.LFE120:
 665              		.size	I2C_GeneralCallCmd, .-I2C_GeneralCallCmd
 666 001a 00BF     		.section	.text.I2C_SoftwareResetCmd,"ax",%progbits
 667              		.align	2
 668              		.global	I2C_SoftwareResetCmd
 669              		.thumb
 670              		.thumb_func
 671              		.type	I2C_SoftwareResetCmd, %function
 672              	I2C_SoftwareResetCmd:
 673              	.LFB121:
 499:cmsis/device/stm32f4xx_i2c.c ****   }
 500:cmsis/device/stm32f4xx_i2c.c **** }
 501:cmsis/device/stm32f4xx_i2c.c **** 
 502:cmsis/device/stm32f4xx_i2c.c **** /**
 503:cmsis/device/stm32f4xx_i2c.c ****   * @brief  Enables or disables the specified I2C software reset.
 504:cmsis/device/stm32f4xx_i2c.c ****   * @note   When software reset is enabled, the I2C IOs are released (this can
 505:cmsis/device/stm32f4xx_i2c.c ****   *         be useful to recover from bus errors).  
 506:cmsis/device/stm32f4xx_i2c.c ****   * @param  I2Cx: where x can be 1, 2 or 3 to select the I2C peripheral.
 507:cmsis/device/stm32f4xx_i2c.c ****   * @param  NewState: new state of the I2C software reset.
 508:cmsis/device/stm32f4xx_i2c.c ****   *          This parameter can be: ENABLE or DISABLE.
 509:cmsis/device/stm32f4xx_i2c.c ****   * @retval None
 510:cmsis/device/stm32f4xx_i2c.c ****   */
 511:cmsis/device/stm32f4xx_i2c.c **** void I2C_SoftwareResetCmd(I2C_TypeDef* I2Cx, FunctionalState NewState)
 512:cmsis/device/stm32f4xx_i2c.c **** {
 674              		.loc 1 512 0
 675              		.cfi_startproc
 676              		@ args = 0, pretend = 0, frame = 0
 677              		@ frame_needed = 0, uses_anonymous_args = 0
 678              		@ link register save eliminated.
 679              	.LVL70:
 513:cmsis/device/stm32f4xx_i2c.c ****   /* Check the parameters */
 514:cmsis/device/stm32f4xx_i2c.c ****   assert_param(IS_I2C_ALL_PERIPH(I2Cx));
 515:cmsis/device/stm32f4xx_i2c.c ****   assert_param(IS_FUNCTIONAL_STATE(NewState));
 516:cmsis/device/stm32f4xx_i2c.c ****   if (NewState != DISABLE)
 517:cmsis/device/stm32f4xx_i2c.c ****   {
 518:cmsis/device/stm32f4xx_i2c.c ****     /* Peripheral under reset */
 519:cmsis/device/stm32f4xx_i2c.c ****     I2Cx->CR1 |= I2C_CR1_SWRST;
ARM GAS  C:\Users\CNous\AppData\Local\Temp\ccLIBeCO.s 			page 23


 680              		.loc 1 519 0
 681 0000 0388     		ldrh	r3, [r0, #0]	@,* I2Cx
 516:cmsis/device/stm32f4xx_i2c.c ****   if (NewState != DISABLE)
 682              		.loc 1 516 0
 683 0002 19B9     		cbnz	r1, .L51	@ NewState,
 520:cmsis/device/stm32f4xx_i2c.c ****   }
 521:cmsis/device/stm32f4xx_i2c.c ****   else
 522:cmsis/device/stm32f4xx_i2c.c ****   {
 523:cmsis/device/stm32f4xx_i2c.c ****     /* Peripheral not under reset */
 524:cmsis/device/stm32f4xx_i2c.c ****     I2Cx->CR1 &= (uint16_t)~((uint16_t)I2C_CR1_SWRST);
 684              		.loc 1 524 0
 685 0004 5904     		lsls	r1, r3, #17	@ D.6807, I2Cx_2(D)->CR1,
 686              	.LVL71:
 687 0006 4A0C     		lsrs	r2, r1, #17	@ D.6807, D.6807,
 688 0008 0280     		strh	r2, [r0, #0]	@ movhi	@ D.6807,* I2Cx
 689 000a 7047     		bx	lr	@
 690              	.LVL72:
 691              	.L51:
 519:cmsis/device/stm32f4xx_i2c.c ****     I2Cx->CR1 |= I2C_CR1_SWRST;
 692              		.loc 1 519 0
 693 000c 6FEA4343 		mvn	r3, r3, lsl #17	@ tmp142, I2Cx_2(D)->CR1,
 694 0010 6FEA5341 		mvn	r1, r3, lsr #17	@ tmp141, tmp142,
 695              	.LVL73:
 696 0014 8AB2     		uxth	r2, r1	@ D.6804, tmp141
 697 0016 0280     		strh	r2, [r0, #0]	@ movhi	@ D.6804,* I2Cx
 698 0018 7047     		bx	lr	@
 699              		.cfi_endproc
 700              	.LFE121:
 701              		.size	I2C_SoftwareResetCmd, .-I2C_SoftwareResetCmd
 702 001a 00BF     		.section	.text.I2C_StretchClockCmd,"ax",%progbits
 703              		.align	2
 704              		.global	I2C_StretchClockCmd
 705              		.thumb
 706              		.thumb_func
 707              		.type	I2C_StretchClockCmd, %function
 708              	I2C_StretchClockCmd:
 709              	.LFB122:
 525:cmsis/device/stm32f4xx_i2c.c ****   }
 526:cmsis/device/stm32f4xx_i2c.c **** }
 527:cmsis/device/stm32f4xx_i2c.c **** 
 528:cmsis/device/stm32f4xx_i2c.c **** /**
 529:cmsis/device/stm32f4xx_i2c.c ****   * @brief  Enables or disables the specified I2C Clock stretching.
 530:cmsis/device/stm32f4xx_i2c.c ****   * @param  I2Cx: where x can be 1, 2 or 3 to select the I2C peripheral.
 531:cmsis/device/stm32f4xx_i2c.c ****   * @param  NewState: new state of the I2Cx Clock stretching.
 532:cmsis/device/stm32f4xx_i2c.c ****   *          This parameter can be: ENABLE or DISABLE.
 533:cmsis/device/stm32f4xx_i2c.c ****   * @retval None
 534:cmsis/device/stm32f4xx_i2c.c ****   */
 535:cmsis/device/stm32f4xx_i2c.c **** void I2C_StretchClockCmd(I2C_TypeDef* I2Cx, FunctionalState NewState)
 536:cmsis/device/stm32f4xx_i2c.c **** {
 710              		.loc 1 536 0
 711              		.cfi_startproc
 712              		@ args = 0, pretend = 0, frame = 0
 713              		@ frame_needed = 0, uses_anonymous_args = 0
 714              		@ link register save eliminated.
 715              	.LVL74:
 537:cmsis/device/stm32f4xx_i2c.c ****   /* Check the parameters */
 538:cmsis/device/stm32f4xx_i2c.c ****   assert_param(IS_I2C_ALL_PERIPH(I2Cx));
ARM GAS  C:\Users\CNous\AppData\Local\Temp\ccLIBeCO.s 			page 24


 539:cmsis/device/stm32f4xx_i2c.c ****   assert_param(IS_FUNCTIONAL_STATE(NewState));
 540:cmsis/device/stm32f4xx_i2c.c ****   if (NewState == DISABLE)
 541:cmsis/device/stm32f4xx_i2c.c ****   {
 542:cmsis/device/stm32f4xx_i2c.c ****     /* Enable the selected I2C Clock stretching */
 543:cmsis/device/stm32f4xx_i2c.c ****     I2Cx->CR1 |= I2C_CR1_NOSTRETCH;
 716              		.loc 1 543 0
 717 0000 0388     		ldrh	r3, [r0, #0]	@,* I2Cx
 540:cmsis/device/stm32f4xx_i2c.c ****   if (NewState == DISABLE)
 718              		.loc 1 540 0
 719 0002 29B1     		cbz	r1, .L55	@ NewState,
 544:cmsis/device/stm32f4xx_i2c.c ****   }
 545:cmsis/device/stm32f4xx_i2c.c ****   else
 546:cmsis/device/stm32f4xx_i2c.c ****   {
 547:cmsis/device/stm32f4xx_i2c.c ****     /* Disable the selected I2C Clock stretching */
 548:cmsis/device/stm32f4xx_i2c.c ****     I2Cx->CR1 &= (uint16_t)~((uint16_t)I2C_CR1_NOSTRETCH);
 720              		.loc 1 548 0
 721 0004 23F08001 		bic	r1, r3, #128	@ D.6800, I2Cx_2(D)->CR1,
 722              	.LVL75:
 723 0008 0A04     		lsls	r2, r1, #16	@ D.6800, D.6800,
 724 000a 130C     		lsrs	r3, r2, #16	@ D.6800, D.6800,
 725 000c 0380     		strh	r3, [r0, #0]	@ movhi	@ D.6800,* I2Cx
 726 000e 7047     		bx	lr	@
 727              	.LVL76:
 728              	.L55:
 543:cmsis/device/stm32f4xx_i2c.c ****     I2Cx->CR1 |= I2C_CR1_NOSTRETCH;
 729              		.loc 1 543 0
 730 0010 99B2     		uxth	r1, r3	@ D.6796, I2Cx_2(D)->CR1
 731              	.LVL77:
 732 0012 41F08002 		orr	r2, r1, #128	@ D.6797, D.6796,
 733 0016 0280     		strh	r2, [r0, #0]	@ movhi	@ D.6797,* I2Cx
 734 0018 7047     		bx	lr	@
 735              		.cfi_endproc
 736              	.LFE122:
 737              		.size	I2C_StretchClockCmd, .-I2C_StretchClockCmd
 738 001a 00BF     		.section	.text.I2C_FastModeDutyCycleConfig,"ax",%progbits
 739              		.align	2
 740              		.global	I2C_FastModeDutyCycleConfig
 741              		.thumb
 742              		.thumb_func
 743              		.type	I2C_FastModeDutyCycleConfig, %function
 744              	I2C_FastModeDutyCycleConfig:
 745              	.LFB123:
 549:cmsis/device/stm32f4xx_i2c.c ****   }
 550:cmsis/device/stm32f4xx_i2c.c **** }
 551:cmsis/device/stm32f4xx_i2c.c **** 
 552:cmsis/device/stm32f4xx_i2c.c **** /**
 553:cmsis/device/stm32f4xx_i2c.c ****   * @brief  Selects the specified I2C fast mode duty cycle.
 554:cmsis/device/stm32f4xx_i2c.c ****   * @param  I2Cx: where x can be 1, 2 or 3 to select the I2C peripheral.
 555:cmsis/device/stm32f4xx_i2c.c ****   * @param  I2C_DutyCycle: specifies the fast mode duty cycle.
 556:cmsis/device/stm32f4xx_i2c.c ****   *          This parameter can be one of the following values:
 557:cmsis/device/stm32f4xx_i2c.c ****   *            @arg I2C_DutyCycle_2: I2C fast mode Tlow/Thigh = 2
 558:cmsis/device/stm32f4xx_i2c.c ****   *            @arg I2C_DutyCycle_16_9: I2C fast mode Tlow/Thigh = 16/9
 559:cmsis/device/stm32f4xx_i2c.c ****   * @retval None
 560:cmsis/device/stm32f4xx_i2c.c ****   */
 561:cmsis/device/stm32f4xx_i2c.c **** void I2C_FastModeDutyCycleConfig(I2C_TypeDef* I2Cx, uint16_t I2C_DutyCycle)
 562:cmsis/device/stm32f4xx_i2c.c **** {
 746              		.loc 1 562 0
ARM GAS  C:\Users\CNous\AppData\Local\Temp\ccLIBeCO.s 			page 25


 747              		.cfi_startproc
 748              		@ args = 0, pretend = 0, frame = 0
 749              		@ frame_needed = 0, uses_anonymous_args = 0
 750              		@ link register save eliminated.
 751              	.LVL78:
 563:cmsis/device/stm32f4xx_i2c.c ****   /* Check the parameters */
 564:cmsis/device/stm32f4xx_i2c.c ****   assert_param(IS_I2C_ALL_PERIPH(I2Cx));
 565:cmsis/device/stm32f4xx_i2c.c ****   assert_param(IS_I2C_DUTY_CYCLE(I2C_DutyCycle));
 566:cmsis/device/stm32f4xx_i2c.c ****   if (I2C_DutyCycle != I2C_DutyCycle_16_9)
 752              		.loc 1 566 0
 753 0000 B1F5804F 		cmp	r1, #16384	@ I2C_DutyCycle,
 567:cmsis/device/stm32f4xx_i2c.c ****   {
 568:cmsis/device/stm32f4xx_i2c.c ****     /* I2C fast mode Tlow/Thigh=2 */
 569:cmsis/device/stm32f4xx_i2c.c ****     I2Cx->CCR &= I2C_DutyCycle_2;
 754              		.loc 1 569 0
 755 0004 838B     		ldrh	r3, [r0, #28]	@,
 566:cmsis/device/stm32f4xx_i2c.c ****   if (I2C_DutyCycle != I2C_DutyCycle_16_9)
 756              		.loc 1 566 0
 757 0006 05D0     		beq	.L57	@,
 758              		.loc 1 569 0
 759 0008 23F48043 		bic	r3, r3, #16384	@ D.6790, I2Cx_2(D)->CCR,
 760 000c 1904     		lsls	r1, r3, #16	@ D.6790, D.6790,
 761              	.LVL79:
 762 000e 0A0C     		lsrs	r2, r1, #16	@ D.6790, D.6790,
 763 0010 8283     		strh	r2, [r0, #28]	@ movhi	@ D.6790,
 764 0012 7047     		bx	lr	@
 765              	.LVL80:
 766              	.L57:
 570:cmsis/device/stm32f4xx_i2c.c ****   }
 571:cmsis/device/stm32f4xx_i2c.c ****   else
 572:cmsis/device/stm32f4xx_i2c.c ****   {
 573:cmsis/device/stm32f4xx_i2c.c ****     /* I2C fast mode Tlow/Thigh=16/9 */
 574:cmsis/device/stm32f4xx_i2c.c ****     I2Cx->CCR |= I2C_DutyCycle_16_9;
 767              		.loc 1 574 0
 768 0014 99B2     		uxth	r1, r3	@ D.6792, I2Cx_2(D)->CCR
 769              	.LVL81:
 770 0016 41F48042 		orr	r2, r1, #16384	@ D.6793, D.6792,
 771 001a 8283     		strh	r2, [r0, #28]	@ movhi	@ D.6793,
 772 001c 7047     		bx	lr	@
 773              		.cfi_endproc
 774              	.LFE123:
 775              		.size	I2C_FastModeDutyCycleConfig, .-I2C_FastModeDutyCycleConfig
 776 001e 00BF     		.section	.text.I2C_NACKPositionConfig,"ax",%progbits
 777              		.align	2
 778              		.global	I2C_NACKPositionConfig
 779              		.thumb
 780              		.thumb_func
 781              		.type	I2C_NACKPositionConfig, %function
 782              	I2C_NACKPositionConfig:
 783              	.LFB124:
 575:cmsis/device/stm32f4xx_i2c.c ****   }
 576:cmsis/device/stm32f4xx_i2c.c **** }
 577:cmsis/device/stm32f4xx_i2c.c **** 
 578:cmsis/device/stm32f4xx_i2c.c **** /**
 579:cmsis/device/stm32f4xx_i2c.c ****   * @brief  Selects the specified I2C NACK position in master receiver mode.
 580:cmsis/device/stm32f4xx_i2c.c ****   * @note   This function is useful in I2C Master Receiver mode when the number
 581:cmsis/device/stm32f4xx_i2c.c ****   *         of data to be received is equal to 2. In this case, this function 
ARM GAS  C:\Users\CNous\AppData\Local\Temp\ccLIBeCO.s 			page 26


 582:cmsis/device/stm32f4xx_i2c.c ****   *         should be called (with parameter I2C_NACKPosition_Next) before data 
 583:cmsis/device/stm32f4xx_i2c.c ****   *         reception starts,as described in the 2-byte reception procedure 
 584:cmsis/device/stm32f4xx_i2c.c ****   *         recommended in Reference Manual in Section: Master receiver.                
 585:cmsis/device/stm32f4xx_i2c.c ****   * @param  I2Cx: where x can be 1, 2 or 3 to select the I2C peripheral.
 586:cmsis/device/stm32f4xx_i2c.c ****   * @param  I2C_NACKPosition: specifies the NACK position. 
 587:cmsis/device/stm32f4xx_i2c.c ****   *          This parameter can be one of the following values:
 588:cmsis/device/stm32f4xx_i2c.c ****   *            @arg I2C_NACKPosition_Next: indicates that the next byte will be the last
 589:cmsis/device/stm32f4xx_i2c.c ****   *                                        received byte.  
 590:cmsis/device/stm32f4xx_i2c.c ****   *            @arg I2C_NACKPosition_Current: indicates that current byte is the last 
 591:cmsis/device/stm32f4xx_i2c.c ****   *                                           received byte.
 592:cmsis/device/stm32f4xx_i2c.c ****   *            
 593:cmsis/device/stm32f4xx_i2c.c ****   * @note    This function configures the same bit (POS) as I2C_PECPositionConfig() 
 594:cmsis/device/stm32f4xx_i2c.c ****   *          but is intended to be used in I2C mode while I2C_PECPositionConfig() 
 595:cmsis/device/stm32f4xx_i2c.c ****   *          is intended to used in SMBUS mode. 
 596:cmsis/device/stm32f4xx_i2c.c ****   *            
 597:cmsis/device/stm32f4xx_i2c.c ****   * @retval None
 598:cmsis/device/stm32f4xx_i2c.c ****   */
 599:cmsis/device/stm32f4xx_i2c.c **** void I2C_NACKPositionConfig(I2C_TypeDef* I2Cx, uint16_t I2C_NACKPosition)
 600:cmsis/device/stm32f4xx_i2c.c **** {
 784              		.loc 1 600 0
 785              		.cfi_startproc
 786              		@ args = 0, pretend = 0, frame = 0
 787              		@ frame_needed = 0, uses_anonymous_args = 0
 788              		@ link register save eliminated.
 789              	.LVL82:
 601:cmsis/device/stm32f4xx_i2c.c ****   /* Check the parameters */
 602:cmsis/device/stm32f4xx_i2c.c ****   assert_param(IS_I2C_ALL_PERIPH(I2Cx));
 603:cmsis/device/stm32f4xx_i2c.c ****   assert_param(IS_I2C_NACK_POSITION(I2C_NACKPosition));
 604:cmsis/device/stm32f4xx_i2c.c ****   
 605:cmsis/device/stm32f4xx_i2c.c ****   /* Check the input parameter */
 606:cmsis/device/stm32f4xx_i2c.c ****   if (I2C_NACKPosition == I2C_NACKPosition_Next)
 790              		.loc 1 606 0
 791 0000 B1F5006F 		cmp	r1, #2048	@ I2C_NACKPosition,
 607:cmsis/device/stm32f4xx_i2c.c ****   {
 608:cmsis/device/stm32f4xx_i2c.c ****     /* Next byte in shift register is the last received byte */
 609:cmsis/device/stm32f4xx_i2c.c ****     I2Cx->CR1 |= I2C_NACKPosition_Next;
 792              		.loc 1 609 0
 793 0004 0388     		ldrh	r3, [r0, #0]	@,* I2Cx
 606:cmsis/device/stm32f4xx_i2c.c ****   if (I2C_NACKPosition == I2C_NACKPosition_Next)
 794              		.loc 1 606 0
 795 0006 05D0     		beq	.L62	@,
 610:cmsis/device/stm32f4xx_i2c.c ****   }
 611:cmsis/device/stm32f4xx_i2c.c ****   else
 612:cmsis/device/stm32f4xx_i2c.c ****   {
 613:cmsis/device/stm32f4xx_i2c.c ****     /* Current byte in shift register is the last received byte */
 614:cmsis/device/stm32f4xx_i2c.c ****     I2Cx->CR1 &= I2C_NACKPosition_Current;
 796              		.loc 1 614 0
 797 0008 23F40061 		bic	r1, r3, #2048	@ D.6786, I2Cx_2(D)->CR1,
 798              	.LVL83:
 799 000c 0A04     		lsls	r2, r1, #16	@ D.6786, D.6786,
 800 000e 130C     		lsrs	r3, r2, #16	@ D.6786, D.6786,
 801 0010 0380     		strh	r3, [r0, #0]	@ movhi	@ D.6786,* I2Cx
 802 0012 7047     		bx	lr	@
 803              	.LVL84:
 804              	.L62:
 609:cmsis/device/stm32f4xx_i2c.c ****     I2Cx->CR1 |= I2C_NACKPosition_Next;
 805              		.loc 1 609 0
ARM GAS  C:\Users\CNous\AppData\Local\Temp\ccLIBeCO.s 			page 27


 806 0014 99B2     		uxth	r1, r3	@ D.6782, I2Cx_2(D)->CR1
 807              	.LVL85:
 808 0016 41F40062 		orr	r2, r1, #2048	@ D.6783, D.6782,
 809 001a 0280     		strh	r2, [r0, #0]	@ movhi	@ D.6783,* I2Cx
 810 001c 7047     		bx	lr	@
 811              		.cfi_endproc
 812              	.LFE124:
 813              		.size	I2C_NACKPositionConfig, .-I2C_NACKPositionConfig
 814 001e 00BF     		.section	.text.I2C_SMBusAlertConfig,"ax",%progbits
 815              		.align	2
 816              		.global	I2C_SMBusAlertConfig
 817              		.thumb
 818              		.thumb_func
 819              		.type	I2C_SMBusAlertConfig, %function
 820              	I2C_SMBusAlertConfig:
 821              	.LFB125:
 615:cmsis/device/stm32f4xx_i2c.c ****   }
 616:cmsis/device/stm32f4xx_i2c.c **** }
 617:cmsis/device/stm32f4xx_i2c.c **** 
 618:cmsis/device/stm32f4xx_i2c.c **** /**
 619:cmsis/device/stm32f4xx_i2c.c ****   * @brief  Drives the SMBusAlert pin high or low for the specified I2C.
 620:cmsis/device/stm32f4xx_i2c.c ****   * @param  I2Cx: where x can be 1, 2 or 3 to select the I2C peripheral.
 621:cmsis/device/stm32f4xx_i2c.c ****   * @param  I2C_SMBusAlert: specifies SMBAlert pin level. 
 622:cmsis/device/stm32f4xx_i2c.c ****   *          This parameter can be one of the following values:
 623:cmsis/device/stm32f4xx_i2c.c ****   *            @arg I2C_SMBusAlert_Low: SMBAlert pin driven low
 624:cmsis/device/stm32f4xx_i2c.c ****   *            @arg I2C_SMBusAlert_High: SMBAlert pin driven high
 625:cmsis/device/stm32f4xx_i2c.c ****   * @retval None
 626:cmsis/device/stm32f4xx_i2c.c ****   */
 627:cmsis/device/stm32f4xx_i2c.c **** void I2C_SMBusAlertConfig(I2C_TypeDef* I2Cx, uint16_t I2C_SMBusAlert)
 628:cmsis/device/stm32f4xx_i2c.c **** {
 822              		.loc 1 628 0
 823              		.cfi_startproc
 824              		@ args = 0, pretend = 0, frame = 0
 825              		@ frame_needed = 0, uses_anonymous_args = 0
 826              		@ link register save eliminated.
 827              	.LVL86:
 629:cmsis/device/stm32f4xx_i2c.c ****   /* Check the parameters */
 630:cmsis/device/stm32f4xx_i2c.c ****   assert_param(IS_I2C_ALL_PERIPH(I2Cx));
 631:cmsis/device/stm32f4xx_i2c.c ****   assert_param(IS_I2C_SMBUS_ALERT(I2C_SMBusAlert));
 632:cmsis/device/stm32f4xx_i2c.c ****   if (I2C_SMBusAlert == I2C_SMBusAlert_Low)
 828              		.loc 1 632 0
 829 0000 B1F5005F 		cmp	r1, #8192	@ I2C_SMBusAlert,
 633:cmsis/device/stm32f4xx_i2c.c ****   {
 634:cmsis/device/stm32f4xx_i2c.c ****     /* Drive the SMBusAlert pin Low */
 635:cmsis/device/stm32f4xx_i2c.c ****     I2Cx->CR1 |= I2C_SMBusAlert_Low;
 830              		.loc 1 635 0
 831 0004 0388     		ldrh	r3, [r0, #0]	@,* I2Cx
 632:cmsis/device/stm32f4xx_i2c.c ****   if (I2C_SMBusAlert == I2C_SMBusAlert_Low)
 832              		.loc 1 632 0
 833 0006 05D0     		beq	.L66	@,
 636:cmsis/device/stm32f4xx_i2c.c ****   }
 637:cmsis/device/stm32f4xx_i2c.c ****   else
 638:cmsis/device/stm32f4xx_i2c.c ****   {
 639:cmsis/device/stm32f4xx_i2c.c ****     /* Drive the SMBusAlert pin High  */
 640:cmsis/device/stm32f4xx_i2c.c ****     I2Cx->CR1 &= I2C_SMBusAlert_High;
 834              		.loc 1 640 0
 835 0008 23F40051 		bic	r1, r3, #8192	@ D.6779, I2Cx_2(D)->CR1,
ARM GAS  C:\Users\CNous\AppData\Local\Temp\ccLIBeCO.s 			page 28


 836              	.LVL87:
 837 000c 0A04     		lsls	r2, r1, #16	@ D.6779, D.6779,
 838 000e 130C     		lsrs	r3, r2, #16	@ D.6779, D.6779,
 839 0010 0380     		strh	r3, [r0, #0]	@ movhi	@ D.6779,* I2Cx
 840 0012 7047     		bx	lr	@
 841              	.LVL88:
 842              	.L66:
 635:cmsis/device/stm32f4xx_i2c.c ****     I2Cx->CR1 |= I2C_SMBusAlert_Low;
 843              		.loc 1 635 0
 844 0014 99B2     		uxth	r1, r3	@ D.6775, I2Cx_2(D)->CR1
 845              	.LVL89:
 846 0016 41F40052 		orr	r2, r1, #8192	@ D.6776, D.6775,
 847 001a 0280     		strh	r2, [r0, #0]	@ movhi	@ D.6776,* I2Cx
 848 001c 7047     		bx	lr	@
 849              		.cfi_endproc
 850              	.LFE125:
 851              		.size	I2C_SMBusAlertConfig, .-I2C_SMBusAlertConfig
 852 001e 00BF     		.section	.text.I2C_ARPCmd,"ax",%progbits
 853              		.align	2
 854              		.global	I2C_ARPCmd
 855              		.thumb
 856              		.thumb_func
 857              		.type	I2C_ARPCmd, %function
 858              	I2C_ARPCmd:
 859              	.LFB126:
 641:cmsis/device/stm32f4xx_i2c.c ****   }
 642:cmsis/device/stm32f4xx_i2c.c **** }
 643:cmsis/device/stm32f4xx_i2c.c **** 
 644:cmsis/device/stm32f4xx_i2c.c **** /**
 645:cmsis/device/stm32f4xx_i2c.c ****   * @brief  Enables or disables the specified I2C ARP.
 646:cmsis/device/stm32f4xx_i2c.c ****   * @param  I2Cx: where x can be 1, 2 or 3 to select the I2C peripheral.
 647:cmsis/device/stm32f4xx_i2c.c ****   * @param  NewState: new state of the I2Cx ARP. 
 648:cmsis/device/stm32f4xx_i2c.c ****   *          This parameter can be: ENABLE or DISABLE.
 649:cmsis/device/stm32f4xx_i2c.c ****   * @retval None
 650:cmsis/device/stm32f4xx_i2c.c ****   */
 651:cmsis/device/stm32f4xx_i2c.c **** void I2C_ARPCmd(I2C_TypeDef* I2Cx, FunctionalState NewState)
 652:cmsis/device/stm32f4xx_i2c.c **** {
 860              		.loc 1 652 0
 861              		.cfi_startproc
 862              		@ args = 0, pretend = 0, frame = 0
 863              		@ frame_needed = 0, uses_anonymous_args = 0
 864              		@ link register save eliminated.
 865              	.LVL90:
 653:cmsis/device/stm32f4xx_i2c.c ****   /* Check the parameters */
 654:cmsis/device/stm32f4xx_i2c.c ****   assert_param(IS_I2C_ALL_PERIPH(I2Cx));
 655:cmsis/device/stm32f4xx_i2c.c ****   assert_param(IS_FUNCTIONAL_STATE(NewState));
 656:cmsis/device/stm32f4xx_i2c.c ****   if (NewState != DISABLE)
 657:cmsis/device/stm32f4xx_i2c.c ****   {
 658:cmsis/device/stm32f4xx_i2c.c ****     /* Enable the selected I2C ARP */
 659:cmsis/device/stm32f4xx_i2c.c ****     I2Cx->CR1 |= I2C_CR1_ENARP;
 866              		.loc 1 659 0
 867 0000 0388     		ldrh	r3, [r0, #0]	@,* I2Cx
 656:cmsis/device/stm32f4xx_i2c.c ****   if (NewState != DISABLE)
 868              		.loc 1 656 0
 869 0002 29B9     		cbnz	r1, .L70	@ NewState,
 660:cmsis/device/stm32f4xx_i2c.c ****   }
 661:cmsis/device/stm32f4xx_i2c.c ****   else
ARM GAS  C:\Users\CNous\AppData\Local\Temp\ccLIBeCO.s 			page 29


 662:cmsis/device/stm32f4xx_i2c.c ****   {
 663:cmsis/device/stm32f4xx_i2c.c ****     /* Disable the selected I2C ARP */
 664:cmsis/device/stm32f4xx_i2c.c ****     I2Cx->CR1 &= (uint16_t)~((uint16_t)I2C_CR1_ENARP);
 870              		.loc 1 664 0
 871 0004 23F01001 		bic	r1, r3, #16	@ D.6772, I2Cx_2(D)->CR1,
 872              	.LVL91:
 873 0008 0A04     		lsls	r2, r1, #16	@ D.6772, D.6772,
 874 000a 130C     		lsrs	r3, r2, #16	@ D.6772, D.6772,
 875 000c 0380     		strh	r3, [r0, #0]	@ movhi	@ D.6772,* I2Cx
 876 000e 7047     		bx	lr	@
 877              	.LVL92:
 878              	.L70:
 659:cmsis/device/stm32f4xx_i2c.c ****     I2Cx->CR1 |= I2C_CR1_ENARP;
 879              		.loc 1 659 0
 880 0010 99B2     		uxth	r1, r3	@ D.6768, I2Cx_2(D)->CR1
 881              	.LVL93:
 882 0012 41F01002 		orr	r2, r1, #16	@ D.6769, D.6768,
 883 0016 0280     		strh	r2, [r0, #0]	@ movhi	@ D.6769,* I2Cx
 884 0018 7047     		bx	lr	@
 885              		.cfi_endproc
 886              	.LFE126:
 887              		.size	I2C_ARPCmd, .-I2C_ARPCmd
 888 001a 00BF     		.section	.text.I2C_SendData,"ax",%progbits
 889              		.align	2
 890              		.global	I2C_SendData
 891              		.thumb
 892              		.thumb_func
 893              		.type	I2C_SendData, %function
 894              	I2C_SendData:
 895              	.LFB127:
 665:cmsis/device/stm32f4xx_i2c.c ****   }
 666:cmsis/device/stm32f4xx_i2c.c **** }
 667:cmsis/device/stm32f4xx_i2c.c **** /**
 668:cmsis/device/stm32f4xx_i2c.c ****   * @}
 669:cmsis/device/stm32f4xx_i2c.c ****   */
 670:cmsis/device/stm32f4xx_i2c.c **** 
 671:cmsis/device/stm32f4xx_i2c.c **** /** @defgroup I2C_Group2 Data transfers functions
 672:cmsis/device/stm32f4xx_i2c.c ****  *  @brief   Data transfers functions 
 673:cmsis/device/stm32f4xx_i2c.c ****  *
 674:cmsis/device/stm32f4xx_i2c.c **** @verbatim   
 675:cmsis/device/stm32f4xx_i2c.c ****  ===============================================================================
 676:cmsis/device/stm32f4xx_i2c.c ****                         Data transfers functions
 677:cmsis/device/stm32f4xx_i2c.c ****  ===============================================================================  
 678:cmsis/device/stm32f4xx_i2c.c **** 
 679:cmsis/device/stm32f4xx_i2c.c **** @endverbatim
 680:cmsis/device/stm32f4xx_i2c.c ****   * @{
 681:cmsis/device/stm32f4xx_i2c.c ****   */
 682:cmsis/device/stm32f4xx_i2c.c **** 
 683:cmsis/device/stm32f4xx_i2c.c **** /**
 684:cmsis/device/stm32f4xx_i2c.c ****   * @brief  Sends a data byte through the I2Cx peripheral.
 685:cmsis/device/stm32f4xx_i2c.c ****   * @param  I2Cx: where x can be 1, 2 or 3 to select the I2C peripheral.
 686:cmsis/device/stm32f4xx_i2c.c ****   * @param  Data: Byte to be transmitted..
 687:cmsis/device/stm32f4xx_i2c.c ****   * @retval None
 688:cmsis/device/stm32f4xx_i2c.c ****   */
 689:cmsis/device/stm32f4xx_i2c.c **** void I2C_SendData(I2C_TypeDef* I2Cx, uint8_t Data)
 690:cmsis/device/stm32f4xx_i2c.c **** {
 896              		.loc 1 690 0
ARM GAS  C:\Users\CNous\AppData\Local\Temp\ccLIBeCO.s 			page 30


 897              		.cfi_startproc
 898              		@ args = 0, pretend = 0, frame = 0
 899              		@ frame_needed = 0, uses_anonymous_args = 0
 900              		@ link register save eliminated.
 901              	.LVL94:
 691:cmsis/device/stm32f4xx_i2c.c ****   /* Check the parameters */
 692:cmsis/device/stm32f4xx_i2c.c ****   assert_param(IS_I2C_ALL_PERIPH(I2Cx));
 693:cmsis/device/stm32f4xx_i2c.c ****   /* Write in the DR register the data to be sent */
 694:cmsis/device/stm32f4xx_i2c.c ****   I2Cx->DR = Data;
 902              		.loc 1 694 0
 903 0000 0182     		strh	r1, [r0, #16]	@ movhi	@ Data, I2Cx_3(D)->DR
 904 0002 7047     		bx	lr	@
 905              		.cfi_endproc
 906              	.LFE127:
 907              		.size	I2C_SendData, .-I2C_SendData
 908              		.section	.text.I2C_ReceiveData,"ax",%progbits
 909              		.align	2
 910              		.global	I2C_ReceiveData
 911              		.thumb
 912              		.thumb_func
 913              		.type	I2C_ReceiveData, %function
 914              	I2C_ReceiveData:
 915              	.LFB128:
 695:cmsis/device/stm32f4xx_i2c.c **** }
 696:cmsis/device/stm32f4xx_i2c.c **** 
 697:cmsis/device/stm32f4xx_i2c.c **** /**
 698:cmsis/device/stm32f4xx_i2c.c ****   * @brief  Returns the most recent received data by the I2Cx peripheral.
 699:cmsis/device/stm32f4xx_i2c.c ****   * @param  I2Cx: where x can be 1, 2 or 3 to select the I2C peripheral.
 700:cmsis/device/stm32f4xx_i2c.c ****   * @retval The value of the received data.
 701:cmsis/device/stm32f4xx_i2c.c ****   */
 702:cmsis/device/stm32f4xx_i2c.c **** uint8_t I2C_ReceiveData(I2C_TypeDef* I2Cx)
 703:cmsis/device/stm32f4xx_i2c.c **** {
 916              		.loc 1 703 0
 917              		.cfi_startproc
 918              		@ args = 0, pretend = 0, frame = 0
 919              		@ frame_needed = 0, uses_anonymous_args = 0
 920              		@ link register save eliminated.
 921              	.LVL95:
 704:cmsis/device/stm32f4xx_i2c.c ****   /* Check the parameters */
 705:cmsis/device/stm32f4xx_i2c.c ****   assert_param(IS_I2C_ALL_PERIPH(I2Cx));
 706:cmsis/device/stm32f4xx_i2c.c ****   /* Return the data in the DR register */
 707:cmsis/device/stm32f4xx_i2c.c ****   return (uint8_t)I2Cx->DR;
 922              		.loc 1 707 0
 923 0000 008A     		ldrh	r0, [r0, #16]	@, I2Cx_1(D)->DR
 924              	.LVL96:
 708:cmsis/device/stm32f4xx_i2c.c **** }
 925              		.loc 1 708 0
 926 0002 C0B2     		uxtb	r0, r0	@, I2Cx_1(D)->DR
 927 0004 7047     		bx	lr	@
 928              		.cfi_endproc
 929              	.LFE128:
 930              		.size	I2C_ReceiveData, .-I2C_ReceiveData
 931 0006 00BF     		.section	.text.I2C_TransmitPEC,"ax",%progbits
 932              		.align	2
 933              		.global	I2C_TransmitPEC
 934              		.thumb
 935              		.thumb_func
ARM GAS  C:\Users\CNous\AppData\Local\Temp\ccLIBeCO.s 			page 31


 936              		.type	I2C_TransmitPEC, %function
 937              	I2C_TransmitPEC:
 938              	.LFB129:
 709:cmsis/device/stm32f4xx_i2c.c **** 
 710:cmsis/device/stm32f4xx_i2c.c **** /**
 711:cmsis/device/stm32f4xx_i2c.c ****   * @}
 712:cmsis/device/stm32f4xx_i2c.c ****   */
 713:cmsis/device/stm32f4xx_i2c.c **** 
 714:cmsis/device/stm32f4xx_i2c.c **** /** @defgroup I2C_Group3 PEC management functions
 715:cmsis/device/stm32f4xx_i2c.c ****  *  @brief   PEC management functions 
 716:cmsis/device/stm32f4xx_i2c.c ****  *
 717:cmsis/device/stm32f4xx_i2c.c **** @verbatim   
 718:cmsis/device/stm32f4xx_i2c.c ****  ===============================================================================
 719:cmsis/device/stm32f4xx_i2c.c ****                          PEC management functions
 720:cmsis/device/stm32f4xx_i2c.c ****  ===============================================================================  
 721:cmsis/device/stm32f4xx_i2c.c **** 
 722:cmsis/device/stm32f4xx_i2c.c **** @endverbatim
 723:cmsis/device/stm32f4xx_i2c.c ****   * @{
 724:cmsis/device/stm32f4xx_i2c.c ****   */
 725:cmsis/device/stm32f4xx_i2c.c **** 
 726:cmsis/device/stm32f4xx_i2c.c **** /**
 727:cmsis/device/stm32f4xx_i2c.c ****   * @brief  Enables or disables the specified I2C PEC transfer.
 728:cmsis/device/stm32f4xx_i2c.c ****   * @param  I2Cx: where x can be 1, 2 or 3 to select the I2C peripheral.
 729:cmsis/device/stm32f4xx_i2c.c ****   * @param  NewState: new state of the I2C PEC transmission.
 730:cmsis/device/stm32f4xx_i2c.c ****   *          This parameter can be: ENABLE or DISABLE.
 731:cmsis/device/stm32f4xx_i2c.c ****   * @retval None
 732:cmsis/device/stm32f4xx_i2c.c ****   */
 733:cmsis/device/stm32f4xx_i2c.c **** void I2C_TransmitPEC(I2C_TypeDef* I2Cx, FunctionalState NewState)
 734:cmsis/device/stm32f4xx_i2c.c **** {
 939              		.loc 1 734 0
 940              		.cfi_startproc
 941              		@ args = 0, pretend = 0, frame = 0
 942              		@ frame_needed = 0, uses_anonymous_args = 0
 943              		@ link register save eliminated.
 944              	.LVL97:
 735:cmsis/device/stm32f4xx_i2c.c ****   /* Check the parameters */
 736:cmsis/device/stm32f4xx_i2c.c ****   assert_param(IS_I2C_ALL_PERIPH(I2Cx));
 737:cmsis/device/stm32f4xx_i2c.c ****   assert_param(IS_FUNCTIONAL_STATE(NewState));
 738:cmsis/device/stm32f4xx_i2c.c ****   if (NewState != DISABLE)
 739:cmsis/device/stm32f4xx_i2c.c ****   {
 740:cmsis/device/stm32f4xx_i2c.c ****     /* Enable the selected I2C PEC transmission */
 741:cmsis/device/stm32f4xx_i2c.c ****     I2Cx->CR1 |= I2C_CR1_PEC;
 945              		.loc 1 741 0
 946 0000 0388     		ldrh	r3, [r0, #0]	@,* I2Cx
 738:cmsis/device/stm32f4xx_i2c.c ****   if (NewState != DISABLE)
 947              		.loc 1 738 0
 948 0002 29B9     		cbnz	r1, .L76	@ NewState,
 742:cmsis/device/stm32f4xx_i2c.c ****   }
 743:cmsis/device/stm32f4xx_i2c.c ****   else
 744:cmsis/device/stm32f4xx_i2c.c ****   {
 745:cmsis/device/stm32f4xx_i2c.c ****     /* Disable the selected I2C PEC transmission */
 746:cmsis/device/stm32f4xx_i2c.c ****     I2Cx->CR1 &= (uint16_t)~((uint16_t)I2C_CR1_PEC);
 949              		.loc 1 746 0
 950 0004 23F48051 		bic	r1, r3, #4096	@ D.6761, I2Cx_2(D)->CR1,
 951              	.LVL98:
 952 0008 0A04     		lsls	r2, r1, #16	@ D.6761, D.6761,
 953 000a 130C     		lsrs	r3, r2, #16	@ D.6761, D.6761,
ARM GAS  C:\Users\CNous\AppData\Local\Temp\ccLIBeCO.s 			page 32


 954 000c 0380     		strh	r3, [r0, #0]	@ movhi	@ D.6761,* I2Cx
 955 000e 7047     		bx	lr	@
 956              	.LVL99:
 957              	.L76:
 741:cmsis/device/stm32f4xx_i2c.c ****     I2Cx->CR1 |= I2C_CR1_PEC;
 958              		.loc 1 741 0
 959 0010 99B2     		uxth	r1, r3	@ D.6757, I2Cx_2(D)->CR1
 960              	.LVL100:
 961 0012 41F48052 		orr	r2, r1, #4096	@ D.6758, D.6757,
 962 0016 0280     		strh	r2, [r0, #0]	@ movhi	@ D.6758,* I2Cx
 963 0018 7047     		bx	lr	@
 964              		.cfi_endproc
 965              	.LFE129:
 966              		.size	I2C_TransmitPEC, .-I2C_TransmitPEC
 967 001a 00BF     		.section	.text.I2C_PECPositionConfig,"ax",%progbits
 968              		.align	2
 969              		.global	I2C_PECPositionConfig
 970              		.thumb
 971              		.thumb_func
 972              		.type	I2C_PECPositionConfig, %function
 973              	I2C_PECPositionConfig:
 974              	.LFB130:
 747:cmsis/device/stm32f4xx_i2c.c ****   }
 748:cmsis/device/stm32f4xx_i2c.c **** }
 749:cmsis/device/stm32f4xx_i2c.c **** 
 750:cmsis/device/stm32f4xx_i2c.c **** /**
 751:cmsis/device/stm32f4xx_i2c.c ****   * @brief  Selects the specified I2C PEC position.
 752:cmsis/device/stm32f4xx_i2c.c ****   * @param  I2Cx: where x can be 1, 2 or 3 to select the I2C peripheral.
 753:cmsis/device/stm32f4xx_i2c.c ****   * @param  I2C_PECPosition: specifies the PEC position. 
 754:cmsis/device/stm32f4xx_i2c.c ****   *          This parameter can be one of the following values:
 755:cmsis/device/stm32f4xx_i2c.c ****   *            @arg I2C_PECPosition_Next: indicates that the next byte is PEC
 756:cmsis/device/stm32f4xx_i2c.c ****   *            @arg I2C_PECPosition_Current: indicates that current byte is PEC
 757:cmsis/device/stm32f4xx_i2c.c ****   *       
 758:cmsis/device/stm32f4xx_i2c.c ****   * @note    This function configures the same bit (POS) as I2C_NACKPositionConfig()
 759:cmsis/device/stm32f4xx_i2c.c ****   *          but is intended to be used in SMBUS mode while I2C_NACKPositionConfig() 
 760:cmsis/device/stm32f4xx_i2c.c ****   *          is intended to used in I2C mode.
 761:cmsis/device/stm32f4xx_i2c.c ****   *                
 762:cmsis/device/stm32f4xx_i2c.c ****   * @retval None
 763:cmsis/device/stm32f4xx_i2c.c ****   */
 764:cmsis/device/stm32f4xx_i2c.c **** void I2C_PECPositionConfig(I2C_TypeDef* I2Cx, uint16_t I2C_PECPosition)
 765:cmsis/device/stm32f4xx_i2c.c **** {
 975              		.loc 1 765 0
 976              		.cfi_startproc
 977              		@ args = 0, pretend = 0, frame = 0
 978              		@ frame_needed = 0, uses_anonymous_args = 0
 979              		@ link register save eliminated.
 980              	.LVL101:
 766:cmsis/device/stm32f4xx_i2c.c ****   /* Check the parameters */
 767:cmsis/device/stm32f4xx_i2c.c ****   assert_param(IS_I2C_ALL_PERIPH(I2Cx));
 768:cmsis/device/stm32f4xx_i2c.c ****   assert_param(IS_I2C_PEC_POSITION(I2C_PECPosition));
 769:cmsis/device/stm32f4xx_i2c.c ****   if (I2C_PECPosition == I2C_PECPosition_Next)
 981              		.loc 1 769 0
 982 0000 B1F5006F 		cmp	r1, #2048	@ I2C_PECPosition,
 770:cmsis/device/stm32f4xx_i2c.c ****   {
 771:cmsis/device/stm32f4xx_i2c.c ****     /* Next byte in shift register is PEC */
 772:cmsis/device/stm32f4xx_i2c.c ****     I2Cx->CR1 |= I2C_PECPosition_Next;
 983              		.loc 1 772 0
ARM GAS  C:\Users\CNous\AppData\Local\Temp\ccLIBeCO.s 			page 33


 984 0004 0388     		ldrh	r3, [r0, #0]	@,* I2Cx
 769:cmsis/device/stm32f4xx_i2c.c ****   if (I2C_PECPosition == I2C_PECPosition_Next)
 985              		.loc 1 769 0
 986 0006 05D0     		beq	.L80	@,
 773:cmsis/device/stm32f4xx_i2c.c ****   }
 774:cmsis/device/stm32f4xx_i2c.c ****   else
 775:cmsis/device/stm32f4xx_i2c.c ****   {
 776:cmsis/device/stm32f4xx_i2c.c ****     /* Current byte in shift register is PEC */
 777:cmsis/device/stm32f4xx_i2c.c ****     I2Cx->CR1 &= I2C_PECPosition_Current;
 987              		.loc 1 777 0
 988 0008 23F40061 		bic	r1, r3, #2048	@ D.6754, I2Cx_2(D)->CR1,
 989              	.LVL102:
 990 000c 0A04     		lsls	r2, r1, #16	@ D.6754, D.6754,
 991 000e 130C     		lsrs	r3, r2, #16	@ D.6754, D.6754,
 992 0010 0380     		strh	r3, [r0, #0]	@ movhi	@ D.6754,* I2Cx
 993 0012 7047     		bx	lr	@
 994              	.LVL103:
 995              	.L80:
 772:cmsis/device/stm32f4xx_i2c.c ****     I2Cx->CR1 |= I2C_PECPosition_Next;
 996              		.loc 1 772 0
 997 0014 99B2     		uxth	r1, r3	@ D.6750, I2Cx_2(D)->CR1
 998              	.LVL104:
 999 0016 41F40062 		orr	r2, r1, #2048	@ D.6751, D.6750,
 1000 001a 0280     		strh	r2, [r0, #0]	@ movhi	@ D.6751,* I2Cx
 1001 001c 7047     		bx	lr	@
 1002              		.cfi_endproc
 1003              	.LFE130:
 1004              		.size	I2C_PECPositionConfig, .-I2C_PECPositionConfig
 1005 001e 00BF     		.section	.text.I2C_CalculatePEC,"ax",%progbits
 1006              		.align	2
 1007              		.global	I2C_CalculatePEC
 1008              		.thumb
 1009              		.thumb_func
 1010              		.type	I2C_CalculatePEC, %function
 1011              	I2C_CalculatePEC:
 1012              	.LFB131:
 778:cmsis/device/stm32f4xx_i2c.c ****   }
 779:cmsis/device/stm32f4xx_i2c.c **** }
 780:cmsis/device/stm32f4xx_i2c.c **** 
 781:cmsis/device/stm32f4xx_i2c.c **** /**
 782:cmsis/device/stm32f4xx_i2c.c ****   * @brief  Enables or disables the PEC value calculation of the transferred bytes.
 783:cmsis/device/stm32f4xx_i2c.c ****   * @param  I2Cx: where x can be 1, 2 or 3 to select the I2C peripheral.
 784:cmsis/device/stm32f4xx_i2c.c ****   * @param  NewState: new state of the I2Cx PEC value calculation.
 785:cmsis/device/stm32f4xx_i2c.c ****   *          This parameter can be: ENABLE or DISABLE.
 786:cmsis/device/stm32f4xx_i2c.c ****   * @retval None
 787:cmsis/device/stm32f4xx_i2c.c ****   */
 788:cmsis/device/stm32f4xx_i2c.c **** void I2C_CalculatePEC(I2C_TypeDef* I2Cx, FunctionalState NewState)
 789:cmsis/device/stm32f4xx_i2c.c **** {
 1013              		.loc 1 789 0
 1014              		.cfi_startproc
 1015              		@ args = 0, pretend = 0, frame = 0
 1016              		@ frame_needed = 0, uses_anonymous_args = 0
 1017              		@ link register save eliminated.
 1018              	.LVL105:
 790:cmsis/device/stm32f4xx_i2c.c ****   /* Check the parameters */
 791:cmsis/device/stm32f4xx_i2c.c ****   assert_param(IS_I2C_ALL_PERIPH(I2Cx));
 792:cmsis/device/stm32f4xx_i2c.c ****   assert_param(IS_FUNCTIONAL_STATE(NewState));
ARM GAS  C:\Users\CNous\AppData\Local\Temp\ccLIBeCO.s 			page 34


 793:cmsis/device/stm32f4xx_i2c.c ****   if (NewState != DISABLE)
 794:cmsis/device/stm32f4xx_i2c.c ****   {
 795:cmsis/device/stm32f4xx_i2c.c ****     /* Enable the selected I2C PEC calculation */
 796:cmsis/device/stm32f4xx_i2c.c ****     I2Cx->CR1 |= I2C_CR1_ENPEC;
 1019              		.loc 1 796 0
 1020 0000 0388     		ldrh	r3, [r0, #0]	@,* I2Cx
 793:cmsis/device/stm32f4xx_i2c.c ****   if (NewState != DISABLE)
 1021              		.loc 1 793 0
 1022 0002 29B9     		cbnz	r1, .L84	@ NewState,
 797:cmsis/device/stm32f4xx_i2c.c ****   }
 798:cmsis/device/stm32f4xx_i2c.c ****   else
 799:cmsis/device/stm32f4xx_i2c.c ****   {
 800:cmsis/device/stm32f4xx_i2c.c ****     /* Disable the selected I2C PEC calculation */
 801:cmsis/device/stm32f4xx_i2c.c ****     I2Cx->CR1 &= (uint16_t)~((uint16_t)I2C_CR1_ENPEC);
 1023              		.loc 1 801 0
 1024 0004 23F02001 		bic	r1, r3, #32	@ D.6747, I2Cx_2(D)->CR1,
 1025              	.LVL106:
 1026 0008 0A04     		lsls	r2, r1, #16	@ D.6747, D.6747,
 1027 000a 130C     		lsrs	r3, r2, #16	@ D.6747, D.6747,
 1028 000c 0380     		strh	r3, [r0, #0]	@ movhi	@ D.6747,* I2Cx
 1029 000e 7047     		bx	lr	@
 1030              	.LVL107:
 1031              	.L84:
 796:cmsis/device/stm32f4xx_i2c.c ****     I2Cx->CR1 |= I2C_CR1_ENPEC;
 1032              		.loc 1 796 0
 1033 0010 99B2     		uxth	r1, r3	@ D.6743, I2Cx_2(D)->CR1
 1034              	.LVL108:
 1035 0012 41F02002 		orr	r2, r1, #32	@ D.6744, D.6743,
 1036 0016 0280     		strh	r2, [r0, #0]	@ movhi	@ D.6744,* I2Cx
 1037 0018 7047     		bx	lr	@
 1038              		.cfi_endproc
 1039              	.LFE131:
 1040              		.size	I2C_CalculatePEC, .-I2C_CalculatePEC
 1041 001a 00BF     		.section	.text.I2C_GetPEC,"ax",%progbits
 1042              		.align	2
 1043              		.global	I2C_GetPEC
 1044              		.thumb
 1045              		.thumb_func
 1046              		.type	I2C_GetPEC, %function
 1047              	I2C_GetPEC:
 1048              	.LFB132:
 802:cmsis/device/stm32f4xx_i2c.c ****   }
 803:cmsis/device/stm32f4xx_i2c.c **** }
 804:cmsis/device/stm32f4xx_i2c.c **** 
 805:cmsis/device/stm32f4xx_i2c.c **** /**
 806:cmsis/device/stm32f4xx_i2c.c ****   * @brief  Returns the PEC value for the specified I2C.
 807:cmsis/device/stm32f4xx_i2c.c ****   * @param  I2Cx: where x can be 1, 2 or 3 to select the I2C peripheral.
 808:cmsis/device/stm32f4xx_i2c.c ****   * @retval The PEC value.
 809:cmsis/device/stm32f4xx_i2c.c ****   */
 810:cmsis/device/stm32f4xx_i2c.c **** uint8_t I2C_GetPEC(I2C_TypeDef* I2Cx)
 811:cmsis/device/stm32f4xx_i2c.c **** {
 1049              		.loc 1 811 0
 1050              		.cfi_startproc
 1051              		@ args = 0, pretend = 0, frame = 0
 1052              		@ frame_needed = 0, uses_anonymous_args = 0
 1053              		@ link register save eliminated.
 1054              	.LVL109:
ARM GAS  C:\Users\CNous\AppData\Local\Temp\ccLIBeCO.s 			page 35


 812:cmsis/device/stm32f4xx_i2c.c ****   /* Check the parameters */
 813:cmsis/device/stm32f4xx_i2c.c ****   assert_param(IS_I2C_ALL_PERIPH(I2Cx));
 814:cmsis/device/stm32f4xx_i2c.c ****   /* Return the selected I2C PEC value */
 815:cmsis/device/stm32f4xx_i2c.c ****   return ((I2Cx->SR2) >> 8);
 1055              		.loc 1 815 0
 1056 0000 008B     		ldrh	r0, [r0, #24]	@, I2Cx_1(D)->SR2
 1057              	.LVL110:
 816:cmsis/device/stm32f4xx_i2c.c **** }
 1058              		.loc 1 816 0
 1059 0002 C0F30720 		ubfx	r0, r0, #8, #8	@, I2Cx_1(D)->SR2,,
 1060 0006 7047     		bx	lr	@
 1061              		.cfi_endproc
 1062              	.LFE132:
 1063              		.size	I2C_GetPEC, .-I2C_GetPEC
 1064              		.section	.text.I2C_DMACmd,"ax",%progbits
 1065              		.align	2
 1066              		.global	I2C_DMACmd
 1067              		.thumb
 1068              		.thumb_func
 1069              		.type	I2C_DMACmd, %function
 1070              	I2C_DMACmd:
 1071              	.LFB133:
 817:cmsis/device/stm32f4xx_i2c.c **** 
 818:cmsis/device/stm32f4xx_i2c.c **** /**
 819:cmsis/device/stm32f4xx_i2c.c ****   * @}
 820:cmsis/device/stm32f4xx_i2c.c ****   */
 821:cmsis/device/stm32f4xx_i2c.c **** 
 822:cmsis/device/stm32f4xx_i2c.c **** /** @defgroup I2C_Group4 DMA transfers management functions
 823:cmsis/device/stm32f4xx_i2c.c ****  *  @brief   DMA transfers management functions 
 824:cmsis/device/stm32f4xx_i2c.c ****  *
 825:cmsis/device/stm32f4xx_i2c.c **** @verbatim   
 826:cmsis/device/stm32f4xx_i2c.c ****  ===============================================================================
 827:cmsis/device/stm32f4xx_i2c.c ****                          DMA transfers management functions
 828:cmsis/device/stm32f4xx_i2c.c ****  ===============================================================================  
 829:cmsis/device/stm32f4xx_i2c.c ****   This section provides functions allowing to configure the I2C DMA channels 
 830:cmsis/device/stm32f4xx_i2c.c ****   requests.
 831:cmsis/device/stm32f4xx_i2c.c ****   
 832:cmsis/device/stm32f4xx_i2c.c **** @endverbatim
 833:cmsis/device/stm32f4xx_i2c.c ****   * @{
 834:cmsis/device/stm32f4xx_i2c.c ****   */
 835:cmsis/device/stm32f4xx_i2c.c **** 
 836:cmsis/device/stm32f4xx_i2c.c **** /**
 837:cmsis/device/stm32f4xx_i2c.c ****   * @brief  Enables or disables the specified I2C DMA requests.
 838:cmsis/device/stm32f4xx_i2c.c ****   * @param  I2Cx: where x can be 1, 2 or 3 to select the I2C peripheral.
 839:cmsis/device/stm32f4xx_i2c.c ****   * @param  NewState: new state of the I2C DMA transfer.
 840:cmsis/device/stm32f4xx_i2c.c ****   *          This parameter can be: ENABLE or DISABLE.
 841:cmsis/device/stm32f4xx_i2c.c ****   * @retval None
 842:cmsis/device/stm32f4xx_i2c.c ****   */
 843:cmsis/device/stm32f4xx_i2c.c **** void I2C_DMACmd(I2C_TypeDef* I2Cx, FunctionalState NewState)
 844:cmsis/device/stm32f4xx_i2c.c **** {
 1072              		.loc 1 844 0
 1073              		.cfi_startproc
 1074              		@ args = 0, pretend = 0, frame = 0
 1075              		@ frame_needed = 0, uses_anonymous_args = 0
 1076              		@ link register save eliminated.
 1077              	.LVL111:
 845:cmsis/device/stm32f4xx_i2c.c ****   /* Check the parameters */
ARM GAS  C:\Users\CNous\AppData\Local\Temp\ccLIBeCO.s 			page 36


 846:cmsis/device/stm32f4xx_i2c.c ****   assert_param(IS_I2C_ALL_PERIPH(I2Cx));
 847:cmsis/device/stm32f4xx_i2c.c ****   assert_param(IS_FUNCTIONAL_STATE(NewState));
 848:cmsis/device/stm32f4xx_i2c.c ****   if (NewState != DISABLE)
 849:cmsis/device/stm32f4xx_i2c.c ****   {
 850:cmsis/device/stm32f4xx_i2c.c ****     /* Enable the selected I2C DMA requests */
 851:cmsis/device/stm32f4xx_i2c.c ****     I2Cx->CR2 |= I2C_CR2_DMAEN;
 1078              		.loc 1 851 0
 1079 0000 8388     		ldrh	r3, [r0, #4]	@,
 848:cmsis/device/stm32f4xx_i2c.c ****   if (NewState != DISABLE)
 1080              		.loc 1 848 0
 1081 0002 29B9     		cbnz	r1, .L89	@ NewState,
 852:cmsis/device/stm32f4xx_i2c.c ****   }
 853:cmsis/device/stm32f4xx_i2c.c ****   else
 854:cmsis/device/stm32f4xx_i2c.c ****   {
 855:cmsis/device/stm32f4xx_i2c.c ****     /* Disable the selected I2C DMA requests */
 856:cmsis/device/stm32f4xx_i2c.c ****     I2Cx->CR2 &= (uint16_t)~((uint16_t)I2C_CR2_DMAEN);
 1082              		.loc 1 856 0
 1083 0004 23F40061 		bic	r1, r3, #2048	@ D.6736, I2Cx_2(D)->CR2,
 1084              	.LVL112:
 1085 0008 0A04     		lsls	r2, r1, #16	@ D.6736, D.6736,
 1086 000a 130C     		lsrs	r3, r2, #16	@ D.6736, D.6736,
 1087 000c 8380     		strh	r3, [r0, #4]	@ movhi	@ D.6736,
 1088 000e 7047     		bx	lr	@
 1089              	.LVL113:
 1090              	.L89:
 851:cmsis/device/stm32f4xx_i2c.c ****     I2Cx->CR2 |= I2C_CR2_DMAEN;
 1091              		.loc 1 851 0
 1092 0010 99B2     		uxth	r1, r3	@ D.6732, I2Cx_2(D)->CR2
 1093              	.LVL114:
 1094 0012 41F40062 		orr	r2, r1, #2048	@ D.6733, D.6732,
 1095 0016 8280     		strh	r2, [r0, #4]	@ movhi	@ D.6733,
 1096 0018 7047     		bx	lr	@
 1097              		.cfi_endproc
 1098              	.LFE133:
 1099              		.size	I2C_DMACmd, .-I2C_DMACmd
 1100 001a 00BF     		.section	.text.I2C_DMALastTransferCmd,"ax",%progbits
 1101              		.align	2
 1102              		.global	I2C_DMALastTransferCmd
 1103              		.thumb
 1104              		.thumb_func
 1105              		.type	I2C_DMALastTransferCmd, %function
 1106              	I2C_DMALastTransferCmd:
 1107              	.LFB134:
 857:cmsis/device/stm32f4xx_i2c.c ****   }
 858:cmsis/device/stm32f4xx_i2c.c **** }
 859:cmsis/device/stm32f4xx_i2c.c **** 
 860:cmsis/device/stm32f4xx_i2c.c **** /**
 861:cmsis/device/stm32f4xx_i2c.c ****   * @brief  Specifies that the next DMA transfer is the last one.
 862:cmsis/device/stm32f4xx_i2c.c ****   * @param  I2Cx: where x can be 1, 2 or 3 to select the I2C peripheral.
 863:cmsis/device/stm32f4xx_i2c.c ****   * @param  NewState: new state of the I2C DMA last transfer.
 864:cmsis/device/stm32f4xx_i2c.c ****   *          This parameter can be: ENABLE or DISABLE.
 865:cmsis/device/stm32f4xx_i2c.c ****   * @retval None
 866:cmsis/device/stm32f4xx_i2c.c ****   */
 867:cmsis/device/stm32f4xx_i2c.c **** void I2C_DMALastTransferCmd(I2C_TypeDef* I2Cx, FunctionalState NewState)
 868:cmsis/device/stm32f4xx_i2c.c **** {
 1108              		.loc 1 868 0
 1109              		.cfi_startproc
ARM GAS  C:\Users\CNous\AppData\Local\Temp\ccLIBeCO.s 			page 37


 1110              		@ args = 0, pretend = 0, frame = 0
 1111              		@ frame_needed = 0, uses_anonymous_args = 0
 1112              		@ link register save eliminated.
 1113              	.LVL115:
 869:cmsis/device/stm32f4xx_i2c.c ****   /* Check the parameters */
 870:cmsis/device/stm32f4xx_i2c.c ****   assert_param(IS_I2C_ALL_PERIPH(I2Cx));
 871:cmsis/device/stm32f4xx_i2c.c ****   assert_param(IS_FUNCTIONAL_STATE(NewState));
 872:cmsis/device/stm32f4xx_i2c.c ****   if (NewState != DISABLE)
 873:cmsis/device/stm32f4xx_i2c.c ****   {
 874:cmsis/device/stm32f4xx_i2c.c ****     /* Next DMA transfer is the last transfer */
 875:cmsis/device/stm32f4xx_i2c.c ****     I2Cx->CR2 |= I2C_CR2_LAST;
 1114              		.loc 1 875 0
 1115 0000 8388     		ldrh	r3, [r0, #4]	@,
 872:cmsis/device/stm32f4xx_i2c.c ****   if (NewState != DISABLE)
 1116              		.loc 1 872 0
 1117 0002 29B9     		cbnz	r1, .L93	@ NewState,
 876:cmsis/device/stm32f4xx_i2c.c ****   }
 877:cmsis/device/stm32f4xx_i2c.c ****   else
 878:cmsis/device/stm32f4xx_i2c.c ****   {
 879:cmsis/device/stm32f4xx_i2c.c ****     /* Next DMA transfer is not the last transfer */
 880:cmsis/device/stm32f4xx_i2c.c ****     I2Cx->CR2 &= (uint16_t)~((uint16_t)I2C_CR2_LAST);
 1118              		.loc 1 880 0
 1119 0004 23F48051 		bic	r1, r3, #4096	@ D.6729, I2Cx_2(D)->CR2,
 1120              	.LVL116:
 1121 0008 0A04     		lsls	r2, r1, #16	@ D.6729, D.6729,
 1122 000a 130C     		lsrs	r3, r2, #16	@ D.6729, D.6729,
 1123 000c 8380     		strh	r3, [r0, #4]	@ movhi	@ D.6729,
 1124 000e 7047     		bx	lr	@
 1125              	.LVL117:
 1126              	.L93:
 875:cmsis/device/stm32f4xx_i2c.c ****     I2Cx->CR2 |= I2C_CR2_LAST;
 1127              		.loc 1 875 0
 1128 0010 99B2     		uxth	r1, r3	@ D.6725, I2Cx_2(D)->CR2
 1129              	.LVL118:
 1130 0012 41F48052 		orr	r2, r1, #4096	@ D.6726, D.6725,
 1131 0016 8280     		strh	r2, [r0, #4]	@ movhi	@ D.6726,
 1132 0018 7047     		bx	lr	@
 1133              		.cfi_endproc
 1134              	.LFE134:
 1135              		.size	I2C_DMALastTransferCmd, .-I2C_DMALastTransferCmd
 1136 001a 00BF     		.section	.text.I2C_ReadRegister,"ax",%progbits
 1137              		.align	2
 1138              		.global	I2C_ReadRegister
 1139              		.thumb
 1140              		.thumb_func
 1141              		.type	I2C_ReadRegister, %function
 1142              	I2C_ReadRegister:
 1143              	.LFB135:
 881:cmsis/device/stm32f4xx_i2c.c ****   }
 882:cmsis/device/stm32f4xx_i2c.c **** }
 883:cmsis/device/stm32f4xx_i2c.c **** 
 884:cmsis/device/stm32f4xx_i2c.c **** /**
 885:cmsis/device/stm32f4xx_i2c.c ****   * @}
 886:cmsis/device/stm32f4xx_i2c.c ****   */
 887:cmsis/device/stm32f4xx_i2c.c **** 
 888:cmsis/device/stm32f4xx_i2c.c **** /** @defgroup I2C_Group5 Interrupts events and flags management functions
 889:cmsis/device/stm32f4xx_i2c.c ****  *  @brief   Interrupts, events and flags management functions
ARM GAS  C:\Users\CNous\AppData\Local\Temp\ccLIBeCO.s 			page 38


 890:cmsis/device/stm32f4xx_i2c.c ****  *
 891:cmsis/device/stm32f4xx_i2c.c **** @verbatim   
 892:cmsis/device/stm32f4xx_i2c.c ****  ===============================================================================
 893:cmsis/device/stm32f4xx_i2c.c ****                 Interrupts, events and flags management functions
 894:cmsis/device/stm32f4xx_i2c.c ****  ===============================================================================  
 895:cmsis/device/stm32f4xx_i2c.c ****   This section provides functions allowing to configure the I2C Interrupts 
 896:cmsis/device/stm32f4xx_i2c.c ****   sources and check or clear the flags or pending bits status.
 897:cmsis/device/stm32f4xx_i2c.c ****   The user should identify which mode will be used in his application to manage 
 898:cmsis/device/stm32f4xx_i2c.c ****   the communication: Polling mode, Interrupt mode or DMA mode. 
 899:cmsis/device/stm32f4xx_i2c.c **** 
 900:cmsis/device/stm32f4xx_i2c.c ****  ===============================================================================
 901:cmsis/device/stm32f4xx_i2c.c ****                           I2C State Monitoring Functions                    
 902:cmsis/device/stm32f4xx_i2c.c ****  ===============================================================================   
 903:cmsis/device/stm32f4xx_i2c.c ****   This I2C driver provides three different ways for I2C state monitoring
 904:cmsis/device/stm32f4xx_i2c.c ****   depending on the application requirements and constraints:
 905:cmsis/device/stm32f4xx_i2c.c ****          
 906:cmsis/device/stm32f4xx_i2c.c ****    
 907:cmsis/device/stm32f4xx_i2c.c ****      1. Basic state monitoring (Using I2C_CheckEvent() function)
 908:cmsis/device/stm32f4xx_i2c.c ****      -----------------------------------------------------------
 909:cmsis/device/stm32f4xx_i2c.c ****         It compares the status registers (SR1 and SR2) content to a given event
 910:cmsis/device/stm32f4xx_i2c.c ****         (can be the combination of one or more flags).
 911:cmsis/device/stm32f4xx_i2c.c ****         It returns SUCCESS if the current status includes the given flags 
 912:cmsis/device/stm32f4xx_i2c.c ****         and returns ERROR if one or more flags are missing in the current status.
 913:cmsis/device/stm32f4xx_i2c.c **** 
 914:cmsis/device/stm32f4xx_i2c.c ****           - When to use
 915:cmsis/device/stm32f4xx_i2c.c ****              - This function is suitable for most applications as well as for startup 
 916:cmsis/device/stm32f4xx_i2c.c ****                activity since the events are fully described in the product reference 
 917:cmsis/device/stm32f4xx_i2c.c ****                manual (RM0090).
 918:cmsis/device/stm32f4xx_i2c.c ****              - It is also suitable for users who need to define their own events.
 919:cmsis/device/stm32f4xx_i2c.c **** 
 920:cmsis/device/stm32f4xx_i2c.c ****           - Limitations
 921:cmsis/device/stm32f4xx_i2c.c ****              - If an error occurs (ie. error flags are set besides to the monitored 
 922:cmsis/device/stm32f4xx_i2c.c ****                flags), the I2C_CheckEvent() function may return SUCCESS despite 
 923:cmsis/device/stm32f4xx_i2c.c ****                the communication hold or corrupted real state. 
 924:cmsis/device/stm32f4xx_i2c.c ****                In this case, it is advised to use error interrupts to monitor 
 925:cmsis/device/stm32f4xx_i2c.c ****                the error events and handle them in the interrupt IRQ handler.
 926:cmsis/device/stm32f4xx_i2c.c ****          
 927:cmsis/device/stm32f4xx_i2c.c ****      @note 
 928:cmsis/device/stm32f4xx_i2c.c ****          For error management, it is advised to use the following functions:
 929:cmsis/device/stm32f4xx_i2c.c ****            - I2C_ITConfig() to configure and enable the error interrupts (I2C_IT_ERR).
 930:cmsis/device/stm32f4xx_i2c.c ****            - I2Cx_ER_IRQHandler() which is called when the error interrupt occurs.
 931:cmsis/device/stm32f4xx_i2c.c ****              Where x is the peripheral instance (I2C1, I2C2 ...)
 932:cmsis/device/stm32f4xx_i2c.c ****            - I2C_GetFlagStatus() or I2C_GetITStatus()  to be called into the 
 933:cmsis/device/stm32f4xx_i2c.c ****              I2Cx_ER_IRQHandler() function in order to determine which error occurred.
 934:cmsis/device/stm32f4xx_i2c.c ****            - I2C_ClearFlag() or I2C_ClearITPendingBit() and/or I2C_SoftwareResetCmd() 
 935:cmsis/device/stm32f4xx_i2c.c ****              and/or I2C_GenerateStop() in order to clear the error flag and source 
 936:cmsis/device/stm32f4xx_i2c.c ****              and return to correct  communication status.
 937:cmsis/device/stm32f4xx_i2c.c ****              
 938:cmsis/device/stm32f4xx_i2c.c ****  
 939:cmsis/device/stm32f4xx_i2c.c ****      2. Advanced state monitoring (Using the function I2C_GetLastEvent())
 940:cmsis/device/stm32f4xx_i2c.c ****      -------------------------------------------------------------------- 
 941:cmsis/device/stm32f4xx_i2c.c ****         Using the function I2C_GetLastEvent() which returns the image of both status 
 942:cmsis/device/stm32f4xx_i2c.c ****         registers in a single word (uint32_t) (Status Register 2 value is shifted left 
 943:cmsis/device/stm32f4xx_i2c.c ****         by 16 bits and concatenated to Status Register 1).
 944:cmsis/device/stm32f4xx_i2c.c **** 
 945:cmsis/device/stm32f4xx_i2c.c ****           - When to use
 946:cmsis/device/stm32f4xx_i2c.c ****              - This function is suitable for the same applications above but it 
ARM GAS  C:\Users\CNous\AppData\Local\Temp\ccLIBeCO.s 			page 39


 947:cmsis/device/stm32f4xx_i2c.c ****                allows to overcome the mentioned limitation of I2C_GetFlagStatus() 
 948:cmsis/device/stm32f4xx_i2c.c ****                function.
 949:cmsis/device/stm32f4xx_i2c.c ****              - The returned value could be compared to events already defined in 
 950:cmsis/device/stm32f4xx_i2c.c ****                the library (stm32f4xx_i2c.h) or to custom values defined by user.
 951:cmsis/device/stm32f4xx_i2c.c ****                This function is suitable when multiple flags are monitored at the 
 952:cmsis/device/stm32f4xx_i2c.c ****                same time.
 953:cmsis/device/stm32f4xx_i2c.c ****              - At the opposite of I2C_CheckEvent() function, this function allows 
 954:cmsis/device/stm32f4xx_i2c.c ****                user to choose when an event is accepted (when all events flags are 
 955:cmsis/device/stm32f4xx_i2c.c ****                set and no other flags are set or just when the needed flags are set 
 956:cmsis/device/stm32f4xx_i2c.c ****                like I2C_CheckEvent() function.
 957:cmsis/device/stm32f4xx_i2c.c **** 
 958:cmsis/device/stm32f4xx_i2c.c ****           - Limitations
 959:cmsis/device/stm32f4xx_i2c.c ****              - User may need to define his own events.
 960:cmsis/device/stm32f4xx_i2c.c ****              - Same remark concerning the error management is applicable for this 
 961:cmsis/device/stm32f4xx_i2c.c ****                function if user decides to check only regular communication flags 
 962:cmsis/device/stm32f4xx_i2c.c ****                (and ignores error flags).
 963:cmsis/device/stm32f4xx_i2c.c ****       
 964:cmsis/device/stm32f4xx_i2c.c ****  
 965:cmsis/device/stm32f4xx_i2c.c ****      3. Flag-based state monitoring (Using the function I2C_GetFlagStatus())
 966:cmsis/device/stm32f4xx_i2c.c ****      -----------------------------------------------------------------------
 967:cmsis/device/stm32f4xx_i2c.c ****      
 968:cmsis/device/stm32f4xx_i2c.c ****       Using the function I2C_GetFlagStatus() which simply returns the status of 
 969:cmsis/device/stm32f4xx_i2c.c ****       one single flag (ie. I2C_FLAG_RXNE ...). 
 970:cmsis/device/stm32f4xx_i2c.c **** 
 971:cmsis/device/stm32f4xx_i2c.c ****           - When to use
 972:cmsis/device/stm32f4xx_i2c.c ****              - This function could be used for specific applications or in debug 
 973:cmsis/device/stm32f4xx_i2c.c ****                phase.
 974:cmsis/device/stm32f4xx_i2c.c ****              - It is suitable when only one flag checking is needed (most I2C 
 975:cmsis/device/stm32f4xx_i2c.c ****                events are monitored through multiple flags).
 976:cmsis/device/stm32f4xx_i2c.c ****           - Limitations: 
 977:cmsis/device/stm32f4xx_i2c.c ****              - When calling this function, the Status register is accessed. 
 978:cmsis/device/stm32f4xx_i2c.c ****                Some flags are cleared when the status register is accessed. 
 979:cmsis/device/stm32f4xx_i2c.c ****                So checking the status of one Flag, may clear other ones.
 980:cmsis/device/stm32f4xx_i2c.c ****              - Function may need to be called twice or more in order to monitor 
 981:cmsis/device/stm32f4xx_i2c.c ****                one single event.
 982:cmsis/device/stm32f4xx_i2c.c ****  
 983:cmsis/device/stm32f4xx_i2c.c ****    For detailed description of Events, please refer to section I2C_Events in 
 984:cmsis/device/stm32f4xx_i2c.c ****    stm32f4xx_i2c.h file.
 985:cmsis/device/stm32f4xx_i2c.c ****        
 986:cmsis/device/stm32f4xx_i2c.c **** @endverbatim
 987:cmsis/device/stm32f4xx_i2c.c ****   * @{
 988:cmsis/device/stm32f4xx_i2c.c ****   */
 989:cmsis/device/stm32f4xx_i2c.c ****    
 990:cmsis/device/stm32f4xx_i2c.c **** /**
 991:cmsis/device/stm32f4xx_i2c.c ****   * @brief  Reads the specified I2C register and returns its value.
 992:cmsis/device/stm32f4xx_i2c.c ****   * @param  I2C_Register: specifies the register to read.
 993:cmsis/device/stm32f4xx_i2c.c ****   *          This parameter can be one of the following values:
 994:cmsis/device/stm32f4xx_i2c.c ****   *            @arg I2C_Register_CR1:  CR1 register.
 995:cmsis/device/stm32f4xx_i2c.c ****   *            @arg I2C_Register_CR2:   CR2 register.
 996:cmsis/device/stm32f4xx_i2c.c ****   *            @arg I2C_Register_OAR1:  OAR1 register.
 997:cmsis/device/stm32f4xx_i2c.c ****   *            @arg I2C_Register_OAR2:  OAR2 register.
 998:cmsis/device/stm32f4xx_i2c.c ****   *            @arg I2C_Register_DR:    DR register.
 999:cmsis/device/stm32f4xx_i2c.c ****   *            @arg I2C_Register_SR1:   SR1 register.
1000:cmsis/device/stm32f4xx_i2c.c ****   *            @arg I2C_Register_SR2:   SR2 register.
1001:cmsis/device/stm32f4xx_i2c.c ****   *            @arg I2C_Register_CCR:   CCR register.
1002:cmsis/device/stm32f4xx_i2c.c ****   *            @arg I2C_Register_TRISE: TRISE register.
1003:cmsis/device/stm32f4xx_i2c.c ****   * @retval The value of the read register.
ARM GAS  C:\Users\CNous\AppData\Local\Temp\ccLIBeCO.s 			page 40


1004:cmsis/device/stm32f4xx_i2c.c ****   */
1005:cmsis/device/stm32f4xx_i2c.c **** uint16_t I2C_ReadRegister(I2C_TypeDef* I2Cx, uint8_t I2C_Register)
1006:cmsis/device/stm32f4xx_i2c.c **** {
 1144              		.loc 1 1006 0
 1145              		.cfi_startproc
 1146              		@ args = 0, pretend = 0, frame = 8
 1147              		@ frame_needed = 0, uses_anonymous_args = 0
 1148              		@ link register save eliminated.
 1149              	.LVL119:
 1150 0000 82B0     		sub	sp, sp, #8	@,,
 1151              	.LCFI3:
 1152              		.cfi_def_cfa_offset 8
1007:cmsis/device/stm32f4xx_i2c.c ****   __IO uint32_t tmp = 0;
 1153              		.loc 1 1007 0
 1154 0002 0023     		movs	r3, #0	@ tmp144,
 1155 0004 0193     		str	r3, [sp, #4]	@ tmp144, tmp
 1156              	.LVL120:
1008:cmsis/device/stm32f4xx_i2c.c **** 
1009:cmsis/device/stm32f4xx_i2c.c ****   /* Check the parameters */
1010:cmsis/device/stm32f4xx_i2c.c ****   assert_param(IS_I2C_ALL_PERIPH(I2Cx));
1011:cmsis/device/stm32f4xx_i2c.c ****   assert_param(IS_I2C_REGISTER(I2C_Register));
1012:cmsis/device/stm32f4xx_i2c.c **** 
1013:cmsis/device/stm32f4xx_i2c.c ****   tmp = (uint32_t) I2Cx;
 1157              		.loc 1 1013 0
 1158 0006 0190     		str	r0, [sp, #4]	@ I2Cx, tmp
1014:cmsis/device/stm32f4xx_i2c.c ****   tmp += I2C_Register;
 1159              		.loc 1 1014 0
 1160 0008 0198     		ldr	r0, [sp, #4]	@ tmp.10, tmp
 1161              	.LVL121:
 1162 000a 0918     		adds	r1, r1, r0	@ tmp.11, I2C_Register, tmp.10
 1163              	.LVL122:
 1164 000c 0191     		str	r1, [sp, #4]	@ tmp.11, tmp
 1165              	.LVL123:
1015:cmsis/device/stm32f4xx_i2c.c **** 
1016:cmsis/device/stm32f4xx_i2c.c ****   /* Return the selected register value */
1017:cmsis/device/stm32f4xx_i2c.c ****   return (*(__IO uint16_t *) tmp);
 1166              		.loc 1 1017 0
 1167 000e 019A     		ldr	r2, [sp, #4]	@ tmp.12, tmp
 1168 0010 1388     		ldrh	r3, [r2, #0]	@, *tmp.13_8
1018:cmsis/device/stm32f4xx_i2c.c **** }
 1169              		.loc 1 1018 0
 1170 0012 98B2     		uxth	r0, r3	@, *tmp.13_8
 1171 0014 02B0     		add	sp, sp, #8	@,,
 1172 0016 7047     		bx	lr
 1173              		.cfi_endproc
 1174              	.LFE135:
 1175              		.size	I2C_ReadRegister, .-I2C_ReadRegister
 1176              		.section	.text.I2C_ITConfig,"ax",%progbits
 1177              		.align	2
 1178              		.global	I2C_ITConfig
 1179              		.thumb
 1180              		.thumb_func
 1181              		.type	I2C_ITConfig, %function
 1182              	I2C_ITConfig:
 1183              	.LFB136:
1019:cmsis/device/stm32f4xx_i2c.c **** 
1020:cmsis/device/stm32f4xx_i2c.c **** /**
ARM GAS  C:\Users\CNous\AppData\Local\Temp\ccLIBeCO.s 			page 41


1021:cmsis/device/stm32f4xx_i2c.c ****   * @brief  Enables or disables the specified I2C interrupts.
1022:cmsis/device/stm32f4xx_i2c.c ****   * @param  I2Cx: where x can be 1, 2 or 3 to select the I2C peripheral.
1023:cmsis/device/stm32f4xx_i2c.c ****   * @param  I2C_IT: specifies the I2C interrupts sources to be enabled or disabled. 
1024:cmsis/device/stm32f4xx_i2c.c ****   *          This parameter can be any combination of the following values:
1025:cmsis/device/stm32f4xx_i2c.c ****   *            @arg I2C_IT_BUF: Buffer interrupt mask
1026:cmsis/device/stm32f4xx_i2c.c ****   *            @arg I2C_IT_EVT: Event interrupt mask
1027:cmsis/device/stm32f4xx_i2c.c ****   *            @arg I2C_IT_ERR: Error interrupt mask
1028:cmsis/device/stm32f4xx_i2c.c ****   * @param  NewState: new state of the specified I2C interrupts.
1029:cmsis/device/stm32f4xx_i2c.c ****   *          This parameter can be: ENABLE or DISABLE.
1030:cmsis/device/stm32f4xx_i2c.c ****   * @retval None
1031:cmsis/device/stm32f4xx_i2c.c ****   */
1032:cmsis/device/stm32f4xx_i2c.c **** void I2C_ITConfig(I2C_TypeDef* I2Cx, uint16_t I2C_IT, FunctionalState NewState)
1033:cmsis/device/stm32f4xx_i2c.c **** {
 1184              		.loc 1 1033 0
 1185              		.cfi_startproc
 1186              		@ args = 0, pretend = 0, frame = 0
 1187              		@ frame_needed = 0, uses_anonymous_args = 0
 1188              		@ link register save eliminated.
 1189              	.LVL124:
1034:cmsis/device/stm32f4xx_i2c.c ****   /* Check the parameters */
1035:cmsis/device/stm32f4xx_i2c.c ****   assert_param(IS_I2C_ALL_PERIPH(I2Cx));
1036:cmsis/device/stm32f4xx_i2c.c ****   assert_param(IS_FUNCTIONAL_STATE(NewState));
1037:cmsis/device/stm32f4xx_i2c.c ****   assert_param(IS_I2C_CONFIG_IT(I2C_IT));
1038:cmsis/device/stm32f4xx_i2c.c ****   
1039:cmsis/device/stm32f4xx_i2c.c ****   if (NewState != DISABLE)
1040:cmsis/device/stm32f4xx_i2c.c ****   {
1041:cmsis/device/stm32f4xx_i2c.c ****     /* Enable the selected I2C interrupts */
1042:cmsis/device/stm32f4xx_i2c.c ****     I2Cx->CR2 |= I2C_IT;
 1190              		.loc 1 1042 0
 1191 0000 8388     		ldrh	r3, [r0, #4]	@,
 1192 0002 9BB2     		uxth	r3, r3	@ D.6709, I2Cx_2(D)->CR2
1039:cmsis/device/stm32f4xx_i2c.c ****   if (NewState != DISABLE)
 1193              		.loc 1 1039 0
 1194 0004 1AB9     		cbnz	r2, .L98	@ NewState,
1043:cmsis/device/stm32f4xx_i2c.c ****   }
1044:cmsis/device/stm32f4xx_i2c.c ****   else
1045:cmsis/device/stm32f4xx_i2c.c ****   {
1046:cmsis/device/stm32f4xx_i2c.c ****     /* Disable the selected I2C interrupts */
1047:cmsis/device/stm32f4xx_i2c.c ****     I2Cx->CR2 &= (uint16_t)~I2C_IT;
 1195              		.loc 1 1047 0
 1196 0006 23EA0101 		bic	r1, r3, r1	@ D.6714, D.6712, I2C_IT
 1197              	.LVL125:
 1198 000a 8180     		strh	r1, [r0, #4]	@ movhi	@ D.6714,
 1199 000c 7047     		bx	lr	@
 1200              	.LVL126:
 1201              	.L98:
1042:cmsis/device/stm32f4xx_i2c.c ****     I2Cx->CR2 |= I2C_IT;
 1202              		.loc 1 1042 0
 1203 000e 1943     		orrs	r1, r1, r3	@, D.6710, I2C_IT, D.6709
 1204              	.LVL127:
 1205 0010 8180     		strh	r1, [r0, #4]	@ movhi	@ D.6710,
 1206 0012 7047     		bx	lr	@
 1207              		.cfi_endproc
 1208              	.LFE136:
 1209              		.size	I2C_ITConfig, .-I2C_ITConfig
 1210              		.section	.text.I2C_CheckEvent,"ax",%progbits
 1211              		.align	2
ARM GAS  C:\Users\CNous\AppData\Local\Temp\ccLIBeCO.s 			page 42


 1212              		.global	I2C_CheckEvent
 1213              		.thumb
 1214              		.thumb_func
 1215              		.type	I2C_CheckEvent, %function
 1216              	I2C_CheckEvent:
 1217              	.LFB137:
1048:cmsis/device/stm32f4xx_i2c.c ****   }
1049:cmsis/device/stm32f4xx_i2c.c **** }
1050:cmsis/device/stm32f4xx_i2c.c **** 
1051:cmsis/device/stm32f4xx_i2c.c **** /*
1052:cmsis/device/stm32f4xx_i2c.c ****  ===============================================================================
1053:cmsis/device/stm32f4xx_i2c.c ****                           1. Basic state monitoring                    
1054:cmsis/device/stm32f4xx_i2c.c ****  ===============================================================================  
1055:cmsis/device/stm32f4xx_i2c.c ****  */
1056:cmsis/device/stm32f4xx_i2c.c **** 
1057:cmsis/device/stm32f4xx_i2c.c **** /**
1058:cmsis/device/stm32f4xx_i2c.c ****   * @brief  Checks whether the last I2Cx Event is equal to the one passed
1059:cmsis/device/stm32f4xx_i2c.c ****   *         as parameter.
1060:cmsis/device/stm32f4xx_i2c.c ****   * @param  I2Cx: where x can be 1, 2 or 3 to select the I2C peripheral.
1061:cmsis/device/stm32f4xx_i2c.c ****   * @param  I2C_EVENT: specifies the event to be checked. 
1062:cmsis/device/stm32f4xx_i2c.c ****   *          This parameter can be one of the following values:
1063:cmsis/device/stm32f4xx_i2c.c ****   *            @arg I2C_EVENT_SLAVE_TRANSMITTER_ADDRESS_MATCHED: EV1
1064:cmsis/device/stm32f4xx_i2c.c ****   *            @arg I2C_EVENT_SLAVE_RECEIVER_ADDRESS_MATCHED: EV1
1065:cmsis/device/stm32f4xx_i2c.c ****   *            @arg I2C_EVENT_SLAVE_TRANSMITTER_SECONDADDRESS_MATCHED: EV1
1066:cmsis/device/stm32f4xx_i2c.c ****   *            @arg I2C_EVENT_SLAVE_RECEIVER_SECONDADDRESS_MATCHED: EV1
1067:cmsis/device/stm32f4xx_i2c.c ****   *            @arg I2C_EVENT_SLAVE_GENERALCALLADDRESS_MATCHED: EV1
1068:cmsis/device/stm32f4xx_i2c.c ****   *            @arg I2C_EVENT_SLAVE_BYTE_RECEIVED: EV2
1069:cmsis/device/stm32f4xx_i2c.c ****   *            @arg (I2C_EVENT_SLAVE_BYTE_RECEIVED | I2C_FLAG_DUALF): EV2
1070:cmsis/device/stm32f4xx_i2c.c ****   *            @arg (I2C_EVENT_SLAVE_BYTE_RECEIVED | I2C_FLAG_GENCALL): EV2
1071:cmsis/device/stm32f4xx_i2c.c ****   *            @arg I2C_EVENT_SLAVE_BYTE_TRANSMITTED: EV3
1072:cmsis/device/stm32f4xx_i2c.c ****   *            @arg (I2C_EVENT_SLAVE_BYTE_TRANSMITTED | I2C_FLAG_DUALF): EV3
1073:cmsis/device/stm32f4xx_i2c.c ****   *            @arg (I2C_EVENT_SLAVE_BYTE_TRANSMITTED | I2C_FLAG_GENCALL): EV3
1074:cmsis/device/stm32f4xx_i2c.c ****   *            @arg I2C_EVENT_SLAVE_ACK_FAILURE: EV3_2
1075:cmsis/device/stm32f4xx_i2c.c ****   *            @arg I2C_EVENT_SLAVE_STOP_DETECTED: EV4
1076:cmsis/device/stm32f4xx_i2c.c ****   *            @arg I2C_EVENT_MASTER_MODE_SELECT: EV5
1077:cmsis/device/stm32f4xx_i2c.c ****   *            @arg I2C_EVENT_MASTER_TRANSMITTER_MODE_SELECTED: EV6     
1078:cmsis/device/stm32f4xx_i2c.c ****   *            @arg I2C_EVENT_MASTER_RECEIVER_MODE_SELECTED: EV6
1079:cmsis/device/stm32f4xx_i2c.c ****   *            @arg I2C_EVENT_MASTER_BYTE_RECEIVED: EV7
1080:cmsis/device/stm32f4xx_i2c.c ****   *            @arg I2C_EVENT_MASTER_BYTE_TRANSMITTING: EV8
1081:cmsis/device/stm32f4xx_i2c.c ****   *            @arg I2C_EVENT_MASTER_BYTE_TRANSMITTED: EV8_2
1082:cmsis/device/stm32f4xx_i2c.c ****   *            @arg I2C_EVENT_MASTER_MODE_ADDRESS10: EV9
1083:cmsis/device/stm32f4xx_i2c.c ****   *     
1084:cmsis/device/stm32f4xx_i2c.c ****   * @note   For detailed description of Events, please refer to section I2C_Events
1085:cmsis/device/stm32f4xx_i2c.c ****   *         in stm32f4xx_i2c.h file.
1086:cmsis/device/stm32f4xx_i2c.c ****   *    
1087:cmsis/device/stm32f4xx_i2c.c ****   * @retval An ErrorStatus enumeration value:
1088:cmsis/device/stm32f4xx_i2c.c ****   *           - SUCCESS: Last event is equal to the I2C_EVENT
1089:cmsis/device/stm32f4xx_i2c.c ****   *           - ERROR: Last event is different from the I2C_EVENT
1090:cmsis/device/stm32f4xx_i2c.c ****   */
1091:cmsis/device/stm32f4xx_i2c.c **** ErrorStatus I2C_CheckEvent(I2C_TypeDef* I2Cx, uint32_t I2C_EVENT)
1092:cmsis/device/stm32f4xx_i2c.c **** {
 1218              		.loc 1 1092 0
 1219              		.cfi_startproc
 1220              		@ args = 0, pretend = 0, frame = 0
 1221              		@ frame_needed = 0, uses_anonymous_args = 0
 1222              		@ link register save eliminated.
 1223              	.LVL128:
ARM GAS  C:\Users\CNous\AppData\Local\Temp\ccLIBeCO.s 			page 43


1093:cmsis/device/stm32f4xx_i2c.c ****   uint32_t lastevent = 0;
1094:cmsis/device/stm32f4xx_i2c.c ****   uint32_t flag1 = 0, flag2 = 0;
1095:cmsis/device/stm32f4xx_i2c.c ****   ErrorStatus status = ERROR;
1096:cmsis/device/stm32f4xx_i2c.c **** 
1097:cmsis/device/stm32f4xx_i2c.c ****   /* Check the parameters */
1098:cmsis/device/stm32f4xx_i2c.c ****   assert_param(IS_I2C_ALL_PERIPH(I2Cx));
1099:cmsis/device/stm32f4xx_i2c.c ****   assert_param(IS_I2C_EVENT(I2C_EVENT));
1100:cmsis/device/stm32f4xx_i2c.c **** 
1101:cmsis/device/stm32f4xx_i2c.c ****   /* Read the I2Cx status register */
1102:cmsis/device/stm32f4xx_i2c.c ****   flag1 = I2Cx->SR1;
 1224              		.loc 1 1102 0
 1225 0000 828A     		ldrh	r2, [r0, #20]	@, I2Cx_6(D)->SR1
1103:cmsis/device/stm32f4xx_i2c.c ****   flag2 = I2Cx->SR2;
 1226              		.loc 1 1103 0
 1227 0002 038B     		ldrh	r3, [r0, #24]	@, I2Cx_6(D)->SR2
1102:cmsis/device/stm32f4xx_i2c.c ****   flag1 = I2Cx->SR1;
 1228              		.loc 1 1102 0
 1229 0004 90B2     		uxth	r0, r2	@ D.6698, I2Cx_6(D)->SR1
 1230              	.LVL129:
1104:cmsis/device/stm32f4xx_i2c.c ****   flag2 = flag2 << 16;
1105:cmsis/device/stm32f4xx_i2c.c **** 
1106:cmsis/device/stm32f4xx_i2c.c ****   /* Get the last event value from I2C status register */
1107:cmsis/device/stm32f4xx_i2c.c ****   lastevent = (flag1 | flag2) & FLAG_MASK;
 1231              		.loc 1 1107 0
 1232 0006 40EA0342 		orr	r2, r0, r3, lsl #16	@, tmp153, D.6698, I2Cx_6(D)->SR2,
 1233 000a 0A40     		ands	r2, r2, r1	@, tmp154, tmp153, I2C_EVENT
1108:cmsis/device/stm32f4xx_i2c.c **** 
1109:cmsis/device/stm32f4xx_i2c.c ****   /* Check whether the last event contains the I2C_EVENT */
1110:cmsis/device/stm32f4xx_i2c.c ****   if ((lastevent & I2C_EVENT) == I2C_EVENT)
 1234              		.loc 1 1110 0
 1235 000c 22F07F43 		bic	r3, r2, #-16777216	@ tmp155, tmp154,
 1236              	.LVL130:
1111:cmsis/device/stm32f4xx_i2c.c ****   {
1112:cmsis/device/stm32f4xx_i2c.c ****     /* SUCCESS: last event is equal to I2C_EVENT */
1113:cmsis/device/stm32f4xx_i2c.c ****     status = SUCCESS;
1114:cmsis/device/stm32f4xx_i2c.c ****   }
1115:cmsis/device/stm32f4xx_i2c.c ****   else
1116:cmsis/device/stm32f4xx_i2c.c ****   {
1117:cmsis/device/stm32f4xx_i2c.c ****     /* ERROR: last event is different from I2C_EVENT */
1118:cmsis/device/stm32f4xx_i2c.c ****     status = ERROR;
1119:cmsis/device/stm32f4xx_i2c.c ****   }
1120:cmsis/device/stm32f4xx_i2c.c ****   /* Return status */
1121:cmsis/device/stm32f4xx_i2c.c ****   return status;
1122:cmsis/device/stm32f4xx_i2c.c **** }
 1237              		.loc 1 1122 0
 1238 0010 C91A     		subs	r1, r1, r3	@, I2C_EVENT, tmp155
 1239              	.LVL131:
 1240 0012 4842     		rsbs	r0, r1, #0	@,,
 1241              	.LVL132:
 1242 0014 4841     		adcs	r0, r0, r1	@,,
 1243 0016 7047     		bx	lr	@
 1244              		.cfi_endproc
 1245              	.LFE137:
 1246              		.size	I2C_CheckEvent, .-I2C_CheckEvent
 1247              		.section	.text.I2C_GetLastEvent,"ax",%progbits
 1248              		.align	2
 1249              		.global	I2C_GetLastEvent
ARM GAS  C:\Users\CNous\AppData\Local\Temp\ccLIBeCO.s 			page 44


 1250              		.thumb
 1251              		.thumb_func
 1252              		.type	I2C_GetLastEvent, %function
 1253              	I2C_GetLastEvent:
 1254              	.LFB138:
1123:cmsis/device/stm32f4xx_i2c.c **** 
1124:cmsis/device/stm32f4xx_i2c.c **** /*
1125:cmsis/device/stm32f4xx_i2c.c ****  ===============================================================================
1126:cmsis/device/stm32f4xx_i2c.c ****                           2. Advanced state monitoring                   
1127:cmsis/device/stm32f4xx_i2c.c ****  ===============================================================================  
1128:cmsis/device/stm32f4xx_i2c.c ****  */
1129:cmsis/device/stm32f4xx_i2c.c **** 
1130:cmsis/device/stm32f4xx_i2c.c **** /**
1131:cmsis/device/stm32f4xx_i2c.c ****   * @brief  Returns the last I2Cx Event.
1132:cmsis/device/stm32f4xx_i2c.c ****   * @param  I2Cx: where x can be 1, 2 or 3 to select the I2C peripheral.
1133:cmsis/device/stm32f4xx_i2c.c ****   *     
1134:cmsis/device/stm32f4xx_i2c.c ****   * @note   For detailed description of Events, please refer to section I2C_Events
1135:cmsis/device/stm32f4xx_i2c.c ****   *         in stm32f4xx_i2c.h file.
1136:cmsis/device/stm32f4xx_i2c.c ****   *    
1137:cmsis/device/stm32f4xx_i2c.c ****   * @retval The last event
1138:cmsis/device/stm32f4xx_i2c.c ****   */
1139:cmsis/device/stm32f4xx_i2c.c **** uint32_t I2C_GetLastEvent(I2C_TypeDef* I2Cx)
1140:cmsis/device/stm32f4xx_i2c.c **** {
 1255              		.loc 1 1140 0
 1256              		.cfi_startproc
 1257              		@ args = 0, pretend = 0, frame = 0
 1258              		@ frame_needed = 0, uses_anonymous_args = 0
 1259              		@ link register save eliminated.
 1260              	.LVL133:
1141:cmsis/device/stm32f4xx_i2c.c ****   uint32_t lastevent = 0;
1142:cmsis/device/stm32f4xx_i2c.c ****   uint32_t flag1 = 0, flag2 = 0;
1143:cmsis/device/stm32f4xx_i2c.c **** 
1144:cmsis/device/stm32f4xx_i2c.c ****   /* Check the parameters */
1145:cmsis/device/stm32f4xx_i2c.c ****   assert_param(IS_I2C_ALL_PERIPH(I2Cx));
1146:cmsis/device/stm32f4xx_i2c.c **** 
1147:cmsis/device/stm32f4xx_i2c.c ****   /* Read the I2Cx status register */
1148:cmsis/device/stm32f4xx_i2c.c ****   flag1 = I2Cx->SR1;
 1261              		.loc 1 1148 0
 1262 0000 828A     		ldrh	r2, [r0, #20]	@, I2Cx_4(D)->SR1
1149:cmsis/device/stm32f4xx_i2c.c ****   flag2 = I2Cx->SR2;
 1263              		.loc 1 1149 0
 1264 0002 038B     		ldrh	r3, [r0, #24]	@, I2Cx_4(D)->SR2
1148:cmsis/device/stm32f4xx_i2c.c ****   flag1 = I2Cx->SR1;
 1265              		.loc 1 1148 0
 1266 0004 90B2     		uxth	r0, r2	@ D.6693, I2Cx_4(D)->SR1
 1267              	.LVL134:
1150:cmsis/device/stm32f4xx_i2c.c ****   flag2 = flag2 << 16;
1151:cmsis/device/stm32f4xx_i2c.c **** 
1152:cmsis/device/stm32f4xx_i2c.c ****   /* Get the last event value from I2C status register */
1153:cmsis/device/stm32f4xx_i2c.c ****   lastevent = (flag1 | flag2) & FLAG_MASK;
 1268              		.loc 1 1153 0
 1269 0006 40EA0341 		orr	r1, r0, r3, lsl #16	@, tmp149, D.6693, I2Cx_4(D)->SR2,
1154:cmsis/device/stm32f4xx_i2c.c **** 
1155:cmsis/device/stm32f4xx_i2c.c ****   /* Return status */
1156:cmsis/device/stm32f4xx_i2c.c ****   return lastevent;
1157:cmsis/device/stm32f4xx_i2c.c **** }
 1270              		.loc 1 1157 0
ARM GAS  C:\Users\CNous\AppData\Local\Temp\ccLIBeCO.s 			page 45


 1271 000a 21F07F40 		bic	r0, r1, #-16777216	@, tmp149,
 1272              	.LVL135:
 1273 000e 7047     		bx	lr	@
 1274              		.cfi_endproc
 1275              	.LFE138:
 1276              		.size	I2C_GetLastEvent, .-I2C_GetLastEvent
 1277              		.section	.text.I2C_GetFlagStatus,"ax",%progbits
 1278              		.align	2
 1279              		.global	I2C_GetFlagStatus
 1280              		.thumb
 1281              		.thumb_func
 1282              		.type	I2C_GetFlagStatus, %function
 1283              	I2C_GetFlagStatus:
 1284              	.LFB139:
1158:cmsis/device/stm32f4xx_i2c.c **** 
1159:cmsis/device/stm32f4xx_i2c.c **** /*
1160:cmsis/device/stm32f4xx_i2c.c ****  ===============================================================================
1161:cmsis/device/stm32f4xx_i2c.c ****                           3. Flag-based state monitoring                   
1162:cmsis/device/stm32f4xx_i2c.c ****  ===============================================================================  
1163:cmsis/device/stm32f4xx_i2c.c ****  */
1164:cmsis/device/stm32f4xx_i2c.c **** 
1165:cmsis/device/stm32f4xx_i2c.c **** /**
1166:cmsis/device/stm32f4xx_i2c.c ****   * @brief  Checks whether the specified I2C flag is set or not.
1167:cmsis/device/stm32f4xx_i2c.c ****   * @param  I2Cx: where x can be 1, 2 or 3 to select the I2C peripheral.
1168:cmsis/device/stm32f4xx_i2c.c ****   * @param  I2C_FLAG: specifies the flag to check. 
1169:cmsis/device/stm32f4xx_i2c.c ****   *          This parameter can be one of the following values:
1170:cmsis/device/stm32f4xx_i2c.c ****   *            @arg I2C_FLAG_DUALF: Dual flag (Slave mode)
1171:cmsis/device/stm32f4xx_i2c.c ****   *            @arg I2C_FLAG_SMBHOST: SMBus host header (Slave mode)
1172:cmsis/device/stm32f4xx_i2c.c ****   *            @arg I2C_FLAG_SMBDEFAULT: SMBus default header (Slave mode)
1173:cmsis/device/stm32f4xx_i2c.c ****   *            @arg I2C_FLAG_GENCALL: General call header flag (Slave mode)
1174:cmsis/device/stm32f4xx_i2c.c ****   *            @arg I2C_FLAG_TRA: Transmitter/Receiver flag
1175:cmsis/device/stm32f4xx_i2c.c ****   *            @arg I2C_FLAG_BUSY: Bus busy flag
1176:cmsis/device/stm32f4xx_i2c.c ****   *            @arg I2C_FLAG_MSL: Master/Slave flag
1177:cmsis/device/stm32f4xx_i2c.c ****   *            @arg I2C_FLAG_SMBALERT: SMBus Alert flag
1178:cmsis/device/stm32f4xx_i2c.c ****   *            @arg I2C_FLAG_TIMEOUT: Timeout or Tlow error flag
1179:cmsis/device/stm32f4xx_i2c.c ****   *            @arg I2C_FLAG_PECERR: PEC error in reception flag
1180:cmsis/device/stm32f4xx_i2c.c ****   *            @arg I2C_FLAG_OVR: Overrun/Underrun flag (Slave mode)
1181:cmsis/device/stm32f4xx_i2c.c ****   *            @arg I2C_FLAG_AF: Acknowledge failure flag
1182:cmsis/device/stm32f4xx_i2c.c ****   *            @arg I2C_FLAG_ARLO: Arbitration lost flag (Master mode)
1183:cmsis/device/stm32f4xx_i2c.c ****   *            @arg I2C_FLAG_BERR: Bus error flag
1184:cmsis/device/stm32f4xx_i2c.c ****   *            @arg I2C_FLAG_TXE: Data register empty flag (Transmitter)
1185:cmsis/device/stm32f4xx_i2c.c ****   *            @arg I2C_FLAG_RXNE: Data register not empty (Receiver) flag
1186:cmsis/device/stm32f4xx_i2c.c ****   *            @arg I2C_FLAG_STOPF: Stop detection flag (Slave mode)
1187:cmsis/device/stm32f4xx_i2c.c ****   *            @arg I2C_FLAG_ADD10: 10-bit header sent flag (Master mode)
1188:cmsis/device/stm32f4xx_i2c.c ****   *            @arg I2C_FLAG_BTF: Byte transfer finished flag
1189:cmsis/device/stm32f4xx_i2c.c ****   *            @arg I2C_FLAG_ADDR: Address sent flag (Master mode) "ADSL"
1190:cmsis/device/stm32f4xx_i2c.c ****   *                                Address matched flag (Slave mode)"ENDAD"
1191:cmsis/device/stm32f4xx_i2c.c ****   *            @arg I2C_FLAG_SB: Start bit flag (Master mode)
1192:cmsis/device/stm32f4xx_i2c.c ****   * @retval The new state of I2C_FLAG (SET or RESET).
1193:cmsis/device/stm32f4xx_i2c.c ****   */
1194:cmsis/device/stm32f4xx_i2c.c **** FlagStatus I2C_GetFlagStatus(I2C_TypeDef* I2Cx, uint32_t I2C_FLAG)
1195:cmsis/device/stm32f4xx_i2c.c **** {
 1285              		.loc 1 1195 0
 1286              		.cfi_startproc
 1287              		@ args = 0, pretend = 0, frame = 8
 1288              		@ frame_needed = 0, uses_anonymous_args = 0
 1289              		@ link register save eliminated.
ARM GAS  C:\Users\CNous\AppData\Local\Temp\ccLIBeCO.s 			page 46


 1290              	.LVL136:
 1291 0000 82B0     		sub	sp, sp, #8	@,,
 1292              	.LCFI4:
 1293              		.cfi_def_cfa_offset 8
1196:cmsis/device/stm32f4xx_i2c.c ****   FlagStatus bitstatus = RESET;
1197:cmsis/device/stm32f4xx_i2c.c ****   __IO uint32_t i2creg = 0, i2cxbase = 0;
 1294              		.loc 1 1197 0
 1295 0002 0023     		movs	r3, #0	@ tmp151,
1198:cmsis/device/stm32f4xx_i2c.c **** 
1199:cmsis/device/stm32f4xx_i2c.c ****   /* Check the parameters */
1200:cmsis/device/stm32f4xx_i2c.c ****   assert_param(IS_I2C_ALL_PERIPH(I2Cx));
1201:cmsis/device/stm32f4xx_i2c.c ****   assert_param(IS_I2C_GET_FLAG(I2C_FLAG));
1202:cmsis/device/stm32f4xx_i2c.c **** 
1203:cmsis/device/stm32f4xx_i2c.c ****   /* Get the I2Cx peripheral base address */
1204:cmsis/device/stm32f4xx_i2c.c ****   i2cxbase = (uint32_t)I2Cx;
1205:cmsis/device/stm32f4xx_i2c.c ****   
1206:cmsis/device/stm32f4xx_i2c.c ****   /* Read flag register index */
1207:cmsis/device/stm32f4xx_i2c.c ****   i2creg = I2C_FLAG >> 28;
 1296              		.loc 1 1207 0
 1297 0004 0A0F     		lsrs	r2, r1, #28	@ i2creg.1, I2C_FLAG,
 1298              	.LVL137:
1197:cmsis/device/stm32f4xx_i2c.c ****   __IO uint32_t i2creg = 0, i2cxbase = 0;
 1299              		.loc 1 1197 0
 1300 0006 0093     		str	r3, [sp, #0]	@ tmp151, i2creg
 1301              	.LVL138:
 1302 0008 0193     		str	r3, [sp, #4]	@ tmp151, i2cxbase
 1303              	.LVL139:
1204:cmsis/device/stm32f4xx_i2c.c ****   i2cxbase = (uint32_t)I2Cx;
 1304              		.loc 1 1204 0
 1305 000a 0190     		str	r0, [sp, #4]	@ I2Cx, i2cxbase
 1306              		.loc 1 1207 0
 1307 000c 0092     		str	r2, [sp, #0]	@ i2creg.1, i2creg
1208:cmsis/device/stm32f4xx_i2c.c ****   
1209:cmsis/device/stm32f4xx_i2c.c ****   /* Get bit[23:0] of the flag */
1210:cmsis/device/stm32f4xx_i2c.c ****   I2C_FLAG &= FLAG_MASK;
1211:cmsis/device/stm32f4xx_i2c.c ****   
1212:cmsis/device/stm32f4xx_i2c.c ****   if(i2creg != 0)
 1308              		.loc 1 1212 0
 1309 000e 0098     		ldr	r0, [sp, #0]	@ i2creg.2, i2creg
 1310              	.LVL140:
1210:cmsis/device/stm32f4xx_i2c.c ****   I2C_FLAG &= FLAG_MASK;
 1311              		.loc 1 1210 0
 1312 0010 21F07F41 		bic	r1, r1, #-16777216	@ I2C_FLAG, I2C_FLAG,
 1313              	.LVL141:
 1314              		.loc 1 1212 0
 1315 0014 50B1     		cbz	r0, .L102	@ i2creg.2,
1213:cmsis/device/stm32f4xx_i2c.c ****   {
1214:cmsis/device/stm32f4xx_i2c.c ****     /* Get the I2Cx SR1 register address */
1215:cmsis/device/stm32f4xx_i2c.c ****     i2cxbase += 0x14;
 1316              		.loc 1 1215 0
 1317 0016 019A     		ldr	r2, [sp, #4]	@ i2cxbase.3, i2cxbase
 1318 0018 1432     		adds	r2, r2, #20	@ i2cxbase.4, i2cxbase.3,
 1319              	.LVL142:
 1320 001a 0192     		str	r2, [sp, #4]	@ i2cxbase.4, i2cxbase
 1321              	.LVL143:
 1322              	.L103:
1216:cmsis/device/stm32f4xx_i2c.c ****   }
ARM GAS  C:\Users\CNous\AppData\Local\Temp\ccLIBeCO.s 			page 47


1217:cmsis/device/stm32f4xx_i2c.c ****   else
1218:cmsis/device/stm32f4xx_i2c.c ****   {
1219:cmsis/device/stm32f4xx_i2c.c ****     /* Flag in I2Cx SR2 Register */
1220:cmsis/device/stm32f4xx_i2c.c ****     I2C_FLAG = (uint32_t)(I2C_FLAG >> 16);
1221:cmsis/device/stm32f4xx_i2c.c ****     /* Get the I2Cx SR2 register address */
1222:cmsis/device/stm32f4xx_i2c.c ****     i2cxbase += 0x18;
1223:cmsis/device/stm32f4xx_i2c.c ****   }
1224:cmsis/device/stm32f4xx_i2c.c ****   
1225:cmsis/device/stm32f4xx_i2c.c ****   if(((*(__IO uint32_t *)i2cxbase) & I2C_FLAG) != (uint32_t)RESET)
 1323              		.loc 1 1225 0
 1324 001c 0198     		ldr	r0, [sp, #4]	@ i2cxbase.7, i2cxbase
 1325 001e 0368     		ldr	r3, [r0, #0]	@ D.6686, *i2cxbase.8_16
 1326              	.LVL144:
 1327 0020 1942     		tst	r1, r3	@ I2C_FLAG, D.6686
1226:cmsis/device/stm32f4xx_i2c.c ****   {
1227:cmsis/device/stm32f4xx_i2c.c ****     /* I2C_FLAG is set */
1228:cmsis/device/stm32f4xx_i2c.c ****     bitstatus = SET;
1229:cmsis/device/stm32f4xx_i2c.c ****   }
1230:cmsis/device/stm32f4xx_i2c.c ****   else
1231:cmsis/device/stm32f4xx_i2c.c ****   {
1232:cmsis/device/stm32f4xx_i2c.c ****     /* I2C_FLAG is reset */
1233:cmsis/device/stm32f4xx_i2c.c ****     bitstatus = RESET;
1234:cmsis/device/stm32f4xx_i2c.c ****   }
1235:cmsis/device/stm32f4xx_i2c.c ****   
1236:cmsis/device/stm32f4xx_i2c.c ****   /* Return the I2C_FLAG status */
1237:cmsis/device/stm32f4xx_i2c.c ****   return  bitstatus;
1238:cmsis/device/stm32f4xx_i2c.c **** }
 1328              		.loc 1 1238 0
 1329 0022 0CBF     		ite	eq	@
 1330 0024 0020     		moveq	r0, #0	@,
 1331 0026 0120     		movne	r0, #1	@,
 1332 0028 02B0     		add	sp, sp, #8	@,,
 1333 002a 7047     		bx	lr
 1334              	.LVL145:
 1335              	.L102:
1222:cmsis/device/stm32f4xx_i2c.c ****     i2cxbase += 0x18;
 1336              		.loc 1 1222 0
 1337 002c 019B     		ldr	r3, [sp, #4]	@ i2cxbase.5, i2cxbase
 1338 002e 1833     		adds	r3, r3, #24	@ i2cxbase.6, i2cxbase.5,
 1339              	.LVL146:
1220:cmsis/device/stm32f4xx_i2c.c ****     I2C_FLAG = (uint32_t)(I2C_FLAG >> 16);
 1340              		.loc 1 1220 0
 1341 0030 090C     		lsrs	r1, r1, #16	@ I2C_FLAG, I2C_FLAG,
 1342              	.LVL147:
1222:cmsis/device/stm32f4xx_i2c.c ****     i2cxbase += 0x18;
 1343              		.loc 1 1222 0
 1344 0032 0193     		str	r3, [sp, #4]	@ i2cxbase.6, i2cxbase
 1345              	.LVL148:
 1346 0034 F2E7     		b	.L103	@
 1347              		.cfi_endproc
 1348              	.LFE139:
 1349              		.size	I2C_GetFlagStatus, .-I2C_GetFlagStatus
 1350 0036 00BF     		.section	.text.I2C_ClearFlag,"ax",%progbits
 1351              		.align	2
 1352              		.global	I2C_ClearFlag
 1353              		.thumb
 1354              		.thumb_func
ARM GAS  C:\Users\CNous\AppData\Local\Temp\ccLIBeCO.s 			page 48


 1355              		.type	I2C_ClearFlag, %function
 1356              	I2C_ClearFlag:
 1357              	.LFB140:
1239:cmsis/device/stm32f4xx_i2c.c **** 
1240:cmsis/device/stm32f4xx_i2c.c **** /**
1241:cmsis/device/stm32f4xx_i2c.c ****   * @brief  Clears the I2Cx's pending flags.
1242:cmsis/device/stm32f4xx_i2c.c ****   * @param  I2Cx: where x can be 1, 2 or 3 to select the I2C peripheral.
1243:cmsis/device/stm32f4xx_i2c.c ****   * @param  I2C_FLAG: specifies the flag to clear. 
1244:cmsis/device/stm32f4xx_i2c.c ****   *          This parameter can be any combination of the following values:
1245:cmsis/device/stm32f4xx_i2c.c ****   *            @arg I2C_FLAG_SMBALERT: SMBus Alert flag
1246:cmsis/device/stm32f4xx_i2c.c ****   *            @arg I2C_FLAG_TIMEOUT: Timeout or Tlow error flag
1247:cmsis/device/stm32f4xx_i2c.c ****   *            @arg I2C_FLAG_PECERR: PEC error in reception flag
1248:cmsis/device/stm32f4xx_i2c.c ****   *            @arg I2C_FLAG_OVR: Overrun/Underrun flag (Slave mode)
1249:cmsis/device/stm32f4xx_i2c.c ****   *            @arg I2C_FLAG_AF: Acknowledge failure flag
1250:cmsis/device/stm32f4xx_i2c.c ****   *            @arg I2C_FLAG_ARLO: Arbitration lost flag (Master mode)
1251:cmsis/device/stm32f4xx_i2c.c ****   *            @arg I2C_FLAG_BERR: Bus error flag
1252:cmsis/device/stm32f4xx_i2c.c ****   *   
1253:cmsis/device/stm32f4xx_i2c.c ****   * @note   STOPF (STOP detection) is cleared by software sequence: a read operation 
1254:cmsis/device/stm32f4xx_i2c.c ****   *          to I2C_SR1 register (I2C_GetFlagStatus()) followed by a write operation 
1255:cmsis/device/stm32f4xx_i2c.c ****   *          to I2C_CR1 register (I2C_Cmd() to re-enable the I2C peripheral).
1256:cmsis/device/stm32f4xx_i2c.c ****   * @note   ADD10 (10-bit header sent) is cleared by software sequence: a read 
1257:cmsis/device/stm32f4xx_i2c.c ****   *          operation to I2C_SR1 (I2C_GetFlagStatus()) followed by writing the 
1258:cmsis/device/stm32f4xx_i2c.c ****   *          second byte of the address in DR register.
1259:cmsis/device/stm32f4xx_i2c.c ****   * @note   BTF (Byte Transfer Finished) is cleared by software sequence: a read 
1260:cmsis/device/stm32f4xx_i2c.c ****   *          operation to I2C_SR1 register (I2C_GetFlagStatus()) followed by a 
1261:cmsis/device/stm32f4xx_i2c.c ****   *          read/write to I2C_DR register (I2C_SendData()).
1262:cmsis/device/stm32f4xx_i2c.c ****   * @note   ADDR (Address sent) is cleared by software sequence: a read operation to 
1263:cmsis/device/stm32f4xx_i2c.c ****   *          I2C_SR1 register (I2C_GetFlagStatus()) followed by a read operation to 
1264:cmsis/device/stm32f4xx_i2c.c ****   *          I2C_SR2 register ((void)(I2Cx->SR2)).
1265:cmsis/device/stm32f4xx_i2c.c ****   * @note   SB (Start Bit) is cleared software sequence: a read operation to I2C_SR1
1266:cmsis/device/stm32f4xx_i2c.c ****   *          register (I2C_GetFlagStatus()) followed by a write operation to I2C_DR
1267:cmsis/device/stm32f4xx_i2c.c ****   *          register (I2C_SendData()).
1268:cmsis/device/stm32f4xx_i2c.c ****   *  
1269:cmsis/device/stm32f4xx_i2c.c ****   * @retval None
1270:cmsis/device/stm32f4xx_i2c.c ****   */
1271:cmsis/device/stm32f4xx_i2c.c **** void I2C_ClearFlag(I2C_TypeDef* I2Cx, uint32_t I2C_FLAG)
1272:cmsis/device/stm32f4xx_i2c.c **** {
 1358              		.loc 1 1272 0
 1359              		.cfi_startproc
 1360              		@ args = 0, pretend = 0, frame = 0
 1361              		@ frame_needed = 0, uses_anonymous_args = 0
 1362              		@ link register save eliminated.
 1363              	.LVL149:
1273:cmsis/device/stm32f4xx_i2c.c ****   uint32_t flagpos = 0;
1274:cmsis/device/stm32f4xx_i2c.c ****   /* Check the parameters */
1275:cmsis/device/stm32f4xx_i2c.c ****   assert_param(IS_I2C_ALL_PERIPH(I2Cx));
1276:cmsis/device/stm32f4xx_i2c.c ****   assert_param(IS_I2C_CLEAR_FLAG(I2C_FLAG));
1277:cmsis/device/stm32f4xx_i2c.c ****   /* Get the I2C flag position */
1278:cmsis/device/stm32f4xx_i2c.c ****   flagpos = I2C_FLAG & FLAG_MASK;
1279:cmsis/device/stm32f4xx_i2c.c ****   /* Clear the selected I2C flag */
1280:cmsis/device/stm32f4xx_i2c.c ****   I2Cx->SR1 = (uint16_t)~flagpos;
 1364              		.loc 1 1280 0
 1365 0000 C943     		mvns	r1, r1	@ tmp141, I2C_FLAG
 1366              	.LVL150:
 1367 0002 8AB2     		uxth	r2, r1	@ D.6673, tmp141
 1368 0004 8282     		strh	r2, [r0, #20]	@ movhi	@ D.6673, I2Cx_6(D)->SR1
 1369 0006 7047     		bx	lr	@
ARM GAS  C:\Users\CNous\AppData\Local\Temp\ccLIBeCO.s 			page 49


 1370              		.cfi_endproc
 1371              	.LFE140:
 1372              		.size	I2C_ClearFlag, .-I2C_ClearFlag
 1373              		.section	.text.I2C_GetITStatus,"ax",%progbits
 1374              		.align	2
 1375              		.global	I2C_GetITStatus
 1376              		.thumb
 1377              		.thumb_func
 1378              		.type	I2C_GetITStatus, %function
 1379              	I2C_GetITStatus:
 1380              	.LFB141:
1281:cmsis/device/stm32f4xx_i2c.c **** }
1282:cmsis/device/stm32f4xx_i2c.c **** 
1283:cmsis/device/stm32f4xx_i2c.c **** /**
1284:cmsis/device/stm32f4xx_i2c.c ****   * @brief  Checks whether the specified I2C interrupt has occurred or not.
1285:cmsis/device/stm32f4xx_i2c.c ****   * @param  I2Cx: where x can be 1, 2 or 3 to select the I2C peripheral.
1286:cmsis/device/stm32f4xx_i2c.c ****   * @param  I2C_IT: specifies the interrupt source to check. 
1287:cmsis/device/stm32f4xx_i2c.c ****   *          This parameter can be one of the following values:
1288:cmsis/device/stm32f4xx_i2c.c ****   *            @arg I2C_IT_SMBALERT: SMBus Alert flag
1289:cmsis/device/stm32f4xx_i2c.c ****   *            @arg I2C_IT_TIMEOUT: Timeout or Tlow error flag
1290:cmsis/device/stm32f4xx_i2c.c ****   *            @arg I2C_IT_PECERR: PEC error in reception flag
1291:cmsis/device/stm32f4xx_i2c.c ****   *            @arg I2C_IT_OVR: Overrun/Underrun flag (Slave mode)
1292:cmsis/device/stm32f4xx_i2c.c ****   *            @arg I2C_IT_AF: Acknowledge failure flag
1293:cmsis/device/stm32f4xx_i2c.c ****   *            @arg I2C_IT_ARLO: Arbitration lost flag (Master mode)
1294:cmsis/device/stm32f4xx_i2c.c ****   *            @arg I2C_IT_BERR: Bus error flag
1295:cmsis/device/stm32f4xx_i2c.c ****   *            @arg I2C_IT_TXE: Data register empty flag (Transmitter)
1296:cmsis/device/stm32f4xx_i2c.c ****   *            @arg I2C_IT_RXNE: Data register not empty (Receiver) flag
1297:cmsis/device/stm32f4xx_i2c.c ****   *            @arg I2C_IT_STOPF: Stop detection flag (Slave mode)
1298:cmsis/device/stm32f4xx_i2c.c ****   *            @arg I2C_IT_ADD10: 10-bit header sent flag (Master mode)
1299:cmsis/device/stm32f4xx_i2c.c ****   *            @arg I2C_IT_BTF: Byte transfer finished flag
1300:cmsis/device/stm32f4xx_i2c.c ****   *            @arg I2C_IT_ADDR: Address sent flag (Master mode) "ADSL"
1301:cmsis/device/stm32f4xx_i2c.c ****   *                              Address matched flag (Slave mode)"ENDAD"
1302:cmsis/device/stm32f4xx_i2c.c ****   *            @arg I2C_IT_SB: Start bit flag (Master mode)
1303:cmsis/device/stm32f4xx_i2c.c ****   * @retval The new state of I2C_IT (SET or RESET).
1304:cmsis/device/stm32f4xx_i2c.c ****   */
1305:cmsis/device/stm32f4xx_i2c.c **** ITStatus I2C_GetITStatus(I2C_TypeDef* I2Cx, uint32_t I2C_IT)
1306:cmsis/device/stm32f4xx_i2c.c **** {
 1381              		.loc 1 1306 0
 1382              		.cfi_startproc
 1383              		@ args = 0, pretend = 0, frame = 0
 1384              		@ frame_needed = 0, uses_anonymous_args = 0
 1385              		@ link register save eliminated.
 1386              	.LVL151:
1307:cmsis/device/stm32f4xx_i2c.c ****   ITStatus bitstatus = RESET;
1308:cmsis/device/stm32f4xx_i2c.c ****   uint32_t enablestatus = 0;
1309:cmsis/device/stm32f4xx_i2c.c **** 
1310:cmsis/device/stm32f4xx_i2c.c ****   /* Check the parameters */
1311:cmsis/device/stm32f4xx_i2c.c ****   assert_param(IS_I2C_ALL_PERIPH(I2Cx));
1312:cmsis/device/stm32f4xx_i2c.c ****   assert_param(IS_I2C_GET_IT(I2C_IT));
1313:cmsis/device/stm32f4xx_i2c.c **** 
1314:cmsis/device/stm32f4xx_i2c.c ****   /* Check if the interrupt source is enabled or not */
1315:cmsis/device/stm32f4xx_i2c.c ****   enablestatus = (uint32_t)(((I2C_IT & ITEN_MASK) >> 16) & (I2Cx->CR2)) ;
 1387              		.loc 1 1315 0
 1388 0000 8388     		ldrh	r3, [r0, #4]	@, I2Cx_7(D)->CR2
1316:cmsis/device/stm32f4xx_i2c.c ****   
1317:cmsis/device/stm32f4xx_i2c.c ****   /* Get bit[23:0] of the flag */
1318:cmsis/device/stm32f4xx_i2c.c ****   I2C_IT &= FLAG_MASK;
ARM GAS  C:\Users\CNous\AppData\Local\Temp\ccLIBeCO.s 			page 50


1319:cmsis/device/stm32f4xx_i2c.c **** 
1320:cmsis/device/stm32f4xx_i2c.c ****   /* Check the status of the specified I2C flag */
1321:cmsis/device/stm32f4xx_i2c.c ****   if (((I2Cx->SR1 & I2C_IT) != (uint32_t)RESET) && enablestatus)
 1389              		.loc 1 1321 0
 1390 0002 808A     		ldrh	r0, [r0, #20]	@, I2Cx_7(D)->SR1
 1391              	.LVL152:
 1392 0004 82B2     		uxth	r2, r0	@ D.6665, I2Cx_7(D)->SR1
 1393 0006 11EA0200 		ands	r0, r1, r2	@ tmp151, I2C_IT, D.6665
1315:cmsis/device/stm32f4xx_i2c.c ****   enablestatus = (uint32_t)(((I2C_IT & ITEN_MASK) >> 16) & (I2Cx->CR2)) ;
 1394              		.loc 1 1315 0
 1395 000a 9BB2     		uxth	r3, r3	@ D.6661, I2Cx_7(D)->CR2
 1396              	.LVL153:
 1397              		.loc 1 1321 0
 1398 000c 06D0     		beq	.L106	@,
1315:cmsis/device/stm32f4xx_i2c.c ****   enablestatus = (uint32_t)(((I2C_IT & ITEN_MASK) >> 16) & (I2Cx->CR2)) ;
 1399              		.loc 1 1315 0 discriminator 1
 1400 000e 01F0E061 		and	r1, r1, #117440512	@ tmp152, I2C_IT,
 1401              	.LVL154:
 1402              		.loc 1 1321 0 discriminator 1
 1403 0012 13EA1141 		ands	r1, r3, r1, lsr #16	@,, D.6661, tmp152,
 1404              	.LVL155:
1322:cmsis/device/stm32f4xx_i2c.c ****   {
1323:cmsis/device/stm32f4xx_i2c.c ****     /* I2C_IT is set */
1324:cmsis/device/stm32f4xx_i2c.c ****     bitstatus = SET;
 1405              		.loc 1 1324 0 discriminator 1
 1406 0016 0CBF     		ite	eq	@
 1407 0018 0020     		moveq	r0, #0	@, bitstatus
 1408 001a 0120     		movne	r0, #1	@, bitstatus
 1409              	.L106:
 1410              	.LVL156:
1325:cmsis/device/stm32f4xx_i2c.c ****   }
1326:cmsis/device/stm32f4xx_i2c.c ****   else
1327:cmsis/device/stm32f4xx_i2c.c ****   {
1328:cmsis/device/stm32f4xx_i2c.c ****     /* I2C_IT is reset */
1329:cmsis/device/stm32f4xx_i2c.c ****     bitstatus = RESET;
1330:cmsis/device/stm32f4xx_i2c.c ****   }
1331:cmsis/device/stm32f4xx_i2c.c ****   /* Return the I2C_IT status */
1332:cmsis/device/stm32f4xx_i2c.c ****   return  bitstatus;
1333:cmsis/device/stm32f4xx_i2c.c **** }
 1411              		.loc 1 1333 0
 1412 001c 7047     		bx	lr	@
 1413              		.cfi_endproc
 1414              	.LFE141:
 1415              		.size	I2C_GetITStatus, .-I2C_GetITStatus
 1416 001e 00BF     		.section	.text.I2C_ClearITPendingBit,"ax",%progbits
 1417              		.align	2
 1418              		.global	I2C_ClearITPendingBit
 1419              		.thumb
 1420              		.thumb_func
 1421              		.type	I2C_ClearITPendingBit, %function
 1422              	I2C_ClearITPendingBit:
 1423              	.LFB142:
1334:cmsis/device/stm32f4xx_i2c.c **** 
1335:cmsis/device/stm32f4xx_i2c.c **** /**
1336:cmsis/device/stm32f4xx_i2c.c ****   * @brief  Clears the I2Cx's interrupt pending bits.
1337:cmsis/device/stm32f4xx_i2c.c ****   * @param  I2Cx: where x can be 1, 2 or 3 to select the I2C peripheral.
1338:cmsis/device/stm32f4xx_i2c.c ****   * @param  I2C_IT: specifies the interrupt pending bit to clear. 
ARM GAS  C:\Users\CNous\AppData\Local\Temp\ccLIBeCO.s 			page 51


1339:cmsis/device/stm32f4xx_i2c.c ****   *          This parameter can be any combination of the following values:
1340:cmsis/device/stm32f4xx_i2c.c ****   *            @arg I2C_IT_SMBALERT: SMBus Alert interrupt
1341:cmsis/device/stm32f4xx_i2c.c ****   *            @arg I2C_IT_TIMEOUT: Timeout or Tlow error interrupt
1342:cmsis/device/stm32f4xx_i2c.c ****   *            @arg I2C_IT_PECERR: PEC error in reception  interrupt
1343:cmsis/device/stm32f4xx_i2c.c ****   *            @arg I2C_IT_OVR: Overrun/Underrun interrupt (Slave mode)
1344:cmsis/device/stm32f4xx_i2c.c ****   *            @arg I2C_IT_AF: Acknowledge failure interrupt
1345:cmsis/device/stm32f4xx_i2c.c ****   *            @arg I2C_IT_ARLO: Arbitration lost interrupt (Master mode)
1346:cmsis/device/stm32f4xx_i2c.c ****   *            @arg I2C_IT_BERR: Bus error interrupt
1347:cmsis/device/stm32f4xx_i2c.c ****   * 
1348:cmsis/device/stm32f4xx_i2c.c ****   * @note   STOPF (STOP detection) is cleared by software sequence: a read operation 
1349:cmsis/device/stm32f4xx_i2c.c ****   *          to I2C_SR1 register (I2C_GetITStatus()) followed by a write operation to 
1350:cmsis/device/stm32f4xx_i2c.c ****   *          I2C_CR1 register (I2C_Cmd() to re-enable the I2C peripheral).
1351:cmsis/device/stm32f4xx_i2c.c ****   * @note   ADD10 (10-bit header sent) is cleared by software sequence: a read 
1352:cmsis/device/stm32f4xx_i2c.c ****   *          operation to I2C_SR1 (I2C_GetITStatus()) followed by writing the second 
1353:cmsis/device/stm32f4xx_i2c.c ****   *          byte of the address in I2C_DR register.
1354:cmsis/device/stm32f4xx_i2c.c ****   * @note   BTF (Byte Transfer Finished) is cleared by software sequence: a read 
1355:cmsis/device/stm32f4xx_i2c.c ****   *          operation to I2C_SR1 register (I2C_GetITStatus()) followed by a 
1356:cmsis/device/stm32f4xx_i2c.c ****   *          read/write to I2C_DR register (I2C_SendData()).
1357:cmsis/device/stm32f4xx_i2c.c ****   * @note   ADDR (Address sent) is cleared by software sequence: a read operation to 
1358:cmsis/device/stm32f4xx_i2c.c ****   *          I2C_SR1 register (I2C_GetITStatus()) followed by a read operation to 
1359:cmsis/device/stm32f4xx_i2c.c ****   *          I2C_SR2 register ((void)(I2Cx->SR2)).
1360:cmsis/device/stm32f4xx_i2c.c ****   * @note   SB (Start Bit) is cleared by software sequence: a read operation to 
1361:cmsis/device/stm32f4xx_i2c.c ****   *          I2C_SR1 register (I2C_GetITStatus()) followed by a write operation to 
1362:cmsis/device/stm32f4xx_i2c.c ****   *          I2C_DR register (I2C_SendData()).
1363:cmsis/device/stm32f4xx_i2c.c ****   * @retval None
1364:cmsis/device/stm32f4xx_i2c.c ****   */
1365:cmsis/device/stm32f4xx_i2c.c **** void I2C_ClearITPendingBit(I2C_TypeDef* I2Cx, uint32_t I2C_IT)
1366:cmsis/device/stm32f4xx_i2c.c **** {
 1424              		.loc 1 1366 0
 1425              		.cfi_startproc
 1426              		@ args = 0, pretend = 0, frame = 0
 1427              		@ frame_needed = 0, uses_anonymous_args = 0
 1428              		@ link register save eliminated.
 1429              	.LVL157:
1367:cmsis/device/stm32f4xx_i2c.c ****   uint32_t flagpos = 0;
1368:cmsis/device/stm32f4xx_i2c.c ****   /* Check the parameters */
1369:cmsis/device/stm32f4xx_i2c.c ****   assert_param(IS_I2C_ALL_PERIPH(I2Cx));
1370:cmsis/device/stm32f4xx_i2c.c ****   assert_param(IS_I2C_CLEAR_IT(I2C_IT));
1371:cmsis/device/stm32f4xx_i2c.c **** 
1372:cmsis/device/stm32f4xx_i2c.c ****   /* Get the I2C flag position */
1373:cmsis/device/stm32f4xx_i2c.c ****   flagpos = I2C_IT & FLAG_MASK;
1374:cmsis/device/stm32f4xx_i2c.c **** 
1375:cmsis/device/stm32f4xx_i2c.c ****   /* Clear the selected I2C flag */
1376:cmsis/device/stm32f4xx_i2c.c ****   I2Cx->SR1 = (uint16_t)~flagpos;
 1430              		.loc 1 1376 0
 1431 0000 C943     		mvns	r1, r1	@ tmp141, I2C_IT
 1432              	.LVL158:
 1433 0002 8AB2     		uxth	r2, r1	@ D.6658, tmp141
 1434 0004 8282     		strh	r2, [r0, #20]	@ movhi	@ D.6658, I2Cx_6(D)->SR1
 1435 0006 7047     		bx	lr	@
 1436              		.cfi_endproc
 1437              	.LFE142:
 1438              		.size	I2C_ClearITPendingBit, .-I2C_ClearITPendingBit
 1439              		.text
 1440              	.Letext0:
 1441              		.file 2 "c:\\gnutoolsarmembedded\\4.7-2012q4\\bin\\../lib/gcc/arm-none-eabi/4.7.3/../../../../arm-
 1442              		.file 3 "cmsis/device/stm32f4xx.h"
ARM GAS  C:\Users\CNous\AppData\Local\Temp\ccLIBeCO.s 			page 52


 1443              		.file 4 "./cmsis/device/stm32f4xx_rcc.h"
 1444              		.file 5 "cmsis/device/stm32f4xx_i2c.h"
 1445              		.file 6 "./cmsis/core/core_cm4.h"
 1446              		.section	.debug_info,"",%progbits
 1447              	.Ldebug_info0:
 1448 0000 8B0C0000 		.4byte	0xc8b
 1449 0004 0200     		.2byte	0x2
 1450 0006 00000000 		.4byte	.Ldebug_abbrev0
 1451 000a 04       		.byte	0x4
 1452 000b 01       		.uleb128 0x1
 1453 000c 72040000 		.4byte	.LASF110
 1454 0010 01       		.byte	0x1
 1455 0011 27050000 		.4byte	.LASF111
 1456 0015 05060000 		.4byte	.LASF112
 1457 0019 00000000 		.4byte	.Ldebug_ranges0+0
 1458 001d 00000000 		.4byte	0
 1459 0021 00000000 		.4byte	0
 1460 0025 00000000 		.4byte	.Ldebug_line0
 1461 0029 02       		.uleb128 0x2
 1462 002a 04       		.byte	0x4
 1463 002b 07       		.byte	0x7
 1464 002c 00030000 		.4byte	.LASF0
 1465 0030 02       		.uleb128 0x2
 1466 0031 01       		.byte	0x1
 1467 0032 06       		.byte	0x6
 1468 0033 D4020000 		.4byte	.LASF1
 1469 0037 03       		.uleb128 0x3
 1470 0038 38010000 		.4byte	.LASF4
 1471 003c 02       		.byte	0x2
 1472 003d 2A       		.byte	0x2a
 1473 003e 42000000 		.4byte	0x42
 1474 0042 02       		.uleb128 0x2
 1475 0043 01       		.byte	0x1
 1476 0044 08       		.byte	0x8
 1477 0045 AA020000 		.4byte	.LASF2
 1478 0049 02       		.uleb128 0x2
 1479 004a 02       		.byte	0x2
 1480 004b 05       		.byte	0x5
 1481 004c 81010000 		.4byte	.LASF3
 1482 0050 03       		.uleb128 0x3
 1483 0051 88030000 		.4byte	.LASF5
 1484 0055 02       		.byte	0x2
 1485 0056 36       		.byte	0x36
 1486 0057 5B000000 		.4byte	0x5b
 1487 005b 02       		.uleb128 0x2
 1488 005c 02       		.byte	0x2
 1489 005d 07       		.byte	0x7
 1490 005e 4F030000 		.4byte	.LASF6
 1491 0062 03       		.uleb128 0x3
 1492 0063 99030000 		.4byte	.LASF7
 1493 0067 02       		.byte	0x2
 1494 0068 4F       		.byte	0x4f
 1495 0069 6D000000 		.4byte	0x6d
 1496 006d 02       		.uleb128 0x2
 1497 006e 04       		.byte	0x4
 1498 006f 05       		.byte	0x5
 1499 0070 FE010000 		.4byte	.LASF8
ARM GAS  C:\Users\CNous\AppData\Local\Temp\ccLIBeCO.s 			page 53


 1500 0074 03       		.uleb128 0x3
 1501 0075 F7020000 		.4byte	.LASF9
 1502 0079 02       		.byte	0x2
 1503 007a 50       		.byte	0x50
 1504 007b 7F000000 		.4byte	0x7f
 1505 007f 02       		.uleb128 0x2
 1506 0080 04       		.byte	0x4
 1507 0081 07       		.byte	0x7
 1508 0082 24030000 		.4byte	.LASF10
 1509 0086 02       		.uleb128 0x2
 1510 0087 08       		.byte	0x8
 1511 0088 05       		.byte	0x5
 1512 0089 C0010000 		.4byte	.LASF11
 1513 008d 02       		.uleb128 0x2
 1514 008e 08       		.byte	0x8
 1515 008f 07       		.byte	0x7
 1516 0090 E0020000 		.4byte	.LASF12
 1517 0094 04       		.uleb128 0x4
 1518 0095 04       		.byte	0x4
 1519 0096 05       		.byte	0x5
 1520 0097 696E7400 		.ascii	"int\000"
 1521 009b 02       		.uleb128 0x2
 1522 009c 04       		.byte	0x4
 1523 009d 07       		.byte	0x7
 1524 009e 73000000 		.4byte	.LASF13
 1525 00a2 05       		.uleb128 0x5
 1526 00a3 74000000 		.4byte	0x74
 1527 00a7 05       		.uleb128 0x5
 1528 00a8 50000000 		.4byte	0x50
 1529 00ac 05       		.uleb128 0x5
 1530 00ad 62000000 		.4byte	0x62
 1531 00b1 06       		.uleb128 0x6
 1532 00b2 01       		.byte	0x1
 1533 00b3 03       		.byte	0x3
 1534 00b4 1801     		.2byte	0x118
 1535 00b6 C7000000 		.4byte	0xc7
 1536 00ba 07       		.uleb128 0x7
 1537 00bb 21050000 		.4byte	.LASF14
 1538 00bf 00       		.sleb128 0
 1539 00c0 08       		.uleb128 0x8
 1540 00c1 53455400 		.ascii	"SET\000"
 1541 00c5 01       		.sleb128 1
 1542 00c6 00       		.byte	0
 1543 00c7 09       		.uleb128 0x9
 1544 00c8 F3050000 		.4byte	.LASF15
 1545 00cc 03       		.byte	0x3
 1546 00cd 1801     		.2byte	0x118
 1547 00cf B1000000 		.4byte	0xb1
 1548 00d3 09       		.uleb128 0x9
 1549 00d4 F0010000 		.4byte	.LASF16
 1550 00d8 03       		.byte	0x3
 1551 00d9 1801     		.2byte	0x118
 1552 00db B1000000 		.4byte	0xb1
 1553 00df 06       		.uleb128 0x6
 1554 00e0 01       		.byte	0x1
 1555 00e1 03       		.byte	0x3
 1556 00e2 1A01     		.2byte	0x11a
ARM GAS  C:\Users\CNous\AppData\Local\Temp\ccLIBeCO.s 			page 54


 1557 00e4 F5000000 		.4byte	0xf5
 1558 00e8 07       		.uleb128 0x7
 1559 00e9 91030000 		.4byte	.LASF17
 1560 00ed 00       		.sleb128 0
 1561 00ee 07       		.uleb128 0x7
 1562 00ef FE050000 		.4byte	.LASF18
 1563 00f3 01       		.sleb128 1
 1564 00f4 00       		.byte	0
 1565 00f5 09       		.uleb128 0x9
 1566 00f6 C5040000 		.4byte	.LASF19
 1567 00fa 03       		.byte	0x3
 1568 00fb 1A01     		.2byte	0x11a
 1569 00fd DF000000 		.4byte	0xdf
 1570 0101 06       		.uleb128 0x6
 1571 0102 01       		.byte	0x1
 1572 0103 03       		.byte	0x3
 1573 0104 1D01     		.2byte	0x11d
 1574 0106 17010000 		.4byte	0x117
 1575 010a 07       		.uleb128 0x7
 1576 010b 42020000 		.4byte	.LASF20
 1577 010f 00       		.sleb128 0
 1578 0110 07       		.uleb128 0x7
 1579 0111 47030000 		.4byte	.LASF21
 1580 0115 01       		.sleb128 1
 1581 0116 00       		.byte	0
 1582 0117 09       		.uleb128 0x9
 1583 0118 07020000 		.4byte	.LASF22
 1584 011c 03       		.byte	0x3
 1585 011d 1D01     		.2byte	0x11d
 1586 011f 01010000 		.4byte	0x101
 1587 0123 0A       		.uleb128 0xa
 1588 0124 24       		.byte	0x24
 1589 0125 03       		.byte	0x3
 1590 0126 A802     		.2byte	0x2a8
 1591 0128 3A020000 		.4byte	0x23a
 1592 012c 0B       		.uleb128 0xb
 1593 012d 43523100 		.ascii	"CR1\000"
 1594 0131 03       		.byte	0x3
 1595 0132 AA02     		.2byte	0x2aa
 1596 0134 A7000000 		.4byte	0xa7
 1597 0138 02       		.byte	0x2
 1598 0139 23       		.byte	0x23
 1599 013a 00       		.uleb128 0
 1600 013b 0C       		.uleb128 0xc
 1601 013c 02040000 		.4byte	.LASF23
 1602 0140 03       		.byte	0x3
 1603 0141 AB02     		.2byte	0x2ab
 1604 0143 50000000 		.4byte	0x50
 1605 0147 02       		.byte	0x2
 1606 0148 23       		.byte	0x23
 1607 0149 02       		.uleb128 0x2
 1608 014a 0B       		.uleb128 0xb
 1609 014b 43523200 		.ascii	"CR2\000"
 1610 014f 03       		.byte	0x3
 1611 0150 AC02     		.2byte	0x2ac
 1612 0152 A7000000 		.4byte	0xa7
 1613 0156 02       		.byte	0x2
ARM GAS  C:\Users\CNous\AppData\Local\Temp\ccLIBeCO.s 			page 55


 1614 0157 23       		.byte	0x23
 1615 0158 04       		.uleb128 0x4
 1616 0159 0C       		.uleb128 0xc
 1617 015a 0C040000 		.4byte	.LASF24
 1618 015e 03       		.byte	0x3
 1619 015f AD02     		.2byte	0x2ad
 1620 0161 50000000 		.4byte	0x50
 1621 0165 02       		.byte	0x2
 1622 0166 23       		.byte	0x23
 1623 0167 06       		.uleb128 0x6
 1624 0168 0C       		.uleb128 0xc
 1625 0169 11000000 		.4byte	.LASF25
 1626 016d 03       		.byte	0x3
 1627 016e AE02     		.2byte	0x2ae
 1628 0170 A7000000 		.4byte	0xa7
 1629 0174 02       		.byte	0x2
 1630 0175 23       		.byte	0x23
 1631 0176 08       		.uleb128 0x8
 1632 0177 0C       		.uleb128 0xc
 1633 0178 16040000 		.4byte	.LASF26
 1634 017c 03       		.byte	0x3
 1635 017d AF02     		.2byte	0x2af
 1636 017f 50000000 		.4byte	0x50
 1637 0183 02       		.byte	0x2
 1638 0184 23       		.byte	0x23
 1639 0185 0A       		.uleb128 0xa
 1640 0186 0C       		.uleb128 0xc
 1641 0187 F9010000 		.4byte	.LASF27
 1642 018b 03       		.byte	0x3
 1643 018c B002     		.2byte	0x2b0
 1644 018e A7000000 		.4byte	0xa7
 1645 0192 02       		.byte	0x2
 1646 0193 23       		.byte	0x23
 1647 0194 0C       		.uleb128 0xc
 1648 0195 0C       		.uleb128 0xc
 1649 0196 20040000 		.4byte	.LASF28
 1650 019a 03       		.byte	0x3
 1651 019b B102     		.2byte	0x2b1
 1652 019d 50000000 		.4byte	0x50
 1653 01a1 02       		.byte	0x2
 1654 01a2 23       		.byte	0x23
 1655 01a3 0E       		.uleb128 0xe
 1656 01a4 0B       		.uleb128 0xb
 1657 01a5 445200   		.ascii	"DR\000"
 1658 01a8 03       		.byte	0x3
 1659 01a9 B202     		.2byte	0x2b2
 1660 01ab A7000000 		.4byte	0xa7
 1661 01af 02       		.byte	0x2
 1662 01b0 23       		.byte	0x23
 1663 01b1 10       		.uleb128 0x10
 1664 01b2 0C       		.uleb128 0xc
 1665 01b3 2A040000 		.4byte	.LASF29
 1666 01b7 03       		.byte	0x3
 1667 01b8 B302     		.2byte	0x2b3
 1668 01ba 50000000 		.4byte	0x50
 1669 01be 02       		.byte	0x2
 1670 01bf 23       		.byte	0x23
ARM GAS  C:\Users\CNous\AppData\Local\Temp\ccLIBeCO.s 			page 56


 1671 01c0 12       		.uleb128 0x12
 1672 01c1 0B       		.uleb128 0xb
 1673 01c2 53523100 		.ascii	"SR1\000"
 1674 01c6 03       		.byte	0x3
 1675 01c7 B402     		.2byte	0x2b4
 1676 01c9 A7000000 		.4byte	0xa7
 1677 01cd 02       		.byte	0x2
 1678 01ce 23       		.byte	0x23
 1679 01cf 14       		.uleb128 0x14
 1680 01d0 0C       		.uleb128 0xc
 1681 01d1 34040000 		.4byte	.LASF30
 1682 01d5 03       		.byte	0x3
 1683 01d6 B502     		.2byte	0x2b5
 1684 01d8 50000000 		.4byte	0x50
 1685 01dc 02       		.byte	0x2
 1686 01dd 23       		.byte	0x23
 1687 01de 16       		.uleb128 0x16
 1688 01df 0B       		.uleb128 0xb
 1689 01e0 53523200 		.ascii	"SR2\000"
 1690 01e4 03       		.byte	0x3
 1691 01e5 B602     		.2byte	0x2b6
 1692 01e7 A7000000 		.4byte	0xa7
 1693 01eb 02       		.byte	0x2
 1694 01ec 23       		.byte	0x23
 1695 01ed 18       		.uleb128 0x18
 1696 01ee 0C       		.uleb128 0xc
 1697 01ef 3E040000 		.4byte	.LASF31
 1698 01f3 03       		.byte	0x3
 1699 01f4 B702     		.2byte	0x2b7
 1700 01f6 50000000 		.4byte	0x50
 1701 01fa 02       		.byte	0x2
 1702 01fb 23       		.byte	0x23
 1703 01fc 1A       		.uleb128 0x1a
 1704 01fd 0B       		.uleb128 0xb
 1705 01fe 43435200 		.ascii	"CCR\000"
 1706 0202 03       		.byte	0x3
 1707 0203 B802     		.2byte	0x2b8
 1708 0205 A7000000 		.4byte	0xa7
 1709 0209 02       		.byte	0x2
 1710 020a 23       		.byte	0x23
 1711 020b 1C       		.uleb128 0x1c
 1712 020c 0C       		.uleb128 0xc
 1713 020d 48040000 		.4byte	.LASF32
 1714 0211 03       		.byte	0x3
 1715 0212 B902     		.2byte	0x2b9
 1716 0214 50000000 		.4byte	0x50
 1717 0218 02       		.byte	0x2
 1718 0219 23       		.byte	0x23
 1719 021a 1E       		.uleb128 0x1e
 1720 021b 0C       		.uleb128 0xc
 1721 021c A6050000 		.4byte	.LASF33
 1722 0220 03       		.byte	0x3
 1723 0221 BA02     		.2byte	0x2ba
 1724 0223 A7000000 		.4byte	0xa7
 1725 0227 02       		.byte	0x2
 1726 0228 23       		.byte	0x23
 1727 0229 20       		.uleb128 0x20
ARM GAS  C:\Users\CNous\AppData\Local\Temp\ccLIBeCO.s 			page 57


 1728 022a 0C       		.uleb128 0xc
 1729 022b 52040000 		.4byte	.LASF34
 1730 022f 03       		.byte	0x3
 1731 0230 BB02     		.2byte	0x2bb
 1732 0232 50000000 		.4byte	0x50
 1733 0236 02       		.byte	0x2
 1734 0237 23       		.byte	0x23
 1735 0238 22       		.uleb128 0x22
 1736 0239 00       		.byte	0
 1737 023a 09       		.uleb128 0x9
 1738 023b 63020000 		.4byte	.LASF35
 1739 023f 03       		.byte	0x3
 1740 0240 BC02     		.2byte	0x2bc
 1741 0242 23010000 		.4byte	0x123
 1742 0246 0D       		.uleb128 0xd
 1743 0247 10       		.byte	0x10
 1744 0248 04       		.byte	0x4
 1745 0249 2A       		.byte	0x2a
 1746 024a 87020000 		.4byte	0x287
 1747 024e 0E       		.uleb128 0xe
 1748 024f C0030000 		.4byte	.LASF36
 1749 0253 04       		.byte	0x4
 1750 0254 2C       		.byte	0x2c
 1751 0255 74000000 		.4byte	0x74
 1752 0259 02       		.byte	0x2
 1753 025a 23       		.byte	0x23
 1754 025b 00       		.uleb128 0
 1755 025c 0E       		.uleb128 0xe
 1756 025d 7C000000 		.4byte	.LASF37
 1757 0261 04       		.byte	0x4
 1758 0262 2D       		.byte	0x2d
 1759 0263 74000000 		.4byte	0x74
 1760 0267 02       		.byte	0x2
 1761 0268 23       		.byte	0x23
 1762 0269 04       		.uleb128 0x4
 1763 026a 0E       		.uleb128 0xe
 1764 026b E4040000 		.4byte	.LASF38
 1765 026f 04       		.byte	0x4
 1766 0270 2E       		.byte	0x2e
 1767 0271 74000000 		.4byte	0x74
 1768 0275 02       		.byte	0x2
 1769 0276 23       		.byte	0x23
 1770 0277 08       		.uleb128 0x8
 1771 0278 0E       		.uleb128 0xe
 1772 0279 FF040000 		.4byte	.LASF39
 1773 027d 04       		.byte	0x4
 1774 027e 2F       		.byte	0x2f
 1775 027f 74000000 		.4byte	0x74
 1776 0283 02       		.byte	0x2
 1777 0284 23       		.byte	0x23
 1778 0285 0C       		.uleb128 0xc
 1779 0286 00       		.byte	0
 1780 0287 03       		.uleb128 0x3
 1781 0288 FC000000 		.4byte	.LASF40
 1782 028c 04       		.byte	0x4
 1783 028d 30       		.byte	0x30
 1784 028e 46020000 		.4byte	0x246
ARM GAS  C:\Users\CNous\AppData\Local\Temp\ccLIBeCO.s 			page 58


 1785 0292 0D       		.uleb128 0xd
 1786 0293 10       		.byte	0x10
 1787 0294 05       		.byte	0x5
 1788 0295 30       		.byte	0x30
 1789 0296 EF020000 		.4byte	0x2ef
 1790 029a 0E       		.uleb128 0xe
 1791 029b 67050000 		.4byte	.LASF41
 1792 029f 05       		.byte	0x5
 1793 02a0 32       		.byte	0x32
 1794 02a1 74000000 		.4byte	0x74
 1795 02a5 02       		.byte	0x2
 1796 02a6 23       		.byte	0x23
 1797 02a7 00       		.uleb128 0
 1798 02a8 0E       		.uleb128 0xe
 1799 02a9 81020000 		.4byte	.LASF42
 1800 02ad 05       		.byte	0x5
 1801 02ae 35       		.byte	0x35
 1802 02af 50000000 		.4byte	0x50
 1803 02b3 02       		.byte	0x2
 1804 02b4 23       		.byte	0x23
 1805 02b5 04       		.uleb128 0x4
 1806 02b6 0E       		.uleb128 0xe
 1807 02b7 AC050000 		.4byte	.LASF43
 1808 02bb 05       		.byte	0x5
 1809 02bc 38       		.byte	0x38
 1810 02bd 50000000 		.4byte	0x50
 1811 02c1 02       		.byte	0x2
 1812 02c2 23       		.byte	0x23
 1813 02c3 06       		.uleb128 0x6
 1814 02c4 0E       		.uleb128 0xe
 1815 02c5 D1030000 		.4byte	.LASF44
 1816 02c9 05       		.byte	0x5
 1817 02ca 3B       		.byte	0x3b
 1818 02cb 50000000 		.4byte	0x50
 1819 02cf 02       		.byte	0x2
 1820 02d0 23       		.byte	0x23
 1821 02d1 08       		.uleb128 0x8
 1822 02d2 0E       		.uleb128 0xe
 1823 02d3 FA030000 		.4byte	.LASF45
 1824 02d7 05       		.byte	0x5
 1825 02d8 3E       		.byte	0x3e
 1826 02d9 50000000 		.4byte	0x50
 1827 02dd 02       		.byte	0x2
 1828 02de 23       		.byte	0x23
 1829 02df 0A       		.uleb128 0xa
 1830 02e0 0E       		.uleb128 0xe
 1831 02e1 8B000000 		.4byte	.LASF46
 1832 02e5 05       		.byte	0x5
 1833 02e6 41       		.byte	0x41
 1834 02e7 50000000 		.4byte	0x50
 1835 02eb 02       		.byte	0x2
 1836 02ec 23       		.byte	0x23
 1837 02ed 0C       		.uleb128 0xc
 1838 02ee 00       		.byte	0
 1839 02ef 03       		.uleb128 0x3
 1840 02f0 0E010000 		.4byte	.LASF47
 1841 02f4 05       		.byte	0x5
ARM GAS  C:\Users\CNous\AppData\Local\Temp\ccLIBeCO.s 			page 59


 1842 02f5 43       		.byte	0x43
 1843 02f6 92020000 		.4byte	0x292
 1844 02fa 0F       		.uleb128 0xf
 1845 02fb 01       		.byte	0x1
 1846 02fc F4040000 		.4byte	.LASF48
 1847 0300 01       		.byte	0x1
 1848 0301 84       		.byte	0x84
 1849 0302 01       		.byte	0x1
 1850 0303 00000000 		.4byte	.LFB110
 1851 0307 70000000 		.4byte	.LFE110
 1852 030b 00000000 		.4byte	.LLST0
 1853 030f 01       		.byte	0x1
 1854 0310 BF030000 		.4byte	0x3bf
 1855 0314 10       		.uleb128 0x10
 1856 0315 C1000000 		.4byte	.LASF50
 1857 0319 01       		.byte	0x1
 1858 031a 84       		.byte	0x84
 1859 031b BF030000 		.4byte	0x3bf
 1860 031f 20000000 		.4byte	.LLST1
 1861 0323 11       		.uleb128 0x11
 1862 0324 32000000 		.4byte	.LVL2
 1863 0328 590C0000 		.4byte	0xc59
 1864 032c 3D030000 		.4byte	0x33d
 1865 0330 12       		.uleb128 0x12
 1866 0331 01       		.byte	0x1
 1867 0332 51       		.byte	0x51
 1868 0333 01       		.byte	0x1
 1869 0334 31       		.byte	0x31
 1870 0335 12       		.uleb128 0x12
 1871 0336 01       		.byte	0x1
 1872 0337 50       		.byte	0x50
 1873 0338 03       		.byte	0x3
 1874 0339 40       		.byte	0x40
 1875 033a 43       		.byte	0x43
 1876 033b 24       		.byte	0x24
 1877 033c 00       		.byte	0
 1878 033d 13       		.uleb128 0x13
 1879 033e 40000000 		.4byte	.LVL3
 1880 0342 01       		.byte	0x1
 1881 0343 590C0000 		.4byte	0xc59
 1882 0347 58030000 		.4byte	0x358
 1883 034b 12       		.uleb128 0x12
 1884 034c 01       		.byte	0x1
 1885 034d 51       		.byte	0x51
 1886 034e 01       		.byte	0x1
 1887 034f 30       		.byte	0x30
 1888 0350 12       		.uleb128 0x12
 1889 0351 01       		.byte	0x1
 1890 0352 50       		.byte	0x50
 1891 0353 03       		.byte	0x3
 1892 0354 40       		.byte	0x40
 1893 0355 43       		.byte	0x43
 1894 0356 24       		.byte	0x24
 1895 0357 00       		.byte	0
 1896 0358 11       		.uleb128 0x11
 1897 0359 4A000000 		.4byte	.LVL5
 1898 035d 590C0000 		.4byte	0xc59
ARM GAS  C:\Users\CNous\AppData\Local\Temp\ccLIBeCO.s 			page 60


 1899 0361 72030000 		.4byte	0x372
 1900 0365 12       		.uleb128 0x12
 1901 0366 01       		.byte	0x1
 1902 0367 51       		.byte	0x51
 1903 0368 01       		.byte	0x1
 1904 0369 31       		.byte	0x31
 1905 036a 12       		.uleb128 0x12
 1906 036b 01       		.byte	0x1
 1907 036c 50       		.byte	0x50
 1908 036d 03       		.byte	0x3
 1909 036e 40       		.byte	0x40
 1910 036f 41       		.byte	0x41
 1911 0370 24       		.byte	0x24
 1912 0371 00       		.byte	0
 1913 0372 13       		.uleb128 0x13
 1914 0373 58000000 		.4byte	.LVL6
 1915 0377 01       		.byte	0x1
 1916 0378 590C0000 		.4byte	0xc59
 1917 037c 8D030000 		.4byte	0x38d
 1918 0380 12       		.uleb128 0x12
 1919 0381 01       		.byte	0x1
 1920 0382 51       		.byte	0x51
 1921 0383 01       		.byte	0x1
 1922 0384 30       		.byte	0x30
 1923 0385 12       		.uleb128 0x12
 1924 0386 01       		.byte	0x1
 1925 0387 50       		.byte	0x50
 1926 0388 03       		.byte	0x3
 1927 0389 40       		.byte	0x40
 1928 038a 41       		.byte	0x41
 1929 038b 24       		.byte	0x24
 1930 038c 00       		.byte	0
 1931 038d 11       		.uleb128 0x11
 1932 038e 62000000 		.4byte	.LVL8
 1933 0392 590C0000 		.4byte	0xc59
 1934 0396 A7030000 		.4byte	0x3a7
 1935 039a 12       		.uleb128 0x12
 1936 039b 01       		.byte	0x1
 1937 039c 51       		.byte	0x51
 1938 039d 01       		.byte	0x1
 1939 039e 31       		.byte	0x31
 1940 039f 12       		.uleb128 0x12
 1941 03a0 01       		.byte	0x1
 1942 03a1 50       		.byte	0x50
 1943 03a2 03       		.byte	0x3
 1944 03a3 40       		.byte	0x40
 1945 03a4 42       		.byte	0x42
 1946 03a5 24       		.byte	0x24
 1947 03a6 00       		.byte	0
 1948 03a7 14       		.uleb128 0x14
 1949 03a8 70000000 		.4byte	.LVL9
 1950 03ac 01       		.byte	0x1
 1951 03ad 590C0000 		.4byte	0xc59
 1952 03b1 12       		.uleb128 0x12
 1953 03b2 01       		.byte	0x1
 1954 03b3 51       		.byte	0x51
 1955 03b4 01       		.byte	0x1
ARM GAS  C:\Users\CNous\AppData\Local\Temp\ccLIBeCO.s 			page 61


 1956 03b5 30       		.byte	0x30
 1957 03b6 12       		.uleb128 0x12
 1958 03b7 01       		.byte	0x1
 1959 03b8 50       		.byte	0x50
 1960 03b9 03       		.byte	0x3
 1961 03ba 40       		.byte	0x40
 1962 03bb 42       		.byte	0x42
 1963 03bc 24       		.byte	0x24
 1964 03bd 00       		.byte	0
 1965 03be 00       		.byte	0
 1966 03bf 15       		.uleb128 0x15
 1967 03c0 04       		.byte	0x4
 1968 03c1 3A020000 		.4byte	0x23a
 1969 03c5 0F       		.uleb128 0xf
 1970 03c6 01       		.byte	0x1
 1971 03c7 C7050000 		.4byte	.LASF49
 1972 03cb 01       		.byte	0x1
 1973 03cc AF       		.byte	0xaf
 1974 03cd 01       		.byte	0x1
 1975 03ce 00000000 		.4byte	.LFB111
 1976 03d2 E8000000 		.4byte	.LFE111
 1977 03d6 73000000 		.4byte	.LLST2
 1978 03da 01       		.byte	0x1
 1979 03db 58040000 		.4byte	0x458
 1980 03df 10       		.uleb128 0x10
 1981 03e0 C1000000 		.4byte	.LASF50
 1982 03e4 01       		.byte	0x1
 1983 03e5 AF       		.byte	0xaf
 1984 03e6 BF030000 		.4byte	0x3bf
 1985 03ea 9F000000 		.4byte	.LLST3
 1986 03ee 10       		.uleb128 0x10
 1987 03ef 44050000 		.4byte	.LASF51
 1988 03f3 01       		.byte	0x1
 1989 03f4 AF       		.byte	0xaf
 1990 03f5 58040000 		.4byte	0x458
 1991 03f9 BD000000 		.4byte	.LLST4
 1992 03fd 16       		.uleb128 0x16
 1993 03fe 55000000 		.4byte	.LASF52
 1994 0402 01       		.byte	0x1
 1995 0403 B1       		.byte	0xb1
 1996 0404 50000000 		.4byte	0x50
 1997 0408 DB000000 		.4byte	.LLST5
 1998 040c 16       		.uleb128 0x16
 1999 040d BB040000 		.4byte	.LASF53
 2000 0411 01       		.byte	0x1
 2001 0412 B1       		.byte	0xb1
 2002 0413 50000000 		.4byte	0x50
 2003 0417 60010000 		.4byte	.LLST6
 2004 041b 16       		.uleb128 0x16
 2005 041c 16000000 		.4byte	.LASF54
 2006 0420 01       		.byte	0x1
 2007 0421 B2       		.byte	0xb2
 2008 0422 50000000 		.4byte	0x50
 2009 0426 AB010000 		.4byte	.LLST7
 2010 042a 16       		.uleb128 0x16
 2011 042b 8B010000 		.4byte	.LASF55
 2012 042f 01       		.byte	0x1
ARM GAS  C:\Users\CNous\AppData\Local\Temp\ccLIBeCO.s 			page 62


 2013 0430 B3       		.byte	0xb3
 2014 0431 74000000 		.4byte	0x74
 2015 0435 43020000 		.4byte	.LLST8
 2016 0439 17       		.uleb128 0x17
 2017 043a C6000000 		.4byte	.LASF56
 2018 043e 01       		.byte	0x1
 2019 043f B4       		.byte	0xb4
 2020 0440 87020000 		.4byte	0x287
 2021 0444 02       		.byte	0x2
 2022 0445 91       		.byte	0x91
 2023 0446 58       		.sleb128 -40
 2024 0447 18       		.uleb128 0x18
 2025 0448 10000000 		.4byte	.LVL13
 2026 044c 730C0000 		.4byte	0xc73
 2027 0450 12       		.uleb128 0x12
 2028 0451 01       		.byte	0x1
 2029 0452 50       		.byte	0x50
 2030 0453 02       		.byte	0x2
 2031 0454 7D       		.byte	0x7d
 2032 0455 00       		.sleb128 0
 2033 0456 00       		.byte	0
 2034 0457 00       		.byte	0
 2035 0458 15       		.uleb128 0x15
 2036 0459 04       		.byte	0x4
 2037 045a EF020000 		.4byte	0x2ef
 2038 045e 19       		.uleb128 0x19
 2039 045f 01       		.byte	0x1
 2040 0460 D5040000 		.4byte	.LASF57
 2041 0464 01       		.byte	0x1
 2042 0465 1C01     		.2byte	0x11c
 2043 0467 01       		.byte	0x1
 2044 0468 00000000 		.4byte	.LFB112
 2045 046c 1C000000 		.4byte	.LFE112
 2046 0470 02       		.byte	0x2
 2047 0471 7D       		.byte	0x7d
 2048 0472 00       		.sleb128 0
 2049 0473 01       		.byte	0x1
 2050 0474 87040000 		.4byte	0x487
 2051 0478 1A       		.uleb128 0x1a
 2052 0479 44050000 		.4byte	.LASF51
 2053 047d 01       		.byte	0x1
 2054 047e 1C01     		.2byte	0x11c
 2055 0480 58040000 		.4byte	0x458
 2056 0484 01       		.byte	0x1
 2057 0485 50       		.byte	0x50
 2058 0486 00       		.byte	0
 2059 0487 19       		.uleb128 0x19
 2060 0488 01       		.byte	0x1
 2061 0489 A3000000 		.4byte	.LASF58
 2062 048d 01       		.byte	0x1
 2063 048e 3401     		.2byte	0x134
 2064 0490 01       		.byte	0x1
 2065 0491 00000000 		.4byte	.LFB113
 2066 0495 1A000000 		.4byte	.LFE113
 2067 0499 02       		.byte	0x2
 2068 049a 7D       		.byte	0x7d
 2069 049b 00       		.sleb128 0
ARM GAS  C:\Users\CNous\AppData\Local\Temp\ccLIBeCO.s 			page 63


 2070 049c 01       		.byte	0x1
 2071 049d C0040000 		.4byte	0x4c0
 2072 04a1 1A       		.uleb128 0x1a
 2073 04a2 C1000000 		.4byte	.LASF50
 2074 04a6 01       		.byte	0x1
 2075 04a7 3401     		.2byte	0x134
 2076 04a9 BF030000 		.4byte	0x3bf
 2077 04ad 01       		.byte	0x1
 2078 04ae 50       		.byte	0x50
 2079 04af 1B       		.uleb128 0x1b
 2080 04b0 8A020000 		.4byte	.LASF59
 2081 04b4 01       		.byte	0x1
 2082 04b5 3401     		.2byte	0x134
 2083 04b7 F5000000 		.4byte	0xf5
 2084 04bb A0020000 		.4byte	.LLST9
 2085 04bf 00       		.byte	0
 2086 04c0 19       		.uleb128 0x19
 2087 04c1 01       		.byte	0x1
 2088 04c2 AE030000 		.4byte	.LASF60
 2089 04c6 01       		.byte	0x1
 2090 04c7 4C01     		.2byte	0x14c
 2091 04c9 01       		.byte	0x1
 2092 04ca 00000000 		.4byte	.LFB114
 2093 04ce 1A000000 		.4byte	.LFE114
 2094 04d2 02       		.byte	0x2
 2095 04d3 7D       		.byte	0x7d
 2096 04d4 00       		.sleb128 0
 2097 04d5 01       		.byte	0x1
 2098 04d6 F9040000 		.4byte	0x4f9
 2099 04da 1A       		.uleb128 0x1a
 2100 04db C1000000 		.4byte	.LASF50
 2101 04df 01       		.byte	0x1
 2102 04e0 4C01     		.2byte	0x14c
 2103 04e2 BF030000 		.4byte	0x3bf
 2104 04e6 01       		.byte	0x1
 2105 04e7 50       		.byte	0x50
 2106 04e8 1B       		.uleb128 0x1b
 2107 04e9 8A020000 		.4byte	.LASF59
 2108 04ed 01       		.byte	0x1
 2109 04ee 4C01     		.2byte	0x14c
 2110 04f0 F5000000 		.4byte	0xf5
 2111 04f4 DA020000 		.4byte	.LLST10
 2112 04f8 00       		.byte	0
 2113 04f9 19       		.uleb128 0x19
 2114 04fa 01       		.byte	0x1
 2115 04fb 36030000 		.4byte	.LASF61
 2116 04ff 01       		.byte	0x1
 2117 0500 6401     		.2byte	0x164
 2118 0502 01       		.byte	0x1
 2119 0503 00000000 		.4byte	.LFB115
 2120 0507 1A000000 		.4byte	.LFE115
 2121 050b 02       		.byte	0x2
 2122 050c 7D       		.byte	0x7d
 2123 050d 00       		.sleb128 0
 2124 050e 01       		.byte	0x1
 2125 050f 32050000 		.4byte	0x532
 2126 0513 1A       		.uleb128 0x1a
ARM GAS  C:\Users\CNous\AppData\Local\Temp\ccLIBeCO.s 			page 64


 2127 0514 C1000000 		.4byte	.LASF50
 2128 0518 01       		.byte	0x1
 2129 0519 6401     		.2byte	0x164
 2130 051b BF030000 		.4byte	0x3bf
 2131 051f 01       		.byte	0x1
 2132 0520 50       		.byte	0x50
 2133 0521 1B       		.uleb128 0x1b
 2134 0522 8A020000 		.4byte	.LASF59
 2135 0526 01       		.byte	0x1
 2136 0527 6401     		.2byte	0x164
 2137 0529 F5000000 		.4byte	0xf5
 2138 052d 14030000 		.4byte	.LLST11
 2139 0531 00       		.byte	0
 2140 0532 19       		.uleb128 0x19
 2141 0533 01       		.byte	0x1
 2142 0534 D0050000 		.4byte	.LASF62
 2143 0538 01       		.byte	0x1
 2144 0539 8001     		.2byte	0x180
 2145 053b 01       		.byte	0x1
 2146 053c 00000000 		.4byte	.LFB116
 2147 0540 12000000 		.4byte	.LFE116
 2148 0544 02       		.byte	0x2
 2149 0545 7D       		.byte	0x7d
 2150 0546 00       		.sleb128 0
 2151 0547 01       		.byte	0x1
 2152 0548 79050000 		.4byte	0x579
 2153 054c 1A       		.uleb128 0x1a
 2154 054d C1000000 		.4byte	.LASF50
 2155 0551 01       		.byte	0x1
 2156 0552 8001     		.2byte	0x180
 2157 0554 BF030000 		.4byte	0x3bf
 2158 0558 01       		.byte	0x1
 2159 0559 50       		.byte	0x50
 2160 055a 1B       		.uleb128 0x1b
 2161 055b D1000000 		.4byte	.LASF63
 2162 055f 01       		.byte	0x1
 2163 0560 8001     		.2byte	0x180
 2164 0562 37000000 		.4byte	0x37
 2165 0566 4E030000 		.4byte	.LLST12
 2166 056a 1A       		.uleb128 0x1a
 2167 056b EC030000 		.4byte	.LASF64
 2168 056f 01       		.byte	0x1
 2169 0570 8001     		.2byte	0x180
 2170 0572 37000000 		.4byte	0x37
 2171 0576 01       		.byte	0x1
 2172 0577 52       		.byte	0x52
 2173 0578 00       		.byte	0
 2174 0579 19       		.uleb128 0x19
 2175 057a 01       		.byte	0x1
 2176 057b AB000000 		.4byte	.LASF65
 2177 057f 01       		.byte	0x1
 2178 0580 9B01     		.2byte	0x19b
 2179 0582 01       		.byte	0x1
 2180 0583 00000000 		.4byte	.LFB117
 2181 0587 1A000000 		.4byte	.LFE117
 2182 058b 02       		.byte	0x2
 2183 058c 7D       		.byte	0x7d
ARM GAS  C:\Users\CNous\AppData\Local\Temp\ccLIBeCO.s 			page 65


 2184 058d 00       		.sleb128 0
 2185 058e 01       		.byte	0x1
 2186 058f B2050000 		.4byte	0x5b2
 2187 0593 1A       		.uleb128 0x1a
 2188 0594 C1000000 		.4byte	.LASF50
 2189 0598 01       		.byte	0x1
 2190 0599 9B01     		.2byte	0x19b
 2191 059b BF030000 		.4byte	0x3bf
 2192 059f 01       		.byte	0x1
 2193 05a0 50       		.byte	0x50
 2194 05a1 1B       		.uleb128 0x1b
 2195 05a2 8A020000 		.4byte	.LASF59
 2196 05a6 01       		.byte	0x1
 2197 05a7 9B01     		.2byte	0x19b
 2198 05a9 F5000000 		.4byte	0xf5
 2199 05ad 6C030000 		.4byte	.LLST13
 2200 05b1 00       		.byte	0
 2201 05b2 19       		.uleb128 0x19
 2202 05b3 01       		.byte	0x1
 2203 05b4 4D020000 		.4byte	.LASF66
 2204 05b8 01       		.byte	0x1
 2205 05b9 B201     		.2byte	0x1b2
 2206 05bb 01       		.byte	0x1
 2207 05bc 00000000 		.4byte	.LFB118
 2208 05c0 14000000 		.4byte	.LFE118
 2209 05c4 02       		.byte	0x2
 2210 05c5 7D       		.byte	0x7d
 2211 05c6 00       		.sleb128 0
 2212 05c7 01       		.byte	0x1
 2213 05c8 FB050000 		.4byte	0x5fb
 2214 05cc 1A       		.uleb128 0x1a
 2215 05cd C1000000 		.4byte	.LASF50
 2216 05d1 01       		.byte	0x1
 2217 05d2 B201     		.2byte	0x1b2
 2218 05d4 BF030000 		.4byte	0x3bf
 2219 05d8 01       		.byte	0x1
 2220 05d9 50       		.byte	0x50
 2221 05da 1B       		.uleb128 0x1b
 2222 05db D1000000 		.4byte	.LASF63
 2223 05df 01       		.byte	0x1
 2224 05e0 B201     		.2byte	0x1b2
 2225 05e2 37000000 		.4byte	0x37
 2226 05e6 A6030000 		.4byte	.LLST14
 2227 05ea 1C       		.uleb128 0x1c
 2228 05eb 55000000 		.4byte	.LASF52
 2229 05ef 01       		.byte	0x1
 2230 05f0 B401     		.2byte	0x1b4
 2231 05f2 50000000 		.4byte	0x50
 2232 05f6 C7030000 		.4byte	.LLST15
 2233 05fa 00       		.byte	0
 2234 05fb 19       		.uleb128 0x19
 2235 05fc 01       		.byte	0x1
 2236 05fd 13020000 		.4byte	.LASF67
 2237 0601 01       		.byte	0x1
 2238 0602 CD01     		.2byte	0x1cd
 2239 0604 01       		.byte	0x1
 2240 0605 00000000 		.4byte	.LFB119
ARM GAS  C:\Users\CNous\AppData\Local\Temp\ccLIBeCO.s 			page 66


 2241 0609 1A000000 		.4byte	.LFE119
 2242 060d 02       		.byte	0x2
 2243 060e 7D       		.byte	0x7d
 2244 060f 00       		.sleb128 0
 2245 0610 01       		.byte	0x1
 2246 0611 34060000 		.4byte	0x634
 2247 0615 1A       		.uleb128 0x1a
 2248 0616 C1000000 		.4byte	.LASF50
 2249 061a 01       		.byte	0x1
 2250 061b CD01     		.2byte	0x1cd
 2251 061d BF030000 		.4byte	0x3bf
 2252 0621 01       		.byte	0x1
 2253 0622 50       		.byte	0x50
 2254 0623 1B       		.uleb128 0x1b
 2255 0624 8A020000 		.4byte	.LASF59
 2256 0628 01       		.byte	0x1
 2257 0629 CD01     		.2byte	0x1cd
 2258 062b F5000000 		.4byte	0xf5
 2259 062f F7030000 		.4byte	.LLST16
 2260 0633 00       		.byte	0
 2261 0634 19       		.uleb128 0x19
 2262 0635 01       		.byte	0x1
 2263 0636 26020000 		.4byte	.LASF68
 2264 063a 01       		.byte	0x1
 2265 063b E501     		.2byte	0x1e5
 2266 063d 01       		.byte	0x1
 2267 063e 00000000 		.4byte	.LFB120
 2268 0642 1A000000 		.4byte	.LFE120
 2269 0646 02       		.byte	0x2
 2270 0647 7D       		.byte	0x7d
 2271 0648 00       		.sleb128 0
 2272 0649 01       		.byte	0x1
 2273 064a 6D060000 		.4byte	0x66d
 2274 064e 1A       		.uleb128 0x1a
 2275 064f C1000000 		.4byte	.LASF50
 2276 0653 01       		.byte	0x1
 2277 0654 E501     		.2byte	0x1e5
 2278 0656 BF030000 		.4byte	0x3bf
 2279 065a 01       		.byte	0x1
 2280 065b 50       		.byte	0x50
 2281 065c 1B       		.uleb128 0x1b
 2282 065d 8A020000 		.4byte	.LASF59
 2283 0661 01       		.byte	0x1
 2284 0662 E501     		.2byte	0x1e5
 2285 0664 F5000000 		.4byte	0xf5
 2286 0668 31040000 		.4byte	.LLST17
 2287 066c 00       		.byte	0
 2288 066d 19       		.uleb128 0x19
 2289 066e 01       		.byte	0x1
 2290 066f 2F000000 		.4byte	.LASF69
 2291 0673 01       		.byte	0x1
 2292 0674 FF01     		.2byte	0x1ff
 2293 0676 01       		.byte	0x1
 2294 0677 00000000 		.4byte	.LFB121
 2295 067b 1A000000 		.4byte	.LFE121
 2296 067f 02       		.byte	0x2
 2297 0680 7D       		.byte	0x7d
ARM GAS  C:\Users\CNous\AppData\Local\Temp\ccLIBeCO.s 			page 67


 2298 0681 00       		.sleb128 0
 2299 0682 01       		.byte	0x1
 2300 0683 A6060000 		.4byte	0x6a6
 2301 0687 1A       		.uleb128 0x1a
 2302 0688 C1000000 		.4byte	.LASF50
 2303 068c 01       		.byte	0x1
 2304 068d FF01     		.2byte	0x1ff
 2305 068f BF030000 		.4byte	0x3bf
 2306 0693 01       		.byte	0x1
 2307 0694 50       		.byte	0x50
 2308 0695 1B       		.uleb128 0x1b
 2309 0696 8A020000 		.4byte	.LASF59
 2310 069a 01       		.byte	0x1
 2311 069b FF01     		.2byte	0x1ff
 2312 069d F5000000 		.4byte	0xf5
 2313 06a1 6B040000 		.4byte	.LLST18
 2314 06a5 00       		.byte	0
 2315 06a6 19       		.uleb128 0x19
 2316 06a7 01       		.byte	0x1
 2317 06a8 53050000 		.4byte	.LASF70
 2318 06ac 01       		.byte	0x1
 2319 06ad 1702     		.2byte	0x217
 2320 06af 01       		.byte	0x1
 2321 06b0 00000000 		.4byte	.LFB122
 2322 06b4 1A000000 		.4byte	.LFE122
 2323 06b8 02       		.byte	0x2
 2324 06b9 7D       		.byte	0x7d
 2325 06ba 00       		.sleb128 0
 2326 06bb 01       		.byte	0x1
 2327 06bc DF060000 		.4byte	0x6df
 2328 06c0 1A       		.uleb128 0x1a
 2329 06c1 C1000000 		.4byte	.LASF50
 2330 06c5 01       		.byte	0x1
 2331 06c6 1702     		.2byte	0x217
 2332 06c8 BF030000 		.4byte	0x3bf
 2333 06cc 01       		.byte	0x1
 2334 06cd 50       		.byte	0x50
 2335 06ce 1B       		.uleb128 0x1b
 2336 06cf 8A020000 		.4byte	.LASF59
 2337 06d3 01       		.byte	0x1
 2338 06d4 1702     		.2byte	0x217
 2339 06d6 F5000000 		.4byte	0xf5
 2340 06da A5040000 		.4byte	.LLST19
 2341 06de 00       		.byte	0
 2342 06df 19       		.uleb128 0x19
 2343 06e0 01       		.byte	0x1
 2344 06e1 B8020000 		.4byte	.LASF71
 2345 06e5 01       		.byte	0x1
 2346 06e6 3102     		.2byte	0x231
 2347 06e8 01       		.byte	0x1
 2348 06e9 00000000 		.4byte	.LFB123
 2349 06ed 1E000000 		.4byte	.LFE123
 2350 06f1 02       		.byte	0x2
 2351 06f2 7D       		.byte	0x7d
 2352 06f3 00       		.sleb128 0
 2353 06f4 01       		.byte	0x1
 2354 06f5 18070000 		.4byte	0x718
ARM GAS  C:\Users\CNous\AppData\Local\Temp\ccLIBeCO.s 			page 68


 2355 06f9 1A       		.uleb128 0x1a
 2356 06fa C1000000 		.4byte	.LASF50
 2357 06fe 01       		.byte	0x1
 2358 06ff 3102     		.2byte	0x231
 2359 0701 BF030000 		.4byte	0x3bf
 2360 0705 01       		.byte	0x1
 2361 0706 50       		.byte	0x50
 2362 0707 1B       		.uleb128 0x1b
 2363 0708 AC050000 		.4byte	.LASF43
 2364 070c 01       		.byte	0x1
 2365 070d 3102     		.2byte	0x231
 2366 070f 50000000 		.4byte	0x50
 2367 0713 DF040000 		.4byte	.LLST20
 2368 0717 00       		.byte	0
 2369 0718 19       		.uleb128 0x19
 2370 0719 01       		.byte	0x1
 2371 071a 5C000000 		.4byte	.LASF72
 2372 071e 01       		.byte	0x1
 2373 071f 5702     		.2byte	0x257
 2374 0721 01       		.byte	0x1
 2375 0722 00000000 		.4byte	.LFB124
 2376 0726 1E000000 		.4byte	.LFE124
 2377 072a 02       		.byte	0x2
 2378 072b 7D       		.byte	0x7d
 2379 072c 00       		.sleb128 0
 2380 072d 01       		.byte	0x1
 2381 072e 51070000 		.4byte	0x751
 2382 0732 1A       		.uleb128 0x1a
 2383 0733 C1000000 		.4byte	.LASF50
 2384 0737 01       		.byte	0x1
 2385 0738 5702     		.2byte	0x257
 2386 073a BF030000 		.4byte	0x3bf
 2387 073e 01       		.byte	0x1
 2388 073f 50       		.byte	0x50
 2389 0740 1B       		.uleb128 0x1b
 2390 0741 27010000 		.4byte	.LASF73
 2391 0745 01       		.byte	0x1
 2392 0746 5702     		.2byte	0x257
 2393 0748 50000000 		.4byte	0x50
 2394 074c 19050000 		.4byte	.LLST21
 2395 0750 00       		.byte	0
 2396 0751 19       		.uleb128 0x19
 2397 0752 01       		.byte	0x1
 2398 0753 40010000 		.4byte	.LASF74
 2399 0757 01       		.byte	0x1
 2400 0758 7302     		.2byte	0x273
 2401 075a 01       		.byte	0x1
 2402 075b 00000000 		.4byte	.LFB125
 2403 075f 1E000000 		.4byte	.LFE125
 2404 0763 02       		.byte	0x2
 2405 0764 7D       		.byte	0x7d
 2406 0765 00       		.sleb128 0
 2407 0766 01       		.byte	0x1
 2408 0767 8A070000 		.4byte	0x78a
 2409 076b 1A       		.uleb128 0x1a
 2410 076c C1000000 		.4byte	.LASF50
 2411 0770 01       		.byte	0x1
ARM GAS  C:\Users\CNous\AppData\Local\Temp\ccLIBeCO.s 			page 69


 2412 0771 7302     		.2byte	0x273
 2413 0773 BF030000 		.4byte	0x3bf
 2414 0777 01       		.byte	0x1
 2415 0778 50       		.byte	0x50
 2416 0779 1B       		.uleb128 0x1b
 2417 077a 72010000 		.4byte	.LASF75
 2418 077e 01       		.byte	0x1
 2419 077f 7302     		.2byte	0x273
 2420 0781 50000000 		.4byte	0x50
 2421 0785 53050000 		.4byte	.LLST22
 2422 0789 00       		.byte	0
 2423 078a 19       		.uleb128 0x19
 2424 078b 01       		.byte	0x1
 2425 078c E1030000 		.4byte	.LASF76
 2426 0790 01       		.byte	0x1
 2427 0791 8B02     		.2byte	0x28b
 2428 0793 01       		.byte	0x1
 2429 0794 00000000 		.4byte	.LFB126
 2430 0798 1A000000 		.4byte	.LFE126
 2431 079c 02       		.byte	0x2
 2432 079d 7D       		.byte	0x7d
 2433 079e 00       		.sleb128 0
 2434 079f 01       		.byte	0x1
 2435 07a0 C3070000 		.4byte	0x7c3
 2436 07a4 1A       		.uleb128 0x1a
 2437 07a5 C1000000 		.4byte	.LASF50
 2438 07a9 01       		.byte	0x1
 2439 07aa 8B02     		.2byte	0x28b
 2440 07ac BF030000 		.4byte	0x3bf
 2441 07b0 01       		.byte	0x1
 2442 07b1 50       		.byte	0x50
 2443 07b2 1B       		.uleb128 0x1b
 2444 07b3 8A020000 		.4byte	.LASF59
 2445 07b7 01       		.byte	0x1
 2446 07b8 8B02     		.2byte	0x28b
 2447 07ba F5000000 		.4byte	0xf5
 2448 07be 8D050000 		.4byte	.LLST23
 2449 07c2 00       		.byte	0
 2450 07c3 19       		.uleb128 0x19
 2451 07c4 01       		.byte	0x1
 2452 07c5 EF000000 		.4byte	.LASF77
 2453 07c9 01       		.byte	0x1
 2454 07ca B102     		.2byte	0x2b1
 2455 07cc 01       		.byte	0x1
 2456 07cd 00000000 		.4byte	.LFB127
 2457 07d1 04000000 		.4byte	.LFE127
 2458 07d5 02       		.byte	0x2
 2459 07d6 7D       		.byte	0x7d
 2460 07d7 00       		.sleb128 0
 2461 07d8 01       		.byte	0x1
 2462 07d9 FA070000 		.4byte	0x7fa
 2463 07dd 1A       		.uleb128 0x1a
 2464 07de C1000000 		.4byte	.LASF50
 2465 07e2 01       		.byte	0x1
 2466 07e3 B102     		.2byte	0x2b1
 2467 07e5 BF030000 		.4byte	0x3bf
 2468 07e9 01       		.byte	0x1
ARM GAS  C:\Users\CNous\AppData\Local\Temp\ccLIBeCO.s 			page 70


 2469 07ea 50       		.byte	0x50
 2470 07eb 1A       		.uleb128 0x1a
 2471 07ec 48020000 		.4byte	.LASF78
 2472 07f0 01       		.byte	0x1
 2473 07f1 B102     		.2byte	0x2b1
 2474 07f3 37000000 		.4byte	0x37
 2475 07f7 01       		.byte	0x1
 2476 07f8 51       		.byte	0x51
 2477 07f9 00       		.byte	0
 2478 07fa 1D       		.uleb128 0x1d
 2479 07fb 01       		.byte	0x1
 2480 07fc 9A020000 		.4byte	.LASF83
 2481 0800 01       		.byte	0x1
 2482 0801 BE02     		.2byte	0x2be
 2483 0803 01       		.byte	0x1
 2484 0804 37000000 		.4byte	0x37
 2485 0808 00000000 		.4byte	.LFB128
 2486 080c 06000000 		.4byte	.LFE128
 2487 0810 02       		.byte	0x2
 2488 0811 7D       		.byte	0x7d
 2489 0812 00       		.sleb128 0
 2490 0813 01       		.byte	0x1
 2491 0814 29080000 		.4byte	0x829
 2492 0818 1B       		.uleb128 0x1b
 2493 0819 C1000000 		.4byte	.LASF50
 2494 081d 01       		.byte	0x1
 2495 081e BE02     		.2byte	0x2be
 2496 0820 BF030000 		.4byte	0x3bf
 2497 0824 C7050000 		.4byte	.LLST24
 2498 0828 00       		.byte	0
 2499 0829 19       		.uleb128 0x19
 2500 082a 01       		.byte	0x1
 2501 082b 86050000 		.4byte	.LASF79
 2502 082f 01       		.byte	0x1
 2503 0830 DD02     		.2byte	0x2dd
 2504 0832 01       		.byte	0x1
 2505 0833 00000000 		.4byte	.LFB129
 2506 0837 1A000000 		.4byte	.LFE129
 2507 083b 02       		.byte	0x2
 2508 083c 7D       		.byte	0x7d
 2509 083d 00       		.sleb128 0
 2510 083e 01       		.byte	0x1
 2511 083f 62080000 		.4byte	0x862
 2512 0843 1A       		.uleb128 0x1a
 2513 0844 C1000000 		.4byte	.LASF50
 2514 0848 01       		.byte	0x1
 2515 0849 DD02     		.2byte	0x2dd
 2516 084b BF030000 		.4byte	0x3bf
 2517 084f 01       		.byte	0x1
 2518 0850 50       		.byte	0x50
 2519 0851 1B       		.uleb128 0x1b
 2520 0852 8A020000 		.4byte	.LASF59
 2521 0856 01       		.byte	0x1
 2522 0857 DD02     		.2byte	0x2dd
 2523 0859 F5000000 		.4byte	0xf5
 2524 085d E8050000 		.4byte	.LLST25
 2525 0861 00       		.byte	0
ARM GAS  C:\Users\CNous\AppData\Local\Temp\ccLIBeCO.s 			page 71


 2526 0862 19       		.uleb128 0x19
 2527 0863 01       		.byte	0x1
 2528 0864 5C040000 		.4byte	.LASF80
 2529 0868 01       		.byte	0x1
 2530 0869 FC02     		.2byte	0x2fc
 2531 086b 01       		.byte	0x1
 2532 086c 00000000 		.4byte	.LFB130
 2533 0870 1E000000 		.4byte	.LFE130
 2534 0874 02       		.byte	0x2
 2535 0875 7D       		.byte	0x7d
 2536 0876 00       		.sleb128 0
 2537 0877 01       		.byte	0x1
 2538 0878 9B080000 		.4byte	0x89b
 2539 087c 1A       		.uleb128 0x1a
 2540 087d C1000000 		.4byte	.LASF50
 2541 0881 01       		.byte	0x1
 2542 0882 FC02     		.2byte	0x2fc
 2543 0884 BF030000 		.4byte	0x3bf
 2544 0888 01       		.byte	0x1
 2545 0889 50       		.byte	0x50
 2546 088a 1B       		.uleb128 0x1b
 2547 088b 96050000 		.4byte	.LASF81
 2548 088f 01       		.byte	0x1
 2549 0890 FC02     		.2byte	0x2fc
 2550 0892 50000000 		.4byte	0x50
 2551 0896 22060000 		.4byte	.LLST26
 2552 089a 00       		.byte	0
 2553 089b 19       		.uleb128 0x19
 2554 089c 01       		.byte	0x1
 2555 089d 61010000 		.4byte	.LASF82
 2556 08a1 01       		.byte	0x1
 2557 08a2 1403     		.2byte	0x314
 2558 08a4 01       		.byte	0x1
 2559 08a5 00000000 		.4byte	.LFB131
 2560 08a9 1A000000 		.4byte	.LFE131
 2561 08ad 02       		.byte	0x2
 2562 08ae 7D       		.byte	0x7d
 2563 08af 00       		.sleb128 0
 2564 08b0 01       		.byte	0x1
 2565 08b1 D4080000 		.4byte	0x8d4
 2566 08b5 1A       		.uleb128 0x1a
 2567 08b6 C1000000 		.4byte	.LASF50
 2568 08ba 01       		.byte	0x1
 2569 08bb 1403     		.2byte	0x314
 2570 08bd BF030000 		.4byte	0x3bf
 2571 08c1 01       		.byte	0x1
 2572 08c2 50       		.byte	0x50
 2573 08c3 1B       		.uleb128 0x1b
 2574 08c4 8A020000 		.4byte	.LASF59
 2575 08c8 01       		.byte	0x1
 2576 08c9 1403     		.2byte	0x314
 2577 08cb F5000000 		.4byte	0xf5
 2578 08cf 5C060000 		.4byte	.LLST27
 2579 08d3 00       		.byte	0
 2580 08d4 1D       		.uleb128 0x1d
 2581 08d5 01       		.byte	0x1
 2582 08d6 CE010000 		.4byte	.LASF84
ARM GAS  C:\Users\CNous\AppData\Local\Temp\ccLIBeCO.s 			page 72


 2583 08da 01       		.byte	0x1
 2584 08db 2A03     		.2byte	0x32a
 2585 08dd 01       		.byte	0x1
 2586 08de 37000000 		.4byte	0x37
 2587 08e2 00000000 		.4byte	.LFB132
 2588 08e6 08000000 		.4byte	.LFE132
 2589 08ea 02       		.byte	0x2
 2590 08eb 7D       		.byte	0x7d
 2591 08ec 00       		.sleb128 0
 2592 08ed 01       		.byte	0x1
 2593 08ee 03090000 		.4byte	0x903
 2594 08f2 1B       		.uleb128 0x1b
 2595 08f3 C1000000 		.4byte	.LASF50
 2596 08f7 01       		.byte	0x1
 2597 08f8 2A03     		.2byte	0x32a
 2598 08fa BF030000 		.4byte	0x3bf
 2599 08fe 96060000 		.4byte	.LLST28
 2600 0902 00       		.byte	0
 2601 0903 19       		.uleb128 0x19
 2602 0904 01       		.byte	0x1
 2603 0905 9E010000 		.4byte	.LASF85
 2604 0909 01       		.byte	0x1
 2605 090a 4B03     		.2byte	0x34b
 2606 090c 01       		.byte	0x1
 2607 090d 00000000 		.4byte	.LFB133
 2608 0911 1A000000 		.4byte	.LFE133
 2609 0915 02       		.byte	0x2
 2610 0916 7D       		.byte	0x7d
 2611 0917 00       		.sleb128 0
 2612 0918 01       		.byte	0x1
 2613 0919 3C090000 		.4byte	0x93c
 2614 091d 1A       		.uleb128 0x1a
 2615 091e C1000000 		.4byte	.LASF50
 2616 0922 01       		.byte	0x1
 2617 0923 4B03     		.2byte	0x34b
 2618 0925 BF030000 		.4byte	0x3bf
 2619 0929 01       		.byte	0x1
 2620 092a 50       		.byte	0x50
 2621 092b 1B       		.uleb128 0x1b
 2622 092c 8A020000 		.4byte	.LASF59
 2623 0930 01       		.byte	0x1
 2624 0931 4B03     		.2byte	0x34b
 2625 0933 F5000000 		.4byte	0xf5
 2626 0937 B7060000 		.4byte	.LLST29
 2627 093b 00       		.byte	0
 2628 093c 19       		.uleb128 0x19
 2629 093d 01       		.byte	0x1
 2630 093e A9010000 		.4byte	.LASF86
 2631 0942 01       		.byte	0x1
 2632 0943 6303     		.2byte	0x363
 2633 0945 01       		.byte	0x1
 2634 0946 00000000 		.4byte	.LFB134
 2635 094a 1A000000 		.4byte	.LFE134
 2636 094e 02       		.byte	0x2
 2637 094f 7D       		.byte	0x7d
 2638 0950 00       		.sleb128 0
 2639 0951 01       		.byte	0x1
ARM GAS  C:\Users\CNous\AppData\Local\Temp\ccLIBeCO.s 			page 73


 2640 0952 75090000 		.4byte	0x975
 2641 0956 1A       		.uleb128 0x1a
 2642 0957 C1000000 		.4byte	.LASF50
 2643 095b 01       		.byte	0x1
 2644 095c 6303     		.2byte	0x363
 2645 095e BF030000 		.4byte	0x3bf
 2646 0962 01       		.byte	0x1
 2647 0963 50       		.byte	0x50
 2648 0964 1B       		.uleb128 0x1b
 2649 0965 8A020000 		.4byte	.LASF59
 2650 0969 01       		.byte	0x1
 2651 096a 6303     		.2byte	0x363
 2652 096c F5000000 		.4byte	0xf5
 2653 0970 F1060000 		.4byte	.LLST30
 2654 0974 00       		.byte	0
 2655 0975 1E       		.uleb128 0x1e
 2656 0976 01       		.byte	0x1
 2657 0977 00000000 		.4byte	.LASF87
 2658 097b 01       		.byte	0x1
 2659 097c ED03     		.2byte	0x3ed
 2660 097e 01       		.byte	0x1
 2661 097f 50000000 		.4byte	0x50
 2662 0983 00000000 		.4byte	.LFB135
 2663 0987 18000000 		.4byte	.LFE135
 2664 098b 2B070000 		.4byte	.LLST31
 2665 098f 01       		.byte	0x1
 2666 0990 C5090000 		.4byte	0x9c5
 2667 0994 1B       		.uleb128 0x1b
 2668 0995 C1000000 		.4byte	.LASF50
 2669 0999 01       		.byte	0x1
 2670 099a ED03     		.2byte	0x3ed
 2671 099c BF030000 		.4byte	0x3bf
 2672 09a0 4B070000 		.4byte	.LLST32
 2673 09a4 1B       		.uleb128 0x1b
 2674 09a5 A1030000 		.4byte	.LASF88
 2675 09a9 01       		.byte	0x1
 2676 09aa ED03     		.2byte	0x3ed
 2677 09ac 37000000 		.4byte	0x37
 2678 09b0 6A070000 		.4byte	.LLST33
 2679 09b4 1F       		.uleb128 0x1f
 2680 09b5 746D7000 		.ascii	"tmp\000"
 2681 09b9 01       		.byte	0x1
 2682 09ba EF03     		.2byte	0x3ef
 2683 09bc A2000000 		.4byte	0xa2
 2684 09c0 8B070000 		.4byte	.LLST34
 2685 09c4 00       		.byte	0
 2686 09c5 19       		.uleb128 0x19
 2687 09c6 01       		.byte	0x1
 2688 09c7 0D030000 		.4byte	.LASF89
 2689 09cb 01       		.byte	0x1
 2690 09cc 0804     		.2byte	0x408
 2691 09ce 01       		.byte	0x1
 2692 09cf 00000000 		.4byte	.LFB136
 2693 09d3 14000000 		.4byte	.LFE136
 2694 09d7 02       		.byte	0x2
 2695 09d8 7D       		.byte	0x7d
 2696 09d9 00       		.sleb128 0
ARM GAS  C:\Users\CNous\AppData\Local\Temp\ccLIBeCO.s 			page 74


 2697 09da 01       		.byte	0x1
 2698 09db 0C0A0000 		.4byte	0xa0c
 2699 09df 1A       		.uleb128 0x1a
 2700 09e0 C1000000 		.4byte	.LASF50
 2701 09e4 01       		.byte	0x1
 2702 09e5 0804     		.2byte	0x408
 2703 09e7 BF030000 		.4byte	0x3bf
 2704 09eb 01       		.byte	0x1
 2705 09ec 50       		.byte	0x50
 2706 09ed 1B       		.uleb128 0x1b
 2707 09ee 44000000 		.4byte	.LASF90
 2708 09f2 01       		.byte	0x1
 2709 09f3 0804     		.2byte	0x408
 2710 09f5 50000000 		.4byte	0x50
 2711 09f9 AA070000 		.4byte	.LLST35
 2712 09fd 1A       		.uleb128 0x1a
 2713 09fe 8A020000 		.4byte	.LASF59
 2714 0a02 01       		.byte	0x1
 2715 0a03 0804     		.2byte	0x408
 2716 0a05 F5000000 		.4byte	0xf5
 2717 0a09 01       		.byte	0x1
 2718 0a0a 52       		.byte	0x52
 2719 0a0b 00       		.byte	0
 2720 0a0c 1D       		.uleb128 0x1d
 2721 0a0d 01       		.byte	0x1
 2722 0a0e E4050000 		.4byte	.LASF91
 2723 0a12 01       		.byte	0x1
 2724 0a13 4304     		.2byte	0x443
 2725 0a15 01       		.byte	0x1
 2726 0a16 17010000 		.4byte	0x117
 2727 0a1a 00000000 		.4byte	.LFB137
 2728 0a1e 18000000 		.4byte	.LFE137
 2729 0a22 02       		.byte	0x2
 2730 0a23 7D       		.byte	0x7d
 2731 0a24 00       		.sleb128 0
 2732 0a25 01       		.byte	0x1
 2733 0a26 8B0A0000 		.4byte	0xa8b
 2734 0a2a 1B       		.uleb128 0x1b
 2735 0a2b C1000000 		.4byte	.LASF50
 2736 0a2f 01       		.byte	0x1
 2737 0a30 4304     		.2byte	0x443
 2738 0a32 BF030000 		.4byte	0x3bf
 2739 0a36 E4070000 		.4byte	.LLST36
 2740 0a3a 1B       		.uleb128 0x1b
 2741 0a3b 1A030000 		.4byte	.LASF92
 2742 0a3f 01       		.byte	0x1
 2743 0a40 4304     		.2byte	0x443
 2744 0a42 74000000 		.4byte	0x74
 2745 0a46 05080000 		.4byte	.LLST37
 2746 0a4a 1C       		.uleb128 0x1c
 2747 0a4b 4B000000 		.4byte	.LASF93
 2748 0a4f 01       		.byte	0x1
 2749 0a50 4504     		.2byte	0x445
 2750 0a52 74000000 		.4byte	0x74
 2751 0a56 26080000 		.4byte	.LLST38
 2752 0a5a 1C       		.uleb128 0x1c
 2753 0a5b 55010000 		.4byte	.LASF94
ARM GAS  C:\Users\CNous\AppData\Local\Temp\ccLIBeCO.s 			page 75


 2754 0a5f 01       		.byte	0x1
 2755 0a60 4604     		.2byte	0x446
 2756 0a62 74000000 		.4byte	0x74
 2757 0a66 5A080000 		.4byte	.LLST39
 2758 0a6a 1C       		.uleb128 0x1c
 2759 0a6b 5B010000 		.4byte	.LASF95
 2760 0a6f 01       		.byte	0x1
 2761 0a70 4604     		.2byte	0x446
 2762 0a72 74000000 		.4byte	0x74
 2763 0a76 7F080000 		.4byte	.LLST40
 2764 0a7a 1C       		.uleb128 0x1c
 2765 0a7b 62030000 		.4byte	.LASF96
 2766 0a7f 01       		.byte	0x1
 2767 0a80 4704     		.2byte	0x447
 2768 0a82 17010000 		.4byte	0x117
 2769 0a86 A6080000 		.4byte	.LLST41
 2770 0a8a 00       		.byte	0
 2771 0a8b 1D       		.uleb128 0x1d
 2772 0a8c 01       		.byte	0x1
 2773 0a8d 77030000 		.4byte	.LASF97
 2774 0a91 01       		.byte	0x1
 2775 0a92 7304     		.2byte	0x473
 2776 0a94 01       		.byte	0x1
 2777 0a95 74000000 		.4byte	0x74
 2778 0a99 00000000 		.4byte	.LFB138
 2779 0a9d 10000000 		.4byte	.LFE138
 2780 0aa1 02       		.byte	0x2
 2781 0aa2 7D       		.byte	0x7d
 2782 0aa3 00       		.sleb128 0
 2783 0aa4 01       		.byte	0x1
 2784 0aa5 EA0A0000 		.4byte	0xaea
 2785 0aa9 1B       		.uleb128 0x1b
 2786 0aaa C1000000 		.4byte	.LASF50
 2787 0aae 01       		.byte	0x1
 2788 0aaf 7304     		.2byte	0x473
 2789 0ab1 BF030000 		.4byte	0x3bf
 2790 0ab5 E0080000 		.4byte	.LLST42
 2791 0ab9 1C       		.uleb128 0x1c
 2792 0aba 4B000000 		.4byte	.LASF93
 2793 0abe 01       		.byte	0x1
 2794 0abf 7504     		.2byte	0x475
 2795 0ac1 74000000 		.4byte	0x74
 2796 0ac5 01090000 		.4byte	.LLST43
 2797 0ac9 1C       		.uleb128 0x1c
 2798 0aca 55010000 		.4byte	.LASF94
 2799 0ace 01       		.byte	0x1
 2800 0acf 7604     		.2byte	0x476
 2801 0ad1 74000000 		.4byte	0x74
 2802 0ad5 55090000 		.4byte	.LLST44
 2803 0ad9 1C       		.uleb128 0x1c
 2804 0ada 5B010000 		.4byte	.LASF95
 2805 0ade 01       		.byte	0x1
 2806 0adf 7604     		.2byte	0x476
 2807 0ae1 74000000 		.4byte	0x74
 2808 0ae5 8B090000 		.4byte	.LLST45
 2809 0ae9 00       		.byte	0
 2810 0aea 1E       		.uleb128 0x1e
ARM GAS  C:\Users\CNous\AppData\Local\Temp\ccLIBeCO.s 			page 76


 2811 0aeb 01       		.byte	0x1
 2812 0aec 1D000000 		.4byte	.LASF98
 2813 0af0 01       		.byte	0x1
 2814 0af1 AA04     		.2byte	0x4aa
 2815 0af3 01       		.byte	0x1
 2816 0af4 C7000000 		.4byte	0xc7
 2817 0af8 00000000 		.4byte	.LFB139
 2818 0afc 36000000 		.4byte	.LFE139
 2819 0b00 B2090000 		.4byte	.LLST46
 2820 0b04 01       		.byte	0x1
 2821 0b05 5A0B0000 		.4byte	0xb5a
 2822 0b09 1B       		.uleb128 0x1b
 2823 0b0a C1000000 		.4byte	.LASF50
 2824 0b0e 01       		.byte	0x1
 2825 0b0f AA04     		.2byte	0x4aa
 2826 0b11 BF030000 		.4byte	0x3bf
 2827 0b15 D2090000 		.4byte	.LLST47
 2828 0b19 1B       		.uleb128 0x1b
 2829 0b1a 1E010000 		.4byte	.LASF99
 2830 0b1e 01       		.byte	0x1
 2831 0b1f AA04     		.2byte	0x4aa
 2832 0b21 74000000 		.4byte	0x74
 2833 0b25 F1090000 		.4byte	.LLST48
 2834 0b29 1C       		.uleb128 0x1c
 2835 0b2a 77020000 		.4byte	.LASF100
 2836 0b2e 01       		.byte	0x1
 2837 0b2f AC04     		.2byte	0x4ac
 2838 0b31 C7000000 		.4byte	0xc7
 2839 0b35 0F0A0000 		.4byte	.LLST49
 2840 0b39 1C       		.uleb128 0x1c
 2841 0b3a 93020000 		.4byte	.LASF101
 2842 0b3e 01       		.byte	0x1
 2843 0b3f AD04     		.2byte	0x4ad
 2844 0b41 A2000000 		.4byte	0xa2
 2845 0b45 410A0000 		.4byte	.LLST50
 2846 0b49 1C       		.uleb128 0x1c
 2847 0b4a 39020000 		.4byte	.LASF102
 2848 0b4e 01       		.byte	0x1
 2849 0b4f AD04     		.2byte	0x4ad
 2850 0b51 A2000000 		.4byte	0xa2
 2851 0b55 550A0000 		.4byte	.LLST51
 2852 0b59 00       		.byte	0
 2853 0b5a 19       		.uleb128 0x19
 2854 0b5b 01       		.byte	0x1
 2855 0b5c 69030000 		.4byte	.LASF103
 2856 0b60 01       		.byte	0x1
 2857 0b61 F704     		.2byte	0x4f7
 2858 0b63 01       		.byte	0x1
 2859 0b64 00000000 		.4byte	.LFB140
 2860 0b68 08000000 		.4byte	.LFE140
 2861 0b6c 02       		.byte	0x2
 2862 0b6d 7D       		.byte	0x7d
 2863 0b6e 00       		.sleb128 0
 2864 0b6f 01       		.byte	0x1
 2865 0b70 A30B0000 		.4byte	0xba3
 2866 0b74 1A       		.uleb128 0x1a
 2867 0b75 C1000000 		.4byte	.LASF50
ARM GAS  C:\Users\CNous\AppData\Local\Temp\ccLIBeCO.s 			page 77


 2868 0b79 01       		.byte	0x1
 2869 0b7a F704     		.2byte	0x4f7
 2870 0b7c BF030000 		.4byte	0x3bf
 2871 0b80 01       		.byte	0x1
 2872 0b81 50       		.byte	0x50
 2873 0b82 1B       		.uleb128 0x1b
 2874 0b83 1E010000 		.4byte	.LASF99
 2875 0b87 01       		.byte	0x1
 2876 0b88 F704     		.2byte	0x4f7
 2877 0b8a 74000000 		.4byte	0x74
 2878 0b8e 800A0000 		.4byte	.LLST52
 2879 0b92 1C       		.uleb128 0x1c
 2880 0b93 6F020000 		.4byte	.LASF104
 2881 0b97 01       		.byte	0x1
 2882 0b98 F904     		.2byte	0x4f9
 2883 0b9a 74000000 		.4byte	0x74
 2884 0b9e A10A0000 		.4byte	.LLST53
 2885 0ba2 00       		.byte	0
 2886 0ba3 1D       		.uleb128 0x1d
 2887 0ba4 01       		.byte	0x1
 2888 0ba5 76050000 		.4byte	.LASF105
 2889 0ba9 01       		.byte	0x1
 2890 0baa 1905     		.2byte	0x519
 2891 0bac 01       		.byte	0x1
 2892 0bad D3000000 		.4byte	0xd3
 2893 0bb1 00000000 		.4byte	.LFB141
 2894 0bb5 1E000000 		.4byte	.LFE141
 2895 0bb9 02       		.byte	0x2
 2896 0bba 7D       		.byte	0x7d
 2897 0bbb 00       		.sleb128 0
 2898 0bbc 01       		.byte	0x1
 2899 0bbd 020C0000 		.4byte	0xc02
 2900 0bc1 1B       		.uleb128 0x1b
 2901 0bc2 C1000000 		.4byte	.LASF50
 2902 0bc6 01       		.byte	0x1
 2903 0bc7 1905     		.2byte	0x519
 2904 0bc9 BF030000 		.4byte	0x3bf
 2905 0bcd D00A0000 		.4byte	.LLST54
 2906 0bd1 1B       		.uleb128 0x1b
 2907 0bd2 44000000 		.4byte	.LASF90
 2908 0bd6 01       		.byte	0x1
 2909 0bd7 1905     		.2byte	0x519
 2910 0bd9 74000000 		.4byte	0x74
 2911 0bdd F10A0000 		.4byte	.LLST55
 2912 0be1 1C       		.uleb128 0x1c
 2913 0be2 77020000 		.4byte	.LASF100
 2914 0be6 01       		.byte	0x1
 2915 0be7 1B05     		.2byte	0x51b
 2916 0be9 D3000000 		.4byte	0xd3
 2917 0bed 2B0B0000 		.4byte	.LLST56
 2918 0bf1 1C       		.uleb128 0x1c
 2919 0bf2 91010000 		.4byte	.LASF106
 2920 0bf6 01       		.byte	0x1
 2921 0bf7 1C05     		.2byte	0x51c
 2922 0bf9 74000000 		.4byte	0x74
 2923 0bfd 4A0B0000 		.4byte	.LLST57
 2924 0c01 00       		.byte	0
ARM GAS  C:\Users\CNous\AppData\Local\Temp\ccLIBeCO.s 			page 78


 2925 0c02 19       		.uleb128 0x19
 2926 0c03 01       		.byte	0x1
 2927 0c04 D9000000 		.4byte	.LASF107
 2928 0c08 01       		.byte	0x1
 2929 0c09 5505     		.2byte	0x555
 2930 0c0b 01       		.byte	0x1
 2931 0c0c 00000000 		.4byte	.LFB142
 2932 0c10 08000000 		.4byte	.LFE142
 2933 0c14 02       		.byte	0x2
 2934 0c15 7D       		.byte	0x7d
 2935 0c16 00       		.sleb128 0
 2936 0c17 01       		.byte	0x1
 2937 0c18 4B0C0000 		.4byte	0xc4b
 2938 0c1c 1A       		.uleb128 0x1a
 2939 0c1d C1000000 		.4byte	.LASF50
 2940 0c21 01       		.byte	0x1
 2941 0c22 5505     		.2byte	0x555
 2942 0c24 BF030000 		.4byte	0x3bf
 2943 0c28 01       		.byte	0x1
 2944 0c29 50       		.byte	0x50
 2945 0c2a 1B       		.uleb128 0x1b
 2946 0c2b 44000000 		.4byte	.LASF90
 2947 0c2f 01       		.byte	0x1
 2948 0c30 5505     		.2byte	0x555
 2949 0c32 74000000 		.4byte	0x74
 2950 0c36 A90B0000 		.4byte	.LLST58
 2951 0c3a 1C       		.uleb128 0x1c
 2952 0c3b 6F020000 		.4byte	.LASF104
 2953 0c3f 01       		.byte	0x1
 2954 0c40 5705     		.2byte	0x557
 2955 0c42 74000000 		.4byte	0x74
 2956 0c46 CA0B0000 		.4byte	.LLST59
 2957 0c4a 00       		.byte	0
 2958 0c4b 20       		.uleb128 0x20
 2959 0c4c BA050000 		.4byte	.LASF113
 2960 0c50 06       		.byte	0x6
 2961 0c51 1A05     		.2byte	0x51a
 2962 0c53 AC000000 		.4byte	0xac
 2963 0c57 01       		.byte	0x1
 2964 0c58 01       		.byte	0x1
 2965 0c59 21       		.uleb128 0x21
 2966 0c5a 01       		.byte	0x1
 2967 0c5b D9010000 		.4byte	.LASF108
 2968 0c5f 04       		.byte	0x4
 2969 0c60 E001     		.2byte	0x1e0
 2970 0c62 01       		.byte	0x1
 2971 0c63 01       		.byte	0x1
 2972 0c64 730C0000 		.4byte	0xc73
 2973 0c68 22       		.uleb128 0x22
 2974 0c69 74000000 		.4byte	0x74
 2975 0c6d 22       		.uleb128 0x22
 2976 0c6e F5000000 		.4byte	0xf5
 2977 0c72 00       		.byte	0
 2978 0c73 21       		.uleb128 0x21
 2979 0c74 01       		.byte	0x1
 2980 0c75 0F050000 		.4byte	.LASF109
 2981 0c79 04       		.byte	0x4
ARM GAS  C:\Users\CNous\AppData\Local\Temp\ccLIBeCO.s 			page 79


 2982 0c7a CF01     		.2byte	0x1cf
 2983 0c7c 01       		.byte	0x1
 2984 0c7d 01       		.byte	0x1
 2985 0c7e 880C0000 		.4byte	0xc88
 2986 0c82 22       		.uleb128 0x22
 2987 0c83 880C0000 		.4byte	0xc88
 2988 0c87 00       		.byte	0
 2989 0c88 15       		.uleb128 0x15
 2990 0c89 04       		.byte	0x4
 2991 0c8a 87020000 		.4byte	0x287
 2992 0c8e 00       		.byte	0
 2993              		.section	.debug_abbrev,"",%progbits
 2994              	.Ldebug_abbrev0:
 2995 0000 01       		.uleb128 0x1
 2996 0001 11       		.uleb128 0x11
 2997 0002 01       		.byte	0x1
 2998 0003 25       		.uleb128 0x25
 2999 0004 0E       		.uleb128 0xe
 3000 0005 13       		.uleb128 0x13
 3001 0006 0B       		.uleb128 0xb
 3002 0007 03       		.uleb128 0x3
 3003 0008 0E       		.uleb128 0xe
 3004 0009 1B       		.uleb128 0x1b
 3005 000a 0E       		.uleb128 0xe
 3006 000b 55       		.uleb128 0x55
 3007 000c 06       		.uleb128 0x6
 3008 000d 11       		.uleb128 0x11
 3009 000e 01       		.uleb128 0x1
 3010 000f 52       		.uleb128 0x52
 3011 0010 01       		.uleb128 0x1
 3012 0011 10       		.uleb128 0x10
 3013 0012 06       		.uleb128 0x6
 3014 0013 00       		.byte	0
 3015 0014 00       		.byte	0
 3016 0015 02       		.uleb128 0x2
 3017 0016 24       		.uleb128 0x24
 3018 0017 00       		.byte	0
 3019 0018 0B       		.uleb128 0xb
 3020 0019 0B       		.uleb128 0xb
 3021 001a 3E       		.uleb128 0x3e
 3022 001b 0B       		.uleb128 0xb
 3023 001c 03       		.uleb128 0x3
 3024 001d 0E       		.uleb128 0xe
 3025 001e 00       		.byte	0
 3026 001f 00       		.byte	0
 3027 0020 03       		.uleb128 0x3
 3028 0021 16       		.uleb128 0x16
 3029 0022 00       		.byte	0
 3030 0023 03       		.uleb128 0x3
 3031 0024 0E       		.uleb128 0xe
 3032 0025 3A       		.uleb128 0x3a
 3033 0026 0B       		.uleb128 0xb
 3034 0027 3B       		.uleb128 0x3b
 3035 0028 0B       		.uleb128 0xb
 3036 0029 49       		.uleb128 0x49
 3037 002a 13       		.uleb128 0x13
 3038 002b 00       		.byte	0
ARM GAS  C:\Users\CNous\AppData\Local\Temp\ccLIBeCO.s 			page 80


 3039 002c 00       		.byte	0
 3040 002d 04       		.uleb128 0x4
 3041 002e 24       		.uleb128 0x24
 3042 002f 00       		.byte	0
 3043 0030 0B       		.uleb128 0xb
 3044 0031 0B       		.uleb128 0xb
 3045 0032 3E       		.uleb128 0x3e
 3046 0033 0B       		.uleb128 0xb
 3047 0034 03       		.uleb128 0x3
 3048 0035 08       		.uleb128 0x8
 3049 0036 00       		.byte	0
 3050 0037 00       		.byte	0
 3051 0038 05       		.uleb128 0x5
 3052 0039 35       		.uleb128 0x35
 3053 003a 00       		.byte	0
 3054 003b 49       		.uleb128 0x49
 3055 003c 13       		.uleb128 0x13
 3056 003d 00       		.byte	0
 3057 003e 00       		.byte	0
 3058 003f 06       		.uleb128 0x6
 3059 0040 04       		.uleb128 0x4
 3060 0041 01       		.byte	0x1
 3061 0042 0B       		.uleb128 0xb
 3062 0043 0B       		.uleb128 0xb
 3063 0044 3A       		.uleb128 0x3a
 3064 0045 0B       		.uleb128 0xb
 3065 0046 3B       		.uleb128 0x3b
 3066 0047 05       		.uleb128 0x5
 3067 0048 01       		.uleb128 0x1
 3068 0049 13       		.uleb128 0x13
 3069 004a 00       		.byte	0
 3070 004b 00       		.byte	0
 3071 004c 07       		.uleb128 0x7
 3072 004d 28       		.uleb128 0x28
 3073 004e 00       		.byte	0
 3074 004f 03       		.uleb128 0x3
 3075 0050 0E       		.uleb128 0xe
 3076 0051 1C       		.uleb128 0x1c
 3077 0052 0D       		.uleb128 0xd
 3078 0053 00       		.byte	0
 3079 0054 00       		.byte	0
 3080 0055 08       		.uleb128 0x8
 3081 0056 28       		.uleb128 0x28
 3082 0057 00       		.byte	0
 3083 0058 03       		.uleb128 0x3
 3084 0059 08       		.uleb128 0x8
 3085 005a 1C       		.uleb128 0x1c
 3086 005b 0D       		.uleb128 0xd
 3087 005c 00       		.byte	0
 3088 005d 00       		.byte	0
 3089 005e 09       		.uleb128 0x9
 3090 005f 16       		.uleb128 0x16
 3091 0060 00       		.byte	0
 3092 0061 03       		.uleb128 0x3
 3093 0062 0E       		.uleb128 0xe
 3094 0063 3A       		.uleb128 0x3a
 3095 0064 0B       		.uleb128 0xb
ARM GAS  C:\Users\CNous\AppData\Local\Temp\ccLIBeCO.s 			page 81


 3096 0065 3B       		.uleb128 0x3b
 3097 0066 05       		.uleb128 0x5
 3098 0067 49       		.uleb128 0x49
 3099 0068 13       		.uleb128 0x13
 3100 0069 00       		.byte	0
 3101 006a 00       		.byte	0
 3102 006b 0A       		.uleb128 0xa
 3103 006c 13       		.uleb128 0x13
 3104 006d 01       		.byte	0x1
 3105 006e 0B       		.uleb128 0xb
 3106 006f 0B       		.uleb128 0xb
 3107 0070 3A       		.uleb128 0x3a
 3108 0071 0B       		.uleb128 0xb
 3109 0072 3B       		.uleb128 0x3b
 3110 0073 05       		.uleb128 0x5
 3111 0074 01       		.uleb128 0x1
 3112 0075 13       		.uleb128 0x13
 3113 0076 00       		.byte	0
 3114 0077 00       		.byte	0
 3115 0078 0B       		.uleb128 0xb
 3116 0079 0D       		.uleb128 0xd
 3117 007a 00       		.byte	0
 3118 007b 03       		.uleb128 0x3
 3119 007c 08       		.uleb128 0x8
 3120 007d 3A       		.uleb128 0x3a
 3121 007e 0B       		.uleb128 0xb
 3122 007f 3B       		.uleb128 0x3b
 3123 0080 05       		.uleb128 0x5
 3124 0081 49       		.uleb128 0x49
 3125 0082 13       		.uleb128 0x13
 3126 0083 38       		.uleb128 0x38
 3127 0084 0A       		.uleb128 0xa
 3128 0085 00       		.byte	0
 3129 0086 00       		.byte	0
 3130 0087 0C       		.uleb128 0xc
 3131 0088 0D       		.uleb128 0xd
 3132 0089 00       		.byte	0
 3133 008a 03       		.uleb128 0x3
 3134 008b 0E       		.uleb128 0xe
 3135 008c 3A       		.uleb128 0x3a
 3136 008d 0B       		.uleb128 0xb
 3137 008e 3B       		.uleb128 0x3b
 3138 008f 05       		.uleb128 0x5
 3139 0090 49       		.uleb128 0x49
 3140 0091 13       		.uleb128 0x13
 3141 0092 38       		.uleb128 0x38
 3142 0093 0A       		.uleb128 0xa
 3143 0094 00       		.byte	0
 3144 0095 00       		.byte	0
 3145 0096 0D       		.uleb128 0xd
 3146 0097 13       		.uleb128 0x13
 3147 0098 01       		.byte	0x1
 3148 0099 0B       		.uleb128 0xb
 3149 009a 0B       		.uleb128 0xb
 3150 009b 3A       		.uleb128 0x3a
 3151 009c 0B       		.uleb128 0xb
 3152 009d 3B       		.uleb128 0x3b
ARM GAS  C:\Users\CNous\AppData\Local\Temp\ccLIBeCO.s 			page 82


 3153 009e 0B       		.uleb128 0xb
 3154 009f 01       		.uleb128 0x1
 3155 00a0 13       		.uleb128 0x13
 3156 00a1 00       		.byte	0
 3157 00a2 00       		.byte	0
 3158 00a3 0E       		.uleb128 0xe
 3159 00a4 0D       		.uleb128 0xd
 3160 00a5 00       		.byte	0
 3161 00a6 03       		.uleb128 0x3
 3162 00a7 0E       		.uleb128 0xe
 3163 00a8 3A       		.uleb128 0x3a
 3164 00a9 0B       		.uleb128 0xb
 3165 00aa 3B       		.uleb128 0x3b
 3166 00ab 0B       		.uleb128 0xb
 3167 00ac 49       		.uleb128 0x49
 3168 00ad 13       		.uleb128 0x13
 3169 00ae 38       		.uleb128 0x38
 3170 00af 0A       		.uleb128 0xa
 3171 00b0 00       		.byte	0
 3172 00b1 00       		.byte	0
 3173 00b2 0F       		.uleb128 0xf
 3174 00b3 2E       		.uleb128 0x2e
 3175 00b4 01       		.byte	0x1
 3176 00b5 3F       		.uleb128 0x3f
 3177 00b6 0C       		.uleb128 0xc
 3178 00b7 03       		.uleb128 0x3
 3179 00b8 0E       		.uleb128 0xe
 3180 00b9 3A       		.uleb128 0x3a
 3181 00ba 0B       		.uleb128 0xb
 3182 00bb 3B       		.uleb128 0x3b
 3183 00bc 0B       		.uleb128 0xb
 3184 00bd 27       		.uleb128 0x27
 3185 00be 0C       		.uleb128 0xc
 3186 00bf 11       		.uleb128 0x11
 3187 00c0 01       		.uleb128 0x1
 3188 00c1 12       		.uleb128 0x12
 3189 00c2 01       		.uleb128 0x1
 3190 00c3 40       		.uleb128 0x40
 3191 00c4 06       		.uleb128 0x6
 3192 00c5 9742     		.uleb128 0x2117
 3193 00c7 0C       		.uleb128 0xc
 3194 00c8 01       		.uleb128 0x1
 3195 00c9 13       		.uleb128 0x13
 3196 00ca 00       		.byte	0
 3197 00cb 00       		.byte	0
 3198 00cc 10       		.uleb128 0x10
 3199 00cd 05       		.uleb128 0x5
 3200 00ce 00       		.byte	0
 3201 00cf 03       		.uleb128 0x3
 3202 00d0 0E       		.uleb128 0xe
 3203 00d1 3A       		.uleb128 0x3a
 3204 00d2 0B       		.uleb128 0xb
 3205 00d3 3B       		.uleb128 0x3b
 3206 00d4 0B       		.uleb128 0xb
 3207 00d5 49       		.uleb128 0x49
 3208 00d6 13       		.uleb128 0x13
 3209 00d7 02       		.uleb128 0x2
ARM GAS  C:\Users\CNous\AppData\Local\Temp\ccLIBeCO.s 			page 83


 3210 00d8 06       		.uleb128 0x6
 3211 00d9 00       		.byte	0
 3212 00da 00       		.byte	0
 3213 00db 11       		.uleb128 0x11
 3214 00dc 898201   		.uleb128 0x4109
 3215 00df 01       		.byte	0x1
 3216 00e0 11       		.uleb128 0x11
 3217 00e1 01       		.uleb128 0x1
 3218 00e2 31       		.uleb128 0x31
 3219 00e3 13       		.uleb128 0x13
 3220 00e4 01       		.uleb128 0x1
 3221 00e5 13       		.uleb128 0x13
 3222 00e6 00       		.byte	0
 3223 00e7 00       		.byte	0
 3224 00e8 12       		.uleb128 0x12
 3225 00e9 8A8201   		.uleb128 0x410a
 3226 00ec 00       		.byte	0
 3227 00ed 02       		.uleb128 0x2
 3228 00ee 0A       		.uleb128 0xa
 3229 00ef 9142     		.uleb128 0x2111
 3230 00f1 0A       		.uleb128 0xa
 3231 00f2 00       		.byte	0
 3232 00f3 00       		.byte	0
 3233 00f4 13       		.uleb128 0x13
 3234 00f5 898201   		.uleb128 0x4109
 3235 00f8 01       		.byte	0x1
 3236 00f9 11       		.uleb128 0x11
 3237 00fa 01       		.uleb128 0x1
 3238 00fb 9542     		.uleb128 0x2115
 3239 00fd 0C       		.uleb128 0xc
 3240 00fe 31       		.uleb128 0x31
 3241 00ff 13       		.uleb128 0x13
 3242 0100 01       		.uleb128 0x1
 3243 0101 13       		.uleb128 0x13
 3244 0102 00       		.byte	0
 3245 0103 00       		.byte	0
 3246 0104 14       		.uleb128 0x14
 3247 0105 898201   		.uleb128 0x4109
 3248 0108 01       		.byte	0x1
 3249 0109 11       		.uleb128 0x11
 3250 010a 01       		.uleb128 0x1
 3251 010b 9542     		.uleb128 0x2115
 3252 010d 0C       		.uleb128 0xc
 3253 010e 31       		.uleb128 0x31
 3254 010f 13       		.uleb128 0x13
 3255 0110 00       		.byte	0
 3256 0111 00       		.byte	0
 3257 0112 15       		.uleb128 0x15
 3258 0113 0F       		.uleb128 0xf
 3259 0114 00       		.byte	0
 3260 0115 0B       		.uleb128 0xb
 3261 0116 0B       		.uleb128 0xb
 3262 0117 49       		.uleb128 0x49
 3263 0118 13       		.uleb128 0x13
 3264 0119 00       		.byte	0
 3265 011a 00       		.byte	0
 3266 011b 16       		.uleb128 0x16
ARM GAS  C:\Users\CNous\AppData\Local\Temp\ccLIBeCO.s 			page 84


 3267 011c 34       		.uleb128 0x34
 3268 011d 00       		.byte	0
 3269 011e 03       		.uleb128 0x3
 3270 011f 0E       		.uleb128 0xe
 3271 0120 3A       		.uleb128 0x3a
 3272 0121 0B       		.uleb128 0xb
 3273 0122 3B       		.uleb128 0x3b
 3274 0123 0B       		.uleb128 0xb
 3275 0124 49       		.uleb128 0x49
 3276 0125 13       		.uleb128 0x13
 3277 0126 02       		.uleb128 0x2
 3278 0127 06       		.uleb128 0x6
 3279 0128 00       		.byte	0
 3280 0129 00       		.byte	0
 3281 012a 17       		.uleb128 0x17
 3282 012b 34       		.uleb128 0x34
 3283 012c 00       		.byte	0
 3284 012d 03       		.uleb128 0x3
 3285 012e 0E       		.uleb128 0xe
 3286 012f 3A       		.uleb128 0x3a
 3287 0130 0B       		.uleb128 0xb
 3288 0131 3B       		.uleb128 0x3b
 3289 0132 0B       		.uleb128 0xb
 3290 0133 49       		.uleb128 0x49
 3291 0134 13       		.uleb128 0x13
 3292 0135 02       		.uleb128 0x2
 3293 0136 0A       		.uleb128 0xa
 3294 0137 00       		.byte	0
 3295 0138 00       		.byte	0
 3296 0139 18       		.uleb128 0x18
 3297 013a 898201   		.uleb128 0x4109
 3298 013d 01       		.byte	0x1
 3299 013e 11       		.uleb128 0x11
 3300 013f 01       		.uleb128 0x1
 3301 0140 31       		.uleb128 0x31
 3302 0141 13       		.uleb128 0x13
 3303 0142 00       		.byte	0
 3304 0143 00       		.byte	0
 3305 0144 19       		.uleb128 0x19
 3306 0145 2E       		.uleb128 0x2e
 3307 0146 01       		.byte	0x1
 3308 0147 3F       		.uleb128 0x3f
 3309 0148 0C       		.uleb128 0xc
 3310 0149 03       		.uleb128 0x3
 3311 014a 0E       		.uleb128 0xe
 3312 014b 3A       		.uleb128 0x3a
 3313 014c 0B       		.uleb128 0xb
 3314 014d 3B       		.uleb128 0x3b
 3315 014e 05       		.uleb128 0x5
 3316 014f 27       		.uleb128 0x27
 3317 0150 0C       		.uleb128 0xc
 3318 0151 11       		.uleb128 0x11
 3319 0152 01       		.uleb128 0x1
 3320 0153 12       		.uleb128 0x12
 3321 0154 01       		.uleb128 0x1
 3322 0155 40       		.uleb128 0x40
 3323 0156 0A       		.uleb128 0xa
ARM GAS  C:\Users\CNous\AppData\Local\Temp\ccLIBeCO.s 			page 85


 3324 0157 9742     		.uleb128 0x2117
 3325 0159 0C       		.uleb128 0xc
 3326 015a 01       		.uleb128 0x1
 3327 015b 13       		.uleb128 0x13
 3328 015c 00       		.byte	0
 3329 015d 00       		.byte	0
 3330 015e 1A       		.uleb128 0x1a
 3331 015f 05       		.uleb128 0x5
 3332 0160 00       		.byte	0
 3333 0161 03       		.uleb128 0x3
 3334 0162 0E       		.uleb128 0xe
 3335 0163 3A       		.uleb128 0x3a
 3336 0164 0B       		.uleb128 0xb
 3337 0165 3B       		.uleb128 0x3b
 3338 0166 05       		.uleb128 0x5
 3339 0167 49       		.uleb128 0x49
 3340 0168 13       		.uleb128 0x13
 3341 0169 02       		.uleb128 0x2
 3342 016a 0A       		.uleb128 0xa
 3343 016b 00       		.byte	0
 3344 016c 00       		.byte	0
 3345 016d 1B       		.uleb128 0x1b
 3346 016e 05       		.uleb128 0x5
 3347 016f 00       		.byte	0
 3348 0170 03       		.uleb128 0x3
 3349 0171 0E       		.uleb128 0xe
 3350 0172 3A       		.uleb128 0x3a
 3351 0173 0B       		.uleb128 0xb
 3352 0174 3B       		.uleb128 0x3b
 3353 0175 05       		.uleb128 0x5
 3354 0176 49       		.uleb128 0x49
 3355 0177 13       		.uleb128 0x13
 3356 0178 02       		.uleb128 0x2
 3357 0179 06       		.uleb128 0x6
 3358 017a 00       		.byte	0
 3359 017b 00       		.byte	0
 3360 017c 1C       		.uleb128 0x1c
 3361 017d 34       		.uleb128 0x34
 3362 017e 00       		.byte	0
 3363 017f 03       		.uleb128 0x3
 3364 0180 0E       		.uleb128 0xe
 3365 0181 3A       		.uleb128 0x3a
 3366 0182 0B       		.uleb128 0xb
 3367 0183 3B       		.uleb128 0x3b
 3368 0184 05       		.uleb128 0x5
 3369 0185 49       		.uleb128 0x49
 3370 0186 13       		.uleb128 0x13
 3371 0187 02       		.uleb128 0x2
 3372 0188 06       		.uleb128 0x6
 3373 0189 00       		.byte	0
 3374 018a 00       		.byte	0
 3375 018b 1D       		.uleb128 0x1d
 3376 018c 2E       		.uleb128 0x2e
 3377 018d 01       		.byte	0x1
 3378 018e 3F       		.uleb128 0x3f
 3379 018f 0C       		.uleb128 0xc
 3380 0190 03       		.uleb128 0x3
ARM GAS  C:\Users\CNous\AppData\Local\Temp\ccLIBeCO.s 			page 86


 3381 0191 0E       		.uleb128 0xe
 3382 0192 3A       		.uleb128 0x3a
 3383 0193 0B       		.uleb128 0xb
 3384 0194 3B       		.uleb128 0x3b
 3385 0195 05       		.uleb128 0x5
 3386 0196 27       		.uleb128 0x27
 3387 0197 0C       		.uleb128 0xc
 3388 0198 49       		.uleb128 0x49
 3389 0199 13       		.uleb128 0x13
 3390 019a 11       		.uleb128 0x11
 3391 019b 01       		.uleb128 0x1
 3392 019c 12       		.uleb128 0x12
 3393 019d 01       		.uleb128 0x1
 3394 019e 40       		.uleb128 0x40
 3395 019f 0A       		.uleb128 0xa
 3396 01a0 9742     		.uleb128 0x2117
 3397 01a2 0C       		.uleb128 0xc
 3398 01a3 01       		.uleb128 0x1
 3399 01a4 13       		.uleb128 0x13
 3400 01a5 00       		.byte	0
 3401 01a6 00       		.byte	0
 3402 01a7 1E       		.uleb128 0x1e
 3403 01a8 2E       		.uleb128 0x2e
 3404 01a9 01       		.byte	0x1
 3405 01aa 3F       		.uleb128 0x3f
 3406 01ab 0C       		.uleb128 0xc
 3407 01ac 03       		.uleb128 0x3
 3408 01ad 0E       		.uleb128 0xe
 3409 01ae 3A       		.uleb128 0x3a
 3410 01af 0B       		.uleb128 0xb
 3411 01b0 3B       		.uleb128 0x3b
 3412 01b1 05       		.uleb128 0x5
 3413 01b2 27       		.uleb128 0x27
 3414 01b3 0C       		.uleb128 0xc
 3415 01b4 49       		.uleb128 0x49
 3416 01b5 13       		.uleb128 0x13
 3417 01b6 11       		.uleb128 0x11
 3418 01b7 01       		.uleb128 0x1
 3419 01b8 12       		.uleb128 0x12
 3420 01b9 01       		.uleb128 0x1
 3421 01ba 40       		.uleb128 0x40
 3422 01bb 06       		.uleb128 0x6
 3423 01bc 9742     		.uleb128 0x2117
 3424 01be 0C       		.uleb128 0xc
 3425 01bf 01       		.uleb128 0x1
 3426 01c0 13       		.uleb128 0x13
 3427 01c1 00       		.byte	0
 3428 01c2 00       		.byte	0
 3429 01c3 1F       		.uleb128 0x1f
 3430 01c4 34       		.uleb128 0x34
 3431 01c5 00       		.byte	0
 3432 01c6 03       		.uleb128 0x3
 3433 01c7 08       		.uleb128 0x8
 3434 01c8 3A       		.uleb128 0x3a
 3435 01c9 0B       		.uleb128 0xb
 3436 01ca 3B       		.uleb128 0x3b
 3437 01cb 05       		.uleb128 0x5
ARM GAS  C:\Users\CNous\AppData\Local\Temp\ccLIBeCO.s 			page 87


 3438 01cc 49       		.uleb128 0x49
 3439 01cd 13       		.uleb128 0x13
 3440 01ce 02       		.uleb128 0x2
 3441 01cf 06       		.uleb128 0x6
 3442 01d0 00       		.byte	0
 3443 01d1 00       		.byte	0
 3444 01d2 20       		.uleb128 0x20
 3445 01d3 34       		.uleb128 0x34
 3446 01d4 00       		.byte	0
 3447 01d5 03       		.uleb128 0x3
 3448 01d6 0E       		.uleb128 0xe
 3449 01d7 3A       		.uleb128 0x3a
 3450 01d8 0B       		.uleb128 0xb
 3451 01d9 3B       		.uleb128 0x3b
 3452 01da 05       		.uleb128 0x5
 3453 01db 49       		.uleb128 0x49
 3454 01dc 13       		.uleb128 0x13
 3455 01dd 3F       		.uleb128 0x3f
 3456 01de 0C       		.uleb128 0xc
 3457 01df 3C       		.uleb128 0x3c
 3458 01e0 0C       		.uleb128 0xc
 3459 01e1 00       		.byte	0
 3460 01e2 00       		.byte	0
 3461 01e3 21       		.uleb128 0x21
 3462 01e4 2E       		.uleb128 0x2e
 3463 01e5 01       		.byte	0x1
 3464 01e6 3F       		.uleb128 0x3f
 3465 01e7 0C       		.uleb128 0xc
 3466 01e8 03       		.uleb128 0x3
 3467 01e9 0E       		.uleb128 0xe
 3468 01ea 3A       		.uleb128 0x3a
 3469 01eb 0B       		.uleb128 0xb
 3470 01ec 3B       		.uleb128 0x3b
 3471 01ed 05       		.uleb128 0x5
 3472 01ee 27       		.uleb128 0x27
 3473 01ef 0C       		.uleb128 0xc
 3474 01f0 3C       		.uleb128 0x3c
 3475 01f1 0C       		.uleb128 0xc
 3476 01f2 01       		.uleb128 0x1
 3477 01f3 13       		.uleb128 0x13
 3478 01f4 00       		.byte	0
 3479 01f5 00       		.byte	0
 3480 01f6 22       		.uleb128 0x22
 3481 01f7 05       		.uleb128 0x5
 3482 01f8 00       		.byte	0
 3483 01f9 49       		.uleb128 0x49
 3484 01fa 13       		.uleb128 0x13
 3485 01fb 00       		.byte	0
 3486 01fc 00       		.byte	0
 3487 01fd 00       		.byte	0
 3488              		.section	.debug_loc,"",%progbits
 3489              	.Ldebug_loc0:
 3490              	.LLST0:
 3491 0000 00000000 		.4byte	.LFB110
 3492 0004 02000000 		.4byte	.LCFI0
 3493 0008 0200     		.2byte	0x2
 3494 000a 7D       		.byte	0x7d
ARM GAS  C:\Users\CNous\AppData\Local\Temp\ccLIBeCO.s 			page 88


 3495 000b 00       		.sleb128 0
 3496 000c 02000000 		.4byte	.LCFI0
 3497 0010 70000000 		.4byte	.LFE110
 3498 0014 0200     		.2byte	0x2
 3499 0016 7D       		.byte	0x7d
 3500 0017 08       		.sleb128 8
 3501 0018 00000000 		.4byte	0
 3502 001c 00000000 		.4byte	0
 3503              	.LLST1:
 3504 0020 00000000 		.4byte	.LVL0
 3505 0024 2E000000 		.4byte	.LVL1
 3506 0028 0100     		.2byte	0x1
 3507 002a 50       		.byte	0x50
 3508 002b 2E000000 		.4byte	.LVL1
 3509 002f 40000000 		.4byte	.LVL3
 3510 0033 0400     		.2byte	0x4
 3511 0035 F3       		.byte	0xf3
 3512 0036 01       		.uleb128 0x1
 3513 0037 50       		.byte	0x50
 3514 0038 9F       		.byte	0x9f
 3515 0039 40000000 		.4byte	.LVL3
 3516 003d 46000000 		.4byte	.LVL4
 3517 0041 0100     		.2byte	0x1
 3518 0043 50       		.byte	0x50
 3519 0044 46000000 		.4byte	.LVL4
 3520 0048 58000000 		.4byte	.LVL6
 3521 004c 0400     		.2byte	0x4
 3522 004e F3       		.byte	0xf3
 3523 004f 01       		.uleb128 0x1
 3524 0050 50       		.byte	0x50
 3525 0051 9F       		.byte	0x9f
 3526 0052 58000000 		.4byte	.LVL6
 3527 0056 5E000000 		.4byte	.LVL7
 3528 005a 0100     		.2byte	0x1
 3529 005c 50       		.byte	0x50
 3530 005d 5E000000 		.4byte	.LVL7
 3531 0061 70000000 		.4byte	.LFE110
 3532 0065 0400     		.2byte	0x4
 3533 0067 F3       		.byte	0xf3
 3534 0068 01       		.uleb128 0x1
 3535 0069 50       		.byte	0x50
 3536 006a 9F       		.byte	0x9f
 3537 006b 00000000 		.4byte	0
 3538 006f 00000000 		.4byte	0
 3539              	.LLST2:
 3540 0073 00000000 		.4byte	.LFB111
 3541 0077 02000000 		.4byte	.LCFI1
 3542 007b 0200     		.2byte	0x2
 3543 007d 7D       		.byte	0x7d
 3544 007e 00       		.sleb128 0
 3545 007f 02000000 		.4byte	.LCFI1
 3546 0083 06000000 		.4byte	.LCFI2
 3547 0087 0200     		.2byte	0x2
 3548 0089 7D       		.byte	0x7d
 3549 008a 14       		.sleb128 20
 3550 008b 06000000 		.4byte	.LCFI2
 3551 008f E8000000 		.4byte	.LFE111
ARM GAS  C:\Users\CNous\AppData\Local\Temp\ccLIBeCO.s 			page 89


 3552 0093 0200     		.2byte	0x2
 3553 0095 7D       		.byte	0x7d
 3554 0096 28       		.sleb128 40
 3555 0097 00000000 		.4byte	0
 3556 009b 00000000 		.4byte	0
 3557              	.LLST3:
 3558 009f 00000000 		.4byte	.LVL10
 3559 00a3 08000000 		.4byte	.LVL11
 3560 00a7 0100     		.2byte	0x1
 3561 00a9 50       		.byte	0x50
 3562 00aa 08000000 		.4byte	.LVL11
 3563 00ae E8000000 		.4byte	.LFE111
 3564 00b2 0100     		.2byte	0x1
 3565 00b4 54       		.byte	0x54
 3566 00b5 00000000 		.4byte	0
 3567 00b9 00000000 		.4byte	0
 3568              	.LLST4:
 3569 00bd 00000000 		.4byte	.LVL10
 3570 00c1 0F000000 		.4byte	.LVL13-1
 3571 00c5 0100     		.2byte	0x1
 3572 00c7 51       		.byte	0x51
 3573 00c8 0F000000 		.4byte	.LVL13-1
 3574 00cc E8000000 		.4byte	.LFE111
 3575 00d0 0100     		.2byte	0x1
 3576 00d2 55       		.byte	0x55
 3577 00d3 00000000 		.4byte	0
 3578 00d7 00000000 		.4byte	0
 3579              	.LLST5:
 3580 00db 00000000 		.4byte	.LVL10
 3581 00df 0A000000 		.4byte	.LVL12
 3582 00e3 0200     		.2byte	0x2
 3583 00e5 30       		.byte	0x30
 3584 00e6 9F       		.byte	0x9f
 3585 00e7 0A000000 		.4byte	.LVL12
 3586 00eb 32000000 		.4byte	.LVL16
 3587 00ef 0100     		.2byte	0x1
 3588 00f1 56       		.byte	0x56
 3589 00f2 32000000 		.4byte	.LVL16
 3590 00f6 40000000 		.4byte	.LVL17
 3591 00fa 0100     		.2byte	0x1
 3592 00fc 53       		.byte	0x53
 3593 00fd 4A000000 		.4byte	.LVL18
 3594 0101 54000000 		.4byte	.LVL19
 3595 0105 0200     		.2byte	0x2
 3596 0107 30       		.byte	0x30
 3597 0108 9F       		.byte	0x9f
 3598 0109 54000000 		.4byte	.LVL19
 3599 010d 6E000000 		.4byte	.LVL21
 3600 0111 0100     		.2byte	0x1
 3601 0113 51       		.byte	0x51
 3602 0114 78000000 		.4byte	.LVL22
 3603 0118 7C000000 		.4byte	.LVL23
 3604 011c 0100     		.2byte	0x1
 3605 011e 53       		.byte	0x53
 3606 011f 84000000 		.4byte	.LVL24
 3607 0123 88000000 		.4byte	.LVL25
 3608 0127 0100     		.2byte	0x1
ARM GAS  C:\Users\CNous\AppData\Local\Temp\ccLIBeCO.s 			page 90


 3609 0129 53       		.byte	0x53
 3610 012a 8C000000 		.4byte	.LVL26
 3611 012e 96000000 		.4byte	.LVL27
 3612 0132 0100     		.2byte	0x1
 3613 0134 53       		.byte	0x53
 3614 0135 96000000 		.4byte	.LVL27
 3615 0139 D8000000 		.4byte	.LVL34
 3616 013d 0200     		.2byte	0x2
 3617 013f 30       		.byte	0x30
 3618 0140 9F       		.byte	0x9f
 3619 0141 D8000000 		.4byte	.LVL34
 3620 0145 DC000000 		.4byte	.LVL35
 3621 0149 0100     		.2byte	0x1
 3622 014b 51       		.byte	0x51
 3623 014c DC000000 		.4byte	.LVL35
 3624 0150 E8000000 		.4byte	.LFE111
 3625 0154 0200     		.2byte	0x2
 3626 0156 30       		.byte	0x30
 3627 0157 9F       		.byte	0x9f
 3628 0158 00000000 		.4byte	0
 3629 015c 00000000 		.4byte	0
 3630              	.LLST6:
 3631 0160 00000000 		.4byte	.LVL10
 3632 0164 2E000000 		.4byte	.LVL15
 3633 0168 0200     		.2byte	0x2
 3634 016a 30       		.byte	0x30
 3635 016b 9F       		.byte	0x9f
 3636 016c 2E000000 		.4byte	.LVL15
 3637 0170 62000000 		.4byte	.LVL20
 3638 0174 0100     		.2byte	0x1
 3639 0176 57       		.byte	0x57
 3640 0177 62000000 		.4byte	.LVL20
 3641 017b 96000000 		.4byte	.LVL27
 3642 017f 0100     		.2byte	0x1
 3643 0181 5C       		.byte	0x5c
 3644 0182 96000000 		.4byte	.LVL27
 3645 0186 CC000000 		.4byte	.LVL33
 3646 018a 0100     		.2byte	0x1
 3647 018c 57       		.byte	0x57
 3648 018d CC000000 		.4byte	.LVL33
 3649 0191 DC000000 		.4byte	.LVL35
 3650 0195 0100     		.2byte	0x1
 3651 0197 5C       		.byte	0x5c
 3652 0198 DC000000 		.4byte	.LVL35
 3653 019c E8000000 		.4byte	.LFE111
 3654 01a0 0100     		.2byte	0x1
 3655 01a2 57       		.byte	0x57
 3656 01a3 00000000 		.4byte	0
 3657 01a7 00000000 		.4byte	0
 3658              	.LLST7:
 3659 01ab 00000000 		.4byte	.LVL10
 3660 01af 54000000 		.4byte	.LVL19
 3661 01b3 0200     		.2byte	0x2
 3662 01b5 34       		.byte	0x34
 3663 01b6 9F       		.byte	0x9f
 3664 01b7 54000000 		.4byte	.LVL19
 3665 01bb 62000000 		.4byte	.LVL20
ARM GAS  C:\Users\CNous\AppData\Local\Temp\ccLIBeCO.s 			page 91


 3666 01bf 0100     		.2byte	0x1
 3667 01c1 51       		.byte	0x51
 3668 01c2 96000000 		.4byte	.LVL27
 3669 01c6 A0000000 		.4byte	.LVL28
 3670 01ca 0200     		.2byte	0x2
 3671 01cc 34       		.byte	0x34
 3672 01cd 9F       		.byte	0x9f
 3673 01ce A0000000 		.4byte	.LVL28
 3674 01d2 A4000000 		.4byte	.LVL29
 3675 01d6 0E00     		.2byte	0xe
 3676 01d8 71       		.byte	0x71
 3677 01d9 00       		.sleb128 0
 3678 01da F7       		.byte	0xf7
 3679 01db 29       		.uleb128 0x29
 3680 01dc 72       		.byte	0x72
 3681 01dd 00       		.sleb128 0
 3682 01de 49       		.byte	0x49
 3683 01df 1E       		.byte	0x1e
 3684 01e0 F7       		.byte	0xf7
 3685 01e1 29       		.uleb128 0x29
 3686 01e2 1B       		.byte	0x1b
 3687 01e3 F7       		.byte	0xf7
 3688 01e4 00       		.uleb128 0
 3689 01e5 9F       		.byte	0x9f
 3690 01e6 A4000000 		.4byte	.LVL29
 3691 01ea AC000000 		.4byte	.LVL30
 3692 01ee 0F00     		.2byte	0xf
 3693 01f0 71       		.byte	0x71
 3694 01f1 00       		.sleb128 0
 3695 01f2 F7       		.byte	0xf7
 3696 01f3 29       		.uleb128 0x29
 3697 01f4 75       		.byte	0x75
 3698 01f5 00       		.sleb128 0
 3699 01f6 06       		.byte	0x6
 3700 01f7 49       		.byte	0x49
 3701 01f8 1E       		.byte	0x1e
 3702 01f9 F7       		.byte	0xf7
 3703 01fa 29       		.uleb128 0x29
 3704 01fb 1B       		.byte	0x1b
 3705 01fc F7       		.byte	0xf7
 3706 01fd 00       		.uleb128 0
 3707 01fe 9F       		.byte	0x9f
 3708 01ff AC000000 		.4byte	.LVL30
 3709 0203 B2000000 		.4byte	.LVL31
 3710 0207 1000     		.2byte	0x10
 3711 0209 91       		.byte	0x91
 3712 020a 60       		.sleb128 -32
 3713 020b 06       		.byte	0x6
 3714 020c F7       		.byte	0xf7
 3715 020d 29       		.uleb128 0x29
 3716 020e 75       		.byte	0x75
 3717 020f 00       		.sleb128 0
 3718 0210 06       		.byte	0x6
 3719 0211 49       		.byte	0x49
 3720 0212 1E       		.byte	0x1e
 3721 0213 F7       		.byte	0xf7
 3722 0214 29       		.uleb128 0x29
ARM GAS  C:\Users\CNous\AppData\Local\Temp\ccLIBeCO.s 			page 92


 3723 0215 1B       		.byte	0x1b
 3724 0216 F7       		.byte	0xf7
 3725 0217 00       		.uleb128 0
 3726 0218 9F       		.byte	0x9f
 3727 0219 B2000000 		.4byte	.LVL31
 3728 021d D8000000 		.4byte	.LVL34
 3729 0221 0100     		.2byte	0x1
 3730 0223 51       		.byte	0x51
 3731 0224 DC000000 		.4byte	.LVL35
 3732 0228 E6000000 		.4byte	.LVL36
 3733 022c 0200     		.2byte	0x2
 3734 022e 34       		.byte	0x34
 3735 022f 9F       		.byte	0x9f
 3736 0230 E6000000 		.4byte	.LVL36
 3737 0234 E8000000 		.4byte	.LFE111
 3738 0238 0100     		.2byte	0x1
 3739 023a 52       		.byte	0x52
 3740 023b 00000000 		.4byte	0
 3741 023f 00000000 		.4byte	0
 3742              	.LLST8:
 3743 0243 00000000 		.4byte	.LVL10
 3744 0247 2A000000 		.4byte	.LVL14
 3745 024b 0600     		.2byte	0x6
 3746 024d 0C       		.byte	0xc
 3747 024e 00127A00 		.4byte	0x7a1200
 3748 0252 9F       		.byte	0x9f
 3749 0253 2A000000 		.4byte	.LVL14
 3750 0257 54000000 		.4byte	.LVL19
 3751 025b 0100     		.2byte	0x1
 3752 025d 51       		.byte	0x51
 3753 025e 54000000 		.4byte	.LVL19
 3754 0262 96000000 		.4byte	.LVL27
 3755 0266 0200     		.2byte	0x2
 3756 0268 91       		.byte	0x91
 3757 0269 60       		.sleb128 -32
 3758 026a 96000000 		.4byte	.LVL27
 3759 026e AC000000 		.4byte	.LVL30
 3760 0272 0100     		.2byte	0x1
 3761 0274 51       		.byte	0x51
 3762 0275 AC000000 		.4byte	.LVL30
 3763 0279 DC000000 		.4byte	.LVL35
 3764 027d 0200     		.2byte	0x2
 3765 027f 91       		.byte	0x91
 3766 0280 60       		.sleb128 -32
 3767 0281 DC000000 		.4byte	.LVL35
 3768 0285 E6000000 		.4byte	.LVL36
 3769 0289 0100     		.2byte	0x1
 3770 028b 51       		.byte	0x51
 3771 028c E6000000 		.4byte	.LVL36
 3772 0290 E8000000 		.4byte	.LFE111
 3773 0294 0200     		.2byte	0x2
 3774 0296 91       		.byte	0x91
 3775 0297 60       		.sleb128 -32
 3776 0298 00000000 		.4byte	0
 3777 029c 00000000 		.4byte	0
 3778              	.LLST9:
 3779 02a0 00000000 		.4byte	.LVL38
ARM GAS  C:\Users\CNous\AppData\Local\Temp\ccLIBeCO.s 			page 93


 3780 02a4 08000000 		.4byte	.LVL39
 3781 02a8 0100     		.2byte	0x1
 3782 02aa 51       		.byte	0x51
 3783 02ab 08000000 		.4byte	.LVL39
 3784 02af 10000000 		.4byte	.LVL40
 3785 02b3 0400     		.2byte	0x4
 3786 02b5 F3       		.byte	0xf3
 3787 02b6 01       		.uleb128 0x1
 3788 02b7 51       		.byte	0x51
 3789 02b8 9F       		.byte	0x9f
 3790 02b9 10000000 		.4byte	.LVL40
 3791 02bd 12000000 		.4byte	.LVL41
 3792 02c1 0100     		.2byte	0x1
 3793 02c3 51       		.byte	0x51
 3794 02c4 12000000 		.4byte	.LVL41
 3795 02c8 1A000000 		.4byte	.LFE113
 3796 02cc 0400     		.2byte	0x4
 3797 02ce F3       		.byte	0xf3
 3798 02cf 01       		.uleb128 0x1
 3799 02d0 51       		.byte	0x51
 3800 02d1 9F       		.byte	0x9f
 3801 02d2 00000000 		.4byte	0
 3802 02d6 00000000 		.4byte	0
 3803              	.LLST10:
 3804 02da 00000000 		.4byte	.LVL42
 3805 02de 08000000 		.4byte	.LVL43
 3806 02e2 0100     		.2byte	0x1
 3807 02e4 51       		.byte	0x51
 3808 02e5 08000000 		.4byte	.LVL43
 3809 02e9 10000000 		.4byte	.LVL44
 3810 02ed 0400     		.2byte	0x4
 3811 02ef F3       		.byte	0xf3
 3812 02f0 01       		.uleb128 0x1
 3813 02f1 51       		.byte	0x51
 3814 02f2 9F       		.byte	0x9f
 3815 02f3 10000000 		.4byte	.LVL44
 3816 02f7 12000000 		.4byte	.LVL45
 3817 02fb 0100     		.2byte	0x1
 3818 02fd 51       		.byte	0x51
 3819 02fe 12000000 		.4byte	.LVL45
 3820 0302 1A000000 		.4byte	.LFE114
 3821 0306 0400     		.2byte	0x4
 3822 0308 F3       		.byte	0xf3
 3823 0309 01       		.uleb128 0x1
 3824 030a 51       		.byte	0x51
 3825 030b 9F       		.byte	0x9f
 3826 030c 00000000 		.4byte	0
 3827 0310 00000000 		.4byte	0
 3828              	.LLST11:
 3829 0314 00000000 		.4byte	.LVL46
 3830 0318 08000000 		.4byte	.LVL47
 3831 031c 0100     		.2byte	0x1
 3832 031e 51       		.byte	0x51
 3833 031f 08000000 		.4byte	.LVL47
 3834 0323 10000000 		.4byte	.LVL48
 3835 0327 0400     		.2byte	0x4
 3836 0329 F3       		.byte	0xf3
ARM GAS  C:\Users\CNous\AppData\Local\Temp\ccLIBeCO.s 			page 94


 3837 032a 01       		.uleb128 0x1
 3838 032b 51       		.byte	0x51
 3839 032c 9F       		.byte	0x9f
 3840 032d 10000000 		.4byte	.LVL48
 3841 0331 12000000 		.4byte	.LVL49
 3842 0335 0100     		.2byte	0x1
 3843 0337 51       		.byte	0x51
 3844 0338 12000000 		.4byte	.LVL49
 3845 033c 1A000000 		.4byte	.LFE115
 3846 0340 0400     		.2byte	0x4
 3847 0342 F3       		.byte	0xf3
 3848 0343 01       		.uleb128 0x1
 3849 0344 51       		.byte	0x51
 3850 0345 9F       		.byte	0x9f
 3851 0346 00000000 		.4byte	0
 3852 034a 00000000 		.4byte	0
 3853              	.LLST12:
 3854 034e 00000000 		.4byte	.LVL50
 3855 0352 06000000 		.4byte	.LVL51
 3856 0356 0100     		.2byte	0x1
 3857 0358 51       		.byte	0x51
 3858 0359 06000000 		.4byte	.LVL51
 3859 035d 12000000 		.4byte	.LFE116
 3860 0361 0100     		.2byte	0x1
 3861 0363 51       		.byte	0x51
 3862 0364 00000000 		.4byte	0
 3863 0368 00000000 		.4byte	0
 3864              	.LLST13:
 3865 036c 00000000 		.4byte	.LVL53
 3866 0370 08000000 		.4byte	.LVL54
 3867 0374 0100     		.2byte	0x1
 3868 0376 51       		.byte	0x51
 3869 0377 08000000 		.4byte	.LVL54
 3870 037b 10000000 		.4byte	.LVL55
 3871 037f 0400     		.2byte	0x4
 3872 0381 F3       		.byte	0xf3
 3873 0382 01       		.uleb128 0x1
 3874 0383 51       		.byte	0x51
 3875 0384 9F       		.byte	0x9f
 3876 0385 10000000 		.4byte	.LVL55
 3877 0389 12000000 		.4byte	.LVL56
 3878 038d 0100     		.2byte	0x1
 3879 038f 51       		.byte	0x51
 3880 0390 12000000 		.4byte	.LVL56
 3881 0394 1A000000 		.4byte	.LFE117
 3882 0398 0400     		.2byte	0x4
 3883 039a F3       		.byte	0xf3
 3884 039b 01       		.uleb128 0x1
 3885 039c 51       		.byte	0x51
 3886 039d 9F       		.byte	0x9f
 3887 039e 00000000 		.4byte	0
 3888 03a2 00000000 		.4byte	0
 3889              	.LLST14:
 3890 03a6 00000000 		.4byte	.LVL57
 3891 03aa 0C000000 		.4byte	.LVL60
 3892 03ae 0100     		.2byte	0x1
 3893 03b0 51       		.byte	0x51
ARM GAS  C:\Users\CNous\AppData\Local\Temp\ccLIBeCO.s 			page 95


 3894 03b1 0C000000 		.4byte	.LVL60
 3895 03b5 14000000 		.4byte	.LFE118
 3896 03b9 0400     		.2byte	0x4
 3897 03bb F3       		.byte	0xf3
 3898 03bc 01       		.uleb128 0x1
 3899 03bd 51       		.byte	0x51
 3900 03be 9F       		.byte	0x9f
 3901 03bf 00000000 		.4byte	0
 3902 03c3 00000000 		.4byte	0
 3903              	.LLST15:
 3904 03c7 00000000 		.4byte	.LVL57
 3905 03cb 02000000 		.4byte	.LVL58
 3906 03cf 0200     		.2byte	0x2
 3907 03d1 30       		.byte	0x30
 3908 03d2 9F       		.byte	0x9f
 3909 03d3 02000000 		.4byte	.LVL58
 3910 03d7 08000000 		.4byte	.LVL59
 3911 03db 0700     		.2byte	0x7
 3912 03dd 73       		.byte	0x73
 3913 03de 00       		.sleb128 0
 3914 03df 0B       		.byte	0xb
 3915 03e0 01FF     		.2byte	0xff01
 3916 03e2 1A       		.byte	0x1a
 3917 03e3 9F       		.byte	0x9f
 3918 03e4 10000000 		.4byte	.LVL61
 3919 03e8 14000000 		.4byte	.LFE118
 3920 03ec 0100     		.2byte	0x1
 3921 03ee 51       		.byte	0x51
 3922 03ef 00000000 		.4byte	0
 3923 03f3 00000000 		.4byte	0
 3924              	.LLST16:
 3925 03f7 00000000 		.4byte	.LVL62
 3926 03fb 08000000 		.4byte	.LVL63
 3927 03ff 0100     		.2byte	0x1
 3928 0401 51       		.byte	0x51
 3929 0402 08000000 		.4byte	.LVL63
 3930 0406 10000000 		.4byte	.LVL64
 3931 040a 0400     		.2byte	0x4
 3932 040c F3       		.byte	0xf3
 3933 040d 01       		.uleb128 0x1
 3934 040e 51       		.byte	0x51
 3935 040f 9F       		.byte	0x9f
 3936 0410 10000000 		.4byte	.LVL64
 3937 0414 12000000 		.4byte	.LVL65
 3938 0418 0100     		.2byte	0x1
 3939 041a 51       		.byte	0x51
 3940 041b 12000000 		.4byte	.LVL65
 3941 041f 1A000000 		.4byte	.LFE119
 3942 0423 0400     		.2byte	0x4
 3943 0425 F3       		.byte	0xf3
 3944 0426 01       		.uleb128 0x1
 3945 0427 51       		.byte	0x51
 3946 0428 9F       		.byte	0x9f
 3947 0429 00000000 		.4byte	0
 3948 042d 00000000 		.4byte	0
 3949              	.LLST17:
 3950 0431 00000000 		.4byte	.LVL66
ARM GAS  C:\Users\CNous\AppData\Local\Temp\ccLIBeCO.s 			page 96


 3951 0435 08000000 		.4byte	.LVL67
 3952 0439 0100     		.2byte	0x1
 3953 043b 51       		.byte	0x51
 3954 043c 08000000 		.4byte	.LVL67
 3955 0440 10000000 		.4byte	.LVL68
 3956 0444 0400     		.2byte	0x4
 3957 0446 F3       		.byte	0xf3
 3958 0447 01       		.uleb128 0x1
 3959 0448 51       		.byte	0x51
 3960 0449 9F       		.byte	0x9f
 3961 044a 10000000 		.4byte	.LVL68
 3962 044e 12000000 		.4byte	.LVL69
 3963 0452 0100     		.2byte	0x1
 3964 0454 51       		.byte	0x51
 3965 0455 12000000 		.4byte	.LVL69
 3966 0459 1A000000 		.4byte	.LFE120
 3967 045d 0400     		.2byte	0x4
 3968 045f F3       		.byte	0xf3
 3969 0460 01       		.uleb128 0x1
 3970 0461 51       		.byte	0x51
 3971 0462 9F       		.byte	0x9f
 3972 0463 00000000 		.4byte	0
 3973 0467 00000000 		.4byte	0
 3974              	.LLST18:
 3975 046b 00000000 		.4byte	.LVL70
 3976 046f 06000000 		.4byte	.LVL71
 3977 0473 0100     		.2byte	0x1
 3978 0475 51       		.byte	0x51
 3979 0476 06000000 		.4byte	.LVL71
 3980 047a 0C000000 		.4byte	.LVL72
 3981 047e 0400     		.2byte	0x4
 3982 0480 F3       		.byte	0xf3
 3983 0481 01       		.uleb128 0x1
 3984 0482 51       		.byte	0x51
 3985 0483 9F       		.byte	0x9f
 3986 0484 0C000000 		.4byte	.LVL72
 3987 0488 14000000 		.4byte	.LVL73
 3988 048c 0100     		.2byte	0x1
 3989 048e 51       		.byte	0x51
 3990 048f 14000000 		.4byte	.LVL73
 3991 0493 1A000000 		.4byte	.LFE121
 3992 0497 0400     		.2byte	0x4
 3993 0499 F3       		.byte	0xf3
 3994 049a 01       		.uleb128 0x1
 3995 049b 51       		.byte	0x51
 3996 049c 9F       		.byte	0x9f
 3997 049d 00000000 		.4byte	0
 3998 04a1 00000000 		.4byte	0
 3999              	.LLST19:
 4000 04a5 00000000 		.4byte	.LVL74
 4001 04a9 08000000 		.4byte	.LVL75
 4002 04ad 0100     		.2byte	0x1
 4003 04af 51       		.byte	0x51
 4004 04b0 08000000 		.4byte	.LVL75
 4005 04b4 10000000 		.4byte	.LVL76
 4006 04b8 0400     		.2byte	0x4
 4007 04ba F3       		.byte	0xf3
ARM GAS  C:\Users\CNous\AppData\Local\Temp\ccLIBeCO.s 			page 97


 4008 04bb 01       		.uleb128 0x1
 4009 04bc 51       		.byte	0x51
 4010 04bd 9F       		.byte	0x9f
 4011 04be 10000000 		.4byte	.LVL76
 4012 04c2 12000000 		.4byte	.LVL77
 4013 04c6 0100     		.2byte	0x1
 4014 04c8 51       		.byte	0x51
 4015 04c9 12000000 		.4byte	.LVL77
 4016 04cd 1A000000 		.4byte	.LFE122
 4017 04d1 0400     		.2byte	0x4
 4018 04d3 F3       		.byte	0xf3
 4019 04d4 01       		.uleb128 0x1
 4020 04d5 51       		.byte	0x51
 4021 04d6 9F       		.byte	0x9f
 4022 04d7 00000000 		.4byte	0
 4023 04db 00000000 		.4byte	0
 4024              	.LLST20:
 4025 04df 00000000 		.4byte	.LVL78
 4026 04e3 0E000000 		.4byte	.LVL79
 4027 04e7 0100     		.2byte	0x1
 4028 04e9 51       		.byte	0x51
 4029 04ea 0E000000 		.4byte	.LVL79
 4030 04ee 14000000 		.4byte	.LVL80
 4031 04f2 0400     		.2byte	0x4
 4032 04f4 F3       		.byte	0xf3
 4033 04f5 01       		.uleb128 0x1
 4034 04f6 51       		.byte	0x51
 4035 04f7 9F       		.byte	0x9f
 4036 04f8 14000000 		.4byte	.LVL80
 4037 04fc 16000000 		.4byte	.LVL81
 4038 0500 0100     		.2byte	0x1
 4039 0502 51       		.byte	0x51
 4040 0503 16000000 		.4byte	.LVL81
 4041 0507 1E000000 		.4byte	.LFE123
 4042 050b 0400     		.2byte	0x4
 4043 050d F3       		.byte	0xf3
 4044 050e 01       		.uleb128 0x1
 4045 050f 51       		.byte	0x51
 4046 0510 9F       		.byte	0x9f
 4047 0511 00000000 		.4byte	0
 4048 0515 00000000 		.4byte	0
 4049              	.LLST21:
 4050 0519 00000000 		.4byte	.LVL82
 4051 051d 0C000000 		.4byte	.LVL83
 4052 0521 0100     		.2byte	0x1
 4053 0523 51       		.byte	0x51
 4054 0524 0C000000 		.4byte	.LVL83
 4055 0528 14000000 		.4byte	.LVL84
 4056 052c 0400     		.2byte	0x4
 4057 052e F3       		.byte	0xf3
 4058 052f 01       		.uleb128 0x1
 4059 0530 51       		.byte	0x51
 4060 0531 9F       		.byte	0x9f
 4061 0532 14000000 		.4byte	.LVL84
 4062 0536 16000000 		.4byte	.LVL85
 4063 053a 0100     		.2byte	0x1
 4064 053c 51       		.byte	0x51
ARM GAS  C:\Users\CNous\AppData\Local\Temp\ccLIBeCO.s 			page 98


 4065 053d 16000000 		.4byte	.LVL85
 4066 0541 1E000000 		.4byte	.LFE124
 4067 0545 0400     		.2byte	0x4
 4068 0547 F3       		.byte	0xf3
 4069 0548 01       		.uleb128 0x1
 4070 0549 51       		.byte	0x51
 4071 054a 9F       		.byte	0x9f
 4072 054b 00000000 		.4byte	0
 4073 054f 00000000 		.4byte	0
 4074              	.LLST22:
 4075 0553 00000000 		.4byte	.LVL86
 4076 0557 0C000000 		.4byte	.LVL87
 4077 055b 0100     		.2byte	0x1
 4078 055d 51       		.byte	0x51
 4079 055e 0C000000 		.4byte	.LVL87
 4080 0562 14000000 		.4byte	.LVL88
 4081 0566 0400     		.2byte	0x4
 4082 0568 F3       		.byte	0xf3
 4083 0569 01       		.uleb128 0x1
 4084 056a 51       		.byte	0x51
 4085 056b 9F       		.byte	0x9f
 4086 056c 14000000 		.4byte	.LVL88
 4087 0570 16000000 		.4byte	.LVL89
 4088 0574 0100     		.2byte	0x1
 4089 0576 51       		.byte	0x51
 4090 0577 16000000 		.4byte	.LVL89
 4091 057b 1E000000 		.4byte	.LFE125
 4092 057f 0400     		.2byte	0x4
 4093 0581 F3       		.byte	0xf3
 4094 0582 01       		.uleb128 0x1
 4095 0583 51       		.byte	0x51
 4096 0584 9F       		.byte	0x9f
 4097 0585 00000000 		.4byte	0
 4098 0589 00000000 		.4byte	0
 4099              	.LLST23:
 4100 058d 00000000 		.4byte	.LVL90
 4101 0591 08000000 		.4byte	.LVL91
 4102 0595 0100     		.2byte	0x1
 4103 0597 51       		.byte	0x51
 4104 0598 08000000 		.4byte	.LVL91
 4105 059c 10000000 		.4byte	.LVL92
 4106 05a0 0400     		.2byte	0x4
 4107 05a2 F3       		.byte	0xf3
 4108 05a3 01       		.uleb128 0x1
 4109 05a4 51       		.byte	0x51
 4110 05a5 9F       		.byte	0x9f
 4111 05a6 10000000 		.4byte	.LVL92
 4112 05aa 12000000 		.4byte	.LVL93
 4113 05ae 0100     		.2byte	0x1
 4114 05b0 51       		.byte	0x51
 4115 05b1 12000000 		.4byte	.LVL93
 4116 05b5 1A000000 		.4byte	.LFE126
 4117 05b9 0400     		.2byte	0x4
 4118 05bb F3       		.byte	0xf3
 4119 05bc 01       		.uleb128 0x1
 4120 05bd 51       		.byte	0x51
 4121 05be 9F       		.byte	0x9f
ARM GAS  C:\Users\CNous\AppData\Local\Temp\ccLIBeCO.s 			page 99


 4122 05bf 00000000 		.4byte	0
 4123 05c3 00000000 		.4byte	0
 4124              	.LLST24:
 4125 05c7 00000000 		.4byte	.LVL95
 4126 05cb 02000000 		.4byte	.LVL96
 4127 05cf 0100     		.2byte	0x1
 4128 05d1 50       		.byte	0x50
 4129 05d2 02000000 		.4byte	.LVL96
 4130 05d6 06000000 		.4byte	.LFE128
 4131 05da 0400     		.2byte	0x4
 4132 05dc F3       		.byte	0xf3
 4133 05dd 01       		.uleb128 0x1
 4134 05de 50       		.byte	0x50
 4135 05df 9F       		.byte	0x9f
 4136 05e0 00000000 		.4byte	0
 4137 05e4 00000000 		.4byte	0
 4138              	.LLST25:
 4139 05e8 00000000 		.4byte	.LVL97
 4140 05ec 08000000 		.4byte	.LVL98
 4141 05f0 0100     		.2byte	0x1
 4142 05f2 51       		.byte	0x51
 4143 05f3 08000000 		.4byte	.LVL98
 4144 05f7 10000000 		.4byte	.LVL99
 4145 05fb 0400     		.2byte	0x4
 4146 05fd F3       		.byte	0xf3
 4147 05fe 01       		.uleb128 0x1
 4148 05ff 51       		.byte	0x51
 4149 0600 9F       		.byte	0x9f
 4150 0601 10000000 		.4byte	.LVL99
 4151 0605 12000000 		.4byte	.LVL100
 4152 0609 0100     		.2byte	0x1
 4153 060b 51       		.byte	0x51
 4154 060c 12000000 		.4byte	.LVL100
 4155 0610 1A000000 		.4byte	.LFE129
 4156 0614 0400     		.2byte	0x4
 4157 0616 F3       		.byte	0xf3
 4158 0617 01       		.uleb128 0x1
 4159 0618 51       		.byte	0x51
 4160 0619 9F       		.byte	0x9f
 4161 061a 00000000 		.4byte	0
 4162 061e 00000000 		.4byte	0
 4163              	.LLST26:
 4164 0622 00000000 		.4byte	.LVL101
 4165 0626 0C000000 		.4byte	.LVL102
 4166 062a 0100     		.2byte	0x1
 4167 062c 51       		.byte	0x51
 4168 062d 0C000000 		.4byte	.LVL102
 4169 0631 14000000 		.4byte	.LVL103
 4170 0635 0400     		.2byte	0x4
 4171 0637 F3       		.byte	0xf3
 4172 0638 01       		.uleb128 0x1
 4173 0639 51       		.byte	0x51
 4174 063a 9F       		.byte	0x9f
 4175 063b 14000000 		.4byte	.LVL103
 4176 063f 16000000 		.4byte	.LVL104
 4177 0643 0100     		.2byte	0x1
 4178 0645 51       		.byte	0x51
ARM GAS  C:\Users\CNous\AppData\Local\Temp\ccLIBeCO.s 			page 100


 4179 0646 16000000 		.4byte	.LVL104
 4180 064a 1E000000 		.4byte	.LFE130
 4181 064e 0400     		.2byte	0x4
 4182 0650 F3       		.byte	0xf3
 4183 0651 01       		.uleb128 0x1
 4184 0652 51       		.byte	0x51
 4185 0653 9F       		.byte	0x9f
 4186 0654 00000000 		.4byte	0
 4187 0658 00000000 		.4byte	0
 4188              	.LLST27:
 4189 065c 00000000 		.4byte	.LVL105
 4190 0660 08000000 		.4byte	.LVL106
 4191 0664 0100     		.2byte	0x1
 4192 0666 51       		.byte	0x51
 4193 0667 08000000 		.4byte	.LVL106
 4194 066b 10000000 		.4byte	.LVL107
 4195 066f 0400     		.2byte	0x4
 4196 0671 F3       		.byte	0xf3
 4197 0672 01       		.uleb128 0x1
 4198 0673 51       		.byte	0x51
 4199 0674 9F       		.byte	0x9f
 4200 0675 10000000 		.4byte	.LVL107
 4201 0679 12000000 		.4byte	.LVL108
 4202 067d 0100     		.2byte	0x1
 4203 067f 51       		.byte	0x51
 4204 0680 12000000 		.4byte	.LVL108
 4205 0684 1A000000 		.4byte	.LFE131
 4206 0688 0400     		.2byte	0x4
 4207 068a F3       		.byte	0xf3
 4208 068b 01       		.uleb128 0x1
 4209 068c 51       		.byte	0x51
 4210 068d 9F       		.byte	0x9f
 4211 068e 00000000 		.4byte	0
 4212 0692 00000000 		.4byte	0
 4213              	.LLST28:
 4214 0696 00000000 		.4byte	.LVL109
 4215 069a 02000000 		.4byte	.LVL110
 4216 069e 0100     		.2byte	0x1
 4217 06a0 50       		.byte	0x50
 4218 06a1 02000000 		.4byte	.LVL110
 4219 06a5 08000000 		.4byte	.LFE132
 4220 06a9 0400     		.2byte	0x4
 4221 06ab F3       		.byte	0xf3
 4222 06ac 01       		.uleb128 0x1
 4223 06ad 50       		.byte	0x50
 4224 06ae 9F       		.byte	0x9f
 4225 06af 00000000 		.4byte	0
 4226 06b3 00000000 		.4byte	0
 4227              	.LLST29:
 4228 06b7 00000000 		.4byte	.LVL111
 4229 06bb 08000000 		.4byte	.LVL112
 4230 06bf 0100     		.2byte	0x1
 4231 06c1 51       		.byte	0x51
 4232 06c2 08000000 		.4byte	.LVL112
 4233 06c6 10000000 		.4byte	.LVL113
 4234 06ca 0400     		.2byte	0x4
 4235 06cc F3       		.byte	0xf3
ARM GAS  C:\Users\CNous\AppData\Local\Temp\ccLIBeCO.s 			page 101


 4236 06cd 01       		.uleb128 0x1
 4237 06ce 51       		.byte	0x51
 4238 06cf 9F       		.byte	0x9f
 4239 06d0 10000000 		.4byte	.LVL113
 4240 06d4 12000000 		.4byte	.LVL114
 4241 06d8 0100     		.2byte	0x1
 4242 06da 51       		.byte	0x51
 4243 06db 12000000 		.4byte	.LVL114
 4244 06df 1A000000 		.4byte	.LFE133
 4245 06e3 0400     		.2byte	0x4
 4246 06e5 F3       		.byte	0xf3
 4247 06e6 01       		.uleb128 0x1
 4248 06e7 51       		.byte	0x51
 4249 06e8 9F       		.byte	0x9f
 4250 06e9 00000000 		.4byte	0
 4251 06ed 00000000 		.4byte	0
 4252              	.LLST30:
 4253 06f1 00000000 		.4byte	.LVL115
 4254 06f5 08000000 		.4byte	.LVL116
 4255 06f9 0100     		.2byte	0x1
 4256 06fb 51       		.byte	0x51
 4257 06fc 08000000 		.4byte	.LVL116
 4258 0700 10000000 		.4byte	.LVL117
 4259 0704 0400     		.2byte	0x4
 4260 0706 F3       		.byte	0xf3
 4261 0707 01       		.uleb128 0x1
 4262 0708 51       		.byte	0x51
 4263 0709 9F       		.byte	0x9f
 4264 070a 10000000 		.4byte	.LVL117
 4265 070e 12000000 		.4byte	.LVL118
 4266 0712 0100     		.2byte	0x1
 4267 0714 51       		.byte	0x51
 4268 0715 12000000 		.4byte	.LVL118
 4269 0719 1A000000 		.4byte	.LFE134
 4270 071d 0400     		.2byte	0x4
 4271 071f F3       		.byte	0xf3
 4272 0720 01       		.uleb128 0x1
 4273 0721 51       		.byte	0x51
 4274 0722 9F       		.byte	0x9f
 4275 0723 00000000 		.4byte	0
 4276 0727 00000000 		.4byte	0
 4277              	.LLST31:
 4278 072b 00000000 		.4byte	.LFB135
 4279 072f 02000000 		.4byte	.LCFI3
 4280 0733 0200     		.2byte	0x2
 4281 0735 7D       		.byte	0x7d
 4282 0736 00       		.sleb128 0
 4283 0737 02000000 		.4byte	.LCFI3
 4284 073b 18000000 		.4byte	.LFE135
 4285 073f 0200     		.2byte	0x2
 4286 0741 7D       		.byte	0x7d
 4287 0742 08       		.sleb128 8
 4288 0743 00000000 		.4byte	0
 4289 0747 00000000 		.4byte	0
 4290              	.LLST32:
 4291 074b 00000000 		.4byte	.LVL119
 4292 074f 0A000000 		.4byte	.LVL121
ARM GAS  C:\Users\CNous\AppData\Local\Temp\ccLIBeCO.s 			page 102


 4293 0753 0100     		.2byte	0x1
 4294 0755 50       		.byte	0x50
 4295 0756 0A000000 		.4byte	.LVL121
 4296 075a 18000000 		.4byte	.LFE135
 4297 075e 0200     		.2byte	0x2
 4298 0760 91       		.byte	0x91
 4299 0761 7C       		.sleb128 -4
 4300 0762 00000000 		.4byte	0
 4301 0766 00000000 		.4byte	0
 4302              	.LLST33:
 4303 076a 00000000 		.4byte	.LVL119
 4304 076e 0C000000 		.4byte	.LVL122
 4305 0772 0100     		.2byte	0x1
 4306 0774 51       		.byte	0x51
 4307 0775 0C000000 		.4byte	.LVL122
 4308 0779 18000000 		.4byte	.LFE135
 4309 077d 0400     		.2byte	0x4
 4310 077f F3       		.byte	0xf3
 4311 0780 01       		.uleb128 0x1
 4312 0781 51       		.byte	0x51
 4313 0782 9F       		.byte	0x9f
 4314 0783 00000000 		.4byte	0
 4315 0787 00000000 		.4byte	0
 4316              	.LLST34:
 4317 078b 06000000 		.4byte	.LVL120
 4318 078f 0C000000 		.4byte	.LVL122
 4319 0793 0200     		.2byte	0x2
 4320 0795 91       		.byte	0x91
 4321 0796 7C       		.sleb128 -4
 4322 0797 0E000000 		.4byte	.LVL123
 4323 079b 18000000 		.4byte	.LFE135
 4324 079f 0100     		.2byte	0x1
 4325 07a1 51       		.byte	0x51
 4326 07a2 00000000 		.4byte	0
 4327 07a6 00000000 		.4byte	0
 4328              	.LLST35:
 4329 07aa 00000000 		.4byte	.LVL124
 4330 07ae 0A000000 		.4byte	.LVL125
 4331 07b2 0100     		.2byte	0x1
 4332 07b4 51       		.byte	0x51
 4333 07b5 0A000000 		.4byte	.LVL125
 4334 07b9 0E000000 		.4byte	.LVL126
 4335 07bd 0400     		.2byte	0x4
 4336 07bf F3       		.byte	0xf3
 4337 07c0 01       		.uleb128 0x1
 4338 07c1 51       		.byte	0x51
 4339 07c2 9F       		.byte	0x9f
 4340 07c3 0E000000 		.4byte	.LVL126
 4341 07c7 10000000 		.4byte	.LVL127
 4342 07cb 0100     		.2byte	0x1
 4343 07cd 51       		.byte	0x51
 4344 07ce 10000000 		.4byte	.LVL127
 4345 07d2 14000000 		.4byte	.LFE136
 4346 07d6 0400     		.2byte	0x4
 4347 07d8 F3       		.byte	0xf3
 4348 07d9 01       		.uleb128 0x1
 4349 07da 51       		.byte	0x51
ARM GAS  C:\Users\CNous\AppData\Local\Temp\ccLIBeCO.s 			page 103


 4350 07db 9F       		.byte	0x9f
 4351 07dc 00000000 		.4byte	0
 4352 07e0 00000000 		.4byte	0
 4353              	.LLST36:
 4354 07e4 00000000 		.4byte	.LVL128
 4355 07e8 06000000 		.4byte	.LVL129
 4356 07ec 0100     		.2byte	0x1
 4357 07ee 50       		.byte	0x50
 4358 07ef 06000000 		.4byte	.LVL129
 4359 07f3 18000000 		.4byte	.LFE137
 4360 07f7 0400     		.2byte	0x4
 4361 07f9 F3       		.byte	0xf3
 4362 07fa 01       		.uleb128 0x1
 4363 07fb 50       		.byte	0x50
 4364 07fc 9F       		.byte	0x9f
 4365 07fd 00000000 		.4byte	0
 4366 0801 00000000 		.4byte	0
 4367              	.LLST37:
 4368 0805 00000000 		.4byte	.LVL128
 4369 0809 12000000 		.4byte	.LVL131
 4370 080d 0100     		.2byte	0x1
 4371 080f 51       		.byte	0x51
 4372 0810 12000000 		.4byte	.LVL131
 4373 0814 18000000 		.4byte	.LFE137
 4374 0818 0400     		.2byte	0x4
 4375 081a F3       		.byte	0xf3
 4376 081b 01       		.uleb128 0x1
 4377 081c 51       		.byte	0x51
 4378 081d 9F       		.byte	0x9f
 4379 081e 00000000 		.4byte	0
 4380 0822 00000000 		.4byte	0
 4381              	.LLST38:
 4382 0826 00000000 		.4byte	.LVL128
 4383 082a 06000000 		.4byte	.LVL129
 4384 082e 0200     		.2byte	0x2
 4385 0830 30       		.byte	0x30
 4386 0831 9F       		.byte	0x9f
 4387 0832 06000000 		.4byte	.LVL129
 4388 0836 10000000 		.4byte	.LVL130
 4389 083a 1600     		.2byte	0x16
 4390 083c 73       		.byte	0x73
 4391 083d 00       		.sleb128 0
 4392 083e 0A       		.byte	0xa
 4393 083f FFFF     		.2byte	0xffff
 4394 0841 1A       		.byte	0x1a
 4395 0842 40       		.byte	0x40
 4396 0843 24       		.byte	0x24
 4397 0844 70       		.byte	0x70
 4398 0845 00       		.sleb128 0
 4399 0846 0A       		.byte	0xa
 4400 0847 FFFF     		.2byte	0xffff
 4401 0849 1A       		.byte	0x1a
 4402 084a 21       		.byte	0x21
 4403 084b 0C       		.byte	0xc
 4404 084c FFFFFF00 		.4byte	0xffffff
 4405 0850 1A       		.byte	0x1a
 4406 0851 9F       		.byte	0x9f
ARM GAS  C:\Users\CNous\AppData\Local\Temp\ccLIBeCO.s 			page 104


 4407 0852 00000000 		.4byte	0
 4408 0856 00000000 		.4byte	0
 4409              	.LLST39:
 4410 085a 00000000 		.4byte	.LVL128
 4411 085e 06000000 		.4byte	.LVL129
 4412 0862 0200     		.2byte	0x2
 4413 0864 30       		.byte	0x30
 4414 0865 9F       		.byte	0x9f
 4415 0866 06000000 		.4byte	.LVL129
 4416 086a 14000000 		.4byte	.LVL132
 4417 086e 0700     		.2byte	0x7
 4418 0870 70       		.byte	0x70
 4419 0871 00       		.sleb128 0
 4420 0872 0A       		.byte	0xa
 4421 0873 FFFF     		.2byte	0xffff
 4422 0875 1A       		.byte	0x1a
 4423 0876 9F       		.byte	0x9f
 4424 0877 00000000 		.4byte	0
 4425 087b 00000000 		.4byte	0
 4426              	.LLST40:
 4427 087f 00000000 		.4byte	.LVL128
 4428 0883 06000000 		.4byte	.LVL129
 4429 0887 0200     		.2byte	0x2
 4430 0889 30       		.byte	0x30
 4431 088a 9F       		.byte	0x9f
 4432 088b 06000000 		.4byte	.LVL129
 4433 088f 10000000 		.4byte	.LVL130
 4434 0893 0900     		.2byte	0x9
 4435 0895 73       		.byte	0x73
 4436 0896 00       		.sleb128 0
 4437 0897 0A       		.byte	0xa
 4438 0898 FFFF     		.2byte	0xffff
 4439 089a 1A       		.byte	0x1a
 4440 089b 40       		.byte	0x40
 4441 089c 24       		.byte	0x24
 4442 089d 9F       		.byte	0x9f
 4443 089e 00000000 		.4byte	0
 4444 08a2 00000000 		.4byte	0
 4445              	.LLST41:
 4446 08a6 00000000 		.4byte	.LVL128
 4447 08aa 06000000 		.4byte	.LVL129
 4448 08ae 0200     		.2byte	0x2
 4449 08b0 30       		.byte	0x30
 4450 08b1 9F       		.byte	0x9f
 4451 08b2 06000000 		.4byte	.LVL129
 4452 08b6 10000000 		.4byte	.LVL130
 4453 08ba 1C00     		.2byte	0x1c
 4454 08bc 71       		.byte	0x71
 4455 08bd 00       		.sleb128 0
 4456 08be 73       		.byte	0x73
 4457 08bf 00       		.sleb128 0
 4458 08c0 0A       		.byte	0xa
 4459 08c1 FFFF     		.2byte	0xffff
 4460 08c3 1A       		.byte	0x1a
 4461 08c4 40       		.byte	0x40
 4462 08c5 24       		.byte	0x24
 4463 08c6 70       		.byte	0x70
ARM GAS  C:\Users\CNous\AppData\Local\Temp\ccLIBeCO.s 			page 105


 4464 08c7 00       		.sleb128 0
 4465 08c8 0A       		.byte	0xa
 4466 08c9 FFFF     		.2byte	0xffff
 4467 08cb 1A       		.byte	0x1a
 4468 08cc 21       		.byte	0x21
 4469 08cd 71       		.byte	0x71
 4470 08ce 00       		.sleb128 0
 4471 08cf 1A       		.byte	0x1a
 4472 08d0 0C       		.byte	0xc
 4473 08d1 FFFFFF00 		.4byte	0xffffff
 4474 08d5 1A       		.byte	0x1a
 4475 08d6 29       		.byte	0x29
 4476 08d7 9F       		.byte	0x9f
 4477 08d8 00000000 		.4byte	0
 4478 08dc 00000000 		.4byte	0
 4479              	.LLST42:
 4480 08e0 00000000 		.4byte	.LVL133
 4481 08e4 06000000 		.4byte	.LVL134
 4482 08e8 0100     		.2byte	0x1
 4483 08ea 50       		.byte	0x50
 4484 08eb 06000000 		.4byte	.LVL134
 4485 08ef 10000000 		.4byte	.LFE138
 4486 08f3 0400     		.2byte	0x4
 4487 08f5 F3       		.byte	0xf3
 4488 08f6 01       		.uleb128 0x1
 4489 08f7 50       		.byte	0x50
 4490 08f8 9F       		.byte	0x9f
 4491 08f9 00000000 		.4byte	0
 4492 08fd 00000000 		.4byte	0
 4493              	.LLST43:
 4494 0901 00000000 		.4byte	.LVL133
 4495 0905 06000000 		.4byte	.LVL134
 4496 0909 0200     		.2byte	0x2
 4497 090b 30       		.byte	0x30
 4498 090c 9F       		.byte	0x9f
 4499 090d 06000000 		.4byte	.LVL134
 4500 0911 0E000000 		.4byte	.LVL135
 4501 0915 1600     		.2byte	0x16
 4502 0917 73       		.byte	0x73
 4503 0918 00       		.sleb128 0
 4504 0919 0A       		.byte	0xa
 4505 091a FFFF     		.2byte	0xffff
 4506 091c 1A       		.byte	0x1a
 4507 091d 40       		.byte	0x40
 4508 091e 24       		.byte	0x24
 4509 091f 70       		.byte	0x70
 4510 0920 00       		.sleb128 0
 4511 0921 0A       		.byte	0xa
 4512 0922 FFFF     		.2byte	0xffff
 4513 0924 1A       		.byte	0x1a
 4514 0925 21       		.byte	0x21
 4515 0926 0C       		.byte	0xc
 4516 0927 FFFFFF00 		.4byte	0xffffff
 4517 092b 1A       		.byte	0x1a
 4518 092c 9F       		.byte	0x9f
 4519 092d 0E000000 		.4byte	.LVL135
 4520 0931 10000000 		.4byte	.LFE138
ARM GAS  C:\Users\CNous\AppData\Local\Temp\ccLIBeCO.s 			page 106


 4521 0935 1600     		.2byte	0x16
 4522 0937 73       		.byte	0x73
 4523 0938 00       		.sleb128 0
 4524 0939 0A       		.byte	0xa
 4525 093a FFFF     		.2byte	0xffff
 4526 093c 1A       		.byte	0x1a
 4527 093d 40       		.byte	0x40
 4528 093e 24       		.byte	0x24
 4529 093f 72       		.byte	0x72
 4530 0940 00       		.sleb128 0
 4531 0941 0A       		.byte	0xa
 4532 0942 FFFF     		.2byte	0xffff
 4533 0944 1A       		.byte	0x1a
 4534 0945 21       		.byte	0x21
 4535 0946 0C       		.byte	0xc
 4536 0947 FFFFFF00 		.4byte	0xffffff
 4537 094b 1A       		.byte	0x1a
 4538 094c 9F       		.byte	0x9f
 4539 094d 00000000 		.4byte	0
 4540 0951 00000000 		.4byte	0
 4541              	.LLST44:
 4542 0955 00000000 		.4byte	.LVL133
 4543 0959 06000000 		.4byte	.LVL134
 4544 095d 0200     		.2byte	0x2
 4545 095f 30       		.byte	0x30
 4546 0960 9F       		.byte	0x9f
 4547 0961 06000000 		.4byte	.LVL134
 4548 0965 0E000000 		.4byte	.LVL135
 4549 0969 0700     		.2byte	0x7
 4550 096b 70       		.byte	0x70
 4551 096c 00       		.sleb128 0
 4552 096d 0A       		.byte	0xa
 4553 096e FFFF     		.2byte	0xffff
 4554 0970 1A       		.byte	0x1a
 4555 0971 9F       		.byte	0x9f
 4556 0972 0E000000 		.4byte	.LVL135
 4557 0976 10000000 		.4byte	.LFE138
 4558 097a 0700     		.2byte	0x7
 4559 097c 72       		.byte	0x72
 4560 097d 00       		.sleb128 0
 4561 097e 0A       		.byte	0xa
 4562 097f FFFF     		.2byte	0xffff
 4563 0981 1A       		.byte	0x1a
 4564 0982 9F       		.byte	0x9f
 4565 0983 00000000 		.4byte	0
 4566 0987 00000000 		.4byte	0
 4567              	.LLST45:
 4568 098b 00000000 		.4byte	.LVL133
 4569 098f 06000000 		.4byte	.LVL134
 4570 0993 0200     		.2byte	0x2
 4571 0995 30       		.byte	0x30
 4572 0996 9F       		.byte	0x9f
 4573 0997 06000000 		.4byte	.LVL134
 4574 099b 10000000 		.4byte	.LFE138
 4575 099f 0900     		.2byte	0x9
 4576 09a1 73       		.byte	0x73
 4577 09a2 00       		.sleb128 0
ARM GAS  C:\Users\CNous\AppData\Local\Temp\ccLIBeCO.s 			page 107


 4578 09a3 0A       		.byte	0xa
 4579 09a4 FFFF     		.2byte	0xffff
 4580 09a6 1A       		.byte	0x1a
 4581 09a7 40       		.byte	0x40
 4582 09a8 24       		.byte	0x24
 4583 09a9 9F       		.byte	0x9f
 4584 09aa 00000000 		.4byte	0
 4585 09ae 00000000 		.4byte	0
 4586              	.LLST46:
 4587 09b2 00000000 		.4byte	.LFB139
 4588 09b6 02000000 		.4byte	.LCFI4
 4589 09ba 0200     		.2byte	0x2
 4590 09bc 7D       		.byte	0x7d
 4591 09bd 00       		.sleb128 0
 4592 09be 02000000 		.4byte	.LCFI4
 4593 09c2 36000000 		.4byte	.LFE139
 4594 09c6 0200     		.2byte	0x2
 4595 09c8 7D       		.byte	0x7d
 4596 09c9 08       		.sleb128 8
 4597 09ca 00000000 		.4byte	0
 4598 09ce 00000000 		.4byte	0
 4599              	.LLST47:
 4600 09d2 00000000 		.4byte	.LVL136
 4601 09d6 10000000 		.4byte	.LVL140
 4602 09da 0100     		.2byte	0x1
 4603 09dc 50       		.byte	0x50
 4604 09dd 10000000 		.4byte	.LVL140
 4605 09e1 36000000 		.4byte	.LFE139
 4606 09e5 0200     		.2byte	0x2
 4607 09e7 91       		.byte	0x91
 4608 09e8 7C       		.sleb128 -4
 4609 09e9 00000000 		.4byte	0
 4610 09ed 00000000 		.4byte	0
 4611              	.LLST48:
 4612 09f1 00000000 		.4byte	.LVL136
 4613 09f5 14000000 		.4byte	.LVL141
 4614 09f9 0100     		.2byte	0x1
 4615 09fb 51       		.byte	0x51
 4616 09fc 14000000 		.4byte	.LVL141
 4617 0a00 36000000 		.4byte	.LFE139
 4618 0a04 0100     		.2byte	0x1
 4619 0a06 51       		.byte	0x51
 4620 0a07 00000000 		.4byte	0
 4621 0a0b 00000000 		.4byte	0
 4622              	.LLST49:
 4623 0a0f 00000000 		.4byte	.LVL136
 4624 0a13 20000000 		.4byte	.LVL144
 4625 0a17 0200     		.2byte	0x2
 4626 0a19 30       		.byte	0x30
 4627 0a1a 9F       		.byte	0x9f
 4628 0a1b 20000000 		.4byte	.LVL144
 4629 0a1f 2C000000 		.4byte	.LVL145
 4630 0a23 0800     		.2byte	0x8
 4631 0a25 71       		.byte	0x71
 4632 0a26 00       		.sleb128 0
 4633 0a27 73       		.byte	0x73
 4634 0a28 00       		.sleb128 0
ARM GAS  C:\Users\CNous\AppData\Local\Temp\ccLIBeCO.s 			page 108


 4635 0a29 1A       		.byte	0x1a
 4636 0a2a 30       		.byte	0x30
 4637 0a2b 2E       		.byte	0x2e
 4638 0a2c 9F       		.byte	0x9f
 4639 0a2d 2C000000 		.4byte	.LVL145
 4640 0a31 36000000 		.4byte	.LFE139
 4641 0a35 0200     		.2byte	0x2
 4642 0a37 30       		.byte	0x30
 4643 0a38 9F       		.byte	0x9f
 4644 0a39 00000000 		.4byte	0
 4645 0a3d 00000000 		.4byte	0
 4646              	.LLST50:
 4647 0a41 08000000 		.4byte	.LVL138
 4648 0a45 36000000 		.4byte	.LFE139
 4649 0a49 0200     		.2byte	0x2
 4650 0a4b 91       		.byte	0x91
 4651 0a4c 78       		.sleb128 -8
 4652 0a4d 00000000 		.4byte	0
 4653 0a51 00000000 		.4byte	0
 4654              	.LLST51:
 4655 0a55 0A000000 		.4byte	.LVL139
 4656 0a59 1A000000 		.4byte	.LVL142
 4657 0a5d 0200     		.2byte	0x2
 4658 0a5f 91       		.byte	0x91
 4659 0a60 7C       		.sleb128 -4
 4660 0a61 1C000000 		.4byte	.LVL143
 4661 0a65 30000000 		.4byte	.LVL146
 4662 0a69 0200     		.2byte	0x2
 4663 0a6b 91       		.byte	0x91
 4664 0a6c 7C       		.sleb128 -4
 4665 0a6d 34000000 		.4byte	.LVL148
 4666 0a71 36000000 		.4byte	.LFE139
 4667 0a75 0100     		.2byte	0x1
 4668 0a77 53       		.byte	0x53
 4669 0a78 00000000 		.4byte	0
 4670 0a7c 00000000 		.4byte	0
 4671              	.LLST52:
 4672 0a80 00000000 		.4byte	.LVL149
 4673 0a84 02000000 		.4byte	.LVL150
 4674 0a88 0100     		.2byte	0x1
 4675 0a8a 51       		.byte	0x51
 4676 0a8b 02000000 		.4byte	.LVL150
 4677 0a8f 08000000 		.4byte	.LFE140
 4678 0a93 0400     		.2byte	0x4
 4679 0a95 71       		.byte	0x71
 4680 0a96 00       		.sleb128 0
 4681 0a97 20       		.byte	0x20
 4682 0a98 9F       		.byte	0x9f
 4683 0a99 00000000 		.4byte	0
 4684 0a9d 00000000 		.4byte	0
 4685              	.LLST53:
 4686 0aa1 00000000 		.4byte	.LVL149
 4687 0aa5 02000000 		.4byte	.LVL150
 4688 0aa9 0900     		.2byte	0x9
 4689 0aab 71       		.byte	0x71
 4690 0aac 00       		.sleb128 0
 4691 0aad 0C       		.byte	0xc
ARM GAS  C:\Users\CNous\AppData\Local\Temp\ccLIBeCO.s 			page 109


 4692 0aae FFFFFF00 		.4byte	0xffffff
 4693 0ab2 1A       		.byte	0x1a
 4694 0ab3 9F       		.byte	0x9f
 4695 0ab4 02000000 		.4byte	.LVL150
 4696 0ab8 08000000 		.4byte	.LFE140
 4697 0abc 0A00     		.2byte	0xa
 4698 0abe 71       		.byte	0x71
 4699 0abf 00       		.sleb128 0
 4700 0ac0 20       		.byte	0x20
 4701 0ac1 0C       		.byte	0xc
 4702 0ac2 FFFFFF00 		.4byte	0xffffff
 4703 0ac6 1A       		.byte	0x1a
 4704 0ac7 9F       		.byte	0x9f
 4705 0ac8 00000000 		.4byte	0
 4706 0acc 00000000 		.4byte	0
 4707              	.LLST54:
 4708 0ad0 00000000 		.4byte	.LVL151
 4709 0ad4 04000000 		.4byte	.LVL152
 4710 0ad8 0100     		.2byte	0x1
 4711 0ada 50       		.byte	0x50
 4712 0adb 04000000 		.4byte	.LVL152
 4713 0adf 1E000000 		.4byte	.LFE141
 4714 0ae3 0400     		.2byte	0x4
 4715 0ae5 F3       		.byte	0xf3
 4716 0ae6 01       		.uleb128 0x1
 4717 0ae7 50       		.byte	0x50
 4718 0ae8 9F       		.byte	0x9f
 4719 0ae9 00000000 		.4byte	0
 4720 0aed 00000000 		.4byte	0
 4721              	.LLST55:
 4722 0af1 00000000 		.4byte	.LVL151
 4723 0af5 0C000000 		.4byte	.LVL153
 4724 0af9 0100     		.2byte	0x1
 4725 0afb 51       		.byte	0x51
 4726 0afc 0C000000 		.4byte	.LVL153
 4727 0b00 12000000 		.4byte	.LVL154
 4728 0b04 0900     		.2byte	0x9
 4729 0b06 71       		.byte	0x71
 4730 0b07 00       		.sleb128 0
 4731 0b08 0C       		.byte	0xc
 4732 0b09 FFFFFF00 		.4byte	0xffffff
 4733 0b0d 1A       		.byte	0x1a
 4734 0b0e 9F       		.byte	0x9f
 4735 0b0f 12000000 		.4byte	.LVL154
 4736 0b13 1E000000 		.4byte	.LFE141
 4737 0b17 0A00     		.2byte	0xa
 4738 0b19 F3       		.byte	0xf3
 4739 0b1a 01       		.uleb128 0x1
 4740 0b1b 51       		.byte	0x51
 4741 0b1c 0C       		.byte	0xc
 4742 0b1d FFFFFF00 		.4byte	0xffffff
 4743 0b21 1A       		.byte	0x1a
 4744 0b22 9F       		.byte	0x9f
 4745 0b23 00000000 		.4byte	0
 4746 0b27 00000000 		.4byte	0
 4747              	.LLST56:
 4748 0b2b 00000000 		.4byte	.LVL151
ARM GAS  C:\Users\CNous\AppData\Local\Temp\ccLIBeCO.s 			page 110


 4749 0b2f 1C000000 		.4byte	.LVL156
 4750 0b33 0200     		.2byte	0x2
 4751 0b35 30       		.byte	0x30
 4752 0b36 9F       		.byte	0x9f
 4753 0b37 1C000000 		.4byte	.LVL156
 4754 0b3b 1E000000 		.4byte	.LFE141
 4755 0b3f 0100     		.2byte	0x1
 4756 0b41 50       		.byte	0x50
 4757 0b42 00000000 		.4byte	0
 4758 0b46 00000000 		.4byte	0
 4759              	.LLST57:
 4760 0b4a 00000000 		.4byte	.LVL151
 4761 0b4e 0C000000 		.4byte	.LVL153
 4762 0b52 0200     		.2byte	0x2
 4763 0b54 30       		.byte	0x30
 4764 0b55 9F       		.byte	0x9f
 4765 0b56 0C000000 		.4byte	.LVL153
 4766 0b5a 12000000 		.4byte	.LVL154
 4767 0b5e 1000     		.2byte	0x10
 4768 0b60 71       		.byte	0x71
 4769 0b61 00       		.sleb128 0
 4770 0b62 4C       		.byte	0x4c
 4771 0b63 46       		.byte	0x46
 4772 0b64 24       		.byte	0x24
 4773 0b65 1A       		.byte	0x1a
 4774 0b66 40       		.byte	0x40
 4775 0b67 25       		.byte	0x25
 4776 0b68 73       		.byte	0x73
 4777 0b69 00       		.sleb128 0
 4778 0b6a 0A       		.byte	0xa
 4779 0b6b FFFF     		.2byte	0xffff
 4780 0b6d 1A       		.byte	0x1a
 4781 0b6e 1A       		.byte	0x1a
 4782 0b6f 9F       		.byte	0x9f
 4783 0b70 12000000 		.4byte	.LVL154
 4784 0b74 16000000 		.4byte	.LVL155
 4785 0b78 0C00     		.2byte	0xc
 4786 0b7a 71       		.byte	0x71
 4787 0b7b 00       		.sleb128 0
 4788 0b7c 40       		.byte	0x40
 4789 0b7d 25       		.byte	0x25
 4790 0b7e 73       		.byte	0x73
 4791 0b7f 00       		.sleb128 0
 4792 0b80 0A       		.byte	0xa
 4793 0b81 FFFF     		.2byte	0xffff
 4794 0b83 1A       		.byte	0x1a
 4795 0b84 1A       		.byte	0x1a
 4796 0b85 9F       		.byte	0x9f
 4797 0b86 16000000 		.4byte	.LVL155
 4798 0b8a 1E000000 		.4byte	.LFE141
 4799 0b8e 1100     		.2byte	0x11
 4800 0b90 F3       		.byte	0xf3
 4801 0b91 01       		.uleb128 0x1
 4802 0b92 51       		.byte	0x51
 4803 0b93 4C       		.byte	0x4c
 4804 0b94 46       		.byte	0x46
 4805 0b95 24       		.byte	0x24
ARM GAS  C:\Users\CNous\AppData\Local\Temp\ccLIBeCO.s 			page 111


 4806 0b96 1A       		.byte	0x1a
 4807 0b97 40       		.byte	0x40
 4808 0b98 25       		.byte	0x25
 4809 0b99 73       		.byte	0x73
 4810 0b9a 00       		.sleb128 0
 4811 0b9b 0A       		.byte	0xa
 4812 0b9c FFFF     		.2byte	0xffff
 4813 0b9e 1A       		.byte	0x1a
 4814 0b9f 1A       		.byte	0x1a
 4815 0ba0 9F       		.byte	0x9f
 4816 0ba1 00000000 		.4byte	0
 4817 0ba5 00000000 		.4byte	0
 4818              	.LLST58:
 4819 0ba9 00000000 		.4byte	.LVL157
 4820 0bad 02000000 		.4byte	.LVL158
 4821 0bb1 0100     		.2byte	0x1
 4822 0bb3 51       		.byte	0x51
 4823 0bb4 02000000 		.4byte	.LVL158
 4824 0bb8 08000000 		.4byte	.LFE142
 4825 0bbc 0400     		.2byte	0x4
 4826 0bbe 71       		.byte	0x71
 4827 0bbf 00       		.sleb128 0
 4828 0bc0 20       		.byte	0x20
 4829 0bc1 9F       		.byte	0x9f
 4830 0bc2 00000000 		.4byte	0
 4831 0bc6 00000000 		.4byte	0
 4832              	.LLST59:
 4833 0bca 00000000 		.4byte	.LVL157
 4834 0bce 02000000 		.4byte	.LVL158
 4835 0bd2 0900     		.2byte	0x9
 4836 0bd4 71       		.byte	0x71
 4837 0bd5 00       		.sleb128 0
 4838 0bd6 0C       		.byte	0xc
 4839 0bd7 FFFFFF00 		.4byte	0xffffff
 4840 0bdb 1A       		.byte	0x1a
 4841 0bdc 9F       		.byte	0x9f
 4842 0bdd 02000000 		.4byte	.LVL158
 4843 0be1 08000000 		.4byte	.LFE142
 4844 0be5 0A00     		.2byte	0xa
 4845 0be7 71       		.byte	0x71
 4846 0be8 00       		.sleb128 0
 4847 0be9 20       		.byte	0x20
 4848 0bea 0C       		.byte	0xc
 4849 0beb FFFFFF00 		.4byte	0xffffff
 4850 0bef 1A       		.byte	0x1a
 4851 0bf0 9F       		.byte	0x9f
 4852 0bf1 00000000 		.4byte	0
 4853 0bf5 00000000 		.4byte	0
 4854              		.section	.debug_aranges,"",%progbits
 4855 0000 1C010000 		.4byte	0x11c
 4856 0004 0200     		.2byte	0x2
 4857 0006 00000000 		.4byte	.Ldebug_info0
 4858 000a 04       		.byte	0x4
 4859 000b 00       		.byte	0
 4860 000c 0000     		.2byte	0
 4861 000e 0000     		.2byte	0
 4862 0010 00000000 		.4byte	.LFB110
ARM GAS  C:\Users\CNous\AppData\Local\Temp\ccLIBeCO.s 			page 112


 4863 0014 70000000 		.4byte	.LFE110-.LFB110
 4864 0018 00000000 		.4byte	.LFB111
 4865 001c E8000000 		.4byte	.LFE111-.LFB111
 4866 0020 00000000 		.4byte	.LFB112
 4867 0024 1C000000 		.4byte	.LFE112-.LFB112
 4868 0028 00000000 		.4byte	.LFB113
 4869 002c 1A000000 		.4byte	.LFE113-.LFB113
 4870 0030 00000000 		.4byte	.LFB114
 4871 0034 1A000000 		.4byte	.LFE114-.LFB114
 4872 0038 00000000 		.4byte	.LFB115
 4873 003c 1A000000 		.4byte	.LFE115-.LFB115
 4874 0040 00000000 		.4byte	.LFB116
 4875 0044 12000000 		.4byte	.LFE116-.LFB116
 4876 0048 00000000 		.4byte	.LFB117
 4877 004c 1A000000 		.4byte	.LFE117-.LFB117
 4878 0050 00000000 		.4byte	.LFB118
 4879 0054 14000000 		.4byte	.LFE118-.LFB118
 4880 0058 00000000 		.4byte	.LFB119
 4881 005c 1A000000 		.4byte	.LFE119-.LFB119
 4882 0060 00000000 		.4byte	.LFB120
 4883 0064 1A000000 		.4byte	.LFE120-.LFB120
 4884 0068 00000000 		.4byte	.LFB121
 4885 006c 1A000000 		.4byte	.LFE121-.LFB121
 4886 0070 00000000 		.4byte	.LFB122
 4887 0074 1A000000 		.4byte	.LFE122-.LFB122
 4888 0078 00000000 		.4byte	.LFB123
 4889 007c 1E000000 		.4byte	.LFE123-.LFB123
 4890 0080 00000000 		.4byte	.LFB124
 4891 0084 1E000000 		.4byte	.LFE124-.LFB124
 4892 0088 00000000 		.4byte	.LFB125
 4893 008c 1E000000 		.4byte	.LFE125-.LFB125
 4894 0090 00000000 		.4byte	.LFB126
 4895 0094 1A000000 		.4byte	.LFE126-.LFB126
 4896 0098 00000000 		.4byte	.LFB127
 4897 009c 04000000 		.4byte	.LFE127-.LFB127
 4898 00a0 00000000 		.4byte	.LFB128
 4899 00a4 06000000 		.4byte	.LFE128-.LFB128
 4900 00a8 00000000 		.4byte	.LFB129
 4901 00ac 1A000000 		.4byte	.LFE129-.LFB129
 4902 00b0 00000000 		.4byte	.LFB130
 4903 00b4 1E000000 		.4byte	.LFE130-.LFB130
 4904 00b8 00000000 		.4byte	.LFB131
 4905 00bc 1A000000 		.4byte	.LFE131-.LFB131
 4906 00c0 00000000 		.4byte	.LFB132
 4907 00c4 08000000 		.4byte	.LFE132-.LFB132
 4908 00c8 00000000 		.4byte	.LFB133
 4909 00cc 1A000000 		.4byte	.LFE133-.LFB133
 4910 00d0 00000000 		.4byte	.LFB134
 4911 00d4 1A000000 		.4byte	.LFE134-.LFB134
 4912 00d8 00000000 		.4byte	.LFB135
 4913 00dc 18000000 		.4byte	.LFE135-.LFB135
 4914 00e0 00000000 		.4byte	.LFB136
 4915 00e4 14000000 		.4byte	.LFE136-.LFB136
 4916 00e8 00000000 		.4byte	.LFB137
 4917 00ec 18000000 		.4byte	.LFE137-.LFB137
 4918 00f0 00000000 		.4byte	.LFB138
 4919 00f4 10000000 		.4byte	.LFE138-.LFB138
ARM GAS  C:\Users\CNous\AppData\Local\Temp\ccLIBeCO.s 			page 113


 4920 00f8 00000000 		.4byte	.LFB139
 4921 00fc 36000000 		.4byte	.LFE139-.LFB139
 4922 0100 00000000 		.4byte	.LFB140
 4923 0104 08000000 		.4byte	.LFE140-.LFB140
 4924 0108 00000000 		.4byte	.LFB141
 4925 010c 1E000000 		.4byte	.LFE141-.LFB141
 4926 0110 00000000 		.4byte	.LFB142
 4927 0114 08000000 		.4byte	.LFE142-.LFB142
 4928 0118 00000000 		.4byte	0
 4929 011c 00000000 		.4byte	0
 4930              		.section	.debug_ranges,"",%progbits
 4931              	.Ldebug_ranges0:
 4932 0000 00000000 		.4byte	.LFB110
 4933 0004 70000000 		.4byte	.LFE110
 4934 0008 00000000 		.4byte	.LFB111
 4935 000c E8000000 		.4byte	.LFE111
 4936 0010 00000000 		.4byte	.LFB112
 4937 0014 1C000000 		.4byte	.LFE112
 4938 0018 00000000 		.4byte	.LFB113
 4939 001c 1A000000 		.4byte	.LFE113
 4940 0020 00000000 		.4byte	.LFB114
 4941 0024 1A000000 		.4byte	.LFE114
 4942 0028 00000000 		.4byte	.LFB115
 4943 002c 1A000000 		.4byte	.LFE115
 4944 0030 00000000 		.4byte	.LFB116
 4945 0034 12000000 		.4byte	.LFE116
 4946 0038 00000000 		.4byte	.LFB117
 4947 003c 1A000000 		.4byte	.LFE117
 4948 0040 00000000 		.4byte	.LFB118
 4949 0044 14000000 		.4byte	.LFE118
 4950 0048 00000000 		.4byte	.LFB119
 4951 004c 1A000000 		.4byte	.LFE119
 4952 0050 00000000 		.4byte	.LFB120
 4953 0054 1A000000 		.4byte	.LFE120
 4954 0058 00000000 		.4byte	.LFB121
 4955 005c 1A000000 		.4byte	.LFE121
 4956 0060 00000000 		.4byte	.LFB122
 4957 0064 1A000000 		.4byte	.LFE122
 4958 0068 00000000 		.4byte	.LFB123
 4959 006c 1E000000 		.4byte	.LFE123
 4960 0070 00000000 		.4byte	.LFB124
 4961 0074 1E000000 		.4byte	.LFE124
 4962 0078 00000000 		.4byte	.LFB125
 4963 007c 1E000000 		.4byte	.LFE125
 4964 0080 00000000 		.4byte	.LFB126
 4965 0084 1A000000 		.4byte	.LFE126
 4966 0088 00000000 		.4byte	.LFB127
 4967 008c 04000000 		.4byte	.LFE127
 4968 0090 00000000 		.4byte	.LFB128
 4969 0094 06000000 		.4byte	.LFE128
 4970 0098 00000000 		.4byte	.LFB129
 4971 009c 1A000000 		.4byte	.LFE129
 4972 00a0 00000000 		.4byte	.LFB130
 4973 00a4 1E000000 		.4byte	.LFE130
 4974 00a8 00000000 		.4byte	.LFB131
 4975 00ac 1A000000 		.4byte	.LFE131
 4976 00b0 00000000 		.4byte	.LFB132
ARM GAS  C:\Users\CNous\AppData\Local\Temp\ccLIBeCO.s 			page 114


 4977 00b4 08000000 		.4byte	.LFE132
 4978 00b8 00000000 		.4byte	.LFB133
 4979 00bc 1A000000 		.4byte	.LFE133
 4980 00c0 00000000 		.4byte	.LFB134
 4981 00c4 1A000000 		.4byte	.LFE134
 4982 00c8 00000000 		.4byte	.LFB135
 4983 00cc 18000000 		.4byte	.LFE135
 4984 00d0 00000000 		.4byte	.LFB136
 4985 00d4 14000000 		.4byte	.LFE136
 4986 00d8 00000000 		.4byte	.LFB137
 4987 00dc 18000000 		.4byte	.LFE137
 4988 00e0 00000000 		.4byte	.LFB138
 4989 00e4 10000000 		.4byte	.LFE138
 4990 00e8 00000000 		.4byte	.LFB139
 4991 00ec 36000000 		.4byte	.LFE139
 4992 00f0 00000000 		.4byte	.LFB140
 4993 00f4 08000000 		.4byte	.LFE140
 4994 00f8 00000000 		.4byte	.LFB141
 4995 00fc 1E000000 		.4byte	.LFE141
 4996 0100 00000000 		.4byte	.LFB142
 4997 0104 08000000 		.4byte	.LFE142
 4998 0108 00000000 		.4byte	0
 4999 010c 00000000 		.4byte	0
 5000              		.section	.debug_line,"",%progbits
 5001              	.Ldebug_line0:
 5002 0000 40040000 		.section	.debug_str,"MS",%progbits,1
 5002      02000501 
 5002      00000201 
 5002      FB0E0D00 
 5002      01010101 
 5003              	.LASF87:
 5004 0000 4932435F 		.ascii	"I2C_ReadRegister\000"
 5004      52656164 
 5004      52656769 
 5004      73746572 
 5004      00
 5005              	.LASF25:
 5006 0011 4F415231 		.ascii	"OAR1\000"
 5006      00
 5007              	.LASF54:
 5008 0016 72657375 		.ascii	"result\000"
 5008      6C7400
 5009              	.LASF98:
 5010 001d 4932435F 		.ascii	"I2C_GetFlagStatus\000"
 5010      47657446 
 5010      6C616753 
 5010      74617475 
 5010      7300
 5011              	.LASF69:
 5012 002f 4932435F 		.ascii	"I2C_SoftwareResetCmd\000"
 5012      536F6674 
 5012      77617265 
 5012      52657365 
 5012      74436D64 
 5013              	.LASF90:
 5014 0044 4932435F 		.ascii	"I2C_IT\000"
 5014      495400
ARM GAS  C:\Users\CNous\AppData\Local\Temp\ccLIBeCO.s 			page 115


 5015              	.LASF93:
 5016 004b 6C617374 		.ascii	"lastevent\000"
 5016      6576656E 
 5016      7400
 5017              	.LASF52:
 5018 0055 746D7072 		.ascii	"tmpreg\000"
 5018      656700
 5019              	.LASF72:
 5020 005c 4932435F 		.ascii	"I2C_NACKPositionConfig\000"
 5020      4E41434B 
 5020      506F7369 
 5020      74696F6E 
 5020      436F6E66 
 5021              	.LASF13:
 5022 0073 73697A65 		.ascii	"sizetype\000"
 5022      74797065 
 5022      00
 5023              	.LASF37:
 5024 007c 48434C4B 		.ascii	"HCLK_Frequency\000"
 5024      5F467265 
 5024      7175656E 
 5024      637900
 5025              	.LASF46:
 5026 008b 4932435F 		.ascii	"I2C_AcknowledgedAddress\000"
 5026      41636B6E 
 5026      6F776C65 
 5026      64676564 
 5026      41646472 
 5027              	.LASF58:
 5028 00a3 4932435F 		.ascii	"I2C_Cmd\000"
 5028      436D6400 
 5029              	.LASF65:
 5030 00ab 4932435F 		.ascii	"I2C_AcknowledgeConfig\000"
 5030      41636B6E 
 5030      6F776C65 
 5030      64676543 
 5030      6F6E6669 
 5031              	.LASF50:
 5032 00c1 49324378 		.ascii	"I2Cx\000"
 5032      00
 5033              	.LASF56:
 5034 00c6 7263635F 		.ascii	"rcc_clocks\000"
 5034      636C6F63 
 5034      6B7300
 5035              	.LASF63:
 5036 00d1 41646472 		.ascii	"Address\000"
 5036      65737300 
 5037              	.LASF107:
 5038 00d9 4932435F 		.ascii	"I2C_ClearITPendingBit\000"
 5038      436C6561 
 5038      72495450 
 5038      656E6469 
 5038      6E674269 
 5039              	.LASF77:
 5040 00ef 4932435F 		.ascii	"I2C_SendData\000"
 5040      53656E64 
 5040      44617461 
ARM GAS  C:\Users\CNous\AppData\Local\Temp\ccLIBeCO.s 			page 116


 5040      00
 5041              	.LASF40:
 5042 00fc 5243435F 		.ascii	"RCC_ClocksTypeDef\000"
 5042      436C6F63 
 5042      6B735479 
 5042      70654465 
 5042      6600
 5043              	.LASF47:
 5044 010e 4932435F 		.ascii	"I2C_InitTypeDef\000"
 5044      496E6974 
 5044      54797065 
 5044      44656600 
 5045              	.LASF99:
 5046 011e 4932435F 		.ascii	"I2C_FLAG\000"
 5046      464C4147 
 5046      00
 5047              	.LASF73:
 5048 0127 4932435F 		.ascii	"I2C_NACKPosition\000"
 5048      4E41434B 
 5048      506F7369 
 5048      74696F6E 
 5048      00
 5049              	.LASF4:
 5050 0138 75696E74 		.ascii	"uint8_t\000"
 5050      385F7400 
 5051              	.LASF74:
 5052 0140 4932435F 		.ascii	"I2C_SMBusAlertConfig\000"
 5052      534D4275 
 5052      73416C65 
 5052      7274436F 
 5052      6E666967 
 5053              	.LASF94:
 5054 0155 666C6167 		.ascii	"flag1\000"
 5054      3100
 5055              	.LASF95:
 5056 015b 666C6167 		.ascii	"flag2\000"
 5056      3200
 5057              	.LASF82:
 5058 0161 4932435F 		.ascii	"I2C_CalculatePEC\000"
 5058      43616C63 
 5058      756C6174 
 5058      65504543 
 5058      00
 5059              	.LASF75:
 5060 0172 4932435F 		.ascii	"I2C_SMBusAlert\000"
 5060      534D4275 
 5060      73416C65 
 5060      727400
 5061              	.LASF3:
 5062 0181 73686F72 		.ascii	"short int\000"
 5062      7420696E 
 5062      7400
 5063              	.LASF55:
 5064 018b 70636C6B 		.ascii	"pclk1\000"
 5064      3100
 5065              	.LASF106:
 5066 0191 656E6162 		.ascii	"enablestatus\000"
ARM GAS  C:\Users\CNous\AppData\Local\Temp\ccLIBeCO.s 			page 117


 5066      6C657374 
 5066      61747573 
 5066      00
 5067              	.LASF85:
 5068 019e 4932435F 		.ascii	"I2C_DMACmd\000"
 5068      444D4143 
 5068      6D6400
 5069              	.LASF86:
 5070 01a9 4932435F 		.ascii	"I2C_DMALastTransferCmd\000"
 5070      444D414C 
 5070      61737454 
 5070      72616E73 
 5070      66657243 
 5071              	.LASF11:
 5072 01c0 6C6F6E67 		.ascii	"long long int\000"
 5072      206C6F6E 
 5072      6720696E 
 5072      7400
 5073              	.LASF84:
 5074 01ce 4932435F 		.ascii	"I2C_GetPEC\000"
 5074      47657450 
 5074      454300
 5075              	.LASF108:
 5076 01d9 5243435F 		.ascii	"RCC_APB1PeriphResetCmd\000"
 5076      41504231 
 5076      50657269 
 5076      70685265 
 5076      73657443 
 5077              	.LASF16:
 5078 01f0 49545374 		.ascii	"ITStatus\000"
 5078      61747573 
 5078      00
 5079              	.LASF27:
 5080 01f9 4F415232 		.ascii	"OAR2\000"
 5080      00
 5081              	.LASF8:
 5082 01fe 6C6F6E67 		.ascii	"long int\000"
 5082      20696E74 
 5082      00
 5083              	.LASF22:
 5084 0207 4572726F 		.ascii	"ErrorStatus\000"
 5084      72537461 
 5084      74757300 
 5085              	.LASF67:
 5086 0213 4932435F 		.ascii	"I2C_DualAddressCmd\000"
 5086      4475616C 
 5086      41646472 
 5086      65737343 
 5086      6D6400
 5087              	.LASF68:
 5088 0226 4932435F 		.ascii	"I2C_GeneralCallCmd\000"
 5088      47656E65 
 5088      72616C43 
 5088      616C6C43 
 5088      6D6400
 5089              	.LASF102:
 5090 0239 69326378 		.ascii	"i2cxbase\000"
ARM GAS  C:\Users\CNous\AppData\Local\Temp\ccLIBeCO.s 			page 118


 5090      62617365 
 5090      00
 5091              	.LASF20:
 5092 0242 4552524F 		.ascii	"ERROR\000"
 5092      5200
 5093              	.LASF78:
 5094 0248 44617461 		.ascii	"Data\000"
 5094      00
 5095              	.LASF66:
 5096 024d 4932435F 		.ascii	"I2C_OwnAddress2Config\000"
 5096      4F776E41 
 5096      64647265 
 5096      73733243 
 5096      6F6E6669 
 5097              	.LASF35:
 5098 0263 4932435F 		.ascii	"I2C_TypeDef\000"
 5098      54797065 
 5098      44656600 
 5099              	.LASF104:
 5100 026f 666C6167 		.ascii	"flagpos\000"
 5100      706F7300 
 5101              	.LASF100:
 5102 0277 62697473 		.ascii	"bitstatus\000"
 5102      74617475 
 5102      7300
 5103              	.LASF42:
 5104 0281 4932435F 		.ascii	"I2C_Mode\000"
 5104      4D6F6465 
 5104      00
 5105              	.LASF59:
 5106 028a 4E657753 		.ascii	"NewState\000"
 5106      74617465 
 5106      00
 5107              	.LASF101:
 5108 0293 69326372 		.ascii	"i2creg\000"
 5108      656700
 5109              	.LASF83:
 5110 029a 4932435F 		.ascii	"I2C_ReceiveData\000"
 5110      52656365 
 5110      69766544 
 5110      61746100 
 5111              	.LASF2:
 5112 02aa 756E7369 		.ascii	"unsigned char\000"
 5112      676E6564 
 5112      20636861 
 5112      7200
 5113              	.LASF71:
 5114 02b8 4932435F 		.ascii	"I2C_FastModeDutyCycleConfig\000"
 5114      46617374 
 5114      4D6F6465 
 5114      44757479 
 5114      4379636C 
 5115              	.LASF1:
 5116 02d4 7369676E 		.ascii	"signed char\000"
 5116      65642063 
 5116      68617200 
 5117              	.LASF12:
ARM GAS  C:\Users\CNous\AppData\Local\Temp\ccLIBeCO.s 			page 119


 5118 02e0 6C6F6E67 		.ascii	"long long unsigned int\000"
 5118      206C6F6E 
 5118      6720756E 
 5118      7369676E 
 5118      65642069 
 5119              	.LASF9:
 5120 02f7 75696E74 		.ascii	"uint32_t\000"
 5120      33325F74 
 5120      00
 5121              	.LASF0:
 5122 0300 756E7369 		.ascii	"unsigned int\000"
 5122      676E6564 
 5122      20696E74 
 5122      00
 5123              	.LASF89:
 5124 030d 4932435F 		.ascii	"I2C_ITConfig\000"
 5124      4954436F 
 5124      6E666967 
 5124      00
 5125              	.LASF92:
 5126 031a 4932435F 		.ascii	"I2C_EVENT\000"
 5126      4556454E 
 5126      5400
 5127              	.LASF10:
 5128 0324 6C6F6E67 		.ascii	"long unsigned int\000"
 5128      20756E73 
 5128      69676E65 
 5128      6420696E 
 5128      7400
 5129              	.LASF61:
 5130 0336 4932435F 		.ascii	"I2C_GenerateSTOP\000"
 5130      47656E65 
 5130      72617465 
 5130      53544F50 
 5130      00
 5131              	.LASF21:
 5132 0347 53554343 		.ascii	"SUCCESS\000"
 5132      45535300 
 5133              	.LASF6:
 5134 034f 73686F72 		.ascii	"short unsigned int\000"
 5134      7420756E 
 5134      7369676E 
 5134      65642069 
 5134      6E7400
 5135              	.LASF96:
 5136 0362 73746174 		.ascii	"status\000"
 5136      757300
 5137              	.LASF103:
 5138 0369 4932435F 		.ascii	"I2C_ClearFlag\000"
 5138      436C6561 
 5138      72466C61 
 5138      6700
 5139              	.LASF97:
 5140 0377 4932435F 		.ascii	"I2C_GetLastEvent\000"
 5140      4765744C 
 5140      61737445 
 5140      76656E74 
ARM GAS  C:\Users\CNous\AppData\Local\Temp\ccLIBeCO.s 			page 120


 5140      00
 5141              	.LASF5:
 5142 0388 75696E74 		.ascii	"uint16_t\000"
 5142      31365F74 
 5142      00
 5143              	.LASF17:
 5144 0391 44495341 		.ascii	"DISABLE\000"
 5144      424C4500 
 5145              	.LASF7:
 5146 0399 696E7433 		.ascii	"int32_t\000"
 5146      325F7400 
 5147              	.LASF88:
 5148 03a1 4932435F 		.ascii	"I2C_Register\000"
 5148      52656769 
 5148      73746572 
 5148      00
 5149              	.LASF60:
 5150 03ae 4932435F 		.ascii	"I2C_GenerateSTART\000"
 5150      47656E65 
 5150      72617465 
 5150      53544152 
 5150      5400
 5151              	.LASF36:
 5152 03c0 53595343 		.ascii	"SYSCLK_Frequency\000"
 5152      4C4B5F46 
 5152      72657175 
 5152      656E6379 
 5152      00
 5153              	.LASF44:
 5154 03d1 4932435F 		.ascii	"I2C_OwnAddress1\000"
 5154      4F776E41 
 5154      64647265 
 5154      73733100 
 5155              	.LASF76:
 5156 03e1 4932435F 		.ascii	"I2C_ARPCmd\000"
 5156      41525043 
 5156      6D6400
 5157              	.LASF64:
 5158 03ec 4932435F 		.ascii	"I2C_Direction\000"
 5158      44697265 
 5158      6374696F 
 5158      6E00
 5159              	.LASF45:
 5160 03fa 4932435F 		.ascii	"I2C_Ack\000"
 5160      41636B00 
 5161              	.LASF23:
 5162 0402 52455345 		.ascii	"RESERVED0\000"
 5162      52564544 
 5162      3000
 5163              	.LASF24:
 5164 040c 52455345 		.ascii	"RESERVED1\000"
 5164      52564544 
 5164      3100
 5165              	.LASF26:
 5166 0416 52455345 		.ascii	"RESERVED2\000"
 5166      52564544 
 5166      3200
ARM GAS  C:\Users\CNous\AppData\Local\Temp\ccLIBeCO.s 			page 121


 5167              	.LASF28:
 5168 0420 52455345 		.ascii	"RESERVED3\000"
 5168      52564544 
 5168      3300
 5169              	.LASF29:
 5170 042a 52455345 		.ascii	"RESERVED4\000"
 5170      52564544 
 5170      3400
 5171              	.LASF30:
 5172 0434 52455345 		.ascii	"RESERVED5\000"
 5172      52564544 
 5172      3500
 5173              	.LASF31:
 5174 043e 52455345 		.ascii	"RESERVED6\000"
 5174      52564544 
 5174      3600
 5175              	.LASF32:
 5176 0448 52455345 		.ascii	"RESERVED7\000"
 5176      52564544 
 5176      3700
 5177              	.LASF34:
 5178 0452 52455345 		.ascii	"RESERVED8\000"
 5178      52564544 
 5178      3800
 5179              	.LASF80:
 5180 045c 4932435F 		.ascii	"I2C_PECPositionConfig\000"
 5180      50454350 
 5180      6F736974 
 5180      696F6E43 
 5180      6F6E6669 
 5181              	.LASF110:
 5182 0472 474E5520 		.ascii	"GNU C 4.7.3 20121207 (release) [ARM/embedded-4_7-br"
 5182      4320342E 
 5182      372E3320 
 5182      32303132 
 5182      31323037 
 5183 04a5 616E6368 		.ascii	"anch revision 194305]\000"
 5183      20726576 
 5183      6973696F 
 5183      6E203139 
 5183      34333035 
 5184              	.LASF53:
 5185 04bb 66726571 		.ascii	"freqrange\000"
 5185      72616E67 
 5185      6500
 5186              	.LASF19:
 5187 04c5 46756E63 		.ascii	"FunctionalState\000"
 5187      74696F6E 
 5187      616C5374 
 5187      61746500 
 5188              	.LASF57:
 5189 04d5 4932435F 		.ascii	"I2C_StructInit\000"
 5189      53747275 
 5189      6374496E 
 5189      697400
 5190              	.LASF38:
 5191 04e4 50434C4B 		.ascii	"PCLK1_Frequency\000"
ARM GAS  C:\Users\CNous\AppData\Local\Temp\ccLIBeCO.s 			page 122


 5191      315F4672 
 5191      65717565 
 5191      6E637900 
 5192              	.LASF48:
 5193 04f4 4932435F 		.ascii	"I2C_DeInit\000"
 5193      4465496E 
 5193      697400
 5194              	.LASF39:
 5195 04ff 50434C4B 		.ascii	"PCLK2_Frequency\000"
 5195      325F4672 
 5195      65717565 
 5195      6E637900 
 5196              	.LASF109:
 5197 050f 5243435F 		.ascii	"RCC_GetClocksFreq\000"
 5197      47657443 
 5197      6C6F636B 
 5197      73467265 
 5197      7100
 5198              	.LASF14:
 5199 0521 52455345 		.ascii	"RESET\000"
 5199      5400
 5200              	.LASF111:
 5201 0527 636D7369 		.ascii	"cmsis/device/stm32f4xx_i2c.c\000"
 5201      732F6465 
 5201      76696365 
 5201      2F73746D 
 5201      33326634 
 5202              	.LASF51:
 5203 0544 4932435F 		.ascii	"I2C_InitStruct\000"
 5203      496E6974 
 5203      53747275 
 5203      637400
 5204              	.LASF70:
 5205 0553 4932435F 		.ascii	"I2C_StretchClockCmd\000"
 5205      53747265 
 5205      74636843 
 5205      6C6F636B 
 5205      436D6400 
 5206              	.LASF41:
 5207 0567 4932435F 		.ascii	"I2C_ClockSpeed\000"
 5207      436C6F63 
 5207      6B537065 
 5207      656400
 5208              	.LASF105:
 5209 0576 4932435F 		.ascii	"I2C_GetITStatus\000"
 5209      47657449 
 5209      54537461 
 5209      74757300 
 5210              	.LASF79:
 5211 0586 4932435F 		.ascii	"I2C_TransmitPEC\000"
 5211      5472616E 
 5211      736D6974 
 5211      50454300 
 5212              	.LASF81:
 5213 0596 4932435F 		.ascii	"I2C_PECPosition\000"
 5213      50454350 
 5213      6F736974 
ARM GAS  C:\Users\CNous\AppData\Local\Temp\ccLIBeCO.s 			page 123


 5213      696F6E00 
 5214              	.LASF33:
 5215 05a6 54524953 		.ascii	"TRISE\000"
 5215      4500
 5216              	.LASF43:
 5217 05ac 4932435F 		.ascii	"I2C_DutyCycle\000"
 5217      44757479 
 5217      4379636C 
 5217      6500
 5218              	.LASF113:
 5219 05ba 49544D5F 		.ascii	"ITM_RxBuffer\000"
 5219      52784275 
 5219      66666572 
 5219      00
 5220              	.LASF49:
 5221 05c7 4932435F 		.ascii	"I2C_Init\000"
 5221      496E6974 
 5221      00
 5222              	.LASF62:
 5223 05d0 4932435F 		.ascii	"I2C_Send7bitAddress\000"
 5223      53656E64 
 5223      37626974 
 5223      41646472 
 5223      65737300 
 5224              	.LASF91:
 5225 05e4 4932435F 		.ascii	"I2C_CheckEvent\000"
 5225      43686563 
 5225      6B457665 
 5225      6E7400
 5226              	.LASF15:
 5227 05f3 466C6167 		.ascii	"FlagStatus\000"
 5227      53746174 
 5227      757300
 5228              	.LASF18:
 5229 05fe 454E4142 		.ascii	"ENABLE\000"
 5229      4C4500
 5230              	.LASF112:
 5231 0605 433A5C78 		.ascii	"C:\\xav_dev\\eclipse\\ambiantiseur-make\000"
 5231      61765F64 
 5231      65765C65 
 5231      636C6970 
 5231      73655C61 
 5232              		.ident	"GCC: (GNU Tools for ARM Embedded Processors) 4.7.3 20121207 (release) [ARM/embedded-4_7-br
ARM GAS  C:\Users\CNous\AppData\Local\Temp\ccLIBeCO.s 			page 124


DEFINED SYMBOLS
                            *ABS*:00000000 stm32f4xx_i2c.c
C:\Users\CNous\AppData\Local\Temp\ccLIBeCO.s:71     .text.I2C_DeInit:00000000 $t
C:\Users\CNous\AppData\Local\Temp\ccLIBeCO.s:76     .text.I2C_DeInit:00000000 I2C_DeInit
C:\Users\CNous\AppData\Local\Temp\ccLIBeCO.s:154    .text.I2C_Init:00000000 $t
C:\Users\CNous\AppData\Local\Temp\ccLIBeCO.s:159    .text.I2C_Init:00000000 I2C_Init
C:\Users\CNous\AppData\Local\Temp\ccLIBeCO.s:346    .text.I2C_StructInit:00000000 $t
C:\Users\CNous\AppData\Local\Temp\ccLIBeCO.s:351    .text.I2C_StructInit:00000000 I2C_StructInit
C:\Users\CNous\AppData\Local\Temp\ccLIBeCO.s:384    .text.I2C_Cmd:00000000 $t
C:\Users\CNous\AppData\Local\Temp\ccLIBeCO.s:389    .text.I2C_Cmd:00000000 I2C_Cmd
C:\Users\CNous\AppData\Local\Temp\ccLIBeCO.s:420    .text.I2C_GenerateSTART:00000000 $t
C:\Users\CNous\AppData\Local\Temp\ccLIBeCO.s:425    .text.I2C_GenerateSTART:00000000 I2C_GenerateSTART
C:\Users\CNous\AppData\Local\Temp\ccLIBeCO.s:456    .text.I2C_GenerateSTOP:00000000 $t
C:\Users\CNous\AppData\Local\Temp\ccLIBeCO.s:461    .text.I2C_GenerateSTOP:00000000 I2C_GenerateSTOP
C:\Users\CNous\AppData\Local\Temp\ccLIBeCO.s:492    .text.I2C_Send7bitAddress:00000000 $t
C:\Users\CNous\AppData\Local\Temp\ccLIBeCO.s:497    .text.I2C_Send7bitAddress:00000000 I2C_Send7bitAddress
C:\Users\CNous\AppData\Local\Temp\ccLIBeCO.s:524    .text.I2C_AcknowledgeConfig:00000000 $t
C:\Users\CNous\AppData\Local\Temp\ccLIBeCO.s:529    .text.I2C_AcknowledgeConfig:00000000 I2C_AcknowledgeConfig
C:\Users\CNous\AppData\Local\Temp\ccLIBeCO.s:560    .text.I2C_OwnAddress2Config:00000000 $t
C:\Users\CNous\AppData\Local\Temp\ccLIBeCO.s:565    .text.I2C_OwnAddress2Config:00000000 I2C_OwnAddress2Config
C:\Users\CNous\AppData\Local\Temp\ccLIBeCO.s:595    .text.I2C_DualAddressCmd:00000000 $t
C:\Users\CNous\AppData\Local\Temp\ccLIBeCO.s:600    .text.I2C_DualAddressCmd:00000000 I2C_DualAddressCmd
C:\Users\CNous\AppData\Local\Temp\ccLIBeCO.s:631    .text.I2C_GeneralCallCmd:00000000 $t
C:\Users\CNous\AppData\Local\Temp\ccLIBeCO.s:636    .text.I2C_GeneralCallCmd:00000000 I2C_GeneralCallCmd
C:\Users\CNous\AppData\Local\Temp\ccLIBeCO.s:667    .text.I2C_SoftwareResetCmd:00000000 $t
C:\Users\CNous\AppData\Local\Temp\ccLIBeCO.s:672    .text.I2C_SoftwareResetCmd:00000000 I2C_SoftwareResetCmd
C:\Users\CNous\AppData\Local\Temp\ccLIBeCO.s:703    .text.I2C_StretchClockCmd:00000000 $t
C:\Users\CNous\AppData\Local\Temp\ccLIBeCO.s:708    .text.I2C_StretchClockCmd:00000000 I2C_StretchClockCmd
C:\Users\CNous\AppData\Local\Temp\ccLIBeCO.s:739    .text.I2C_FastModeDutyCycleConfig:00000000 $t
C:\Users\CNous\AppData\Local\Temp\ccLIBeCO.s:744    .text.I2C_FastModeDutyCycleConfig:00000000 I2C_FastModeDutyCycleConfig
C:\Users\CNous\AppData\Local\Temp\ccLIBeCO.s:777    .text.I2C_NACKPositionConfig:00000000 $t
C:\Users\CNous\AppData\Local\Temp\ccLIBeCO.s:782    .text.I2C_NACKPositionConfig:00000000 I2C_NACKPositionConfig
C:\Users\CNous\AppData\Local\Temp\ccLIBeCO.s:815    .text.I2C_SMBusAlertConfig:00000000 $t
C:\Users\CNous\AppData\Local\Temp\ccLIBeCO.s:820    .text.I2C_SMBusAlertConfig:00000000 I2C_SMBusAlertConfig
C:\Users\CNous\AppData\Local\Temp\ccLIBeCO.s:853    .text.I2C_ARPCmd:00000000 $t
C:\Users\CNous\AppData\Local\Temp\ccLIBeCO.s:858    .text.I2C_ARPCmd:00000000 I2C_ARPCmd
C:\Users\CNous\AppData\Local\Temp\ccLIBeCO.s:889    .text.I2C_SendData:00000000 $t
C:\Users\CNous\AppData\Local\Temp\ccLIBeCO.s:894    .text.I2C_SendData:00000000 I2C_SendData
C:\Users\CNous\AppData\Local\Temp\ccLIBeCO.s:909    .text.I2C_ReceiveData:00000000 $t
C:\Users\CNous\AppData\Local\Temp\ccLIBeCO.s:914    .text.I2C_ReceiveData:00000000 I2C_ReceiveData
C:\Users\CNous\AppData\Local\Temp\ccLIBeCO.s:932    .text.I2C_TransmitPEC:00000000 $t
C:\Users\CNous\AppData\Local\Temp\ccLIBeCO.s:937    .text.I2C_TransmitPEC:00000000 I2C_TransmitPEC
C:\Users\CNous\AppData\Local\Temp\ccLIBeCO.s:968    .text.I2C_PECPositionConfig:00000000 $t
C:\Users\CNous\AppData\Local\Temp\ccLIBeCO.s:973    .text.I2C_PECPositionConfig:00000000 I2C_PECPositionConfig
C:\Users\CNous\AppData\Local\Temp\ccLIBeCO.s:1006   .text.I2C_CalculatePEC:00000000 $t
C:\Users\CNous\AppData\Local\Temp\ccLIBeCO.s:1011   .text.I2C_CalculatePEC:00000000 I2C_CalculatePEC
C:\Users\CNous\AppData\Local\Temp\ccLIBeCO.s:1042   .text.I2C_GetPEC:00000000 $t
C:\Users\CNous\AppData\Local\Temp\ccLIBeCO.s:1047   .text.I2C_GetPEC:00000000 I2C_GetPEC
C:\Users\CNous\AppData\Local\Temp\ccLIBeCO.s:1065   .text.I2C_DMACmd:00000000 $t
C:\Users\CNous\AppData\Local\Temp\ccLIBeCO.s:1070   .text.I2C_DMACmd:00000000 I2C_DMACmd
C:\Users\CNous\AppData\Local\Temp\ccLIBeCO.s:1101   .text.I2C_DMALastTransferCmd:00000000 $t
C:\Users\CNous\AppData\Local\Temp\ccLIBeCO.s:1106   .text.I2C_DMALastTransferCmd:00000000 I2C_DMALastTransferCmd
C:\Users\CNous\AppData\Local\Temp\ccLIBeCO.s:1137   .text.I2C_ReadRegister:00000000 $t
C:\Users\CNous\AppData\Local\Temp\ccLIBeCO.s:1142   .text.I2C_ReadRegister:00000000 I2C_ReadRegister
C:\Users\CNous\AppData\Local\Temp\ccLIBeCO.s:1177   .text.I2C_ITConfig:00000000 $t
C:\Users\CNous\AppData\Local\Temp\ccLIBeCO.s:1182   .text.I2C_ITConfig:00000000 I2C_ITConfig
C:\Users\CNous\AppData\Local\Temp\ccLIBeCO.s:1211   .text.I2C_CheckEvent:00000000 $t
ARM GAS  C:\Users\CNous\AppData\Local\Temp\ccLIBeCO.s 			page 125


C:\Users\CNous\AppData\Local\Temp\ccLIBeCO.s:1216   .text.I2C_CheckEvent:00000000 I2C_CheckEvent
C:\Users\CNous\AppData\Local\Temp\ccLIBeCO.s:1248   .text.I2C_GetLastEvent:00000000 $t
C:\Users\CNous\AppData\Local\Temp\ccLIBeCO.s:1253   .text.I2C_GetLastEvent:00000000 I2C_GetLastEvent
C:\Users\CNous\AppData\Local\Temp\ccLIBeCO.s:1278   .text.I2C_GetFlagStatus:00000000 $t
C:\Users\CNous\AppData\Local\Temp\ccLIBeCO.s:1283   .text.I2C_GetFlagStatus:00000000 I2C_GetFlagStatus
C:\Users\CNous\AppData\Local\Temp\ccLIBeCO.s:1351   .text.I2C_ClearFlag:00000000 $t
C:\Users\CNous\AppData\Local\Temp\ccLIBeCO.s:1356   .text.I2C_ClearFlag:00000000 I2C_ClearFlag
C:\Users\CNous\AppData\Local\Temp\ccLIBeCO.s:1374   .text.I2C_GetITStatus:00000000 $t
C:\Users\CNous\AppData\Local\Temp\ccLIBeCO.s:1379   .text.I2C_GetITStatus:00000000 I2C_GetITStatus
C:\Users\CNous\AppData\Local\Temp\ccLIBeCO.s:1417   .text.I2C_ClearITPendingBit:00000000 $t
C:\Users\CNous\AppData\Local\Temp\ccLIBeCO.s:1422   .text.I2C_ClearITPendingBit:00000000 I2C_ClearITPendingBit
                     .debug_frame:00000010 $d

UNDEFINED SYMBOLS
RCC_APB1PeriphResetCmd
RCC_GetClocksFreq
