ARM GAS  C:\Users\CNous\AppData\Local\Temp\cckqqQjH.s 			page 1


   1              		.syntax unified
   2              		.cpu cortex-m4
   3              		.eabi_attribute 27, 3	@ Tag_ABI_HardFP_use
   4              		.eabi_attribute 28, 1	@ Tag_ABI_VFP_args
   5              		.fpu fpv4-sp-d16
   6              		.eabi_attribute 20, 1	@ Tag_ABI_FP_denormal
   7              		.eabi_attribute 21, 1	@ Tag_ABI_FP_exceptions
   8              		.eabi_attribute 23, 3	@ Tag_ABI_FP_number_model
   9              		.eabi_attribute 24, 1	@ Tag_ABI_align8_needed
  10              		.eabi_attribute 25, 1	@ Tag_ABI_align8_preserved
  11              		.eabi_attribute 26, 1	@ Tag_ABI_enum_size
  12              		.eabi_attribute 30, 2	@ Tag_ABI_optimization_goals
  13              		.eabi_attribute 34, 1	@ Tag_CPU_unaligned_access
  14              		.eabi_attribute 18, 4	@ Tag_ABI_PCS_wchar_t
  15              		.file	"stm32f4xx_rng.c"
  16              	@ GNU C (GNU Tools for ARM Embedded Processors) version 4.7.3 20121207 (release) [ARM/embedded-4_7-
  17              	@	compiled by GNU C version 4.2.1-sjlj (mingw32-2), GMP version 4.3.2, MPFR version 2.4.2, MPC vers
  18              	@ GGC heuristics: --param ggc-min-expand=100 --param ggc-min-heapsize=131072
  19              	@ options passed:  -I . -I ./inc -I ./cmsis/core -I ./cmsis/device
  20              	@ -imultilib armv7e-m/fpu
  21              	@ -iprefix c:\gnutoolsarmembedded\4.7-2012q4\bin\../lib/gcc/arm-none-eabi/4.7.3/
  22              	@ -isysroot c:\gnutoolsarmembedded\4.7-2012q4\bin\../arm-none-eabi
  23              	@ -MD cmsis/device/stm32f4xx_rng.d -MF .dep/stm32f4xx_rng.o.d -MP
  24              	@ -MQ cmsis/device/stm32f4xx_rng.o -D__USES_INITFINI__ -D __FPU_USED=1
  25              	@ -D __arm__ -D __ASSEMBLY__ -D USE_STDPERIPH_DRIVER -D STM32F4XX
  26              	@ -D HSE_VALUE=8000000 -D __FPU_PRESENT=1 -D STM32F407VG
  27              	@ -D RUN_FROM_FLASH=1 cmsis/device/stm32f4xx_rng.c -mthumb -mcpu=cortex-m4
  28              	@ -mfloat-abi=hard -mfpu=fpv4-sp-d16
  29              	@ -auxbase-strip cmsis/device/stm32f4xx_rng.o -gdwarf-2 -O2 -Wall
  30              	@ -Wstrict-prototypes -fverbose-asm -ffunction-sections -fdata-sections
  31              	@ options enabled:  -fauto-inc-dec -fbranch-count-reg -fcaller-saves
  32              	@ -fcombine-stack-adjustments -fcommon -fcompare-elim -fcprop-registers
  33              	@ -fcrossjumping -fcse-follow-jumps -fdata-sections -fdebug-types-section
  34              	@ -fdefer-pop -fdelete-null-pointer-checks -fdevirtualize -fdwarf2-cfi-asm
  35              	@ -fearly-inlining -feliminate-unused-debug-types -fexpensive-optimizations
  36              	@ -fforward-propagate -ffunction-cse -ffunction-sections -fgcse -fgcse-lm
  37              	@ -fgnu-runtime -fguess-branch-probability -fident -fif-conversion
  38              	@ -fif-conversion2 -findirect-inlining -finline -finline-atomics
  39              	@ -finline-functions-called-once -finline-small-functions -fipa-cp
  40              	@ -fipa-profile -fipa-pure-const -fipa-reference -fipa-sra
  41              	@ -fira-share-save-slots -fira-share-spill-slots -fivopts
  42              	@ -fkeep-static-consts -fleading-underscore -fmath-errno -fmerge-constants
  43              	@ -fmerge-debug-strings -fmove-loop-invariants -fomit-frame-pointer
  44              	@ -foptimize-register-move -foptimize-sibling-calls -foptimize-strlen
  45              	@ -fpartial-inlining -fpeephole -fpeephole2 -fprefetch-loop-arrays
  46              	@ -freg-struct-return -fregmove -frename-registers -freorder-blocks
  47              	@ -freorder-functions -frerun-cse-after-loop
  48              	@ -fsched-critical-path-heuristic -fsched-dep-count-heuristic
  49              	@ -fsched-group-heuristic -fsched-interblock -fsched-last-insn-heuristic
  50              	@ -fsched-rank-heuristic -fsched-spec -fsched-spec-insn-heuristic
  51              	@ -fsched-stalled-insns-dep -fschedule-insns -fschedule-insns2
  52              	@ -fsection-anchors -fshow-column -fshrink-wrap -fsigned-zeros
  53              	@ -fsplit-ivs-in-unroller -fsplit-wide-types -fstrict-aliasing
  54              	@ -fstrict-overflow -fstrict-volatile-bitfields -fthread-jumps
  55              	@ -ftoplevel-reorder -ftrapping-math -ftree-bit-ccp -ftree-builtin-call-dce
  56              	@ -ftree-ccp -ftree-ch -ftree-copy-prop -ftree-copyrename -ftree-cselim
  57              	@ -ftree-dce -ftree-dominator-opts -ftree-dse -ftree-forwprop -ftree-fre
ARM GAS  C:\Users\CNous\AppData\Local\Temp\cckqqQjH.s 			page 2


  58              	@ -ftree-loop-if-convert -ftree-loop-im -ftree-loop-ivcanon
  59              	@ -ftree-loop-optimize -ftree-parallelize-loops= -ftree-phiprop -ftree-pre
  60              	@ -ftree-pta -ftree-reassoc -ftree-scev-cprop -ftree-sink
  61              	@ -ftree-slp-vectorize -ftree-sra -ftree-switch-conversion
  62              	@ -ftree-tail-merge -ftree-ter -ftree-vect-loop-version -ftree-vrp
  63              	@ -funit-at-a-time -funroll-loops -fvar-tracking -fvar-tracking-assignments
  64              	@ -fverbose-asm -fweb -fzero-initialized-in-bss -mlittle-endian
  65              	@ -msched-prolog -mthumb -munaligned-access -mvectorize-with-neon-quad
  66              	
  67              		.text
  68              	.Ltext0:
  69              		.cfi_sections	.debug_frame
  70              		.section	.text.RNG_DeInit,"ax",%progbits
  71              		.align	2
  72              		.global	RNG_DeInit
  73              		.thumb
  74              		.thumb_func
  75              		.type	RNG_DeInit, %function
  76              	RNG_DeInit:
  77              	.LFB110:
  78              		.file 1 "cmsis/device/stm32f4xx_rng.c"
   1:cmsis/device/stm32f4xx_rng.c **** /**
   2:cmsis/device/stm32f4xx_rng.c ****   ******************************************************************************
   3:cmsis/device/stm32f4xx_rng.c ****   * @file    stm32f4xx_rng.c
   4:cmsis/device/stm32f4xx_rng.c ****   * @author  MCD Application Team
   5:cmsis/device/stm32f4xx_rng.c ****   * @version V1.0.0
   6:cmsis/device/stm32f4xx_rng.c ****   * @date    30-September-2011
   7:cmsis/device/stm32f4xx_rng.c ****     * @brief This file provides firmware functions to manage the following 
   8:cmsis/device/stm32f4xx_rng.c ****   *          functionalities of the Random Number Generator (RNG) peripheral:           
   9:cmsis/device/stm32f4xx_rng.c ****   *           - Initialization and Configuration 
  10:cmsis/device/stm32f4xx_rng.c ****   *           - Get 32 bit Random number      
  11:cmsis/device/stm32f4xx_rng.c ****   *           - Interrupts and flags management       
  12:cmsis/device/stm32f4xx_rng.c ****   *         
  13:cmsis/device/stm32f4xx_rng.c ****   *  @verbatim
  14:cmsis/device/stm32f4xx_rng.c ****   *                               
  15:cmsis/device/stm32f4xx_rng.c ****   *          ===================================================================      
  16:cmsis/device/stm32f4xx_rng.c ****   *                                   How to use this driver
  17:cmsis/device/stm32f4xx_rng.c ****   *          ===================================================================          
  18:cmsis/device/stm32f4xx_rng.c ****   *          1. Enable The RNG controller clock using 
  19:cmsis/device/stm32f4xx_rng.c ****   *            RCC_AHB2PeriphClockCmd(RCC_AHB2Periph_RNG, ENABLE) function.
  20:cmsis/device/stm32f4xx_rng.c ****   *              
  21:cmsis/device/stm32f4xx_rng.c ****   *          2. Activate the RNG peripheral using RNG_Cmd() function.
  22:cmsis/device/stm32f4xx_rng.c ****   *          
  23:cmsis/device/stm32f4xx_rng.c ****   *          3. Wait until the 32 bit Random number Generator contains a valid 
  24:cmsis/device/stm32f4xx_rng.c ****   *            random data (using polling/interrupt mode). For more details, 
  25:cmsis/device/stm32f4xx_rng.c ****   *            refer to "Interrupts and flags management functions" module 
  26:cmsis/device/stm32f4xx_rng.c ****   *            description.
  27:cmsis/device/stm32f4xx_rng.c ****   *           
  28:cmsis/device/stm32f4xx_rng.c ****   *          4. Get the 32 bit Random number using RNG_GetRandomNumber() function
  29:cmsis/device/stm32f4xx_rng.c ****   *          
  30:cmsis/device/stm32f4xx_rng.c ****   *          5. To get another 32 bit Random number, go to step 3.       
  31:cmsis/device/stm32f4xx_rng.c ****   *
  32:cmsis/device/stm32f4xx_rng.c ****   *         
  33:cmsis/device/stm32f4xx_rng.c ****   *              
  34:cmsis/device/stm32f4xx_rng.c ****   *  @endverbatim
  35:cmsis/device/stm32f4xx_rng.c ****   *         
  36:cmsis/device/stm32f4xx_rng.c ****   ******************************************************************************
ARM GAS  C:\Users\CNous\AppData\Local\Temp\cckqqQjH.s 			page 3


  37:cmsis/device/stm32f4xx_rng.c ****   * @attention
  38:cmsis/device/stm32f4xx_rng.c ****   *
  39:cmsis/device/stm32f4xx_rng.c ****   * THE PRESENT FIRMWARE WHICH IS FOR GUIDANCE ONLY AIMS AT PROVIDING CUSTOMERS
  40:cmsis/device/stm32f4xx_rng.c ****   * WITH CODING INFORMATION REGARDING THEIR PRODUCTS IN ORDER FOR THEM TO SAVE
  41:cmsis/device/stm32f4xx_rng.c ****   * TIME. AS A RESULT, STMICROELECTRONICS SHALL NOT BE HELD LIABLE FOR ANY
  42:cmsis/device/stm32f4xx_rng.c ****   * DIRECT, INDIRECT OR CONSEQUENTIAL DAMAGES WITH RESPECT TO ANY CLAIMS ARISING
  43:cmsis/device/stm32f4xx_rng.c ****   * FROM THE CONTENT OF SUCH FIRMWARE AND/OR THE USE MADE BY CUSTOMERS OF THE
  44:cmsis/device/stm32f4xx_rng.c ****   * CODING INFORMATION CONTAINED HEREIN IN CONNECTION WITH THEIR PRODUCTS.
  45:cmsis/device/stm32f4xx_rng.c ****   *
  46:cmsis/device/stm32f4xx_rng.c ****   * <h2><center>&copy; COPYRIGHT 2011 STMicroelectronics</center></h2>
  47:cmsis/device/stm32f4xx_rng.c ****   ******************************************************************************  
  48:cmsis/device/stm32f4xx_rng.c ****   */
  49:cmsis/device/stm32f4xx_rng.c **** 
  50:cmsis/device/stm32f4xx_rng.c **** /* Includes ------------------------------------------------------------------*/
  51:cmsis/device/stm32f4xx_rng.c **** #include "stm32f4xx_rng.h"
  52:cmsis/device/stm32f4xx_rng.c **** #include "stm32f4xx_rcc.h"
  53:cmsis/device/stm32f4xx_rng.c **** 
  54:cmsis/device/stm32f4xx_rng.c **** /** @addtogroup STM32F4xx_StdPeriph_Driver
  55:cmsis/device/stm32f4xx_rng.c ****   * @{
  56:cmsis/device/stm32f4xx_rng.c ****   */
  57:cmsis/device/stm32f4xx_rng.c **** 
  58:cmsis/device/stm32f4xx_rng.c **** /** @defgroup RNG 
  59:cmsis/device/stm32f4xx_rng.c ****   * @brief RNG driver modules
  60:cmsis/device/stm32f4xx_rng.c ****   * @{
  61:cmsis/device/stm32f4xx_rng.c ****   */ 
  62:cmsis/device/stm32f4xx_rng.c **** 
  63:cmsis/device/stm32f4xx_rng.c **** /* Private typedef -----------------------------------------------------------*/
  64:cmsis/device/stm32f4xx_rng.c **** /* Private define ------------------------------------------------------------*/
  65:cmsis/device/stm32f4xx_rng.c **** /* Private macro -------------------------------------------------------------*/
  66:cmsis/device/stm32f4xx_rng.c **** /* Private variables ---------------------------------------------------------*/
  67:cmsis/device/stm32f4xx_rng.c **** /* Private function prototypes -----------------------------------------------*/
  68:cmsis/device/stm32f4xx_rng.c **** /* Private functions ---------------------------------------------------------*/
  69:cmsis/device/stm32f4xx_rng.c **** 
  70:cmsis/device/stm32f4xx_rng.c **** /** @defgroup RNG_Private_Functions
  71:cmsis/device/stm32f4xx_rng.c ****   * @{
  72:cmsis/device/stm32f4xx_rng.c ****   */ 
  73:cmsis/device/stm32f4xx_rng.c **** 
  74:cmsis/device/stm32f4xx_rng.c **** /** @defgroup RNG_Group1 Initialization and Configuration functions
  75:cmsis/device/stm32f4xx_rng.c ****  *  @brief    Initialization and Configuration functions 
  76:cmsis/device/stm32f4xx_rng.c ****  *
  77:cmsis/device/stm32f4xx_rng.c **** @verbatim    
  78:cmsis/device/stm32f4xx_rng.c ****  ===============================================================================
  79:cmsis/device/stm32f4xx_rng.c ****                       Initialization and Configuration functions
  80:cmsis/device/stm32f4xx_rng.c ****  ===============================================================================  
  81:cmsis/device/stm32f4xx_rng.c ****   This section provides functions allowing to 
  82:cmsis/device/stm32f4xx_rng.c ****    - Initialize the RNG peripheral
  83:cmsis/device/stm32f4xx_rng.c ****    - Enable or disable the RNG peripheral
  84:cmsis/device/stm32f4xx_rng.c ****    
  85:cmsis/device/stm32f4xx_rng.c **** @endverbatim
  86:cmsis/device/stm32f4xx_rng.c ****   * @{
  87:cmsis/device/stm32f4xx_rng.c ****   */
  88:cmsis/device/stm32f4xx_rng.c **** 
  89:cmsis/device/stm32f4xx_rng.c **** /**
  90:cmsis/device/stm32f4xx_rng.c ****   * @brief  Deinitializes the RNG peripheral registers to their default reset values.
  91:cmsis/device/stm32f4xx_rng.c ****   * @param  None
  92:cmsis/device/stm32f4xx_rng.c ****   * @retval None
  93:cmsis/device/stm32f4xx_rng.c ****   */
ARM GAS  C:\Users\CNous\AppData\Local\Temp\cckqqQjH.s 			page 4


  94:cmsis/device/stm32f4xx_rng.c **** void RNG_DeInit(void)
  95:cmsis/device/stm32f4xx_rng.c **** {
  79              		.loc 1 95 0
  80              		.cfi_startproc
  81              		@ args = 0, pretend = 0, frame = 0
  82              		@ frame_needed = 0, uses_anonymous_args = 0
  83 0000 08B5     		push	{r3, lr}	@
  84              	.LCFI0:
  85              		.cfi_def_cfa_offset 8
  86              		.cfi_offset 3, -8
  87              		.cfi_offset 14, -4
  96:cmsis/device/stm32f4xx_rng.c ****   /* Enable RNG reset state */
  97:cmsis/device/stm32f4xx_rng.c ****   RCC_AHB2PeriphResetCmd(RCC_AHB2Periph_RNG, ENABLE);
  88              		.loc 1 97 0
  89 0002 4020     		movs	r0, #64	@,
  90 0004 0121     		movs	r1, #1	@,
  91 0006 FFF7FEFF 		bl	RCC_AHB2PeriphResetCmd	@
  92              	.LVL0:
  98:cmsis/device/stm32f4xx_rng.c **** 
  99:cmsis/device/stm32f4xx_rng.c ****   /* Release RNG from reset state */
 100:cmsis/device/stm32f4xx_rng.c ****   RCC_AHB2PeriphResetCmd(RCC_AHB2Periph_RNG, DISABLE);
  93              		.loc 1 100 0
  94 000a 4020     		movs	r0, #64	@,
  95 000c 0021     		movs	r1, #0	@,
 101:cmsis/device/stm32f4xx_rng.c **** }
  96              		.loc 1 101 0
  97 000e BDE80840 		pop	{r3, lr}	@
 100:cmsis/device/stm32f4xx_rng.c ****   RCC_AHB2PeriphResetCmd(RCC_AHB2Periph_RNG, DISABLE);
  98              		.loc 1 100 0
  99 0012 FFF7FEBF 		b	RCC_AHB2PeriphResetCmd	@
 100              	.LVL1:
 101              		.cfi_endproc
 102              	.LFE110:
 103              		.size	RNG_DeInit, .-RNG_DeInit
 104 0016 00BF     		.section	.text.RNG_Cmd,"ax",%progbits
 105              		.align	2
 106              		.global	RNG_Cmd
 107              		.thumb
 108              		.thumb_func
 109              		.type	RNG_Cmd, %function
 110              	RNG_Cmd:
 111              	.LFB111:
 102:cmsis/device/stm32f4xx_rng.c **** 
 103:cmsis/device/stm32f4xx_rng.c **** /**
 104:cmsis/device/stm32f4xx_rng.c ****   * @brief  Enables or disables the RNG peripheral.
 105:cmsis/device/stm32f4xx_rng.c ****   * @param  NewState: new state of the RNG peripheral.
 106:cmsis/device/stm32f4xx_rng.c ****   *          This parameter can be: ENABLE or DISABLE.
 107:cmsis/device/stm32f4xx_rng.c ****   * @retval None
 108:cmsis/device/stm32f4xx_rng.c ****   */
 109:cmsis/device/stm32f4xx_rng.c **** void RNG_Cmd(FunctionalState NewState)
 110:cmsis/device/stm32f4xx_rng.c **** {
 112              		.loc 1 110 0
 113              		.cfi_startproc
 114              		@ args = 0, pretend = 0, frame = 0
 115              		@ frame_needed = 0, uses_anonymous_args = 0
 116              		@ link register save eliminated.
 117              	.LVL2:
ARM GAS  C:\Users\CNous\AppData\Local\Temp\cckqqQjH.s 			page 5


 111:cmsis/device/stm32f4xx_rng.c ****   /* Check the parameters */
 112:cmsis/device/stm32f4xx_rng.c ****   assert_param(IS_FUNCTIONAL_STATE(NewState));
 113:cmsis/device/stm32f4xx_rng.c **** 
 114:cmsis/device/stm32f4xx_rng.c ****   if (NewState != DISABLE)
 115:cmsis/device/stm32f4xx_rng.c ****   {
 116:cmsis/device/stm32f4xx_rng.c ****     /* Enable the RNG */
 117:cmsis/device/stm32f4xx_rng.c ****     RNG->CR |= RNG_CR_RNGEN;
 118              		.loc 1 117 0
 119 0000 4FF40063 		mov	r3, #2048	@ tmp139,
 120 0004 C5F20603 		movt	r3, 20486	@ tmp139,
 121 0008 1A68     		ldr	r2, [r3, #0]	@ D.6572,
 114:cmsis/device/stm32f4xx_rng.c ****   if (NewState != DISABLE)
 122              		.loc 1 114 0
 123 000a 18B9     		cbnz	r0, .L6	@ NewState,
 118:cmsis/device/stm32f4xx_rng.c ****   }
 119:cmsis/device/stm32f4xx_rng.c ****   else
 120:cmsis/device/stm32f4xx_rng.c ****   {
 121:cmsis/device/stm32f4xx_rng.c ****     /* Disable the RNG */
 122:cmsis/device/stm32f4xx_rng.c ****     RNG->CR &= ~RNG_CR_RNGEN;
 124              		.loc 1 122 0
 125 000c 22F00400 		bic	r0, r2, #4	@ D.6576, D.6575,
 126              	.LVL3:
 127 0010 1860     		str	r0, [r3, #0]	@ D.6576,
 128 0012 7047     		bx	lr	@
 129              	.LVL4:
 130              	.L6:
 117:cmsis/device/stm32f4xx_rng.c ****     RNG->CR |= RNG_CR_RNGEN;
 131              		.loc 1 117 0
 132 0014 42F00401 		orr	r1, r2, #4	@ D.6573, D.6572,
 133 0018 1960     		str	r1, [r3, #0]	@ D.6573,
 134 001a 7047     		bx	lr	@
 135              		.cfi_endproc
 136              	.LFE111:
 137              		.size	RNG_Cmd, .-RNG_Cmd
 138              		.section	.text.RNG_GetRandomNumber,"ax",%progbits
 139              		.align	2
 140              		.global	RNG_GetRandomNumber
 141              		.thumb
 142              		.thumb_func
 143              		.type	RNG_GetRandomNumber, %function
 144              	RNG_GetRandomNumber:
 145              	.LFB112:
 123:cmsis/device/stm32f4xx_rng.c ****   }
 124:cmsis/device/stm32f4xx_rng.c **** }
 125:cmsis/device/stm32f4xx_rng.c **** /**
 126:cmsis/device/stm32f4xx_rng.c ****   * @}
 127:cmsis/device/stm32f4xx_rng.c ****   */
 128:cmsis/device/stm32f4xx_rng.c **** 
 129:cmsis/device/stm32f4xx_rng.c **** /** @defgroup RNG_Group2 Get 32 bit Random number function
 130:cmsis/device/stm32f4xx_rng.c ****  *  @brief    Get 32 bit Random number function 
 131:cmsis/device/stm32f4xx_rng.c ****  *
 132:cmsis/device/stm32f4xx_rng.c **** 
 133:cmsis/device/stm32f4xx_rng.c **** @verbatim    
 134:cmsis/device/stm32f4xx_rng.c ****  ===============================================================================
 135:cmsis/device/stm32f4xx_rng.c ****                       Get 32 bit Random number function
 136:cmsis/device/stm32f4xx_rng.c ****  ===============================================================================  
 137:cmsis/device/stm32f4xx_rng.c ****   This section provides a function allowing to get the 32 bit Random number  
ARM GAS  C:\Users\CNous\AppData\Local\Temp\cckqqQjH.s 			page 6


 138:cmsis/device/stm32f4xx_rng.c ****   
 139:cmsis/device/stm32f4xx_rng.c ****   @note  Before to call this function you have to wait till DRDY flag is set,
 140:cmsis/device/stm32f4xx_rng.c ****          using RNG_GetFlagStatus(RNG_FLAG_DRDY) function. 
 141:cmsis/device/stm32f4xx_rng.c ****    
 142:cmsis/device/stm32f4xx_rng.c **** @endverbatim
 143:cmsis/device/stm32f4xx_rng.c ****   * @{
 144:cmsis/device/stm32f4xx_rng.c ****   */
 145:cmsis/device/stm32f4xx_rng.c **** 
 146:cmsis/device/stm32f4xx_rng.c **** 
 147:cmsis/device/stm32f4xx_rng.c **** /**
 148:cmsis/device/stm32f4xx_rng.c ****   * @brief  Returns a 32-bit random number.
 149:cmsis/device/stm32f4xx_rng.c ****   *   
 150:cmsis/device/stm32f4xx_rng.c ****   * @note   Before to call this function you have to wait till DRDY (data ready)
 151:cmsis/device/stm32f4xx_rng.c ****   *         flag is set, using RNG_GetFlagStatus(RNG_FLAG_DRDY) function.
 152:cmsis/device/stm32f4xx_rng.c ****   * @note   Each time the the Random number data is read (using RNG_GetRandomNumber()
 153:cmsis/device/stm32f4xx_rng.c ****   *         function), the RNG_FLAG_DRDY flag is automatically cleared.
 154:cmsis/device/stm32f4xx_rng.c ****   * @note   In the case of a seed error, the generation of random numbers is 
 155:cmsis/device/stm32f4xx_rng.c ****   *         interrupted for as long as the SECS bit is '1'. If a number is 
 156:cmsis/device/stm32f4xx_rng.c ****   *         available in the RNG_DR register, it must not be used because it may 
 157:cmsis/device/stm32f4xx_rng.c ****   *         not have enough entropy. In this case, it is recommended to clear the 
 158:cmsis/device/stm32f4xx_rng.c ****   *         SEIS bit(using RNG_ClearFlag(RNG_FLAG_SECS) function), then disable 
 159:cmsis/device/stm32f4xx_rng.c ****   *         and enable the RNG peripheral (using RNG_Cmd() function) to 
 160:cmsis/device/stm32f4xx_rng.c ****   *         reinitialize and restart the RNG.
 161:cmsis/device/stm32f4xx_rng.c ****   * @note   In the case of a clock error, the RNG is no more able to generate 
 162:cmsis/device/stm32f4xx_rng.c ****   *         random numbers because the PLL48CLK clock is not correct. User have 
 163:cmsis/device/stm32f4xx_rng.c ****   *         to check that the clock controller is correctly configured to provide
 164:cmsis/device/stm32f4xx_rng.c ****   *         the RNG clock and clear the CEIS bit (using RNG_ClearFlag(RNG_FLAG_CECS) 
 165:cmsis/device/stm32f4xx_rng.c ****   *         function) . The clock error has no impact on the previously generated 
 166:cmsis/device/stm32f4xx_rng.c ****   *         random numbers, and the RNG_DR register contents can be used.
 167:cmsis/device/stm32f4xx_rng.c ****   *         
 168:cmsis/device/stm32f4xx_rng.c ****   * @param  None
 169:cmsis/device/stm32f4xx_rng.c ****   * @retval 32-bit random number.
 170:cmsis/device/stm32f4xx_rng.c ****   */
 171:cmsis/device/stm32f4xx_rng.c **** uint32_t RNG_GetRandomNumber(void)
 172:cmsis/device/stm32f4xx_rng.c **** {
 146              		.loc 1 172 0
 147              		.cfi_startproc
 148              		@ args = 0, pretend = 0, frame = 0
 149              		@ frame_needed = 0, uses_anonymous_args = 0
 150              		@ link register save eliminated.
 173:cmsis/device/stm32f4xx_rng.c ****   /* Return the 32 bit random number from the DR register */
 174:cmsis/device/stm32f4xx_rng.c ****   return RNG->DR;
 151              		.loc 1 174 0
 152 0000 4FF40063 		mov	r3, #2048	@ tmp136,
 153 0004 C5F20603 		movt	r3, 20486	@ tmp136,
 154 0008 9868     		ldr	r0, [r3, #8]	@ D.6566, MEM[(struct RNG_TypeDef *)1342572544B].DR
 175:cmsis/device/stm32f4xx_rng.c **** }
 155              		.loc 1 175 0
 156 000a 7047     		bx	lr	@
 157              		.cfi_endproc
 158              	.LFE112:
 159              		.size	RNG_GetRandomNumber, .-RNG_GetRandomNumber
 160              		.section	.text.RNG_ITConfig,"ax",%progbits
 161              		.align	2
 162              		.global	RNG_ITConfig
 163              		.thumb
 164              		.thumb_func
ARM GAS  C:\Users\CNous\AppData\Local\Temp\cckqqQjH.s 			page 7


 165              		.type	RNG_ITConfig, %function
 166              	RNG_ITConfig:
 167              	.LFB113:
 176:cmsis/device/stm32f4xx_rng.c **** 
 177:cmsis/device/stm32f4xx_rng.c **** 
 178:cmsis/device/stm32f4xx_rng.c **** /**
 179:cmsis/device/stm32f4xx_rng.c ****   * @}
 180:cmsis/device/stm32f4xx_rng.c ****   */
 181:cmsis/device/stm32f4xx_rng.c **** 
 182:cmsis/device/stm32f4xx_rng.c **** /** @defgroup RNG_Group3 Interrupts and flags management functions
 183:cmsis/device/stm32f4xx_rng.c ****  *  @brief   Interrupts and flags management functions
 184:cmsis/device/stm32f4xx_rng.c ****  *
 185:cmsis/device/stm32f4xx_rng.c **** @verbatim   
 186:cmsis/device/stm32f4xx_rng.c ****  ===============================================================================
 187:cmsis/device/stm32f4xx_rng.c ****                    Interrupts and flags management functions
 188:cmsis/device/stm32f4xx_rng.c ****  ===============================================================================  
 189:cmsis/device/stm32f4xx_rng.c **** 
 190:cmsis/device/stm32f4xx_rng.c ****   This section provides functions allowing to configure the RNG Interrupts and 
 191:cmsis/device/stm32f4xx_rng.c ****   to get the status and clear flags and Interrupts pending bits.
 192:cmsis/device/stm32f4xx_rng.c ****   
 193:cmsis/device/stm32f4xx_rng.c ****   The RNG provides 3 Interrupts sources and 3 Flags:
 194:cmsis/device/stm32f4xx_rng.c ****   
 195:cmsis/device/stm32f4xx_rng.c ****   Flags :
 196:cmsis/device/stm32f4xx_rng.c ****   ---------- 
 197:cmsis/device/stm32f4xx_rng.c ****      1. RNG_FLAG_DRDY :  In the case of the RNG_DR register contains valid 
 198:cmsis/device/stm32f4xx_rng.c ****                          random data. it is cleared by reading the valid data 
 199:cmsis/device/stm32f4xx_rng.c ****                          (using RNG_GetRandomNumber() function).
 200:cmsis/device/stm32f4xx_rng.c **** 
 201:cmsis/device/stm32f4xx_rng.c ****      2. RNG_FLAG_CECS : In the case of a seed error detection. 
 202:cmsis/device/stm32f4xx_rng.c ****       
 203:cmsis/device/stm32f4xx_rng.c ****      3. RNG_FLAG_SECS : In the case of a clock error detection.
 204:cmsis/device/stm32f4xx_rng.c ****               
 205:cmsis/device/stm32f4xx_rng.c **** 
 206:cmsis/device/stm32f4xx_rng.c ****   Interrupts :
 207:cmsis/device/stm32f4xx_rng.c ****   ------------
 208:cmsis/device/stm32f4xx_rng.c ****    if enabled, an RNG interrupt is pending :
 209:cmsis/device/stm32f4xx_rng.c ****     
 210:cmsis/device/stm32f4xx_rng.c ****    1.  In the case of the RNG_DR register contains valid random data. 
 211:cmsis/device/stm32f4xx_rng.c ****        This interrupt source is cleared once the RNG_DR register has been read 
 212:cmsis/device/stm32f4xx_rng.c ****        (using RNG_GetRandomNumber() function) until a new valid value is 
 213:cmsis/device/stm32f4xx_rng.c ****        computed. 
 214:cmsis/device/stm32f4xx_rng.c ****    
 215:cmsis/device/stm32f4xx_rng.c ****    or 
 216:cmsis/device/stm32f4xx_rng.c ****    2. In the case of a seed error : One of the following faulty sequences has 
 217:cmsis/device/stm32f4xx_rng.c ****       been detected:
 218:cmsis/device/stm32f4xx_rng.c ****       - More than 64 consecutive bits at the same value (0 or 1)
 219:cmsis/device/stm32f4xx_rng.c ****       - More than 32 consecutive alternance of 0 and 1 (0101010101...01)
 220:cmsis/device/stm32f4xx_rng.c ****       This interrupt source is cleared using RNG_ClearITPendingBit(RNG_IT_SEI)
 221:cmsis/device/stm32f4xx_rng.c ****       function.
 222:cmsis/device/stm32f4xx_rng.c ****    
 223:cmsis/device/stm32f4xx_rng.c ****    or
 224:cmsis/device/stm32f4xx_rng.c ****    3. In the case of a clock error : the PLL48CLK (RNG peripheral clock source) 
 225:cmsis/device/stm32f4xx_rng.c ****       was not correctly detected (fPLL48CLK< fHCLK/16).
 226:cmsis/device/stm32f4xx_rng.c ****       This interrupt source is cleared using RNG_ClearITPendingBit(RNG_IT_CEI)
 227:cmsis/device/stm32f4xx_rng.c ****       function.
 228:cmsis/device/stm32f4xx_rng.c ****       @note In this case, User have to check that the clock controller is 
 229:cmsis/device/stm32f4xx_rng.c ****             correctly configured to provide the RNG clock. 
ARM GAS  C:\Users\CNous\AppData\Local\Temp\cckqqQjH.s 			page 8


 230:cmsis/device/stm32f4xx_rng.c **** 
 231:cmsis/device/stm32f4xx_rng.c ****   Managing the RNG controller events :
 232:cmsis/device/stm32f4xx_rng.c ****   ------------------------------------ 
 233:cmsis/device/stm32f4xx_rng.c ****   The user should identify which mode will be used in his application to manage 
 234:cmsis/device/stm32f4xx_rng.c ****   the RNG controller events: Polling mode or Interrupt mode.
 235:cmsis/device/stm32f4xx_rng.c ****   
 236:cmsis/device/stm32f4xx_rng.c ****   1.  In the Polling Mode it is advised to use the following functions:
 237:cmsis/device/stm32f4xx_rng.c ****       - RNG_GetFlagStatus() : to check if flags events occur. 
 238:cmsis/device/stm32f4xx_rng.c ****       - RNG_ClearFlag()     : to clear the flags events.
 239:cmsis/device/stm32f4xx_rng.c ****   
 240:cmsis/device/stm32f4xx_rng.c ****   @note RNG_FLAG_DRDY can not be cleared by RNG_ClearFlag(). it is cleared only 
 241:cmsis/device/stm32f4xx_rng.c ****         by reading the Random number data.      
 242:cmsis/device/stm32f4xx_rng.c ****   
 243:cmsis/device/stm32f4xx_rng.c ****   2.  In the Interrupt Mode it is advised to use the following functions:
 244:cmsis/device/stm32f4xx_rng.c ****       - RNG_ITConfig()       : to enable or disable the interrupt source.
 245:cmsis/device/stm32f4xx_rng.c ****       - RNG_GetITStatus()    : to check if Interrupt occurs.
 246:cmsis/device/stm32f4xx_rng.c ****       - RNG_ClearITPendingBit() : to clear the Interrupt pending Bit 
 247:cmsis/device/stm32f4xx_rng.c ****                                 (corresponding Flag). 
 248:cmsis/device/stm32f4xx_rng.c ****   
 249:cmsis/device/stm32f4xx_rng.c **** 
 250:cmsis/device/stm32f4xx_rng.c **** @endverbatim
 251:cmsis/device/stm32f4xx_rng.c ****   * @{
 252:cmsis/device/stm32f4xx_rng.c ****   */ 
 253:cmsis/device/stm32f4xx_rng.c **** 
 254:cmsis/device/stm32f4xx_rng.c **** /**
 255:cmsis/device/stm32f4xx_rng.c ****   * @brief  Enables or disables the RNG interrupt.
 256:cmsis/device/stm32f4xx_rng.c ****   * @note   The RNG provides 3 interrupt sources,
 257:cmsis/device/stm32f4xx_rng.c ****   *           - Computed data is ready event (DRDY), and           
 258:cmsis/device/stm32f4xx_rng.c ****   *           - Seed error Interrupt (SEI) and 
 259:cmsis/device/stm32f4xx_rng.c ****   *           - Clock error Interrupt (CEI), 
 260:cmsis/device/stm32f4xx_rng.c ****   *         all these interrupts sources are enabled by setting the IE bit in 
 261:cmsis/device/stm32f4xx_rng.c ****   *         CR register. However, each interrupt have its specific status bit
 262:cmsis/device/stm32f4xx_rng.c ****   *         (see RNG_GetITStatus() function) and clear bit except the DRDY event
 263:cmsis/device/stm32f4xx_rng.c ****   *         (see RNG_ClearITPendingBit() function).
 264:cmsis/device/stm32f4xx_rng.c ****   * @param  NewState: new state of the RNG interrupt.
 265:cmsis/device/stm32f4xx_rng.c ****   *          This parameter can be: ENABLE or DISABLE.
 266:cmsis/device/stm32f4xx_rng.c ****   * @retval None
 267:cmsis/device/stm32f4xx_rng.c ****   */
 268:cmsis/device/stm32f4xx_rng.c **** void RNG_ITConfig(FunctionalState NewState)
 269:cmsis/device/stm32f4xx_rng.c **** {
 168              		.loc 1 269 0
 169              		.cfi_startproc
 170              		@ args = 0, pretend = 0, frame = 0
 171              		@ frame_needed = 0, uses_anonymous_args = 0
 172              		@ link register save eliminated.
 173              	.LVL5:
 270:cmsis/device/stm32f4xx_rng.c ****   /* Check the parameters */
 271:cmsis/device/stm32f4xx_rng.c ****   assert_param(IS_FUNCTIONAL_STATE(NewState));
 272:cmsis/device/stm32f4xx_rng.c **** 
 273:cmsis/device/stm32f4xx_rng.c ****   if (NewState != DISABLE)
 274:cmsis/device/stm32f4xx_rng.c ****   {
 275:cmsis/device/stm32f4xx_rng.c ****     /* Enable the RNG interrupt */
 276:cmsis/device/stm32f4xx_rng.c ****     RNG->CR |= RNG_CR_IE;
 174              		.loc 1 276 0
 175 0000 4FF40063 		mov	r3, #2048	@ tmp139,
 176 0004 C5F20603 		movt	r3, 20486	@ tmp139,
 177 0008 1A68     		ldr	r2, [r3, #0]	@ D.6561,
ARM GAS  C:\Users\CNous\AppData\Local\Temp\cckqqQjH.s 			page 9


 273:cmsis/device/stm32f4xx_rng.c ****   if (NewState != DISABLE)
 178              		.loc 1 273 0
 179 000a 18B9     		cbnz	r0, .L11	@ NewState,
 277:cmsis/device/stm32f4xx_rng.c ****   }
 278:cmsis/device/stm32f4xx_rng.c ****   else
 279:cmsis/device/stm32f4xx_rng.c ****   {
 280:cmsis/device/stm32f4xx_rng.c ****     /* Disable the RNG interrupt */
 281:cmsis/device/stm32f4xx_rng.c ****     RNG->CR &= ~RNG_CR_IE;
 180              		.loc 1 281 0
 181 000c 22F00800 		bic	r0, r2, #8	@ D.6565, D.6564,
 182              	.LVL6:
 183 0010 1860     		str	r0, [r3, #0]	@ D.6565,
 184 0012 7047     		bx	lr	@
 185              	.LVL7:
 186              	.L11:
 276:cmsis/device/stm32f4xx_rng.c ****     RNG->CR |= RNG_CR_IE;
 187              		.loc 1 276 0
 188 0014 42F00801 		orr	r1, r2, #8	@ D.6562, D.6561,
 189 0018 1960     		str	r1, [r3, #0]	@ D.6562,
 190 001a 7047     		bx	lr	@
 191              		.cfi_endproc
 192              	.LFE113:
 193              		.size	RNG_ITConfig, .-RNG_ITConfig
 194              		.section	.text.RNG_GetFlagStatus,"ax",%progbits
 195              		.align	2
 196              		.global	RNG_GetFlagStatus
 197              		.thumb
 198              		.thumb_func
 199              		.type	RNG_GetFlagStatus, %function
 200              	RNG_GetFlagStatus:
 201              	.LFB114:
 282:cmsis/device/stm32f4xx_rng.c ****   }
 283:cmsis/device/stm32f4xx_rng.c **** }
 284:cmsis/device/stm32f4xx_rng.c **** 
 285:cmsis/device/stm32f4xx_rng.c **** /**
 286:cmsis/device/stm32f4xx_rng.c ****   * @brief  Checks whether the specified RNG flag is set or not.
 287:cmsis/device/stm32f4xx_rng.c ****   * @param  RNG_FLAG: specifies the RNG flag to check.
 288:cmsis/device/stm32f4xx_rng.c ****   *          This parameter can be one of the following values:
 289:cmsis/device/stm32f4xx_rng.c ****   *            @arg RNG_FLAG_DRDY: Data Ready flag.
 290:cmsis/device/stm32f4xx_rng.c ****   *            @arg RNG_FLAG_CECS: Clock Error Current flag.
 291:cmsis/device/stm32f4xx_rng.c ****   *            @arg RNG_FLAG_SECS: Seed Error Current flag.
 292:cmsis/device/stm32f4xx_rng.c ****   * @retval The new state of RNG_FLAG (SET or RESET).
 293:cmsis/device/stm32f4xx_rng.c ****   */
 294:cmsis/device/stm32f4xx_rng.c **** FlagStatus RNG_GetFlagStatus(uint8_t RNG_FLAG)
 295:cmsis/device/stm32f4xx_rng.c **** {
 202              		.loc 1 295 0
 203              		.cfi_startproc
 204              		@ args = 0, pretend = 0, frame = 0
 205              		@ frame_needed = 0, uses_anonymous_args = 0
 206              		@ link register save eliminated.
 207              	.LVL8:
 296:cmsis/device/stm32f4xx_rng.c ****   FlagStatus bitstatus = RESET;
 297:cmsis/device/stm32f4xx_rng.c ****   /* Check the parameters */
 298:cmsis/device/stm32f4xx_rng.c ****   assert_param(IS_RNG_GET_FLAG(RNG_FLAG));
 299:cmsis/device/stm32f4xx_rng.c **** 
 300:cmsis/device/stm32f4xx_rng.c ****   /* Check the status of the specified RNG flag */
 301:cmsis/device/stm32f4xx_rng.c ****   if ((RNG->SR & RNG_FLAG) != (uint8_t)RESET)
ARM GAS  C:\Users\CNous\AppData\Local\Temp\cckqqQjH.s 			page 10


 208              		.loc 1 301 0
 209 0000 4FF40063 		mov	r3, #2048	@ tmp141,
 210 0004 C5F20603 		movt	r3, 20486	@ tmp141,
 211 0008 5968     		ldr	r1, [r3, #4]	@ D.6550, MEM[(struct RNG_TypeDef *)1342572544B].SR
 212              	.LVL9:
 213 000a 0842     		tst	r0, r1	@ RNG_FLAG, D.6550
 302:cmsis/device/stm32f4xx_rng.c ****   {
 303:cmsis/device/stm32f4xx_rng.c ****     /* RNG_FLAG is set */
 304:cmsis/device/stm32f4xx_rng.c ****     bitstatus = SET;
 305:cmsis/device/stm32f4xx_rng.c ****   }
 306:cmsis/device/stm32f4xx_rng.c ****   else
 307:cmsis/device/stm32f4xx_rng.c ****   {
 308:cmsis/device/stm32f4xx_rng.c ****     /* RNG_FLAG is reset */
 309:cmsis/device/stm32f4xx_rng.c ****     bitstatus = RESET;
 310:cmsis/device/stm32f4xx_rng.c ****   }
 311:cmsis/device/stm32f4xx_rng.c ****   /* Return the RNG_FLAG status */
 312:cmsis/device/stm32f4xx_rng.c ****   return  bitstatus;
 313:cmsis/device/stm32f4xx_rng.c **** }
 214              		.loc 1 313 0
 215 000c 0CBF     		ite	eq	@
 216 000e 0020     		moveq	r0, #0	@,
 217 0010 0120     		movne	r0, #1	@,
 218              	.LVL10:
 219 0012 7047     		bx	lr	@
 220              		.cfi_endproc
 221              	.LFE114:
 222              		.size	RNG_GetFlagStatus, .-RNG_GetFlagStatus
 223              		.section	.text.RNG_ClearFlag,"ax",%progbits
 224              		.align	2
 225              		.global	RNG_ClearFlag
 226              		.thumb
 227              		.thumb_func
 228              		.type	RNG_ClearFlag, %function
 229              	RNG_ClearFlag:
 230              	.LFB115:
 314:cmsis/device/stm32f4xx_rng.c **** 
 315:cmsis/device/stm32f4xx_rng.c **** 
 316:cmsis/device/stm32f4xx_rng.c **** /**
 317:cmsis/device/stm32f4xx_rng.c ****   * @brief  Clears the RNG flags.
 318:cmsis/device/stm32f4xx_rng.c ****   * @param  RNG_FLAG: specifies the flag to clear. 
 319:cmsis/device/stm32f4xx_rng.c ****   *          This parameter can be any combination of the following values:
 320:cmsis/device/stm32f4xx_rng.c ****   *            @arg RNG_FLAG_CECS: Clock Error Current flag.
 321:cmsis/device/stm32f4xx_rng.c ****   *            @arg RNG_FLAG_SECS: Seed Error Current flag.
 322:cmsis/device/stm32f4xx_rng.c ****   * @note   RNG_FLAG_DRDY can not be cleared by RNG_ClearFlag() function. 
 323:cmsis/device/stm32f4xx_rng.c ****   *         This flag is cleared only by reading the Random number data (using 
 324:cmsis/device/stm32f4xx_rng.c ****   *         RNG_GetRandomNumber() function).                           
 325:cmsis/device/stm32f4xx_rng.c ****   * @retval None
 326:cmsis/device/stm32f4xx_rng.c ****   */
 327:cmsis/device/stm32f4xx_rng.c **** void RNG_ClearFlag(uint8_t RNG_FLAG)
 328:cmsis/device/stm32f4xx_rng.c **** {
 231              		.loc 1 328 0
 232              		.cfi_startproc
 233              		@ args = 0, pretend = 0, frame = 0
 234              		@ frame_needed = 0, uses_anonymous_args = 0
 235              		@ link register save eliminated.
 236              	.LVL11:
 329:cmsis/device/stm32f4xx_rng.c ****   /* Check the parameters */
ARM GAS  C:\Users\CNous\AppData\Local\Temp\cckqqQjH.s 			page 11


 330:cmsis/device/stm32f4xx_rng.c ****   assert_param(IS_RNG_CLEAR_FLAG(RNG_FLAG));
 331:cmsis/device/stm32f4xx_rng.c ****   /* Clear the selected RNG flags */
 332:cmsis/device/stm32f4xx_rng.c ****   RNG->SR = ~(uint32_t)(((uint32_t)RNG_FLAG) << 4);
 237              		.loc 1 332 0
 238 0000 4FF40063 		mov	r3, #2048	@ tmp140,
 239 0004 C5F20603 		movt	r3, 20486	@ tmp140,
 240 0008 6FEA0010 		mvn	r0, r0, lsl #4	@ D.6548, RNG_FLAG,
 241              	.LVL12:
 242 000c 5860     		str	r0, [r3, #4]	@ D.6548, MEM[(struct RNG_TypeDef *)1342572544B].SR
 243 000e 7047     		bx	lr	@
 244              		.cfi_endproc
 245              	.LFE115:
 246              		.size	RNG_ClearFlag, .-RNG_ClearFlag
 247              		.section	.text.RNG_GetITStatus,"ax",%progbits
 248              		.align	2
 249              		.global	RNG_GetITStatus
 250              		.thumb
 251              		.thumb_func
 252              		.type	RNG_GetITStatus, %function
 253              	RNG_GetITStatus:
 254              	.LFB116:
 333:cmsis/device/stm32f4xx_rng.c **** }
 334:cmsis/device/stm32f4xx_rng.c **** 
 335:cmsis/device/stm32f4xx_rng.c **** /**
 336:cmsis/device/stm32f4xx_rng.c ****   * @brief  Checks whether the specified RNG interrupt has occurred or not.
 337:cmsis/device/stm32f4xx_rng.c ****   * @param  RNG_IT: specifies the RNG interrupt source to check.
 338:cmsis/device/stm32f4xx_rng.c ****   *          This parameter can be one of the following values:
 339:cmsis/device/stm32f4xx_rng.c ****   *            @arg RNG_IT_CEI: Clock Error Interrupt.
 340:cmsis/device/stm32f4xx_rng.c ****   *            @arg RNG_IT_SEI: Seed Error Interrupt.                   
 341:cmsis/device/stm32f4xx_rng.c ****   * @retval The new state of RNG_IT (SET or RESET).
 342:cmsis/device/stm32f4xx_rng.c ****   */
 343:cmsis/device/stm32f4xx_rng.c **** ITStatus RNG_GetITStatus(uint8_t RNG_IT)
 344:cmsis/device/stm32f4xx_rng.c **** {
 255              		.loc 1 344 0
 256              		.cfi_startproc
 257              		@ args = 0, pretend = 0, frame = 0
 258              		@ frame_needed = 0, uses_anonymous_args = 0
 259              		@ link register save eliminated.
 260              	.LVL13:
 345:cmsis/device/stm32f4xx_rng.c ****   ITStatus bitstatus = RESET;
 346:cmsis/device/stm32f4xx_rng.c ****   /* Check the parameters */
 347:cmsis/device/stm32f4xx_rng.c ****   assert_param(IS_RNG_GET_IT(RNG_IT));
 348:cmsis/device/stm32f4xx_rng.c **** 
 349:cmsis/device/stm32f4xx_rng.c ****   /* Check the status of the specified RNG interrupt */
 350:cmsis/device/stm32f4xx_rng.c ****   if ((RNG->SR & RNG_IT) != (uint8_t)RESET)
 261              		.loc 1 350 0
 262 0000 4FF40063 		mov	r3, #2048	@ tmp141,
 263 0004 C5F20603 		movt	r3, 20486	@ tmp141,
 264 0008 5968     		ldr	r1, [r3, #4]	@ D.6537, MEM[(struct RNG_TypeDef *)1342572544B].SR
 265              	.LVL14:
 266 000a 0842     		tst	r0, r1	@ RNG_IT, D.6537
 351:cmsis/device/stm32f4xx_rng.c ****   {
 352:cmsis/device/stm32f4xx_rng.c ****     /* RNG_IT is set */
 353:cmsis/device/stm32f4xx_rng.c ****     bitstatus = SET;
 354:cmsis/device/stm32f4xx_rng.c ****   }
 355:cmsis/device/stm32f4xx_rng.c ****   else
 356:cmsis/device/stm32f4xx_rng.c ****   {
ARM GAS  C:\Users\CNous\AppData\Local\Temp\cckqqQjH.s 			page 12


 357:cmsis/device/stm32f4xx_rng.c ****     /* RNG_IT is reset */
 358:cmsis/device/stm32f4xx_rng.c ****     bitstatus = RESET;
 359:cmsis/device/stm32f4xx_rng.c ****   }
 360:cmsis/device/stm32f4xx_rng.c ****   /* Return the RNG_IT status */
 361:cmsis/device/stm32f4xx_rng.c ****   return bitstatus;
 362:cmsis/device/stm32f4xx_rng.c **** }
 267              		.loc 1 362 0
 268 000c 0CBF     		ite	eq	@
 269 000e 0020     		moveq	r0, #0	@,
 270 0010 0120     		movne	r0, #1	@,
 271              	.LVL15:
 272 0012 7047     		bx	lr	@
 273              		.cfi_endproc
 274              	.LFE116:
 275              		.size	RNG_GetITStatus, .-RNG_GetITStatus
 276              		.section	.text.RNG_ClearITPendingBit,"ax",%progbits
 277              		.align	2
 278              		.global	RNG_ClearITPendingBit
 279              		.thumb
 280              		.thumb_func
 281              		.type	RNG_ClearITPendingBit, %function
 282              	RNG_ClearITPendingBit:
 283              	.LFB117:
 363:cmsis/device/stm32f4xx_rng.c **** 
 364:cmsis/device/stm32f4xx_rng.c **** 
 365:cmsis/device/stm32f4xx_rng.c **** /**
 366:cmsis/device/stm32f4xx_rng.c ****   * @brief  Clears the RNG interrupt pending bit(s).
 367:cmsis/device/stm32f4xx_rng.c ****   * @param  RNG_IT: specifies the RNG interrupt pending bit(s) to clear.
 368:cmsis/device/stm32f4xx_rng.c ****   *          This parameter can be any combination of the following values:
 369:cmsis/device/stm32f4xx_rng.c ****   *            @arg RNG_IT_CEI: Clock Error Interrupt.
 370:cmsis/device/stm32f4xx_rng.c ****   *            @arg RNG_IT_SEI: Seed Error Interrupt.
 371:cmsis/device/stm32f4xx_rng.c ****   * @retval None
 372:cmsis/device/stm32f4xx_rng.c ****   */
 373:cmsis/device/stm32f4xx_rng.c **** void RNG_ClearITPendingBit(uint8_t RNG_IT)
 374:cmsis/device/stm32f4xx_rng.c **** {
 284              		.loc 1 374 0
 285              		.cfi_startproc
 286              		@ args = 0, pretend = 0, frame = 0
 287              		@ frame_needed = 0, uses_anonymous_args = 0
 288              		@ link register save eliminated.
 289              	.LVL16:
 375:cmsis/device/stm32f4xx_rng.c ****   /* Check the parameters */
 376:cmsis/device/stm32f4xx_rng.c ****   assert_param(IS_RNG_IT(RNG_IT));
 377:cmsis/device/stm32f4xx_rng.c **** 
 378:cmsis/device/stm32f4xx_rng.c ****   /* Clear the selected RNG interrupt pending bit */
 379:cmsis/device/stm32f4xx_rng.c ****   RNG->SR = (uint8_t)~RNG_IT;
 290              		.loc 1 379 0
 291 0000 4FF40063 		mov	r3, #2048	@ tmp139,
 292 0004 C043     		mvns	r0, r0	@ tmp137, RNG_IT
 293              	.LVL17:
 294 0006 C5F20603 		movt	r3, 20486	@ tmp139,
 295 000a C1B2     		uxtb	r1, r0	@ D.6535, tmp137
 296 000c 5960     		str	r1, [r3, #4]	@ D.6535, MEM[(struct RNG_TypeDef *)1342572544B].SR
 297 000e 7047     		bx	lr	@
 298              		.cfi_endproc
 299              	.LFE117:
 300              		.size	RNG_ClearITPendingBit, .-RNG_ClearITPendingBit
ARM GAS  C:\Users\CNous\AppData\Local\Temp\cckqqQjH.s 			page 13


 301              		.text
 302              	.Letext0:
 303              		.file 2 "c:\\gnutoolsarmembedded\\4.7-2012q4\\bin\\../lib/gcc/arm-none-eabi/4.7.3/../../../../arm-
 304              		.file 3 "cmsis/device/stm32f4xx.h"
 305              		.file 4 "./cmsis/core/core_cm4.h"
 306              		.file 5 "./cmsis/device/stm32f4xx_rcc.h"