ARM GAS  C:\Users\CNous\AppData\Local\Temp\ccLIBeCO.s 			page 1


   1              		.syntax unified
   2              		.cpu cortex-m4
   3              		.eabi_attribute 27, 3	@ Tag_ABI_HardFP_use
   4              		.eabi_attribute 28, 1	@ Tag_ABI_VFP_args
   5              		.fpu fpv4-sp-d16
   6              		.eabi_attribute 20, 1	@ Tag_ABI_FP_denormal
   7              		.eabi_attribute 21, 1	@ Tag_ABI_FP_exceptions
   8              		.eabi_attribute 23, 3	@ Tag_ABI_FP_number_model
   9              		.eabi_attribute 24, 1	@ Tag_ABI_align8_needed
  10              		.eabi_attribute 25, 1	@ Tag_ABI_align8_preserved
  11              		.eabi_attribute 26, 1	@ Tag_ABI_enum_size
  12              		.eabi_attribute 30, 2	@ Tag_ABI_optimization_goals
  13              		.eabi_attribute 34, 1	@ Tag_CPU_unaligned_access
  14              		.eabi_attribute 18, 4	@ Tag_ABI_PCS_wchar_t
  15              		.file	"stm32f4xx_i2c.c"
  16              	@ GNU C (GNU Tools for ARM Embedded Processors) version 4.7.3 20121207 (release) [ARM/embedded-4_7-
  17              	@	compiled by GNU C version 4.2.1-sjlj (mingw32-2), GMP version 4.3.2, MPFR version 2.4.2, MPC vers
  18              	@ GGC heuristics: --param ggc-min-expand=100 --param ggc-min-heapsize=131072
  19              	@ options passed:  -I . -I ./inc -I ./cmsis/core -I ./cmsis/device
  20              	@ -imultilib armv7e-m/fpu
  21              	@ -iprefix c:\gnutoolsarmembedded\4.7-2012q4\bin\../lib/gcc/arm-none-eabi/4.7.3/
  22              	@ -isysroot c:\gnutoolsarmembedded\4.7-2012q4\bin\../arm-none-eabi
  23              	@ -MD cmsis/device/stm32f4xx_i2c.d -MF .dep/stm32f4xx_i2c.o.d -MP
  24              	@ -MQ cmsis/device/stm32f4xx_i2c.o -D__USES_INITFINI__ -D __FPU_USED=1
  25              	@ -D __arm__ -D __ASSEMBLY__ -D USE_STDPERIPH_DRIVER -D STM32F4XX
  26              	@ -D HSE_VALUE=8000000 -D __FPU_PRESENT=1 -D STM32F407VG
  27              	@ -D RUN_FROM_FLASH=1 cmsis/device/stm32f4xx_i2c.c -mthumb -mcpu=cortex-m4
  28              	@ -mfloat-abi=hard -mfpu=fpv4-sp-d16
  29              	@ -auxbase-strip cmsis/device/stm32f4xx_i2c.o -gdwarf-2 -O2 -Wall
  30              	@ -Wstrict-prototypes -fverbose-asm -ffunction-sections -fdata-sections
  31              	@ options enabled:  -fauto-inc-dec -fbranch-count-reg -fcaller-saves
  32              	@ -fcombine-stack-adjustments -fcommon -fcompare-elim -fcprop-registers
  33              	@ -fcrossjumping -fcse-follow-jumps -fdata-sections -fdebug-types-section
  34              	@ -fdefer-pop -fdelete-null-pointer-checks -fdevirtualize -fdwarf2-cfi-asm
  35              	@ -fearly-inlining -feliminate-unused-debug-types -fexpensive-optimizations
  36              	@ -fforward-propagate -ffunction-cse -ffunction-sections -fgcse -fgcse-lm
  37              	@ -fgnu-runtime -fguess-branch-probability -fident -fif-conversion
  38              	@ -fif-conversion2 -findirect-inlining -finline -finline-atomics
  39              	@ -finline-functions-called-once -finline-small-functions -fipa-cp
  40              	@ -fipa-profile -fipa-pure-const -fipa-reference -fipa-sra
  41              	@ -fira-share-save-slots -fira-share-spill-slots -fivopts
  42              	@ -fkeep-static-consts -fleading-underscore -fmath-errno -fmerge-constants
  43              	@ -fmerge-debug-strings -fmove-loop-invariants -fomit-frame-pointer
  44              	@ -foptimize-register-move -foptimize-sibling-calls -foptimize-strlen
  45              	@ -fpartial-inlining -fpeephole -fpeephole2 -fprefetch-loop-arrays
  46              	@ -freg-struct-return -fregmove -frename-registers -freorder-blocks
  47              	@ -freorder-functions -frerun-cse-after-loop
  48              	@ -fsched-critical-path-heuristic -fsched-dep-count-heuristic
  49              	@ -fsched-group-heuristic -fsched-interblock -fsched-last-insn-heuristic
  50              	@ -fsched-rank-heuristic -fsched-spec -fsched-spec-insn-heuristic
  51              	@ -fsched-stalled-insns-dep -fschedule-insns -fschedule-insns2
  52              	@ -fsection-anchors -fshow-column -fshrink-wrap -fsigned-zeros
  53              	@ -fsplit-ivs-in-unroller -fsplit-wide-types -fstrict-aliasing
  54              	@ -fstrict-overflow -fstrict-volatile-bitfields -fthread-jumps
  55              	@ -ftoplevel-reorder -ftrapping-math -ftree-bit-ccp -ftree-builtin-call-dce
  56              	@ -ftree-ccp -ftree-ch -ftree-copy-prop -ftree-copyrename -ftree-cselim
  57              	@ -ftree-dce -ftree-dominator-opts -ftree-dse -ftree-forwprop -ftree-fre
ARM GAS  C:\Users\CNous\AppData\Local\Temp\ccLIBeCO.s 			page 2


  58              	@ -ftree-loop-if-convert -ftree-loop-im -ftree-loop-ivcanon
  59              	@ -ftree-loop-optimize -ftree-parallelize-loops= -ftree-phiprop -ftree-pre
  60              	@ -ftree-pta -ftree-reassoc -ftree-scev-cprop -ftree-sink
  61              	@ -ftree-slp-vectorize -ftree-sra -ftree-switch-conversion
  62              	@ -ftree-tail-merge -ftree-ter -ftree-vect-loop-version -ftree-vrp
  63              	@ -funit-at-a-time -funroll-loops -fvar-tracking -fvar-tracking-assignments
  64              	@ -fverbose-asm -fweb -fzero-initialized-in-bss -mlittle-endian
  65              	@ -msched-prolog -mthumb -munaligned-access -mvectorize-with-neon-quad
  66              	
  67              		.text
  68              	.Ltext0:
  69              		.cfi_sections	.debug_frame
  70              		.section	.text.I2C_DeInit,"ax",%progbits
  71              		.align	2
  72              		.global	I2C_DeInit
  73              		.thumb
  74              		.thumb_func
  75              		.type	I2C_DeInit, %function
  76              	I2C_DeInit:
  77              	.LFB110:
  78              		.file 1 "cmsis/device/stm32f4xx_i2c.c"
   1:cmsis/device/stm32f4xx_i2c.c **** /**
   2:cmsis/device/stm32f4xx_i2c.c ****   ******************************************************************************
   3:cmsis/device/stm32f4xx_i2c.c ****   * @file    stm32f4xx_i2c.c
   4:cmsis/device/stm32f4xx_i2c.c ****   * @author  MCD Application Team
   5:cmsis/device/stm32f4xx_i2c.c ****   * @version V1.0.0
   6:cmsis/device/stm32f4xx_i2c.c ****   * @date    30-September-2011
   7:cmsis/device/stm32f4xx_i2c.c ****   * @brief   This file provides firmware functions to manage the following 
   8:cmsis/device/stm32f4xx_i2c.c ****   *          functionalities of the Inter-integrated circuit (I2C)
   9:cmsis/device/stm32f4xx_i2c.c ****   *           - Initialization and Configuration
  10:cmsis/device/stm32f4xx_i2c.c ****   *           - Data transfers
  11:cmsis/device/stm32f4xx_i2c.c ****   *           - PEC management
  12:cmsis/device/stm32f4xx_i2c.c ****   *           - DMA transfers management
  13:cmsis/device/stm32f4xx_i2c.c ****   *           - Interrupts, events and flags management 
  14:cmsis/device/stm32f4xx_i2c.c ****   *           
  15:cmsis/device/stm32f4xx_i2c.c ****   *  @verbatim
  16:cmsis/device/stm32f4xx_i2c.c ****   *    
  17:cmsis/device/stm32f4xx_i2c.c ****   *          ===================================================================
  18:cmsis/device/stm32f4xx_i2c.c ****   *                                 How to use this driver
  19:cmsis/device/stm32f4xx_i2c.c ****   *          ===================================================================
  20:cmsis/device/stm32f4xx_i2c.c ****   *          1. Enable peripheral clock using RCC_APB1PeriphClockCmd(RCC_APB1Periph_I2Cx, ENABLE)
  21:cmsis/device/stm32f4xx_i2c.c ****   *             function for I2C1, I2C2 or I2C3.
  22:cmsis/device/stm32f4xx_i2c.c ****   *
  23:cmsis/device/stm32f4xx_i2c.c ****   *          2. Enable SDA, SCL  and SMBA (when used) GPIO clocks using 
  24:cmsis/device/stm32f4xx_i2c.c ****   *             RCC_AHBPeriphClockCmd() function. 
  25:cmsis/device/stm32f4xx_i2c.c ****   *
  26:cmsis/device/stm32f4xx_i2c.c ****   *          3. Peripherals alternate function: 
  27:cmsis/device/stm32f4xx_i2c.c ****   *                 - Connect the pin to the desired peripherals' Alternate 
  28:cmsis/device/stm32f4xx_i2c.c ****   *                   Function (AF) using GPIO_PinAFConfig() function
  29:cmsis/device/stm32f4xx_i2c.c ****   *                 - Configure the desired pin in alternate function by:
  30:cmsis/device/stm32f4xx_i2c.c ****   *                   GPIO_InitStruct->GPIO_Mode = GPIO_Mode_AF
  31:cmsis/device/stm32f4xx_i2c.c ****   *                 - Select the type, pull-up/pull-down and output speed via 
  32:cmsis/device/stm32f4xx_i2c.c ****   *                   GPIO_PuPd, GPIO_OType and GPIO_Speed members
  33:cmsis/device/stm32f4xx_i2c.c ****   *                 - Call GPIO_Init() function
  34:cmsis/device/stm32f4xx_i2c.c ****   *                 Recommended configuration is Push-Pull, Pull-up, Open-Drain.
  35:cmsis/device/stm32f4xx_i2c.c ****   *                 Add an external pull up if necessary (typically 4.7 KOhm).      
  36:cmsis/device/stm32f4xx_i2c.c ****   *        
ARM GAS  C:\Users\CNous\AppData\Local\Temp\ccLIBeCO.s 			page 3


  37:cmsis/device/stm32f4xx_i2c.c ****   *          4. Program the Mode, duty cycle , Own address, Ack, Speed and Acknowledged
  38:cmsis/device/stm32f4xx_i2c.c ****   *             Address using the I2C_Init() function.
  39:cmsis/device/stm32f4xx_i2c.c ****   *
  40:cmsis/device/stm32f4xx_i2c.c ****   *          5. Optionally you can enable/configure the following parameters without
  41:cmsis/device/stm32f4xx_i2c.c ****   *             re-initialization (i.e there is no need to call again I2C_Init() function):
  42:cmsis/device/stm32f4xx_i2c.c ****   *              - Enable the acknowledge feature using I2C_AcknowledgeConfig() function
  43:cmsis/device/stm32f4xx_i2c.c ****   *              - Enable the dual addressing mode using I2C_DualAddressCmd() function
  44:cmsis/device/stm32f4xx_i2c.c ****   *              - Enable the general call using the I2C_GeneralCallCmd() function
  45:cmsis/device/stm32f4xx_i2c.c ****   *              - Enable the clock stretching using I2C_StretchClockCmd() function
  46:cmsis/device/stm32f4xx_i2c.c ****   *              - Enable the fast mode duty cycle using the I2C_FastModeDutyCycleConfig()
  47:cmsis/device/stm32f4xx_i2c.c ****   *                function.
  48:cmsis/device/stm32f4xx_i2c.c ****   *              - Configure the NACK position for Master Receiver mode in case of 
  49:cmsis/device/stm32f4xx_i2c.c ****   *                2 bytes reception using the function I2C_NACKPositionConfig().  
  50:cmsis/device/stm32f4xx_i2c.c ****   *              - Enable the PEC Calculation using I2C_CalculatePEC() function
  51:cmsis/device/stm32f4xx_i2c.c ****   *              - For SMBus Mode: 
  52:cmsis/device/stm32f4xx_i2c.c ****   *                   - Enable the Address Resolution Protocol (ARP) using I2C_ARPCmd() function
  53:cmsis/device/stm32f4xx_i2c.c ****   *                   - Configure the SMBusAlert pin using I2C_SMBusAlertConfig() function
  54:cmsis/device/stm32f4xx_i2c.c ****   *
  55:cmsis/device/stm32f4xx_i2c.c ****   *          6. Enable the NVIC and the corresponding interrupt using the function 
  56:cmsis/device/stm32f4xx_i2c.c ****   *             I2C_ITConfig() if you need to use interrupt mode. 
  57:cmsis/device/stm32f4xx_i2c.c ****   *
  58:cmsis/device/stm32f4xx_i2c.c ****   *          7. When using the DMA mode 
  59:cmsis/device/stm32f4xx_i2c.c ****   *                   - Configure the DMA using DMA_Init() function
  60:cmsis/device/stm32f4xx_i2c.c ****   *                   - Active the needed channel Request using I2C_DMACmd() or
  61:cmsis/device/stm32f4xx_i2c.c ****   *                     I2C_DMALastTransferCmd() function.
  62:cmsis/device/stm32f4xx_i2c.c ****   *              @note When using DMA mode, I2C interrupts may be used at the same time to
  63:cmsis/device/stm32f4xx_i2c.c ****   *                    control the communication flow (Start/Stop/Ack... events and errors).
  64:cmsis/device/stm32f4xx_i2c.c ****   * 
  65:cmsis/device/stm32f4xx_i2c.c ****   *          8. Enable the I2C using the I2C_Cmd() function.
  66:cmsis/device/stm32f4xx_i2c.c ****   * 
  67:cmsis/device/stm32f4xx_i2c.c ****   *          9. Enable the DMA using the DMA_Cmd() function when using DMA mode in the 
  68:cmsis/device/stm32f4xx_i2c.c ****   *             transfers. 
  69:cmsis/device/stm32f4xx_i2c.c ****   *
  70:cmsis/device/stm32f4xx_i2c.c ****   *  @endverbatim
  71:cmsis/device/stm32f4xx_i2c.c ****   *  
  72:cmsis/device/stm32f4xx_i2c.c ****   ******************************************************************************
  73:cmsis/device/stm32f4xx_i2c.c ****   * @attention
  74:cmsis/device/stm32f4xx_i2c.c ****   *
  75:cmsis/device/stm32f4xx_i2c.c ****   * THE PRESENT FIRMWARE WHICH IS FOR GUIDANCE ONLY AIMS AT PROVIDING CUSTOMERS
  76:cmsis/device/stm32f4xx_i2c.c ****   * WITH CODING INFORMATION REGARDING THEIR PRODUCTS IN ORDER FOR THEM TO SAVE
  77:cmsis/device/stm32f4xx_i2c.c ****   * TIME. AS A RESULT, STMICROELECTRONICS SHALL NOT BE HELD LIABLE FOR ANY
  78:cmsis/device/stm32f4xx_i2c.c ****   * DIRECT, INDIRECT OR CONSEQUENTIAL DAMAGES WITH RESPECT TO ANY CLAIMS ARISING
  79:cmsis/device/stm32f4xx_i2c.c ****   * FROM THE CONTENT OF SUCH FIRMWARE AND/OR THE USE MADE BY CUSTOMERS OF THE
  80:cmsis/device/stm32f4xx_i2c.c ****   * CODING INFORMATION CONTAINED HEREIN IN CONNECTION WITH THEIR PRODUCTS.
  81:cmsis/device/stm32f4xx_i2c.c ****   *
  82:cmsis/device/stm32f4xx_i2c.c ****   * <h2><center>&copy; COPYRIGHT 2011 STMicroelectronics</center></h2>
  83:cmsis/device/stm32f4xx_i2c.c ****   ******************************************************************************  
  84:cmsis/device/stm32f4xx_i2c.c ****   */ 
  85:cmsis/device/stm32f4xx_i2c.c **** 
  86:cmsis/device/stm32f4xx_i2c.c **** /* Includes ------------------------------------------------------------------*/
  87:cmsis/device/stm32f4xx_i2c.c **** #include "stm32f4xx_i2c.h"
  88:cmsis/device/stm32f4xx_i2c.c **** #include "stm32f4xx_rcc.h"
  89:cmsis/device/stm32f4xx_i2c.c **** 
  90:cmsis/device/stm32f4xx_i2c.c **** /** @addtogroup STM32F4xx_StdPeriph_Driver
  91:cmsis/device/stm32f4xx_i2c.c ****   * @{
  92:cmsis/device/stm32f4xx_i2c.c ****   */
  93:cmsis/device/stm32f4xx_i2c.c **** 
ARM GAS  C:\Users\CNous\AppData\Local\Temp\ccLIBeCO.s 			page 4


  94:cmsis/device/stm32f4xx_i2c.c **** /** @defgroup I2C 
  95:cmsis/device/stm32f4xx_i2c.c ****   * @brief I2C driver modules
  96:cmsis/device/stm32f4xx_i2c.c ****   * @{
  97:cmsis/device/stm32f4xx_i2c.c ****   */ 
  98:cmsis/device/stm32f4xx_i2c.c **** 
  99:cmsis/device/stm32f4xx_i2c.c **** /* Private typedef -----------------------------------------------------------*/
 100:cmsis/device/stm32f4xx_i2c.c **** /* Private define ------------------------------------------------------------*/
 101:cmsis/device/stm32f4xx_i2c.c **** 
 102:cmsis/device/stm32f4xx_i2c.c **** #define CR1_CLEAR_MASK    ((uint16_t)0xFBF5)      /*<! I2C registers Masks */
 103:cmsis/device/stm32f4xx_i2c.c **** #define FLAG_MASK         ((uint32_t)0x00FFFFFF)  /*<! I2C FLAG mask */
 104:cmsis/device/stm32f4xx_i2c.c **** #define ITEN_MASK         ((uint32_t)0x07000000)  /*<! I2C Interrupt Enable mask */
 105:cmsis/device/stm32f4xx_i2c.c **** 
 106:cmsis/device/stm32f4xx_i2c.c **** /* Private macro -------------------------------------------------------------*/
 107:cmsis/device/stm32f4xx_i2c.c **** /* Private variables ---------------------------------------------------------*/
 108:cmsis/device/stm32f4xx_i2c.c **** /* Private function prototypes -----------------------------------------------*/
 109:cmsis/device/stm32f4xx_i2c.c **** /* Private functions ---------------------------------------------------------*/
 110:cmsis/device/stm32f4xx_i2c.c **** 
 111:cmsis/device/stm32f4xx_i2c.c **** /** @defgroup I2C_Private_Functions
 112:cmsis/device/stm32f4xx_i2c.c ****   * @{
 113:cmsis/device/stm32f4xx_i2c.c ****   */
 114:cmsis/device/stm32f4xx_i2c.c **** 
 115:cmsis/device/stm32f4xx_i2c.c **** /** @defgroup I2C_Group1 Initialization and Configuration functions
 116:cmsis/device/stm32f4xx_i2c.c ****  *  @brief   Initialization and Configuration functions 
 117:cmsis/device/stm32f4xx_i2c.c ****  *
 118:cmsis/device/stm32f4xx_i2c.c **** @verbatim   
 119:cmsis/device/stm32f4xx_i2c.c ****  ===============================================================================
 120:cmsis/device/stm32f4xx_i2c.c ****                    Initialization and Configuration functions
 121:cmsis/device/stm32f4xx_i2c.c ****  ===============================================================================  
 122:cmsis/device/stm32f4xx_i2c.c **** 
 123:cmsis/device/stm32f4xx_i2c.c **** @endverbatim
 124:cmsis/device/stm32f4xx_i2c.c ****   * @{
 125:cmsis/device/stm32f4xx_i2c.c ****   */
 126:cmsis/device/stm32f4xx_i2c.c **** 
 127:cmsis/device/stm32f4xx_i2c.c **** /**
 128:cmsis/device/stm32f4xx_i2c.c ****   * @brief  Deinitialize the I2Cx peripheral registers to their default reset values.
 129:cmsis/device/stm32f4xx_i2c.c ****   * @param  I2Cx: where x can be 1, 2 or 3 to select the I2C peripheral.
 130:cmsis/device/stm32f4xx_i2c.c ****   * @retval None
 131:cmsis/device/stm32f4xx_i2c.c ****   */
 132:cmsis/device/stm32f4xx_i2c.c **** void I2C_DeInit(I2C_TypeDef* I2Cx)
 133:cmsis/device/stm32f4xx_i2c.c **** {
  79              		.loc 1 133 0
  80              		.cfi_startproc
  81              		@ args = 0, pretend = 0, frame = 0
  82              		@ frame_needed = 0, uses_anonymous_args = 0
  83              	.LVL0:
  84 0000 08B5     		push	{r3, lr}	@
  85              	.LCFI0:
  86              		.cfi_def_cfa_offset 8
  87              		.cfi_offset 3, -8
  88              		.cfi_offset 14, -4
 134:cmsis/device/stm32f4xx_i2c.c ****   /* Check the parameters */
 135:cmsis/device/stm32f4xx_i2c.c ****   assert_param(IS_I2C_ALL_PERIPH(I2Cx));
 136:cmsis/device/stm32f4xx_i2c.c **** 
 137:cmsis/device/stm32f4xx_i2c.c ****   if (I2Cx == I2C1)
  89              		.loc 1 137 0
  90 0002 4FF4A843 		mov	r3, #21504	@ tmp135,
  91 0006 C4F20003 		movt	r3, 16384	@ tmp135,
ARM GAS  C:\Users\CNous\AppData\Local\Temp\ccLIBeCO.s 			page 5


  92 000a 9842     		cmp	r0, r3	@ I2Cx, tmp135
  93 000c 18D0     		beq	.L6	@,
 138:cmsis/device/stm32f4xx_i2c.c ****   {
 139:cmsis/device/stm32f4xx_i2c.c ****     /* Enable I2C1 reset state */
 140:cmsis/device/stm32f4xx_i2c.c ****     RCC_APB1PeriphResetCmd(RCC_APB1Periph_I2C1, ENABLE);
 141:cmsis/device/stm32f4xx_i2c.c ****     /* Release I2C1 from reset state */
 142:cmsis/device/stm32f4xx_i2c.c ****     RCC_APB1PeriphResetCmd(RCC_APB1Periph_I2C1, DISABLE);    
 143:cmsis/device/stm32f4xx_i2c.c ****   }
 144:cmsis/device/stm32f4xx_i2c.c ****   else if (I2Cx == I2C2)
  94              		.loc 1 144 0
  95 000e 4FF4B041 		mov	r1, #22528	@ tmp136,
  96 0012 C4F20001 		movt	r1, 16384	@ tmp136,
  97 0016 8842     		cmp	r0, r1	@ I2Cx, tmp136
  98 0018 1ED0     		beq	.L7	@,
 145:cmsis/device/stm32f4xx_i2c.c ****   {
 146:cmsis/device/stm32f4xx_i2c.c ****     /* Enable I2C2 reset state */
 147:cmsis/device/stm32f4xx_i2c.c ****     RCC_APB1PeriphResetCmd(RCC_APB1Periph_I2C2, ENABLE);
 148:cmsis/device/stm32f4xx_i2c.c ****     /* Release I2C2 from reset state */
 149:cmsis/device/stm32f4xx_i2c.c ****     RCC_APB1PeriphResetCmd(RCC_APB1Periph_I2C2, DISABLE);      
 150:cmsis/device/stm32f4xx_i2c.c ****   }
 151:cmsis/device/stm32f4xx_i2c.c ****   else 
 152:cmsis/device/stm32f4xx_i2c.c ****   {
 153:cmsis/device/stm32f4xx_i2c.c ****     if (I2Cx == I2C3)
  99              		.loc 1 153 0
 100 001a 4FF4B842 		mov	r2, #23552	@ tmp137,
 101 001e C4F20002 		movt	r2, 16384	@ tmp137,
 102 0022 9042     		cmp	r0, r2	@ I2Cx, tmp137
 103 0024 00D0     		beq	.L8	@,
 104 0026 08BD     		pop	{r3, pc}	@
 105              	.L8:
 154:cmsis/device/stm32f4xx_i2c.c ****     {
 155:cmsis/device/stm32f4xx_i2c.c ****       /* Enable I2C3 reset state */
 156:cmsis/device/stm32f4xx_i2c.c ****       RCC_APB1PeriphResetCmd(RCC_APB1Periph_I2C3, ENABLE);
 106              		.loc 1 156 0
 107 0028 0121     		movs	r1, #1	@,
 108 002a 4FF40000 		mov	r0, #8388608	@,
 109              	.LVL1:
 110 002e FFF7FEFF 		bl	RCC_APB1PeriphResetCmd	@
 111              	.LVL2:
 157:cmsis/device/stm32f4xx_i2c.c ****       /* Release I2C3 from reset state */
 158:cmsis/device/stm32f4xx_i2c.c ****       RCC_APB1PeriphResetCmd(RCC_APB1Periph_I2C3, DISABLE);     
 112              		.loc 1 158 0
 113 0032 4FF40000 		mov	r0, #8388608	@,
 114 0036 0021     		movs	r1, #0	@,
 159:cmsis/device/stm32f4xx_i2c.c ****     }
 160:cmsis/device/stm32f4xx_i2c.c ****   }
 161:cmsis/device/stm32f4xx_i2c.c **** }
 115              		.loc 1 161 0
 116 0038 BDE80840 		pop	{r3, lr}	@
 158:cmsis/device/stm32f4xx_i2c.c ****       RCC_APB1PeriphResetCmd(RCC_APB1Periph_I2C3, DISABLE);     
 117              		.loc 1 158 0
 118 003c FFF7FEBF 		b	RCC_APB1PeriphResetCmd	@
 119              	.LVL3:
 120              	.L6:
 140:cmsis/device/stm32f4xx_i2c.c ****     RCC_APB1PeriphResetCmd(RCC_APB1Periph_I2C1, ENABLE);
 121              		.loc 1 140 0
 122 0040 0121     		movs	r1, #1	@,
ARM GAS  C:\Users\CNous\AppData\Local\Temp\ccLIBeCO.s 			page 6


 123 0042 4FF40010 		mov	r0, #2097152	@,
 124              	.LVL4:
 125 0046 FFF7FEFF 		bl	RCC_APB1PeriphResetCmd	@
 126              	.LVL5:
 142:cmsis/device/stm32f4xx_i2c.c ****     RCC_APB1PeriphResetCmd(RCC_APB1Periph_I2C1, DISABLE);    
 127              		.loc 1 142 0
 128 004a 4FF40010 		mov	r0, #2097152	@,
 129 004e 0021     		movs	r1, #0	@,
 130              		.loc 1 161 0
 131 0050 BDE80840 		pop	{r3, lr}	@
 142:cmsis/device/stm32f4xx_i2c.c ****     RCC_APB1PeriphResetCmd(RCC_APB1Periph_I2C1, DISABLE);    
 132              		.loc 1 142 0
 133 0054 FFF7FEBF 		b	RCC_APB1PeriphResetCmd	@
 134              	.LVL6:
 135              	.L7:
 147:cmsis/device/stm32f4xx_i2c.c ****     RCC_APB1PeriphResetCmd(RCC_APB1Periph_I2C2, ENABLE);
 136              		.loc 1 147 0
 137 0058 0121     		movs	r1, #1	@,
 138 005a 4FF48000 		mov	r0, #4194304	@,
 139              	.LVL7:
 140 005e FFF7FEFF 		bl	RCC_APB1PeriphResetCmd	@
 141              	.LVL8:
 149:cmsis/device/stm32f4xx_i2c.c ****     RCC_APB1PeriphResetCmd(RCC_APB1Periph_I2C2, DISABLE);      
 142              		.loc 1 149 0
 143 0062 4FF48000 		mov	r0, #4194304	@,
 144 0066 0021     		movs	r1, #0	@,
 145              		.loc 1 161 0
 146 0068 BDE80840 		pop	{r3, lr}	@
 149:cmsis/device/stm32f4xx_i2c.c ****     RCC_APB1PeriphResetCmd(RCC_APB1Periph_I2C2, DISABLE);      
 147              		.loc 1 149 0
 148 006c FFF7FEBF 		b	RCC_APB1PeriphResetCmd	@
 149              	.LVL9:
 150              		.cfi_endproc
 151              	.LFE110:
 152              		.size	I2C_DeInit, .-I2C_DeInit
 153              		.section	.text.I2C_Init,"ax",%progbits
 154              		.align	2
 155              		.global	I2C_Init
 156              		.thumb
 157              		.thumb_func
 158              		.type	I2C_Init, %function
 159              	I2C_Init:
 160              	.LFB111:
 162:cmsis/device/stm32f4xx_i2c.c **** 
 163:cmsis/device/stm32f4xx_i2c.c **** /**
 164:cmsis/device/stm32f4xx_i2c.c ****   * @brief  Initializes the I2Cx peripheral according to the specified 
 165:cmsis/device/stm32f4xx_i2c.c ****   *         parameters in the I2C_InitStruct.
 166:cmsis/device/stm32f4xx_i2c.c ****   *           
 167:cmsis/device/stm32f4xx_i2c.c ****   * @note   To use the I2C at 400 KHz (in fast mode), the PCLK1 frequency 
 168:cmsis/device/stm32f4xx_i2c.c ****   *         (I2C peripheral input clock) must be a multiple of 10 MHz.  
 169:cmsis/device/stm32f4xx_i2c.c ****   *           
 170:cmsis/device/stm32f4xx_i2c.c ****   * @param  I2Cx: where x can be 1, 2 or 3 to select the I2C peripheral.
 171:cmsis/device/stm32f4xx_i2c.c ****   * @param  I2C_InitStruct: pointer to a I2C_InitTypeDef structure that contains 
 172:cmsis/device/stm32f4xx_i2c.c ****   *         the configuration information for the specified I2C peripheral.
 173:cmsis/device/stm32f4xx_i2c.c ****   * @retval None
 174:cmsis/device/stm32f4xx_i2c.c ****   */
 175:cmsis/device/stm32f4xx_i2c.c **** void I2C_Init(I2C_TypeDef* I2Cx, I2C_InitTypeDef* I2C_InitStruct)
ARM GAS  C:\Users\CNous\AppData\Local\Temp\ccLIBeCO.s 			page 7


 176:cmsis/device/stm32f4xx_i2c.c **** {
 161              		.loc 1 176 0
 162              		.cfi_startproc
 163              		@ args = 0, pretend = 0, frame = 16
 164              		@ frame_needed = 0, uses_anonymous_args = 0
 165              	.LVL10:
 166 0000 F0B5     		push	{r4, r5, r6, r7, lr}	@
 167              	.LCFI1:
 168              		.cfi_def_cfa_offset 20
 169              		.cfi_offset 4, -20
 170              		.cfi_offset 5, -16
 171              		.cfi_offset 6, -12
 172              		.cfi_offset 7, -8
 173              		.cfi_offset 14, -4
 174 0002 0446     		mov	r4, r0	@ I2Cx, I2Cx
 175 0004 85B0     		sub	sp, sp, #20	@,,
 176              	.LCFI2:
 177              		.cfi_def_cfa_offset 40
 177:cmsis/device/stm32f4xx_i2c.c ****   uint16_t tmpreg = 0, freqrange = 0;
 178:cmsis/device/stm32f4xx_i2c.c ****   uint16_t result = 0x04;
 179:cmsis/device/stm32f4xx_i2c.c ****   uint32_t pclk1 = 8000000;
 180:cmsis/device/stm32f4xx_i2c.c ****   RCC_ClocksTypeDef  rcc_clocks;
 181:cmsis/device/stm32f4xx_i2c.c ****   /* Check the parameters */
 182:cmsis/device/stm32f4xx_i2c.c ****   assert_param(IS_I2C_ALL_PERIPH(I2Cx));
 183:cmsis/device/stm32f4xx_i2c.c ****   assert_param(IS_I2C_CLOCK_SPEED(I2C_InitStruct->I2C_ClockSpeed));
 184:cmsis/device/stm32f4xx_i2c.c ****   assert_param(IS_I2C_MODE(I2C_InitStruct->I2C_Mode));
 185:cmsis/device/stm32f4xx_i2c.c ****   assert_param(IS_I2C_DUTY_CYCLE(I2C_InitStruct->I2C_DutyCycle));
 186:cmsis/device/stm32f4xx_i2c.c ****   assert_param(IS_I2C_OWN_ADDRESS1(I2C_InitStruct->I2C_OwnAddress1));
 187:cmsis/device/stm32f4xx_i2c.c ****   assert_param(IS_I2C_ACK_STATE(I2C_InitStruct->I2C_Ack));
 188:cmsis/device/stm32f4xx_i2c.c ****   assert_param(IS_I2C_ACKNOWLEDGE_ADDRESS(I2C_InitStruct->I2C_AcknowledgedAddress));
 189:cmsis/device/stm32f4xx_i2c.c **** 
 190:cmsis/device/stm32f4xx_i2c.c **** /*---------------------------- I2Cx CR2 Configuration ------------------------*/
 191:cmsis/device/stm32f4xx_i2c.c ****   /* Get the I2Cx CR2 value */
 192:cmsis/device/stm32f4xx_i2c.c ****   tmpreg = I2Cx->CR2;
 193:cmsis/device/stm32f4xx_i2c.c ****   /* Clear frequency FREQ[5:0] bits */
 194:cmsis/device/stm32f4xx_i2c.c ****   tmpreg &= (uint16_t)~((uint16_t)I2C_CR2_FREQ);
 195:cmsis/device/stm32f4xx_i2c.c ****   /* Get pclk1 frequency value */
 196:cmsis/device/stm32f4xx_i2c.c ****   RCC_GetClocksFreq(&rcc_clocks);
 178              		.loc 1 196 0
 179 0006 6846     		mov	r0, sp	@,
 180              	.LVL11:
 192:cmsis/device/stm32f4xx_i2c.c ****   tmpreg = I2Cx->CR2;
 181              		.loc 1 192 0
 182 0008 A688     		ldrh	r6, [r4, #4]	@, I2Cx_9(D)->CR2
 183              	.LVL12:
 176:cmsis/device/stm32f4xx_i2c.c **** {
 184              		.loc 1 176 0
 185 000a 0D46     		mov	r5, r1	@ I2C_InitStruct, I2C_InitStruct
 186              		.loc 1 196 0
 187 000c FFF7FEFF 		bl	RCC_GetClocksFreq	@
 188              	.LVL13:
 197:cmsis/device/stm32f4xx_i2c.c ****   pclk1 = rcc_clocks.PCLK1_Frequency;
 189              		.loc 1 197 0
 190 0010 0299     		ldr	r1, [sp, #8]	@ pclk1, rcc_clocks.PCLK1_Frequency
 198:cmsis/device/stm32f4xx_i2c.c ****   /* Set frequency bits depending on pclk1 value */
 199:cmsis/device/stm32f4xx_i2c.c ****   freqrange = (uint16_t)(pclk1 / 1000000);
 200:cmsis/device/stm32f4xx_i2c.c ****   tmpreg |= freqrange;
ARM GAS  C:\Users\CNous\AppData\Local\Temp\ccLIBeCO.s 			page 8


 201:cmsis/device/stm32f4xx_i2c.c ****   /* Write to I2Cx CR2 */
 202:cmsis/device/stm32f4xx_i2c.c ****   I2Cx->CR2 = tmpreg;
 203:cmsis/device/stm32f4xx_i2c.c **** 
 204:cmsis/device/stm32f4xx_i2c.c **** /*---------------------------- I2Cx CCR Configuration ------------------------*/
 205:cmsis/device/stm32f4xx_i2c.c ****   /* Disable the selected I2C peripheral to configure TRISE */
 206:cmsis/device/stm32f4xx_i2c.c ****   I2Cx->CR1 &= (uint16_t)~((uint16_t)I2C_CR1_PE);
 207:cmsis/device/stm32f4xx_i2c.c ****   /* Reset tmpreg value */
 208:cmsis/device/stm32f4xx_i2c.c ****   /* Clear F/S, DUTY and CCR[11:0] bits */
 209:cmsis/device/stm32f4xx_i2c.c ****   tmpreg = 0;
 210:cmsis/device/stm32f4xx_i2c.c **** 
 211:cmsis/device/stm32f4xx_i2c.c ****   /* Configure speed in standard mode */
 212:cmsis/device/stm32f4xx_i2c.c ****   if (I2C_InitStruct->I2C_ClockSpeed <= 100000)
 191              		.loc 1 212 0
 192 0012 2A68     		ldr	r2, [r5, #0]	@ D.6861, I2C_InitStruct_19(D)->I2C_ClockSpeed
 199:cmsis/device/stm32f4xx_i2c.c ****   freqrange = (uint16_t)(pclk1 / 1000000);
 193              		.loc 1 199 0
 194 0014 4DF68363 		movw	r3, #56963	@ tmp179,
 195 0018 C4F21B33 		movt	r3, 17179	@ tmp179,
 194:cmsis/device/stm32f4xx_i2c.c ****   tmpreg &= (uint16_t)~((uint16_t)I2C_CR2_FREQ);
 196              		.loc 1 194 0
 197 001c 26F03F07 		bic	r7, r6, #63	@ tmpreg, I2Cx_9(D)->CR2,
 199:cmsis/device/stm32f4xx_i2c.c ****   freqrange = (uint16_t)(pclk1 / 1000000);
 198              		.loc 1 199 0
 199 0020 A3FB0103 		umull	r0, r3, r3, r1	@, tmp178, tmp179, pclk1
 194:cmsis/device/stm32f4xx_i2c.c ****   tmpreg &= (uint16_t)~((uint16_t)I2C_CR2_FREQ);
 200              		.loc 1 194 0
 201 0024 3804     		lsls	r0, r7, #16	@ tmpreg, tmpreg,
 199:cmsis/device/stm32f4xx_i2c.c ****   freqrange = (uint16_t)(pclk1 / 1000000);
 202              		.loc 1 199 0
 203 0026 9F0C     		lsrs	r7, r3, #18	@ D.6909, tmp178,
 194:cmsis/device/stm32f4xx_i2c.c ****   tmpreg &= (uint16_t)~((uint16_t)I2C_CR2_FREQ);
 204              		.loc 1 194 0
 205 0028 060C     		lsrs	r6, r0, #16	@ tmpreg, tmpreg,
 206              	.LVL14:
 199:cmsis/device/stm32f4xx_i2c.c ****   freqrange = (uint16_t)(pclk1 / 1000000);
 207              		.loc 1 199 0
 208 002a 1FFA87FC 		uxth	ip, r7	@ freqrange, D.6909
 209              	.LVL15:
 200:cmsis/device/stm32f4xx_i2c.c ****   tmpreg |= freqrange;
 210              		.loc 1 200 0
 211 002e 4CEA0603 		orr	r3, ip, r6	@ tmpreg, freqrange, tmpreg
 212              	.LVL16:
 202:cmsis/device/stm32f4xx_i2c.c ****   I2Cx->CR2 = tmpreg;
 213              		.loc 1 202 0
 214 0032 A380     		strh	r3, [r4, #4]	@ movhi	@ tmpreg, I2Cx_9(D)->CR2
 206:cmsis/device/stm32f4xx_i2c.c ****   I2Cx->CR1 &= (uint16_t)~((uint16_t)I2C_CR1_PE);
 215              		.loc 1 206 0
 216 0034 2088     		ldrh	r0, [r4, #0]	@, I2Cx_9(D)->CR1
 217 0036 20F00106 		bic	r6, r0, #1	@ D.6860, I2Cx_9(D)->CR1,
 218              		.loc 1 212 0
 219 003a 48F2A060 		movw	r0, #34464	@ tmp185,
 206:cmsis/device/stm32f4xx_i2c.c ****   I2Cx->CR1 &= (uint16_t)~((uint16_t)I2C_CR1_PE);
 220              		.loc 1 206 0
 221 003e 3304     		lsls	r3, r6, #16	@ D.6860, D.6860,
 222              	.LVL17:
 223              		.loc 1 212 0
 224 0040 C0F20100 		movt	r0, 1	@ tmp185,
ARM GAS  C:\Users\CNous\AppData\Local\Temp\ccLIBeCO.s 			page 9


 206:cmsis/device/stm32f4xx_i2c.c ****   I2Cx->CR1 &= (uint16_t)~((uint16_t)I2C_CR1_PE);
 225              		.loc 1 206 0
 226 0044 1E0C     		lsrs	r6, r3, #16	@ D.6860, D.6860,
 227              		.loc 1 212 0
 228 0046 8242     		cmp	r2, r0	@ D.6861, tmp185
 206:cmsis/device/stm32f4xx_i2c.c ****   I2Cx->CR1 &= (uint16_t)~((uint16_t)I2C_CR1_PE);
 229              		.loc 1 206 0
 230 0048 2680     		strh	r6, [r4, #0]	@ movhi	@ D.6860, I2Cx_9(D)->CR1
 231              	.LVL18:
 232              		.loc 1 212 0
 233 004a 24D8     		bhi	.L10	@,
 213:cmsis/device/stm32f4xx_i2c.c ****   {
 214:cmsis/device/stm32f4xx_i2c.c ****     /* Standard mode speed calculate */
 215:cmsis/device/stm32f4xx_i2c.c ****     result = (uint16_t)(pclk1 / (I2C_InitStruct->I2C_ClockSpeed << 1));
 234              		.loc 1 215 0
 235 004c 5300     		lsls	r3, r2, #1	@ tmp186, D.6861,
 236 004e B1FBF3F6 		udiv	r6, r1, r3	@ tmp188, pclk1, tmp186
 237 0052 B1B2     		uxth	r1, r6	@ result, tmp188
 238              	.LVL19:
 216:cmsis/device/stm32f4xx_i2c.c ****     /* Test if CCR value is under 0x4*/
 217:cmsis/device/stm32f4xx_i2c.c ****     if (result < 0x04)
 218:cmsis/device/stm32f4xx_i2c.c ****     {
 219:cmsis/device/stm32f4xx_i2c.c ****       /* Set minimum allowed value */
 220:cmsis/device/stm32f4xx_i2c.c ****       result = 0x04;  
 221:cmsis/device/stm32f4xx_i2c.c ****     }
 222:cmsis/device/stm32f4xx_i2c.c ****     /* Set speed value for standard mode */
 223:cmsis/device/stm32f4xx_i2c.c ****     tmpreg |= result;	  
 224:cmsis/device/stm32f4xx_i2c.c ****     /* Set Maximum Rise Time for standard mode */
 225:cmsis/device/stm32f4xx_i2c.c ****     I2Cx->TRISE = freqrange + 1; 
 239              		.loc 1 225 0
 240 0054 0CF1010E 		add	lr, ip, #1	@ D.6868, freqrange,
 241 0058 A4F820E0 		strh	lr, [r4, #32]	@ movhi	@ D.6868, I2Cx_9(D)->TRISE
 223:cmsis/device/stm32f4xx_i2c.c ****     tmpreg |= result;	  
 242              		.loc 1 223 0
 243 005c 0329     		cmp	r1, #3	@ result,
 244 005e 98BF     		it	ls	@
 245 0060 0421     		movls	r1, #4	@, tmpreg,
 246              	.LVL20:
 247              	.L12:
 226:cmsis/device/stm32f4xx_i2c.c ****   }
 227:cmsis/device/stm32f4xx_i2c.c ****   /* Configure speed in fast mode */
 228:cmsis/device/stm32f4xx_i2c.c ****   /* To use the I2C at 400 KHz (in fast mode), the PCLK1 frequency (I2C peripheral
 229:cmsis/device/stm32f4xx_i2c.c ****      input clock) must be a multiple of 10 MHz */
 230:cmsis/device/stm32f4xx_i2c.c ****   else /*(I2C_InitStruct->I2C_ClockSpeed <= 400000)*/
 231:cmsis/device/stm32f4xx_i2c.c ****   {
 232:cmsis/device/stm32f4xx_i2c.c ****     if (I2C_InitStruct->I2C_DutyCycle == I2C_DutyCycle_2)
 233:cmsis/device/stm32f4xx_i2c.c ****     {
 234:cmsis/device/stm32f4xx_i2c.c ****       /* Fast mode speed calculate: Tlow/Thigh = 2 */
 235:cmsis/device/stm32f4xx_i2c.c ****       result = (uint16_t)(pclk1 / (I2C_InitStruct->I2C_ClockSpeed * 3));
 236:cmsis/device/stm32f4xx_i2c.c ****     }
 237:cmsis/device/stm32f4xx_i2c.c ****     else /*I2C_InitStruct->I2C_DutyCycle == I2C_DutyCycle_16_9*/
 238:cmsis/device/stm32f4xx_i2c.c ****     {
 239:cmsis/device/stm32f4xx_i2c.c ****       /* Fast mode speed calculate: Tlow/Thigh = 16/9 */
 240:cmsis/device/stm32f4xx_i2c.c ****       result = (uint16_t)(pclk1 / (I2C_InitStruct->I2C_ClockSpeed * 25));
 241:cmsis/device/stm32f4xx_i2c.c ****       /* Set DUTY bit */
 242:cmsis/device/stm32f4xx_i2c.c ****       result |= I2C_DutyCycle_16_9;
 243:cmsis/device/stm32f4xx_i2c.c ****     }
ARM GAS  C:\Users\CNous\AppData\Local\Temp\ccLIBeCO.s 			page 10


 244:cmsis/device/stm32f4xx_i2c.c **** 
 245:cmsis/device/stm32f4xx_i2c.c ****     /* Test if CCR value is under 0x1*/
 246:cmsis/device/stm32f4xx_i2c.c ****     if ((result & I2C_CCR_CCR) == 0)
 247:cmsis/device/stm32f4xx_i2c.c ****     {
 248:cmsis/device/stm32f4xx_i2c.c ****       /* Set minimum allowed value */
 249:cmsis/device/stm32f4xx_i2c.c ****       result |= (uint16_t)0x0001;  
 250:cmsis/device/stm32f4xx_i2c.c ****     }
 251:cmsis/device/stm32f4xx_i2c.c ****     /* Set speed value and set F/S bit for fast mode */
 252:cmsis/device/stm32f4xx_i2c.c ****     tmpreg |= (uint16_t)(result | I2C_CCR_FS);
 253:cmsis/device/stm32f4xx_i2c.c ****     /* Set Maximum Rise Time for fast mode */
 254:cmsis/device/stm32f4xx_i2c.c ****     I2Cx->TRISE = (uint16_t)(((freqrange * (uint16_t)300) / (uint16_t)1000) + (uint16_t)1);  
 255:cmsis/device/stm32f4xx_i2c.c ****   }
 256:cmsis/device/stm32f4xx_i2c.c **** 
 257:cmsis/device/stm32f4xx_i2c.c ****   /* Write to I2Cx CCR */
 258:cmsis/device/stm32f4xx_i2c.c ****   I2Cx->CCR = tmpreg;
 248              		.loc 1 258 0
 249 0062 A183     		strh	r1, [r4, #28]	@ movhi	@ tmpreg, I2Cx_9(D)->CCR
 259:cmsis/device/stm32f4xx_i2c.c ****   /* Enable the selected I2C peripheral */
 260:cmsis/device/stm32f4xx_i2c.c ****   I2Cx->CR1 |= I2C_CR1_PE;
 250              		.loc 1 260 0
 251 0064 2388     		ldrh	r3, [r4, #0]	@, I2Cx_9(D)->CR1
 261:cmsis/device/stm32f4xx_i2c.c **** 
 262:cmsis/device/stm32f4xx_i2c.c **** /*---------------------------- I2Cx CR1 Configuration ------------------------*/
 263:cmsis/device/stm32f4xx_i2c.c ****   /* Get the I2Cx CR1 value */
 264:cmsis/device/stm32f4xx_i2c.c ****   tmpreg = I2Cx->CR1;
 265:cmsis/device/stm32f4xx_i2c.c ****   /* Clear ACK, SMBTYPE and  SMBUS bits */
 266:cmsis/device/stm32f4xx_i2c.c ****   tmpreg &= CR1_CLEAR_MASK;
 267:cmsis/device/stm32f4xx_i2c.c ****   /* Configure I2Cx: mode and acknowledgement */
 268:cmsis/device/stm32f4xx_i2c.c ****   /* Set SMBTYPE and SMBUS bits according to I2C_Mode value */
 269:cmsis/device/stm32f4xx_i2c.c ****   /* Set ACK bit according to I2C_Ack value */
 270:cmsis/device/stm32f4xx_i2c.c ****   tmpreg |= (uint16_t)((uint32_t)I2C_InitStruct->I2C_Mode | I2C_InitStruct->I2C_Ack);
 271:cmsis/device/stm32f4xx_i2c.c ****   /* Write to I2Cx CR1 */
 272:cmsis/device/stm32f4xx_i2c.c ****   I2Cx->CR1 = tmpreg;
 273:cmsis/device/stm32f4xx_i2c.c **** 
 274:cmsis/device/stm32f4xx_i2c.c **** /*---------------------------- I2Cx OAR1 Configuration -----------------------*/
 275:cmsis/device/stm32f4xx_i2c.c ****   /* Set I2Cx Own Address1 and acknowledged address */
 276:cmsis/device/stm32f4xx_i2c.c ****   I2Cx->OAR1 = (I2C_InitStruct->I2C_AcknowledgedAddress | I2C_InitStruct->I2C_OwnAddress1);
 252              		.loc 1 276 0
 253 0066 AA89     		ldrh	r2, [r5, #12]	@, I2C_InitStruct_19(D)->I2C_AcknowledgedAddress
 270:cmsis/device/stm32f4xx_i2c.c ****   tmpreg |= (uint16_t)((uint32_t)I2C_InitStruct->I2C_Mode | I2C_InitStruct->I2C_Ack);
 254              		.loc 1 270 0
 255 0068 6E89     		ldrh	r6, [r5, #10]	@, I2C_InitStruct_19(D)->I2C_Ack
 256 006a A888     		ldrh	r0, [r5, #4]	@, I2C_InitStruct_19(D)->I2C_Mode
 257              		.loc 1 276 0
 258 006c 2989     		ldrh	r1, [r5, #8]	@, I2C_InitStruct_19(D)->I2C_OwnAddress1
 259              	.LVL21:
 260:cmsis/device/stm32f4xx_i2c.c ****   I2Cx->CR1 |= I2C_CR1_PE;
 260              		.loc 1 260 0
 261 006e 9BB2     		uxth	r3, r3	@ D.6888, I2Cx_9(D)->CR1
 262 0070 43F00103 		orr	r3, r3, #1	@ D.6889, D.6888,
 263 0074 2380     		strh	r3, [r4, #0]	@ movhi	@ D.6889, I2Cx_9(D)->CR1
 264:cmsis/device/stm32f4xx_i2c.c ****   tmpreg = I2Cx->CR1;
 264              		.loc 1 264 0
 265 0076 2388     		ldrh	r3, [r4, #0]	@, I2Cx_9(D)->CR1
 266              	.LVL22:
 266:cmsis/device/stm32f4xx_i2c.c ****   tmpreg &= CR1_CLEAR_MASK;
 267              		.loc 1 266 0
ARM GAS  C:\Users\CNous\AppData\Local\Temp\ccLIBeCO.s 			page 11


 268 0078 23F48163 		bic	r3, r3, #1032	@ tmpreg, I2Cx_9(D)->CR1,
 269              	.LVL23:
 270 007c 23F00203 		bic	r3, r3, #2	@ tmpreg, tmpreg,
 271 0080 1B04     		lsls	r3, r3, #16	@ tmpreg, tmpreg,
 272 0082 1B0C     		lsrs	r3, r3, #16	@ tmpreg, tmpreg,
 273              	.LVL24:
 270:cmsis/device/stm32f4xx_i2c.c ****   tmpreg |= (uint16_t)((uint32_t)I2C_InitStruct->I2C_Mode | I2C_InitStruct->I2C_Ack);
 274              		.loc 1 270 0
 275 0084 3043     		orrs	r0, r0, r6	@, tmp232, I2C_InitStruct_19(D)->I2C_Mode, I2C_InitStruct_19(D)->I2C_Ack
 276 0086 0343     		orrs	r3, r3, r0	@, tmp234, tmpreg, tmp232
 277              	.LVL25:
 278              		.loc 1 276 0
 279 0088 1143     		orrs	r1, r1, r2	@, tmp238, I2C_InitStruct_19(D)->I2C_OwnAddress1, I2C_InitStruct_19(D)->I2C_Acknow
 270:cmsis/device/stm32f4xx_i2c.c ****   tmpreg |= (uint16_t)((uint32_t)I2C_InitStruct->I2C_Mode | I2C_InitStruct->I2C_Ack);
 280              		.loc 1 270 0
 281 008a 9BB2     		uxth	r3, r3	@ tmpreg, tmp234
 282              	.LVL26:
 283              		.loc 1 276 0
 284 008c 8AB2     		uxth	r2, r1	@ D.6895, tmp238
 272:cmsis/device/stm32f4xx_i2c.c ****   I2Cx->CR1 = tmpreg;
 285              		.loc 1 272 0
 286 008e 2380     		strh	r3, [r4, #0]	@ movhi	@ tmpreg, I2Cx_9(D)->CR1
 287              		.loc 1 276 0
 288 0090 2281     		strh	r2, [r4, #8]	@ movhi	@ D.6895, I2Cx_9(D)->OAR1
 277:cmsis/device/stm32f4xx_i2c.c **** }
 289              		.loc 1 277 0
 290 0092 05B0     		add	sp, sp, #20	@,,
 291 0094 F0BD     		pop	{r4, r5, r6, r7, pc}
 292              	.LVL27:
 293              	.L10:
 232:cmsis/device/stm32f4xx_i2c.c ****     if (I2C_InitStruct->I2C_DutyCycle == I2C_DutyCycle_2)
 294              		.loc 1 232 0
 295 0096 E888     		ldrh	r0, [r5, #6]	@ I2C_InitStruct_19(D)->I2C_DutyCycle, I2C_InitStruct_19(D)->I2C_DutyCycle
 296 0098 4BF6FF73 		movw	r3, #49151	@ tmp192,
 297 009c 9842     		cmp	r0, r3	@ I2C_InitStruct_19(D)->I2C_DutyCycle, tmp192
 298 009e 1DD0     		beq	.L17	@,
 299              	.LVL28:
 240:cmsis/device/stm32f4xx_i2c.c ****       result = (uint16_t)(pclk1 / (I2C_InitStruct->I2C_ClockSpeed * 25));
 300              		.loc 1 240 0
 301 00a0 02EB8202 		add	r2, r2, r2, lsl #2	@, tmp200, D.6861, D.6861,
 302              	.LVL29:
 303 00a4 02EB8206 		add	r6, r2, r2, lsl #2	@, tmp202, tmp200, tmp200,
 304 00a8 B1FBF6F1 		udiv	r1, r1, r6	@ tmp204, pclk1, tmp202
 305              	.LVL30:
 242:cmsis/device/stm32f4xx_i2c.c ****       result |= I2C_DutyCycle_16_9;
 306              		.loc 1 242 0
 307 00ac 41F48040 		orr	r0, r1, #16384	@ tmp205, tmp204,
 308 00b0 81B2     		uxth	r1, r0	@ result, tmp205
 309              	.LVL31:
 310              	.L14:
 246:cmsis/device/stm32f4xx_i2c.c ****     if ((result & I2C_CCR_CCR) == 0)
 311              		.loc 1 246 0
 312 00b2 0E05     		lsls	r6, r1, #20	@ tmp209, result,
 313 00b4 300D     		lsrs	r0, r6, #20	@ tmp209, tmp209,
 314 00b6 08B9     		cbnz	r0, .L15	@ tmp209,
 249:cmsis/device/stm32f4xx_i2c.c ****       result |= (uint16_t)0x0001;  
 315              		.loc 1 249 0
ARM GAS  C:\Users\CNous\AppData\Local\Temp\ccLIBeCO.s 			page 12


 316 00b8 41F00101 		orr	r1, r1, #1	@ result, result,
 317              	.LVL32:
 318              	.L15:
 254:cmsis/device/stm32f4xx_i2c.c ****     I2Cx->TRISE = (uint16_t)(((freqrange * (uint16_t)300) / (uint16_t)1000) + (uint16_t)1);  
 319              		.loc 1 254 0
 320 00bc 4FF49673 		mov	r3, #300	@ tmp214,
 321 00c0 44F6D352 		movw	r2, #19923	@ tmp217,
 322 00c4 C1F26202 		movt	r2, 4194	@ tmp217,
 323 00c8 03FB07F7 		mul	r7, r3, r7	@ tmp213, tmp214, D.6909
 324              	.LVL33:
 325 00cc 82FB0736 		smull	r3, r6, r2, r7	@, tmp216, tmp217, tmp213
 326 00d0 B009     		lsrs	r0, r6, #6	@ tmp215, tmp216,
 327 00d2 421C     		adds	r2, r0, #1	@ D.6887, tmp215,
 252:cmsis/device/stm32f4xx_i2c.c ****     tmpreg |= (uint16_t)(result | I2C_CCR_FS);
 328              		.loc 1 252 0
 329 00d4 41F40041 		orr	r1, r1, #32768	@ tmpreg, result,
 330              	.LVL34:
 254:cmsis/device/stm32f4xx_i2c.c ****     I2Cx->TRISE = (uint16_t)(((freqrange * (uint16_t)300) / (uint16_t)1000) + (uint16_t)1);  
 331              		.loc 1 254 0
 332 00d8 2284     		strh	r2, [r4, #32]	@ movhi	@ D.6887, I2Cx_9(D)->TRISE
 333 00da C2E7     		b	.L12	@
 334              	.LVL35:
 335              	.L17:
 235:cmsis/device/stm32f4xx_i2c.c ****       result = (uint16_t)(pclk1 / (I2C_InitStruct->I2C_ClockSpeed * 3));
 336              		.loc 1 235 0
 337 00dc 02EB4203 		add	r3, r2, r2, lsl #1	@, tmp195, D.6861, D.6861,
 338 00e0 B1FBF3F2 		udiv	r2, r1, r3	@ tmp197, pclk1, tmp195
 339 00e4 91B2     		uxth	r1, r2	@ result, tmp197
 340              	.LVL36:
 341 00e6 E4E7     		b	.L14	@
 342              		.cfi_endproc
 343              	.LFE111:
 344              		.size	I2C_Init, .-I2C_Init
 345              		.section	.text.I2C_StructInit,"ax",%progbits
 346              		.align	2
 347              		.global	I2C_StructInit
 348              		.thumb
 349              		.thumb_func
 350              		.type	I2C_StructInit, %function
 351              	I2C_StructInit:
 352              	.LFB112:
 278:cmsis/device/stm32f4xx_i2c.c **** 
 279:cmsis/device/stm32f4xx_i2c.c **** /**
 280:cmsis/device/stm32f4xx_i2c.c ****   * @brief  Fills each I2C_InitStruct member with its default value.
 281:cmsis/device/stm32f4xx_i2c.c ****   * @param  I2C_InitStruct: pointer to an I2C_InitTypeDef structure which will be initialized.
 282:cmsis/device/stm32f4xx_i2c.c ****   * @retval None
 283:cmsis/device/stm32f4xx_i2c.c ****   */
 284:cmsis/device/stm32f4xx_i2c.c **** void I2C_StructInit(I2C_InitTypeDef* I2C_InitStruct)
 285:cmsis/device/stm32f4xx_i2c.c **** {
 353              		.loc 1 285 0
 354              		.cfi_startproc
 355              		@ args = 0, pretend = 0, frame = 0
 356              		@ frame_needed = 0, uses_anonymous_args = 0
 357              		@ link register save eliminated.
 358              	.LVL37:
 286:cmsis/device/stm32f4xx_i2c.c **** /*---------------- Reset I2C init structure parameters values ----------------*/
 287:cmsis/device/stm32f4xx_i2c.c ****   /* initialize the I2C_ClockSpeed member */
ARM GAS  C:\Users\CNous\AppData\Local\Temp\ccLIBeCO.s 			page 13


 288:cmsis/device/stm32f4xx_i2c.c ****   I2C_InitStruct->I2C_ClockSpeed = 5000;
 289:cmsis/device/stm32f4xx_i2c.c ****   /* Initialize the I2C_Mode member */
 290:cmsis/device/stm32f4xx_i2c.c ****   I2C_InitStruct->I2C_Mode = I2C_Mode_I2C;
 359              		.loc 1 290 0
 360 0000 0023     		movs	r3, #0	@ tmp137,
 288:cmsis/device/stm32f4xx_i2c.c ****   I2C_InitStruct->I2C_ClockSpeed = 5000;
 361              		.loc 1 288 0
 362 0002 41F28832 		movw	r2, #5000	@ tmp135,
 363              		.loc 1 290 0
 364 0006 8380     		strh	r3, [r0, #4]	@ movhi	@ tmp137, I2C_InitStruct_1(D)->I2C_Mode
 291:cmsis/device/stm32f4xx_i2c.c ****   /* Initialize the I2C_DutyCycle member */
 292:cmsis/device/stm32f4xx_i2c.c ****   I2C_InitStruct->I2C_DutyCycle = I2C_DutyCycle_2;
 365              		.loc 1 292 0
 366 0008 4BF6FF71 		movw	r1, #49151	@ tmp139,
 293:cmsis/device/stm32f4xx_i2c.c ****   /* Initialize the I2C_OwnAddress1 member */
 294:cmsis/device/stm32f4xx_i2c.c ****   I2C_InitStruct->I2C_OwnAddress1 = 0;
 367              		.loc 1 294 0
 368 000c 0381     		strh	r3, [r0, #8]	@ movhi	@ tmp137, I2C_InitStruct_1(D)->I2C_OwnAddress1
 295:cmsis/device/stm32f4xx_i2c.c ****   /* Initialize the I2C_Ack member */
 296:cmsis/device/stm32f4xx_i2c.c ****   I2C_InitStruct->I2C_Ack = I2C_Ack_Disable;
 369              		.loc 1 296 0
 370 000e 4381     		strh	r3, [r0, #10]	@ movhi	@ tmp137, I2C_InitStruct_1(D)->I2C_Ack
 297:cmsis/device/stm32f4xx_i2c.c ****   /* Initialize the I2C_AcknowledgedAddress member */
 298:cmsis/device/stm32f4xx_i2c.c ****   I2C_InitStruct->I2C_AcknowledgedAddress = I2C_AcknowledgedAddress_7bit;
 371              		.loc 1 298 0
 372 0010 4FF48043 		mov	r3, #16384	@ tmp145,
 288:cmsis/device/stm32f4xx_i2c.c ****   I2C_InitStruct->I2C_ClockSpeed = 5000;
 373              		.loc 1 288 0
 374 0014 0260     		str	r2, [r0, #0]	@ tmp135, I2C_InitStruct_1(D)->I2C_ClockSpeed
 292:cmsis/device/stm32f4xx_i2c.c ****   I2C_InitStruct->I2C_DutyCycle = I2C_DutyCycle_2;
 375              		.loc 1 292 0
 376 0016 C180     		strh	r1, [r0, #6]	@ movhi	@ tmp139, I2C_InitStruct_1(D)->I2C_DutyCycle
 377              		.loc 1 298 0
 378 0018 8381     		strh	r3, [r0, #12]	@ movhi	@ tmp145, I2C_InitStruct_1(D)->I2C_AcknowledgedAddress
 379 001a 7047     		bx	lr	@
 380              		.cfi_endproc
 381              	.LFE112:
 382              		.size	I2C_StructInit, .-I2C_StructInit
 383              		.section	.text.I2C_Cmd,"ax",%progbits
 384              		.align	2
 385              		.global	I2C_Cmd
 386              		.thumb
 387              		.thumb_func
 388              		.type	I2C_Cmd, %function
 389              	I2C_Cmd:
 390              	.LFB113:
 299:cmsis/device/stm32f4xx_i2c.c **** }
 300:cmsis/device/stm32f4xx_i2c.c **** 
 301:cmsis/device/stm32f4xx_i2c.c **** /**
 302:cmsis/device/stm32f4xx_i2c.c ****   * @brief  Enables or disables the specified I2C peripheral.
 303:cmsis/device/stm32f4xx_i2c.c ****   * @param  I2Cx: where x can be 1, 2 or 3 to select the I2C peripheral.
 304:cmsis/device/stm32f4xx_i2c.c ****   * @param  NewState: new state of the I2Cx peripheral. 
 305:cmsis/device/stm32f4xx_i2c.c ****   *          This parameter can be: ENABLE or DISABLE.
 306:cmsis/device/stm32f4xx_i2c.c ****   * @retval None
 307:cmsis/device/stm32f4xx_i2c.c ****   */
 308:cmsis/device/stm32f4xx_i2c.c **** void I2C_Cmd(I2C_TypeDef* I2Cx, FunctionalState NewState)
 309:cmsis/device/stm32f4xx_i2c.c **** {
ARM GAS  C:\Users\CNous\AppData\Local\Temp\ccLIBeCO.s 			page 14


 391              		.loc 1 309 0
 392              		.cfi_startproc
 393              		@ args = 0, pretend = 0, frame = 0
 394              		@ frame_needed = 0, uses_anonymous_args = 0
 395              		@ link register save eliminated.
 396              	.LVL38:
 310:cmsis/device/stm32f4xx_i2c.c ****   /* Check the parameters */
 311:cmsis/device/stm32f4xx_i2c.c ****   assert_param(IS_I2C_ALL_PERIPH(I2Cx));
 312:cmsis/device/stm32f4xx_i2c.c ****   assert_param(IS_FUNCTIONAL_STATE(NewState));
 313:cmsis/device/stm32f4xx_i2c.c ****   if (NewState != DISABLE)
 314:cmsis/device/stm32f4xx_i2c.c ****   {
 315:cmsis/device/stm32f4xx_i2c.c ****     /* Enable the selected I2C peripheral */
 316:cmsis/device/stm32f4xx_i2c.c ****     I2Cx->CR1 |= I2C_CR1_PE;
 397              		.loc 1 316 0
 398 0000 0388     		ldrh	r3, [r0, #0]	@,* I2Cx
 313:cmsis/device/stm32f4xx_i2c.c ****   if (NewState != DISABLE)
 399              		.loc 1 313 0
 400 0002 29B9     		cbnz	r1, .L22	@ NewState,
 317:cmsis/device/stm32f4xx_i2c.c ****   }
 318:cmsis/device/stm32f4xx_i2c.c ****   else
 319:cmsis/device/stm32f4xx_i2c.c ****   {
 320:cmsis/device/stm32f4xx_i2c.c ****     /* Disable the selected I2C peripheral */
 321:cmsis/device/stm32f4xx_i2c.c ****     I2Cx->CR1 &= (uint16_t)~((uint16_t)I2C_CR1_PE);
 401              		.loc 1 321 0
 402 0004 23F00101 		bic	r1, r3, #1	@ D.6857, I2Cx_2(D)->CR1,
 403              	.LVL39:
 404 0008 0A04     		lsls	r2, r1, #16	@ D.6857, D.6857,
 405 000a 130C     		lsrs	r3, r2, #16	@ D.6857, D.6857,
 406 000c 0380     		strh	r3, [r0, #0]	@ movhi	@ D.6857,* I2Cx
 407 000e 7047     		bx	lr	@
 408              	.LVL40:
 409              	.L22:
 316:cmsis/device/stm32f4xx_i2c.c ****     I2Cx->CR1 |= I2C_CR1_PE;
 410              		.loc 1 316 0
 411 0010 99B2     		uxth	r1, r3	@ D.6853, I2Cx_2(D)->CR1
 412              	.LVL41:
 413 0012 41F00102 		orr	r2, r1, #1	@ D.6854, D.6853,
 414 0016 0280     		strh	r2, [r0, #0]	@ movhi	@ D.6854,* I2Cx
 415 0018 7047     		bx	lr	@
 416              		.cfi_endproc
 417              	.LFE113:
 418              		.size	I2C_Cmd, .-I2C_Cmd
 419 001a 00BF     		.section	.text.I2C_GenerateSTART,"ax",%progbits
 420              		.align	2
 421              		.global	I2C_GenerateSTART
 422              		.thumb
 423              		.thumb_func
 424              		.type	I2C_GenerateSTART, %function
 425              	I2C_GenerateSTART:
 426              	.LFB114:
 322:cmsis/device/stm32f4xx_i2c.c ****   }
 323:cmsis/device/stm32f4xx_i2c.c **** }
 324:cmsis/device/stm32f4xx_i2c.c **** 
 325:cmsis/device/stm32f4xx_i2c.c **** /**
 326:cmsis/device/stm32f4xx_i2c.c ****   * @brief  Generates I2Cx communication START condition.
 327:cmsis/device/stm32f4xx_i2c.c ****   * @param  I2Cx: where x can be 1, 2 or 3 to select the I2C peripheral.
 328:cmsis/device/stm32f4xx_i2c.c ****   * @param  NewState: new state of the I2C START condition generation.
ARM GAS  C:\Users\CNous\AppData\Local\Temp\ccLIBeCO.s 			page 15


 329:cmsis/device/stm32f4xx_i2c.c ****   *          This parameter can be: ENABLE or DISABLE.
 330:cmsis/device/stm32f4xx_i2c.c ****   * @retval None.
 331:cmsis/device/stm32f4xx_i2c.c ****   */
 332:cmsis/device/stm32f4xx_i2c.c **** void I2C_GenerateSTART(I2C_TypeDef* I2Cx, FunctionalState NewState)
 333:cmsis/device/stm32f4xx_i2c.c **** {
 427              		.loc 1 333 0
 428              		.cfi_startproc
 429              		@ args = 0, pretend = 0, frame = 0
 430              		@ frame_needed = 0, uses_anonymous_args = 0
 431              		@ link register save eliminated.
 432              	.LVL42:
 334:cmsis/device/stm32f4xx_i2c.c ****   /* Check the parameters */
 335:cmsis/device/stm32f4xx_i2c.c ****   assert_param(IS_I2C_ALL_PERIPH(I2Cx));
 336:cmsis/device/stm32f4xx_i2c.c ****   assert_param(IS_FUNCTIONAL_STATE(NewState));
 337:cmsis/device/stm32f4xx_i2c.c ****   if (NewState != DISABLE)
 338:cmsis/device/stm32f4xx_i2c.c ****   {
 339:cmsis/device/stm32f4xx_i2c.c ****     /* Generate a START condition */
 340:cmsis/device/stm32f4xx_i2c.c ****     I2Cx->CR1 |= I2C_CR1_START;
 433              		.loc 1 340 0
 434 0000 0388     		ldrh	r3, [r0, #0]	@,* I2Cx
 337:cmsis/device/stm32f4xx_i2c.c ****   if (NewState != DISABLE)
 435              		.loc 1 337 0
 436 0002 29B9     		cbnz	r1, .L26	@ NewState,
 341:cmsis/device/stm32f4xx_i2c.c ****   }
 342:cmsis/device/stm32f4xx_i2c.c ****   else
 343:cmsis/device/stm32f4xx_i2c.c ****   {
 344:cmsis/device/stm32f4xx_i2c.c ****     /* Disable the START condition generation */
 345:cmsis/device/stm32f4xx_i2c.c ****     I2Cx->CR1 &= (uint16_t)~((uint16_t)I2C_CR1_START);
 437              		.loc 1 345 0
 438 0004 23F48071 		bic	r1, r3, #256	@ D.6850, I2Cx_2(D)->CR1,
 439              	.LVL43:
 440 0008 0A04     		lsls	r2, r1, #16	@ D.6850, D.6850,
 441 000a 130C     		lsrs	r3, r2, #16	@ D.6850, D.6850,
 442 000c 0380     		strh	r3, [r0, #0]	@ movhi	@ D.6850,* I2Cx
 443 000e 7047     		bx	lr	@
 444              	.LVL44:
 445              	.L26:
 340:cmsis/device/stm32f4xx_i2c.c ****     I2Cx->CR1 |= I2C_CR1_START;
 446              		.loc 1 340 0
 447 0010 99B2     		uxth	r1, r3	@ D.6846, I2Cx_2(D)->CR1
 448              	.LVL45:
 449 0012 41F48072 		orr	r2, r1, #256	@ D.6847, D.6846,
 450 0016 0280     		strh	r2, [r0, #0]	@ movhi	@ D.6847,* I2Cx
 451 0018 7047     		bx	lr	@
 452              		.cfi_endproc
 453              	.LFE114:
 454              		.size	I2C_GenerateSTART, .-I2C_GenerateSTART
 455 001a 00BF     		.section	.text.I2C_GenerateSTOP,"ax",%progbits
 456              		.align	2
 457              		.global	I2C_GenerateSTOP
 458              		.thumb
 459              		.thumb_func
 460              		.type	I2C_GenerateSTOP, %function
 461              	I2C_GenerateSTOP:
 462              	.LFB115:
 346:cmsis/device/stm32f4xx_i2c.c ****   }
 347:cmsis/device/stm32f4xx_i2c.c **** }
ARM GAS  C:\Users\CNous\AppData\Local\Temp\ccLIBeCO.s 			page 16


 348:cmsis/device/stm32f4xx_i2c.c **** 
 349:cmsis/device/stm32f4xx_i2c.c **** /**
 350:cmsis/device/stm32f4xx_i2c.c ****   * @brief  Generates I2Cx communication STOP condition.
 351:cmsis/device/stm32f4xx_i2c.c ****   * @param  I2Cx: where x can be 1, 2 or 3 to select the I2C peripheral.
 352:cmsis/device/stm32f4xx_i2c.c ****   * @param  NewState: new state of the I2C STOP condition generation.
 353:cmsis/device/stm32f4xx_i2c.c ****   *          This parameter can be: ENABLE or DISABLE.
 354:cmsis/device/stm32f4xx_i2c.c ****   * @retval None.
 355:cmsis/device/stm32f4xx_i2c.c ****   */
 356:cmsis/device/stm32f4xx_i2c.c **** void I2C_GenerateSTOP(I2C_TypeDef* I2Cx, FunctionalState NewState)
 357:cmsis/device/stm32f4xx_i2c.c **** {
 463              		.loc 1 357 0
 464              		.cfi_startproc
 465              		@ args = 0, pretend = 0, frame = 0
 466              		@ frame_needed = 0, uses_anonymous_args = 0
 467              		@ link register save eliminated.
 468              	.LVL46:
 358:cmsis/device/stm32f4xx_i2c.c ****   /* Check the parameters */
 359:cmsis/device/stm32f4xx_i2c.c ****   assert_param(IS_I2C_ALL_PERIPH(I2Cx));
 360:cmsis/device/stm32f4xx_i2c.c ****   assert_param(IS_FUNCTIONAL_STATE(NewState));
 361:cmsis/device/stm32f4xx_i2c.c ****   if (NewState != DISABLE)
 362:cmsis/device/stm32f4xx_i2c.c ****   {
 363:cmsis/device/stm32f4xx_i2c.c ****     /* Generate a STOP condition */
 364:cmsis/device/stm32f4xx_i2c.c ****     I2Cx->CR1 |= I2C_CR1_STOP;
 469              		.loc 1 364 0
 470 0000 0388     		ldrh	r3, [r0, #0]	@,* I2Cx
 361:cmsis/device/stm32f4xx_i2c.c ****   if (NewState != DISABLE)
 471              		.loc 1 361 0
 472 0002 29B9     		cbnz	r1, .L30	@ NewState,
 365:cmsis/device/stm32f4xx_i2c.c ****   }
 366:cmsis/device/stm32f4xx_i2c.c ****   else
 367:cmsis/device/stm32f4xx_i2c.c ****   {
 368:cmsis/device/stm32f4xx_i2c.c ****     /* Disable the STOP condition generation */
 369:cmsis/device/stm32f4xx_i2c.c ****     I2Cx->CR1 &= (uint16_t)~((uint16_t)I2C_CR1_STOP);
 473              		.loc 1 369 0
 474 0004 23F40071 		bic	r1, r3, #512	@ D.6843, I2Cx_2(D)->CR1,
 475              	.LVL47:
 476 0008 0A04     		lsls	r2, r1, #16	@ D.6843, D.6843,
 477 000a 130C     		lsrs	r3, r2, #16	@ D.6843, D.6843,
 478 000c 0380     		strh	r3, [r0, #0]	@ movhi	@ D.6843,* I2Cx
 479 000e 7047     		bx	lr	@
 480              	.LVL48:
 481              	.L30:
 364:cmsis/device/stm32f4xx_i2c.c ****     I2Cx->CR1 |= I2C_CR1_STOP;
 482              		.loc 1 364 0
 483 0010 99B2     		uxth	r1, r3	@ D.6839, I2Cx_2(D)->CR1
 484              	.LVL49:
 485 0012 41F40072 		orr	r2, r1, #512	@ D.6840, D.6839,
 486 0016 0280     		strh	r2, [r0, #0]	@ movhi	@ D.6840,* I2Cx
 487 0018 7047     		bx	lr	@
 488              		.cfi_endproc
 489              	.LFE115:
 490              		.size	I2C_GenerateSTOP, .-I2C_GenerateSTOP
 491 001a 00BF     		.section	.text.I2C_Send7bitAddress,"ax",%progbits
 492              		.align	2
 493              		.global	I2C_Send7bitAddress
 494              		.thumb
 495              		.thumb_func
ARM GAS  C:\Users\CNous\AppData\Local\Temp\ccLIBeCO.s 			page 17


 496              		.type	I2C_Send7bitAddress, %function
 497              	I2C_Send7bitAddress:
 498              	.LFB116:
 370:cmsis/device/stm32f4xx_i2c.c ****   }
 371:cmsis/device/stm32f4xx_i2c.c **** }
 372:cmsis/device/stm32f4xx_i2c.c **** 
 373:cmsis/device/stm32f4xx_i2c.c **** /**
 374:cmsis/device/stm32f4xx_i2c.c ****   * @brief  Transmits the address byte to select the slave device.
 375:cmsis/device/stm32f4xx_i2c.c ****   * @param  I2Cx: where x can be 1, 2 or 3 to select the I2C peripheral.
 376:cmsis/device/stm32f4xx_i2c.c ****   * @param  Address: specifies the slave address which will be transmitted
 377:cmsis/device/stm32f4xx_i2c.c ****   * @param  I2C_Direction: specifies whether the I2C device will be a Transmitter
 378:cmsis/device/stm32f4xx_i2c.c ****   *         or a Receiver. 
 379:cmsis/device/stm32f4xx_i2c.c ****   *          This parameter can be one of the following values
 380:cmsis/device/stm32f4xx_i2c.c ****   *            @arg I2C_Direction_Transmitter: Transmitter mode
 381:cmsis/device/stm32f4xx_i2c.c ****   *            @arg I2C_Direction_Receiver: Receiver mode
 382:cmsis/device/stm32f4xx_i2c.c ****   * @retval None.
 383:cmsis/device/stm32f4xx_i2c.c ****   */
 384:cmsis/device/stm32f4xx_i2c.c **** void I2C_Send7bitAddress(I2C_TypeDef* I2Cx, uint8_t Address, uint8_t I2C_Direction)
 385:cmsis/device/stm32f4xx_i2c.c **** {
 499              		.loc 1 385 0
 500              		.cfi_startproc
 501              		@ args = 0, pretend = 0, frame = 0
 502              		@ frame_needed = 0, uses_anonymous_args = 0
 503              		@ link register save eliminated.
 504              	.LVL50:
 386:cmsis/device/stm32f4xx_i2c.c ****   /* Check the parameters */
 387:cmsis/device/stm32f4xx_i2c.c ****   assert_param(IS_I2C_ALL_PERIPH(I2Cx));
 388:cmsis/device/stm32f4xx_i2c.c ****   assert_param(IS_I2C_DIRECTION(I2C_Direction));
 389:cmsis/device/stm32f4xx_i2c.c ****   /* Test on the direction to set/reset the read/write bit */
 390:cmsis/device/stm32f4xx_i2c.c ****   if (I2C_Direction != I2C_Direction_Transmitter)
 505              		.loc 1 390 0
 506 0000 1AB9     		cbnz	r2, .L34	@ I2C_Direction,
 391:cmsis/device/stm32f4xx_i2c.c ****   {
 392:cmsis/device/stm32f4xx_i2c.c ****     /* Set the address bit0 for read */
 393:cmsis/device/stm32f4xx_i2c.c ****     Address |= I2C_OAR1_ADD0;
 394:cmsis/device/stm32f4xx_i2c.c ****   }
 395:cmsis/device/stm32f4xx_i2c.c ****   else
 396:cmsis/device/stm32f4xx_i2c.c ****   {
 397:cmsis/device/stm32f4xx_i2c.c ****     /* Reset the address bit0 for write */
 398:cmsis/device/stm32f4xx_i2c.c ****     Address &= (uint8_t)~((uint8_t)I2C_OAR1_ADD0);
 507              		.loc 1 398 0
 508 0002 01F0FE01 		and	r1, r1, #254	@ Address, Address,
 509              	.LVL51:
 399:cmsis/device/stm32f4xx_i2c.c ****   }
 400:cmsis/device/stm32f4xx_i2c.c ****   /* Send the address */
 401:cmsis/device/stm32f4xx_i2c.c ****   I2Cx->DR = Address;
 510              		.loc 1 401 0
 511 0006 0182     		strh	r1, [r0, #16]	@ movhi	@ Address, I2Cx_7(D)->DR
 512 0008 7047     		bx	lr	@
 513              	.L34:
 393:cmsis/device/stm32f4xx_i2c.c ****     Address |= I2C_OAR1_ADD0;
 514              		.loc 1 393 0
 515 000a 41F00101 		orr	r1, r1, #1	@ Address, Address,
 516              	.LVL52:
 517              		.loc 1 401 0
 518 000e 0182     		strh	r1, [r0, #16]	@ movhi	@ Address, I2Cx_7(D)->DR
 519 0010 7047     		bx	lr	@
ARM GAS  C:\Users\CNous\AppData\Local\Temp\ccLIBeCO.s 			page 18


 520              		.cfi_endproc
 521              	.LFE116:
 522              		.size	I2C_Send7bitAddress, .-I2C_Send7bitAddress
 523 0012 00BF     		.section	.text.I2C_AcknowledgeConfig,"ax",%progbits
 524              		.align	2
 525              		.global	I2C_AcknowledgeConfig
 526              		.thumb
 527              		.thumb_func
 528              		.type	I2C_AcknowledgeConfig, %function
 529              	I2C_AcknowledgeConfig:
 530              	.LFB117:
 402:cmsis/device/stm32f4xx_i2c.c **** }
 403:cmsis/device/stm32f4xx_i2c.c **** 
 404:cmsis/device/stm32f4xx_i2c.c **** /**
 405:cmsis/device/stm32f4xx_i2c.c ****   * @brief  Enables or disables the specified I2C acknowledge feature.
 406:cmsis/device/stm32f4xx_i2c.c ****   * @param  I2Cx: where x can be 1, 2 or 3 to select the I2C peripheral.
 407:cmsis/device/stm32f4xx_i2c.c ****   * @param  NewState: new state of the I2C Acknowledgement.
 408:cmsis/device/stm32f4xx_i2c.c ****   *          This parameter can be: ENABLE or DISABLE.
 409:cmsis/device/stm32f4xx_i2c.c ****   * @retval None.
 410:cmsis/device/stm32f4xx_i2c.c ****   */
 411:cmsis/device/stm32f4xx_i2c.c **** void I2C_AcknowledgeConfig(I2C_TypeDef* I2Cx, FunctionalState NewState)
 412:cmsis/device/stm32f4xx_i2c.c **** {
 531              		.loc 1 412 0
 532              		.cfi_startproc
 533              		@ args = 0, pretend = 0, frame = 0
 534              		@ frame_needed = 0, uses_anonymous_args = 0
 535              		@ link register save eliminated.
 536              	.LVL53:
 413:cmsis/device/stm32f4xx_i2c.c ****   /* Check the parameters */
 414:cmsis/device/stm32f4xx_i2c.c ****   assert_param(IS_I2C_ALL_PERIPH(I2Cx));
 415:cmsis/device/stm32f4xx_i2c.c ****   assert_param(IS_FUNCTIONAL_STATE(NewState));
 416:cmsis/device/stm32f4xx_i2c.c ****   if (NewState != DISABLE)
 417:cmsis/device/stm32f4xx_i2c.c ****   {
 418:cmsis/device/stm32f4xx_i2c.c ****     /* Enable the acknowledgement */
 419:cmsis/device/stm32f4xx_i2c.c ****     I2Cx->CR1 |= I2C_CR1_ACK;
 537              		.loc 1 419 0
 538 0000 0388     		ldrh	r3, [r0, #0]	@,* I2Cx
 416:cmsis/device/stm32f4xx_i2c.c ****   if (NewState != DISABLE)
 539              		.loc 1 416 0
 540 0002 29B9     		cbnz	r1, .L38	@ NewState,
 420:cmsis/device/stm32f4xx_i2c.c ****   }
 421:cmsis/device/stm32f4xx_i2c.c ****   else
 422:cmsis/device/stm32f4xx_i2c.c ****   {
 423:cmsis/device/stm32f4xx_i2c.c ****     /* Disable the acknowledgement */
 424:cmsis/device/stm32f4xx_i2c.c ****     I2Cx->CR1 &= (uint16_t)~((uint16_t)I2C_CR1_ACK);
 541              		.loc 1 424 0
 542 0004 23F48061 		bic	r1, r3, #1024	@ D.6832, I2Cx_2(D)->CR1,
 543              	.LVL54:
 544 0008 0A04     		lsls	r2, r1, #16	@ D.6832, D.6832,
 545 000a 130C     		lsrs	r3, r2, #16	@ D.6832, D.6832,
 546 000c 0380     		strh	r3, [r0, #0]	@ movhi	@ D.6832,* I2Cx
 547 000e 7047     		bx	lr	@
 548              	.LVL55:
 549              	.L38:
 419:cmsis/device/stm32f4xx_i2c.c ****     I2Cx->CR1 |= I2C_CR1_ACK;
 550              		.loc 1 419 0
 551 0010 99B2     		uxth	r1, r3	@ D.6828, I2Cx_2(D)->CR1
ARM GAS  C:\Users\CNous\AppData\Local\Temp\ccLIBeCO.s 			page 19


 552              	.LVL56:
 553 0012 41F48062 		orr	r2, r1, #1024	@ D.6829, D.6828,
 554 0016 0280     		strh	r2, [r0, #0]	@ movhi	@ D.6829,* I2Cx
 555 0018 7047     		bx	lr	@
 556              		.cfi_endproc
 557              	.LFE117:
 558              		.size	I2C_AcknowledgeConfig, .-I2C_AcknowledgeConfig
 559 001a 00BF     		.section	.text.I2C_OwnAddress2Config,"ax",%progbits
 560              		.align	2
 561              		.global	I2C_OwnAddress2Config
 562              		.thumb
 563              		.thumb_func
 564              		.type	I2C_OwnAddress2Config, %function
 565              	I2C_OwnAddress2Config:
 566              	.LFB118:
 425:cmsis/device/stm32f4xx_i2c.c ****   }
 426:cmsis/device/stm32f4xx_i2c.c **** }
 427:cmsis/device/stm32f4xx_i2c.c **** 
 428:cmsis/device/stm32f4xx_i2c.c **** /**
 429:cmsis/device/stm32f4xx_i2c.c ****   * @brief  Configures the specified I2C own address2.
 430:cmsis/device/stm32f4xx_i2c.c ****   * @param  I2Cx: where x can be 1, 2 or 3 to select the I2C peripheral.
 431:cmsis/device/stm32f4xx_i2c.c ****   * @param  Address: specifies the 7bit I2C own address2.
 432:cmsis/device/stm32f4xx_i2c.c ****   * @retval None.
 433:cmsis/device/stm32f4xx_i2c.c ****   */
 434:cmsis/device/stm32f4xx_i2c.c **** void I2C_OwnAddress2Config(I2C_TypeDef* I2Cx, uint8_t Address)
 435:cmsis/device/stm32f4xx_i2c.c **** {
 567              		.loc 1 435 0
 568              		.cfi_startproc
 569              		@ args = 0, pretend = 0, frame = 0
 570              		@ frame_needed = 0, uses_anonymous_args = 0
 571              		@ link register save eliminated.
 572              	.LVL57:
 436:cmsis/device/stm32f4xx_i2c.c ****   uint16_t tmpreg = 0;
 437:cmsis/device/stm32f4xx_i2c.c **** 
 438:cmsis/device/stm32f4xx_i2c.c ****   /* Check the parameters */
 439:cmsis/device/stm32f4xx_i2c.c ****   assert_param(IS_I2C_ALL_PERIPH(I2Cx));
 440:cmsis/device/stm32f4xx_i2c.c **** 
 441:cmsis/device/stm32f4xx_i2c.c ****   /* Get the old register value */
 442:cmsis/device/stm32f4xx_i2c.c ****   tmpreg = I2Cx->OAR2;
 573              		.loc 1 442 0
 574 0000 8389     		ldrh	r3, [r0, #12]	@, I2Cx_2(D)->OAR2
 575              	.LVL58:
 443:cmsis/device/stm32f4xx_i2c.c **** 
 444:cmsis/device/stm32f4xx_i2c.c ****   /* Reset I2Cx Own address2 bit [7:1] */
 445:cmsis/device/stm32f4xx_i2c.c ****   tmpreg &= (uint16_t)~((uint16_t)I2C_OAR2_ADD2);
 576              		.loc 1 445 0
 577 0002 23F0FE02 		bic	r2, r3, #254	@ tmp148, I2Cx_2(D)->OAR2,
 578 0006 1304     		lsls	r3, r2, #16	@ tmp148, tmp148,
 579              	.LVL59:
 446:cmsis/device/stm32f4xx_i2c.c **** 
 447:cmsis/device/stm32f4xx_i2c.c ****   /* Set I2Cx Own address2 */
 448:cmsis/device/stm32f4xx_i2c.c ****   tmpreg |= (uint16_t)((uint16_t)Address & (uint16_t)0x00FE);
 580              		.loc 1 448 0
 581 0008 01F0FE01 		and	r1, r1, #254	@ tmp147, Address,
 582              	.LVL60:
 445:cmsis/device/stm32f4xx_i2c.c ****   tmpreg &= (uint16_t)~((uint16_t)I2C_OAR2_ADD2);
 583              		.loc 1 445 0
ARM GAS  C:\Users\CNous\AppData\Local\Temp\ccLIBeCO.s 			page 20


 584 000c 1A0C     		lsrs	r2, r3, #16	@ tmp148, tmp148,
 585              		.loc 1 448 0
 586 000e 1143     		orrs	r1, r1, r2	@, tmpreg, tmp147, tmp148
 587              	.LVL61:
 449:cmsis/device/stm32f4xx_i2c.c **** 
 450:cmsis/device/stm32f4xx_i2c.c ****   /* Store the new register value */
 451:cmsis/device/stm32f4xx_i2c.c ****   I2Cx->OAR2 = tmpreg;
 588              		.loc 1 451 0
 589 0010 8181     		strh	r1, [r0, #12]	@ movhi	@ tmpreg, I2Cx_2(D)->OAR2
 590 0012 7047     		bx	lr	@
 591              		.cfi_endproc
 592              	.LFE118:
 593              		.size	I2C_OwnAddress2Config, .-I2C_OwnAddress2Config
 594              		.section	.text.I2C_DualAddressCmd,"ax",%progbits
 595              		.align	2
 596              		.global	I2C_DualAddressCmd
 597              		.thumb
 598              		.thumb_func
 599              		.type	I2C_DualAddressCmd, %function
 600              	I2C_DualAddressCmd:
 601              	.LFB119:
 452:cmsis/device/stm32f4xx_i2c.c **** }
 453:cmsis/device/stm32f4xx_i2c.c **** 
 454:cmsis/device/stm32f4xx_i2c.c **** /**
 455:cmsis/device/stm32f4xx_i2c.c ****   * @brief  Enables or disables the specified I2C dual addressing mode.
 456:cmsis/device/stm32f4xx_i2c.c ****   * @param  I2Cx: where x can be 1, 2 or 3 to select the I2C peripheral.
 457:cmsis/device/stm32f4xx_i2c.c ****   * @param  NewState: new state of the I2C dual addressing mode.
 458:cmsis/device/stm32f4xx_i2c.c ****   *          This parameter can be: ENABLE or DISABLE.
 459:cmsis/device/stm32f4xx_i2c.c ****   * @retval None
 460:cmsis/device/stm32f4xx_i2c.c ****   */
 461:cmsis/device/stm32f4xx_i2c.c **** void I2C_DualAddressCmd(I2C_TypeDef* I2Cx, FunctionalState NewState)
 462:cmsis/device/stm32f4xx_i2c.c **** {
 602              		.loc 1 462 0
 603              		.cfi_startproc
 604              		@ args = 0, pretend = 0, frame = 0
 605              		@ frame_needed = 0, uses_anonymous_args = 0
 606              		@ link register save eliminated.
 607              	.LVL62:
 463:cmsis/device/stm32f4xx_i2c.c ****   /* Check the parameters */
 464:cmsis/device/stm32f4xx_i2c.c ****   assert_param(IS_I2C_ALL_PERIPH(I2Cx));
 465:cmsis/device/stm32f4xx_i2c.c ****   assert_param(IS_FUNCTIONAL_STATE(NewState));
 466:cmsis/device/stm32f4xx_i2c.c ****   if (NewState != DISABLE)
 467:cmsis/device/stm32f4xx_i2c.c ****   {
 468:cmsis/device/stm32f4xx_i2c.c ****     /* Enable dual addressing mode */
 469:cmsis/device/stm32f4xx_i2c.c ****     I2Cx->OAR2 |= I2C_OAR2_ENDUAL;
 608              		.loc 1 469 0
 609 0000 8389     		ldrh	r3, [r0, #12]	@,
 466:cmsis/device/stm32f4xx_i2c.c ****   if (NewState != DISABLE)
 610              		.loc 1 466 0
 611 0002 29B9     		cbnz	r1, .L43	@ NewState,
 470:cmsis/device/stm32f4xx_i2c.c ****   }
 471:cmsis/device/stm32f4xx_i2c.c ****   else
 472:cmsis/device/stm32f4xx_i2c.c ****   {
 473:cmsis/device/stm32f4xx_i2c.c ****     /* Disable dual addressing mode */
 474:cmsis/device/stm32f4xx_i2c.c ****     I2Cx->OAR2 &= (uint16_t)~((uint16_t)I2C_OAR2_ENDUAL);
 612              		.loc 1 474 0
 613 0004 23F00101 		bic	r1, r3, #1	@ D.6821, I2Cx_2(D)->OAR2,
ARM GAS  C:\Users\CNous\AppData\Local\Temp\ccLIBeCO.s 			page 21


 614              	.LVL63:
 615 0008 0A04     		lsls	r2, r1, #16	@ D.6821, D.6821,
 616 000a 130C     		lsrs	r3, r2, #16	@ D.6821, D.6821,
 617 000c 8381     		strh	r3, [r0, #12]	@ movhi	@ D.6821,
 618 000e 7047     		bx	lr	@
 619              	.LVL64:
 620              	.L43:
 469:cmsis/device/stm32f4xx_i2c.c ****     I2Cx->OAR2 |= I2C_OAR2_ENDUAL;
 621              		.loc 1 469 0
 622 0010 99B2     		uxth	r1, r3	@ D.6817, I2Cx_2(D)->OAR2
 623              	.LVL65:
 624 0012 41F00102 		orr	r2, r1, #1	@ D.6818, D.6817,
 625 0016 8281     		strh	r2, [r0, #12]	@ movhi	@ D.6818,
 626 0018 7047     		bx	lr	@
 627              		.cfi_endproc
 628              	.LFE119:
 629              		.size	I2C_DualAddressCmd, .-I2C_DualAddressCmd
 630 001a 00BF     		.section	.text.I2C_GeneralCallCmd,"ax",%progbits
 631              		.align	2
 632              		.global	I2C_GeneralCallCmd
 633              		.thumb
 634              		.thumb_func
 635              		.type	I2C_GeneralCallCmd, %function
 636              	I2C_GeneralCallCmd:
 637              	.LFB120:
 475:cmsis/device/stm32f4xx_i2c.c ****   }
 476:cmsis/device/stm32f4xx_i2c.c **** }
 477:cmsis/device/stm32f4xx_i2c.c **** 
 478:cmsis/device/stm32f4xx_i2c.c **** /**
 479:cmsis/device/stm32f4xx_i2c.c ****   * @brief  Enables or disables the specified I2C general call feature.
 480:cmsis/device/stm32f4xx_i2c.c ****   * @param  I2Cx: where x can be 1, 2 or 3 to select the I2C peripheral.
 481:cmsis/device/stm32f4xx_i2c.c ****   * @param  NewState: new state of the I2C General call.
 482:cmsis/device/stm32f4xx_i2c.c ****   *          This parameter can be: ENABLE or DISABLE.
 483:cmsis/device/stm32f4xx_i2c.c ****   * @retval None
 484:cmsis/device/stm32f4xx_i2c.c ****   */
 485:cmsis/device/stm32f4xx_i2c.c **** void I2C_GeneralCallCmd(I2C_TypeDef* I2Cx, FunctionalState NewState)
 486:cmsis/device/stm32f4xx_i2c.c **** {
 638              		.loc 1 486 0
 639              		.cfi_startproc
 640              		@ args = 0, pretend = 0, frame = 0
 641              		@ frame_needed = 0, uses_anonymous_args = 0
 642              		@ link register save eliminated.
 643              	.LVL66:
 487:cmsis/device/stm32f4xx_i2c.c ****   /* Check the parameters */
 488:cmsis/device/stm32f4xx_i2c.c ****   assert_param(IS_I2C_ALL_PERIPH(I2Cx));
 489:cmsis/device/stm32f4xx_i2c.c ****   assert_param(IS_FUNCTIONAL_STATE(NewState));
 490:cmsis/device/stm32f4xx_i2c.c ****   if (NewState != DISABLE)
 491:cmsis/device/stm32f4xx_i2c.c ****   {
 492:cmsis/device/stm32f4xx_i2c.c ****     /* Enable generall call */
 493:cmsis/device/stm32f4xx_i2c.c ****     I2Cx->CR1 |= I2C_CR1_ENGC;
 644              		.loc 1 493 0
 645 0000 0388     		ldrh	r3, [r0, #0]	@,* I2Cx
 490:cmsis/device/stm32f4xx_i2c.c ****   if (NewState != DISABLE)
 646              		.loc 1 490 0
 647 0002 29B9     		cbnz	r1, .L47	@ NewState,
 494:cmsis/device/stm32f4xx_i2c.c ****   }
 495:cmsis/device/stm32f4xx_i2c.c ****   else
ARM GAS  C:\Users\CNous\AppData\Local\Temp\ccLIBeCO.s 			page 22


 496:cmsis/device/stm32f4xx_i2c.c ****   {
 497:cmsis/device/stm32f4xx_i2c.c ****     /* Disable generall call */
 498:cmsis/device/stm32f4xx_i2c.c ****     I2Cx->CR1 &= (uint16_t)~((uint16_t)I2C_CR1_ENGC);
 648              		.loc 1 498 0
 649 0004 23F04001 		bic	r1, r3, #64	@ D.6814, I2Cx_2(D)->CR1,
 650              	.LVL67:
 651 0008 0A04     		lsls	r2, r1, #16	@ D.6814, D.6814,
 652 000a 130C     		lsrs	r3, r2, #16	@ D.6814, D.6814,
 653 000c 0380     		strh	r3, [r0, #0]	@ movhi	@ D.6814,* I2Cx
 654 000e 7047     		bx	lr	@
 655              	.LVL68:
 656              	.L47:
 493:cmsis/device/stm32f4xx_i2c.c ****     I2Cx->CR1 |= I2C_CR1_ENGC;
 657              		.loc 1 493 0
 658 0010 99B2     		uxth	r1, r3	@ D.6810, I2Cx_2(D)->CR1
 659              	.LVL69:
 660 0012 41F04002 		orr	r2, r1, #64	@ D.6811, D.6810,
 661 0016 0280     		strh	r2, [r0, #0]	@ movhi	@ D.6811,* I2Cx
 662 0018 7047     		bx	lr	@
 663              		.cfi_endproc
 664              	.LFE120:
 665              		.size	I2C_GeneralCallCmd, .-I2C_GeneralCallCmd
 666 001a 00BF     		.section	.text.I2C_SoftwareResetCmd,"ax",%progbits
 667              		.align	2
 668              		.global	I2C_SoftwareResetCmd
 669              		.thumb
 670              		.thumb_func
 671              		.type	I2C_SoftwareResetCmd, %function
 672              	I2C_SoftwareResetCmd:
 673              	.LFB121:
 499:cmsis/device/stm32f4xx_i2c.c ****   }
 500:cmsis/device/stm32f4xx_i2c.c **** }
 501:cmsis/device/stm32f4xx_i2c.c **** 
 502:cmsis/device/stm32f4xx_i2c.c **** /**
 503:cmsis/device/stm32f4xx_i2c.c ****   * @brief  Enables or disables the specified I2C software reset.
 504:cmsis/device/stm32f4xx_i2c.c ****   * @note   When software reset is enabled, the I2C IOs are released (this can
 505:cmsis/device/stm32f4xx_i2c.c ****   *         be useful to recover from bus errors).  
 506:cmsis/device/stm32f4xx_i2c.c ****   * @param  I2Cx: where x can be 1, 2 or 3 to select the I2C peripheral.
 507:cmsis/device/stm32f4xx_i2c.c ****   * @param  NewState: new state of the I2C software reset.
 508:cmsis/device/stm32f4xx_i2c.c ****   *          This parameter can be: ENABLE or DISABLE.
 509:cmsis/device/stm32f4xx_i2c.c ****   * @retval None
 510:cmsis/device/stm32f4xx_i2c.c ****   */
 511:cmsis/device/stm32f4xx_i2c.c **** void I2C_SoftwareResetCmd(I2C_TypeDef* I2Cx, FunctionalState NewState)
 512:cmsis/device/stm32f4xx_i2c.c **** {
 674              		.loc 1 512 0
 675              		.cfi_startproc
 676              		@ args = 0, pretend = 0, frame = 0
 677              		@ frame_needed = 0, uses_anonymous_args = 0
 678              		@ link register save eliminated.
 679              	.LVL70:
 513:cmsis/device/stm32f4xx_i2c.c ****   /* Check the parameters */
 514:cmsis/device/stm32f4xx_i2c.c ****   assert_param(IS_I2C_ALL_PERIPH(I2Cx));
 515:cmsis/device/stm32f4xx_i2c.c ****   assert_param(IS_FUNCTIONAL_STATE(NewState));
 516:cmsis/device/stm32f4xx_i2c.c ****   if (NewState != DISABLE)
 517:cmsis/device/stm32f4xx_i2c.c ****   {
 518:cmsis/device/stm32f4xx_i2c.c ****     /* Peripheral under reset */
 519:cmsis/device/stm32f4xx_i2c.c ****     I2Cx->CR1 |= I2C_CR1_SWRST;
ARM GAS  C:\Users\CNous\AppData\Local\Temp\ccLIBeCO.s 			page 23


 680              		.loc 1 519 0
 681 0000 0388     		ldrh	r3, [r0, #0]	@,* I2Cx
 516:cmsis/device/stm32f4xx_i2c.c ****   if (NewState != DISABLE)
 682              		.loc 1 516 0
 683 0002 19B9     		cbnz	r1, .L51	@ NewState,
 520:cmsis/device/stm32f4xx_i2c.c ****   }
 521:cmsis/device/stm32f4xx_i2c.c ****   else
 522:cmsis/device/stm32f4xx_i2c.c ****   {
 523:cmsis/device/stm32f4xx_i2c.c ****     /* Peripheral not under reset */
 524:cmsis/device/stm32f4xx_i2c.c ****     I2Cx->CR1 &= (uint16_t)~((uint16_t)I2C_CR1_SWRST);
 684              		.loc 1 524 0
 685 0004 5904     		lsls	r1, r3, #17	@ D.6807, I2Cx_2(D)->CR1,
 686              	.LVL71:
 687 0006 4A0C     		lsrs	r2, r1, #17	@ D.6807, D.6807,
 688 0008 0280     		strh	r2, [r0, #0]	@ movhi	@ D.6807,* I2Cx
 689 000a 7047     		bx	lr	@
 690              	.LVL72:
 691              	.L51:
 519:cmsis/device/stm32f4xx_i2c.c ****     I2Cx->CR1 |= I2C_CR1_SWRST;
 692              		.loc 1 519 0
 693 000c 6FEA4343 		mvn	r3, r3, lsl #17	@ tmp142, I2Cx_2(D)->CR1,
 694 0010 6FEA5341 		mvn	r1, r3, lsr #17	@ tmp141, tmp142,
 695              	.LVL73:
 696 0014 8AB2     		uxth	r2, r1	@ D.6804, tmp141
 697 0016 0280     		strh	r2, [r0, #0]	@ movhi	@ D.6804,* I2Cx
 698 0018 7047     		bx	lr	@
 699              		.cfi_endproc
 700              	.LFE121:
 701              		.size	I2C_SoftwareResetCmd, .-I2C_SoftwareResetCmd
 702 001a 00BF     		.section	.text.I2C_StretchClockCmd,"ax",%progbits
 703              		.align	2
 704              		.global	I2C_StretchClockCmd
 705              		.thumb
 706              		.thumb_func
 707              		.type	I2C_StretchClockCmd, %function
 708              	I2C_StretchClockCmd:
 709              	.LFB122:
 525:cmsis/device/stm32f4xx_i2c.c ****   }
 526:cmsis/device/stm32f4xx_i2c.c **** }
 527:cmsis/device/stm32f4xx_i2c.c **** 
 528:cmsis/device/stm32f4xx_i2c.c **** /**
 529:cmsis/device/stm32f4xx_i2c.c ****   * @brief  Enables or disables the specified I2C Clock stretching.
 530:cmsis/device/stm32f4xx_i2c.c ****   * @param  I2Cx: where x can be 1, 2 or 3 to select the I2C peripheral.
 531:cmsis/device/stm32f4xx_i2c.c ****   * @param  NewState: new state of the I2Cx Clock stretching.
 532:cmsis/device/stm32f4xx_i2c.c ****   *          This parameter can be: ENABLE or DISABLE.
 533:cmsis/device/stm32f4xx_i2c.c ****   * @retval None
 534:cmsis/device/stm32f4xx_i2c.c ****   */
 535:cmsis/device/stm32f4xx_i2c.c **** void I2C_StretchClockCmd(I2C_TypeDef* I2Cx, FunctionalState NewState)
 536:cmsis/device/stm32f4xx_i2c.c **** {
 710              		.loc 1 536 0
 711              		.cfi_startproc
 712              		@ args = 0, pretend = 0, frame = 0
 713              		@ frame_needed = 0, uses_anonymous_args = 0
 714              		@ link register save eliminated.
 715              	.LVL74:
 537:cmsis/device/stm32f4xx_i2c.c ****   /* Check the parameters */
 538:cmsis/device/stm32f4xx_i2c.c ****   assert_param(IS_I2C_ALL_PERIPH(I2Cx));
ARM GAS  C:\Users\CNous\AppData\Local\Temp\ccLIBeCO.s 			page 24


 539:cmsis/device/stm32f4xx_i2c.c ****   assert_param(IS_FUNCTIONAL_STATE(NewState));
 540:cmsis/device/stm32f4xx_i2c.c ****   if (NewState == DISABLE)
 541:cmsis/device/stm32f4xx_i2c.c ****   {
 542:cmsis/device/stm32f4xx_i2c.c ****     /* Enable the selected I2C Clock stretching */
 543:cmsis/device/stm32f4xx_i2c.c ****     I2Cx->CR1 |= I2C_CR1_NOSTRETCH;
 716              		.loc 1 543 0
 717 0000 0388     		ldrh	r3, [r0, #0]	@,* I2Cx
 540:cmsis/device/stm32f4xx_i2c.c ****   if (NewState == DISABLE)
 718              		.loc 1 540 0
 719 0002 29B1     		cbz	r1, .L55	@ NewState,
 544:cmsis/device/stm32f4xx_i2c.c ****   }
 545:cmsis/device/stm32f4xx_i2c.c ****   else
 546:cmsis/device/stm32f4xx_i2c.c ****   {
 547:cmsis/device/stm32f4xx_i2c.c ****     /* Disable the selected I2C Clock stretching */
 548:cmsis/device/stm32f4xx_i2c.c ****     I2Cx->CR1 &= (uint16_t)~((uint16_t)I2C_CR1_NOSTRETCH);
 720              		.loc 1 548 0
 721 0004 23F08001 		bic	r1, r3, #128	@ D.6800, I2Cx_2(D)->CR1,
 722              	.LVL75:
 723 0008 0A04     		lsls	r2, r1, #16	@ D.6800, D.6800,
 724 000a 130C     		lsrs	r3, r2, #16	@ D.6800, D.6800,
 725 000c 0380     		strh	r3, [r0, #0]	@ movhi	@ D.6800,* I2Cx
 726 000e 7047     		bx	lr	@
 727              	.LVL76:
 728              	.L55:
 543:cmsis/device/stm32f4xx_i2c.c ****     I2Cx->CR1 |= I2C_CR1_NOSTRETCH;
 729              		.loc 1 543 0
 730 0010 99B2     		uxth	r1, r3	@ D.6796, I2Cx_2(D)->CR1
 731              	.LVL77:
 732 0012 41F08002 		orr	r2, r1, #128	@ D.6797, D.6796,
 733 0016 0280     		strh	r2, [r0, #0]	@ movhi	@ D.6797,* I2Cx
 734 0018 7047     		bx	lr	@
 735              		.cfi_endproc
 736              	.LFE122:
 737              		.size	I2C_StretchClockCmd, .-I2C_StretchClockCmd
 738 001a 00BF     		.section	.text.I2C_FastModeDutyCycleConfig,"ax",%progbits
 739              		.align	2
 740              		.global	I2C_FastModeDutyCycleConfig
 741              		.thumb
 742              		.thumb_func
 743              		.type	I2C_FastModeDutyCycleConfig, %function
 744              	I2C_FastModeDutyCycleConfig:
 745              	.LFB123:
 549:cmsis/device/stm32f4xx_i2c.c ****   }
 550:cmsis/device/stm32f4xx_i2c.c **** }
 551:cmsis/device/stm32f4xx_i2c.c **** 
 552:cmsis/device/stm32f4xx_i2c.c **** /**
 553:cmsis/device/stm32f4xx_i2c.c ****   * @brief  Selects the specified I2C fast mode duty cycle.
 554:cmsis/device/stm32f4xx_i2c.c ****   * @param  I2Cx: where x can be 1, 2 or 3 to select the I2C peripheral.
 555:cmsis/device/stm32f4xx_i2c.c ****   * @param  I2C_DutyCycle: specifies the fast mode duty cycle.
 556:cmsis/device/stm32f4xx_i2c.c ****   *          This parameter can be one of the following values:
 557:cmsis/device/stm32f4xx_i2c.c ****   *            @arg I2C_DutyCycle_2: I2C fast mode Tlow/Thigh = 2
 558:cmsis/device/stm32f4xx_i2c.c ****   *            @arg I2C_DutyCycle_16_9: I2C fast mode Tlow/Thigh = 16/9
 559:cmsis/device/stm32f4xx_i2c.c ****   * @retval None
 560:cmsis/device/stm32f4xx_i2c.c ****   */
 561:cmsis/device/stm32f4xx_i2c.c **** void I2C_FastModeDutyCycleConfig(I2C_TypeDef* I2Cx, uint16_t I2C_DutyCycle)
 562:cmsis/device/stm32f4xx_i2c.c **** {
 746              		.loc 1 562 0
ARM GAS  C:\Users\CNous\AppData\Local\Temp\ccLIBeCO.s 			page 25


 747              		.cfi_startproc
 748              		@ args = 0, pretend = 0, frame = 0
 749              		@ frame_needed = 0, uses_anonymous_args = 0
 750              		@ link register save eliminated.
 751              	.LVL78:
 563:cmsis/device/stm32f4xx_i2c.c ****   /* Check the parameters */
 564:cmsis/device/stm32f4xx_i2c.c ****   assert_param(IS_I2C_ALL_PERIPH(I2Cx));
 565:cmsis/device/stm32f4xx_i2c.c ****   assert_param(IS_I2C_DUTY_CYCLE(I2C_DutyCycle));
 566:cmsis/device/stm32f4xx_i2c.c ****   if (I2C_DutyCycle != I2C_DutyCycle_16_9)
 752              		.loc 1 566 0
 753 0000 B1F5804F 		cmp	r1, #16384	@ I2C_DutyCycle,
 567:cmsis/device/stm32f4xx_i2c.c ****   {
 568:cmsis/device/stm32f4xx_i2c.c ****     /* I2C fast mode Tlow/Thigh=2 */
 569:cmsis/device/stm32f4xx_i2c.c ****     I2Cx->CCR &= I2C_DutyCycle_2;
 754              		.loc 1 569 0
 755 0004 838B     		ldrh	r3, [r0, #28]	@,
 566:cmsis/device/stm32f4xx_i2c.c ****   if (I2C_DutyCycle != I2C_DutyCycle_16_9)
 756              		.loc 1 566 0
 757 0006 05D0     		beq	.L57	@,
 758              		.loc 1 569 0
 759 0008 23F48043 		bic	r3, r3, #16384	@ D.6790, I2Cx_2(D)->CCR,
 760 000c 1904     		lsls	r1, r3, #16	@ D.6790, D.6790,
 761              	.LVL79:
 762 000e 0A0C     		lsrs	r2, r1, #16	@ D.6790, D.6790,
 763 0010 8283     		strh	r2, [r0, #28]	@ movhi	@ D.6790,
 764 0012 7047     		bx	lr	@
 765              	.LVL80:
 766              	.L57:
 570:cmsis/device/stm32f4xx_i2c.c ****   }
 571:cmsis/device/stm32f4xx_i2c.c ****   else
 572:cmsis/device/stm32f4xx_i2c.c ****   {
 573:cmsis/device/stm32f4xx_i2c.c ****     /* I2C fast mode Tlow/Thigh=16/9 */
 574:cmsis/device/stm32f4xx_i2c.c ****     I2Cx->CCR |= I2C_DutyCycle_16_9;
 767              		.loc 1 574 0
 768 0014 99B2     		uxth	r1, r3	@ D.6792, I2Cx_2(D)->CCR
 769              	.LVL81:
 770 0016 41F48042 		orr	r2, r1, #16384	@ D.6793, D.6792,
 771 001a 8283     		strh	r2, [r0, #28]	@ movhi	@ D.6793,
 772 001c 7047     		bx	lr	@
 773              		.cfi_endproc
 774              	.LFE123:
 775              		.size	I2C_FastModeDutyCycleConfig, .-I2C_FastModeDutyCycleConfig
 776 001e 00BF     		.section	.text.I2C_NACKPositionConfig,"ax",%progbits
 777              		.align	2
 778              		.global	I2C_NACKPositionConfig
 779              		.thumb
 780              		.thumb_func
 781              		.type	I2C_NACKPositionConfig, %function
 782              	I2C_NACKPositionConfig:
 783              	.LFB124:
 575:cmsis/device/stm32f4xx_i2c.c ****   }
 576:cmsis/device/stm32f4xx_i2c.c **** }
 577:cmsis/device/stm32f4xx_i2c.c **** 
 578:cmsis/device/stm32f4xx_i2c.c **** /**
 579:cmsis/device/stm32f4xx_i2c.c ****   * @brief  Selects the specified I2C NACK position in master receiver mode.
 580:cmsis/device/stm32f4xx_i2c.c ****   * @note   This function is useful in I2C Master Receiver mode when the number
 581:cmsis/device/stm32f4xx_i2c.c ****   *         of data to be received is equal to 2. In this case, this function 
ARM GAS  C:\Users\CNous\AppData\Local\Temp\ccLIBeCO.s 			page 26


 582:cmsis/device/stm32f4xx_i2c.c ****   *         should be called (with parameter I2C_NACKPosition_Next) before data 
 583:cmsis/device/stm32f4xx_i2c.c ****   *         reception starts,as described in the 2-byte reception procedure 
 584:cmsis/device/stm32f4xx_i2c.c ****   *         recommended in Reference Manual in Section: Master receiver.                
 585:cmsis/device/stm32f4xx_i2c.c ****   * @param  I2Cx: where x can be 1, 2 or 3 to select the I2C peripheral.
 586:cmsis/device/stm32f4xx_i2c.c ****   * @param  I2C_NACKPosition: specifies the NACK position. 
 587:cmsis/device/stm32f4xx_i2c.c ****   *          This parameter can be one of the following values:
 588:cmsis/device/stm32f4xx_i2c.c ****   *            @arg I2C_NACKPosition_Next: indicates that the next byte will be the last
 589:cmsis/device/stm32f4xx_i2c.c ****   *                                        received byte.  
 590:cmsis/device/stm32f4xx_i2c.c ****   *            @arg I2C_NACKPosition_Current: indicates that current byte is the last 
 591:cmsis/device/stm32f4xx_i2c.c ****   *                                           received byte.
 592:cmsis/device/stm32f4xx_i2c.c ****   *            
 593:cmsis/device/stm32f4xx_i2c.c ****   * @note    This function configures the same bit (POS) as I2C_PECPositionConfig() 
 594:cmsis/device/stm32f4xx_i2c.c ****   *          but is intended to be used in I2C mode while I2C_PECPositionConfig() 
 595:cmsis/device/stm32f4xx_i2c.c ****   *          is intended to used in SMBUS mode. 
 596:cmsis/device/stm32f4xx_i2c.c ****   *            
 597:cmsis/device/stm32f4xx_i2c.c ****   * @retval None
 598:cmsis/device/stm32f4xx_i2c.c ****   */
 599:cmsis/device/stm32f4xx_i2c.c **** void I2C_NACKPositionConfig(I2C_TypeDef* I2Cx, uint16_t I2C_NACKPosition)
 600:cmsis/device/stm32f4xx_i2c.c **** {
 784              		.loc 1 600 0
 785              		.cfi_startproc
 786              		@ args = 0, pretend = 0, frame = 0
 787              		@ frame_needed = 0, uses_anonymous_args = 0
 788              		@ link register save eliminated.
 789              	.LVL82:
 601:cmsis/device/stm32f4xx_i2c.c ****   /* Check the parameters */
 602:cmsis/device/stm32f4xx_i2c.c ****   assert_param(IS_I2C_ALL_PERIPH(I2Cx));
 603:cmsis/device/stm32f4xx_i2c.c ****   assert_param(IS_I2C_NACK_POSITION(I2C_NACKPosition));
 604:cmsis/device/stm32f4xx_i2c.c ****   
 605:cmsis/device/stm32f4xx_i2c.c ****   /* Check the input parameter */
 606:cmsis/device/stm32f4xx_i2c.c ****   if (I2C_NACKPosition == I2C_NACKPosition_Next)
 790              		.loc 1 606 0
 791 0000 B1F5006F 		cmp	r1, #2048	@ I2C_NACKPosition,
 607:cmsis/device/stm32f4xx_i2c.c ****   {
 608:cmsis/device/stm32f4xx_i2c.c ****     /* Next byte in shift register is the last received byte */
 609:cmsis/device/stm32f4xx_i2c.c ****     I2Cx->CR1 |= I2C_NACKPosition_Next;
 792              		.loc 1 609 0
 793 0004 0388     		ldrh	r3, [r0, #0]	@,* I2Cx
 606:cmsis/device/stm32f4xx_i2c.c ****   if (I2C_NACKPosition == I2C_NACKPosition_Next)
 794              		.loc 1 606 0
 795 0006 05D0     		beq	.L62	@,
 610:cmsis/device/stm32f4xx_i2c.c ****   }
 611:cmsis/device/stm32f4xx_i2c.c ****   else
 612:cmsis/device/stm32f4xx_i2c.c ****   {
 613:cmsis/device/stm32f4xx_i2c.c ****     /* Current byte in shift register is the last received byte */
 614:cmsis/device/stm32f4xx_i2c.c ****     I2Cx->CR1 &= I2C_NACKPosition_Current;
 796              		.loc 1 614 0
 797 0008 23F40061 		bic	r1, r3, #2048	@ D.6786, I2Cx_2(D)->CR1,
 798              	.LVL83:
 799 000c 0A04     		lsls	r2, r1, #16	@ D.6786, D.6786,
 800 000e 130C     		lsrs	r3, r2, #16	@ D.6786, D.6786,
 801 0010 0380     		strh	r3, [r0, #0]	@ movhi	@ D.6786,* I2Cx
 802 0012 7047     		bx	lr	@
 803              	.LVL84:
 804              	.L62:
 609:cmsis/device/stm32f4xx_i2c.c ****     I2Cx->CR1 |= I2C_NACKPosition_Next;
 805              		.loc 1 609 0
ARM GAS  C:\Users\CNous\AppData\Local\Temp\ccLIBeCO.s 			page 27


 806 0014 99B2     		uxth	r1, r3	@ D.6782, I2Cx_2(D)->CR1
 807              	.LVL85:
 808 0016 41F40062 		orr	r2, r1, #2048	@ D.6783, D.6782,
 809 001a 0280     		strh	r2, [r0, #0]	@ movhi	@ D.6783,* I2Cx
 810 001c 7047     		bx	lr	@
 811              		.cfi_endproc
 812              	.LFE124:
 813              		.size	I2C_NACKPositionConfig, .-I2C_NACKPositionConfig
 814 001e 00BF     		.section	.text.I2C_SMBusAlertConfig,"ax",%progbits
 815              		.align	2
 816              		.global	I2C_SMBusAlertConfig
 817              		.thumb
 818              		.thumb_func
 819              		.type	I2C_SMBusAlertConfig, %function
 820              	I2C_SMBusAlertConfig:
 821              	.LFB125:
 615:cmsis/device/stm32f4xx_i2c.c ****   }
 616:cmsis/device/stm32f4xx_i2c.c **** }
 617:cmsis/device/stm32f4xx_i2c.c **** 
 618:cmsis/device/stm32f4xx_i2c.c **** /**
 619:cmsis/device/stm32f4xx_i2c.c ****   * @brief  Drives the SMBusAlert pin high or low for the specified I2C.
 620:cmsis/device/stm32f4xx_i2c.c ****   * @param  I2Cx: where x can be 1, 2 or 3 to select the I2C peripheral.
 621:cmsis/device/stm32f4xx_i2c.c ****   * @param  I2C_SMBusAlert: specifies SMBAlert pin level. 
 622:cmsis/device/stm32f4xx_i2c.c ****   *          This parameter can be one of the following values:
 623:cmsis/device/stm32f4xx_i2c.c ****   *            @arg I2C_SMBusAlert_Low: SMBAlert pin driven low
 624:cmsis/device/stm32f4xx_i2c.c ****   *            @arg I2C_SMBusAlert_High: SMBAlert pin driven high
 625:cmsis/device/stm32f4xx_i2c.c ****   * @retval None
 626:cmsis/device/stm32f4xx_i2c.c ****   */
 627:cmsis/device/stm32f4xx_i2c.c **** void I2C_SMBusAlertConfig(I2C_TypeDef* I2Cx, uint16_t I2C_SMBusAlert)
 628:cmsis/device/stm32f4xx_i2c.c **** {
 822              		.loc 1 628 0
 823              		.cfi_startproc
 824              		@ args = 0, pretend = 0, frame = 0
 825              		@ frame_needed = 0, uses_anonymous_args = 0
 826              		@ link register save eliminated.
 827              	.LVL86:
 629:cmsis/device/stm32f4xx_i2c.c ****   /* Check the parameters */
 630:cmsis/device/stm32f4xx_i2c.c ****   assert_param(IS_I2C_ALL_PERIPH(I2Cx));
 631:cmsis/device/stm32f4xx_i2c.c ****   assert_param(IS_I2C_SMBUS_ALERT(I2C_SMBusAlert));
 632:cmsis/device/stm32f4xx_i2c.c ****   if (I2C_SMBusAlert == I2C_SMBusAlert_Low)
 828              		.loc 1 632 0
 829 0000 B1F5005F 		cmp	r1, #8192	@ I2C_SMBusAlert,
 633:cmsis/device/stm32f4xx_i2c.c ****   {
 634:cmsis/device/stm32f4xx_i2c.c ****     /* Drive the SMBusAlert pin Low */
 635:cmsis/device/stm32f4xx_i2c.c ****     I2Cx->CR1 |= I2C_SMBusAlert_Low;
 830              		.loc 1 635 0
 831 0004 0388     		ldrh	r3, [r0, #0]	@,* I2Cx
 632:cmsis/device/stm32f4xx_i2c.c ****   if (I2C_SMBusAlert == I2C_SMBusAlert_Low)
 832              		.loc 1 632 0
 833 0006 05D0     		beq	.L66	@,
 636:cmsis/device/stm32f4xx_i2c.c ****   }
 637:cmsis/device/stm32f4xx_i2c.c ****   else
 638:cmsis/device/stm32f4xx_i2c.c ****   {
 639:cmsis/device/stm32f4xx_i2c.c ****     /* Drive the SMBusAlert pin High  */
 640:cmsis/device/stm32f4xx_i2c.c ****     I2Cx->CR1 &= I2C_SMBusAlert_High;
 834              		.loc 1 640 0
 835 0008 23F40051 		bic	r1, r3, #8192	@ D.6779, I2Cx_2(D)->CR1,
ARM GAS  C:\Users\CNous\AppData\Local\Temp\ccLIBeCO.s 			page 28


 836              	.LVL87:
 837 000c 0A04     		lsls	r2, r1, #16	@ D.6779, D.6779,
 838 000e 130C     		lsrs	r3, r2, #16	@ D.6779, D.6779,
 839 0010 0380     		strh	r3, [r0, #0]	@ movhi	@ D.6779,* I2Cx
 840 0012 7047     		bx	lr	@
 841              	.LVL88:
 842              	.L66:
 635:cmsis/device/stm32f4xx_i2c.c ****     I2Cx->CR1 |= I2C_SMBusAlert_Low;
 843              		.loc 1 635 0
 844 0014 99B2     		uxth	r1, r3	@ D.6775, I2Cx_2(D)->CR1
 845              	.LVL89:
 846 0016 41F40052 		orr	r2, r1, #8192	@ D.6776, D.6775,
 847 001a 0280     		strh	r2, [r0, #0]	@ movhi	@ D.6776,* I2Cx
 848 001c 7047     		bx	lr	@
 849              		.cfi_endproc
 850              	.LFE125:
 851              		.size	I2C_SMBusAlertConfig, .-I2C_SMBusAlertConfig
 852 001e 00BF     		.section	.text.I2C_ARPCmd,"ax",%progbits
 853              		.align	2
 854              		.global	I2C_ARPCmd
 855              		.thumb
 856              		.thumb_func
 857              		.type	I2C_ARPCmd, %function
 858              	I2C_ARPCmd:
 859              	.LFB126:
 641:cmsis/device/stm32f4xx_i2c.c ****   }
 642:cmsis/device/stm32f4xx_i2c.c **** }
 643:cmsis/device/stm32f4xx_i2c.c **** 
 644:cmsis/device/stm32f4xx_i2c.c **** /**
 645:cmsis/device/stm32f4xx_i2c.c ****   * @brief  Enables or disables the specified I2C ARP.
 646:cmsis/device/stm32f4xx_i2c.c ****   * @param  I2Cx: where x can be 1, 2 or 3 to select the I2C peripheral.
 647:cmsis/device/stm32f4xx_i2c.c ****   * @param  NewState: new state of the I2Cx ARP. 
 648:cmsis/device/stm32f4xx_i2c.c ****   *          This parameter can be: ENABLE or DISABLE.
 649:cmsis/device/stm32f4xx_i2c.c ****   * @retval None
 650:cmsis/device/stm32f4xx_i2c.c ****   */
 651:cmsis/device/stm32f4xx_i2c.c **** void I2C_ARPCmd(I2C_TypeDef* I2Cx, FunctionalState NewState)
 652:cmsis/device/stm32f4xx_i2c.c **** {
 860              		.loc 1 652 0
 861              		.cfi_startproc
 862              		@ args = 0, pretend = 0, frame = 0
 863              		@ frame_needed = 0, uses_anonymous_args = 0
 864              		@ link register save eliminated.
 865              	.LVL90:
 653:cmsis/device/stm32f4xx_i2c.c ****   /* Check the parameters */
 654:cmsis/device/stm32f4xx_i2c.c ****   assert_param(IS_I2C_ALL_PERIPH(I2Cx));
 655:cmsis/device/stm32f4xx_i2c.c ****   assert_param(IS_FUNCTIONAL_STATE(NewState));
 656:cmsis/device/stm32f4xx_i2c.c ****   if (NewState != DISABLE)
 657:cmsis/device/stm32f4xx_i2c.c ****   {
 658:cmsis/device/stm32f4xx_i2c.c ****     /* Enable the selected I2C ARP */
 659:cmsis/device/stm32f4xx_i2c.c ****     I2Cx->CR1 |= I2C_CR1_ENARP;
 866              		.loc 1 659 0
 867 0000 0388     		ldrh	r3, [r0, #0]	@,* I2Cx
 656:cmsis/device/stm32f4xx_i2c.c ****   if (NewState != DISABLE)
 868              		.loc 1 656 0
 869 0002 29B9     		cbnz	r1, .L70	@ NewState,
 660:cmsis/device/stm32f4xx_i2c.c ****   }
 661:cmsis/device/stm32f4xx_i2c.c ****   else
ARM GAS  C:\Users\CNous\AppData\Local\Temp\ccLIBeCO.s 			page 29


 662:cmsis/device/stm32f4xx_i2c.c ****   {
 663:cmsis/device/stm32f4xx_i2c.c ****     /* Disable the selected I2C ARP */
 664:cmsis/device/stm32f4xx_i2c.c ****     I2Cx->CR1 &= (uint16_t)~((uint16_t)I2C_CR1_ENARP);
 870              		.loc 1 664 0
 871 0004 23F01001 		bic	r1, r3, #16	@ D.6772, I2Cx_2(D)->CR1,
 872              	.LVL91:
 873 0008 0A04     		lsls	r2, r1, #16	@ D.6772, D.6772,
 874 000a 130C     		lsrs	r3, r2, #16	@ D.6772, D.6772,
 875 000c 0380     		strh	r3, [r0, #0]	@ movhi	@ D.6772,* I2Cx
 876 000e 7047     		bx	lr	@
 877              	.LVL92:
 878              	.L70:
 659:cmsis/device/stm32f4xx_i2c.c ****     I2Cx->CR1 |= I2C_CR1_ENARP;
 879              		.loc 1 659 0
 880 0010 99B2     		uxth	r1, r3	@ D.6768, I2Cx_2(D)->CR1
 881              	.LVL93:
 882 0012 41F01002 		orr	r2, r1, #16	@ D.6769, D.6768,
 883 0016 0280     		strh	r2, [r0, #0]	@ movhi	@ D.6769,* I2Cx
 884 0018 7047     		bx	lr	@
 885              		.cfi_endproc
 886              	.LFE126:
 887              		.size	I2C_ARPCmd, .-I2C_ARPCmd
 888 001a 00BF     		.section	.text.I2C_SendData,"ax",%progbits
 889              		.align	2
 890              		.global	I2C_SendData
 891              		.thumb
 892              		.thumb_func
 893              		.type	I2C_SendData, %function
 894              	I2C_SendData:
 895              	.LFB127:
 665:cmsis/device/stm32f4xx_i2c.c ****   }
 666:cmsis/device/stm32f4xx_i2c.c **** }
 667:cmsis/device/stm32f4xx_i2c.c **** /**
 668:cmsis/device/stm32f4xx_i2c.c ****   * @}
 669:cmsis/device/stm32f4xx_i2c.c ****   */
 670:cmsis/device/stm32f4xx_i2c.c **** 
 671:cmsis/device/stm32f4xx_i2c.c **** /** @defgroup I2C_Group2 Data transfers functions
 672:cmsis/device/stm32f4xx_i2c.c ****  *  @brief   Data transfers functions 
 673:cmsis/device/stm32f4xx_i2c.c ****  *
 674:cmsis/device/stm32f4xx_i2c.c **** @verbatim   
 675:cmsis/device/stm32f4xx_i2c.c ****  ===============================================================================
 676:cmsis/device/stm32f4xx_i2c.c ****                         Data transfers functions
 677:cmsis/device/stm32f4xx_i2c.c ****  ===============================================================================  
 678:cmsis/device/stm32f4xx_i2c.c **** 
 679:cmsis/device/stm32f4xx_i2c.c **** @endverbatim
 680:cmsis/device/stm32f4xx_i2c.c ****   * @{
 681:cmsis/device/stm32f4xx_i2c.c ****   */
 682:cmsis/device/stm32f4xx_i2c.c **** 
 683:cmsis/device/stm32f4xx_i2c.c **** /**
 684:cmsis/device/stm32f4xx_i2c.c ****   * @brief  Sends a data byte through the I2Cx peripheral.
 685:cmsis/device/stm32f4xx_i2c.c ****   * @param  I2Cx: where x can be 1, 2 or 3 to select the I2C peripheral.
 686:cmsis/device/stm32f4xx_i2c.c ****   * @param  Data: Byte to be transmitted..
 687:cmsis/device/stm32f4xx_i2c.c ****   * @retval None
 688:cmsis/device/stm32f4xx_i2c.c ****   */
 689:cmsis/device/stm32f4xx_i2c.c **** void I2C_SendData(I2C_TypeDef* I2Cx, uint8_t Data)
 690:cmsis/device/stm32f4xx_i2c.c **** {
 896              		.loc 1 690 0
ARM GAS  C:\Users\CNous\AppData\Local\Temp\ccLIBeCO.s 			page 30


 897              		.cfi_startproc
 898              		@ args = 0, pretend = 0, frame = 0
 899              		@ frame_needed = 0, uses_anonymous_args = 0
 900              		@ link register save eliminated.
 901              	.LVL94:
 691:cmsis/device/stm32f4xx_i2c.c ****   /* Check the parameters */
 692:cmsis/device/stm32f4xx_i2c.c ****   assert_param(IS_I2C_ALL_PERIPH(I2Cx));
 693:cmsis/device/stm32f4xx_i2c.c ****   /* Write in the DR register the data to be sent */
 694:cmsis/device/stm32f4xx_i2c.c ****   I2Cx->DR = Data;
 902              		.loc 1 694 0
 903 0000 0182     		strh	r1, [r0, #16]	@ movhi	@ Data, I2Cx_3(D)->DR
 904 0002 7047     		bx	lr	@
 905              		.cfi_endproc
 906              	.LFE127:
 907              		.size	I2C_SendData, .-I2C_SendData
 908              		.section	.text.I2C_ReceiveData,"ax",%progbits
 909              		.align	2
 910              		.global	I2C_ReceiveData
 911              		.thumb
 912              		.thumb_func
 913              		.type	I2C_ReceiveData, %function
 914              	I2C_ReceiveData:
 915              	.LFB128:
 695:cmsis/device/stm32f4xx_i2c.c **** }
 696:cmsis/device/stm32f4xx_i2c.c **** 
 697:cmsis/device/stm32f4xx_i2c.c **** /**
 698:cmsis/device/stm32f4xx_i2c.c ****   * @brief  Returns the most recent received data by the I2Cx peripheral.
 699:cmsis/device/stm32f4xx_i2c.c ****   * @param  I2Cx: where x can be 1, 2 or 3 to select the I2C peripheral.
 700:cmsis/device/stm32f4xx_i2c.c ****   * @retval The value of the received data.
 701:cmsis/device/stm32f4xx_i2c.c ****   */
 702:cmsis/device/stm32f4xx_i2c.c **** uint8_t I2C_ReceiveData(I2C_TypeDef* I2Cx)
 703:cmsis/device/stm32f4xx_i2c.c **** {
 916              		.loc 1 703 0
 917              		.cfi_startproc
 918              		@ args = 0, pretend = 0, frame = 0
 919              		@ frame_needed = 0, uses_anonymous_args = 0
 920              		@ link register save eliminated.
 921              	.LVL95:
 704:cmsis/device/stm32f4xx_i2c.c ****   /* Check the parameters */
 705:cmsis/device/stm32f4xx_i2c.c ****   assert_param(IS_I2C_ALL_PERIPH(I2Cx));
 706:cmsis/device/stm32f4xx_i2c.c ****   /* Return the data in the DR register */
 707:cmsis/device/stm32f4xx_i2c.c ****   return (uint8_t)I2Cx->DR;
 922              		.loc 1 707 0
 923 0000 008A     		ldrh	r0, [r0, #16]	@, I2Cx_1(D)->DR
 924              	.LVL96:
 708:cmsis/device/stm32f4xx_i2c.c **** }
 925              		.loc 1 708 0
 926 0002 C0B2     		uxtb	r0, r0	@, I2Cx_1(D)->DR
 927 0004 7047     		bx	lr	@
 928              		.cfi_endproc
 929              	.LFE128:
 930              		.size	I2C_ReceiveData, .-I2C_ReceiveData
 931 0006 00BF     		.section	.text.I2C_TransmitPEC,"ax",%progbits
 932              		.align	2
 933              		.global	I2C_TransmitPEC
 934              		.thumb
 935              		.thumb_func
ARM GAS  C:\Users\CNous\AppData\Local\Temp\ccLIBeCO.s 			page 31


 936              		.type	I2C_TransmitPEC, %function
 937              	I2C_TransmitPEC:
 938              	.LFB129:
 709:cmsis/device/stm32f4xx_i2c.c **** 
 710:cmsis/device/stm32f4xx_i2c.c **** /**
 711:cmsis/device/stm32f4xx_i2c.c ****   * @}
 712:cmsis/device/stm32f4xx_i2c.c ****   */
 713:cmsis/device/stm32f4xx_i2c.c **** 
 714:cmsis/device/stm32f4xx_i2c.c **** /** @defgroup I2C_Group3 PEC management functions
 715:cmsis/device/stm32f4xx_i2c.c ****  *  @brief   PEC management functions 
 716:cmsis/device/stm32f4xx_i2c.c ****  *
 717:cmsis/device/stm32f4xx_i2c.c **** @verbatim   
 718:cmsis/device/stm32f4xx_i2c.c ****  ===============================================================================
 719:cmsis/device/stm32f4xx_i2c.c ****                          PEC management functions
 720:cmsis/device/stm32f4xx_i2c.c ****  ===============================================================================  
 721:cmsis/device/stm32f4xx_i2c.c **** 
 722:cmsis/device/stm32f4xx_i2c.c **** @endverbatim
 723:cmsis/device/stm32f4xx_i2c.c ****   * @{
 724:cmsis/device/stm32f4xx_i2c.c ****   */
 725:cmsis/device/stm32f4xx_i2c.c **** 
 726:cmsis/device/stm32f4xx_i2c.c **** /**
 727:cmsis/device/stm32f4xx_i2c.c ****   * @brief  Enables or disables the specified I2C PEC transfer.
 728:cmsis/device/stm32f4xx_i2c.c ****   * @param  I2Cx: where x can be 1, 2 or 3 to select the I2C peripheral.
 729:cmsis/device/stm32f4xx_i2c.c ****   * @param  NewState: new state of the I2C PEC transmission.
 730:cmsis/device/stm32f4xx_i2c.c ****   *          This parameter can be: ENABLE or DISABLE.
 731:cmsis/device/stm32f4xx_i2c.c ****   * @retval None
 732:cmsis/device/stm32f4xx_i2c.c ****   */
 733:cmsis/device/stm32f4xx_i2c.c **** void I2C_TransmitPEC(I2C_TypeDef* I2Cx, FunctionalState NewState)
 734:cmsis/device/stm32f4xx_i2c.c **** {
 939              		.loc 1 734 0
 940              		.cfi_startproc
 941              		@ args = 0, pretend = 0, frame = 0
 942              		@ frame_needed = 0, uses_anonymous_args = 0
 943              		@ link register save eliminated.
 944              	.LVL97:
 735:cmsis/device/stm32f4xx_i2c.c ****   /* Check the parameters */
 736:cmsis/device/stm32f4xx_i2c.c ****   assert_param(IS_I2C_ALL_PERIPH(I2Cx));
 737:cmsis/device/stm32f4xx_i2c.c ****   assert_param(IS_FUNCTIONAL_STATE(NewState));
 738:cmsis/device/stm32f4xx_i2c.c ****   if (NewState != DISABLE)
 739:cmsis/device/stm32f4xx_i2c.c ****   {
 740:cmsis/device/stm32f4xx_i2c.c ****     /* Enable the selected I2C PEC transmission */
 741:cmsis/device/stm32f4xx_i2c.c ****     I2Cx->CR1 |= I2C_CR1_PEC;
 945              		.loc 1 741 0
 946 0000 0388     		ldrh	r3, [r0, #0]	@,* I2Cx
 738:cmsis/device/stm32f4xx_i2c.c ****   if (NewState != DISABLE)
 947              		.loc 1 738 0
 948 0002 29B9     		cbnz	r1, .L76	@ NewState,
 742:cmsis/device/stm32f4xx_i2c.c ****   }
 743:cmsis/device/stm32f4xx_i2c.c ****   else
 744:cmsis/device/stm32f4xx_i2c.c ****   {
 745:cmsis/device/stm32f4xx_i2c.c ****     /* Disable the selected I2C PEC transmission */
 746:cmsis/device/stm32f4xx_i2c.c ****     I2Cx->CR1 &= (uint16_t)~((uint16_t)I2C_CR1_PEC);
 949              		.loc 1 746 0
 950 0004 23F48051 		bic	r1, r3, #4096	@ D.6761, I2Cx_2(D)->CR1,
 951              	.LVL98:
 952 0008 0A04     		lsls	r2, r1, #16	@ D.6761, D.6761,
 953 000a 130C     		lsrs	r3, r2, #16	@ D.6761, D.6761,
ARM GAS  C:\Users\CNous\AppData\Local\Temp\ccLIBeCO.s 			page 32


 954 000c 0380     		strh	r3, [r0, #0]	@ movhi	@ D.6761,* I2Cx
 955 000e 7047     		bx	lr	@
 956              	.LVL99:
 957              	.L76:
 741:cmsis/device/stm32f4xx_i2c.c ****     I2Cx->CR1 |= I2C_CR1_PEC;
 958              		.loc 1 741 0
 959 0010 99B2     		uxth	r1, r3	@ D.6757, I2Cx_2(D)->CR1
 960              	.LVL100:
 961 0012 41F48052 		orr	r2, r1, #4096	@ D.6758, D.6757,
 962 0016 0280     		strh	r2, [r0, #0]	@ movhi	@ D.6758,* I2Cx
 963 0018 7047     		bx	lr	@
 964              		.cfi_endproc
 965              	.LFE129:
 966              		.size	I2C_TransmitPEC, .-I2C_TransmitPEC
 967 001a 00BF     		.section	.text.I2C_PECPositionConfig,"ax",%progbits
 968              		.align	2
 969              		.global	I2C_PECPositionConfig
 970              		.thumb
 971              		.thumb_func
 972              		.type	I2C_PECPositionConfig, %function
 973              	I2C_PECPositionConfig:
 974              	.LFB130:
 747:cmsis/device/stm32f4xx_i2c.c ****   }
 748:cmsis/device/stm32f4xx_i2c.c **** }
 749:cmsis/device/stm32f4xx_i2c.c **** 
 750:cmsis/device/stm32f4xx_i2c.c **** /**
 751:cmsis/device/stm32f4xx_i2c.c ****   * @brief  Selects the specified I2C PEC position.
 752:cmsis/device/stm32f4xx_i2c.c ****   * @param  I2Cx: where x can be 1, 2 or 3 to select the I2C peripheral.
 753:cmsis/device/stm32f4xx_i2c.c ****   * @param  I2C_PECPosition: specifies the PEC position. 
 754:cmsis/device/stm32f4xx_i2c.c ****   *          This parameter can be one of the following values:
 755:cmsis/device/stm32f4xx_i2c.c ****   *            @arg I2C_PECPosition_Next: indicates that the next byte is PEC
 756:cmsis/device/stm32f4xx_i2c.c ****   *            @arg I2C_PECPosition_Current: indicates that current byte is PEC
 757:cmsis/device/stm32f4xx_i2c.c ****   *       
 758:cmsis/device/stm32f4xx_i2c.c ****   * @note    This function configures the same bit (POS) as I2C_NACKPositionConfig()
 759:cmsis/device/stm32f4xx_i2c.c ****   *          but is intended to be used in SMBUS mode while I2C_NACKPositionConfig() 
 760:cmsis/device/stm32f4xx_i2c.c ****   *          is intended to used in I2C mode.
 761:cmsis/device/stm32f4xx_i2c.c ****   *                
 762:cmsis/device/stm32f4xx_i2c.c ****   * @retval None
 763:cmsis/device/stm32f4xx_i2c.c ****   */
 764:cmsis/device/stm32f4xx_i2c.c **** void I2C_PECPositionConfig(I2C_TypeDef* I2Cx, uint16_t I2C_PECPosition)
 765:cmsis/device/stm32f4xx_i2c.c **** {
 975              		.loc 1 765 0
 976              		.cfi_startproc
 977              		@ args = 0, pretend = 0, frame = 0
 978              		@ frame_needed = 0, uses_anonymous_args = 0
 979              		@ link register save eliminated.
 980              	.LVL101:
 766:cmsis/device/stm32f4xx_i2c.c ****   /* Check the parameters */
 767:cmsis/device/stm32f4xx_i2c.c ****   assert_param(IS_I2C_ALL_PERIPH(I2Cx));
 768:cmsis/device/stm32f4xx_i2c.c ****   assert_param(IS_I2C_PEC_POSITION(I2C_PECPosition));
 769:cmsis/device/stm32f4xx_i2c.c ****   if (I2C_PECPosition == I2C_PECPosition_Next)
 981              		.loc 1 769 0
 982 0000 B1F5006F 		cmp	r1, #2048	@ I2C_PECPosition,
 770:cmsis/device/stm32f4xx_i2c.c ****   {
 771:cmsis/device/stm32f4xx_i2c.c ****     /* Next byte in shift register is PEC */
 772:cmsis/device/stm32f4xx_i2c.c ****     I2Cx->CR1 |= I2C_PECPosition_Next;
 983              		.loc 1 772 0
ARM GAS  C:\Users\CNous\AppData\Local\Temp\ccLIBeCO.s 			page 33


 984 0004 0388     		ldrh	r3, [r0, #0]	@,* I2Cx
 769:cmsis/device/stm32f4xx_i2c.c ****   if (I2C_PECPosition == I2C_PECPosition_Next)
 985              		.loc 1 769 0
 986 0006 05D0     		beq	.L80	@,
 773:cmsis/device/stm32f4xx_i2c.c ****   }
 774:cmsis/device/stm32f4xx_i2c.c ****   else
 775:cmsis/device/stm32f4xx_i2c.c ****   {
 776:cmsis/device/stm32f4xx_i2c.c ****     /* Current byte in shift register is PEC */
 777:cmsis/device/stm32f4xx_i2c.c ****     I2Cx->CR1 &= I2C_PECPosition_Current;
 987              		.loc 1 777 0
 988 0008 23F40061 		bic	r1, r3, #2048	@ D.6754, I2Cx_2(D)->CR1,
 989              	.LVL102:
 990 000c 0A04     		lsls	r2, r1, #16	@ D.6754, D.6754,
 991 000e 130C     		lsrs	r3, r2, #16	@ D.6754, D.6754,
 992 0010 0380     		strh	r3, [r0, #0]	@ movhi	@ D.6754,* I2Cx
 993 0012 7047     		bx	lr	@
 994              	.LVL103:
 995              	.L80:
 772:cmsis/device/stm32f4xx_i2c.c ****     I2Cx->CR1 |= I2C_PECPosition_Next;
 996              		.loc 1 772 0
 997 0014 99B2     		uxth	r1, r3	@ D.6750, I2Cx_2(D)->CR1
 998              	.LVL104:
 999 0016 41F40062 		orr	r2, r1, #2048	@ D.6751, D.6750,
 1000 001a 0280     		strh	r2, [r0, #0]	@ movhi	@ D.6751,* I2Cx
 1001 001c 7047     		bx	lr	@
 1002              		.cfi_endproc
 1003              	.LFE130:
 1004              		.size	I2C_PECPositionConfig, .-I2C_PECPositionConfig
 1005 001e 00BF     		.section	.text.I2C_CalculatePEC,"ax",%progbits
 1006              		.align	2
 1007              		.global	I2C_CalculatePEC
 1008              		.thumb
 1009              		.thumb_func
 1010              		.type	I2C_CalculatePEC, %function
 1011              	I2C_CalculatePEC:
 1012              	.LFB131:
 778:cmsis/device/stm32f4xx_i2c.c ****   }
 779:cmsis/device/stm32f4xx_i2c.c **** }
 780:cmsis/device/stm32f4xx_i2c.c **** 
 781:cmsis/device/stm32f4xx_i2c.c **** /**
 782:cmsis/device/stm32f4xx_i2c.c ****   * @brief  Enables or disables the PEC value calculation of the transferred bytes.
 783:cmsis/device/stm32f4xx_i2c.c ****   * @param  I2Cx: where x can be 1, 2 or 3 to select the I2C peripheral.
 784:cmsis/device/stm32f4xx_i2c.c ****   * @param  NewState: new state of the I2Cx PEC value calculation.
 785:cmsis/device/stm32f4xx_i2c.c ****   *          This parameter can be: ENABLE or DISABLE.
 786:cmsis/device/stm32f4xx_i2c.c ****   * @retval None
 787:cmsis/device/stm32f4xx_i2c.c ****   */
 788:cmsis/device/stm32f4xx_i2c.c **** void I2C_CalculatePEC(I2C_TypeDef* I2Cx, FunctionalState NewState)
 789:cmsis/device/stm32f4xx_i2c.c **** {
 1013              		.loc 1 789 0
 1014              		.cfi_startproc
 1015              		@ args = 0, pretend = 0, frame = 0
 1016              		@ frame_needed = 0, uses_anonymous_args = 0
 1017              		@ link register save eliminated.
 1018              	.LVL105:
 790:cmsis/device/stm32f4xx_i2c.c ****   /* Check the parameters */
 791:cmsis/device/stm32f4xx_i2c.c ****   assert_param(IS_I2C_ALL_PERIPH(I2Cx));
 792:cmsis/device/stm32f4xx_i2c.c ****   assert_param(IS_FUNCTIONAL_STATE(NewState));
ARM GAS  C:\Users\CNous\AppData\Local\Temp\ccLIBeCO.s 			page 34


 793:cmsis/device/stm32f4xx_i2c.c ****   if (NewState != DISABLE)
 794:cmsis/device/stm32f4xx_i2c.c ****   {
 795:cmsis/device/stm32f4xx_i2c.c ****     /* Enable the selected I2C PEC calculation */
 796:cmsis/device/stm32f4xx_i2c.c ****     I2Cx->CR1 |= I2C_CR1_ENPEC;
 1019              		.loc 1 796 0
 1020 0000 0388     		ldrh	r3, [r0, #0]	@,* I2Cx
 793:cmsis/device/stm32f4xx_i2c.c ****   if (NewState != DISABLE)
 1021              		.loc 1 793 0
 1022 0002 29B9     		cbnz	r1, .L84	@ NewState,
 797:cmsis/device/stm32f4xx_i2c.c ****   }
 798:cmsis/device/stm32f4xx_i2c.c ****   else
 799:cmsis/device/stm32f4xx_i2c.c ****   {
 800:cmsis/device/stm32f4xx_i2c.c ****     /* Disable the selected I2C PEC calculation */
 801:cmsis/device/stm32f4xx_i2c.c ****     I2Cx->CR1 &= (uint16_t)~((uint16_t)I2C_CR1_ENPEC);
 1023              		.loc 1 801 0
 1024 0004 23F02001 		bic	r1, r3, #32	@ D.6747, I2Cx_2(D)->CR1,
 1025              	.LVL106:
 1026 0008 0A04     		lsls	r2, r1, #16	@ D.6747, D.6747,
 1027 000a 130C     		lsrs	r3, r2, #16	@ D.6747, D.6747,
 1028 000c 0380     		strh	r3, [r0, #0]	@ movhi	@ D.6747,* I2Cx
 1029 000e 7047     		bx	lr	@
 1030              	.LVL107:
 1031              	.L84:
 796:cmsis/device/stm32f4xx_i2c.c ****     I2Cx->CR1 |= I2C_CR1_ENPEC;
 1032              		.loc 1 796 0
 1033 0010 99B2     		uxth	r1, r3	@ D.6743, I2Cx_2(D)->CR1
 1034              	.LVL108:
 1035 0012 41F02002 		orr	r2, r1, #32	@ D.6744, D.6743,
 1036 0016 0280     		strh	r2, [r0, #0]	@ movhi	@ D.6744,* I2Cx
 1037 0018 7047     		bx	lr	@
 1038              		.cfi_endproc
 1039              	.LFE131:
 1040              		.size	I2C_CalculatePEC, .-I2C_CalculatePEC
 1041 001a 00BF     		.section	.text.I2C_GetPEC,"ax",%progbits
 1042              		.align	2
 1043              		.global	I2C_GetPEC
 1044              		.thumb
 1045              		.thumb_func
 1046              		.type	I2C_GetPEC, %function
 1047              	I2C_GetPEC:
 1048              	.LFB132:
 802:cmsis/device/stm32f4xx_i2c.c ****   }
 803:cmsis/device/stm32f4xx_i2c.c **** }
 804:cmsis/device/stm32f4xx_i2c.c **** 
 805:cmsis/device/stm32f4xx_i2c.c **** /**
 806:cmsis/device/stm32f4xx_i2c.c ****   * @brief  Returns the PEC value for the specified I2C.
 807:cmsis/device/stm32f4xx_i2c.c ****   * @param  I2Cx: where x can be 1, 2 or 3 to select the I2C peripheral.
 808:cmsis/device/stm32f4xx_i2c.c ****   * @retval The PEC value.
 809:cmsis/device/stm32f4xx_i2c.c ****   */
 810:cmsis/device/stm32f4xx_i2c.c **** uint8_t I2C_GetPEC(I2C_TypeDef* I2Cx)
 811:cmsis/device/stm32f4xx_i2c.c **** {
 1049              		.loc 1 811 0
 1050              		.cfi_startproc
 1051              		@ args = 0, pretend = 0, frame = 0
 1052              		@ frame_needed = 0, uses_anonymous_args = 0
 1053              		@ link register save eliminated.
 1054              	.LVL109:
ARM GAS  C:\Users\CNous\AppData\Local\Temp\ccLIBeCO.s 			page 35


 812:cmsis/device/stm32f4xx_i2c.c ****   /* Check the parameters */
 813:cmsis/device/stm32f4xx_i2c.c ****   assert_param(IS_I2C_ALL_PERIPH(I2Cx));
 814:cmsis/device/stm32f4xx_i2c.c ****   /* Return the selected I2C PEC value */
 815:cmsis/device/stm32f4xx_i2c.c ****   return ((I2Cx->SR2) >> 8);
 1055              		.loc 1 815 0
 1056 0000 008B     		ldrh	r0, [r0, #24]	@, I2Cx_1(D)->SR2
 1057              	.LVL110:
 816:cmsis/device/stm32f4xx_i2c.c **** }
 1058              		.loc 1 816 0
 1059 0002 C0F30720 		ubfx	r0, r0, #8, #8	@, I2Cx_1(D)->SR2,,
 1060 0006 7047     		bx	lr	@
 1061              		.cfi_endproc
 1062              	.LFE132:
 1063              		.size	I2C_GetPEC, .-I2C_GetPEC
 1064              		.section	.text.I2C_DMACmd,"ax",%progbits
 1065              		.align	2
 1066              		.global	I2C_DMACmd
 1067              		.thumb
 1068              		.thumb_func
 1069              		.type	I2C_DMACmd, %function
 1070              	I2C_DMACmd:
 1071              	.LFB133:
 817:cmsis/device/stm32f4xx_i2c.c **** 
 818:cmsis/device/stm32f4xx_i2c.c **** /**
 819:cmsis/device/stm32f4xx_i2c.c ****   * @}
 820:cmsis/device/stm32f4xx_i2c.c ****   */
 821:cmsis/device/stm32f4xx_i2c.c **** 
 822:cmsis/device/stm32f4xx_i2c.c **** /** @defgroup I2C_Group4 DMA transfers management functions
 823:cmsis/device/stm32f4xx_i2c.c ****  *  @brief   DMA transfers management functions 
 824:cmsis/device/stm32f4xx_i2c.c ****  *
 825:cmsis/device/stm32f4xx_i2c.c **** @verbatim   
 826:cmsis/device/stm32f4xx_i2c.c ****  ===============================================================================
 827:cmsis/device/stm32f4xx_i2c.c ****                          DMA transfers management functions
 828:cmsis/device/stm32f4xx_i2c.c ****  ===============================================================================  
 829:cmsis/device/stm32f4xx_i2c.c ****   This section provides functions allowing to configure the I2C DMA channels 
 830:cmsis/device/stm32f4xx_i2c.c ****   requests.
 831:cmsis/device/stm32f4xx_i2c.c ****   
 832:cmsis/device/stm32f4xx_i2c.c **** @endverbatim
 833:cmsis/device/stm32f4xx_i2c.c ****   * @{
 834:cmsis/device/stm32f4xx_i2c.c ****   */
 835:cmsis/device/stm32f4xx_i2c.c **** 
 836:cmsis/device/stm32f4xx_i2c.c **** /**
 837:cmsis/device/stm32f4xx_i2c.c ****   * @brief  Enables or disables the specified I2C DMA requests.
 838:cmsis/device/stm32f4xx_i2c.c ****   * @param  I2Cx: where x can be 1, 2 or 3 to select the I2C peripheral.
 839:cmsis/device/stm32f4xx_i2c.c ****   * @param  NewState: new state of the I2C DMA transfer.
 840:cmsis/device/stm32f4xx_i2c.c ****   *          This parameter can be: ENABLE or DISABLE.
 841:cmsis/device/stm32f4xx_i2c.c ****   * @retval None
 842:cmsis/device/stm32f4xx_i2c.c ****   */
 843:cmsis/device/stm32f4xx_i2c.c **** void I2C_DMACmd(I2C_TypeDef* I2Cx, FunctionalState NewState)
 844:cmsis/device/stm32f4xx_i2c.c **** {
 1072              		.loc 1 844 0
 1073              		.cfi_startproc
 1074              		@ args = 0, pretend = 0, frame = 0
 1075              		@ frame_needed = 0, uses_anonymous_args = 0
 1076              		@ link register save eliminated.
 1077              	.LVL111:
 845:cmsis/device/stm32f4xx_i2c.c ****   /* Check the parameters */
ARM GAS  C:\Users\CNous\AppData\Local\Temp\ccLIBeCO.s 			page 36


 846:cmsis/device/stm32f4xx_i2c.c ****   assert_param(IS_I2C_ALL_PERIPH(I2Cx));
 847:cmsis/device/stm32f4xx_i2c.c ****   assert_param(IS_FUNCTIONAL_STATE(NewState));
 848:cmsis/device/stm32f4xx_i2c.c ****   if (NewState != DISABLE)
 849:cmsis/device/stm32f4xx_i2c.c ****   {
 850:cmsis/device/stm32f4xx_i2c.c ****     /* Enable the selected I2C DMA requests */
 851:cmsis/device/stm32f4xx_i2c.c ****     I2Cx->CR2 |= I2C_CR2_DMAEN;
 1078              		.loc 1 851 0
 1079 0000 8388     		ldrh	r3, [r0, #4]	@,
 848:cmsis/device/stm32f4xx_i2c.c ****   if (NewState != DISABLE)
 1080              		.loc 1 848 0
 1081 0002 29B9     		cbnz	r1, .L89	@ NewState,
 852:cmsis/device/stm32f4xx_i2c.c ****   }
 853:cmsis/device/stm32f4xx_i2c.c ****   else
 854:cmsis/device/stm32f4xx_i2c.c ****   {
 855:cmsis/device/stm32f4xx_i2c.c ****     /* Disable the selected I2C DMA requests */
 856:cmsis/device/stm32f4xx_i2c.c ****     I2Cx->CR2 &= (uint16_t)~((uint16_t)I2C_CR2_DMAEN);
 1082              		.loc 1 856 0
 1083 0004 23F40061 		bic	r1, r3, #2048	@ D.6736, I2Cx_2(D)->CR2,
 1084              	.LVL112:
 1085 0008 0A04     		lsls	r2, r1, #16	@ D.6736, D.6736,
 1086 000a 130C     		lsrs	r3, r2, #16	@ D.6736, D.6736,
 1087 000c 8380     		strh	r3, [r0, #4]	@ movhi	@ D.6736,
 1088 000e 7047     		bx	lr	@
 1089              	.LVL113:
 1090              	.L89:
 851:cmsis/device/stm32f4xx_i2c.c ****     I2Cx->CR2 |= I2C_CR2_DMAEN;
 1091              		.loc 1 851 0
 1092 0010 99B2     		uxth	r1, r3	@ D.6732, I2Cx_2(D)->CR2
 1093              	.LVL114:
 1094 0012 41F40062 		orr	r2, r1, #2048	@ D.6733, D.6732,
 1095 0016 8280     		strh	r2, [r0, #4]	@ movhi	@ D.6733,
 1096 0018 7047     		bx	lr	@
 1097              		.cfi_endproc
 1098              	.LFE133:
 1099              		.size	I2C_DMACmd, .-I2C_DMACmd
 1100 001a 00BF     		.section	.text.I2C_DMALastTransferCmd,"ax",%progbits
 1101              		.align	2
 1102              		.global	I2C_DMALastTransferCmd
 1103              		.thumb
 1104              		.thumb_func
 1105              		.type	I2C_DMALastTransferCmd, %function
 1106              	I2C_DMALastTransferCmd:
 1107              	.LFB134:
 857:cmsis/device/stm32f4xx_i2c.c ****   }
 858:cmsis/device/stm32f4xx_i2c.c **** }
 859:cmsis/device/stm32f4xx_i2c.c **** 
 860:cmsis/device/stm32f4xx_i2c.c **** /**
 861:cmsis/device/stm32f4xx_i2c.c ****   * @brief  Specifies that the next DMA transfer is the last one.
 862:cmsis/device/stm32f4xx_i2c.c ****   * @param  I2Cx: where x can be 1, 2 or 3 to select the I2C peripheral.
 863:cmsis/device/stm32f4xx_i2c.c ****   * @param  NewState: new state of the I2C DMA last transfer.
 864:cmsis/device/stm32f4xx_i2c.c ****   *          This parameter can be: ENABLE or DISABLE.
 865:cmsis/device/stm32f4xx_i2c.c ****   * @retval None
 866:cmsis/device/stm32f4xx_i2c.c ****   */
 867:cmsis/device/stm32f4xx_i2c.c **** void I2C_DMALastTransferCmd(I2C_TypeDef* I2Cx, FunctionalState NewState)
 868:cmsis/device/stm32f4xx_i2c.c **** {
 1108              		.loc 1 868 0
 1109              		.cfi_startproc
ARM GAS  C:\Users\CNous\AppData\Local\Temp\ccLIBeCO.s 			page 37


 1110              		@ args = 0, pretend = 0, frame = 0
 1111              		@ frame_needed = 0, uses_anonymous_args = 0
 1112              		@ link register save eliminated.
 1113              	.LVL115:
 869:cmsis/device/stm32f4xx_i2c.c ****   /* Check the parameters */
 870:cmsis/device/stm32f4xx_i2c.c ****   assert_param(IS_I2C_ALL_PERIPH(I2Cx));
 871:cmsis/device/stm32f4xx_i2c.c ****   assert_param(IS_FUNCTIONAL_STATE(NewState));
 872:cmsis/device/stm32f4xx_i2c.c ****   if (NewState != DISABLE)
 873:cmsis/device/stm32f4xx_i2c.c ****   {
 874:cmsis/device/stm32f4xx_i2c.c ****     /* Next DMA transfer is the last transfer */
 875:cmsis/device/stm32f4xx_i2c.c ****     I2Cx->CR2 |= I2C_CR2_LAST;
 1114              		.loc 1 875 0
 1115 0000 8388     		ldrh	r3, [r0, #4]	@,
 872:cmsis/device/stm32f4xx_i2c.c ****   if (NewState != DISABLE)
 1116              		.loc 1 872 0
 1117 0002 29B9     		cbnz	r1, .L93	@ NewState,
 876:cmsis/device/stm32f4xx_i2c.c ****   }
 877:cmsis/device/stm32f4xx_i2c.c ****   else
 878:cmsis/device/stm32f4xx_i2c.c ****   {
 879:cmsis/device/stm32f4xx_i2c.c ****     /* Next DMA transfer is not the last transfer */
 880:cmsis/device/stm32f4xx_i2c.c ****     I2Cx->CR2 &= (uint16_t)~((uint16_t)I2C_CR2_LAST);
 1118              		.loc 1 880 0
 1119 0004 23F48051 		bic	r1, r3, #4096	@ D.6729, I2Cx_2(D)->CR2,
 1120              	.LVL116:
 1121 0008 0A04     		lsls	r2, r1, #16	@ D.6729, D.6729,
 1122 000a 130C     		lsrs	r3, r2, #16	@ D.6729, D.6729,
 1123 000c 8380     		strh	r3, [r0, #4]	@ movhi	@ D.6729,
 1124 000e 7047     		bx	lr	@
 1125              	.LVL117:
 1126              	.L93:
 875:cmsis/device/stm32f4xx_i2c.c ****     I2Cx->CR2 |= I2C_CR2_LAST;
 1127              		.loc 1 875 0
 1128 0010 99B2     		uxth	r1, r3	@ D.6725, I2Cx_2(D)->CR2
 1129              	.LVL118:
 1130 0012 41F48052 		orr	r2, r1, #4096	@ D.6726, D.6725,
 1131 0016 8280     		strh	r2, [r0, #4]	@ movhi	@ D.6726,
 1132 0018 7047     		bx	lr	@
 1133              		.cfi_endproc
 1134              	.LFE134:
 1135              		.size	I2C_DMALastTransferCmd, .-I2C_DMALastTransferCmd
 1136 001a 00BF     		.section	.text.I2C_ReadRegister,"ax",%progbits
 1137              		.align	2
 1138              		.global	I2C_ReadRegister
 1139              		.thumb
 1140              		.thumb_func
 1141              		.type	I2C_ReadRegister, %function
 1142              	I2C_ReadRegister:
 1143              	.LFB135:
 881:cmsis/device/stm32f4xx_i2c.c ****   }
 882:cmsis/device/stm32f4xx_i2c.c **** }
 883:cmsis/device/stm32f4xx_i2c.c **** 
 884:cmsis/device/stm32f4xx_i2c.c **** /**
 885:cmsis/device/stm32f4xx_i2c.c ****   * @}
 886:cmsis/device/stm32f4xx_i2c.c ****   */
 887:cmsis/device/stm32f4xx_i2c.c **** 
 888:cmsis/device/stm32f4xx_i2c.c **** /** @defgroup I2C_Group5 Interrupts events and flags management functions
 889:cmsis/device/stm32f4xx_i2c.c ****  *  @brief   Interrupts, events and flags management functions
ARM GAS  C:\Users\CNous\AppData\Local\Temp\ccLIBeCO.s 			page 38


 890:cmsis/device/stm32f4xx_i2c.c ****  *
 891:cmsis/device/stm32f4xx_i2c.c **** @verbatim   
 892:cmsis/device/stm32f4xx_i2c.c ****  ===============================================================================
 893:cmsis/device/stm32f4xx_i2c.c ****                 Interrupts, events and flags management functions
 894:cmsis/device/stm32f4xx_i2c.c ****  ===============================================================================  
 895:cmsis/device/stm32f4xx_i2c.c ****   This section provides functions allowing to configure the I2C Interrupts 
 896:cmsis/device/stm32f4xx_i2c.c ****   sources and check or clear the flags or pending bits status.
 897:cmsis/device/stm32f4xx_i2c.c ****   The user should identify which mode will be used in his application to manage 
 898:cmsis/device/stm32f4xx_i2c.c ****   the communication: Polling mode, Interrupt mode or DMA mode. 
 899:cmsis/device/stm32f4xx_i2c.c **** 
 900:cmsis/device/stm32f4xx_i2c.c ****  ===============================================================================
 901:cmsis/device/stm32f4xx_i2c.c ****                           I2C State Monitoring Functions                    
 902:cmsis/device/stm32f4xx_i2c.c ****  ===============================================================================   
 903:cmsis/device/stm32f4xx_i2c.c ****   This I2C driver provides three different ways for I2C state monitoring
 904:cmsis/device/stm32f4xx_i2c.c ****   depending on the application requirements and constraints:
 905:cmsis/device/stm32f4xx_i2c.c ****          
 906:cmsis/device/stm32f4xx_i2c.c ****    
 907:cmsis/device/stm32f4xx_i2c.c ****      1. Basic state monitoring (Using I2C_CheckEvent() function)
 908:cmsis/device/stm32f4xx_i2c.c ****      -----------------------------------------------------------
 909:cmsis/device/stm32f4xx_i2c.c ****         It compares the status registers (SR1 and SR2) content to a given event
 910:cmsis/device/stm32f4xx_i2c.c ****         (can be the combination of one or more flags).
 911:cmsis/device/stm32f4xx_i2c.c ****         It returns SUCCESS if the current status includes the given flags 
 912:cmsis/device/stm32f4xx_i2c.c ****         and returns ERROR if one or more flags are missing in the current status.
 913:cmsis/device/stm32f4xx_i2c.c **** 
 914:cmsis/device/stm32f4xx_i2c.c ****           - When to use
 915:cmsis/device/stm32f4xx_i2c.c ****              - This function is suitable for most applications as well as for startup 
 916:cmsis/device/stm32f4xx_i2c.c ****                activity since the events are fully described in the product reference 
 917:cmsis/device/stm32f4xx_i2c.c ****                manual (RM0090).
 918:cmsis/device/stm32f4xx_i2c.c ****              - It is also suitable for users who need to define their own events.
 919:cmsis/device/stm32f4xx_i2c.c **** 
 920:cmsis/device/stm32f4xx_i2c.c ****           - Limitations
 921:cmsis/device/stm32f4xx_i2c.c ****              - If an error occurs (ie. error flags are set besides to the monitored 
 922:cmsis/device/stm32f4xx_i2c.c ****                flags), the I2C_CheckEvent() function may return SUCCESS despite 
 923:cmsis/device/stm32f4xx_i2c.c ****                the communication hold or corrupted real state. 
 924:cmsis/device/stm32f4xx_i2c.c ****                In this case, it is advised to use error interrupts to monitor 
 925:cmsis/device/stm32f4xx_i2c.c ****                the error events and handle them in the interrupt IRQ handler.
 926:cmsis/device/stm32f4xx_i2c.c ****          
 927:cmsis/device/stm32f4xx_i2c.c ****      @note 
 928:cmsis/device/stm32f4xx_i2c.c ****          For error management, it is advised to use the following functions:
 929:cmsis/device/stm32f4xx_i2c.c ****            - I2C_ITConfig() to configure and enable the error interrupts (I2C_IT_ERR).
 930:cmsis/device/stm32f4xx_i2c.c ****            - I2Cx_ER_IRQHandler() which is called when the error interrupt occurs.
 931:cmsis/device/stm32f4xx_i2c.c ****              Where x is the peripheral instance (I2C1, I2C2 ...)
 932:cmsis/device/stm32f4xx_i2c.c ****            - I2C_GetFlagStatus() or I2C_GetITStatus()  to be called into the 
 933:cmsis/device/stm32f4xx_i2c.c ****              I2Cx_ER_IRQHandler() function in order to determine which error occurred.
 934:cmsis/device/stm32f4xx_i2c.c ****            - I2C_ClearFlag() or I2C_ClearITPendingBit() and/or I2C_SoftwareResetCmd() 
 935:cmsis/device/stm32f4xx_i2c.c ****              and/or I2C_GenerateStop() in order to clear the error flag and source 
 936:cmsis/device/stm32f4xx_i2c.c ****              and return to correct  communication status.
 937:cmsis/device/stm32f4xx_i2c.c ****              
 938:cmsis/device/stm32f4xx_i2c.c ****  
 939:cmsis/device/stm32f4xx_i2c.c ****      2. Advanced state monitoring (Using the function I2C_GetLastEvent())
 940:cmsis/device/stm32f4xx_i2c.c ****      -------------------------------------------------------------------- 
 941:cmsis/device/stm32f4xx_i2c.c ****         Using the function I2C_GetLastEvent() which returns the image of both status 
 942:cmsis/device/stm32f4xx_i2c.c ****         registers in a single word (uint32_t) (Status Register 2 value is shifted left 
 943:cmsis/device/stm32f4xx_i2c.c ****         by 16 bits and concatenated to Status Register 1).
 944:cmsis/device/stm32f4xx_i2c.c **** 
 945:cmsis/device/stm32f4xx_i2c.c ****           - When to use
 946:cmsis/device/stm32f4xx_i2c.c ****              - This function is suitable for the same applications above but it 
ARM GAS  C:\Users\CNous\AppData\Local\Temp\ccLIBeCO.s 			page 39


 947:cmsis/device/stm32f4xx_i2c.c ****                allows to overcome the mentioned limitation of I2C_GetFlagStatus() 
 948:cmsis/device/stm32f4xx_i2c.c ****                function.
 949:cmsis/device/stm32f4xx_i2c.c ****              - The returned value could be compared to events already defined in 
 950:cmsis/device/stm32f4xx_i2c.c ****                the library (stm32f4xx_i2c.h) or to custom values defined by user.
 951:cmsis/device/stm32f4xx_i2c.c ****                This function is suitable when multiple flags are monitored at the 
 952:cmsis/device/stm32f4xx_i2c.c ****                same time.
 953:cmsis/device/stm32f4xx_i2c.c ****              - At the opposite of I2C_CheckEvent() function, this function allows 
 954:cmsis/device/stm32f4xx_i2c.c ****                user to choose when an event is accepted (when all events flags are 
 955:cmsis/device/stm32f4xx_i2c.c ****                set and no other flags are set or just when the needed flags are set 
 956:cmsis/device/stm32f4xx_i2c.c ****                like I2C_CheckEvent() function.
 957:cmsis/device/stm32f4xx_i2c.c **** 
 958:cmsis/device/stm32f4xx_i2c.c ****           - Limitations
 959:cmsis/device/stm32f4xx_i2c.c ****              - User may need to define his own events.
 960:cmsis/device/stm32f4xx_i2c.c ****              - Same remark concerning the error management is applicable for this 
 961:cmsis/device/stm32f4xx_i2c.c ****                function if user decides to check only regular communication flags 
 962:cmsis/device/stm32f4xx_i2c.c ****                (and ignores error flags).
 963:cmsis/device/stm32f4xx_i2c.c ****       
 964:cmsis/device/stm32f4xx_i2c.c ****  
 965:cmsis/device/stm32f4xx_i2c.c ****      3. Flag-based state monitoring (Using the function I2C_GetFlagStatus())
 966:cmsis/device/stm32f4xx_i2c.c ****      -----------------------------------------------------------------------
 967:cmsis/device/stm32f4xx_i2c.c ****      
 968:cmsis/device/stm32f4xx_i2c.c ****       Using the function I2C_GetFlagStatus() which simply returns the status of 
 969:cmsis/device/stm32f4xx_i2c.c ****       one single flag (ie. I2C_FLAG_RXNE ...). 
 970:cmsis/device/stm32f4xx_i2c.c **** 
 971:cmsis/device/stm32f4xx_i2c.c ****           - When to use
 972:cmsis/device/stm32f4xx_i2c.c ****              - This function could be used for specific applications or in debug 
 973:cmsis/device/stm32f4xx_i2c.c ****                phase.
 974:cmsis/device/stm32f4xx_i2c.c ****              - It is suitable when only one flag checking is needed (most I2C 
 975:cmsis/device/stm32f4xx_i2c.c ****                events are monitored through multiple flags).
 976:cmsis/device/stm32f4xx_i2c.c ****           - Limitations: 
 977:cmsis/device/stm32f4xx_i2c.c ****              - When calling this function, the Status register is accessed. 
 978:cmsis/device/stm32f4xx_i2c.c ****                Some flags are cleared when the status register is accessed. 
 979:cmsis/device/stm32f4xx_i2c.c ****                So checking the status of one Flag, may clear other ones.
 980:cmsis/device/stm32f4xx_i2c.c ****              - Function may need to be called twice or more in order to monitor 
 981:cmsis/device/stm32f4xx_i2c.c ****                one single event.
 982:cmsis/device/stm32f4xx_i2c.c ****  
 983:cmsis/device/stm32f4xx_i2c.c ****    For detailed description of Events, please refer to section I2C_Events in 
 984:cmsis/device/stm32f4xx_i2c.c ****    stm32f4xx_i2c.h file.
 985:cmsis/device/stm32f4xx_i2c.c ****        
 986:cmsis/device/stm32f4xx_i2c.c **** @endverbatim
 987:cmsis/device/stm32f4xx_i2c.c ****   * @{
 988:cmsis/device/stm32f4xx_i2c.c ****   */
 989:cmsis/device/stm32f4xx_i2c.c ****    
 990:cmsis/device/stm32f4xx_i2c.c **** /**
 991:cmsis/device/stm32f4xx_i2c.c ****   * @brief  Reads the specified I2C register and returns its value.
 992:cmsis/device/stm32f4xx_i2c.c ****   * @param  I2C_Register: specifies the register to read.
 993:cmsis/device/stm32f4xx_i2c.c ****   *          This parameter can be one of the following values:
 994:cmsis/device/stm32f4xx_i2c.c ****   *            @arg I2C_Register_CR1:  CR1 register.
 995:cmsis/device/stm32f4xx_i2c.c ****   *            @arg I2C_Register_CR2:   CR2 register.
 996:cmsis/device/stm32f4xx_i2c.c ****   *            @arg I2C_Register_OAR1:  OAR1 register.
 997:cmsis/device/stm32f4xx_i2c.c ****   *            @arg I2C_Register_OAR2:  OAR2 register.
 998:cmsis/device/stm32f4xx_i2c.c ****   *            @arg I2C_Register_DR:    DR register.
 999:cmsis/device/stm32f4xx_i2c.c ****   *            @arg I2C_Register_SR1:   SR1 register.
1000:cmsis/device/stm32f4xx_i2c.c ****   *            @arg I2C_Register_SR2:   SR2 register.
1001:cmsis/device/stm32f4xx_i2c.c ****   *            @arg I2C_Register_CCR:   CCR register.
1002:cmsis/device/stm32f4xx_i2c.c ****   *            @arg I2C_Register_TRISE: TRISE register.
1003:cmsis/device/stm32f4xx_i2c.c ****   * @retval The value of the read register.
ARM GAS  C:\Users\CNous\AppData\Local\Temp\ccLIBeCO.s 			page 40


1004:cmsis/device/stm32f4xx_i2c.c ****   */
1005:cmsis/device/stm32f4xx_i2c.c **** uint16_t I2C_ReadRegister(I2C_TypeDef* I2Cx, uint8_t I2C_Register)
1006:cmsis/device/stm32f4xx_i2c.c **** {
 1144              		.loc 1 1006 0
 1145              		.cfi_startproc
 1146              		@ args = 0, pretend = 0, frame = 8
 1147              		@ frame_needed = 0, uses_anonymous_args = 0
 1148              		@ link register save eliminated.
 1149              	.LVL119:
 1150 0000 82B0     		sub	sp, sp, #8	@,,
 1151              	.LCFI3:
 1152              		.cfi_def_cfa_offset 8
1007:cmsis/device/stm32f4xx_i2c.c ****   __IO uint32_t tmp = 0;
 1153              		.loc 1 1007 0
 1154 0002 0023     		movs	r3, #0	@ tmp144,
 1155 0004 0193     		str	r3, [sp, #4]	@ tmp144, tmp
 1156              	.LVL120:
1008:cmsis/device/stm32f4xx_i2c.c **** 
1009:cmsis/device/stm32f4xx_i2c.c ****   /* Check the parameters */
1010:cmsis/device/stm32f4xx_i2c.c ****   assert_param(IS_I2C_ALL_PERIPH(I2Cx));
1011:cmsis/device/stm32f4xx_i2c.c ****   assert_param(IS_I2C_REGISTER(I2C_Register));
1012:cmsis/device/stm32f4xx_i2c.c **** 
1013:cmsis/device/stm32f4xx_i2c.c ****   tmp = (uint32_t) I2Cx;
 1157              		.loc 1 1013 0
 1158 0006 0190     		str	r0, [sp, #4]	@ I2Cx, tmp
1014:cmsis/device/stm32f4xx_i2c.c ****   tmp += I2C_Register;
 1159              		.loc 1 1014 0
 1160 0008 0198     		ldr	r0, [sp, #4]	@ tmp.10, tmp
 1161              	.LVL121:
 1162 000a 0918     		adds	r1, r1, r0	@ tmp.11, I2C_Register, tmp.10
 1163              	.LVL122:
 1164 000c 0191     		str	r1, [sp, #4]	@ tmp.11, tmp
 1165              	.LVL123:
1015:cmsis/device/stm32f4xx_i2c.c **** 
1016:cmsis/device/stm32f4xx_i2c.c ****   /* Return the selected register value */
1017:cmsis/device/stm32f4xx_i2c.c ****   return (*(__IO uint16_t *) tmp);
 1166              		.loc 1 1017 0
 1167 000e 019A     		ldr	r2, [sp, #4]	@ tmp.12, tmp
 1168 0010 1388     		ldrh	r3, [r2, #0]	@, *tmp.13_8
1018:cmsis/device/stm32f4xx_i2c.c **** }
 1169              		.loc 1 1018 0
 1170 0012 98B2     		uxth	r0, r3	@, *tmp.13_8
 1171 0014 02B0     		add	sp, sp, #8	@,,
 1172 0016 7047     		bx	lr
 1173              		.cfi_endproc
 1174              	.LFE135:
 1175              		.size	I2C_ReadRegister, .-I2C_ReadRegister
 1176              		.section	.text.I2C_ITConfig,"ax",%progbits
 1177              		.align	2
 1178              		.global	I2C_ITConfig
 1179              		.thumb
 1180              		.thumb_func
 1181              		.type	I2C_ITConfig, %function
 1182              	I2C_ITConfig:
 1183              	.LFB136:
1019:cmsis/device/stm32f4xx_i2c.c **** 
1020:cmsis/device/stm32f4xx_i2c.c **** /**
ARM GAS  C:\Users\CNous\AppData\Local\Temp\ccLIBeCO.s 			page 41


1021:cmsis/device/stm32f4xx_i2c.c ****   * @brief  Enables or disables the specified I2C interrupts.
1022:cmsis/device/stm32f4xx_i2c.c ****   * @param  I2Cx: where x can be 1, 2 or 3 to select the I2C peripheral.
1023:cmsis/device/stm32f4xx_i2c.c ****   * @param  I2C_IT: specifies the I2C interrupts sources to be enabled or disabled. 
1024:cmsis/device/stm32f4xx_i2c.c ****   *          This parameter can be any combination of the following values:
1025:cmsis/device/stm32f4xx_i2c.c ****   *            @arg I2C_IT_BUF: Buffer interrupt mask
1026:cmsis/device/stm32f4xx_i2c.c ****   *            @arg I2C_IT_EVT: Event interrupt mask
1027:cmsis/device/stm32f4xx_i2c.c ****   *            @arg I2C_IT_ERR: Error interrupt mask
1028:cmsis/device/stm32f4xx_i2c.c ****   * @param  NewState: new state of the specified I2C interrupts.
1029:cmsis/device/stm32f4xx_i2c.c ****   *          This parameter can be: ENABLE or DISABLE.
1030:cmsis/device/stm32f4xx_i2c.c ****   * @retval None
1031:cmsis/device/stm32f4xx_i2c.c ****   */
1032:cmsis/device/stm32f4xx_i2c.c **** void I2C_ITConfig(I2C_TypeDef* I2Cx, uint16_t I2C_IT, FunctionalState NewState)
1033:cmsis/device/stm32f4xx_i2c.c **** {
 1184              		.loc 1 1033 0
 1185              		.cfi_startproc
 1186              		@ args = 0, pretend = 0, frame = 0
 1187              		@ frame_needed = 0, uses_anonymous_args = 0
 1188              		@ link register save eliminated.
 1189              	.LVL124:
1034:cmsis/device/stm32f4xx_i2c.c ****   /* Check the parameters */
1035:cmsis/device/stm32f4xx_i2c.c ****   assert_param(IS_I2C_ALL_PERIPH(I2Cx));
1036:cmsis/device/stm32f4xx_i2c.c ****   assert_param(IS_FUNCTIONAL_STATE(NewState));
1037:cmsis/device/stm32f4xx_i2c.c ****   assert_param(IS_I2C_CONFIG_IT(I2C_IT));
1038:cmsis/device/stm32f4xx_i2c.c ****   
1039:cmsis/device/stm32f4xx_i2c.c ****   if (NewState != DISABLE)
1040:cmsis/device/stm32f4xx_i2c.c ****   {
1041:cmsis/device/stm32f4xx_i2c.c ****     /* Enable the selected I2C interrupts */
1042:cmsis/device/stm32f4xx_i2c.c ****     I2Cx->CR2 |= I2C_IT;
 1190              		.loc 1 1042 0
 1191 0000 8388     		ldrh	r3, [r0, #4]	@,
 1192 0002 9BB2     		uxth	r3, r3	@ D.6709, I2Cx_2(D)->CR2
1039:cmsis/device/stm32f4xx_i2c.c ****   if (NewState != DISABLE)
 1193              		.loc 1 1039 0
 1194 0004 1AB9     		cbnz	r2, .L98	@ NewState,
1043:cmsis/device/stm32f4xx_i2c.c ****   }
1044:cmsis/device/stm32f4xx_i2c.c ****   else
1045:cmsis/device/stm32f4xx_i2c.c ****   {
1046:cmsis/device/stm32f4xx_i2c.c ****     /* Disable the selected I2C interrupts */
1047:cmsis/device/stm32f4xx_i2c.c ****     I2Cx->CR2 &= (uint16_t)~I2C_IT;
 1195              		.loc 1 1047 0
 1196 0006 23EA0101 		bic	r1, r3, r1	@ D.6714, D.6712, I2C_IT
 1197              	.LVL125:
 1198 000a 8180     		strh	r1, [r0, #4]	@ movhi	@ D.6714,
 1199 000c 7047     		bx	lr	@
 1200              	.LVL126:
 1201              	.L98:
1042:cmsis/device/stm32f4xx_i2c.c ****     I2Cx->CR2 |= I2C_IT;
 1202              		.loc 1 1042 0
 1203 000e 1943     		orrs	r1, r1, r3	@, D.6710, I2C_IT, D.6709
 1204              	.LVL127:
 1205 0010 8180     		strh	r1, [r0, #4]	@ movhi	@ D.6710,
 1206 0012 7047     		bx	lr	@
 1207              		.cfi_endproc
 1208              	.LFE136:
 1209              		.size	I2C_ITConfig, .-I2C_ITConfig
 1210              		.section	.text.I2C_CheckEvent,"ax",%progbits
 1211              		.align	2
ARM GAS  C:\Users\CNous\AppData\Local\Temp\ccLIBeCO.s 			page 42


 1212              		.global	I2C_CheckEvent
 1213              		.thumb
 1214              		.thumb_func
 1215              		.type	I2C_CheckEvent, %function
 1216              	I2C_CheckEvent:
 1217              	.LFB137:
1048:cmsis/device/stm32f4xx_i2c.c ****   }
1049:cmsis/device/stm32f4xx_i2c.c **** }
1050:cmsis/device/stm32f4xx_i2c.c **** 
1051:cmsis/device/stm32f4xx_i2c.c **** /*
1052:cmsis/device/stm32f4xx_i2c.c ****  ===============================================================================
1053:cmsis/device/stm32f4xx_i2c.c ****                           1. Basic state monitoring                    
1054:cmsis/device/stm32f4xx_i2c.c ****  ===============================================================================  
1055:cmsis/device/stm32f4xx_i2c.c ****  */
1056:cmsis/device/stm32f4xx_i2c.c **** 
1057:cmsis/device/stm32f4xx_i2c.c **** /**
1058:cmsis/device/stm32f4xx_i2c.c ****   * @brief  Checks whether the last I2Cx Event is equal to the one passed
1059:cmsis/device/stm32f4xx_i2c.c ****   *         as parameter.
1060:cmsis/device/stm32f4xx_i2c.c ****   * @param  I2Cx: where x can be 1, 2 or 3 to select the I2C peripheral.
1061:cmsis/device/stm32f4xx_i2c.c ****   * @param  I2C_EVENT: specifies the event to be checked. 
1062:cmsis/device/stm32f4xx_i2c.c ****   *          This parameter can be one of the following values:
1063:cmsis/device/stm32f4xx_i2c.c ****   *            @arg I2C_EVENT_SLAVE_TRANSMITTER_ADDRESS_MATCHED: EV1
1064:cmsis/device/stm32f4xx_i2c.c ****   *            @arg I2C_EVENT_SLAVE_RECEIVER_ADDRESS_MATCHED: EV1
1065:cmsis/device/stm32f4xx_i2c.c ****   *            @arg I2C_EVENT_SLAVE_TRANSMITTER_SECONDADDRESS_MATCHED: EV1
1066:cmsis/device/stm32f4xx_i2c.c ****   *            @arg I2C_EVENT_SLAVE_RECEIVER_SECONDADDRESS_MATCHED: EV1
1067:cmsis/device/stm32f4xx_i2c.c ****   *            @arg I2C_EVENT_SLAVE_GENERALCALLADDRESS_MATCHED: EV1
1068:cmsis/device/stm32f4xx_i2c.c ****   *            @arg I2C_EVENT_SLAVE_BYTE_RECEIVED: EV2
1069:cmsis/device/stm32f4xx_i2c.c ****   *            @arg (I2C_EVENT_SLAVE_BYTE_RECEIVED | I2C_FLAG_DUALF): EV2
1070:cmsis/device/stm32f4xx_i2c.c ****   *            @arg (I2C_EVENT_SLAVE_BYTE_RECEIVED | I2C_FLAG_GENCALL): EV2
1071:cmsis/device/stm32f4xx_i2c.c ****   *            @arg I2C_EVENT_SLAVE_BYTE_TRANSMITTED: EV3
1072:cmsis/device/stm32f4xx_i2c.c ****   *            @arg (I2C_EVENT_SLAVE_BYTE_TRANSMITTED | I2C_FLAG_DUALF): EV3
1073:cmsis/device/stm32f4xx_i2c.c ****   *            @arg (I2C_EVENT_SLAVE_BYTE_TRANSMITTED | I2C_FLAG_GENCALL): EV3
1074:cmsis/device/stm32f4xx_i2c.c ****   *            @arg I2C_EVENT_SLAVE_ACK_FAILURE: EV3_2
1075:cmsis/device/stm32f4xx_i2c.c ****   *            @arg I2C_EVENT_SLAVE_STOP_DETECTED: EV4
1076:cmsis/device/stm32f4xx_i2c.c ****   *            @arg I2C_EVENT_MASTER_MODE_SELECT: EV5
1077:cmsis/device/stm32f4xx_i2c.c ****   *            @arg I2C_EVENT_MASTER_TRANSMITTER_MODE_SELECTED: EV6     
1078:cmsis/device/stm32f4xx_i2c.c ****   *            @arg I2C_EVENT_MASTER_RECEIVER_MODE_SELECTED: EV6
1079:cmsis/device/stm32f4xx_i2c.c ****   *            @arg I2C_EVENT_MASTER_BYTE_RECEIVED: EV7
1080:cmsis/device/stm32f4xx_i2c.c ****   *            @arg I2C_EVENT_MASTER_BYTE_TRANSMITTING: EV8
1081:cmsis/device/stm32f4xx_i2c.c ****   *            @arg I2C_EVENT_MASTER_BYTE_TRANSMITTED: EV8_2
1082:cmsis/device/stm32f4xx_i2c.c ****   *            @arg I2C_EVENT_MASTER_MODE_ADDRESS10: EV9
1083:cmsis/device/stm32f4xx_i2c.c ****   *     
1084:cmsis/device/stm32f4xx_i2c.c ****   * @note   For detailed description of Events, please refer to section I2C_Events
1085:cmsis/device/stm32f4xx_i2c.c ****   *         in stm32f4xx_i2c.h file.
1086:cmsis/device/stm32f4xx_i2c.c ****   *    
1087:cmsis/device/stm32f4xx_i2c.c ****   * @retval An ErrorStatus enumeration value:
1088:cmsis/device/stm32f4xx_i2c.c ****   *           - SUCCESS: Last event is equal to the I2C_EVENT
1089:cmsis/device/stm32f4xx_i2c.c ****   *           - ERROR: Last event is different from the I2C_EVENT
1090:cmsis/device/stm32f4xx_i2c.c ****   */
1091:cmsis/device/stm32f4xx_i2c.c **** ErrorStatus I2C_CheckEvent(I2C_TypeDef* I2Cx, uint32_t I2C_EVENT)
1092:cmsis/device/stm32f4xx_i2c.c **** {
 1218              		.loc 1 1092 0
 1219              		.cfi_startproc
 1220              		@ args = 0, pretend = 0, frame = 0
 1221              		@ frame_needed = 0, uses_anonymous_args = 0
 1222              		@ link register save eliminated.
 1223              	.LVL128:
ARM GAS  C:\Users\CNous\AppData\Local\Temp\ccLIBeCO.s 			page 43


1093:cmsis/device/stm32f4xx_i2c.c ****   uint32_t lastevent = 0;
1094:cmsis/device/stm32f4xx_i2c.c ****   uint32_t flag1 = 0, flag2 = 0;
1095:cmsis/device/stm32f4xx_i2c.c ****   ErrorStatus status = ERROR;
1096:cmsis/device/stm32f4xx_i2c.c **** 
1097:cmsis/device/stm32f4xx_i2c.c ****   /* Check the parameters */
1098:cmsis/device/stm32f4xx_i2c.c ****   assert_param(IS_I2C_ALL_PERIPH(I2Cx));
1099:cmsis/device/stm32f4xx_i2c.c ****   assert_param(IS_I2C_EVENT(I2C_EVENT));
1100:cmsis/device/stm32f4xx_i2c.c **** 
1101:cmsis/device/stm32f4xx_i2c.c ****   /* Read the I2Cx status register */
1102:cmsis/device/stm32f4xx_i2c.c ****   flag1 = I2Cx->SR1;
 1224              		.loc 1 1102 0
 1225 0000 828A     		ldrh	r2, [r0, #20]	@, I2Cx_6(D)->SR1
1103:cmsis/device/stm32f4xx_i2c.c ****   flag2 = I2Cx->SR2;
 1226              		.loc 1 1103 0
 1227 0002 038B     		ldrh	r3, [r0, #24]	@, I2Cx_6(D)->SR2
1102:cmsis/device/stm32f4xx_i2c.c ****   flag1 = I2Cx->SR1;
 1228              		.loc 1 1102 0
 1229 0004 90B2     		uxth	r0, r2	@ D.6698, I2Cx_6(D)->SR1
 1230              	.LVL129:
1104:cmsis/device/stm32f4xx_i2c.c ****   flag2 = flag2 << 16;
1105:cmsis/device/stm32f4xx_i2c.c **** 
1106:cmsis/device/stm32f4xx_i2c.c ****   /* Get the last event value from I2C status register */
1107:cmsis/device/stm32f4xx_i2c.c ****   lastevent = (flag1 | flag2) & FLAG_MASK;
 1231              		.loc 1 1107 0
 1232 0006 40EA0342 		orr	r2, r0, r3, lsl #16	@, tmp153, D.6698, I2Cx_6(D)->SR2,
 1233 000a 0A40     		ands	r2, r2, r1	@, tmp154, tmp153, I2C_EVENT
1108:cmsis/device/stm32f4xx_i2c.c **** 
1109:cmsis/device/stm32f4xx_i2c.c ****   /* Check whether the last event contains the I2C_EVENT */
1110:cmsis/device/stm32f4xx_i2c.c ****   if ((lastevent & I2C_EVENT) == I2C_EVENT)
 1234              		.loc 1 1110 0
 1235 000c 22F07F43 		bic	r3, r2, #-16777216	@ tmp155, tmp154,
 1236              	.LVL130:
1111:cmsis/device/stm32f4xx_i2c.c ****   {
1112:cmsis/device/stm32f4xx_i2c.c ****     /* SUCCESS: last event is equal to I2C_EVENT */
1113:cmsis/device/stm32f4xx_i2c.c ****     status = SUCCESS;
1114:cmsis/device/stm32f4xx_i2c.c ****   }
1115:cmsis/device/stm32f4xx_i2c.c ****   else
1116:cmsis/device/stm32f4xx_i2c.c ****   {
1117:cmsis/device/stm32f4xx_i2c.c ****     /* ERROR: last event is different from I2C_EVENT */
1118:cmsis/device/stm32f4xx_i2c.c ****     status = ERROR;
1119:cmsis/device/stm32f4xx_i2c.c ****   }
1120:cmsis/device/stm32f4xx_i2c.c ****   /* Return status */
1121:cmsis/device/stm32f4xx_i2c.c ****   return status;
1122:cmsis/device/stm32f4xx_i2c.c **** }
 1237              		.loc 1 1122 0
 1238 0010 C91A     		subs	r1, r1, r3	@, I2C_EVENT, tmp155
 1239              	.LVL131:
 1240 0012 4842     		rsbs	r0, r1, #0	@,,
 1241              	.LVL132:
 1242 0014 4841     		adcs	r0, r0, r1	@,,
 1243 0016 7047     		bx	lr	@
 1244              		.cfi_endproc
 1245              	.LFE137:
 1246              		.size	I2C_CheckEvent, .-I2C_CheckEvent
 1247              		.section	.text.I2C_GetLastEvent,"ax",%progbits
 1248              		.align	2
 1249              		.global	I2C_GetLastEvent
ARM GAS  C:\Users\CNous\AppData\Local\Temp\ccLIBeCO.s 			page 44


 1250              		.thumb
 1251              		.thumb_func
 1252              		.type	I2C_GetLastEvent, %function
 1253              	I2C_GetLastEvent:
 1254              	.LFB138:
1123:cmsis/device/stm32f4xx_i2c.c **** 
1124:cmsis/device/stm32f4xx_i2c.c **** /*
1125:cmsis/device/stm32f4xx_i2c.c ****  ===============================================================================
1126:cmsis/device/stm32f4xx_i2c.c ****                           2. Advanced state monitoring                   
1127:cmsis/device/stm32f4xx_i2c.c ****  ===============================================================================  
1128:cmsis/device/stm32f4xx_i2c.c ****  */
1129:cmsis/device/stm32f4xx_i2c.c **** 
1130:cmsis/device/stm32f4xx_i2c.c **** /**
1131:cmsis/device/stm32f4xx_i2c.c ****   * @brief  Returns the last I2Cx Event.
1132:cmsis/device/stm32f4xx_i2c.c ****   * @param  I2Cx: where x can be 1, 2 or 3 to select the I2C peripheral.
1133:cmsis/device/stm32f4xx_i2c.c ****   *     
1134:cmsis/device/stm32f4xx_i2c.c ****   * @note   For detailed description of Events, please refer to section I2C_Events
1135:cmsis/device/stm32f4xx_i2c.c ****   *         in stm32f4xx_i2c.h file.
1136:cmsis/device/stm32f4xx_i2c.c ****   *    
1137:cmsis/device/stm32f4xx_i2c.c ****   * @retval The last event
1138:cmsis/device/stm32f4xx_i2c.c ****   */
1139:cmsis/device/stm32f4xx_i2c.c **** uint32_t I2C_GetLastEvent(I2C_TypeDef* I2Cx)
1140:cmsis/device/stm32f4xx_i2c.c **** {
 1255              		.loc 1 1140 0
 1256              		.cfi_startproc
 1257              		@ args = 0, pretend = 0, frame = 0
 1258              		@ frame_needed = 0, uses_anonymous_args = 0
 1259              		@ link register save eliminated.
 1260              	.LVL133:
1141:cmsis/device/stm32f4xx_i2c.c ****   uint32_t lastevent = 0;
1142:cmsis/device/stm32f4xx_i2c.c ****   uint32_t flag1 = 0, flag2 = 0;
1143:cmsis/device/stm32f4xx_i2c.c **** 
1144:cmsis/device/stm32f4xx_i2c.c ****   /* Check the parameters */
1145:cmsis/device/stm32f4xx_i2c.c ****   assert_param(IS_I2C_ALL_PERIPH(I2Cx));
1146:cmsis/device/stm32f4xx_i2c.c **** 
1147:cmsis/device/stm32f4xx_i2c.c ****   /* Read the I2Cx status register */
1148:cmsis/device/stm32f4xx_i2c.c ****   flag1 = I2Cx->SR1;
 1261              		.loc 1 1148 0
 1262 0000 828A     		ldrh	r2, [r0, #20]	@, I2Cx_4(D)->SR1
1149:cmsis/device/stm32f4xx_i2c.c ****   flag2 = I2Cx->SR2;
 1263              		.loc 1 1149 0
 1264 0002 038B     		ldrh	r3, [r0, #24]	@, I2Cx_4(D)->SR2
1148:cmsis/device/stm32f4xx_i2c.c ****   flag1 = I2Cx->SR1;
 1265              		.loc 1 1148 0
 1266 0004 90B2     		uxth	r0, r2	@ D.6693, I2Cx_4(D)->SR1
 1267              	.LVL134:
1150:cmsis/device/stm32f4xx_i2c.c ****   flag2 = flag2 << 16;
1151:cmsis/device/stm32f4xx_i2c.c **** 
1152:cmsis/device/stm32f4xx_i2c.c ****   /* Get the last event value from I2C status register */
1153:cmsis/device/stm32f4xx_i2c.c ****   lastevent = (flag1 | flag2) & FLAG_MASK;
 1268              		.loc 1 1153 0
 1269 0006 40EA0341 		orr	r1, r0, r3, lsl #16	@, tmp149, D.6693, I2Cx_4(D)->SR2,
1154:cmsis/device/stm32f4xx_i2c.c **** 
1155:cmsis/device/stm32f4xx_i2c.c ****   /* Return status */
1156:cmsis/device/stm32f4xx_i2c.c ****   return lastevent;
1157:cmsis/device/stm32f4xx_i2c.c **** }
 1270              		.loc 1 1157 0
ARM GAS  C:\Users\CNous\AppData\Local\Temp\ccLIBeCO.s 			page 45


 1271 000a 21F07F40 		bic	r0, r1, #-16777216	@, tmp149,
 1272              	.LVL135:
 1273 000e 7047     		bx	lr	@
 1274              		.cfi_endproc
 1275              	.LFE138:
 1276              		.size	I2C_GetLastEvent, .-I2C_GetLastEvent
 1277              		.section	.text.I2C_GetFlagStatus,"ax",%progbits
 1278              		.align	2
 1279              		.global	I2C_GetFlagStatus
 1280              		.thumb
 1281              		.thumb_func
 1282              		.type	I2C_GetFlagStatus, %function
 1283              	I2C_GetFlagStatus:
 1284              	.LFB139:
1158:cmsis/device/stm32f4xx_i2c.c **** 
1159:cmsis/device/stm32f4xx_i2c.c **** /*
1160:cmsis/device/stm32f4xx_i2c.c ****  ===============================================================================
1161:cmsis/device/stm32f4xx_i2c.c ****                           3. Flag-based state monitoring                   
1162:cmsis/device/stm32f4xx_i2c.c ****  ===============================================================================  
1163:cmsis/device/stm32f4xx_i2c.c ****  */
1164:cmsis/device/stm32f4xx_i2c.c **** 
1165:cmsis/device/stm32f4xx_i2c.c **** /**
1166:cmsis/device/stm32f4xx_i2c.c ****   * @brief  Checks whether the specified I2C flag is set or not.
1167:cmsis/device/stm32f4xx_i2c.c ****   * @param  I2Cx: where x can be 1, 2 or 3 to select the I2C peripheral.
1168:cmsis/device/stm32f4xx_i2c.c ****   * @param  I2C_FLAG: specifies the flag to check. 
1169:cmsis/device/stm32f4xx_i2c.c ****   *          This parameter can be one of the following values:
1170:cmsis/device/stm32f4xx_i2c.c ****   *            @arg I2C_FLAG_DUALF: Dual flag (Slave mode)
1171:cmsis/device/stm32f4xx_i2c.c ****   *            @arg I2C_FLAG_SMBHOST: SMBus host header (Slave mode)
1172:cmsis/device/stm32f4xx_i2c.c ****   *            @arg I2C_FLAG_SMBDEFAULT: SMBus default header (Slave mode)
1173:cmsis/device/stm32f4xx_i2c.c ****   *            @arg I2C_FLAG_GENCALL: General call header flag (Slave mode)
1174:cmsis/device/stm32f4xx_i2c.c ****   *            @arg I2C_FLAG_TRA: Transmitter/Receiver flag
1175:cmsis/device/stm32f4xx_i2c.c ****   *            @arg I2C_FLAG_BUSY: Bus busy flag
1176:cmsis/device/stm32f4xx_i2c.c ****   *            @arg I2C_FLAG_MSL: Master/Slave flag
1177:cmsis/device/stm32f4xx_i2c.c ****   *            @arg I2C_FLAG_SMBALERT: SMBus Alert flag
1178:cmsis/device/stm32f4xx_i2c.c ****   *            @arg I2C_FLAG_TIMEOUT: Timeout or Tlow error flag
1179:cmsis/device/stm32f4xx_i2c.c ****   *            @arg I2C_FLAG_PECERR: PEC error in reception flag
1180:cmsis/device/stm32f4xx_i2c.c ****   *            @arg I2C_FLAG_OVR: Overrun/Underrun flag (Slave mode)
1181:cmsis/device/stm32f4xx_i2c.c ****   *            @arg I2C_FLAG_AF: Acknowledge failure flag
1182:cmsis/device/stm32f4xx_i2c.c ****   *            @arg I2C_FLAG_ARLO: Arbitration lost flag (Master mode)
1183:cmsis/device/stm32f4xx_i2c.c ****   *            @arg I2C_FLAG_BERR: Bus error flag
1184:cmsis/device/stm32f4xx_i2c.c ****   *            @arg I2C_FLAG_TXE: Data register empty flag (Transmitter)
1185:cmsis/device/stm32f4xx_i2c.c ****   *            @arg I2C_FLAG_RXNE: Data register not empty (Receiver) flag
1186:cmsis/device/stm32f4xx_i2c.c ****   *            @arg I2C_FLAG_STOPF: Stop detection flag (Slave mode)
1187:cmsis/device/stm32f4xx_i2c.c ****   *            @arg I2C_FLAG_ADD10: 10-bit header sent flag (Master mode)
1188:cmsis/device/stm32f4xx_i2c.c ****   *            @arg I2C_FLAG_BTF: Byte transfer finished flag
1189:cmsis/device/stm32f4xx_i2c.c ****   *            @arg I2C_FLAG_ADDR: Address sent flag (Master mode) "ADSL"
1190:cmsis/device/stm32f4xx_i2c.c ****   *                                Address matched flag (Slave mode)"ENDAD"
1191:cmsis/device/stm32f4xx_i2c.c ****   *            @arg I2C_FLAG_SB: Start bit flag (Master mode)
1192:cmsis/device/stm32f4xx_i2c.c ****   * @retval The new state of I2C_FLAG (SET or RESET).
1193:cmsis/device/stm32f4xx_i2c.c ****   */
1194:cmsis/device/stm32f4xx_i2c.c **** FlagStatus I2C_GetFlagStatus(I2C_TypeDef* I2Cx, uint32_t I2C_FLAG)
1195:cmsis/device/stm32f4xx_i2c.c **** {
 1285              		.loc 1 1195 0
 1286              		.cfi_startproc
 1287              		@ args = 0, pretend = 0, frame = 8
 1288              		@ frame_needed = 0, uses_anonymous_args = 0
 1289              		@ link register save eliminated.
ARM GAS  C:\Users\CNous\AppData\Local\Temp\ccLIBeCO.s 			page 46


 1290              	.LVL136:
 1291 0000 82B0     		sub	sp, sp, #8	@,,
 1292              	.LCFI4:
 1293              		.cfi_def_cfa_offset 8
1196:cmsis/device/stm32f4xx_i2c.c ****   FlagStatus bitstatus = RESET;
1197:cmsis/device/stm32f4xx_i2c.c ****   __IO uint32_t i2creg = 0, i2cxbase = 0;
 1294              		.loc 1 1197 0
 1295 0002 0023     		movs	r3, #0	@ tmp151,
1198:cmsis/device/stm32f4xx_i2c.c **** 
1199:cmsis/device/stm32f4xx_i2c.c ****   /* Check the parameters */
1200:cmsis/device/stm32f4xx_i2c.c ****   assert_param(IS_I2C_ALL_PERIPH(I2Cx));
1201:cmsis/device/stm32f4xx_i2c.c ****   assert_param(IS_I2C_GET_FLAG(I2C_FLAG));
1202:cmsis/device/stm32f4xx_i2c.c **** 
1203:cmsis/device/stm32f4xx_i2c.c ****   /* Get the I2Cx peripheral base address */
1204:cmsis/device/stm32f4xx_i2c.c ****   i2cxbase = (uint32_t)I2Cx;
1205:cmsis/device/stm32f4xx_i2c.c ****   
1206:cmsis/device/stm32f4xx_i2c.c ****   /* Read flag register index */
1207:cmsis/device/stm32f4xx_i2c.c ****   i2creg = I2C_FLAG >> 28;
 1296              		.loc 1 1207 0
 1297 0004 0A0F     		lsrs	r2, r1, #28	@ i2creg.1, I2C_FLAG,
 1298              	.LVL137:
1197:cmsis/device/stm32f4xx_i2c.c ****   __IO uint32_t i2creg = 0, i2cxbase = 0;
 1299              		.loc 1 1197 0
 1300 0006 0093     		str	r3, [sp, #0]	@ tmp151, i2creg
 1301              	.LVL138:
 1302 0008 0193     		str	r3, [sp, #4]	@ tmp151, i2cxbase
 1303              	.LVL139:
1204:cmsis/device/stm32f4xx_i2c.c ****   i2cxbase = (uint32_t)I2Cx;
 1304              		.loc 1 1204 0
 1305 000a 0190     		str	r0, [sp, #4]	@ I2Cx, i2cxbase
 1306              		.loc 1 1207 0
 1307 000c 0092     		str	r2, [sp, #0]	@ i2creg.1, i2creg
1208:cmsis/device/stm32f4xx_i2c.c ****   
1209:cmsis/device/stm32f4xx_i2c.c ****   /* Get bit[23:0] of the flag */
1210:cmsis/device/stm32f4xx_i2c.c ****   I2C_FLAG &= FLAG_MASK;
1211:cmsis/device/stm32f4xx_i2c.c ****   
1212:cmsis/device/stm32f4xx_i2c.c ****   if(i2creg != 0)
 1308              		.loc 1 1212 0
 1309 000e 0098     		ldr	r0, [sp, #0]	@ i2creg.2, i2creg
 1310              	.LVL140:
1210:cmsis/device/stm32f4xx_i2c.c ****   I2C_FLAG &= FLAG_MASK;
 1311              		.loc 1 1210 0
 1312 0010 21F07F41 		bic	r1, r1, #-16777216	@ I2C_FLAG, I2C_FLAG,
 1313              	.LVL141:
 1314              		.loc 1 1212 0
 1315 0014 50B1     		cbz	r0, .L102	@ i2creg.2,
1213:cmsis/device/stm32f4xx_i2c.c ****   {
1214:cmsis/device/stm32f4xx_i2c.c ****     /* Get the I2Cx SR1 register address */
1215:cmsis/device/stm32f4xx_i2c.c ****     i2cxbase += 0x14;
 1316              		.loc 1 1215 0
 1317 0016 019A     		ldr	r2, [sp, #4]	@ i2cxbase.3, i2cxbase
 1318 0018 1432     		adds	r2, r2, #20	@ i2cxbase.4, i2cxbase.3,
 1319              	.LVL142:
 1320 001a 0192     		str	r2, [sp, #4]	@ i2cxbase.4, i2cxbase
 1321              	.LVL143:
 1322              	.L103:
1216:cmsis/device/stm32f4xx_i2c.c ****   }
ARM GAS  C:\Users\CNous\AppData\Local\Temp\ccLIBeCO.s 			page 47


1217:cmsis/device/stm32f4xx_i2c.c ****   else
1218:cmsis/device/stm32f4xx_i2c.c ****   {
1219:cmsis/device/stm32f4xx_i2c.c ****     /* Flag in I2Cx SR2 Register */
1220:cmsis/device/stm32f4xx_i2c.c ****     I2C_FLAG = (uint32_t)(I2C_FLAG >> 16);
1221:cmsis/device/stm32f4xx_i2c.c ****     /* Get the I2Cx SR2 register address */
1222:cmsis/device/stm32f4xx_i2c.c ****     i2cxbase += 0x18;
1223:cmsis/device/stm32f4xx_i2c.c ****   }
1224:cmsis/device/stm32f4xx_i2c.c ****   
1225:cmsis/device/stm32f4xx_i2c.c ****   if(((*(__IO uint32_t *)i2cxbase) & I2C_FLAG) != (uint32_t)RESET)
 1323              		.loc 1 1225 0
 1324 001c 0198     		ldr	r0, [sp, #4]	@ i2cxbase.7, i2cxbase
 1325 001e 0368     		ldr	r3, [r0, #0]	@ D.6686, *i2cxbase.8_16
 1326              	.LVL144:
 1327 0020 1942     		tst	r1, r3	@ I2C_FLAG, D.6686
1226:cmsis/device/stm32f4xx_i2c.c ****   {
1227:cmsis/device/stm32f4xx_i2c.c ****     /* I2C_FLAG is set */
1228:cmsis/device/stm32f4xx_i2c.c ****     bitstatus = SET;
1229:cmsis/device/stm32f4xx_i2c.c ****   }
1230:cmsis/device/stm32f4xx_i2c.c ****   else
1231:cmsis/device/stm32f4xx_i2c.c ****   {
1232:cmsis/device/stm32f4xx_i2c.c ****     /* I2C_FLAG is reset */
1233:cmsis/device/stm32f4xx_i2c.c ****     bitstatus = RESET;
1234:cmsis/device/stm32f4xx_i2c.c ****   }
1235:cmsis/device/stm32f4xx_i2c.c ****   
1236:cmsis/device/stm32f4xx_i2c.c ****   /* Return the I2C_FLAG status */
1237:cmsis/device/stm32f4xx_i2c.c ****   return  bitstatus;
1238:cmsis/device/stm32f4xx_i2c.c **** }
 1328              		.loc 1 1238 0
 1329 0022 0CBF     		ite	eq	@
 1330 0024 0020     		moveq	r0, #0	@,
 1331 0026 0120     		movne	r0, #1	@,
 1332 0028 02B0     		add	sp, sp, #8	@,,
 1333 002a 7047     		bx	lr
 1334              	.LVL145:
 1335              	.L102:
1222:cmsis/device/stm32f4xx_i2c.c ****     i2cxbase += 0x18;
 1336              		.loc 1 1222 0
 1337 002c 019B     		ldr	r3, [sp, #4]	@ i2cxbase.5, i2cxbase
 1338 002e 1833     		adds	r3, r3, #24	@ i2cxbase.6, i2cxbase.5,
 1339              	.LVL146:
1220:cmsis/device/stm32f4xx_i2c.c ****     I2C_FLAG = (uint32_t)(I2C_FLAG >> 16);
 1340              		.loc 1 1220 0
 1341 0030 090C     		lsrs	r1, r1, #16	@ I2C_FLAG, I2C_FLAG,
 1342              	.LVL147:
1222:cmsis/device/stm32f4xx_i2c.c ****     i2cxbase += 0x18;
 1343              		.loc 1 1222 0
 1344 0032 0193     		str	r3, [sp, #4]	@ i2cxbase.6, i2cxbase
 1345              	.LVL148:
 1346 0034 F2E7     		b	.L103	@
 1347              		.cfi_endproc
 1348              	.LFE139:
 1349              		.size	I2C_GetFlagStatus, .-I2C_GetFlagStatus
 1350 0036 00BF     		.section	.text.I2C_ClearFlag,"ax",%progbits
 1351              		.align	2
 1352              		.global	I2C_ClearFlag
 1353              		.thumb
 1354              		.thumb_func
ARM GAS  C:\Users\CNous\AppData\Local\Temp\ccLIBeCO.s 			page 48


 1355              		.type	I2C_ClearFlag, %function
 1356              	I2C_ClearFlag:
 1357              	.LFB140:
1239:cmsis/device/stm32f4xx_i2c.c **** 
1240:cmsis/device/stm32f4xx_i2c.c **** /**
1241:cmsis/device/stm32f4xx_i2c.c ****   * @brief  Clears the I2Cx's pending flags.
1242:cmsis/device/stm32f4xx_i2c.c ****   * @param  I2Cx: where x can be 1, 2 or 3 to select the I2C peripheral.
1243:cmsis/device/stm32f4xx_i2c.c ****   * @param  I2C_FLAG: specifies the flag to clear. 
1244:cmsis/device/stm32f4xx_i2c.c ****   *          This parameter can be any combination of the following values:
1245:cmsis/device/stm32f4xx_i2c.c ****   *            @arg I2C_FLAG_SMBALERT: SMBus Alert flag
1246:cmsis/device/stm32f4xx_i2c.c ****   *            @arg I2C_FLAG_TIMEOUT: Timeout or Tlow error flag
1247:cmsis/device/stm32f4xx_i2c.c ****   *            @arg I2C_FLAG_PECERR: PEC error in reception flag
1248:cmsis/device/stm32f4xx_i2c.c ****   *            @arg I2C_FLAG_OVR: Overrun/Underrun flag (Slave mode)
1249:cmsis/device/stm32f4xx_i2c.c ****   *            @arg I2C_FLAG_AF: Acknowledge failure flag
1250:cmsis/device/stm32f4xx_i2c.c ****   *            @arg I2C_FLAG_ARLO: Arbitration lost flag (Master mode)
1251:cmsis/device/stm32f4xx_i2c.c ****   *            @arg I2C_FLAG_BERR: Bus error flag
1252:cmsis/device/stm32f4xx_i2c.c ****   *   
1253:cmsis/device/stm32f4xx_i2c.c ****   * @note   STOPF (STOP detection) is cleared by software sequence: a read operation 
1254:cmsis/device/stm32f4xx_i2c.c ****   *          to I2C_SR1 register (I2C_GetFlagStatus()) followed by a write operation 
1255:cmsis/device/stm32f4xx_i2c.c ****   *          to I2C_CR1 register (I2C_Cmd() to re-enable the I2C peripheral).
1256:cmsis/device/stm32f4xx_i2c.c ****   * @note   ADD10 (10-bit header sent) is cleared by software sequence: a read 
1257:cmsis/device/stm32f4xx_i2c.c ****   *          operation to I2C_SR1 (I2C_GetFlagStatus()) followed by writing the 
1258:cmsis/device/stm32f4xx_i2c.c ****   *          second byte of the address in DR register.
1259:cmsis/device/stm32f4xx_i2c.c ****   * @note   BTF (Byte Transfer Finished) is cleared by software sequence: a read 
1260:cmsis/device/stm32f4xx_i2c.c ****   *          operation to I2C_SR1 register (I2C_GetFlagStatus()) followed by a 
1261:cmsis/device/stm32f4xx_i2c.c ****   *          read/write to I2C_DR register (I2C_SendData()).
1262:cmsis/device/stm32f4xx_i2c.c ****   * @note   ADDR (Address sent) is cleared by software sequence: a read operation to 
1263:cmsis/device/stm32f4xx_i2c.c ****   *          I2C_SR1 register (I2C_GetFlagStatus()) followed by a read operation to 
1264:cmsis/device/stm32f4xx_i2c.c ****   *          I2C_SR2 register ((void)(I2Cx->SR2)).
1265:cmsis/device/stm32f4xx_i2c.c ****   * @note   SB (Start Bit) is cleared software sequence: a read operation to I2C_SR1
1266:cmsis/device/stm32f4xx_i2c.c ****   *          register (I2C_GetFlagStatus()) followed by a write operation to I2C_DR
1267:cmsis/device/stm32f4xx_i2c.c ****   *          register (I2C_SendData()).
1268:cmsis/device/stm32f4xx_i2c.c ****   *  
1269:cmsis/device/stm32f4xx_i2c.c ****   * @retval None
1270:cmsis/device/stm32f4xx_i2c.c ****   */
1271:cmsis/device/stm32f4xx_i2c.c **** void I2C_ClearFlag(I2C_TypeDef* I2Cx, uint32_t I2C_FLAG)
1272:cmsis/device/stm32f4xx_i2c.c **** {
 1358              		.loc 1 1272 0
 1359              		.cfi_startproc
 1360              		@ args = 0, pretend = 0, frame = 0
 1361              		@ frame_needed = 0, uses_anonymous_args = 0
 1362              		@ link register save eliminated.
 1363              	.LVL149:
1273:cmsis/device/stm32f4xx_i2c.c ****   uint32_t flagpos = 0;
1274:cmsis/device/stm32f4xx_i2c.c ****   /* Check the parameters */
1275:cmsis/device/stm32f4xx_i2c.c ****   assert_param(IS_I2C_ALL_PERIPH(I2Cx));
1276:cmsis/device/stm32f4xx_i2c.c ****   assert_param(IS_I2C_CLEAR_FLAG(I2C_FLAG));
1277:cmsis/device/stm32f4xx_i2c.c ****   /* Get the I2C flag position */
1278:cmsis/device/stm32f4xx_i2c.c ****   flagpos = I2C_FLAG & FLAG_MASK;
1279:cmsis/device/stm32f4xx_i2c.c ****   /* Clear the selected I2C flag */
1280:cmsis/device/stm32f4xx_i2c.c ****   I2Cx->SR1 = (uint16_t)~flagpos;
 1364              		.loc 1 1280 0
 1365 0000 C943     		mvns	r1, r1	@ tmp141, I2C_FLAG
 1366              	.LVL150:
 1367 0002 8AB2     		uxth	r2, r1	@ D.6673, tmp141
 1368 0004 8282     		strh	r2, [r0, #20]	@ movhi	@ D.6673, I2Cx_6(D)->SR1
 1369 0006 7047     		bx	lr	@
ARM GAS  C:\Users\CNous\AppData\Local\Temp\ccLIBeCO.s 			page 49


 1370              		.cfi_endproc
 1371              	.LFE140:
 1372              		.size	I2C_ClearFlag, .-I2C_ClearFlag
 1373              		.section	.text.I2C_GetITStatus,"ax",%progbits
 1374              		.align	2
 1375              		.global	I2C_GetITStatus
 1376              		.thumb
 1377              		.thumb_func
 1378              		.type	I2C_GetITStatus, %function
 1379              	I2C_GetITStatus:
 1380              	.LFB141:
1281:cmsis/device/stm32f4xx_i2c.c **** }
1282:cmsis/device/stm32f4xx_i2c.c **** 
1283:cmsis/device/stm32f4xx_i2c.c **** /**
1284:cmsis/device/stm32f4xx_i2c.c ****   * @brief  Checks whether the specified I2C interrupt has occurred or not.
1285:cmsis/device/stm32f4xx_i2c.c ****   * @param  I2Cx: where x can be 1, 2 or 3 to select the I2C peripheral.
1286:cmsis/device/stm32f4xx_i2c.c ****   * @param  I2C_IT: specifies the interrupt source to check. 
1287:cmsis/device/stm32f4xx_i2c.c ****   *          This parameter can be one of the following values:
1288:cmsis/device/stm32f4xx_i2c.c ****   *            @arg I2C_IT_SMBALERT: SMBus Alert flag
1289:cmsis/device/stm32f4xx_i2c.c ****   *            @arg I2C_IT_TIMEOUT: Timeout or Tlow error flag
1290:cmsis/device/stm32f4xx_i2c.c ****   *            @arg I2C_IT_PECERR: PEC error in reception flag
1291:cmsis/device/stm32f4xx_i2c.c ****   *            @arg I2C_IT_OVR: Overrun/Underrun flag (Slave mode)
1292:cmsis/device/stm32f4xx_i2c.c ****   *            @arg I2C_IT_AF: Acknowledge failure flag
1293:cmsis/device/stm32f4xx_i2c.c ****   *            @arg I2C_IT_ARLO: Arbitration lost flag (Master mode)
1294:cmsis/device/stm32f4xx_i2c.c ****   *            @arg I2C_IT_BERR: Bus error flag
1295:cmsis/device/stm32f4xx_i2c.c ****   *            @arg I2C_IT_TXE: Data register empty flag (Transmitter)
1296:cmsis/device/stm32f4xx_i2c.c ****   *            @arg I2C_IT_RXNE: Data register not empty (Receiver) flag
1297:cmsis/device/stm32f4xx_i2c.c ****   *            @arg I2C_IT_STOPF: Stop detection flag (Slave mode)
1298:cmsis/device/stm32f4xx_i2c.c ****   *            @arg I2C_IT_ADD10: 10-bit header sent flag (Master mode)
1299:cmsis/device/stm32f4xx_i2c.c ****   *            @arg I2C_IT_BTF: Byte transfer finished flag
1300:cmsis/device/stm32f4xx_i2c.c ****   *            @arg I2C_IT_ADDR: Address sent flag (Master mode) "ADSL"
1301:cmsis/device/stm32f4xx_i2c.c ****   *                              Address matched flag (Slave mode)"ENDAD"
1302:cmsis/device/stm32f4xx_i2c.c ****   *            @arg I2C_IT_SB: Start bit flag (Master mode)
1303:cmsis/device/stm32f4xx_i2c.c ****   * @retval The new state of I2C_IT (SET or RESET).
1304:cmsis/device/stm32f4xx_i2c.c ****   */
1305:cmsis/device/stm32f4xx_i2c.c **** ITStatus I2C_GetITStatus(I2C_TypeDef* I2Cx, uint32_t I2C_IT)
1306:cmsis/device/stm32f4xx_i2c.c **** {
 1381              		.loc 1 1306 0
 1382              		.cfi_startproc
 1383              		@ args = 0, pretend = 0, frame = 0
 1384              		@ frame_needed = 0, uses_anonymous_args = 0
 1385              		@ link register save eliminated.
 1386              	.LVL151:
1307:cmsis/device/stm32f4xx_i2c.c ****   ITStatus bitstatus = RESET;
1308:cmsis/device/stm32f4xx_i2c.c ****   uint32_t enablestatus = 0;
1309:cmsis/device/stm32f4xx_i2c.c **** 
1310:cmsis/device/stm32f4xx_i2c.c ****   /* Check the parameters */
1311:cmsis/device/stm32f4xx_i2c.c ****   assert_param(IS_I2C_ALL_PERIPH(I2Cx));
1312:cmsis/device/stm32f4xx_i2c.c ****   assert_param(IS_I2C_GET_IT(I2C_IT));
1313:cmsis/device/stm32f4xx_i2c.c **** 
1314:cmsis/device/stm32f4xx_i2c.c ****   /* Check if the interrupt source is enabled or not */
1315:cmsis/device/stm32f4xx_i2c.c ****   enablestatus = (uint32_t)(((I2C_IT & ITEN_MASK) >> 16) & (I2Cx->CR2)) ;
 1387              		.loc 1 1315 0
 1388 0000 8388     		ldrh	r3, [r0, #4]	@, I2Cx_7(D)->CR2
1316:cmsis/device/stm32f4xx_i2c.c ****   
1317:cmsis/device/stm32f4xx_i2c.c ****   /* Get bit[23:0] of the flag */
1318:cmsis/device/stm32f4xx_i2c.c ****   I2C_IT &= FLAG_MASK;
ARM GAS  C:\Users\CNous\AppData\Local\Temp\ccLIBeCO.s 			page 50


1319:cmsis/device/stm32f4xx_i2c.c **** 
1320:cmsis/device/stm32f4xx_i2c.c ****   /* Check the status of the specified I2C flag */
1321:cmsis/device/stm32f4xx_i2c.c ****   if (((I2Cx->SR1 & I2C_IT) != (uint32_t)RESET) && enablestatus)
 1389              		.loc 1 1321 0
 1390 0002 808A     		ldrh	r0, [r0, #20]	@, I2Cx_7(D)->SR1
 1391              	.LVL152:
 1392 0004 82B2     		uxth	r2, r0	@ D.6665, I2Cx_7(D)->SR1
 1393 0006 11EA0200 		ands	r0, r1, r2	@ tmp151, I2C_IT, D.6665
1315:cmsis/device/stm32f4xx_i2c.c ****   enablestatus = (uint32_t)(((I2C_IT & ITEN_MASK) >> 16) & (I2Cx->CR2)) ;
 1394              		.loc 1 1315 0
 1395 000a 9BB2     		uxth	r3, r3	@ D.6661, I2Cx_7(D)->CR2
 1396              	.LVL153:
 1397              		.loc 1 1321 0
 1398 000c 06D0     		beq	.L106	@,
1315:cmsis/device/stm32f4xx_i2c.c ****   enablestatus = (uint32_t)(((I2C_IT & ITEN_MASK) >> 16) & (I2Cx->CR2)) ;
 1399              		.loc 1 1315 0 discriminator 1
 1400 000e 01F0E061 		and	r1, r1, #117440512	@ tmp152, I2C_IT,
 1401              	.LVL154:
 1402              		.loc 1 1321 0 discriminator 1
 1403 0012 13EA1141 		ands	r1, r3, r1, lsr #16	@,, D.6661, tmp152,
 1404              	.LVL155:
1322:cmsis/device/stm32f4xx_i2c.c ****   {
1323:cmsis/device/stm32f4xx_i2c.c ****     /* I2C_IT is set */
1324:cmsis/device/stm32f4xx_i2c.c ****     bitstatus = SET;
 1405              		.loc 1 1324 0 discriminator 1
 1406 0016 0CBF     		ite	eq	@
 1407 0018 0020     		moveq	r0, #0	@, bitstatus
 1408 001a 0120     		movne	r0, #1	@, bitstatus
 1409              	.L106:
 1410              	.LVL156:
1325:cmsis/device/stm32f4xx_i2c.c ****   }
1326:cmsis/device/stm32f4xx_i2c.c ****   else
1327:cmsis/device/stm32f4xx_i2c.c ****   {
1328:cmsis/device/stm32f4xx_i2c.c ****     /* I2C_IT is reset */
1329:cmsis/device/stm32f4xx_i2c.c ****     bitstatus = RESET;
1330:cmsis/device/stm32f4xx_i2c.c ****   }
1331:cmsis/device/stm32f4xx_i2c.c ****   /* Return the I2C_IT status */
1332:cmsis/device/stm32f4xx_i2c.c ****   return  bitstatus;
1333:cmsis/device/stm32f4xx_i2c.c **** }
 1411              		.loc 1 1333 0
 1412 001c 7047     		bx	lr	@
 1413              		.cfi_endproc
 1414              	.LFE141:
 1415              		.size	I2C_GetITStatus, .-I2C_GetITStatus
 1416 001e 00BF     		.section	.text.I2C_ClearITPendingBit,"ax",%progbits
 1417              		.align	2
 1418              		.global	I2C_ClearITPendingBit
 1419              		.thumb
 1420              		.thumb_func
 1421              		.type	I2C_ClearITPendingBit, %function
 1422              	I2C_ClearITPendingBit:
 1423              	.LFB142:
1334:cmsis/device/stm32f4xx_i2c.c **** 
1335:cmsis/device/stm32f4xx_i2c.c **** /**
1336:cmsis/device/stm32f4xx_i2c.c ****   * @brief  Clears the I2Cx's interrupt pending bits.
1337:cmsis/device/stm32f4xx_i2c.c ****   * @param  I2Cx: where x can be 1, 2 or 3 to select the I2C peripheral.
1338:cmsis/device/stm32f4xx_i2c.c ****   * @param  I2C_IT: specifies the interrupt pending bit to clear. 
ARM GAS  C:\Users\CNous\AppData\Local\Temp\ccLIBeCO.s 			page 51


1339:cmsis/device/stm32f4xx_i2c.c ****   *          This parameter can be any combination of the following values:
1340:cmsis/device/stm32f4xx_i2c.c ****   *            @arg I2C_IT_SMBALERT: SMBus Alert interrupt
1341:cmsis/device/stm32f4xx_i2c.c ****   *            @arg I2C_IT_TIMEOUT: Timeout or Tlow error interrupt
1342:cmsis/device/stm32f4xx_i2c.c ****   *            @arg I2C_IT_PECERR: PEC error in reception  interrupt
1343:cmsis/device/stm32f4xx_i2c.c ****   *            @arg I2C_IT_OVR: Overrun/Underrun interrupt (Slave mode)
1344:cmsis/device/stm32f4xx_i2c.c ****   *            @arg I2C_IT_AF: Acknowledge failure interrupt
1345:cmsis/device/stm32f4xx_i2c.c ****   *            @arg I2C_IT_ARLO: Arbitration lost interrupt (Master mode)
1346:cmsis/device/stm32f4xx_i2c.c ****   *            @arg I2C_IT_BERR: Bus error interrupt
1347:cmsis/device/stm32f4xx_i2c.c ****   * 
1348:cmsis/device/stm32f4xx_i2c.c ****   * @note   STOPF (STOP detection) is cleared by software sequence: a read operation 
1349:cmsis/device/stm32f4xx_i2c.c ****   *          to I2C_SR1 register (I2C_GetITStatus()) followed by a write operation to 
1350:cmsis/device/stm32f4xx_i2c.c ****   *          I2C_CR1 register (I2C_Cmd() to re-enable the I2C peripheral).
1351:cmsis/device/stm32f4xx_i2c.c ****   * @note   ADD10 (10-bit header sent) is cleared by software sequence: a read 
1352:cmsis/device/stm32f4xx_i2c.c ****   *          operation to I2C_SR1 (I2C_GetITStatus()) followed by writing the second 
1353:cmsis/device/stm32f4xx_i2c.c ****   *          byte of the address in I2C_DR register.
1354:cmsis/device/stm32f4xx_i2c.c ****   * @note   BTF (Byte Transfer Finished) is cleared by software sequence: a read 
1355:cmsis/device/stm32f4xx_i2c.c ****   *          operation to I2C_SR1 register (I2C_GetITStatus()) followed by a 
1356:cmsis/device/stm32f4xx_i2c.c ****   *          read/write to I2C_DR register (I2C_SendData()).
1357:cmsis/device/stm32f4xx_i2c.c ****   * @note   ADDR (Address sent) is cleared by software sequence: a read operation to 
1358:cmsis/device/stm32f4xx_i2c.c ****   *          I2C_SR1 register (I2C_GetITStatus()) followed by a read operation to 
1359:cmsis/device/stm32f4xx_i2c.c ****   *          I2C_SR2 register ((void)(I2Cx->SR2)).
1360:cmsis/device/stm32f4xx_i2c.c ****   * @note   SB (Start Bit) is cleared by software sequence: a read operation to 
1361:cmsis/device/stm32f4xx_i2c.c ****   *          I2C_SR1 register (I2C_GetITStatus()) followed by a write operation to 
1362:cmsis/device/stm32f4xx_i2c.c ****   *          I2C_DR register (I2C_SendData()).
1363:cmsis/device/stm32f4xx_i2c.c ****   * @retval None
1364:cmsis/device/stm32f4xx_i2c.c ****   */
1365:cmsis/device/stm32f4xx_i2c.c **** void I2C_ClearITPendingBit(I2C_TypeDef* I2Cx, uint32_t I2C_IT)
1366:cmsis/device/stm32f4xx_i2c.c **** {
 1424              		.loc 1 1366 0
 1425              		.cfi_startproc
 1426              		@ args = 0, pretend = 0, frame = 0
 1427              		@ frame_needed = 0, uses_anonymous_args = 0
 1428              		@ link register save eliminated.
 1429              	.LVL157:
1367:cmsis/device/stm32f4xx_i2c.c ****   uint32_t flagpos = 0;
1368:cmsis/device/stm32f4xx_i2c.c ****   /* Check the parameters */
1369:cmsis/device/stm32f4xx_i2c.c ****   assert_param(IS_I2C_ALL_PERIPH(I2Cx));
1370:cmsis/device/stm32f4xx_i2c.c ****   assert_param(IS_I2C_CLEAR_IT(I2C_IT));
1371:cmsis/device/stm32f4xx_i2c.c **** 
1372:cmsis/device/stm32f4xx_i2c.c ****   /* Get the I2C flag position */
1373:cmsis/device/stm32f4xx_i2c.c ****   flagpos = I2C_IT & FLAG_MASK;
1374:cmsis/device/stm32f4xx_i2c.c **** 
1375:cmsis/device/stm32f4xx_i2c.c ****   /* Clear the selected I2C flag */
1376:cmsis/device/stm32f4xx_i2c.c ****   I2Cx->SR1 = (uint16_t)~flagpos;
 1430              		.loc 1 1376 0
 1431 0000 C943     		mvns	r1, r1	@ tmp141, I2C_IT
 1432              	.LVL158:
 1433 0002 8AB2     		uxth	r2, r1	@ D.6658, tmp141
 1434 0004 8282     		strh	r2, [r0, #20]	@ movhi	@ D.6658, I2Cx_6(D)->SR1
 1435 0006 7047     		bx	lr	@
 1436              		.cfi_endproc
 1437              	.LFE142:
 1438              		.size	I2C_ClearITPendingBit, .-I2C_ClearITPendingBit
 1439              		.text
 1440              	.Letext0:
 1441              		.file 2 "c:\\gnutoolsarmembedded\\4.7-2012q4\\bin\\../lib/gcc/arm-none-eabi/4.7.3/../../../../arm-
 1442              		.file 3 "cmsis/device/stm32f4xx.h"
ARM GAS  C:\Users\CNous\AppData\Local\Temp\ccLIBeCO.s 			page 52


 1443              		.file 4 "./cmsis/device/stm32f4xx_rcc.h"
 1444              		.file 5 "cmsis/device/stm32f4xx_i2c.h"
 1445              		.file 6 "./cmsis/core/core_cm4.h"