ARM GAS  C:\Users\CNous\AppData\Local\Temp\ccipJbk0.s 			page 1


   1              		.syntax unified
   2              		.cpu cortex-m4
   3              		.eabi_attribute 27, 3	@ Tag_ABI_HardFP_use
   4              		.eabi_attribute 28, 1	@ Tag_ABI_VFP_args
   5              		.fpu fpv4-sp-d16
   6              		.eabi_attribute 20, 1	@ Tag_ABI_FP_denormal
   7              		.eabi_attribute 21, 1	@ Tag_ABI_FP_exceptions
   8              		.eabi_attribute 23, 3	@ Tag_ABI_FP_number_model
   9              		.eabi_attribute 24, 1	@ Tag_ABI_align8_needed
  10              		.eabi_attribute 25, 1	@ Tag_ABI_align8_preserved
  11              		.eabi_attribute 26, 1	@ Tag_ABI_enum_size
  12              		.eabi_attribute 30, 2	@ Tag_ABI_optimization_goals
  13              		.eabi_attribute 34, 1	@ Tag_CPU_unaligned_access
  14              		.eabi_attribute 18, 4	@ Tag_ABI_PCS_wchar_t
  15              		.file	"stm32f4xx_spi.c"
  16              	@ GNU C (GNU Tools for ARM Embedded Processors) version 4.7.3 20121207 (release) [ARM/embedded-4_7-
  17              	@	compiled by GNU C version 4.2.1-sjlj (mingw32-2), GMP version 4.3.2, MPFR version 2.4.2, MPC vers
  18              	@ GGC heuristics: --param ggc-min-expand=100 --param ggc-min-heapsize=131072
  19              	@ options passed:  -I . -I ./inc -I ./cmsis/core -I ./cmsis/device
  20              	@ -imultilib armv7e-m/fpu
  21              	@ -iprefix c:\gnutoolsarmembedded\4.7-2012q4\bin\../lib/gcc/arm-none-eabi/4.7.3/
  22              	@ -isysroot c:\gnutoolsarmembedded\4.7-2012q4\bin\../arm-none-eabi
  23              	@ -MD cmsis/device/stm32f4xx_spi.d -MF .dep/stm32f4xx_spi.o.d -MP
  24              	@ -MQ cmsis/device/stm32f4xx_spi.o -D__USES_INITFINI__ -D __FPU_USED=1
  25              	@ -D __arm__ -D __ASSEMBLY__ -D USE_STDPERIPH_DRIVER -D STM32F4XX
  26              	@ -D HSE_VALUE=8000000 -D __FPU_PRESENT=1 -D STM32F407VG
  27              	@ -D RUN_FROM_FLASH=1 cmsis/device/stm32f4xx_spi.c -mthumb -mcpu=cortex-m4
  28              	@ -mfloat-abi=hard -mfpu=fpv4-sp-d16
  29              	@ -auxbase-strip cmsis/device/stm32f4xx_spi.o -gdwarf-2 -O2 -Wall
  30              	@ -Wstrict-prototypes -fverbose-asm -ffunction-sections -fdata-sections
  31              	@ options enabled:  -fauto-inc-dec -fbranch-count-reg -fcaller-saves
  32              	@ -fcombine-stack-adjustments -fcommon -fcompare-elim -fcprop-registers
  33              	@ -fcrossjumping -fcse-follow-jumps -fdata-sections -fdebug-types-section
  34              	@ -fdefer-pop -fdelete-null-pointer-checks -fdevirtualize -fdwarf2-cfi-asm
  35              	@ -fearly-inlining -feliminate-unused-debug-types -fexpensive-optimizations
  36              	@ -fforward-propagate -ffunction-cse -ffunction-sections -fgcse -fgcse-lm
  37              	@ -fgnu-runtime -fguess-branch-probability -fident -fif-conversion
  38              	@ -fif-conversion2 -findirect-inlining -finline -finline-atomics
  39              	@ -finline-functions-called-once -finline-small-functions -fipa-cp
  40              	@ -fipa-profile -fipa-pure-const -fipa-reference -fipa-sra
  41              	@ -fira-share-save-slots -fira-share-spill-slots -fivopts
  42              	@ -fkeep-static-consts -fleading-underscore -fmath-errno -fmerge-constants
  43              	@ -fmerge-debug-strings -fmove-loop-invariants -fomit-frame-pointer
  44              	@ -foptimize-register-move -foptimize-sibling-calls -foptimize-strlen
  45              	@ -fpartial-inlining -fpeephole -fpeephole2 -fprefetch-loop-arrays
  46              	@ -freg-struct-return -fregmove -frename-registers -freorder-blocks
  47              	@ -freorder-functions -frerun-cse-after-loop
  48              	@ -fsched-critical-path-heuristic -fsched-dep-count-heuristic
  49              	@ -fsched-group-heuristic -fsched-interblock -fsched-last-insn-heuristic
  50              	@ -fsched-rank-heuristic -fsched-spec -fsched-spec-insn-heuristic
  51              	@ -fsched-stalled-insns-dep -fschedule-insns -fschedule-insns2
  52              	@ -fsection-anchors -fshow-column -fshrink-wrap -fsigned-zeros
  53              	@ -fsplit-ivs-in-unroller -fsplit-wide-types -fstrict-aliasing
  54              	@ -fstrict-overflow -fstrict-volatile-bitfields -fthread-jumps
  55              	@ -ftoplevel-reorder -ftrapping-math -ftree-bit-ccp -ftree-builtin-call-dce
  56              	@ -ftree-ccp -ftree-ch -ftree-copy-prop -ftree-copyrename -ftree-cselim
  57              	@ -ftree-dce -ftree-dominator-opts -ftree-dse -ftree-forwprop -ftree-fre
ARM GAS  C:\Users\CNous\AppData\Local\Temp\ccipJbk0.s 			page 2


  58              	@ -ftree-loop-if-convert -ftree-loop-im -ftree-loop-ivcanon
  59              	@ -ftree-loop-optimize -ftree-parallelize-loops= -ftree-phiprop -ftree-pre
  60              	@ -ftree-pta -ftree-reassoc -ftree-scev-cprop -ftree-sink
  61              	@ -ftree-slp-vectorize -ftree-sra -ftree-switch-conversion
  62              	@ -ftree-tail-merge -ftree-ter -ftree-vect-loop-version -ftree-vrp
  63              	@ -funit-at-a-time -funroll-loops -fvar-tracking -fvar-tracking-assignments
  64              	@ -fverbose-asm -fweb -fzero-initialized-in-bss -mlittle-endian
  65              	@ -msched-prolog -mthumb -munaligned-access -mvectorize-with-neon-quad
  66              	
  67              		.text
  68              	.Ltext0:
  69              		.cfi_sections	.debug_frame
  70              		.section	.text.SPI_I2S_DeInit,"ax",%progbits
  71              		.align	2
  72              		.global	SPI_I2S_DeInit
  73              		.thumb
  74              		.thumb_func
  75              		.type	SPI_I2S_DeInit, %function
  76              	SPI_I2S_DeInit:
  77              	.LFB110:
  78              		.file 1 "cmsis/device/stm32f4xx_spi.c"
   1:cmsis/device/stm32f4xx_spi.c **** /**
   2:cmsis/device/stm32f4xx_spi.c ****   ******************************************************************************
   3:cmsis/device/stm32f4xx_spi.c ****   * @file    stm32f4xx_spi.c
   4:cmsis/device/stm32f4xx_spi.c ****   * @author  MCD Application Team
   5:cmsis/device/stm32f4xx_spi.c ****   * @version V1.0.0
   6:cmsis/device/stm32f4xx_spi.c ****   * @date    30-September-2011
   7:cmsis/device/stm32f4xx_spi.c ****   * @brief   This file provides firmware functions to manage the following 
   8:cmsis/device/stm32f4xx_spi.c ****   *          functionalities of the Serial peripheral interface (SPI):
   9:cmsis/device/stm32f4xx_spi.c ****   *           - Initialization and Configuration
  10:cmsis/device/stm32f4xx_spi.c ****   *           - Data transfers functions
  11:cmsis/device/stm32f4xx_spi.c ****   *           - Hardware CRC Calculation
  12:cmsis/device/stm32f4xx_spi.c ****   *           - DMA transfers management
  13:cmsis/device/stm32f4xx_spi.c ****   *           - Interrupts and flags management 
  14:cmsis/device/stm32f4xx_spi.c ****   *           
  15:cmsis/device/stm32f4xx_spi.c ****   *  @verbatim
  16:cmsis/device/stm32f4xx_spi.c ****   *          
  17:cmsis/device/stm32f4xx_spi.c ****   *                    
  18:cmsis/device/stm32f4xx_spi.c ****   *          ===================================================================
  19:cmsis/device/stm32f4xx_spi.c ****   *                                 How to use this driver
  20:cmsis/device/stm32f4xx_spi.c ****   *          ===================================================================
  21:cmsis/device/stm32f4xx_spi.c ****   *    
  22:cmsis/device/stm32f4xx_spi.c ****   *          1. Enable peripheral clock using the following functions 
  23:cmsis/device/stm32f4xx_spi.c ****   *             RCC_APB2PeriphClockCmd(RCC_APB2Periph_SPI1, ENABLE) for SPI1
  24:cmsis/device/stm32f4xx_spi.c ****   *             RCC_APB1PeriphClockCmd(RCC_APB1Periph_SPI2, ENABLE) for SPI2
  25:cmsis/device/stm32f4xx_spi.c ****   *             RCC_APB1PeriphResetCmd(RCC_APB1Periph_SPI3, ENABLE) for SPI3.
  26:cmsis/device/stm32f4xx_spi.c ****   *
  27:cmsis/device/stm32f4xx_spi.c ****   *          2. Enable SCK, MOSI, MISO and NSS GPIO clocks using RCC_AHB1PeriphClockCmd()
  28:cmsis/device/stm32f4xx_spi.c ****   *             function.
  29:cmsis/device/stm32f4xx_spi.c ****   *             In I2S mode, if an external clock source is used then the I2S CKIN pin GPIO
  30:cmsis/device/stm32f4xx_spi.c ****   *             clock should also be enabled.
  31:cmsis/device/stm32f4xx_spi.c ****   *
  32:cmsis/device/stm32f4xx_spi.c ****   *          3. Peripherals alternate function: 
  33:cmsis/device/stm32f4xx_spi.c ****   *                 - Connect the pin to the desired peripherals' Alternate 
  34:cmsis/device/stm32f4xx_spi.c ****   *                   Function (AF) using GPIO_PinAFConfig() function
  35:cmsis/device/stm32f4xx_spi.c ****   *                 - Configure the desired pin in alternate function by:
  36:cmsis/device/stm32f4xx_spi.c ****   *                   GPIO_InitStruct->GPIO_Mode = GPIO_Mode_AF
ARM GAS  C:\Users\CNous\AppData\Local\Temp\ccipJbk0.s 			page 3


  37:cmsis/device/stm32f4xx_spi.c ****   *                 - Select the type, pull-up/pull-down and output speed via 
  38:cmsis/device/stm32f4xx_spi.c ****   *                   GPIO_PuPd, GPIO_OType and GPIO_Speed members
  39:cmsis/device/stm32f4xx_spi.c ****   *                 - Call GPIO_Init() function
  40:cmsis/device/stm32f4xx_spi.c ****   *              In I2S mode, if an external clock source is used then the I2S CKIN pin
  41:cmsis/device/stm32f4xx_spi.c ****   *              should be also configured in Alternate function Push-pull pull-up mode. 
  42:cmsis/device/stm32f4xx_spi.c ****   *        
  43:cmsis/device/stm32f4xx_spi.c ****   *          4. Program the Polarity, Phase, First Data, Baud Rate Prescaler, Slave 
  44:cmsis/device/stm32f4xx_spi.c ****   *             Management, Peripheral Mode and CRC Polynomial values using the SPI_Init()
  45:cmsis/device/stm32f4xx_spi.c ****   *             function.
  46:cmsis/device/stm32f4xx_spi.c ****   *             In I2S mode, program the Mode, Standard, Data Format, MCLK Output, Audio 
  47:cmsis/device/stm32f4xx_spi.c ****   *             frequency and Polarity using I2S_Init() function.
  48:cmsis/device/stm32f4xx_spi.c ****   *             For I2S mode, make sure that either:
  49:cmsis/device/stm32f4xx_spi.c ****   *              - I2S PLL is configured using the functions RCC_I2SCLKConfig(RCC_I2S2CLKSource_PLL
  50:cmsis/device/stm32f4xx_spi.c ****   *                RCC_PLLI2SCmd(ENABLE) and RCC_GetFlagStatus(RCC_FLAG_PLLI2SRDY).
  51:cmsis/device/stm32f4xx_spi.c ****   *              or 
  52:cmsis/device/stm32f4xx_spi.c ****   *              - External clock source is configured using the function 
  53:cmsis/device/stm32f4xx_spi.c ****   *                RCC_I2SCLKConfig(RCC_I2S2CLKSource_Ext) and after setting correctly the define c
  54:cmsis/device/stm32f4xx_spi.c ****   *                I2S_EXTERNAL_CLOCK_VAL in the stm32f4xx_conf.h file. 
  55:cmsis/device/stm32f4xx_spi.c ****   *
  56:cmsis/device/stm32f4xx_spi.c ****   *          5. Enable the NVIC and the corresponding interrupt using the function 
  57:cmsis/device/stm32f4xx_spi.c ****   *             SPI_ITConfig() if you need to use interrupt mode. 
  58:cmsis/device/stm32f4xx_spi.c ****   *
  59:cmsis/device/stm32f4xx_spi.c ****   *          6. When using the DMA mode 
  60:cmsis/device/stm32f4xx_spi.c ****   *                   - Configure the DMA using DMA_Init() function
  61:cmsis/device/stm32f4xx_spi.c ****   *                   - Active the needed channel Request using SPI_I2S_DMACmd() function
  62:cmsis/device/stm32f4xx_spi.c ****   * 
  63:cmsis/device/stm32f4xx_spi.c ****   *          7. Enable the SPI using the SPI_Cmd() function or enable the I2S using
  64:cmsis/device/stm32f4xx_spi.c ****   *             I2S_Cmd().
  65:cmsis/device/stm32f4xx_spi.c ****   * 
  66:cmsis/device/stm32f4xx_spi.c ****   *          8. Enable the DMA using the DMA_Cmd() function when using DMA mode. 
  67:cmsis/device/stm32f4xx_spi.c ****   *
  68:cmsis/device/stm32f4xx_spi.c ****   *          9. Optionally, you can enable/configure the following parameters without
  69:cmsis/device/stm32f4xx_spi.c ****   *             re-initialization (i.e there is no need to call again SPI_Init() function):
  70:cmsis/device/stm32f4xx_spi.c ****   *              - When bidirectional mode (SPI_Direction_1Line_Rx or SPI_Direction_1Line_Tx)
  71:cmsis/device/stm32f4xx_spi.c ****   *                is programmed as Data direction parameter using the SPI_Init() function
  72:cmsis/device/stm32f4xx_spi.c ****   *                it can be possible to switch between SPI_Direction_Tx or SPI_Direction_Rx
  73:cmsis/device/stm32f4xx_spi.c ****   *                using the SPI_BiDirectionalLineConfig() function.
  74:cmsis/device/stm32f4xx_spi.c ****   *              - When SPI_NSS_Soft is selected as Slave Select Management parameter 
  75:cmsis/device/stm32f4xx_spi.c ****   *                using the SPI_Init() function it can be possible to manage the 
  76:cmsis/device/stm32f4xx_spi.c ****   *                NSS internal signal using the SPI_NSSInternalSoftwareConfig() function.
  77:cmsis/device/stm32f4xx_spi.c ****   *              - Reconfigure the data size using the SPI_DataSizeConfig() function  
  78:cmsis/device/stm32f4xx_spi.c ****   *              - Enable or disable the SS output using the SPI_SSOutputCmd() function  
  79:cmsis/device/stm32f4xx_spi.c ****   *          
  80:cmsis/device/stm32f4xx_spi.c ****   *          10. To use the CRC Hardware calculation feature refer to the Peripheral 
  81:cmsis/device/stm32f4xx_spi.c ****   *              CRC hardware Calculation subsection.
  82:cmsis/device/stm32f4xx_spi.c ****   *   
  83:cmsis/device/stm32f4xx_spi.c ****   *
  84:cmsis/device/stm32f4xx_spi.c ****   *          It is possible to use SPI in I2S full duplex mode, in this case, each SPI 
  85:cmsis/device/stm32f4xx_spi.c ****   *          peripheral is able to manage sending and receiving data simultaneously
  86:cmsis/device/stm32f4xx_spi.c ****   *          using two data lines. Each SPI peripheral has an extended block called I2Sxext
  87:cmsis/device/stm32f4xx_spi.c ****   *          (ie. I2S2ext for SPI2 and I2S3ext for SPI3).
  88:cmsis/device/stm32f4xx_spi.c ****   *          The extension block is not a full SPI IP, it is used only as I2S slave to
  89:cmsis/device/stm32f4xx_spi.c ****   *          implement full duplex mode. The extension block uses the same clock sources
  90:cmsis/device/stm32f4xx_spi.c ****   *          as its master.          
  91:cmsis/device/stm32f4xx_spi.c ****   *          To configure I2S full duplex you have to:
  92:cmsis/device/stm32f4xx_spi.c ****   *            
  93:cmsis/device/stm32f4xx_spi.c ****   *          1. Configure SPIx in I2S mode (I2S_Init() function) as described above. 
ARM GAS  C:\Users\CNous\AppData\Local\Temp\ccipJbk0.s 			page 4


  94:cmsis/device/stm32f4xx_spi.c ****   *           
  95:cmsis/device/stm32f4xx_spi.c ****   *          2. Call the I2S_FullDuplexConfig() function using the same strucutre passed to  
  96:cmsis/device/stm32f4xx_spi.c ****   *             I2S_Init() function.
  97:cmsis/device/stm32f4xx_spi.c ****   *            
  98:cmsis/device/stm32f4xx_spi.c ****   *          3. Call I2S_Cmd() for SPIx then for its extended block.
  99:cmsis/device/stm32f4xx_spi.c ****   *          
 100:cmsis/device/stm32f4xx_spi.c ****   *          4. To configure interrupts or DMA requests and to get/clear flag status, 
 101:cmsis/device/stm32f4xx_spi.c ****   *             use I2Sxext instance for the extension block.
 102:cmsis/device/stm32f4xx_spi.c ****   *             
 103:cmsis/device/stm32f4xx_spi.c ****   *          Functions that can be called with I2Sxext instances are:
 104:cmsis/device/stm32f4xx_spi.c ****   *          I2S_Cmd(), I2S_FullDuplexConfig(), SPI_I2S_ReceiveData(), SPI_I2S_SendData(), 
 105:cmsis/device/stm32f4xx_spi.c ****   *          SPI_I2S_DMACmd(), SPI_I2S_ITConfig(), SPI_I2S_GetFlagStatus(), SPI_I2S_ClearFlag(),
 106:cmsis/device/stm32f4xx_spi.c ****   *          SPI_I2S_GetITStatus() and SPI_I2S_ClearITPendingBit().
 107:cmsis/device/stm32f4xx_spi.c ****   *                 
 108:cmsis/device/stm32f4xx_spi.c ****   *          Example: To use SPI3 in Full duplex mode (SPI3 is Master Tx, I2S3ext is Slave Rx):
 109:cmsis/device/stm32f4xx_spi.c ****   *            
 110:cmsis/device/stm32f4xx_spi.c ****   *          RCC_APB1PeriphClockCmd(RCC_APB1Periph_SPI3, ENABLE);   
 111:cmsis/device/stm32f4xx_spi.c ****   *          I2S_StructInit(&I2SInitStruct);
 112:cmsis/device/stm32f4xx_spi.c ****   *          I2SInitStruct.Mode = I2S_Mode_MasterTx;     
 113:cmsis/device/stm32f4xx_spi.c ****   *          I2S_Init(SPI3, &I2SInitStruct);
 114:cmsis/device/stm32f4xx_spi.c ****   *          I2S_FullDuplexConfig(SPI3ext, &I2SInitStruct)
 115:cmsis/device/stm32f4xx_spi.c ****   *          I2S_Cmd(SPI3, ENABLE);
 116:cmsis/device/stm32f4xx_spi.c ****   *          I2S_Cmd(SPI3ext, ENABLE);
 117:cmsis/device/stm32f4xx_spi.c ****   *          ...
 118:cmsis/device/stm32f4xx_spi.c ****   *          while (SPI_I2S_GetFlagStatus(SPI2, SPI_FLAG_TXE) == RESET)
 119:cmsis/device/stm32f4xx_spi.c ****   *          {}
 120:cmsis/device/stm32f4xx_spi.c ****   *          SPI_I2S_SendData(SPI3, txdata[i]);
 121:cmsis/device/stm32f4xx_spi.c ****   *          ...  
 122:cmsis/device/stm32f4xx_spi.c ****   *          while (SPI_I2S_GetFlagStatus(I2S3ext, SPI_FLAG_RXNE) == RESET)
 123:cmsis/device/stm32f4xx_spi.c ****   *          {}
 124:cmsis/device/stm32f4xx_spi.c ****   *          rxdata[i] = SPI_I2S_ReceiveData(I2S3ext);
 125:cmsis/device/stm32f4xx_spi.c ****   *          ...          
 126:cmsis/device/stm32f4xx_spi.c ****   *              
 127:cmsis/device/stm32f4xx_spi.c ****   *     
 128:cmsis/device/stm32f4xx_spi.c ****   * @note    In I2S mode: if an external clock is used as source clock for the I2S,  
 129:cmsis/device/stm32f4xx_spi.c ****   *          then the define I2S_EXTERNAL_CLOCK_VAL in file stm32f4xx_conf.h should 
 130:cmsis/device/stm32f4xx_spi.c ****   *          be enabled and set to the value of the source clock frequency (in Hz).
 131:cmsis/device/stm32f4xx_spi.c ****   * 
 132:cmsis/device/stm32f4xx_spi.c ****   * @note    In SPI mode: To use the SPI TI mode, call the function SPI_TIModeCmd() 
 133:cmsis/device/stm32f4xx_spi.c ****   *          just after calling the function SPI_Init().
 134:cmsis/device/stm32f4xx_spi.c ****   *
 135:cmsis/device/stm32f4xx_spi.c ****   *  @endverbatim  
 136:cmsis/device/stm32f4xx_spi.c ****   *                                  
 137:cmsis/device/stm32f4xx_spi.c ****   ******************************************************************************
 138:cmsis/device/stm32f4xx_spi.c ****   * @attention
 139:cmsis/device/stm32f4xx_spi.c ****   *
 140:cmsis/device/stm32f4xx_spi.c ****   * THE PRESENT FIRMWARE WHICH IS FOR GUIDANCE ONLY AIMS AT PROVIDING CUSTOMERS
 141:cmsis/device/stm32f4xx_spi.c ****   * WITH CODING INFORMATION REGARDING THEIR PRODUCTS IN ORDER FOR THEM TO SAVE
 142:cmsis/device/stm32f4xx_spi.c ****   * TIME. AS A RESULT, STMICROELECTRONICS SHALL NOT BE HELD LIABLE FOR ANY
 143:cmsis/device/stm32f4xx_spi.c ****   * DIRECT, INDIRECT OR CONSEQUENTIAL DAMAGES WITH RESPECT TO ANY CLAIMS ARISING
 144:cmsis/device/stm32f4xx_spi.c ****   * FROM THE CONTENT OF SUCH FIRMWARE AND/OR THE USE MADE BY CUSTOMERS OF THE
 145:cmsis/device/stm32f4xx_spi.c ****   * CODING INFORMATION CONTAINED HEREIN IN CONNECTION WITH THEIR PRODUCTS.
 146:cmsis/device/stm32f4xx_spi.c ****   *
 147:cmsis/device/stm32f4xx_spi.c ****   * <h2><center>&copy; COPYRIGHT 2011 STMicroelectronics</center></h2>
 148:cmsis/device/stm32f4xx_spi.c ****   ******************************************************************************  
 149:cmsis/device/stm32f4xx_spi.c ****   */ 
 150:cmsis/device/stm32f4xx_spi.c **** 
ARM GAS  C:\Users\CNous\AppData\Local\Temp\ccipJbk0.s 			page 5


 151:cmsis/device/stm32f4xx_spi.c **** /* Includes ------------------------------------------------------------------*/
 152:cmsis/device/stm32f4xx_spi.c **** #include "stm32f4xx_spi.h"
 153:cmsis/device/stm32f4xx_spi.c **** #include "stm32f4xx_rcc.h"
 154:cmsis/device/stm32f4xx_spi.c **** 
 155:cmsis/device/stm32f4xx_spi.c **** /** @addtogroup STM32F4xx_StdPeriph_Driver
 156:cmsis/device/stm32f4xx_spi.c ****   * @{
 157:cmsis/device/stm32f4xx_spi.c ****   */
 158:cmsis/device/stm32f4xx_spi.c **** 
 159:cmsis/device/stm32f4xx_spi.c **** /** @defgroup SPI 
 160:cmsis/device/stm32f4xx_spi.c ****   * @brief SPI driver modules
 161:cmsis/device/stm32f4xx_spi.c ****   * @{
 162:cmsis/device/stm32f4xx_spi.c ****   */ 
 163:cmsis/device/stm32f4xx_spi.c **** 
 164:cmsis/device/stm32f4xx_spi.c **** /* Private typedef -----------------------------------------------------------*/
 165:cmsis/device/stm32f4xx_spi.c **** /* Private define ------------------------------------------------------------*/
 166:cmsis/device/stm32f4xx_spi.c **** 
 167:cmsis/device/stm32f4xx_spi.c **** /* SPI registers Masks */
 168:cmsis/device/stm32f4xx_spi.c **** #define CR1_CLEAR_MASK            ((uint16_t)0x3040)
 169:cmsis/device/stm32f4xx_spi.c **** #define I2SCFGR_CLEAR_MASK        ((uint16_t)0xF040)
 170:cmsis/device/stm32f4xx_spi.c **** 
 171:cmsis/device/stm32f4xx_spi.c **** /* RCC PLLs masks */
 172:cmsis/device/stm32f4xx_spi.c **** #define PLLCFGR_PPLR_MASK         ((uint32_t)0x70000000)
 173:cmsis/device/stm32f4xx_spi.c **** #define PLLCFGR_PPLN_MASK         ((uint32_t)0x00007FC0)
 174:cmsis/device/stm32f4xx_spi.c **** 
 175:cmsis/device/stm32f4xx_spi.c **** #define SPI_CR2_FRF               ((uint16_t)0x0010)
 176:cmsis/device/stm32f4xx_spi.c **** #define SPI_SR_TIFRFE             ((uint16_t)0x0100)
 177:cmsis/device/stm32f4xx_spi.c **** 
 178:cmsis/device/stm32f4xx_spi.c **** /* Private macro -------------------------------------------------------------*/
 179:cmsis/device/stm32f4xx_spi.c **** /* Private variables ---------------------------------------------------------*/
 180:cmsis/device/stm32f4xx_spi.c **** /* Private function prototypes -----------------------------------------------*/
 181:cmsis/device/stm32f4xx_spi.c **** /* Private functions ---------------------------------------------------------*/
 182:cmsis/device/stm32f4xx_spi.c **** 
 183:cmsis/device/stm32f4xx_spi.c **** /** @defgroup SPI_Private_Functions
 184:cmsis/device/stm32f4xx_spi.c ****   * @{
 185:cmsis/device/stm32f4xx_spi.c ****   */
 186:cmsis/device/stm32f4xx_spi.c **** 
 187:cmsis/device/stm32f4xx_spi.c **** /** @defgroup SPI_Group1 Initialization and Configuration functions
 188:cmsis/device/stm32f4xx_spi.c ****  *  @brief   Initialization and Configuration functions 
 189:cmsis/device/stm32f4xx_spi.c ****  *
 190:cmsis/device/stm32f4xx_spi.c **** @verbatim   
 191:cmsis/device/stm32f4xx_spi.c ****  ===============================================================================
 192:cmsis/device/stm32f4xx_spi.c ****                   Initialization and Configuration functions
 193:cmsis/device/stm32f4xx_spi.c ****  ===============================================================================  
 194:cmsis/device/stm32f4xx_spi.c **** 
 195:cmsis/device/stm32f4xx_spi.c ****   This section provides a set of functions allowing to initialize the SPI Direction,
 196:cmsis/device/stm32f4xx_spi.c ****   SPI Mode, SPI Data Size, SPI Polarity, SPI Phase, SPI NSS Management, SPI Baud
 197:cmsis/device/stm32f4xx_spi.c ****   Rate Prescaler, SPI First Bit and SPI CRC Polynomial.
 198:cmsis/device/stm32f4xx_spi.c ****   
 199:cmsis/device/stm32f4xx_spi.c ****   The SPI_Init() function follows the SPI configuration procedures for Master mode
 200:cmsis/device/stm32f4xx_spi.c ****   and Slave mode (details for these procedures are available in reference manual
 201:cmsis/device/stm32f4xx_spi.c ****   (RM0090)).
 202:cmsis/device/stm32f4xx_spi.c ****   
 203:cmsis/device/stm32f4xx_spi.c **** @endverbatim
 204:cmsis/device/stm32f4xx_spi.c ****   * @{
 205:cmsis/device/stm32f4xx_spi.c ****   */
 206:cmsis/device/stm32f4xx_spi.c **** 
 207:cmsis/device/stm32f4xx_spi.c **** /**
ARM GAS  C:\Users\CNous\AppData\Local\Temp\ccipJbk0.s 			page 6


 208:cmsis/device/stm32f4xx_spi.c ****   * @brief  Deinitialize the SPIx peripheral registers to their default reset values.
 209:cmsis/device/stm32f4xx_spi.c ****   * @param  SPIx: To select the SPIx/I2Sx peripheral, where x can be: 1, 2 or 3 
 210:cmsis/device/stm32f4xx_spi.c ****   *         in SPI mode or 2 or 3 in I2S mode.   
 211:cmsis/device/stm32f4xx_spi.c ****   *         
 212:cmsis/device/stm32f4xx_spi.c ****   * @note   The extended I2S blocks (ie. I2S2ext and I2S3ext blocks) are deinitialized
 213:cmsis/device/stm32f4xx_spi.c ****   *         when the relative I2S peripheral is deinitialized (the extended block's clock
 214:cmsis/device/stm32f4xx_spi.c ****   *         is managed by the I2S peripheral clock).
 215:cmsis/device/stm32f4xx_spi.c ****   *             
 216:cmsis/device/stm32f4xx_spi.c ****   * @retval None
 217:cmsis/device/stm32f4xx_spi.c ****   */
 218:cmsis/device/stm32f4xx_spi.c **** void SPI_I2S_DeInit(SPI_TypeDef* SPIx)
 219:cmsis/device/stm32f4xx_spi.c **** {
  79              		.loc 1 219 0
  80              		.cfi_startproc
  81              		@ args = 0, pretend = 0, frame = 0
  82              		@ frame_needed = 0, uses_anonymous_args = 0
  83              	.LVL0:
  84 0000 08B5     		push	{r3, lr}	@
  85              	.LCFI0:
  86              		.cfi_def_cfa_offset 8
  87              		.cfi_offset 3, -8
  88              		.cfi_offset 14, -4
 220:cmsis/device/stm32f4xx_spi.c ****   /* Check the parameters */
 221:cmsis/device/stm32f4xx_spi.c ****   assert_param(IS_SPI_ALL_PERIPH(SPIx));
 222:cmsis/device/stm32f4xx_spi.c **** 
 223:cmsis/device/stm32f4xx_spi.c ****   if (SPIx == SPI1)
  89              		.loc 1 223 0
  90 0002 4FF44053 		mov	r3, #12288	@ tmp135,
  91 0006 C4F20103 		movt	r3, 16385	@ tmp135,
  92 000a 9842     		cmp	r0, r3	@ SPIx, tmp135
  93 000c 18D0     		beq	.L6	@,
 224:cmsis/device/stm32f4xx_spi.c ****   {
 225:cmsis/device/stm32f4xx_spi.c ****     /* Enable SPI1 reset state */
 226:cmsis/device/stm32f4xx_spi.c ****     RCC_APB2PeriphResetCmd(RCC_APB2Periph_SPI1, ENABLE);
 227:cmsis/device/stm32f4xx_spi.c ****     /* Release SPI1 from reset state */
 228:cmsis/device/stm32f4xx_spi.c ****     RCC_APB2PeriphResetCmd(RCC_APB2Periph_SPI1, DISABLE);
 229:cmsis/device/stm32f4xx_spi.c ****   }
 230:cmsis/device/stm32f4xx_spi.c ****   else if (SPIx == SPI2)
  94              		.loc 1 230 0
  95 000e 4FF46051 		mov	r1, #14336	@ tmp136,
  96 0012 C4F20001 		movt	r1, 16384	@ tmp136,
  97 0016 8842     		cmp	r0, r1	@ SPIx, tmp136
  98 0018 1ED0     		beq	.L7	@,
 231:cmsis/device/stm32f4xx_spi.c ****   {
 232:cmsis/device/stm32f4xx_spi.c ****     /* Enable SPI2 reset state */
 233:cmsis/device/stm32f4xx_spi.c ****     RCC_APB1PeriphResetCmd(RCC_APB1Periph_SPI2, ENABLE);
 234:cmsis/device/stm32f4xx_spi.c ****     /* Release SPI2 from reset state */
 235:cmsis/device/stm32f4xx_spi.c ****     RCC_APB1PeriphResetCmd(RCC_APB1Periph_SPI2, DISABLE);
 236:cmsis/device/stm32f4xx_spi.c ****     }
 237:cmsis/device/stm32f4xx_spi.c ****   else
 238:cmsis/device/stm32f4xx_spi.c ****   {
 239:cmsis/device/stm32f4xx_spi.c ****     if (SPIx == SPI3)
  99              		.loc 1 239 0
 100 001a 4FF47052 		mov	r2, #15360	@ tmp137,
 101 001e C4F20002 		movt	r2, 16384	@ tmp137,
 102 0022 9042     		cmp	r0, r2	@ SPIx, tmp137
 103 0024 00D0     		beq	.L8	@,
ARM GAS  C:\Users\CNous\AppData\Local\Temp\ccipJbk0.s 			page 7


 104 0026 08BD     		pop	{r3, pc}	@
 105              	.L8:
 240:cmsis/device/stm32f4xx_spi.c ****     {
 241:cmsis/device/stm32f4xx_spi.c ****       /* Enable SPI3 reset state */
 242:cmsis/device/stm32f4xx_spi.c ****       RCC_APB1PeriphResetCmd(RCC_APB1Periph_SPI3, ENABLE);
 106              		.loc 1 242 0
 107 0028 0121     		movs	r1, #1	@,
 108 002a 4FF40040 		mov	r0, #32768	@,
 109              	.LVL1:
 110 002e FFF7FEFF 		bl	RCC_APB1PeriphResetCmd	@
 111              	.LVL2:
 243:cmsis/device/stm32f4xx_spi.c ****       /* Release SPI3 from reset state */
 244:cmsis/device/stm32f4xx_spi.c ****       RCC_APB1PeriphResetCmd(RCC_APB1Periph_SPI3, DISABLE);
 112              		.loc 1 244 0
 113 0032 4FF40040 		mov	r0, #32768	@,
 114 0036 0021     		movs	r1, #0	@,
 245:cmsis/device/stm32f4xx_spi.c ****     }
 246:cmsis/device/stm32f4xx_spi.c ****   }
 247:cmsis/device/stm32f4xx_spi.c **** }
 115              		.loc 1 247 0
 116 0038 BDE80840 		pop	{r3, lr}	@
 244:cmsis/device/stm32f4xx_spi.c ****       RCC_APB1PeriphResetCmd(RCC_APB1Periph_SPI3, DISABLE);
 117              		.loc 1 244 0
 118 003c FFF7FEBF 		b	RCC_APB1PeriphResetCmd	@
 119              	.LVL3:
 120              	.L6:
 226:cmsis/device/stm32f4xx_spi.c ****     RCC_APB2PeriphResetCmd(RCC_APB2Periph_SPI1, ENABLE);
 121              		.loc 1 226 0
 122 0040 0121     		movs	r1, #1	@,
 123 0042 4FF48050 		mov	r0, #4096	@,
 124              	.LVL4:
 125 0046 FFF7FEFF 		bl	RCC_APB2PeriphResetCmd	@
 126              	.LVL5:
 228:cmsis/device/stm32f4xx_spi.c ****     RCC_APB2PeriphResetCmd(RCC_APB2Periph_SPI1, DISABLE);
 127              		.loc 1 228 0
 128 004a 4FF48050 		mov	r0, #4096	@,
 129 004e 0021     		movs	r1, #0	@,
 130              		.loc 1 247 0
 131 0050 BDE80840 		pop	{r3, lr}	@
 228:cmsis/device/stm32f4xx_spi.c ****     RCC_APB2PeriphResetCmd(RCC_APB2Periph_SPI1, DISABLE);
 132              		.loc 1 228 0
 133 0054 FFF7FEBF 		b	RCC_APB2PeriphResetCmd	@
 134              	.LVL6:
 135              	.L7:
 233:cmsis/device/stm32f4xx_spi.c ****     RCC_APB1PeriphResetCmd(RCC_APB1Periph_SPI2, ENABLE);
 136              		.loc 1 233 0
 137 0058 0121     		movs	r1, #1	@,
 138 005a 4FF48040 		mov	r0, #16384	@,
 139              	.LVL7:
 140 005e FFF7FEFF 		bl	RCC_APB1PeriphResetCmd	@
 141              	.LVL8:
 235:cmsis/device/stm32f4xx_spi.c ****     RCC_APB1PeriphResetCmd(RCC_APB1Periph_SPI2, DISABLE);
 142              		.loc 1 235 0
 143 0062 4FF48040 		mov	r0, #16384	@,
 144 0066 0021     		movs	r1, #0	@,
 145              		.loc 1 247 0
 146 0068 BDE80840 		pop	{r3, lr}	@
ARM GAS  C:\Users\CNous\AppData\Local\Temp\ccipJbk0.s 			page 8


 235:cmsis/device/stm32f4xx_spi.c ****     RCC_APB1PeriphResetCmd(RCC_APB1Periph_SPI2, DISABLE);
 147              		.loc 1 235 0
 148 006c FFF7FEBF 		b	RCC_APB1PeriphResetCmd	@
 149              	.LVL9:
 150              		.cfi_endproc
 151              	.LFE110:
 152              		.size	SPI_I2S_DeInit, .-SPI_I2S_DeInit
 153              		.section	.text.SPI_Init,"ax",%progbits
 154              		.align	2
 155              		.global	SPI_Init
 156              		.thumb
 157              		.thumb_func
 158              		.type	SPI_Init, %function
 159              	SPI_Init:
 160              	.LFB111:
 248:cmsis/device/stm32f4xx_spi.c **** 
 249:cmsis/device/stm32f4xx_spi.c **** /**
 250:cmsis/device/stm32f4xx_spi.c ****   * @brief  Initializes the SPIx peripheral according to the specified 
 251:cmsis/device/stm32f4xx_spi.c ****   *         parameters in the SPI_InitStruct.
 252:cmsis/device/stm32f4xx_spi.c ****   * @param  SPIx: where x can be 1, 2 or 3 to select the SPI peripheral.
 253:cmsis/device/stm32f4xx_spi.c ****   * @param  SPI_InitStruct: pointer to a SPI_InitTypeDef structure that
 254:cmsis/device/stm32f4xx_spi.c ****   *         contains the configuration information for the specified SPI peripheral.
 255:cmsis/device/stm32f4xx_spi.c ****   * @retval None
 256:cmsis/device/stm32f4xx_spi.c ****   */
 257:cmsis/device/stm32f4xx_spi.c **** void SPI_Init(SPI_TypeDef* SPIx, SPI_InitTypeDef* SPI_InitStruct)
 258:cmsis/device/stm32f4xx_spi.c **** {
 161              		.loc 1 258 0
 162              		.cfi_startproc
 163              		@ args = 0, pretend = 0, frame = 0
 164              		@ frame_needed = 0, uses_anonymous_args = 0
 165              		@ link register save eliminated.
 166              	.LVL10:
 167 0000 2DE9F007 		push	{r4, r5, r6, r7, r8, r9, sl}	@
 168              	.LCFI1:
 169              		.cfi_def_cfa_offset 28
 170              		.cfi_offset 4, -28
 171              		.cfi_offset 5, -24
 172              		.cfi_offset 6, -20
 173              		.cfi_offset 7, -16
 174              		.cfi_offset 8, -12
 175              		.cfi_offset 9, -8
 176              		.cfi_offset 10, -4
 259:cmsis/device/stm32f4xx_spi.c ****   uint16_t tmpreg = 0;
 260:cmsis/device/stm32f4xx_spi.c ****   
 261:cmsis/device/stm32f4xx_spi.c ****   /* check the parameters */
 262:cmsis/device/stm32f4xx_spi.c ****   assert_param(IS_SPI_ALL_PERIPH(SPIx));
 263:cmsis/device/stm32f4xx_spi.c ****   
 264:cmsis/device/stm32f4xx_spi.c ****   /* Check the SPI parameters */
 265:cmsis/device/stm32f4xx_spi.c ****   assert_param(IS_SPI_DIRECTION_MODE(SPI_InitStruct->SPI_Direction));
 266:cmsis/device/stm32f4xx_spi.c ****   assert_param(IS_SPI_MODE(SPI_InitStruct->SPI_Mode));
 267:cmsis/device/stm32f4xx_spi.c ****   assert_param(IS_SPI_DATASIZE(SPI_InitStruct->SPI_DataSize));
 268:cmsis/device/stm32f4xx_spi.c ****   assert_param(IS_SPI_CPOL(SPI_InitStruct->SPI_CPOL));
 269:cmsis/device/stm32f4xx_spi.c ****   assert_param(IS_SPI_CPHA(SPI_InitStruct->SPI_CPHA));
 270:cmsis/device/stm32f4xx_spi.c ****   assert_param(IS_SPI_NSS(SPI_InitStruct->SPI_NSS));
 271:cmsis/device/stm32f4xx_spi.c ****   assert_param(IS_SPI_BAUDRATE_PRESCALER(SPI_InitStruct->SPI_BaudRatePrescaler));
 272:cmsis/device/stm32f4xx_spi.c ****   assert_param(IS_SPI_FIRST_BIT(SPI_InitStruct->SPI_FirstBit));
 273:cmsis/device/stm32f4xx_spi.c ****   assert_param(IS_SPI_CRC_POLYNOMIAL(SPI_InitStruct->SPI_CRCPolynomial));
ARM GAS  C:\Users\CNous\AppData\Local\Temp\ccipJbk0.s 			page 9


 274:cmsis/device/stm32f4xx_spi.c **** 
 275:cmsis/device/stm32f4xx_spi.c **** /*---------------------------- SPIx CR1 Configuration ------------------------*/
 276:cmsis/device/stm32f4xx_spi.c ****   /* Get the SPIx CR1 value */
 277:cmsis/device/stm32f4xx_spi.c ****   tmpreg = SPIx->CR1;
 278:cmsis/device/stm32f4xx_spi.c ****   /* Clear BIDIMode, BIDIOE, RxONLY, SSM, SSI, LSBFirst, BR, MSTR, CPOL and CPHA bits */
 279:cmsis/device/stm32f4xx_spi.c ****   tmpreg &= CR1_CLEAR_MASK;
 280:cmsis/device/stm32f4xx_spi.c ****   /* Configure SPIx: direction, NSS management, first transmitted bit, BaudRate prescaler
 281:cmsis/device/stm32f4xx_spi.c ****      master/salve mode, CPOL and CPHA */
 282:cmsis/device/stm32f4xx_spi.c ****   /* Set BIDImode, BIDIOE and RxONLY bits according to SPI_Direction value */
 283:cmsis/device/stm32f4xx_spi.c ****   /* Set SSM, SSI and MSTR bits according to SPI_Mode and SPI_NSS values */
 284:cmsis/device/stm32f4xx_spi.c ****   /* Set LSBFirst bit according to SPI_FirstBit value */
 285:cmsis/device/stm32f4xx_spi.c ****   /* Set BR bits according to SPI_BaudRatePrescaler value */
 286:cmsis/device/stm32f4xx_spi.c ****   /* Set CPOL bit according to SPI_CPOL value */
 287:cmsis/device/stm32f4xx_spi.c ****   /* Set CPHA bit according to SPI_CPHA value */
 288:cmsis/device/stm32f4xx_spi.c ****   tmpreg |= (uint16_t)((uint32_t)SPI_InitStruct->SPI_Direction | SPI_InitStruct->SPI_Mode |
 177              		.loc 1 288 0
 178 0004 0B88     		ldrh	r3, [r1, #0]	@, SPI_InitStruct_5(D)->SPI_Direction
 179 0006 B1F802A0 		ldrh	sl, [r1, #2]	@, SPI_InitStruct_5(D)->SPI_Mode
 180 000a B1F80490 		ldrh	r9, [r1, #4]	@, SPI_InitStruct_5(D)->SPI_DataSize
 181 000e B1F80680 		ldrh	r8, [r1, #6]	@, SPI_InitStruct_5(D)->SPI_CPOL
 182 0012 B1F808C0 		ldrh	ip, [r1, #8]	@, SPI_InitStruct_5(D)->SPI_CPHA
 183 0016 4F89     		ldrh	r7, [r1, #10]	@, SPI_InitStruct_5(D)->SPI_NSS
 184 0018 8E89     		ldrh	r6, [r1, #12]	@, SPI_InitStruct_5(D)->SPI_BaudRatePrescaler
 185 001a CC89     		ldrh	r4, [r1, #14]	@, SPI_InitStruct_5(D)->SPI_FirstBit
 289:cmsis/device/stm32f4xx_spi.c ****                   SPI_InitStruct->SPI_DataSize | SPI_InitStruct->SPI_CPOL |  
 290:cmsis/device/stm32f4xx_spi.c ****                   SPI_InitStruct->SPI_CPHA | SPI_InitStruct->SPI_NSS |  
 291:cmsis/device/stm32f4xx_spi.c ****                   SPI_InitStruct->SPI_BaudRatePrescaler | SPI_InitStruct->SPI_FirstBit);
 292:cmsis/device/stm32f4xx_spi.c ****   /* Write to SPIx CR1 */
 293:cmsis/device/stm32f4xx_spi.c ****   SPIx->CR1 = tmpreg;
 294:cmsis/device/stm32f4xx_spi.c **** 
 295:cmsis/device/stm32f4xx_spi.c ****   /* Activate the SPI mode (Reset I2SMOD bit in I2SCFGR register) */
 296:cmsis/device/stm32f4xx_spi.c ****   SPIx->I2SCFGR &= (uint16_t)~((uint16_t)SPI_I2SCFGR_I2SMOD);
 297:cmsis/device/stm32f4xx_spi.c **** /*---------------------------- SPIx CRCPOLY Configuration --------------------*/
 298:cmsis/device/stm32f4xx_spi.c ****   /* Write to SPIx CRCPOLY */
 299:cmsis/device/stm32f4xx_spi.c ****   SPIx->CRCPR = SPI_InitStruct->SPI_CRCPolynomial;
 186              		.loc 1 299 0
 187 001c 0A8A     		ldrh	r2, [r1, #16]	@ D.6827, SPI_InitStruct_5(D)->SPI_CRCPolynomial
 277:cmsis/device/stm32f4xx_spi.c ****   tmpreg = SPIx->CR1;
 188              		.loc 1 277 0
 189 001e 0588     		ldrh	r5, [r0, #0]	@, SPIx_2(D)->CR1
 190              	.LVL11:
 288:cmsis/device/stm32f4xx_spi.c ****   tmpreg |= (uint16_t)((uint32_t)SPI_InitStruct->SPI_Direction | SPI_InitStruct->SPI_Mode |
 191              		.loc 1 288 0
 192 0020 4AEA0301 		orr	r1, sl, r3	@ tmp161, SPI_InitStruct_5(D)->SPI_Mode, SPI_InitStruct_5(D)->SPI_Direction
 193              	.LVL12:
 194 0024 41EA0903 		orr	r3, r1, r9	@ tmp164, tmp161, SPI_InitStruct_5(D)->SPI_DataSize
 195 0028 43EA0801 		orr	r1, r3, r8	@ tmp167, tmp164, SPI_InitStruct_5(D)->SPI_CPOL
 196 002c 41EA0C03 		orr	r3, r1, ip	@ tmp170, tmp167, SPI_InitStruct_5(D)->SPI_CPHA
 197 0030 3B43     		orrs	r3, r3, r7	@, tmp173, tmp170, SPI_InitStruct_5(D)->SPI_NSS
 198 0032 3343     		orrs	r3, r3, r6	@, tmp176, tmp173, SPI_InitStruct_5(D)->SPI_BaudRatePrescaler
 279:cmsis/device/stm32f4xx_spi.c ****   tmpreg &= CR1_CLEAR_MASK;
 199              		.loc 1 279 0
 200 0034 05F44151 		and	r1, r5, #12352	@ tmpreg, SPIx_2(D)->CR1,
 201              	.LVL13:
 288:cmsis/device/stm32f4xx_spi.c ****   tmpreg |= (uint16_t)((uint32_t)SPI_InitStruct->SPI_Direction | SPI_InitStruct->SPI_Mode |
 202              		.loc 1 288 0
 203 0038 2343     		orrs	r3, r3, r4	@, tmp179, tmp176, SPI_InitStruct_5(D)->SPI_FirstBit
ARM GAS  C:\Users\CNous\AppData\Local\Temp\ccipJbk0.s 			page 10


 204 003a 0B43     		orrs	r3, r3, r1	@, tmp181, tmp179, tmpreg
 205 003c 99B2     		uxth	r1, r3	@ tmpreg, tmp181
 206              	.LVL14:
 293:cmsis/device/stm32f4xx_spi.c ****   SPIx->CR1 = tmpreg;
 207              		.loc 1 293 0
 208 003e 0180     		strh	r1, [r0, #0]	@ movhi	@ tmpreg, SPIx_2(D)->CR1
 296:cmsis/device/stm32f4xx_spi.c ****   SPIx->I2SCFGR &= (uint16_t)~((uint16_t)SPI_I2SCFGR_I2SMOD);
 209              		.loc 1 296 0
 210 0040 838B     		ldrh	r3, [r0, #28]	@, SPIx_2(D)->I2SCFGR
 211              	.LVL15:
 212 0042 23F40061 		bic	r1, r3, #2048	@ D.6826, SPIx_2(D)->I2SCFGR,
 213              	.LVL16:
 214 0046 0B04     		lsls	r3, r1, #16	@ D.6826, D.6826,
 215 0048 190C     		lsrs	r1, r3, #16	@ D.6826, D.6826,
 216 004a 8183     		strh	r1, [r0, #28]	@ movhi	@ D.6826, SPIx_2(D)->I2SCFGR
 217              		.loc 1 299 0
 218 004c 0282     		strh	r2, [r0, #16]	@ movhi	@ D.6827, SPIx_2(D)->CRCPR
 300:cmsis/device/stm32f4xx_spi.c **** }
 219              		.loc 1 300 0
 220 004e BDE8F007 		pop	{r4, r5, r6, r7, r8, r9, sl}
 221 0052 7047     		bx	lr
 222              		.cfi_endproc
 223              	.LFE111:
 224              		.size	SPI_Init, .-SPI_Init
 225              		.section	.text.I2S_Init,"ax",%progbits
 226              		.align	2
 227              		.global	I2S_Init
 228              		.thumb
 229              		.thumb_func
 230              		.type	I2S_Init, %function
 231              	I2S_Init:
 232              	.LFB112:
 301:cmsis/device/stm32f4xx_spi.c **** 
 302:cmsis/device/stm32f4xx_spi.c **** /**
 303:cmsis/device/stm32f4xx_spi.c ****   * @brief  Initializes the SPIx peripheral according to the specified 
 304:cmsis/device/stm32f4xx_spi.c ****   *         parameters in the I2S_InitStruct.
 305:cmsis/device/stm32f4xx_spi.c ****   * @param  SPIx: where x can be  2 or 3 to select the SPI peripheral (configured in I2S mode).
 306:cmsis/device/stm32f4xx_spi.c ****   * @param  I2S_InitStruct: pointer to an I2S_InitTypeDef structure that
 307:cmsis/device/stm32f4xx_spi.c ****   *         contains the configuration information for the specified SPI peripheral
 308:cmsis/device/stm32f4xx_spi.c ****   *         configured in I2S mode.
 309:cmsis/device/stm32f4xx_spi.c ****   *           
 310:cmsis/device/stm32f4xx_spi.c ****   * @note   The function calculates the optimal prescaler needed to obtain the most 
 311:cmsis/device/stm32f4xx_spi.c ****   *         accurate audio frequency (depending on the I2S clock source, the PLL values 
 312:cmsis/device/stm32f4xx_spi.c ****   *         and the product configuration). But in case the prescaler value is greater 
 313:cmsis/device/stm32f4xx_spi.c ****   *         than 511, the default value (0x02) will be configured instead.    
 314:cmsis/device/stm32f4xx_spi.c ****   * 
 315:cmsis/device/stm32f4xx_spi.c ****   * @note   if an external clock is used as source clock for the I2S, then the define
 316:cmsis/device/stm32f4xx_spi.c ****   *         I2S_EXTERNAL_CLOCK_VAL in file stm32f4xx_conf.h should be enabled and set
 317:cmsis/device/stm32f4xx_spi.c ****   *         to the value of the the source clock frequency (in Hz).
 318:cmsis/device/stm32f4xx_spi.c ****   *  
 319:cmsis/device/stm32f4xx_spi.c ****   * @retval None
 320:cmsis/device/stm32f4xx_spi.c ****   */
 321:cmsis/device/stm32f4xx_spi.c **** void I2S_Init(SPI_TypeDef* SPIx, I2S_InitTypeDef* I2S_InitStruct)
 322:cmsis/device/stm32f4xx_spi.c **** {
 233              		.loc 1 322 0
 234              		.cfi_startproc
 235              		@ args = 0, pretend = 0, frame = 0
ARM GAS  C:\Users\CNous\AppData\Local\Temp\ccipJbk0.s 			page 11


 236              		@ frame_needed = 0, uses_anonymous_args = 0
 237              		@ link register save eliminated.
 238              	.LVL17:
 323:cmsis/device/stm32f4xx_spi.c ****   uint16_t tmpreg = 0, i2sdiv = 2, i2sodd = 0, packetlength = 1;
 324:cmsis/device/stm32f4xx_spi.c ****   uint32_t tmp = 0, i2sclk = 0;
 325:cmsis/device/stm32f4xx_spi.c **** #ifndef I2S_EXTERNAL_CLOCK_VAL
 326:cmsis/device/stm32f4xx_spi.c ****   uint32_t pllm = 0, plln = 0, pllr = 0;
 327:cmsis/device/stm32f4xx_spi.c **** #endif /* I2S_EXTERNAL_CLOCK_VAL */
 328:cmsis/device/stm32f4xx_spi.c ****   
 329:cmsis/device/stm32f4xx_spi.c ****   /* Check the I2S parameters */
 330:cmsis/device/stm32f4xx_spi.c ****   assert_param(IS_SPI_23_PERIPH(SPIx));
 331:cmsis/device/stm32f4xx_spi.c ****   assert_param(IS_I2S_MODE(I2S_InitStruct->I2S_Mode));
 332:cmsis/device/stm32f4xx_spi.c ****   assert_param(IS_I2S_STANDARD(I2S_InitStruct->I2S_Standard));
 333:cmsis/device/stm32f4xx_spi.c ****   assert_param(IS_I2S_DATA_FORMAT(I2S_InitStruct->I2S_DataFormat));
 334:cmsis/device/stm32f4xx_spi.c ****   assert_param(IS_I2S_MCLK_OUTPUT(I2S_InitStruct->I2S_MCLKOutput));
 335:cmsis/device/stm32f4xx_spi.c ****   assert_param(IS_I2S_AUDIO_FREQ(I2S_InitStruct->I2S_AudioFreq));
 336:cmsis/device/stm32f4xx_spi.c ****   assert_param(IS_I2S_CPOL(I2S_InitStruct->I2S_CPOL));  
 337:cmsis/device/stm32f4xx_spi.c **** 
 338:cmsis/device/stm32f4xx_spi.c **** /*----------------------- SPIx I2SCFGR & I2SPR Configuration -----------------*/
 339:cmsis/device/stm32f4xx_spi.c ****   /* Clear I2SMOD, I2SE, I2SCFG, PCMSYNC, I2SSTD, CKPOL, DATLEN and CHLEN bits */
 340:cmsis/device/stm32f4xx_spi.c ****   SPIx->I2SCFGR &= I2SCFGR_CLEAR_MASK; 
 239              		.loc 1 340 0
 240 0000 838B     		ldrh	r3, [r0, #28]	@, SPIx_16(D)->I2SCFGR
 341:cmsis/device/stm32f4xx_spi.c ****   SPIx->I2SPR = 0x0002;
 342:cmsis/device/stm32f4xx_spi.c ****   
 343:cmsis/device/stm32f4xx_spi.c ****   /* Get the I2SCFGR register value */
 344:cmsis/device/stm32f4xx_spi.c ****   tmpreg = SPIx->I2SCFGR;
 345:cmsis/device/stm32f4xx_spi.c ****   
 346:cmsis/device/stm32f4xx_spi.c ****   /* If the default value has to be written, reinitialize i2sdiv and i2sodd*/
 347:cmsis/device/stm32f4xx_spi.c ****   if(I2S_InitStruct->I2S_AudioFreq == I2S_AudioFreq_Default)
 241              		.loc 1 347 0
 242 0002 8A68     		ldr	r2, [r1, #8]	@ D.6753, I2S_InitStruct_20(D)->I2S_AudioFreq
 322:cmsis/device/stm32f4xx_spi.c **** {
 243              		.loc 1 322 0
 244 0004 2DE9F003 		push	{r4, r5, r6, r7, r8, r9}	@
 245              	.LCFI2:
 246              		.cfi_def_cfa_offset 24
 247              		.cfi_offset 4, -24
 248              		.cfi_offset 5, -20
 249              		.cfi_offset 6, -16
 250              		.cfi_offset 7, -12
 251              		.cfi_offset 8, -8
 252              		.cfi_offset 9, -4
 340:cmsis/device/stm32f4xx_spi.c ****   SPIx->I2SCFGR &= I2SCFGR_CLEAR_MASK; 
 253              		.loc 1 340 0
 254 0008 23F47B64 		bic	r4, r3, #4016	@ D.6752, SPIx_16(D)->I2SCFGR,
 255 000c 24F00F05 		bic	r5, r4, #15	@ D.6752, D.6752,
 256 0010 2E04     		lsls	r6, r5, #16	@ D.6752, D.6752,
 257 0012 370C     		lsrs	r7, r6, #16	@ D.6752, D.6752,
 341:cmsis/device/stm32f4xx_spi.c ****   SPIx->I2SPR = 0x0002;
 258              		.loc 1 341 0
 259 0014 0223     		movs	r3, #2	@ tmp224,
 340:cmsis/device/stm32f4xx_spi.c ****   SPIx->I2SCFGR &= I2SCFGR_CLEAR_MASK; 
 260              		.loc 1 340 0
 261 0016 8783     		strh	r7, [r0, #28]	@ movhi	@ D.6752, SPIx_16(D)->I2SCFGR
 341:cmsis/device/stm32f4xx_spi.c ****   SPIx->I2SPR = 0x0002;
 262              		.loc 1 341 0
ARM GAS  C:\Users\CNous\AppData\Local\Temp\ccipJbk0.s 			page 12


 263 0018 0384     		strh	r3, [r0, #32]	@ movhi	@ tmp224, SPIx_16(D)->I2SPR
 344:cmsis/device/stm32f4xx_spi.c ****   tmpreg = SPIx->I2SCFGR;
 264              		.loc 1 344 0
 265 001a 848B     		ldrh	r4, [r0, #28]	@, SPIx_16(D)->I2SCFGR
 266              		.loc 1 347 0
 267 001c 9A42     		cmp	r2, r3	@ D.6753,
 344:cmsis/device/stm32f4xx_spi.c ****   tmpreg = SPIx->I2SCFGR;
 268              		.loc 1 344 0
 269 001e A6B2     		uxth	r6, r4	@ tmpreg, SPIx_16(D)->I2SCFGR
 270              	.LVL18:
 271              		.loc 1 347 0
 272 0020 5ED0     		beq	.L24	@,
 348:cmsis/device/stm32f4xx_spi.c ****   {
 349:cmsis/device/stm32f4xx_spi.c ****     i2sodd = (uint16_t)0;
 350:cmsis/device/stm32f4xx_spi.c ****     i2sdiv = (uint16_t)2;   
 351:cmsis/device/stm32f4xx_spi.c ****   }
 352:cmsis/device/stm32f4xx_spi.c ****   /* If the requested audio frequency is not the default, compute the prescaler */
 353:cmsis/device/stm32f4xx_spi.c ****   else
 354:cmsis/device/stm32f4xx_spi.c ****   {
 355:cmsis/device/stm32f4xx_spi.c ****     /* Check the frame length (For the Prescaler computing) *******************/
 356:cmsis/device/stm32f4xx_spi.c ****     if(I2S_InitStruct->I2S_DataFormat == I2S_DataFormat_16b)
 357:cmsis/device/stm32f4xx_spi.c ****     {
 358:cmsis/device/stm32f4xx_spi.c ****       /* Packet length is 16 bits */
 359:cmsis/device/stm32f4xx_spi.c ****       packetlength = 1;
 360:cmsis/device/stm32f4xx_spi.c ****     }
 361:cmsis/device/stm32f4xx_spi.c ****     else
 362:cmsis/device/stm32f4xx_spi.c ****     {
 363:cmsis/device/stm32f4xx_spi.c ****       /* Packet length is 32 bits */
 364:cmsis/device/stm32f4xx_spi.c ****       packetlength = 2;
 365:cmsis/device/stm32f4xx_spi.c ****     }
 366:cmsis/device/stm32f4xx_spi.c **** 
 367:cmsis/device/stm32f4xx_spi.c ****     /* Get I2S source Clock frequency  ****************************************/
 368:cmsis/device/stm32f4xx_spi.c ****       
 369:cmsis/device/stm32f4xx_spi.c ****     /* If an external I2S clock has to be used, this define should be set  
 370:cmsis/device/stm32f4xx_spi.c ****        in the project configuration or in the stm32f4xx_conf.h file */
 371:cmsis/device/stm32f4xx_spi.c ****   #ifdef I2S_EXTERNAL_CLOCK_VAL     
 372:cmsis/device/stm32f4xx_spi.c ****     /* Set external clock as I2S clock source */
 373:cmsis/device/stm32f4xx_spi.c ****     if ((RCC->CFGR & RCC_CFGR_I2SSRC) == 0)
 374:cmsis/device/stm32f4xx_spi.c ****     {
 375:cmsis/device/stm32f4xx_spi.c ****       RCC->CFGR |= (uint32_t)RCC_CFGR_I2SSRC;
 376:cmsis/device/stm32f4xx_spi.c ****     }
 377:cmsis/device/stm32f4xx_spi.c ****     
 378:cmsis/device/stm32f4xx_spi.c ****     /* Set the I2S clock to the external clock  value */
 379:cmsis/device/stm32f4xx_spi.c ****     i2sclk = I2S_EXTERNAL_CLOCK_VAL;
 380:cmsis/device/stm32f4xx_spi.c **** 
 381:cmsis/device/stm32f4xx_spi.c ****   #else /* There is no define for External I2S clock source */
 382:cmsis/device/stm32f4xx_spi.c ****     /* Set PLLI2S as I2S clock source */
 383:cmsis/device/stm32f4xx_spi.c ****     if ((RCC->CFGR & RCC_CFGR_I2SSRC) != 0)
 273              		.loc 1 383 0
 274 0022 4FF46057 		mov	r7, #14336	@ tmp227,
 275 0026 C4F20207 		movt	r7, 16386	@ tmp227,
 356:cmsis/device/stm32f4xx_spi.c ****     if(I2S_InitStruct->I2S_DataFormat == I2S_DataFormat_16b)
 276              		.loc 1 356 0
 277 002a 8C88     		ldrh	r4, [r1, #4]	@ prephitmp.53, I2S_InitStruct_20(D)->I2S_DataFormat
 278              	.LVL19:
 279              		.loc 1 383 0
 280 002c BD68     		ldr	r5, [r7, #8]	@ D.6762, MEM[(struct RCC_TypeDef *)1073887232B].CFGR
ARM GAS  C:\Users\CNous\AppData\Local\Temp\ccipJbk0.s 			page 13


 364:cmsis/device/stm32f4xx_spi.c ****       packetlength = 2;
 281              		.loc 1 364 0
 282 002e 002C     		cmp	r4, #0	@ prephitmp.53,
 283 0030 0CBF     		ite	eq	@
 284 0032 4FF0010C 		moveq	ip, #1	@, packetlength,
 285 0036 4FF0020C 		movne	ip, #2	@, packetlength,
 286              	.LVL20:
 287              		.loc 1 383 0
 288 003a 2D02     		lsls	r5, r5, #8	@, D.6762,
 289 003c 4BD4     		bmi	.L25	@,
 290              	.L14:
 384:cmsis/device/stm32f4xx_spi.c ****     {
 385:cmsis/device/stm32f4xx_spi.c ****       RCC->CFGR &= ~(uint32_t)RCC_CFGR_I2SSRC;
 386:cmsis/device/stm32f4xx_spi.c ****     }    
 387:cmsis/device/stm32f4xx_spi.c ****     
 388:cmsis/device/stm32f4xx_spi.c ****     /* Get the PLLI2SN value */
 389:cmsis/device/stm32f4xx_spi.c ****     plln = (uint32_t)(((RCC->PLLI2SCFGR & RCC_PLLI2SCFGR_PLLI2SN) >> 6) & \
 291              		.loc 1 389 0
 292 003e 4FF46053 		mov	r3, #14336	@ tmp231,
 293 0042 C4F20203 		movt	r3, 16386	@ tmp231,
 390:cmsis/device/stm32f4xx_spi.c ****                       (RCC_PLLI2SCFGR_PLLI2SN >> 6));
 391:cmsis/device/stm32f4xx_spi.c ****     
 392:cmsis/device/stm32f4xx_spi.c ****     /* Get the PLLI2SR value */
 393:cmsis/device/stm32f4xx_spi.c ****     pllr = (uint32_t)(((RCC->PLLI2SCFGR & RCC_PLLI2SCFGR_PLLI2SR) >> 28) & \
 394:cmsis/device/stm32f4xx_spi.c ****                       (RCC_PLLI2SCFGR_PLLI2SR >> 28));
 395:cmsis/device/stm32f4xx_spi.c ****     
 396:cmsis/device/stm32f4xx_spi.c ****     /* Get the PLLM value */
 397:cmsis/device/stm32f4xx_spi.c ****     pllm = (uint32_t)(RCC->PLLCFGR & RCC_PLLCFGR_PLLM);      
 398:cmsis/device/stm32f4xx_spi.c ****     
 399:cmsis/device/stm32f4xx_spi.c ****     /* Get the I2S source clock value */
 400:cmsis/device/stm32f4xx_spi.c ****     i2sclk = (uint32_t)(((HSE_VALUE / pllm) * plln) / pllr);
 294              		.loc 1 400 0
 295 0046 4FF49055 		mov	r5, #4608	@ tmp237,
 389:cmsis/device/stm32f4xx_spi.c ****     plln = (uint32_t)(((RCC->PLLI2SCFGR & RCC_PLLI2SCFGR_PLLI2SN) >> 6) & \
 296              		.loc 1 389 0
 297 004a D3F88480 		ldr	r8, [r3, #132]	@ D.6768, MEM[(struct RCC_TypeDef *)1073887232B].PLLI2SCFGR
 298              	.LVL21:
 393:cmsis/device/stm32f4xx_spi.c ****     pllr = (uint32_t)(((RCC->PLLI2SCFGR & RCC_PLLI2SCFGR_PLLI2SR) >> 28) & \
 299              		.loc 1 393 0
 300 004e D3F88470 		ldr	r7, [r3, #132]	@ D.6771, MEM[(struct RCC_TypeDef *)1073887232B].PLLI2SCFGR
 301              	.LVL22:
 397:cmsis/device/stm32f4xx_spi.c ****     pllm = (uint32_t)(RCC->PLLCFGR & RCC_PLLCFGR_PLLM);      
 302              		.loc 1 397 0
 303 0052 D3F80490 		ldr	r9, [r3, #4]	@ D.6774, MEM[(struct RCC_TypeDef *)1073887232B].PLLCFGR
 304              	.LVL23:
 401:cmsis/device/stm32f4xx_spi.c ****   #endif /* I2S_EXTERNAL_CLOCK_VAL */
 402:cmsis/device/stm32f4xx_spi.c ****     
 403:cmsis/device/stm32f4xx_spi.c ****     /* Compute the Real divider depending on the MCLK output state, with a floating point */
 404:cmsis/device/stm32f4xx_spi.c ****     if(I2S_InitStruct->I2S_MCLKOutput == I2S_MCLKOutput_Enable)
 305              		.loc 1 404 0
 306 0056 CB88     		ldrh	r3, [r1, #6]	@ prephitmp.53, I2S_InitStruct_20(D)->I2S_MCLKOutput
 397:cmsis/device/stm32f4xx_spi.c ****     pllm = (uint32_t)(RCC->PLLCFGR & RCC_PLLCFGR_PLLM);      
 307              		.loc 1 397 0
 308 0058 09F03F09 		and	r9, r9, #63	@ tmp234, D.6774,
 309              	.LVL24:
 400:cmsis/device/stm32f4xx_spi.c ****     i2sclk = (uint32_t)(((HSE_VALUE / pllm) * plln) / pllr);
 310              		.loc 1 400 0
ARM GAS  C:\Users\CNous\AppData\Local\Temp\ccipJbk0.s 			page 14


 311 005c C0F27A05 		movt	r5, 122	@ tmp237,
 312 0060 B5FBF9F5 		udiv	r5, r5, r9	@ tmp236, tmp237, tmp234
 389:cmsis/device/stm32f4xx_spi.c ****     plln = (uint32_t)(((RCC->PLLI2SCFGR & RCC_PLLI2SCFGR_PLLI2SN) >> 6) & \
 313              		.loc 1 389 0
 314 0064 C8F38818 		ubfx	r8, r8, #6, #9	@ tmp240, D.6768,,
 315              	.LVL25:
 400:cmsis/device/stm32f4xx_spi.c ****     i2sclk = (uint32_t)(((HSE_VALUE / pllm) * plln) / pllr);
 316              		.loc 1 400 0
 317 0068 08FB05F5 		mul	r5, r8, r5	@ tmp241, tmp240, tmp236
 393:cmsis/device/stm32f4xx_spi.c ****     pllr = (uint32_t)(((RCC->PLLI2SCFGR & RCC_PLLI2SCFGR_PLLI2SR) >> 28) & \
 318              		.loc 1 393 0
 319 006c C7F30277 		ubfx	r7, r7, #28, #3	@ tmp243, D.6771,,
 320              	.LVL26:
 321              		.loc 1 404 0
 322 0070 B3F5007F 		cmp	r3, #512	@ prephitmp.53,
 400:cmsis/device/stm32f4xx_spi.c ****     i2sclk = (uint32_t)(((HSE_VALUE / pllm) * plln) / pllr);
 323              		.loc 1 400 0
 324 0074 B5FBF7F5 		udiv	r5, r5, r7	@ i2sclk, tmp241, tmp243
 325              	.LVL27:
 326              		.loc 1 404 0
 327 0078 35D0     		beq	.L26	@,
 405:cmsis/device/stm32f4xx_spi.c ****     {
 406:cmsis/device/stm32f4xx_spi.c ****       /* MCLK output is enabled */
 407:cmsis/device/stm32f4xx_spi.c ****       tmp = (uint16_t)(((((i2sclk / 256) * 10) / I2S_InitStruct->I2S_AudioFreq)) + 5);
 408:cmsis/device/stm32f4xx_spi.c ****     }
 409:cmsis/device/stm32f4xx_spi.c ****     else
 410:cmsis/device/stm32f4xx_spi.c ****     {
 411:cmsis/device/stm32f4xx_spi.c ****       /* MCLK output is disabled */
 412:cmsis/device/stm32f4xx_spi.c ****       tmp = (uint16_t)(((((i2sclk / (32 * packetlength)) *10 ) / I2S_InitStruct->I2S_AudioFreq)) + 
 328              		.loc 1 412 0
 329 007a 4FEA4C1C 		lsl	ip, ip, #5	@ tmp253, packetlength,
 330              	.LVL28:
 331 007e B5FBFCF7 		udiv	r7, r5, ip	@ tmp255, i2sclk, tmp253
 332              	.L23:
 333 0082 07EB8705 		add	r5, r7, r7, lsl #2	@, tmp258, tmp255, tmp255,
 334              	.LVL29:
 335 0086 6F00     		lsls	r7, r5, #1	@ tmp259, tmp258,
 336 0088 B7FBF2F2 		udiv	r2, r7, r2	@ tmp261, tmp259, D.6753
 337 008c 551D     		adds	r5, r2, #5	@ tmp263, tmp261,
 413:cmsis/device/stm32f4xx_spi.c ****     }
 414:cmsis/device/stm32f4xx_spi.c ****     
 415:cmsis/device/stm32f4xx_spi.c ****     /* Remove the flatting point */
 416:cmsis/device/stm32f4xx_spi.c ****     tmp = tmp / 10;  
 338              		.loc 1 416 0
 339 008e 4CF6CD42 		movw	r2, #52429	@ tmp265,
 412:cmsis/device/stm32f4xx_spi.c ****       tmp = (uint16_t)(((((i2sclk / (32 * packetlength)) *10 ) / I2S_InitStruct->I2S_AudioFreq)) + 
 340              		.loc 1 412 0
 341 0092 AFB2     		uxth	r7, r5	@ tmp, tmp263
 342              	.LVL30:
 343              		.loc 1 416 0
 344 0094 CCF6CC42 		movt	r2, 52428	@ tmp265,
 345 0098 A2FB0775 		umull	r7, r5, r2, r7	@, tmp264, tmp265, tmp
 346              	.LVL31:
 347 009c EA08     		lsrs	r2, r5, #3	@ tmp, tmp264,
 348              	.LVL32:
 417:cmsis/device/stm32f4xx_spi.c ****       
 418:cmsis/device/stm32f4xx_spi.c ****     /* Check the parity of the divider */
ARM GAS  C:\Users\CNous\AppData\Local\Temp\ccipJbk0.s 			page 15


 419:cmsis/device/stm32f4xx_spi.c ****     i2sodd = (uint16_t)(tmp & (uint16_t)0x0001);
 420:cmsis/device/stm32f4xx_spi.c ****    
 421:cmsis/device/stm32f4xx_spi.c ****     /* Compute the i2sdiv prescaler */
 422:cmsis/device/stm32f4xx_spi.c ****     i2sdiv = (uint16_t)((tmp - i2sodd) / 2);
 349              		.loc 1 422 0
 350 009e 5508     		lsrs	r5, r2, #1	@ i2sdiv, tmp,
 351              	.LVL33:
 423:cmsis/device/stm32f4xx_spi.c ****    
 424:cmsis/device/stm32f4xx_spi.c ****     /* Get the Mask for the Odd bit (SPI_I2SPR[8]) register */
 425:cmsis/device/stm32f4xx_spi.c ****     i2sodd = (uint16_t) (i2sodd << 8);
 426:cmsis/device/stm32f4xx_spi.c ****   }
 427:cmsis/device/stm32f4xx_spi.c **** 
 428:cmsis/device/stm32f4xx_spi.c ****   /* Test if the divider is 1 or 0 or greater than 0xFF */
 429:cmsis/device/stm32f4xx_spi.c ****   if ((i2sdiv < 2) || (i2sdiv > 0xFF))
 352              		.loc 1 429 0
 353 00a0 AF1E     		subs	r7, r5, #2	@ tmp269, i2sdiv,
 422:cmsis/device/stm32f4xx_spi.c ****     i2sdiv = (uint16_t)((tmp - i2sodd) / 2);
 354              		.loc 1 422 0
 355 00a2 02F00102 		and	r2, r2, #1	@ D.6841, tmp,
 356              	.LVL34:
 357              		.loc 1 429 0
 358 00a6 FD2F     		cmp	r7, #253	@ tmp269,
 359 00a8 94BF     		ite	ls
 360 00aa 45EA0222 		orrls	r2, r5, r2, lsl #8	@, prephitmp.55, i2sdiv, D.6841,
 361 00ae 0222     		movhi	r2, #2	@ prephitmp.55,
 362              	.LVL35:
 363              	.L17:
 430:cmsis/device/stm32f4xx_spi.c ****   {
 431:cmsis/device/stm32f4xx_spi.c ****     /* Set the default values */
 432:cmsis/device/stm32f4xx_spi.c ****     i2sdiv = 2;
 433:cmsis/device/stm32f4xx_spi.c ****     i2sodd = 0;
 434:cmsis/device/stm32f4xx_spi.c ****   }
 435:cmsis/device/stm32f4xx_spi.c **** 
 436:cmsis/device/stm32f4xx_spi.c ****   /* Write to SPIx I2SPR register the computed value */
 437:cmsis/device/stm32f4xx_spi.c ****   SPIx->I2SPR = (uint16_t)((uint16_t)i2sdiv | (uint16_t)(i2sodd | (uint16_t)I2S_InitStruct->I2S_MCL
 438:cmsis/device/stm32f4xx_spi.c ****  
 439:cmsis/device/stm32f4xx_spi.c ****   /* Configure the I2S with the SPI_InitStruct values */
 440:cmsis/device/stm32f4xx_spi.c ****   tmpreg |= (uint16_t)((uint16_t)SPI_I2SCFGR_I2SMOD | (uint16_t)(I2S_InitStruct->I2S_Mode | \
 441:cmsis/device/stm32f4xx_spi.c ****                   (uint16_t)(I2S_InitStruct->I2S_Standard | (uint16_t)(I2S_InitStruct->I2S_DataForm
 364              		.loc 1 441 0
 365 00b0 B1F800C0 		ldrh	ip, [r1, #0]	@, I2S_InitStruct_20(D)->I2S_Mode
 440:cmsis/device/stm32f4xx_spi.c ****   tmpreg |= (uint16_t)((uint16_t)SPI_I2SCFGR_I2SMOD | (uint16_t)(I2S_InitStruct->I2S_Mode | \
 366              		.loc 1 440 0
 367 00b4 4F88     		ldrh	r7, [r1, #2]	@, I2S_InitStruct_20(D)->I2S_Standard
 368 00b6 8D89     		ldrh	r5, [r1, #12]	@, I2S_InitStruct_20(D)->I2S_CPOL
 369              		.loc 1 441 0
 370 00b8 46EA0C01 		orr	r1, r6, ip	@ tmp276, tmpreg, I2S_InitStruct_20(D)->I2S_Mode
 371              	.LVL36:
 372 00bc 41F40061 		orr	r1, r1, #2048	@ tmp278, tmp276,
 440:cmsis/device/stm32f4xx_spi.c ****   tmpreg |= (uint16_t)((uint16_t)SPI_I2SCFGR_I2SMOD | (uint16_t)(I2S_InitStruct->I2S_Mode | \
 373              		.loc 1 440 0
 374 00c0 3943     		orrs	r1, r1, r7	@, tmp281, tmp278, I2S_InitStruct_20(D)->I2S_Standard
 375 00c2 2943     		orrs	r1, r1, r5	@, tmp284, tmp281, I2S_InitStruct_20(D)->I2S_CPOL
 437:cmsis/device/stm32f4xx_spi.c ****   SPIx->I2SPR = (uint16_t)((uint16_t)i2sdiv | (uint16_t)(i2sodd | (uint16_t)I2S_InitStruct->I2S_MCL
 376              		.loc 1 437 0
 377 00c4 1343     		orrs	r3, r3, r2	@, tmp273, prephitmp.53, prephitmp.55
 440:cmsis/device/stm32f4xx_spi.c ****   tmpreg |= (uint16_t)((uint16_t)SPI_I2SCFGR_I2SMOD | (uint16_t)(I2S_InitStruct->I2S_Mode | \
ARM GAS  C:\Users\CNous\AppData\Local\Temp\ccipJbk0.s 			page 16


 378              		.loc 1 440 0
 379 00c6 8AB2     		uxth	r2, r1	@ D.6809, tmp284
 380 00c8 1443     		orrs	r4, r4, r2	@, tmpreg, prephitmp.53, D.6809
 381              	.LVL37:
 437:cmsis/device/stm32f4xx_spi.c ****   SPIx->I2SPR = (uint16_t)((uint16_t)i2sdiv | (uint16_t)(i2sodd | (uint16_t)I2S_InitStruct->I2S_MCL
 382              		.loc 1 437 0
 383 00ca 99B2     		uxth	r1, r3	@ D.6802, tmp273
 384 00cc 0184     		strh	r1, [r0, #32]	@ movhi	@ D.6802, SPIx_16(D)->I2SPR
 442:cmsis/device/stm32f4xx_spi.c ****                   (uint16_t)I2S_InitStruct->I2S_CPOL))));
 443:cmsis/device/stm32f4xx_spi.c ****  
 444:cmsis/device/stm32f4xx_spi.c ****   /* Write to SPIx I2SCFGR */  
 445:cmsis/device/stm32f4xx_spi.c ****   SPIx->I2SCFGR = tmpreg;
 385              		.loc 1 445 0
 386 00ce 8483     		strh	r4, [r0, #28]	@ movhi	@ tmpreg, SPIx_16(D)->I2SCFGR
 446:cmsis/device/stm32f4xx_spi.c **** }
 387              		.loc 1 446 0
 388 00d0 BDE8F003 		pop	{r4, r5, r6, r7, r8, r9}
 389 00d4 7047     		bx	lr
 390              	.LVL38:
 391              	.L25:
 385:cmsis/device/stm32f4xx_spi.c ****       RCC->CFGR &= ~(uint32_t)RCC_CFGR_I2SSRC;
 392              		.loc 1 385 0
 393 00d6 BB68     		ldr	r3, [r7, #8]	@ D.6766, MEM[(struct RCC_TypeDef *)1073887232B].CFGR
 394 00d8 23F40005 		bic	r5, r3, #8388608	@ D.6767, D.6766,
 395 00dc BD60     		str	r5, [r7, #8]	@ D.6767, MEM[(struct RCC_TypeDef *)1073887232B].CFGR
 396 00de AEE7     		b	.L14	@
 397              	.LVL39:
 398              	.L24:
 399 00e0 8C88     		ldrh	r4, [r1, #4]	@ prephitmp.53, I2S_InitStruct_20(D)->I2S_DataFormat
 400              	.LVL40:
 401 00e2 CB88     		ldrh	r3, [r1, #6]	@ prephitmp.53, I2S_InitStruct_20(D)->I2S_MCLKOutput
 402 00e4 E4E7     		b	.L17	@
 403              	.LVL41:
 404              	.L26:
 407:cmsis/device/stm32f4xx_spi.c ****       tmp = (uint16_t)(((((i2sclk / 256) * 10) / I2S_InitStruct->I2S_AudioFreq)) + 5);
 405              		.loc 1 407 0
 406 00e6 2F0A     		lsrs	r7, r5, #8	@ tmp244, i2sclk,
 407 00e8 CBE7     		b	.L23	@
 408              		.cfi_endproc
 409              	.LFE112:
 410              		.size	I2S_Init, .-I2S_Init
 411 00ea 00BF     		.section	.text.SPI_StructInit,"ax",%progbits
 412              		.align	2
 413              		.global	SPI_StructInit
 414              		.thumb
 415              		.thumb_func
 416              		.type	SPI_StructInit, %function
 417              	SPI_StructInit:
 418              	.LFB113:
 447:cmsis/device/stm32f4xx_spi.c **** 
 448:cmsis/device/stm32f4xx_spi.c **** /**
 449:cmsis/device/stm32f4xx_spi.c ****   * @brief  Fills each SPI_InitStruct member with its default value.
 450:cmsis/device/stm32f4xx_spi.c ****   * @param  SPI_InitStruct: pointer to a SPI_InitTypeDef structure which will be initialized.
 451:cmsis/device/stm32f4xx_spi.c ****   * @retval None
 452:cmsis/device/stm32f4xx_spi.c ****   */
 453:cmsis/device/stm32f4xx_spi.c **** void SPI_StructInit(SPI_InitTypeDef* SPI_InitStruct)
 454:cmsis/device/stm32f4xx_spi.c **** {
ARM GAS  C:\Users\CNous\AppData\Local\Temp\ccipJbk0.s 			page 17


 419              		.loc 1 454 0
 420              		.cfi_startproc
 421              		@ args = 0, pretend = 0, frame = 0
 422              		@ frame_needed = 0, uses_anonymous_args = 0
 423              		@ link register save eliminated.
 424              	.LVL42:
 455:cmsis/device/stm32f4xx_spi.c **** /*--------------- Reset SPI init structure parameters values -----------------*/
 456:cmsis/device/stm32f4xx_spi.c ****   /* Initialize the SPI_Direction member */
 457:cmsis/device/stm32f4xx_spi.c ****   SPI_InitStruct->SPI_Direction = SPI_Direction_2Lines_FullDuplex;
 425              		.loc 1 457 0
 426 0000 0023     		movs	r3, #0	@ tmp136,
 458:cmsis/device/stm32f4xx_spi.c ****   /* initialize the SPI_Mode member */
 459:cmsis/device/stm32f4xx_spi.c ****   SPI_InitStruct->SPI_Mode = SPI_Mode_Slave;
 460:cmsis/device/stm32f4xx_spi.c ****   /* initialize the SPI_DataSize member */
 461:cmsis/device/stm32f4xx_spi.c ****   SPI_InitStruct->SPI_DataSize = SPI_DataSize_8b;
 462:cmsis/device/stm32f4xx_spi.c ****   /* Initialize the SPI_CPOL member */
 463:cmsis/device/stm32f4xx_spi.c ****   SPI_InitStruct->SPI_CPOL = SPI_CPOL_Low;
 464:cmsis/device/stm32f4xx_spi.c ****   /* Initialize the SPI_CPHA member */
 465:cmsis/device/stm32f4xx_spi.c ****   SPI_InitStruct->SPI_CPHA = SPI_CPHA_1Edge;
 466:cmsis/device/stm32f4xx_spi.c ****   /* Initialize the SPI_NSS member */
 467:cmsis/device/stm32f4xx_spi.c ****   SPI_InitStruct->SPI_NSS = SPI_NSS_Hard;
 468:cmsis/device/stm32f4xx_spi.c ****   /* Initialize the SPI_BaudRatePrescaler member */
 469:cmsis/device/stm32f4xx_spi.c ****   SPI_InitStruct->SPI_BaudRatePrescaler = SPI_BaudRatePrescaler_2;
 470:cmsis/device/stm32f4xx_spi.c ****   /* Initialize the SPI_FirstBit member */
 471:cmsis/device/stm32f4xx_spi.c ****   SPI_InitStruct->SPI_FirstBit = SPI_FirstBit_MSB;
 472:cmsis/device/stm32f4xx_spi.c ****   /* Initialize the SPI_CRCPolynomial member */
 473:cmsis/device/stm32f4xx_spi.c ****   SPI_InitStruct->SPI_CRCPolynomial = 7;
 427              		.loc 1 473 0
 428 0002 0721     		movs	r1, #7	@ tmp152,
 457:cmsis/device/stm32f4xx_spi.c ****   SPI_InitStruct->SPI_Direction = SPI_Direction_2Lines_FullDuplex;
 429              		.loc 1 457 0
 430 0004 0380     		strh	r3, [r0, #0]	@ movhi	@ tmp136, SPI_InitStruct_1(D)->SPI_Direction
 459:cmsis/device/stm32f4xx_spi.c ****   SPI_InitStruct->SPI_Mode = SPI_Mode_Slave;
 431              		.loc 1 459 0
 432 0006 4380     		strh	r3, [r0, #2]	@ movhi	@ tmp136, SPI_InitStruct_1(D)->SPI_Mode
 461:cmsis/device/stm32f4xx_spi.c ****   SPI_InitStruct->SPI_DataSize = SPI_DataSize_8b;
 433              		.loc 1 461 0
 434 0008 8380     		strh	r3, [r0, #4]	@ movhi	@ tmp136, SPI_InitStruct_1(D)->SPI_DataSize
 463:cmsis/device/stm32f4xx_spi.c ****   SPI_InitStruct->SPI_CPOL = SPI_CPOL_Low;
 435              		.loc 1 463 0
 436 000a C380     		strh	r3, [r0, #6]	@ movhi	@ tmp136, SPI_InitStruct_1(D)->SPI_CPOL
 465:cmsis/device/stm32f4xx_spi.c ****   SPI_InitStruct->SPI_CPHA = SPI_CPHA_1Edge;
 437              		.loc 1 465 0
 438 000c 0381     		strh	r3, [r0, #8]	@ movhi	@ tmp136, SPI_InitStruct_1(D)->SPI_CPHA
 467:cmsis/device/stm32f4xx_spi.c ****   SPI_InitStruct->SPI_NSS = SPI_NSS_Hard;
 439              		.loc 1 467 0
 440 000e 4381     		strh	r3, [r0, #10]	@ movhi	@ tmp136, SPI_InitStruct_1(D)->SPI_NSS
 469:cmsis/device/stm32f4xx_spi.c ****   SPI_InitStruct->SPI_BaudRatePrescaler = SPI_BaudRatePrescaler_2;
 441              		.loc 1 469 0
 442 0010 8381     		strh	r3, [r0, #12]	@ movhi	@ tmp136, SPI_InitStruct_1(D)->SPI_BaudRatePrescaler
 471:cmsis/device/stm32f4xx_spi.c ****   SPI_InitStruct->SPI_FirstBit = SPI_FirstBit_MSB;
 443              		.loc 1 471 0
 444 0012 C381     		strh	r3, [r0, #14]	@ movhi	@ tmp136, SPI_InitStruct_1(D)->SPI_FirstBit
 445              		.loc 1 473 0
 446 0014 0182     		strh	r1, [r0, #16]	@ movhi	@ tmp152, SPI_InitStruct_1(D)->SPI_CRCPolynomial
 447 0016 7047     		bx	lr	@
 448              		.cfi_endproc
ARM GAS  C:\Users\CNous\AppData\Local\Temp\ccipJbk0.s 			page 18


 449              	.LFE113:
 450              		.size	SPI_StructInit, .-SPI_StructInit
 451              		.section	.text.I2S_StructInit,"ax",%progbits
 452              		.align	2
 453              		.global	I2S_StructInit
 454              		.thumb
 455              		.thumb_func
 456              		.type	I2S_StructInit, %function
 457              	I2S_StructInit:
 458              	.LFB114:
 474:cmsis/device/stm32f4xx_spi.c **** }
 475:cmsis/device/stm32f4xx_spi.c **** 
 476:cmsis/device/stm32f4xx_spi.c **** /**
 477:cmsis/device/stm32f4xx_spi.c ****   * @brief  Fills each I2S_InitStruct member with its default value.
 478:cmsis/device/stm32f4xx_spi.c ****   * @param  I2S_InitStruct: pointer to a I2S_InitTypeDef structure which will be initialized.
 479:cmsis/device/stm32f4xx_spi.c ****   * @retval None
 480:cmsis/device/stm32f4xx_spi.c ****   */
 481:cmsis/device/stm32f4xx_spi.c **** void I2S_StructInit(I2S_InitTypeDef* I2S_InitStruct)
 482:cmsis/device/stm32f4xx_spi.c **** {
 459              		.loc 1 482 0
 460              		.cfi_startproc
 461              		@ args = 0, pretend = 0, frame = 0
 462              		@ frame_needed = 0, uses_anonymous_args = 0
 463              		@ link register save eliminated.
 464              	.LVL43:
 483:cmsis/device/stm32f4xx_spi.c **** /*--------------- Reset I2S init structure parameters values -----------------*/
 484:cmsis/device/stm32f4xx_spi.c ****   /* Initialize the I2S_Mode member */
 485:cmsis/device/stm32f4xx_spi.c ****   I2S_InitStruct->I2S_Mode = I2S_Mode_SlaveTx;
 465              		.loc 1 485 0
 466 0000 0023     		movs	r3, #0	@ tmp136,
 486:cmsis/device/stm32f4xx_spi.c ****   
 487:cmsis/device/stm32f4xx_spi.c ****   /* Initialize the I2S_Standard member */
 488:cmsis/device/stm32f4xx_spi.c ****   I2S_InitStruct->I2S_Standard = I2S_Standard_Phillips;
 489:cmsis/device/stm32f4xx_spi.c ****   
 490:cmsis/device/stm32f4xx_spi.c ****   /* Initialize the I2S_DataFormat member */
 491:cmsis/device/stm32f4xx_spi.c ****   I2S_InitStruct->I2S_DataFormat = I2S_DataFormat_16b;
 492:cmsis/device/stm32f4xx_spi.c ****   
 493:cmsis/device/stm32f4xx_spi.c ****   /* Initialize the I2S_MCLKOutput member */
 494:cmsis/device/stm32f4xx_spi.c ****   I2S_InitStruct->I2S_MCLKOutput = I2S_MCLKOutput_Disable;
 495:cmsis/device/stm32f4xx_spi.c ****   
 496:cmsis/device/stm32f4xx_spi.c ****   /* Initialize the I2S_AudioFreq member */
 497:cmsis/device/stm32f4xx_spi.c ****   I2S_InitStruct->I2S_AudioFreq = I2S_AudioFreq_Default;
 467              		.loc 1 497 0
 468 0002 0222     		movs	r2, #2	@ tmp143,
 485:cmsis/device/stm32f4xx_spi.c ****   I2S_InitStruct->I2S_Mode = I2S_Mode_SlaveTx;
 469              		.loc 1 485 0
 470 0004 0380     		strh	r3, [r0, #0]	@ movhi	@ tmp136, I2S_InitStruct_1(D)->I2S_Mode
 488:cmsis/device/stm32f4xx_spi.c ****   I2S_InitStruct->I2S_Standard = I2S_Standard_Phillips;
 471              		.loc 1 488 0
 472 0006 4380     		strh	r3, [r0, #2]	@ movhi	@ tmp136, I2S_InitStruct_1(D)->I2S_Standard
 491:cmsis/device/stm32f4xx_spi.c ****   I2S_InitStruct->I2S_DataFormat = I2S_DataFormat_16b;
 473              		.loc 1 491 0
 474 0008 8380     		strh	r3, [r0, #4]	@ movhi	@ tmp136, I2S_InitStruct_1(D)->I2S_DataFormat
 494:cmsis/device/stm32f4xx_spi.c ****   I2S_InitStruct->I2S_MCLKOutput = I2S_MCLKOutput_Disable;
 475              		.loc 1 494 0
 476 000a C380     		strh	r3, [r0, #6]	@ movhi	@ tmp136, I2S_InitStruct_1(D)->I2S_MCLKOutput
 477              		.loc 1 497 0
ARM GAS  C:\Users\CNous\AppData\Local\Temp\ccipJbk0.s 			page 19


 478 000c 8260     		str	r2, [r0, #8]	@ tmp143, I2S_InitStruct_1(D)->I2S_AudioFreq
 498:cmsis/device/stm32f4xx_spi.c ****   
 499:cmsis/device/stm32f4xx_spi.c ****   /* Initialize the I2S_CPOL member */
 500:cmsis/device/stm32f4xx_spi.c ****   I2S_InitStruct->I2S_CPOL = I2S_CPOL_Low;
 479              		.loc 1 500 0
 480 000e 8381     		strh	r3, [r0, #12]	@ movhi	@ tmp136, I2S_InitStruct_1(D)->I2S_CPOL
 481 0010 7047     		bx	lr	@
 482              		.cfi_endproc
 483              	.LFE114:
 484              		.size	I2S_StructInit, .-I2S_StructInit
 485 0012 00BF     		.section	.text.SPI_Cmd,"ax",%progbits
 486              		.align	2
 487              		.global	SPI_Cmd
 488              		.thumb
 489              		.thumb_func
 490              		.type	SPI_Cmd, %function
 491              	SPI_Cmd:
 492              	.LFB115:
 501:cmsis/device/stm32f4xx_spi.c **** }
 502:cmsis/device/stm32f4xx_spi.c **** 
 503:cmsis/device/stm32f4xx_spi.c **** /**
 504:cmsis/device/stm32f4xx_spi.c ****   * @brief  Enables or disables the specified SPI peripheral.
 505:cmsis/device/stm32f4xx_spi.c ****   * @param  SPIx: where x can be 1, 2 or 3 to select the SPI peripheral.
 506:cmsis/device/stm32f4xx_spi.c ****   * @param  NewState: new state of the SPIx peripheral. 
 507:cmsis/device/stm32f4xx_spi.c ****   *          This parameter can be: ENABLE or DISABLE.
 508:cmsis/device/stm32f4xx_spi.c ****   * @retval None
 509:cmsis/device/stm32f4xx_spi.c ****   */
 510:cmsis/device/stm32f4xx_spi.c **** void SPI_Cmd(SPI_TypeDef* SPIx, FunctionalState NewState)
 511:cmsis/device/stm32f4xx_spi.c **** {
 493              		.loc 1 511 0
 494              		.cfi_startproc
 495              		@ args = 0, pretend = 0, frame = 0
 496              		@ frame_needed = 0, uses_anonymous_args = 0
 497              		@ link register save eliminated.
 498              	.LVL44:
 512:cmsis/device/stm32f4xx_spi.c ****   /* Check the parameters */
 513:cmsis/device/stm32f4xx_spi.c ****   assert_param(IS_SPI_ALL_PERIPH(SPIx));
 514:cmsis/device/stm32f4xx_spi.c ****   assert_param(IS_FUNCTIONAL_STATE(NewState));
 515:cmsis/device/stm32f4xx_spi.c ****   if (NewState != DISABLE)
 516:cmsis/device/stm32f4xx_spi.c ****   {
 517:cmsis/device/stm32f4xx_spi.c ****     /* Enable the selected SPI peripheral */
 518:cmsis/device/stm32f4xx_spi.c ****     SPIx->CR1 |= SPI_CR1_SPE;
 499              		.loc 1 518 0
 500 0000 0388     		ldrh	r3, [r0, #0]	@,* SPIx
 515:cmsis/device/stm32f4xx_spi.c ****   if (NewState != DISABLE)
 501              		.loc 1 515 0
 502 0002 29B9     		cbnz	r1, .L32	@ NewState,
 519:cmsis/device/stm32f4xx_spi.c ****   }
 520:cmsis/device/stm32f4xx_spi.c ****   else
 521:cmsis/device/stm32f4xx_spi.c ****   {
 522:cmsis/device/stm32f4xx_spi.c ****     /* Disable the selected SPI peripheral */
 523:cmsis/device/stm32f4xx_spi.c ****     SPIx->CR1 &= (uint16_t)~((uint16_t)SPI_CR1_SPE);
 503              		.loc 1 523 0
 504 0004 23F04001 		bic	r1, r3, #64	@ D.6750, SPIx_2(D)->CR1,
 505              	.LVL45:
 506 0008 0A04     		lsls	r2, r1, #16	@ D.6750, D.6750,
 507 000a 130C     		lsrs	r3, r2, #16	@ D.6750, D.6750,
ARM GAS  C:\Users\CNous\AppData\Local\Temp\ccipJbk0.s 			page 20


 508 000c 0380     		strh	r3, [r0, #0]	@ movhi	@ D.6750,* SPIx
 509 000e 7047     		bx	lr	@
 510              	.LVL46:
 511              	.L32:
 518:cmsis/device/stm32f4xx_spi.c ****     SPIx->CR1 |= SPI_CR1_SPE;
 512              		.loc 1 518 0
 513 0010 99B2     		uxth	r1, r3	@ D.6746, SPIx_2(D)->CR1
 514              	.LVL47:
 515 0012 41F04002 		orr	r2, r1, #64	@ D.6747, D.6746,
 516 0016 0280     		strh	r2, [r0, #0]	@ movhi	@ D.6747,* SPIx
 517 0018 7047     		bx	lr	@
 518              		.cfi_endproc
 519              	.LFE115:
 520              		.size	SPI_Cmd, .-SPI_Cmd
 521 001a 00BF     		.section	.text.I2S_Cmd,"ax",%progbits
 522              		.align	2
 523              		.global	I2S_Cmd
 524              		.thumb
 525              		.thumb_func
 526              		.type	I2S_Cmd, %function
 527              	I2S_Cmd:
 528              	.LFB116:
 524:cmsis/device/stm32f4xx_spi.c ****   }
 525:cmsis/device/stm32f4xx_spi.c **** }
 526:cmsis/device/stm32f4xx_spi.c **** 
 527:cmsis/device/stm32f4xx_spi.c **** /**
 528:cmsis/device/stm32f4xx_spi.c ****   * @brief  Enables or disables the specified SPI peripheral (in I2S mode).
 529:cmsis/device/stm32f4xx_spi.c ****   * @param  SPIx: where x can be 2 or 3 to select the SPI peripheral (or I2Sxext 
 530:cmsis/device/stm32f4xx_spi.c ****   *         for full duplex mode).
 531:cmsis/device/stm32f4xx_spi.c ****   * @param  NewState: new state of the SPIx peripheral. 
 532:cmsis/device/stm32f4xx_spi.c ****   *         This parameter can be: ENABLE or DISABLE.
 533:cmsis/device/stm32f4xx_spi.c ****   * @retval None
 534:cmsis/device/stm32f4xx_spi.c ****   */
 535:cmsis/device/stm32f4xx_spi.c **** void I2S_Cmd(SPI_TypeDef* SPIx, FunctionalState NewState)
 536:cmsis/device/stm32f4xx_spi.c **** {
 529              		.loc 1 536 0
 530              		.cfi_startproc
 531              		@ args = 0, pretend = 0, frame = 0
 532              		@ frame_needed = 0, uses_anonymous_args = 0
 533              		@ link register save eliminated.
 534              	.LVL48:
 537:cmsis/device/stm32f4xx_spi.c ****   /* Check the parameters */
 538:cmsis/device/stm32f4xx_spi.c ****   assert_param(IS_SPI_23_PERIPH_EXT(SPIx));
 539:cmsis/device/stm32f4xx_spi.c ****   assert_param(IS_FUNCTIONAL_STATE(NewState));
 540:cmsis/device/stm32f4xx_spi.c ****   
 541:cmsis/device/stm32f4xx_spi.c ****   if (NewState != DISABLE)
 542:cmsis/device/stm32f4xx_spi.c ****   {
 543:cmsis/device/stm32f4xx_spi.c ****     /* Enable the selected SPI peripheral (in I2S mode) */
 544:cmsis/device/stm32f4xx_spi.c ****     SPIx->I2SCFGR |= SPI_I2SCFGR_I2SE;
 535              		.loc 1 544 0
 536 0000 838B     		ldrh	r3, [r0, #28]	@,
 541:cmsis/device/stm32f4xx_spi.c ****   if (NewState != DISABLE)
 537              		.loc 1 541 0
 538 0002 29B9     		cbnz	r1, .L36	@ NewState,
 545:cmsis/device/stm32f4xx_spi.c ****   }
 546:cmsis/device/stm32f4xx_spi.c ****   else
 547:cmsis/device/stm32f4xx_spi.c ****   {
ARM GAS  C:\Users\CNous\AppData\Local\Temp\ccipJbk0.s 			page 21


 548:cmsis/device/stm32f4xx_spi.c ****     /* Disable the selected SPI peripheral in I2S mode */
 549:cmsis/device/stm32f4xx_spi.c ****     SPIx->I2SCFGR &= (uint16_t)~((uint16_t)SPI_I2SCFGR_I2SE);
 539              		.loc 1 549 0
 540 0004 23F48061 		bic	r1, r3, #1024	@ D.6743, SPIx_2(D)->I2SCFGR,
 541              	.LVL49:
 542 0008 0A04     		lsls	r2, r1, #16	@ D.6743, D.6743,
 543 000a 130C     		lsrs	r3, r2, #16	@ D.6743, D.6743,
 544 000c 8383     		strh	r3, [r0, #28]	@ movhi	@ D.6743,
 545 000e 7047     		bx	lr	@
 546              	.LVL50:
 547              	.L36:
 544:cmsis/device/stm32f4xx_spi.c ****     SPIx->I2SCFGR |= SPI_I2SCFGR_I2SE;
 548              		.loc 1 544 0
 549 0010 99B2     		uxth	r1, r3	@ D.6739, SPIx_2(D)->I2SCFGR
 550              	.LVL51:
 551 0012 41F48062 		orr	r2, r1, #1024	@ D.6740, D.6739,
 552 0016 8283     		strh	r2, [r0, #28]	@ movhi	@ D.6740,
 553 0018 7047     		bx	lr	@
 554              		.cfi_endproc
 555              	.LFE116:
 556              		.size	I2S_Cmd, .-I2S_Cmd
 557 001a 00BF     		.section	.text.SPI_DataSizeConfig,"ax",%progbits
 558              		.align	2
 559              		.global	SPI_DataSizeConfig
 560              		.thumb
 561              		.thumb_func
 562              		.type	SPI_DataSizeConfig, %function
 563              	SPI_DataSizeConfig:
 564              	.LFB117:
 550:cmsis/device/stm32f4xx_spi.c ****   }
 551:cmsis/device/stm32f4xx_spi.c **** }
 552:cmsis/device/stm32f4xx_spi.c **** 
 553:cmsis/device/stm32f4xx_spi.c **** /**
 554:cmsis/device/stm32f4xx_spi.c ****   * @brief  Configures the data size for the selected SPI.
 555:cmsis/device/stm32f4xx_spi.c ****   * @param  SPIx: where x can be 1, 2 or 3 to select the SPI peripheral.
 556:cmsis/device/stm32f4xx_spi.c ****   * @param  SPI_DataSize: specifies the SPI data size.
 557:cmsis/device/stm32f4xx_spi.c ****   *          This parameter can be one of the following values:
 558:cmsis/device/stm32f4xx_spi.c ****   *            @arg SPI_DataSize_16b: Set data frame format to 16bit
 559:cmsis/device/stm32f4xx_spi.c ****   *            @arg SPI_DataSize_8b: Set data frame format to 8bit
 560:cmsis/device/stm32f4xx_spi.c ****   * @retval None
 561:cmsis/device/stm32f4xx_spi.c ****   */
 562:cmsis/device/stm32f4xx_spi.c **** void SPI_DataSizeConfig(SPI_TypeDef* SPIx, uint16_t SPI_DataSize)
 563:cmsis/device/stm32f4xx_spi.c **** {
 565              		.loc 1 563 0
 566              		.cfi_startproc
 567              		@ args = 0, pretend = 0, frame = 0
 568              		@ frame_needed = 0, uses_anonymous_args = 0
 569              		@ link register save eliminated.
 570              	.LVL52:
 564:cmsis/device/stm32f4xx_spi.c ****   /* Check the parameters */
 565:cmsis/device/stm32f4xx_spi.c ****   assert_param(IS_SPI_ALL_PERIPH(SPIx));
 566:cmsis/device/stm32f4xx_spi.c ****   assert_param(IS_SPI_DATASIZE(SPI_DataSize));
 567:cmsis/device/stm32f4xx_spi.c ****   /* Clear DFF bit */
 568:cmsis/device/stm32f4xx_spi.c ****   SPIx->CR1 &= (uint16_t)~SPI_DataSize_16b;
 571              		.loc 1 568 0
 572 0000 0388     		ldrh	r3, [r0, #0]	@, SPIx_1(D)->CR1
 573 0002 23F40062 		bic	r2, r3, #2048	@ D.6734, SPIx_1(D)->CR1,
ARM GAS  C:\Users\CNous\AppData\Local\Temp\ccipJbk0.s 			page 22


 574 0006 1304     		lsls	r3, r2, #16	@ D.6734, D.6734,
 575 0008 1A0C     		lsrs	r2, r3, #16	@ D.6734, D.6734,
 576 000a 0280     		strh	r2, [r0, #0]	@ movhi	@ D.6734, SPIx_1(D)->CR1
 569:cmsis/device/stm32f4xx_spi.c ****   /* Set new DFF bit value */
 570:cmsis/device/stm32f4xx_spi.c ****   SPIx->CR1 |= SPI_DataSize;
 577              		.loc 1 570 0
 578 000c 0388     		ldrh	r3, [r0, #0]	@, SPIx_1(D)->CR1
 579 000e 9AB2     		uxth	r2, r3	@ D.6735, SPIx_1(D)->CR1
 580 0010 1143     		orrs	r1, r1, r2	@, D.6736, SPI_DataSize, D.6735
 581              	.LVL53:
 582 0012 0180     		strh	r1, [r0, #0]	@ movhi	@ D.6736, SPIx_1(D)->CR1
 583 0014 7047     		bx	lr	@
 584              		.cfi_endproc
 585              	.LFE117:
 586              		.size	SPI_DataSizeConfig, .-SPI_DataSizeConfig
 587 0016 00BF     		.section	.text.SPI_BiDirectionalLineConfig,"ax",%progbits
 588              		.align	2
 589              		.global	SPI_BiDirectionalLineConfig
 590              		.thumb
 591              		.thumb_func
 592              		.type	SPI_BiDirectionalLineConfig, %function
 593              	SPI_BiDirectionalLineConfig:
 594              	.LFB118:
 571:cmsis/device/stm32f4xx_spi.c **** }
 572:cmsis/device/stm32f4xx_spi.c **** 
 573:cmsis/device/stm32f4xx_spi.c **** /**
 574:cmsis/device/stm32f4xx_spi.c ****   * @brief  Selects the data transfer direction in bidirectional mode for the specified SPI.
 575:cmsis/device/stm32f4xx_spi.c ****   * @param  SPIx: where x can be 1, 2 or 3 to select the SPI peripheral.
 576:cmsis/device/stm32f4xx_spi.c ****   * @param  SPI_Direction: specifies the data transfer direction in bidirectional mode. 
 577:cmsis/device/stm32f4xx_spi.c ****   *          This parameter can be one of the following values:
 578:cmsis/device/stm32f4xx_spi.c ****   *            @arg SPI_Direction_Tx: Selects Tx transmission direction
 579:cmsis/device/stm32f4xx_spi.c ****   *            @arg SPI_Direction_Rx: Selects Rx receive direction
 580:cmsis/device/stm32f4xx_spi.c ****   * @retval None
 581:cmsis/device/stm32f4xx_spi.c ****   */
 582:cmsis/device/stm32f4xx_spi.c **** void SPI_BiDirectionalLineConfig(SPI_TypeDef* SPIx, uint16_t SPI_Direction)
 583:cmsis/device/stm32f4xx_spi.c **** {
 595              		.loc 1 583 0
 596              		.cfi_startproc
 597              		@ args = 0, pretend = 0, frame = 0
 598              		@ frame_needed = 0, uses_anonymous_args = 0
 599              		@ link register save eliminated.
 600              	.LVL54:
 584:cmsis/device/stm32f4xx_spi.c ****   /* Check the parameters */
 585:cmsis/device/stm32f4xx_spi.c ****   assert_param(IS_SPI_ALL_PERIPH(SPIx));
 586:cmsis/device/stm32f4xx_spi.c ****   assert_param(IS_SPI_DIRECTION(SPI_Direction));
 587:cmsis/device/stm32f4xx_spi.c ****   if (SPI_Direction == SPI_Direction_Tx)
 601              		.loc 1 587 0
 602 0000 B1F5804F 		cmp	r1, #16384	@ SPI_Direction,
 588:cmsis/device/stm32f4xx_spi.c ****   {
 589:cmsis/device/stm32f4xx_spi.c ****     /* Set the Tx only mode */
 590:cmsis/device/stm32f4xx_spi.c ****     SPIx->CR1 |= SPI_Direction_Tx;
 603              		.loc 1 590 0
 604 0004 0388     		ldrh	r3, [r0, #0]	@,* SPIx
 587:cmsis/device/stm32f4xx_spi.c ****   if (SPI_Direction == SPI_Direction_Tx)
 605              		.loc 1 587 0
 606 0006 05D0     		beq	.L41	@,
 591:cmsis/device/stm32f4xx_spi.c ****   }
ARM GAS  C:\Users\CNous\AppData\Local\Temp\ccipJbk0.s 			page 23


 592:cmsis/device/stm32f4xx_spi.c ****   else
 593:cmsis/device/stm32f4xx_spi.c ****   {
 594:cmsis/device/stm32f4xx_spi.c ****     /* Set the Rx only mode */
 595:cmsis/device/stm32f4xx_spi.c ****     SPIx->CR1 &= SPI_Direction_Rx;
 607              		.loc 1 595 0
 608 0008 23F48041 		bic	r1, r3, #16384	@ D.6732, SPIx_2(D)->CR1,
 609              	.LVL55:
 610 000c 0A04     		lsls	r2, r1, #16	@ D.6732, D.6732,
 611 000e 130C     		lsrs	r3, r2, #16	@ D.6732, D.6732,
 612 0010 0380     		strh	r3, [r0, #0]	@ movhi	@ D.6732,* SPIx
 613 0012 7047     		bx	lr	@
 614              	.LVL56:
 615              	.L41:
 590:cmsis/device/stm32f4xx_spi.c ****     SPIx->CR1 |= SPI_Direction_Tx;
 616              		.loc 1 590 0
 617 0014 99B2     		uxth	r1, r3	@ D.6728, SPIx_2(D)->CR1
 618              	.LVL57:
 619 0016 41F48042 		orr	r2, r1, #16384	@ D.6729, D.6728,
 620 001a 0280     		strh	r2, [r0, #0]	@ movhi	@ D.6729,* SPIx
 621 001c 7047     		bx	lr	@
 622              		.cfi_endproc
 623              	.LFE118:
 624              		.size	SPI_BiDirectionalLineConfig, .-SPI_BiDirectionalLineConfig
 625 001e 00BF     		.section	.text.SPI_NSSInternalSoftwareConfig,"ax",%progbits
 626              		.align	2
 627              		.global	SPI_NSSInternalSoftwareConfig
 628              		.thumb
 629              		.thumb_func
 630              		.type	SPI_NSSInternalSoftwareConfig, %function
 631              	SPI_NSSInternalSoftwareConfig:
 632              	.LFB119:
 596:cmsis/device/stm32f4xx_spi.c ****   }
 597:cmsis/device/stm32f4xx_spi.c **** }
 598:cmsis/device/stm32f4xx_spi.c **** 
 599:cmsis/device/stm32f4xx_spi.c **** /**
 600:cmsis/device/stm32f4xx_spi.c ****   * @brief  Configures internally by software the NSS pin for the selected SPI.
 601:cmsis/device/stm32f4xx_spi.c ****   * @param  SPIx: where x can be 1, 2 or 3 to select the SPI peripheral.
 602:cmsis/device/stm32f4xx_spi.c ****   * @param  SPI_NSSInternalSoft: specifies the SPI NSS internal state.
 603:cmsis/device/stm32f4xx_spi.c ****   *          This parameter can be one of the following values:
 604:cmsis/device/stm32f4xx_spi.c ****   *            @arg SPI_NSSInternalSoft_Set: Set NSS pin internally
 605:cmsis/device/stm32f4xx_spi.c ****   *            @arg SPI_NSSInternalSoft_Reset: Reset NSS pin internally
 606:cmsis/device/stm32f4xx_spi.c ****   * @retval None
 607:cmsis/device/stm32f4xx_spi.c ****   */
 608:cmsis/device/stm32f4xx_spi.c **** void SPI_NSSInternalSoftwareConfig(SPI_TypeDef* SPIx, uint16_t SPI_NSSInternalSoft)
 609:cmsis/device/stm32f4xx_spi.c **** {
 633              		.loc 1 609 0
 634              		.cfi_startproc
 635              		@ args = 0, pretend = 0, frame = 0
 636              		@ frame_needed = 0, uses_anonymous_args = 0
 637              		@ link register save eliminated.
 638              	.LVL58:
 610:cmsis/device/stm32f4xx_spi.c ****   /* Check the parameters */
 611:cmsis/device/stm32f4xx_spi.c ****   assert_param(IS_SPI_ALL_PERIPH(SPIx));
 612:cmsis/device/stm32f4xx_spi.c ****   assert_param(IS_SPI_NSS_INTERNAL(SPI_NSSInternalSoft));
 613:cmsis/device/stm32f4xx_spi.c ****   if (SPI_NSSInternalSoft != SPI_NSSInternalSoft_Reset)
 639              		.loc 1 613 0
 640 0000 4FF6FF63 		movw	r3, #65279	@ tmp140,
ARM GAS  C:\Users\CNous\AppData\Local\Temp\ccipJbk0.s 			page 24


 641 0004 9942     		cmp	r1, r3	@ SPI_NSSInternalSoft, tmp140
 614:cmsis/device/stm32f4xx_spi.c ****   {
 615:cmsis/device/stm32f4xx_spi.c ****     /* Set NSS pin internally by software */
 616:cmsis/device/stm32f4xx_spi.c ****     SPIx->CR1 |= SPI_NSSInternalSoft_Set;
 642              		.loc 1 616 0
 643 0006 0188     		ldrh	r1, [r0, #0]	@,* SPIx
 644              	.LVL59:
 613:cmsis/device/stm32f4xx_spi.c ****   if (SPI_NSSInternalSoft != SPI_NSSInternalSoft_Reset)
 645              		.loc 1 613 0
 646 0008 04D0     		beq	.L43	@,
 647              		.loc 1 616 0
 648 000a 8AB2     		uxth	r2, r1	@ D.6721, SPIx_2(D)->CR1
 649 000c 42F48073 		orr	r3, r2, #256	@ D.6722, D.6721,
 650 0010 0380     		strh	r3, [r0, #0]	@ movhi	@ D.6722,* SPIx
 651 0012 7047     		bx	lr	@
 652              	.L43:
 617:cmsis/device/stm32f4xx_spi.c ****   }
 618:cmsis/device/stm32f4xx_spi.c ****   else
 619:cmsis/device/stm32f4xx_spi.c ****   {
 620:cmsis/device/stm32f4xx_spi.c ****     /* Reset NSS pin internally by software */
 621:cmsis/device/stm32f4xx_spi.c ****     SPIx->CR1 &= SPI_NSSInternalSoft_Reset;
 653              		.loc 1 621 0
 654 0014 21F48072 		bic	r2, r1, #256	@ D.6725, SPIx_2(D)->CR1,
 655 0018 1304     		lsls	r3, r2, #16	@ D.6725, D.6725,
 656 001a 190C     		lsrs	r1, r3, #16	@ D.6725, D.6725,
 657 001c 0180     		strh	r1, [r0, #0]	@ movhi	@ D.6725,* SPIx
 658 001e 7047     		bx	lr	@
 659              		.cfi_endproc
 660              	.LFE119:
 661              		.size	SPI_NSSInternalSoftwareConfig, .-SPI_NSSInternalSoftwareConfig
 662              		.section	.text.SPI_SSOutputCmd,"ax",%progbits
 663              		.align	2
 664              		.global	SPI_SSOutputCmd
 665              		.thumb
 666              		.thumb_func
 667              		.type	SPI_SSOutputCmd, %function
 668              	SPI_SSOutputCmd:
 669              	.LFB120:
 622:cmsis/device/stm32f4xx_spi.c ****   }
 623:cmsis/device/stm32f4xx_spi.c **** }
 624:cmsis/device/stm32f4xx_spi.c **** 
 625:cmsis/device/stm32f4xx_spi.c **** /**
 626:cmsis/device/stm32f4xx_spi.c ****   * @brief  Enables or disables the SS output for the selected SPI.
 627:cmsis/device/stm32f4xx_spi.c ****   * @param  SPIx: where x can be 1, 2 or 3 to select the SPI peripheral.
 628:cmsis/device/stm32f4xx_spi.c ****   * @param  NewState: new state of the SPIx SS output. 
 629:cmsis/device/stm32f4xx_spi.c ****   *          This parameter can be: ENABLE or DISABLE.
 630:cmsis/device/stm32f4xx_spi.c ****   * @retval None
 631:cmsis/device/stm32f4xx_spi.c ****   */
 632:cmsis/device/stm32f4xx_spi.c **** void SPI_SSOutputCmd(SPI_TypeDef* SPIx, FunctionalState NewState)
 633:cmsis/device/stm32f4xx_spi.c **** {
 670              		.loc 1 633 0
 671              		.cfi_startproc
 672              		@ args = 0, pretend = 0, frame = 0
 673              		@ frame_needed = 0, uses_anonymous_args = 0
 674              		@ link register save eliminated.
 675              	.LVL60:
 634:cmsis/device/stm32f4xx_spi.c ****   /* Check the parameters */
ARM GAS  C:\Users\CNous\AppData\Local\Temp\ccipJbk0.s 			page 25


 635:cmsis/device/stm32f4xx_spi.c ****   assert_param(IS_SPI_ALL_PERIPH(SPIx));
 636:cmsis/device/stm32f4xx_spi.c ****   assert_param(IS_FUNCTIONAL_STATE(NewState));
 637:cmsis/device/stm32f4xx_spi.c ****   if (NewState != DISABLE)
 638:cmsis/device/stm32f4xx_spi.c ****   {
 639:cmsis/device/stm32f4xx_spi.c ****     /* Enable the selected SPI SS output */
 640:cmsis/device/stm32f4xx_spi.c ****     SPIx->CR2 |= (uint16_t)SPI_CR2_SSOE;
 676              		.loc 1 640 0
 677 0000 8388     		ldrh	r3, [r0, #4]	@,
 637:cmsis/device/stm32f4xx_spi.c ****   if (NewState != DISABLE)
 678              		.loc 1 637 0
 679 0002 29B9     		cbnz	r1, .L48	@ NewState,
 641:cmsis/device/stm32f4xx_spi.c ****   }
 642:cmsis/device/stm32f4xx_spi.c ****   else
 643:cmsis/device/stm32f4xx_spi.c ****   {
 644:cmsis/device/stm32f4xx_spi.c ****     /* Disable the selected SPI SS output */
 645:cmsis/device/stm32f4xx_spi.c ****     SPIx->CR2 &= (uint16_t)~((uint16_t)SPI_CR2_SSOE);
 680              		.loc 1 645 0
 681 0004 23F00401 		bic	r1, r3, #4	@ D.6718, SPIx_2(D)->CR2,
 682              	.LVL61:
 683 0008 0A04     		lsls	r2, r1, #16	@ D.6718, D.6718,
 684 000a 130C     		lsrs	r3, r2, #16	@ D.6718, D.6718,
 685 000c 8380     		strh	r3, [r0, #4]	@ movhi	@ D.6718,
 686 000e 7047     		bx	lr	@
 687              	.LVL62:
 688              	.L48:
 640:cmsis/device/stm32f4xx_spi.c ****     SPIx->CR2 |= (uint16_t)SPI_CR2_SSOE;
 689              		.loc 1 640 0
 690 0010 99B2     		uxth	r1, r3	@ D.6714, SPIx_2(D)->CR2
 691              	.LVL63:
 692 0012 41F00402 		orr	r2, r1, #4	@ D.6715, D.6714,
 693 0016 8280     		strh	r2, [r0, #4]	@ movhi	@ D.6715,
 694 0018 7047     		bx	lr	@
 695              		.cfi_endproc
 696              	.LFE120:
 697              		.size	SPI_SSOutputCmd, .-SPI_SSOutputCmd
 698 001a 00BF     		.section	.text.SPI_TIModeCmd,"ax",%progbits
 699              		.align	2
 700              		.global	SPI_TIModeCmd
 701              		.thumb
 702              		.thumb_func
 703              		.type	SPI_TIModeCmd, %function
 704              	SPI_TIModeCmd:
 705              	.LFB121:
 646:cmsis/device/stm32f4xx_spi.c ****   }
 647:cmsis/device/stm32f4xx_spi.c **** }
 648:cmsis/device/stm32f4xx_spi.c **** 
 649:cmsis/device/stm32f4xx_spi.c **** /**
 650:cmsis/device/stm32f4xx_spi.c ****   * @brief  Enables or disables the SPIx/I2Sx DMA interface.
 651:cmsis/device/stm32f4xx_spi.c ****   *   
 652:cmsis/device/stm32f4xx_spi.c ****   * @note   This function can be called only after the SPI_Init() function has 
 653:cmsis/device/stm32f4xx_spi.c ****   *         been called. 
 654:cmsis/device/stm32f4xx_spi.c ****   * @note   When TI mode is selected, the control bits SSM, SSI, CPOL and CPHA 
 655:cmsis/device/stm32f4xx_spi.c ****   *         are not taken into consideration and are configured by hardware
 656:cmsis/device/stm32f4xx_spi.c ****   *         respectively to the TI mode requirements.  
 657:cmsis/device/stm32f4xx_spi.c ****   * 
 658:cmsis/device/stm32f4xx_spi.c ****   * @param  SPIx: where x can be 1, 2 or 3 
 659:cmsis/device/stm32f4xx_spi.c ****   * @param  NewState: new state of the selected SPI TI communication mode.
ARM GAS  C:\Users\CNous\AppData\Local\Temp\ccipJbk0.s 			page 26


 660:cmsis/device/stm32f4xx_spi.c ****   *          This parameter can be: ENABLE or DISABLE.
 661:cmsis/device/stm32f4xx_spi.c ****   * @retval None
 662:cmsis/device/stm32f4xx_spi.c ****   */
 663:cmsis/device/stm32f4xx_spi.c **** void SPI_TIModeCmd(SPI_TypeDef* SPIx, FunctionalState NewState)
 664:cmsis/device/stm32f4xx_spi.c **** {
 706              		.loc 1 664 0
 707              		.cfi_startproc
 708              		@ args = 0, pretend = 0, frame = 0
 709              		@ frame_needed = 0, uses_anonymous_args = 0
 710              		@ link register save eliminated.
 711              	.LVL64:
 665:cmsis/device/stm32f4xx_spi.c ****   /* Check the parameters */
 666:cmsis/device/stm32f4xx_spi.c ****   assert_param(IS_SPI_ALL_PERIPH(SPIx));
 667:cmsis/device/stm32f4xx_spi.c ****   assert_param(IS_FUNCTIONAL_STATE(NewState));
 668:cmsis/device/stm32f4xx_spi.c **** 
 669:cmsis/device/stm32f4xx_spi.c ****   if (NewState != DISABLE)
 670:cmsis/device/stm32f4xx_spi.c ****   {
 671:cmsis/device/stm32f4xx_spi.c ****     /* Enable the TI mode for the selected SPI peripheral */
 672:cmsis/device/stm32f4xx_spi.c ****     SPIx->CR2 |= SPI_CR2_FRF;
 712              		.loc 1 672 0
 713 0000 8388     		ldrh	r3, [r0, #4]	@,
 669:cmsis/device/stm32f4xx_spi.c ****   if (NewState != DISABLE)
 714              		.loc 1 669 0
 715 0002 29B9     		cbnz	r1, .L52	@ NewState,
 673:cmsis/device/stm32f4xx_spi.c ****   }
 674:cmsis/device/stm32f4xx_spi.c ****   else
 675:cmsis/device/stm32f4xx_spi.c ****   {
 676:cmsis/device/stm32f4xx_spi.c ****     /* Disable the TI mode for the selected SPI peripheral */
 677:cmsis/device/stm32f4xx_spi.c ****     SPIx->CR2 &= (uint16_t)~SPI_CR2_FRF;
 716              		.loc 1 677 0
 717 0004 23F01001 		bic	r1, r3, #16	@ D.6711, SPIx_2(D)->CR2,
 718              	.LVL65:
 719 0008 0A04     		lsls	r2, r1, #16	@ D.6711, D.6711,
 720 000a 130C     		lsrs	r3, r2, #16	@ D.6711, D.6711,
 721 000c 8380     		strh	r3, [r0, #4]	@ movhi	@ D.6711,
 722 000e 7047     		bx	lr	@
 723              	.LVL66:
 724              	.L52:
 672:cmsis/device/stm32f4xx_spi.c ****     SPIx->CR2 |= SPI_CR2_FRF;
 725              		.loc 1 672 0
 726 0010 99B2     		uxth	r1, r3	@ D.6707, SPIx_2(D)->CR2
 727              	.LVL67:
 728 0012 41F01002 		orr	r2, r1, #16	@ D.6708, D.6707,
 729 0016 8280     		strh	r2, [r0, #4]	@ movhi	@ D.6708,
 730 0018 7047     		bx	lr	@
 731              		.cfi_endproc
 732              	.LFE121:
 733              		.size	SPI_TIModeCmd, .-SPI_TIModeCmd
 734 001a 00BF     		.section	.text.I2S_FullDuplexConfig,"ax",%progbits
 735              		.align	2
 736              		.global	I2S_FullDuplexConfig
 737              		.thumb
 738              		.thumb_func
 739              		.type	I2S_FullDuplexConfig, %function
 740              	I2S_FullDuplexConfig:
 741              	.LFB122:
 678:cmsis/device/stm32f4xx_spi.c ****   }
ARM GAS  C:\Users\CNous\AppData\Local\Temp\ccipJbk0.s 			page 27


 679:cmsis/device/stm32f4xx_spi.c **** }
 680:cmsis/device/stm32f4xx_spi.c **** 
 681:cmsis/device/stm32f4xx_spi.c **** /**
 682:cmsis/device/stm32f4xx_spi.c ****   * @brief  Configures the full duplex mode for the I2Sx peripheral using its
 683:cmsis/device/stm32f4xx_spi.c ****   *         extension I2Sxext according to the specified parameters in the 
 684:cmsis/device/stm32f4xx_spi.c ****   *         I2S_InitStruct.
 685:cmsis/device/stm32f4xx_spi.c ****   * @param  I2Sxext: where x can be  2 or 3 to select the I2S peripheral extension block.
 686:cmsis/device/stm32f4xx_spi.c ****   * @param  I2S_InitStruct: pointer to an I2S_InitTypeDef structure that
 687:cmsis/device/stm32f4xx_spi.c ****   *         contains the configuration information for the specified I2S peripheral
 688:cmsis/device/stm32f4xx_spi.c ****   *         extension.
 689:cmsis/device/stm32f4xx_spi.c ****   * 
 690:cmsis/device/stm32f4xx_spi.c ****   * @note   The structure pointed by I2S_InitStruct parameter should be the same
 691:cmsis/device/stm32f4xx_spi.c ****   *         used for the master I2S peripheral. In this case, if the master is 
 692:cmsis/device/stm32f4xx_spi.c ****   *         configured as transmitter, the slave will be receiver and vice versa.
 693:cmsis/device/stm32f4xx_spi.c ****   *         Or you can force a different mode by modifying the field I2S_Mode to the
 694:cmsis/device/stm32f4xx_spi.c ****   *         value I2S_SlaveRx or I2S_SlaveTx indepedently of the master configuration.    
 695:cmsis/device/stm32f4xx_spi.c ****   *         
 696:cmsis/device/stm32f4xx_spi.c ****   * @note   The I2S full duplex extension can be configured in slave mode only.    
 697:cmsis/device/stm32f4xx_spi.c ****   *  
 698:cmsis/device/stm32f4xx_spi.c ****   * @retval None
 699:cmsis/device/stm32f4xx_spi.c ****   */
 700:cmsis/device/stm32f4xx_spi.c **** void I2S_FullDuplexConfig(SPI_TypeDef* I2Sxext, I2S_InitTypeDef* I2S_InitStruct)
 701:cmsis/device/stm32f4xx_spi.c **** {
 742              		.loc 1 701 0
 743              		.cfi_startproc
 744              		@ args = 0, pretend = 0, frame = 0
 745              		@ frame_needed = 0, uses_anonymous_args = 0
 746              		@ link register save eliminated.
 747              	.LVL68:
 702:cmsis/device/stm32f4xx_spi.c ****   uint16_t tmpreg = 0, tmp = 0;
 703:cmsis/device/stm32f4xx_spi.c ****   
 704:cmsis/device/stm32f4xx_spi.c ****   /* Check the I2S parameters */
 705:cmsis/device/stm32f4xx_spi.c ****   assert_param(IS_I2S_EXT_PERIPH(I2Sxext));
 706:cmsis/device/stm32f4xx_spi.c ****   assert_param(IS_I2S_MODE(I2S_InitStruct->I2S_Mode));
 707:cmsis/device/stm32f4xx_spi.c ****   assert_param(IS_I2S_STANDARD(I2S_InitStruct->I2S_Standard));
 708:cmsis/device/stm32f4xx_spi.c ****   assert_param(IS_I2S_DATA_FORMAT(I2S_InitStruct->I2S_DataFormat));
 709:cmsis/device/stm32f4xx_spi.c ****   assert_param(IS_I2S_CPOL(I2S_InitStruct->I2S_CPOL));  
 710:cmsis/device/stm32f4xx_spi.c **** 
 711:cmsis/device/stm32f4xx_spi.c **** /*----------------------- SPIx I2SCFGR & I2SPR Configuration -----------------*/
 712:cmsis/device/stm32f4xx_spi.c ****   /* Clear I2SMOD, I2SE, I2SCFG, PCMSYNC, I2SSTD, CKPOL, DATLEN and CHLEN bits */
 713:cmsis/device/stm32f4xx_spi.c ****   I2Sxext->I2SCFGR &= I2SCFGR_CLEAR_MASK; 
 748              		.loc 1 713 0
 749 0000 838B     		ldrh	r3, [r0, #28]	@, I2Sxext_4(D)->I2SCFGR
 714:cmsis/device/stm32f4xx_spi.c ****   I2Sxext->I2SPR = 0x0002;
 715:cmsis/device/stm32f4xx_spi.c ****   
 716:cmsis/device/stm32f4xx_spi.c ****   /* Get the I2SCFGR register value */
 717:cmsis/device/stm32f4xx_spi.c ****   tmpreg = I2Sxext->I2SCFGR;
 718:cmsis/device/stm32f4xx_spi.c ****   
 719:cmsis/device/stm32f4xx_spi.c ****   /* Get the mode to be configured for the extended I2S */
 720:cmsis/device/stm32f4xx_spi.c ****   if ((I2S_InitStruct->I2S_Mode == I2S_Mode_MasterTx) || (I2S_InitStruct->I2S_Mode == I2S_Mode_Slav
 750              		.loc 1 720 0
 751 0002 0A88     		ldrh	r2, [r1, #0]	@ D.6693, I2S_InitStruct_8(D)->I2S_Mode
 701:cmsis/device/stm32f4xx_spi.c **** {
 752              		.loc 1 701 0
 753 0004 70B4     		push	{r4, r5, r6}	@
 754              	.LCFI3:
 755              		.cfi_def_cfa_offset 12
ARM GAS  C:\Users\CNous\AppData\Local\Temp\ccipJbk0.s 			page 28


 756              		.cfi_offset 4, -12
 757              		.cfi_offset 5, -8
 758              		.cfi_offset 6, -4
 713:cmsis/device/stm32f4xx_spi.c ****   I2Sxext->I2SCFGR &= I2SCFGR_CLEAR_MASK; 
 759              		.loc 1 713 0
 760 0006 23F47B64 		bic	r4, r3, #4016	@ D.6689, I2Sxext_4(D)->I2SCFGR,
 761 000a 24F00F05 		bic	r5, r4, #15	@ D.6689, D.6689,
 762 000e 2E04     		lsls	r6, r5, #16	@ D.6689, D.6689,
 763 0010 330C     		lsrs	r3, r6, #16	@ D.6689, D.6689,
 714:cmsis/device/stm32f4xx_spi.c ****   I2Sxext->I2SPR = 0x0002;
 764              		.loc 1 714 0
 765 0012 0224     		movs	r4, #2	@ tmp155,
 713:cmsis/device/stm32f4xx_spi.c ****   I2Sxext->I2SCFGR &= I2SCFGR_CLEAR_MASK; 
 766              		.loc 1 713 0
 767 0014 8383     		strh	r3, [r0, #28]	@ movhi	@ D.6689, I2Sxext_4(D)->I2SCFGR
 714:cmsis/device/stm32f4xx_spi.c ****   I2Sxext->I2SPR = 0x0002;
 768              		.loc 1 714 0
 769 0016 0484     		strh	r4, [r0, #32]	@ movhi	@ tmp155, I2Sxext_4(D)->I2SPR
 717:cmsis/device/stm32f4xx_spi.c ****   tmpreg = I2Sxext->I2SCFGR;
 770              		.loc 1 717 0
 771 0018 858B     		ldrh	r5, [r0, #28]	@, I2Sxext_4(D)->I2SCFGR
 772              		.loc 1 720 0
 773 001a B2F5007F 		cmp	r2, #512	@ D.6693,
 717:cmsis/device/stm32f4xx_spi.c ****   tmpreg = I2Sxext->I2SCFGR;
 774              		.loc 1 717 0
 775 001e ABB2     		uxth	r3, r5	@ tmpreg, I2Sxext_4(D)->I2SCFGR
 776              	.LVL69:
 777              		.loc 1 720 0
 778 0020 02D0     		beq	.L56	@,
 779              		.loc 1 720 0 is_stmt 0 discriminator 1
 780 0022 0AB1     		cbz	r2, .L56	@ D.6693,
 721:cmsis/device/stm32f4xx_spi.c ****   {
 722:cmsis/device/stm32f4xx_spi.c ****     tmp = I2S_Mode_SlaveRx;
 723:cmsis/device/stm32f4xx_spi.c ****   }
 724:cmsis/device/stm32f4xx_spi.c ****   else
 725:cmsis/device/stm32f4xx_spi.c ****   {
 726:cmsis/device/stm32f4xx_spi.c ****     if ((I2S_InitStruct->I2S_Mode == I2S_Mode_MasterRx) || (I2S_InitStruct->I2S_Mode == I2S_Mode_Sl
 727:cmsis/device/stm32f4xx_spi.c ****     {
 728:cmsis/device/stm32f4xx_spi.c ****       tmp = I2S_Mode_SlaveTx;
 781              		.loc 1 728 0 is_stmt 1
 782 0024 0026     		movs	r6, #0	@ tmp,
 783 0026 01E0     		b	.L55	@
 784              	.L56:
 722:cmsis/device/stm32f4xx_spi.c ****     tmp = I2S_Mode_SlaveRx;
 785              		.loc 1 722 0
 786 0028 4FF48076 		mov	r6, #256	@ tmp,
 787              	.L55:
 788              	.LVL70:
 729:cmsis/device/stm32f4xx_spi.c ****     }
 730:cmsis/device/stm32f4xx_spi.c ****   }
 731:cmsis/device/stm32f4xx_spi.c **** 
 732:cmsis/device/stm32f4xx_spi.c ****  
 733:cmsis/device/stm32f4xx_spi.c ****   /* Configure the I2S with the SPI_InitStruct values */
 734:cmsis/device/stm32f4xx_spi.c ****   tmpreg |= (uint16_t)((uint16_t)SPI_I2SCFGR_I2SMOD | (uint16_t)(tmp | \
 735:cmsis/device/stm32f4xx_spi.c ****                   (uint16_t)(I2S_InitStruct->I2S_Standard | (uint16_t)(I2S_InitStruct->I2S_DataForm
 789              		.loc 1 735 0
 790 002c 4D88     		ldrh	r5, [r1, #2]	@, I2S_InitStruct_8(D)->I2S_Standard
ARM GAS  C:\Users\CNous\AppData\Local\Temp\ccipJbk0.s 			page 29


 791              	.LVL71:
 734:cmsis/device/stm32f4xx_spi.c ****   tmpreg |= (uint16_t)((uint16_t)SPI_I2SCFGR_I2SMOD | (uint16_t)(tmp | \
 792              		.loc 1 734 0
 793 002e 8C88     		ldrh	r4, [r1, #4]	@, I2S_InitStruct_8(D)->I2S_DataFormat
 794 0030 8989     		ldrh	r1, [r1, #12]	@, I2S_InitStruct_8(D)->I2S_CPOL
 795              	.LVL72:
 796              		.loc 1 735 0
 797 0032 2B43     		orrs	r3, r3, r5	@, tmp159, tmpreg, I2S_InitStruct_8(D)->I2S_Standard
 798              	.LVL73:
 799 0034 43F40062 		orr	r2, r3, #2048	@ tmp161, tmp159,
 734:cmsis/device/stm32f4xx_spi.c ****   tmpreg |= (uint16_t)((uint16_t)SPI_I2SCFGR_I2SMOD | (uint16_t)(tmp | \
 800              		.loc 1 734 0
 801 0038 2243     		orrs	r2, r2, r4	@, tmp164, tmp161, I2S_InitStruct_8(D)->I2S_DataFormat
 802 003a 0A43     		orrs	r2, r2, r1	@, tmp167, tmp164, I2S_InitStruct_8(D)->I2S_CPOL
 803 003c 93B2     		uxth	r3, r2	@ D.6704, tmp167
 804 003e 3343     		orrs	r3, r3, r6	@, tmpreg, D.6704, tmp
 805              	.LVL74:
 736:cmsis/device/stm32f4xx_spi.c ****                   (uint16_t)I2S_InitStruct->I2S_CPOL))));
 737:cmsis/device/stm32f4xx_spi.c ****  
 738:cmsis/device/stm32f4xx_spi.c ****   /* Write to SPIx I2SCFGR */  
 739:cmsis/device/stm32f4xx_spi.c ****   I2Sxext->I2SCFGR = tmpreg;
 806              		.loc 1 739 0
 807 0040 8383     		strh	r3, [r0, #28]	@ movhi	@ tmpreg, I2Sxext_4(D)->I2SCFGR
 740:cmsis/device/stm32f4xx_spi.c **** }
 808              		.loc 1 740 0
 809 0042 70BC     		pop	{r4, r5, r6}
 810 0044 7047     		bx	lr
 811              		.cfi_endproc
 812              	.LFE122:
 813              		.size	I2S_FullDuplexConfig, .-I2S_FullDuplexConfig
 814 0046 00BF     		.section	.text.SPI_I2S_ReceiveData,"ax",%progbits
 815              		.align	2
 816              		.global	SPI_I2S_ReceiveData
 817              		.thumb
 818              		.thumb_func
 819              		.type	SPI_I2S_ReceiveData, %function
 820              	SPI_I2S_ReceiveData:
 821              	.LFB123:
 741:cmsis/device/stm32f4xx_spi.c **** 
 742:cmsis/device/stm32f4xx_spi.c **** /**
 743:cmsis/device/stm32f4xx_spi.c ****   * @}
 744:cmsis/device/stm32f4xx_spi.c ****   */
 745:cmsis/device/stm32f4xx_spi.c **** 
 746:cmsis/device/stm32f4xx_spi.c **** /** @defgroup SPI_Group2 Data transfers functions
 747:cmsis/device/stm32f4xx_spi.c ****  *  @brief   Data transfers functions
 748:cmsis/device/stm32f4xx_spi.c ****  *
 749:cmsis/device/stm32f4xx_spi.c **** @verbatim   
 750:cmsis/device/stm32f4xx_spi.c ****  ===============================================================================
 751:cmsis/device/stm32f4xx_spi.c ****                          Data transfers functions
 752:cmsis/device/stm32f4xx_spi.c ****  ===============================================================================  
 753:cmsis/device/stm32f4xx_spi.c **** 
 754:cmsis/device/stm32f4xx_spi.c ****   This section provides a set of functions allowing to manage the SPI data transfers
 755:cmsis/device/stm32f4xx_spi.c ****   
 756:cmsis/device/stm32f4xx_spi.c ****   In reception, data are received and then stored into an internal Rx buffer while 
 757:cmsis/device/stm32f4xx_spi.c ****   In transmission, data are first stored into an internal Tx buffer before being 
 758:cmsis/device/stm32f4xx_spi.c ****   transmitted.
 759:cmsis/device/stm32f4xx_spi.c **** 
ARM GAS  C:\Users\CNous\AppData\Local\Temp\ccipJbk0.s 			page 30


 760:cmsis/device/stm32f4xx_spi.c ****   The read access of the SPI_DR register can be done using the SPI_I2S_ReceiveData()
 761:cmsis/device/stm32f4xx_spi.c ****   function and returns the Rx buffered value. Whereas a write access to the SPI_DR 
 762:cmsis/device/stm32f4xx_spi.c ****   can be done using SPI_I2S_SendData() function and stores the written data into 
 763:cmsis/device/stm32f4xx_spi.c ****   Tx buffer.
 764:cmsis/device/stm32f4xx_spi.c **** 
 765:cmsis/device/stm32f4xx_spi.c **** @endverbatim
 766:cmsis/device/stm32f4xx_spi.c ****   * @{
 767:cmsis/device/stm32f4xx_spi.c ****   */
 768:cmsis/device/stm32f4xx_spi.c **** 
 769:cmsis/device/stm32f4xx_spi.c **** /**
 770:cmsis/device/stm32f4xx_spi.c ****   * @brief  Returns the most recent received data by the SPIx/I2Sx peripheral. 
 771:cmsis/device/stm32f4xx_spi.c ****   * @param  SPIx: To select the SPIx/I2Sx peripheral, where x can be: 1, 2 or 3 
 772:cmsis/device/stm32f4xx_spi.c ****   *         in SPI mode or 2 or 3 in I2S mode or I2Sxext for I2S full duplex mode. 
 773:cmsis/device/stm32f4xx_spi.c ****   * @retval The value of the received data.
 774:cmsis/device/stm32f4xx_spi.c ****   */
 775:cmsis/device/stm32f4xx_spi.c **** uint16_t SPI_I2S_ReceiveData(SPI_TypeDef* SPIx)
 776:cmsis/device/stm32f4xx_spi.c **** {
 822              		.loc 1 776 0
 823              		.cfi_startproc
 824              		@ args = 0, pretend = 0, frame = 0
 825              		@ frame_needed = 0, uses_anonymous_args = 0
 826              		@ link register save eliminated.
 827              	.LVL75:
 777:cmsis/device/stm32f4xx_spi.c ****   /* Check the parameters */
 778:cmsis/device/stm32f4xx_spi.c ****   assert_param(IS_SPI_ALL_PERIPH_EXT(SPIx));
 779:cmsis/device/stm32f4xx_spi.c ****   
 780:cmsis/device/stm32f4xx_spi.c ****   /* Return the data in the DR register */
 781:cmsis/device/stm32f4xx_spi.c ****   return SPIx->DR;
 828              		.loc 1 781 0
 829 0000 8089     		ldrh	r0, [r0, #12]	@, SPIx_1(D)->DR
 830              	.LVL76:
 782:cmsis/device/stm32f4xx_spi.c **** }
 831              		.loc 1 782 0
 832 0002 80B2     		uxth	r0, r0	@, SPIx_1(D)->DR
 833 0004 7047     		bx	lr	@
 834              		.cfi_endproc
 835              	.LFE123:
 836              		.size	SPI_I2S_ReceiveData, .-SPI_I2S_ReceiveData
 837 0006 00BF     		.section	.text.SPI_I2S_SendData,"ax",%progbits
 838              		.align	2
 839              		.global	SPI_I2S_SendData
 840              		.thumb
 841              		.thumb_func
 842              		.type	SPI_I2S_SendData, %function
 843              	SPI_I2S_SendData:
 844              	.LFB124:
 783:cmsis/device/stm32f4xx_spi.c **** 
 784:cmsis/device/stm32f4xx_spi.c **** /**
 785:cmsis/device/stm32f4xx_spi.c ****   * @brief  Transmits a Data through the SPIx/I2Sx peripheral.
 786:cmsis/device/stm32f4xx_spi.c ****   * @param  SPIx: To select the SPIx/I2Sx peripheral, where x can be: 1, 2 or 3 
 787:cmsis/device/stm32f4xx_spi.c ****   *         in SPI mode or 2 or 3 in I2S mode or I2Sxext for I2S full duplex mode.     
 788:cmsis/device/stm32f4xx_spi.c ****   * @param  Data: Data to be transmitted.
 789:cmsis/device/stm32f4xx_spi.c ****   * @retval None
 790:cmsis/device/stm32f4xx_spi.c ****   */
 791:cmsis/device/stm32f4xx_spi.c **** void SPI_I2S_SendData(SPI_TypeDef* SPIx, uint16_t Data)
 792:cmsis/device/stm32f4xx_spi.c **** {
 845              		.loc 1 792 0
ARM GAS  C:\Users\CNous\AppData\Local\Temp\ccipJbk0.s 			page 31


 846              		.cfi_startproc
 847              		@ args = 0, pretend = 0, frame = 0
 848              		@ frame_needed = 0, uses_anonymous_args = 0
 849              		@ link register save eliminated.
 850              	.LVL77:
 793:cmsis/device/stm32f4xx_spi.c ****   /* Check the parameters */
 794:cmsis/device/stm32f4xx_spi.c ****   assert_param(IS_SPI_ALL_PERIPH_EXT(SPIx));
 795:cmsis/device/stm32f4xx_spi.c ****   
 796:cmsis/device/stm32f4xx_spi.c ****   /* Write in the DR register the data to be sent */
 797:cmsis/device/stm32f4xx_spi.c ****   SPIx->DR = Data;
 851              		.loc 1 797 0
 852 0000 8181     		strh	r1, [r0, #12]	@ movhi	@ Data, SPIx_1(D)->DR
 853 0002 7047     		bx	lr	@
 854              		.cfi_endproc
 855              	.LFE124:
 856              		.size	SPI_I2S_SendData, .-SPI_I2S_SendData
 857              		.section	.text.SPI_CalculateCRC,"ax",%progbits
 858              		.align	2
 859              		.global	SPI_CalculateCRC
 860              		.thumb
 861              		.thumb_func
 862              		.type	SPI_CalculateCRC, %function
 863              	SPI_CalculateCRC:
 864              	.LFB125:
 798:cmsis/device/stm32f4xx_spi.c **** }
 799:cmsis/device/stm32f4xx_spi.c **** 
 800:cmsis/device/stm32f4xx_spi.c **** /**
 801:cmsis/device/stm32f4xx_spi.c ****   * @}
 802:cmsis/device/stm32f4xx_spi.c ****   */
 803:cmsis/device/stm32f4xx_spi.c **** 
 804:cmsis/device/stm32f4xx_spi.c **** /** @defgroup SPI_Group3 Hardware CRC Calculation functions
 805:cmsis/device/stm32f4xx_spi.c ****  *  @brief   Hardware CRC Calculation functions
 806:cmsis/device/stm32f4xx_spi.c ****  *
 807:cmsis/device/stm32f4xx_spi.c **** @verbatim   
 808:cmsis/device/stm32f4xx_spi.c ****  ===============================================================================
 809:cmsis/device/stm32f4xx_spi.c ****                          Hardware CRC Calculation functions
 810:cmsis/device/stm32f4xx_spi.c ****  ===============================================================================  
 811:cmsis/device/stm32f4xx_spi.c **** 
 812:cmsis/device/stm32f4xx_spi.c ****   This section provides a set of functions allowing to manage the SPI CRC hardware 
 813:cmsis/device/stm32f4xx_spi.c ****   calculation
 814:cmsis/device/stm32f4xx_spi.c **** 
 815:cmsis/device/stm32f4xx_spi.c ****   SPI communication using CRC is possible through the following procedure:
 816:cmsis/device/stm32f4xx_spi.c ****      1. Program the Data direction, Polarity, Phase, First Data, Baud Rate Prescaler, 
 817:cmsis/device/stm32f4xx_spi.c ****         Slave Management, Peripheral Mode and CRC Polynomial values using the SPI_Init()
 818:cmsis/device/stm32f4xx_spi.c ****         function.
 819:cmsis/device/stm32f4xx_spi.c ****      2. Enable the CRC calculation using the SPI_CalculateCRC() function.
 820:cmsis/device/stm32f4xx_spi.c ****      3. Enable the SPI using the SPI_Cmd() function
 821:cmsis/device/stm32f4xx_spi.c ****      4. Before writing the last data to the TX buffer, set the CRCNext bit using the 
 822:cmsis/device/stm32f4xx_spi.c ****       SPI_TransmitCRC() function to indicate that after transmission of the last 
 823:cmsis/device/stm32f4xx_spi.c ****       data, the CRC should be transmitted.
 824:cmsis/device/stm32f4xx_spi.c ****      5. After transmitting the last data, the SPI transmits the CRC. The SPI_CR1_CRCNEXT
 825:cmsis/device/stm32f4xx_spi.c ****         bit is reset. The CRC is also received and compared against the SPI_RXCRCR 
 826:cmsis/device/stm32f4xx_spi.c ****         value. 
 827:cmsis/device/stm32f4xx_spi.c ****         If the value does not match, the SPI_FLAG_CRCERR flag is set and an interrupt
 828:cmsis/device/stm32f4xx_spi.c ****         can be generated when the SPI_I2S_IT_ERR interrupt is enabled.
 829:cmsis/device/stm32f4xx_spi.c **** 
 830:cmsis/device/stm32f4xx_spi.c **** @note It is advised not to read the calculated CRC values during the communication.
ARM GAS  C:\Users\CNous\AppData\Local\Temp\ccipJbk0.s 			page 32


 831:cmsis/device/stm32f4xx_spi.c **** 
 832:cmsis/device/stm32f4xx_spi.c **** @note When the SPI is in slave mode, be careful to enable CRC calculation only 
 833:cmsis/device/stm32f4xx_spi.c ****       when the clock is stable, that is, when the clock is in the steady state. 
 834:cmsis/device/stm32f4xx_spi.c ****       If not, a wrong CRC calculation may be done. In fact, the CRC is sensitive 
 835:cmsis/device/stm32f4xx_spi.c ****       to the SCK slave input clock as soon as CRCEN is set, and this, whatever 
 836:cmsis/device/stm32f4xx_spi.c ****       the value of the SPE bit.
 837:cmsis/device/stm32f4xx_spi.c **** 
 838:cmsis/device/stm32f4xx_spi.c **** @note With high bitrate frequencies, be careful when transmitting the CRC.
 839:cmsis/device/stm32f4xx_spi.c ****       As the number of used CPU cycles has to be as low as possible in the CRC 
 840:cmsis/device/stm32f4xx_spi.c ****       transfer phase, it is forbidden to call software functions in the CRC 
 841:cmsis/device/stm32f4xx_spi.c ****       transmission sequence to avoid errors in the last data and CRC reception. 
 842:cmsis/device/stm32f4xx_spi.c ****       In fact, CRCNEXT bit has to be written before the end of the transmission/reception 
 843:cmsis/device/stm32f4xx_spi.c ****       of the last data.
 844:cmsis/device/stm32f4xx_spi.c **** 
 845:cmsis/device/stm32f4xx_spi.c **** @note For high bit rate frequencies, it is advised to use the DMA mode to avoid the
 846:cmsis/device/stm32f4xx_spi.c ****       degradation of the SPI speed performance due to CPU accesses impacting the 
 847:cmsis/device/stm32f4xx_spi.c ****       SPI bandwidth.
 848:cmsis/device/stm32f4xx_spi.c **** 
 849:cmsis/device/stm32f4xx_spi.c **** @note When the STM32F4xx is configured as slave and the NSS hardware mode is 
 850:cmsis/device/stm32f4xx_spi.c ****       used, the NSS pin needs to be kept low between the data phase and the CRC 
 851:cmsis/device/stm32f4xx_spi.c ****       phase.
 852:cmsis/device/stm32f4xx_spi.c **** 
 853:cmsis/device/stm32f4xx_spi.c **** @note When the SPI is configured in slave mode with the CRC feature enabled, CRC
 854:cmsis/device/stm32f4xx_spi.c ****       calculation takes place even if a high level is applied on the NSS pin. 
 855:cmsis/device/stm32f4xx_spi.c ****       This may happen for example in case of a multi-slave environment where the 
 856:cmsis/device/stm32f4xx_spi.c ****       communication master addresses slaves alternately.
 857:cmsis/device/stm32f4xx_spi.c **** 
 858:cmsis/device/stm32f4xx_spi.c **** @note Between a slave de-selection (high level on NSS) and a new slave selection 
 859:cmsis/device/stm32f4xx_spi.c ****       (low level on NSS), the CRC value should be cleared on both master and slave
 860:cmsis/device/stm32f4xx_spi.c ****       sides in order to resynchronize the master and slave for their respective 
 861:cmsis/device/stm32f4xx_spi.c ****       CRC calculation.
 862:cmsis/device/stm32f4xx_spi.c **** 
 863:cmsis/device/stm32f4xx_spi.c **** @note To clear the CRC, follow the procedure below:
 864:cmsis/device/stm32f4xx_spi.c ****         1. Disable SPI using the SPI_Cmd() function
 865:cmsis/device/stm32f4xx_spi.c ****         2. Disable the CRC calculation using the SPI_CalculateCRC() function.
 866:cmsis/device/stm32f4xx_spi.c ****         3. Enable the CRC calculation using the SPI_CalculateCRC() function.
 867:cmsis/device/stm32f4xx_spi.c ****         4. Enable SPI using the SPI_Cmd() function.
 868:cmsis/device/stm32f4xx_spi.c **** 
 869:cmsis/device/stm32f4xx_spi.c **** @endverbatim
 870:cmsis/device/stm32f4xx_spi.c ****   * @{
 871:cmsis/device/stm32f4xx_spi.c ****   */
 872:cmsis/device/stm32f4xx_spi.c **** 
 873:cmsis/device/stm32f4xx_spi.c **** /**
 874:cmsis/device/stm32f4xx_spi.c ****   * @brief  Enables or disables the CRC value calculation of the transferred bytes.
 875:cmsis/device/stm32f4xx_spi.c ****   * @param  SPIx: where x can be 1, 2 or 3 to select the SPI peripheral.
 876:cmsis/device/stm32f4xx_spi.c ****   * @param  NewState: new state of the SPIx CRC value calculation.
 877:cmsis/device/stm32f4xx_spi.c ****   *          This parameter can be: ENABLE or DISABLE.
 878:cmsis/device/stm32f4xx_spi.c ****   * @retval None
 879:cmsis/device/stm32f4xx_spi.c ****   */
 880:cmsis/device/stm32f4xx_spi.c **** void SPI_CalculateCRC(SPI_TypeDef* SPIx, FunctionalState NewState)
 881:cmsis/device/stm32f4xx_spi.c **** {
 865              		.loc 1 881 0
 866              		.cfi_startproc
 867              		@ args = 0, pretend = 0, frame = 0
 868              		@ frame_needed = 0, uses_anonymous_args = 0
 869              		@ link register save eliminated.
 870              	.LVL78:
ARM GAS  C:\Users\CNous\AppData\Local\Temp\ccipJbk0.s 			page 33


 882:cmsis/device/stm32f4xx_spi.c ****   /* Check the parameters */
 883:cmsis/device/stm32f4xx_spi.c ****   assert_param(IS_SPI_ALL_PERIPH(SPIx));
 884:cmsis/device/stm32f4xx_spi.c ****   assert_param(IS_FUNCTIONAL_STATE(NewState));
 885:cmsis/device/stm32f4xx_spi.c ****   if (NewState != DISABLE)
 886:cmsis/device/stm32f4xx_spi.c ****   {
 887:cmsis/device/stm32f4xx_spi.c ****     /* Enable the selected SPI CRC calculation */
 888:cmsis/device/stm32f4xx_spi.c ****     SPIx->CR1 |= SPI_CR1_CRCEN;
 871              		.loc 1 888 0
 872 0000 0388     		ldrh	r3, [r0, #0]	@,* SPIx
 885:cmsis/device/stm32f4xx_spi.c ****   if (NewState != DISABLE)
 873              		.loc 1 885 0
 874 0002 29B9     		cbnz	r1, .L65	@ NewState,
 889:cmsis/device/stm32f4xx_spi.c ****   }
 890:cmsis/device/stm32f4xx_spi.c ****   else
 891:cmsis/device/stm32f4xx_spi.c ****   {
 892:cmsis/device/stm32f4xx_spi.c ****     /* Disable the selected SPI CRC calculation */
 893:cmsis/device/stm32f4xx_spi.c ****     SPIx->CR1 &= (uint16_t)~((uint16_t)SPI_CR1_CRCEN);
 875              		.loc 1 893 0
 876 0004 23F40051 		bic	r1, r3, #8192	@ D.6685, SPIx_2(D)->CR1,
 877              	.LVL79:
 878 0008 0A04     		lsls	r2, r1, #16	@ D.6685, D.6685,
 879 000a 130C     		lsrs	r3, r2, #16	@ D.6685, D.6685,
 880 000c 0380     		strh	r3, [r0, #0]	@ movhi	@ D.6685,* SPIx
 881 000e 7047     		bx	lr	@
 882              	.LVL80:
 883              	.L65:
 888:cmsis/device/stm32f4xx_spi.c ****     SPIx->CR1 |= SPI_CR1_CRCEN;
 884              		.loc 1 888 0
 885 0010 99B2     		uxth	r1, r3	@ D.6681, SPIx_2(D)->CR1
 886              	.LVL81:
 887 0012 41F40052 		orr	r2, r1, #8192	@ D.6682, D.6681,
 888 0016 0280     		strh	r2, [r0, #0]	@ movhi	@ D.6682,* SPIx
 889 0018 7047     		bx	lr	@
 890              		.cfi_endproc
 891              	.LFE125:
 892              		.size	SPI_CalculateCRC, .-SPI_CalculateCRC
 893 001a 00BF     		.section	.text.SPI_TransmitCRC,"ax",%progbits
 894              		.align	2
 895              		.global	SPI_TransmitCRC
 896              		.thumb
 897              		.thumb_func
 898              		.type	SPI_TransmitCRC, %function
 899              	SPI_TransmitCRC:
 900              	.LFB126:
 894:cmsis/device/stm32f4xx_spi.c ****   }
 895:cmsis/device/stm32f4xx_spi.c **** }
 896:cmsis/device/stm32f4xx_spi.c **** 
 897:cmsis/device/stm32f4xx_spi.c **** /**
 898:cmsis/device/stm32f4xx_spi.c ****   * @brief  Transmit the SPIx CRC value.
 899:cmsis/device/stm32f4xx_spi.c ****   * @param  SPIx: where x can be 1, 2 or 3 to select the SPI peripheral.
 900:cmsis/device/stm32f4xx_spi.c ****   * @retval None
 901:cmsis/device/stm32f4xx_spi.c ****   */
 902:cmsis/device/stm32f4xx_spi.c **** void SPI_TransmitCRC(SPI_TypeDef* SPIx)
 903:cmsis/device/stm32f4xx_spi.c **** {
 901              		.loc 1 903 0
 902              		.cfi_startproc
 903              		@ args = 0, pretend = 0, frame = 0
ARM GAS  C:\Users\CNous\AppData\Local\Temp\ccipJbk0.s 			page 34


 904              		@ frame_needed = 0, uses_anonymous_args = 0
 905              		@ link register save eliminated.
 906              	.LVL82:
 904:cmsis/device/stm32f4xx_spi.c ****   /* Check the parameters */
 905:cmsis/device/stm32f4xx_spi.c ****   assert_param(IS_SPI_ALL_PERIPH(SPIx));
 906:cmsis/device/stm32f4xx_spi.c ****   
 907:cmsis/device/stm32f4xx_spi.c ****   /* Enable the selected SPI CRC transmission */
 908:cmsis/device/stm32f4xx_spi.c ****   SPIx->CR1 |= SPI_CR1_CRCNEXT;
 907              		.loc 1 908 0
 908 0000 0388     		ldrh	r3, [r0, #0]	@, SPIx_1(D)->CR1
 909 0002 99B2     		uxth	r1, r3	@ D.6677, SPIx_1(D)->CR1
 910 0004 41F48052 		orr	r2, r1, #4096	@ D.6678, D.6677,
 911 0008 0280     		strh	r2, [r0, #0]	@ movhi	@ D.6678, SPIx_1(D)->CR1
 912 000a 7047     		bx	lr	@
 913              		.cfi_endproc
 914              	.LFE126:
 915              		.size	SPI_TransmitCRC, .-SPI_TransmitCRC
 916              		.section	.text.SPI_GetCRC,"ax",%progbits
 917              		.align	2
 918              		.global	SPI_GetCRC
 919              		.thumb
 920              		.thumb_func
 921              		.type	SPI_GetCRC, %function
 922              	SPI_GetCRC:
 923              	.LFB127:
 909:cmsis/device/stm32f4xx_spi.c **** }
 910:cmsis/device/stm32f4xx_spi.c **** 
 911:cmsis/device/stm32f4xx_spi.c **** /**
 912:cmsis/device/stm32f4xx_spi.c ****   * @brief  Returns the transmit or the receive CRC register value for the specified SPI.
 913:cmsis/device/stm32f4xx_spi.c ****   * @param  SPIx: where x can be 1, 2 or 3 to select the SPI peripheral.
 914:cmsis/device/stm32f4xx_spi.c ****   * @param  SPI_CRC: specifies the CRC register to be read.
 915:cmsis/device/stm32f4xx_spi.c ****   *          This parameter can be one of the following values:
 916:cmsis/device/stm32f4xx_spi.c ****   *            @arg SPI_CRC_Tx: Selects Tx CRC register
 917:cmsis/device/stm32f4xx_spi.c ****   *            @arg SPI_CRC_Rx: Selects Rx CRC register
 918:cmsis/device/stm32f4xx_spi.c ****   * @retval The selected CRC register value..
 919:cmsis/device/stm32f4xx_spi.c ****   */
 920:cmsis/device/stm32f4xx_spi.c **** uint16_t SPI_GetCRC(SPI_TypeDef* SPIx, uint8_t SPI_CRC)
 921:cmsis/device/stm32f4xx_spi.c **** {
 924              		.loc 1 921 0
 925              		.cfi_startproc
 926              		@ args = 0, pretend = 0, frame = 0
 927              		@ frame_needed = 0, uses_anonymous_args = 0
 928              		@ link register save eliminated.
 929              	.LVL83:
 922:cmsis/device/stm32f4xx_spi.c ****   uint16_t crcreg = 0;
 923:cmsis/device/stm32f4xx_spi.c ****   /* Check the parameters */
 924:cmsis/device/stm32f4xx_spi.c ****   assert_param(IS_SPI_ALL_PERIPH(SPIx));
 925:cmsis/device/stm32f4xx_spi.c ****   assert_param(IS_SPI_CRC(SPI_CRC));
 926:cmsis/device/stm32f4xx_spi.c ****   if (SPI_CRC != SPI_CRC_Rx)
 930              		.loc 1 926 0
 931 0000 0129     		cmp	r1, #1	@ SPI_CRC,
 927:cmsis/device/stm32f4xx_spi.c ****   {
 928:cmsis/device/stm32f4xx_spi.c ****     /* Get the Tx CRC register */
 929:cmsis/device/stm32f4xx_spi.c ****     crcreg = SPIx->TXCRCR;
 932              		.loc 1 929 0
 933 0002 14BF     		ite	ne
 934 0004 008B     		ldrhne	r0, [r0, #24]	@, SPIx_4(D)->TXCRCR
ARM GAS  C:\Users\CNous\AppData\Local\Temp\ccipJbk0.s 			page 35


 935              	.LVL84:
 930:cmsis/device/stm32f4xx_spi.c ****   }
 931:cmsis/device/stm32f4xx_spi.c ****   else
 932:cmsis/device/stm32f4xx_spi.c ****   {
 933:cmsis/device/stm32f4xx_spi.c ****     /* Get the Rx CRC register */
 934:cmsis/device/stm32f4xx_spi.c ****     crcreg = SPIx->RXCRCR;
 936              		.loc 1 934 0
 937 0006 808A     		ldrheq	r0, [r0, #20]	@, SPIx_4(D)->RXCRCR
 938 0008 80B2     		uxth	r0, r0	@ crcreg, SPIx_4(D)->RXCRCR
 939              	.LVL85:
 935:cmsis/device/stm32f4xx_spi.c ****   }
 936:cmsis/device/stm32f4xx_spi.c ****   /* Return the selected CRC register */
 937:cmsis/device/stm32f4xx_spi.c ****   return crcreg;
 938:cmsis/device/stm32f4xx_spi.c **** }
 940              		.loc 1 938 0
 941 000a 7047     		bx	lr	@
 942              		.cfi_endproc
 943              	.LFE127:
 944              		.size	SPI_GetCRC, .-SPI_GetCRC
 945              		.section	.text.SPI_GetCRCPolynomial,"ax",%progbits
 946              		.align	2
 947              		.global	SPI_GetCRCPolynomial
 948              		.thumb
 949              		.thumb_func
 950              		.type	SPI_GetCRCPolynomial, %function
 951              	SPI_GetCRCPolynomial:
 952              	.LFB128:
 939:cmsis/device/stm32f4xx_spi.c **** 
 940:cmsis/device/stm32f4xx_spi.c **** /**
 941:cmsis/device/stm32f4xx_spi.c ****   * @brief  Returns the CRC Polynomial register value for the specified SPI.
 942:cmsis/device/stm32f4xx_spi.c ****   * @param  SPIx: where x can be 1, 2 or 3 to select the SPI peripheral.
 943:cmsis/device/stm32f4xx_spi.c ****   * @retval The CRC Polynomial register value.
 944:cmsis/device/stm32f4xx_spi.c ****   */
 945:cmsis/device/stm32f4xx_spi.c **** uint16_t SPI_GetCRCPolynomial(SPI_TypeDef* SPIx)
 946:cmsis/device/stm32f4xx_spi.c **** {
 953              		.loc 1 946 0
 954              		.cfi_startproc
 955              		@ args = 0, pretend = 0, frame = 0
 956              		@ frame_needed = 0, uses_anonymous_args = 0
 957              		@ link register save eliminated.
 958              	.LVL86:
 947:cmsis/device/stm32f4xx_spi.c ****   /* Check the parameters */
 948:cmsis/device/stm32f4xx_spi.c ****   assert_param(IS_SPI_ALL_PERIPH(SPIx));
 949:cmsis/device/stm32f4xx_spi.c ****   
 950:cmsis/device/stm32f4xx_spi.c ****   /* Return the CRC polynomial register */
 951:cmsis/device/stm32f4xx_spi.c ****   return SPIx->CRCPR;
 959              		.loc 1 951 0
 960 0000 008A     		ldrh	r0, [r0, #16]	@, SPIx_1(D)->CRCPR
 961              	.LVL87:
 952:cmsis/device/stm32f4xx_spi.c **** }
 962              		.loc 1 952 0
 963 0002 80B2     		uxth	r0, r0	@, SPIx_1(D)->CRCPR
 964 0004 7047     		bx	lr	@
 965              		.cfi_endproc
 966              	.LFE128:
 967              		.size	SPI_GetCRCPolynomial, .-SPI_GetCRCPolynomial
 968 0006 00BF     		.section	.text.SPI_I2S_DMACmd,"ax",%progbits
ARM GAS  C:\Users\CNous\AppData\Local\Temp\ccipJbk0.s 			page 36


 969              		.align	2
 970              		.global	SPI_I2S_DMACmd
 971              		.thumb
 972              		.thumb_func
 973              		.type	SPI_I2S_DMACmd, %function
 974              	SPI_I2S_DMACmd:
 975              	.LFB129:
 953:cmsis/device/stm32f4xx_spi.c **** 
 954:cmsis/device/stm32f4xx_spi.c **** /**
 955:cmsis/device/stm32f4xx_spi.c ****   * @}
 956:cmsis/device/stm32f4xx_spi.c ****   */
 957:cmsis/device/stm32f4xx_spi.c **** 
 958:cmsis/device/stm32f4xx_spi.c **** /** @defgroup SPI_Group4 DMA transfers management functions
 959:cmsis/device/stm32f4xx_spi.c ****  *  @brief   DMA transfers management functions
 960:cmsis/device/stm32f4xx_spi.c ****   *
 961:cmsis/device/stm32f4xx_spi.c **** @verbatim   
 962:cmsis/device/stm32f4xx_spi.c ****  ===============================================================================
 963:cmsis/device/stm32f4xx_spi.c ****                          DMA transfers management functions
 964:cmsis/device/stm32f4xx_spi.c ****  ===============================================================================  
 965:cmsis/device/stm32f4xx_spi.c **** 
 966:cmsis/device/stm32f4xx_spi.c **** @endverbatim
 967:cmsis/device/stm32f4xx_spi.c ****   * @{
 968:cmsis/device/stm32f4xx_spi.c ****   */
 969:cmsis/device/stm32f4xx_spi.c **** 
 970:cmsis/device/stm32f4xx_spi.c **** /**
 971:cmsis/device/stm32f4xx_spi.c ****   * @brief  Enables or disables the SPIx/I2Sx DMA interface.
 972:cmsis/device/stm32f4xx_spi.c ****   * @param  SPIx: To select the SPIx/I2Sx peripheral, where x can be: 1, 2 or 3 
 973:cmsis/device/stm32f4xx_spi.c ****   *         in SPI mode or 2 or 3 in I2S mode or I2Sxext for I2S full duplex mode. 
 974:cmsis/device/stm32f4xx_spi.c ****   * @param  SPI_I2S_DMAReq: specifies the SPI DMA transfer request to be enabled or disabled. 
 975:cmsis/device/stm32f4xx_spi.c ****   *          This parameter can be any combination of the following values:
 976:cmsis/device/stm32f4xx_spi.c ****   *            @arg SPI_I2S_DMAReq_Tx: Tx buffer DMA transfer request
 977:cmsis/device/stm32f4xx_spi.c ****   *            @arg SPI_I2S_DMAReq_Rx: Rx buffer DMA transfer request
 978:cmsis/device/stm32f4xx_spi.c ****   * @param  NewState: new state of the selected SPI DMA transfer request.
 979:cmsis/device/stm32f4xx_spi.c ****   *          This parameter can be: ENABLE or DISABLE.
 980:cmsis/device/stm32f4xx_spi.c ****   * @retval None
 981:cmsis/device/stm32f4xx_spi.c ****   */
 982:cmsis/device/stm32f4xx_spi.c **** void SPI_I2S_DMACmd(SPI_TypeDef* SPIx, uint16_t SPI_I2S_DMAReq, FunctionalState NewState)
 983:cmsis/device/stm32f4xx_spi.c **** {
 976              		.loc 1 983 0
 977              		.cfi_startproc
 978              		@ args = 0, pretend = 0, frame = 0
 979              		@ frame_needed = 0, uses_anonymous_args = 0
 980              		@ link register save eliminated.
 981              	.LVL88:
 984:cmsis/device/stm32f4xx_spi.c ****   /* Check the parameters */
 985:cmsis/device/stm32f4xx_spi.c ****   assert_param(IS_SPI_ALL_PERIPH_EXT(SPIx));
 986:cmsis/device/stm32f4xx_spi.c ****   assert_param(IS_FUNCTIONAL_STATE(NewState));
 987:cmsis/device/stm32f4xx_spi.c ****   assert_param(IS_SPI_I2S_DMAREQ(SPI_I2S_DMAReq));
 988:cmsis/device/stm32f4xx_spi.c **** 
 989:cmsis/device/stm32f4xx_spi.c ****   if (NewState != DISABLE)
 990:cmsis/device/stm32f4xx_spi.c ****   {
 991:cmsis/device/stm32f4xx_spi.c ****     /* Enable the selected SPI DMA requests */
 992:cmsis/device/stm32f4xx_spi.c ****     SPIx->CR2 |= SPI_I2S_DMAReq;
 982              		.loc 1 992 0
 983 0000 8388     		ldrh	r3, [r0, #4]	@,
 984 0002 9BB2     		uxth	r3, r3	@ D.6664, SPIx_2(D)->CR2
 989:cmsis/device/stm32f4xx_spi.c ****   if (NewState != DISABLE)
ARM GAS  C:\Users\CNous\AppData\Local\Temp\ccipJbk0.s 			page 37


 985              		.loc 1 989 0
 986 0004 1AB9     		cbnz	r2, .L74	@ NewState,
 993:cmsis/device/stm32f4xx_spi.c ****   }
 994:cmsis/device/stm32f4xx_spi.c ****   else
 995:cmsis/device/stm32f4xx_spi.c ****   {
 996:cmsis/device/stm32f4xx_spi.c ****     /* Disable the selected SPI DMA requests */
 997:cmsis/device/stm32f4xx_spi.c ****     SPIx->CR2 &= (uint16_t)~SPI_I2S_DMAReq;
 987              		.loc 1 997 0
 988 0006 23EA0101 		bic	r1, r3, r1	@ D.6669, D.6667, SPI_I2S_DMAReq
 989              	.LVL89:
 990 000a 8180     		strh	r1, [r0, #4]	@ movhi	@ D.6669,
 991 000c 7047     		bx	lr	@
 992              	.LVL90:
 993              	.L74:
 992:cmsis/device/stm32f4xx_spi.c ****     SPIx->CR2 |= SPI_I2S_DMAReq;
 994              		.loc 1 992 0
 995 000e 1943     		orrs	r1, r1, r3	@, D.6665, SPI_I2S_DMAReq, D.6664
 996              	.LVL91:
 997 0010 8180     		strh	r1, [r0, #4]	@ movhi	@ D.6665,
 998 0012 7047     		bx	lr	@
 999              		.cfi_endproc
 1000              	.LFE129:
 1001              		.size	SPI_I2S_DMACmd, .-SPI_I2S_DMACmd
 1002              		.section	.text.SPI_I2S_ITConfig,"ax",%progbits
 1003              		.align	2
 1004              		.global	SPI_I2S_ITConfig
 1005              		.thumb
 1006              		.thumb_func
 1007              		.type	SPI_I2S_ITConfig, %function
 1008              	SPI_I2S_ITConfig:
 1009              	.LFB130:
 998:cmsis/device/stm32f4xx_spi.c ****   }
 999:cmsis/device/stm32f4xx_spi.c **** }
1000:cmsis/device/stm32f4xx_spi.c **** 
1001:cmsis/device/stm32f4xx_spi.c **** /**
1002:cmsis/device/stm32f4xx_spi.c ****   * @}
1003:cmsis/device/stm32f4xx_spi.c ****   */
1004:cmsis/device/stm32f4xx_spi.c **** 
1005:cmsis/device/stm32f4xx_spi.c **** /** @defgroup SPI_Group5 Interrupts and flags management functions
1006:cmsis/device/stm32f4xx_spi.c ****  *  @brief   Interrupts and flags management functions
1007:cmsis/device/stm32f4xx_spi.c ****   *
1008:cmsis/device/stm32f4xx_spi.c **** @verbatim   
1009:cmsis/device/stm32f4xx_spi.c ****  ===============================================================================
1010:cmsis/device/stm32f4xx_spi.c ****                          Interrupts and flags management functions
1011:cmsis/device/stm32f4xx_spi.c ****  ===============================================================================  
1012:cmsis/device/stm32f4xx_spi.c **** 
1013:cmsis/device/stm32f4xx_spi.c ****   This section provides a set of functions allowing to configure the SPI Interrupts 
1014:cmsis/device/stm32f4xx_spi.c ****   sources and check or clear the flags or pending bits status.
1015:cmsis/device/stm32f4xx_spi.c ****   The user should identify which mode will be used in his application to manage 
1016:cmsis/device/stm32f4xx_spi.c ****   the communication: Polling mode, Interrupt mode or DMA mode. 
1017:cmsis/device/stm32f4xx_spi.c ****     
1018:cmsis/device/stm32f4xx_spi.c ****   Polling Mode
1019:cmsis/device/stm32f4xx_spi.c ****   =============
1020:cmsis/device/stm32f4xx_spi.c ****   In Polling Mode, the SPI/I2S communication can be managed by 9 flags:
1021:cmsis/device/stm32f4xx_spi.c ****      1. SPI_I2S_FLAG_TXE : to indicate the status of the transmit buffer register
1022:cmsis/device/stm32f4xx_spi.c ****      2. SPI_I2S_FLAG_RXNE : to indicate the status of the receive buffer register
1023:cmsis/device/stm32f4xx_spi.c ****      3. SPI_I2S_FLAG_BSY : to indicate the state of the communication layer of the SPI.
ARM GAS  C:\Users\CNous\AppData\Local\Temp\ccipJbk0.s 			page 38


1024:cmsis/device/stm32f4xx_spi.c ****      4. SPI_FLAG_CRCERR : to indicate if a CRC Calculation error occur              
1025:cmsis/device/stm32f4xx_spi.c ****      5. SPI_FLAG_MODF : to indicate if a Mode Fault error occur
1026:cmsis/device/stm32f4xx_spi.c ****      6. SPI_I2S_FLAG_OVR : to indicate if an Overrun error occur
1027:cmsis/device/stm32f4xx_spi.c ****      7. I2S_FLAG_TIFRFE: to indicate a Frame Format error occurs.
1028:cmsis/device/stm32f4xx_spi.c ****      8. I2S_FLAG_UDR: to indicate an Underrun error occurs.
1029:cmsis/device/stm32f4xx_spi.c ****      9. I2S_FLAG_CHSIDE: to indicate Channel Side.
1030:cmsis/device/stm32f4xx_spi.c **** 
1031:cmsis/device/stm32f4xx_spi.c **** @note Do not use the BSY flag to handle each data transmission or reception.  It is
1032:cmsis/device/stm32f4xx_spi.c ****       better to use the TXE and RXNE flags instead.
1033:cmsis/device/stm32f4xx_spi.c **** 
1034:cmsis/device/stm32f4xx_spi.c ****   In this Mode it is advised to use the following functions:
1035:cmsis/device/stm32f4xx_spi.c ****      - FlagStatus SPI_I2S_GetFlagStatus(SPI_TypeDef* SPIx, uint16_t SPI_I2S_FLAG);
1036:cmsis/device/stm32f4xx_spi.c ****      - void SPI_I2S_ClearFlag(SPI_TypeDef* SPIx, uint16_t SPI_I2S_FLAG);
1037:cmsis/device/stm32f4xx_spi.c **** 
1038:cmsis/device/stm32f4xx_spi.c ****   Interrupt Mode
1039:cmsis/device/stm32f4xx_spi.c ****   ===============
1040:cmsis/device/stm32f4xx_spi.c ****   In Interrupt Mode, the SPI communication can be managed by 3 interrupt sources
1041:cmsis/device/stm32f4xx_spi.c ****   and 7 pending bits: 
1042:cmsis/device/stm32f4xx_spi.c ****   Pending Bits:
1043:cmsis/device/stm32f4xx_spi.c ****   ------------- 
1044:cmsis/device/stm32f4xx_spi.c ****      1. SPI_I2S_IT_TXE : to indicate the status of the transmit buffer register
1045:cmsis/device/stm32f4xx_spi.c ****      2. SPI_I2S_IT_RXNE : to indicate the status of the receive buffer register
1046:cmsis/device/stm32f4xx_spi.c ****      3. SPI_IT_CRCERR : to indicate if a CRC Calculation error occur (available in SPI mode only)  
1047:cmsis/device/stm32f4xx_spi.c ****      4. SPI_IT_MODF : to indicate if a Mode Fault error occur (available in SPI mode only)
1048:cmsis/device/stm32f4xx_spi.c ****      5. SPI_I2S_IT_OVR : to indicate if an Overrun error occur
1049:cmsis/device/stm32f4xx_spi.c ****      6. I2S_IT_UDR : to indicate an Underrun Error occurs (available in I2S mode only).
1050:cmsis/device/stm32f4xx_spi.c ****      7. I2S_FLAG_TIFRFE : to indicate a Frame Format error occurs (available in TI mode only).
1051:cmsis/device/stm32f4xx_spi.c **** 
1052:cmsis/device/stm32f4xx_spi.c ****   Interrupt Source:
1053:cmsis/device/stm32f4xx_spi.c ****   -----------------
1054:cmsis/device/stm32f4xx_spi.c ****      1. SPI_I2S_IT_TXE: specifies the interrupt source for the Tx buffer empty 
1055:cmsis/device/stm32f4xx_spi.c ****                         interrupt.  
1056:cmsis/device/stm32f4xx_spi.c ****      2. SPI_I2S_IT_RXNE : specifies the interrupt source for the Rx buffer not 
1057:cmsis/device/stm32f4xx_spi.c ****                           empty interrupt.
1058:cmsis/device/stm32f4xx_spi.c ****      3. SPI_I2S_IT_ERR : specifies the interrupt source for the errors interrupt.
1059:cmsis/device/stm32f4xx_spi.c **** 
1060:cmsis/device/stm32f4xx_spi.c ****   In this Mode it is advised to use the following functions:
1061:cmsis/device/stm32f4xx_spi.c ****      - void SPI_I2S_ITConfig(SPI_TypeDef* SPIx, uint8_t SPI_I2S_IT, FunctionalState NewState);
1062:cmsis/device/stm32f4xx_spi.c ****      - ITStatus SPI_I2S_GetITStatus(SPI_TypeDef* SPIx, uint8_t SPI_I2S_IT);
1063:cmsis/device/stm32f4xx_spi.c ****      - void SPI_I2S_ClearITPendingBit(SPI_TypeDef* SPIx, uint8_t SPI_I2S_IT);
1064:cmsis/device/stm32f4xx_spi.c **** 
1065:cmsis/device/stm32f4xx_spi.c ****   DMA Mode
1066:cmsis/device/stm32f4xx_spi.c ****   ========
1067:cmsis/device/stm32f4xx_spi.c ****   In DMA Mode, the SPI communication can be managed by 2 DMA Channel requests:
1068:cmsis/device/stm32f4xx_spi.c ****      1. SPI_I2S_DMAReq_Tx: specifies the Tx buffer DMA transfer request
1069:cmsis/device/stm32f4xx_spi.c ****      2. SPI_I2S_DMAReq_Rx: specifies the Rx buffer DMA transfer request
1070:cmsis/device/stm32f4xx_spi.c **** 
1071:cmsis/device/stm32f4xx_spi.c ****   In this Mode it is advised to use the following function:
1072:cmsis/device/stm32f4xx_spi.c ****     - void SPI_I2S_DMACmd(SPI_TypeDef* SPIx, uint16_t SPI_I2S_DMAReq, FunctionalState NewState);
1073:cmsis/device/stm32f4xx_spi.c **** 
1074:cmsis/device/stm32f4xx_spi.c **** @endverbatim
1075:cmsis/device/stm32f4xx_spi.c ****   * @{
1076:cmsis/device/stm32f4xx_spi.c ****   */
1077:cmsis/device/stm32f4xx_spi.c **** 
1078:cmsis/device/stm32f4xx_spi.c **** /**
1079:cmsis/device/stm32f4xx_spi.c ****   * @brief  Enables or disables the specified SPI/I2S interrupts.
1080:cmsis/device/stm32f4xx_spi.c ****   * @param  SPIx: To select the SPIx/I2Sx peripheral, where x can be: 1, 2 or 3 
ARM GAS  C:\Users\CNous\AppData\Local\Temp\ccipJbk0.s 			page 39


1081:cmsis/device/stm32f4xx_spi.c ****   *         in SPI mode or 2 or 3 in I2S mode or I2Sxext for I2S full duplex mode. 
1082:cmsis/device/stm32f4xx_spi.c ****   * @param  SPI_I2S_IT: specifies the SPI interrupt source to be enabled or disabled. 
1083:cmsis/device/stm32f4xx_spi.c ****   *          This parameter can be one of the following values:
1084:cmsis/device/stm32f4xx_spi.c ****   *            @arg SPI_I2S_IT_TXE: Tx buffer empty interrupt mask
1085:cmsis/device/stm32f4xx_spi.c ****   *            @arg SPI_I2S_IT_RXNE: Rx buffer not empty interrupt mask
1086:cmsis/device/stm32f4xx_spi.c ****   *            @arg SPI_I2S_IT_ERR: Error interrupt mask
1087:cmsis/device/stm32f4xx_spi.c ****   * @param  NewState: new state of the specified SPI interrupt.
1088:cmsis/device/stm32f4xx_spi.c ****   *          This parameter can be: ENABLE or DISABLE.
1089:cmsis/device/stm32f4xx_spi.c ****   * @retval None
1090:cmsis/device/stm32f4xx_spi.c ****   */
1091:cmsis/device/stm32f4xx_spi.c **** void SPI_I2S_ITConfig(SPI_TypeDef* SPIx, uint8_t SPI_I2S_IT, FunctionalState NewState)
1092:cmsis/device/stm32f4xx_spi.c **** {
 1010              		.loc 1 1092 0
 1011              		.cfi_startproc
 1012              		@ args = 0, pretend = 0, frame = 0
 1013              		@ frame_needed = 0, uses_anonymous_args = 0
 1014              		@ link register save eliminated.
 1015              	.LVL92:
1093:cmsis/device/stm32f4xx_spi.c ****   uint16_t itpos = 0, itmask = 0 ;
1094:cmsis/device/stm32f4xx_spi.c ****   
1095:cmsis/device/stm32f4xx_spi.c ****   /* Check the parameters */
1096:cmsis/device/stm32f4xx_spi.c ****   assert_param(IS_SPI_ALL_PERIPH_EXT(SPIx));
1097:cmsis/device/stm32f4xx_spi.c ****   assert_param(IS_FUNCTIONAL_STATE(NewState));
1098:cmsis/device/stm32f4xx_spi.c ****   assert_param(IS_SPI_I2S_CONFIG_IT(SPI_I2S_IT));
1099:cmsis/device/stm32f4xx_spi.c **** 
1100:cmsis/device/stm32f4xx_spi.c ****   /* Get the SPI IT index */
1101:cmsis/device/stm32f4xx_spi.c ****   itpos = SPI_I2S_IT >> 4;
1102:cmsis/device/stm32f4xx_spi.c **** 
1103:cmsis/device/stm32f4xx_spi.c ****   /* Set the IT mask */
1104:cmsis/device/stm32f4xx_spi.c ****   itmask = (uint16_t)1 << (uint16_t)itpos;
 1016              		.loc 1 1104 0
 1017 0000 0123     		movs	r3, #1	@ tmp149,
 1018 0002 0909     		lsrs	r1, r1, #4	@ tmp147, SPI_I2S_IT,
 1019              	.LVL93:
 1020 0004 03FA01F1 		lsl	r1, r3, r1	@ tmp148, tmp149, tmp147
1105:cmsis/device/stm32f4xx_spi.c **** 
1106:cmsis/device/stm32f4xx_spi.c ****   if (NewState != DISABLE)
1107:cmsis/device/stm32f4xx_spi.c ****   {
1108:cmsis/device/stm32f4xx_spi.c ****     /* Enable the selected SPI interrupt */
1109:cmsis/device/stm32f4xx_spi.c ****     SPIx->CR2 |= itmask;
 1021              		.loc 1 1109 0
 1022 0008 8388     		ldrh	r3, [r0, #4]	@,
1104:cmsis/device/stm32f4xx_spi.c ****   itmask = (uint16_t)1 << (uint16_t)itpos;
 1023              		.loc 1 1104 0
 1024 000a 89B2     		uxth	r1, r1	@ itmask, tmp148
 1025              	.LVL94:
 1026              		.loc 1 1109 0
 1027 000c 9BB2     		uxth	r3, r3	@ D.6656, SPIx_10(D)->CR2
1106:cmsis/device/stm32f4xx_spi.c ****   if (NewState != DISABLE)
 1028              		.loc 1 1106 0
 1029 000e 1AB9     		cbnz	r2, .L78	@ NewState,
1110:cmsis/device/stm32f4xx_spi.c ****   }
1111:cmsis/device/stm32f4xx_spi.c ****   else
1112:cmsis/device/stm32f4xx_spi.c ****   {
1113:cmsis/device/stm32f4xx_spi.c ****     /* Disable the selected SPI interrupt */
1114:cmsis/device/stm32f4xx_spi.c ****     SPIx->CR2 &= (uint16_t)~itmask;
 1030              		.loc 1 1114 0
ARM GAS  C:\Users\CNous\AppData\Local\Temp\ccipJbk0.s 			page 40


 1031 0010 23EA0102 		bic	r2, r3, r1	@ D.6661, D.6659, itmask
 1032              	.LVL95:
 1033 0014 8280     		strh	r2, [r0, #4]	@ movhi	@ D.6661,
 1034 0016 7047     		bx	lr	@
 1035              	.LVL96:
 1036              	.L78:
1109:cmsis/device/stm32f4xx_spi.c ****     SPIx->CR2 |= itmask;
 1037              		.loc 1 1109 0
 1038 0018 1943     		orrs	r1, r1, r3	@, D.6657, itmask, D.6656
 1039              	.LVL97:
 1040 001a 8180     		strh	r1, [r0, #4]	@ movhi	@ D.6657,
 1041 001c 7047     		bx	lr	@
 1042              		.cfi_endproc
 1043              	.LFE130:
 1044              		.size	SPI_I2S_ITConfig, .-SPI_I2S_ITConfig
 1045 001e 00BF     		.section	.text.SPI_I2S_GetFlagStatus,"ax",%progbits
 1046              		.align	2
 1047              		.global	SPI_I2S_GetFlagStatus
 1048              		.thumb
 1049              		.thumb_func
 1050              		.type	SPI_I2S_GetFlagStatus, %function
 1051              	SPI_I2S_GetFlagStatus:
 1052              	.LFB131:
1115:cmsis/device/stm32f4xx_spi.c ****   }
1116:cmsis/device/stm32f4xx_spi.c **** }
1117:cmsis/device/stm32f4xx_spi.c **** 
1118:cmsis/device/stm32f4xx_spi.c **** /**
1119:cmsis/device/stm32f4xx_spi.c ****   * @brief  Checks whether the specified SPIx/I2Sx flag is set or not.
1120:cmsis/device/stm32f4xx_spi.c ****   * @param  SPIx: To select the SPIx/I2Sx peripheral, where x can be: 1, 2 or 3 
1121:cmsis/device/stm32f4xx_spi.c ****   *         in SPI mode or 2 or 3 in I2S mode or I2Sxext for I2S full duplex mode. 
1122:cmsis/device/stm32f4xx_spi.c ****   * @param  SPI_I2S_FLAG: specifies the SPI flag to check. 
1123:cmsis/device/stm32f4xx_spi.c ****   *          This parameter can be one of the following values:
1124:cmsis/device/stm32f4xx_spi.c ****   *            @arg SPI_I2S_FLAG_TXE: Transmit buffer empty flag.
1125:cmsis/device/stm32f4xx_spi.c ****   *            @arg SPI_I2S_FLAG_RXNE: Receive buffer not empty flag.
1126:cmsis/device/stm32f4xx_spi.c ****   *            @arg SPI_I2S_FLAG_BSY: Busy flag.
1127:cmsis/device/stm32f4xx_spi.c ****   *            @arg SPI_I2S_FLAG_OVR: Overrun flag.
1128:cmsis/device/stm32f4xx_spi.c ****   *            @arg SPI_FLAG_MODF: Mode Fault flag.
1129:cmsis/device/stm32f4xx_spi.c ****   *            @arg SPI_FLAG_CRCERR: CRC Error flag.
1130:cmsis/device/stm32f4xx_spi.c ****   *            @arg SPI_I2S_FLAG_TIFRFE: Format Error.
1131:cmsis/device/stm32f4xx_spi.c ****   *            @arg I2S_FLAG_UDR: Underrun Error flag.
1132:cmsis/device/stm32f4xx_spi.c ****   *            @arg I2S_FLAG_CHSIDE: Channel Side flag.  
1133:cmsis/device/stm32f4xx_spi.c ****   * @retval The new state of SPI_I2S_FLAG (SET or RESET).
1134:cmsis/device/stm32f4xx_spi.c ****   */
1135:cmsis/device/stm32f4xx_spi.c **** FlagStatus SPI_I2S_GetFlagStatus(SPI_TypeDef* SPIx, uint16_t SPI_I2S_FLAG)
1136:cmsis/device/stm32f4xx_spi.c **** {
 1053              		.loc 1 1136 0
 1054              		.cfi_startproc
 1055              		@ args = 0, pretend = 0, frame = 0
 1056              		@ frame_needed = 0, uses_anonymous_args = 0
 1057              		@ link register save eliminated.
 1058              	.LVL98:
1137:cmsis/device/stm32f4xx_spi.c ****   FlagStatus bitstatus = RESET;
1138:cmsis/device/stm32f4xx_spi.c ****   /* Check the parameters */
1139:cmsis/device/stm32f4xx_spi.c ****   assert_param(IS_SPI_ALL_PERIPH_EXT(SPIx));
1140:cmsis/device/stm32f4xx_spi.c ****   assert_param(IS_SPI_I2S_GET_FLAG(SPI_I2S_FLAG));
1141:cmsis/device/stm32f4xx_spi.c ****   
1142:cmsis/device/stm32f4xx_spi.c ****   /* Check the status of the specified SPI flag */
ARM GAS  C:\Users\CNous\AppData\Local\Temp\ccipJbk0.s 			page 41


1143:cmsis/device/stm32f4xx_spi.c ****   if ((SPIx->SR & SPI_I2S_FLAG) != (uint16_t)RESET)
 1059              		.loc 1 1143 0
 1060 0000 0389     		ldrh	r3, [r0, #8]	@, SPIx_3(D)->SR
 1061              	.LVL99:
 1062 0002 1942     		tst	r1, r3	@ SPI_I2S_FLAG, SPIx_3(D)->SR
1144:cmsis/device/stm32f4xx_spi.c ****   {
1145:cmsis/device/stm32f4xx_spi.c ****     /* SPI_I2S_FLAG is set */
1146:cmsis/device/stm32f4xx_spi.c ****     bitstatus = SET;
1147:cmsis/device/stm32f4xx_spi.c ****   }
1148:cmsis/device/stm32f4xx_spi.c ****   else
1149:cmsis/device/stm32f4xx_spi.c ****   {
1150:cmsis/device/stm32f4xx_spi.c ****     /* SPI_I2S_FLAG is reset */
1151:cmsis/device/stm32f4xx_spi.c ****     bitstatus = RESET;
1152:cmsis/device/stm32f4xx_spi.c ****   }
1153:cmsis/device/stm32f4xx_spi.c ****   /* Return the SPI_I2S_FLAG status */
1154:cmsis/device/stm32f4xx_spi.c ****   return  bitstatus;
1155:cmsis/device/stm32f4xx_spi.c **** }
 1063              		.loc 1 1155 0
 1064 0004 0CBF     		ite	eq	@
 1065 0006 0020     		moveq	r0, #0	@,
 1066 0008 0120     		movne	r0, #1	@,
 1067              	.LVL100:
 1068 000a 7047     		bx	lr	@
 1069              		.cfi_endproc
 1070              	.LFE131:
 1071              		.size	SPI_I2S_GetFlagStatus, .-SPI_I2S_GetFlagStatus
 1072              		.section	.text.SPI_I2S_ClearFlag,"ax",%progbits
 1073              		.align	2
 1074              		.global	SPI_I2S_ClearFlag
 1075              		.thumb
 1076              		.thumb_func
 1077              		.type	SPI_I2S_ClearFlag, %function
 1078              	SPI_I2S_ClearFlag:
 1079              	.LFB132:
1156:cmsis/device/stm32f4xx_spi.c **** 
1157:cmsis/device/stm32f4xx_spi.c **** /**
1158:cmsis/device/stm32f4xx_spi.c ****   * @brief  Clears the SPIx CRC Error (CRCERR) flag.
1159:cmsis/device/stm32f4xx_spi.c ****   * @param  SPIx: To select the SPIx/I2Sx peripheral, where x can be: 1, 2 or 3 
1160:cmsis/device/stm32f4xx_spi.c ****   *         in SPI mode or 2 or 3 in I2S mode or I2Sxext for I2S full duplex mode. 
1161:cmsis/device/stm32f4xx_spi.c ****   * @param  SPI_I2S_FLAG: specifies the SPI flag to clear. 
1162:cmsis/device/stm32f4xx_spi.c ****   *          This function clears only CRCERR flag.
1163:cmsis/device/stm32f4xx_spi.c ****   *            @arg SPI_FLAG_CRCERR: CRC Error flag.  
1164:cmsis/device/stm32f4xx_spi.c ****   *  
1165:cmsis/device/stm32f4xx_spi.c ****   * @note   OVR (OverRun error) flag is cleared by software sequence: a read 
1166:cmsis/device/stm32f4xx_spi.c ****   *          operation to SPI_DR register (SPI_I2S_ReceiveData()) followed by a read 
1167:cmsis/device/stm32f4xx_spi.c ****   *          operation to SPI_SR register (SPI_I2S_GetFlagStatus()).
1168:cmsis/device/stm32f4xx_spi.c ****   * @note   UDR (UnderRun error) flag is cleared by a read operation to 
1169:cmsis/device/stm32f4xx_spi.c ****   *          SPI_SR register (SPI_I2S_GetFlagStatus()).   
1170:cmsis/device/stm32f4xx_spi.c ****   * @note   MODF (Mode Fault) flag is cleared by software sequence: a read/write 
1171:cmsis/device/stm32f4xx_spi.c ****   *          operation to SPI_SR register (SPI_I2S_GetFlagStatus()) followed by a 
1172:cmsis/device/stm32f4xx_spi.c ****   *          write operation to SPI_CR1 register (SPI_Cmd() to enable the SPI).
1173:cmsis/device/stm32f4xx_spi.c ****   *  
1174:cmsis/device/stm32f4xx_spi.c ****   * @retval None
1175:cmsis/device/stm32f4xx_spi.c ****   */
1176:cmsis/device/stm32f4xx_spi.c **** void SPI_I2S_ClearFlag(SPI_TypeDef* SPIx, uint16_t SPI_I2S_FLAG)
1177:cmsis/device/stm32f4xx_spi.c **** {
 1080              		.loc 1 1177 0
ARM GAS  C:\Users\CNous\AppData\Local\Temp\ccipJbk0.s 			page 42


 1081              		.cfi_startproc
 1082              		@ args = 0, pretend = 0, frame = 0
 1083              		@ frame_needed = 0, uses_anonymous_args = 0
 1084              		@ link register save eliminated.
 1085              	.LVL101:
1178:cmsis/device/stm32f4xx_spi.c ****   /* Check the parameters */
1179:cmsis/device/stm32f4xx_spi.c ****   assert_param(IS_SPI_ALL_PERIPH_EXT(SPIx));
1180:cmsis/device/stm32f4xx_spi.c ****   assert_param(IS_SPI_I2S_CLEAR_FLAG(SPI_I2S_FLAG));
1181:cmsis/device/stm32f4xx_spi.c ****     
1182:cmsis/device/stm32f4xx_spi.c ****   /* Clear the selected SPI CRC Error (CRCERR) flag */
1183:cmsis/device/stm32f4xx_spi.c ****   SPIx->SR = (uint16_t)~SPI_I2S_FLAG;
 1086              		.loc 1 1183 0
 1087 0000 C943     		mvns	r1, r1	@ tmp137, SPI_I2S_FLAG
 1088              	.LVL102:
 1089 0002 8AB2     		uxth	r2, r1	@ D.6643, tmp137
 1090 0004 0281     		strh	r2, [r0, #8]	@ movhi	@ D.6643, SPIx_3(D)->SR
 1091 0006 7047     		bx	lr	@
 1092              		.cfi_endproc
 1093              	.LFE132:
 1094              		.size	SPI_I2S_ClearFlag, .-SPI_I2S_ClearFlag
 1095              		.section	.text.SPI_I2S_GetITStatus,"ax",%progbits
 1096              		.align	2
 1097              		.global	SPI_I2S_GetITStatus
 1098              		.thumb
 1099              		.thumb_func
 1100              		.type	SPI_I2S_GetITStatus, %function
 1101              	SPI_I2S_GetITStatus:
 1102              	.LFB133:
1184:cmsis/device/stm32f4xx_spi.c **** }
1185:cmsis/device/stm32f4xx_spi.c **** 
1186:cmsis/device/stm32f4xx_spi.c **** /**
1187:cmsis/device/stm32f4xx_spi.c ****   * @brief  Checks whether the specified SPIx/I2Sx interrupt has occurred or not.
1188:cmsis/device/stm32f4xx_spi.c ****   * @param  SPIx: To select the SPIx/I2Sx peripheral, where x can be: 1, 2 or 3 
1189:cmsis/device/stm32f4xx_spi.c ****   *         in SPI mode or 2 or 3 in I2S mode or I2Sxext for I2S full duplex mode.  
1190:cmsis/device/stm32f4xx_spi.c ****   * @param  SPI_I2S_IT: specifies the SPI interrupt source to check. 
1191:cmsis/device/stm32f4xx_spi.c ****   *          This parameter can be one of the following values:
1192:cmsis/device/stm32f4xx_spi.c ****   *            @arg SPI_I2S_IT_TXE: Transmit buffer empty interrupt.
1193:cmsis/device/stm32f4xx_spi.c ****   *            @arg SPI_I2S_IT_RXNE: Receive buffer not empty interrupt.
1194:cmsis/device/stm32f4xx_spi.c ****   *            @arg SPI_I2S_IT_OVR: Overrun interrupt.
1195:cmsis/device/stm32f4xx_spi.c ****   *            @arg SPI_IT_MODF: Mode Fault interrupt.
1196:cmsis/device/stm32f4xx_spi.c ****   *            @arg SPI_IT_CRCERR: CRC Error interrupt.
1197:cmsis/device/stm32f4xx_spi.c ****   *            @arg I2S_IT_UDR: Underrun interrupt.  
1198:cmsis/device/stm32f4xx_spi.c ****   *            @arg SPI_I2S_IT_TIFRFE: Format Error interrupt.  
1199:cmsis/device/stm32f4xx_spi.c ****   * @retval The new state of SPI_I2S_IT (SET or RESET).
1200:cmsis/device/stm32f4xx_spi.c ****   */
1201:cmsis/device/stm32f4xx_spi.c **** ITStatus SPI_I2S_GetITStatus(SPI_TypeDef* SPIx, uint8_t SPI_I2S_IT)
1202:cmsis/device/stm32f4xx_spi.c **** {
 1103              		.loc 1 1202 0
 1104              		.cfi_startproc
 1105              		@ args = 0, pretend = 0, frame = 0
 1106              		@ frame_needed = 0, uses_anonymous_args = 0
 1107              		@ link register save eliminated.
 1108              	.LVL103:
 1109 0000 10B4     		push	{r4}	@
 1110              	.LCFI4:
 1111              		.cfi_def_cfa_offset 4
 1112              		.cfi_offset 4, -4
ARM GAS  C:\Users\CNous\AppData\Local\Temp\ccipJbk0.s 			page 43


1203:cmsis/device/stm32f4xx_spi.c ****   ITStatus bitstatus = RESET;
1204:cmsis/device/stm32f4xx_spi.c ****   uint16_t itpos = 0, itmask = 0, enablestatus = 0;
1205:cmsis/device/stm32f4xx_spi.c **** 
1206:cmsis/device/stm32f4xx_spi.c ****   /* Check the parameters */
1207:cmsis/device/stm32f4xx_spi.c ****   assert_param(IS_SPI_ALL_PERIPH_EXT(SPIx));
1208:cmsis/device/stm32f4xx_spi.c ****   assert_param(IS_SPI_I2S_GET_IT(SPI_I2S_IT));
1209:cmsis/device/stm32f4xx_spi.c **** 
1210:cmsis/device/stm32f4xx_spi.c ****   /* Get the SPI_I2S_IT index */
1211:cmsis/device/stm32f4xx_spi.c ****   itpos = 0x01 << (SPI_I2S_IT & 0x0F);
1212:cmsis/device/stm32f4xx_spi.c **** 
1213:cmsis/device/stm32f4xx_spi.c ****   /* Get the SPI_I2S_IT IT mask */
1214:cmsis/device/stm32f4xx_spi.c ****   itmask = SPI_I2S_IT >> 4;
1215:cmsis/device/stm32f4xx_spi.c **** 
1216:cmsis/device/stm32f4xx_spi.c ****   /* Set the IT mask */
1217:cmsis/device/stm32f4xx_spi.c ****   itmask = 0x01 << itmask;
1218:cmsis/device/stm32f4xx_spi.c **** 
1219:cmsis/device/stm32f4xx_spi.c ****   /* Get the SPI_I2S_IT enable bit status */
1220:cmsis/device/stm32f4xx_spi.c ****   enablestatus = (SPIx->CR2 & itmask) ;
 1113              		.loc 1 1220 0
 1114 0002 8488     		ldrh	r4, [r0, #4]	@, SPIx_16(D)->CR2
1221:cmsis/device/stm32f4xx_spi.c **** 
1222:cmsis/device/stm32f4xx_spi.c ****   /* Check the status of the specified SPI interrupt */
1223:cmsis/device/stm32f4xx_spi.c ****   if (((SPIx->SR & itpos) != (uint16_t)RESET) && enablestatus)
 1115              		.loc 1 1223 0
 1116 0004 0089     		ldrh	r0, [r0, #8]	@, SPIx_16(D)->SR
 1117              	.LVL104:
1211:cmsis/device/stm32f4xx_spi.c ****   itpos = 0x01 << (SPI_I2S_IT & 0x0F);
 1118              		.loc 1 1211 0
 1119 0006 0122     		movs	r2, #1	@ tmp158,
 1120 0008 01F00F03 		and	r3, r1, #15	@ tmp156, SPI_I2S_IT,
 1121              		.loc 1 1223 0
 1122 000c 80B2     		uxth	r0, r0	@ D.6637, SPIx_16(D)->SR
1211:cmsis/device/stm32f4xx_spi.c ****   itpos = 0x01 << (SPI_I2S_IT & 0x0F);
 1123              		.loc 1 1211 0
 1124 000e 02FA03F3 		lsl	r3, r2, r3	@ tmp157, tmp158, tmp156
 1125              		.loc 1 1223 0
 1126 0012 1840     		ands	r0, r0, r3	@ tmp162, D.6637, tmp157
1220:cmsis/device/stm32f4xx_spi.c ****   enablestatus = (SPIx->CR2 & itmask) ;
 1127              		.loc 1 1220 0
 1128 0014 A4B2     		uxth	r4, r4	@ D.6634, SPIx_16(D)->CR2
 1129              	.LVL105:
 1130              		.loc 1 1223 0
 1131 0016 06D0     		beq	.L82	@,
1217:cmsis/device/stm32f4xx_spi.c ****   itmask = 0x01 << itmask;
 1132              		.loc 1 1217 0 discriminator 1
 1133 0018 0909     		lsrs	r1, r1, #4	@ tmp164, SPI_I2S_IT,
 1134              	.LVL106:
 1135 001a 02FA01F2 		lsl	r2, r2, r1	@ tmp165, tmp158, tmp164
 1136              		.loc 1 1223 0 discriminator 1
 1137 001e 1442     		tst	r4, r2	@ D.6634, tmp165
1224:cmsis/device/stm32f4xx_spi.c ****   {
1225:cmsis/device/stm32f4xx_spi.c ****     /* SPI_I2S_IT is set */
1226:cmsis/device/stm32f4xx_spi.c ****     bitstatus = SET;
 1138              		.loc 1 1226 0 discriminator 1
 1139 0020 0CBF     		ite	eq	@
 1140 0022 0020     		moveq	r0, #0	@, bitstatus
 1141 0024 0120     		movne	r0, #1	@, bitstatus
ARM GAS  C:\Users\CNous\AppData\Local\Temp\ccipJbk0.s 			page 44


 1142              	.L82:
 1143              	.LVL107:
1227:cmsis/device/stm32f4xx_spi.c ****   }
1228:cmsis/device/stm32f4xx_spi.c ****   else
1229:cmsis/device/stm32f4xx_spi.c ****   {
1230:cmsis/device/stm32f4xx_spi.c ****     /* SPI_I2S_IT is reset */
1231:cmsis/device/stm32f4xx_spi.c ****     bitstatus = RESET;
1232:cmsis/device/stm32f4xx_spi.c ****   }
1233:cmsis/device/stm32f4xx_spi.c ****   /* Return the SPI_I2S_IT status */
1234:cmsis/device/stm32f4xx_spi.c ****   return bitstatus;
1235:cmsis/device/stm32f4xx_spi.c **** }
 1144              		.loc 1 1235 0
 1145 0026 10BC     		pop	{r4}
 1146 0028 7047     		bx	lr
 1147              		.cfi_endproc
 1148              	.LFE133:
 1149              		.size	SPI_I2S_GetITStatus, .-SPI_I2S_GetITStatus
 1150 002a 00BF     		.section	.text.SPI_I2S_ClearITPendingBit,"ax",%progbits
 1151              		.align	2
 1152              		.global	SPI_I2S_ClearITPendingBit
 1153              		.thumb
 1154              		.thumb_func
 1155              		.type	SPI_I2S_ClearITPendingBit, %function
 1156              	SPI_I2S_ClearITPendingBit:
 1157              	.LFB134:
1236:cmsis/device/stm32f4xx_spi.c **** 
1237:cmsis/device/stm32f4xx_spi.c **** /**
1238:cmsis/device/stm32f4xx_spi.c ****   * @brief  Clears the SPIx CRC Error (CRCERR) interrupt pending bit.
1239:cmsis/device/stm32f4xx_spi.c ****   * @param  SPIx: To select the SPIx/I2Sx peripheral, where x can be: 1, 2 or 3 
1240:cmsis/device/stm32f4xx_spi.c ****   *         in SPI mode or 2 or 3 in I2S mode or I2Sxext for I2S full duplex mode.  
1241:cmsis/device/stm32f4xx_spi.c ****   * @param  SPI_I2S_IT: specifies the SPI interrupt pending bit to clear.
1242:cmsis/device/stm32f4xx_spi.c ****   *         This function clears only CRCERR interrupt pending bit.   
1243:cmsis/device/stm32f4xx_spi.c ****   *            @arg SPI_IT_CRCERR: CRC Error interrupt.
1244:cmsis/device/stm32f4xx_spi.c ****   *   
1245:cmsis/device/stm32f4xx_spi.c ****   * @note   OVR (OverRun Error) interrupt pending bit is cleared by software 
1246:cmsis/device/stm32f4xx_spi.c ****   *          sequence: a read operation to SPI_DR register (SPI_I2S_ReceiveData()) 
1247:cmsis/device/stm32f4xx_spi.c ****   *          followed by a read operation to SPI_SR register (SPI_I2S_GetITStatus()).
1248:cmsis/device/stm32f4xx_spi.c ****   * @note   UDR (UnderRun Error) interrupt pending bit is cleared by a read 
1249:cmsis/device/stm32f4xx_spi.c ****   *          operation to SPI_SR register (SPI_I2S_GetITStatus()).   
1250:cmsis/device/stm32f4xx_spi.c ****   * @note   MODF (Mode Fault) interrupt pending bit is cleared by software sequence:
1251:cmsis/device/stm32f4xx_spi.c ****   *          a read/write operation to SPI_SR register (SPI_I2S_GetITStatus()) 
1252:cmsis/device/stm32f4xx_spi.c ****   *          followed by a write operation to SPI_CR1 register (SPI_Cmd() to enable 
1253:cmsis/device/stm32f4xx_spi.c ****   *          the SPI).
1254:cmsis/device/stm32f4xx_spi.c ****   * @retval None
1255:cmsis/device/stm32f4xx_spi.c ****   */
1256:cmsis/device/stm32f4xx_spi.c **** void SPI_I2S_ClearITPendingBit(SPI_TypeDef* SPIx, uint8_t SPI_I2S_IT)
1257:cmsis/device/stm32f4xx_spi.c **** {
 1158              		.loc 1 1257 0
 1159              		.cfi_startproc
 1160              		@ args = 0, pretend = 0, frame = 0
 1161              		@ frame_needed = 0, uses_anonymous_args = 0
 1162              		@ link register save eliminated.
 1163              	.LVL108:
1258:cmsis/device/stm32f4xx_spi.c ****   uint16_t itpos = 0;
1259:cmsis/device/stm32f4xx_spi.c ****   /* Check the parameters */
1260:cmsis/device/stm32f4xx_spi.c ****   assert_param(IS_SPI_ALL_PERIPH_EXT(SPIx));
1261:cmsis/device/stm32f4xx_spi.c ****   assert_param(IS_SPI_I2S_CLEAR_IT(SPI_I2S_IT));
ARM GAS  C:\Users\CNous\AppData\Local\Temp\ccipJbk0.s 			page 45


1262:cmsis/device/stm32f4xx_spi.c **** 
1263:cmsis/device/stm32f4xx_spi.c ****   /* Get the SPI_I2S IT index */
1264:cmsis/device/stm32f4xx_spi.c ****   itpos = 0x01 << (SPI_I2S_IT & 0x0F);
 1164              		.loc 1 1264 0
 1165 0000 01F00F01 		and	r1, r1, #15	@ tmp142, SPI_I2S_IT,
 1166              	.LVL109:
 1167 0004 0123     		movs	r3, #1	@ tmp144,
 1168 0006 03FA01F2 		lsl	r2, r3, r1	@ tmp143, tmp144, tmp142
1265:cmsis/device/stm32f4xx_spi.c **** 
1266:cmsis/device/stm32f4xx_spi.c ****   /* Clear the selected SPI CRC Error (CRCERR) interrupt pending bit */
1267:cmsis/device/stm32f4xx_spi.c ****   SPIx->SR = (uint16_t)~itpos;
 1169              		.loc 1 1267 0
 1170 000a D143     		mvns	r1, r2	@ tmp146, tmp143
 1171 000c 8BB2     		uxth	r3, r1	@ D.6627, tmp146
 1172 000e 0381     		strh	r3, [r0, #8]	@ movhi	@ D.6627, SPIx_8(D)->SR
 1173 0010 7047     		bx	lr	@
 1174              		.cfi_endproc
 1175              	.LFE134:
 1176              		.size	SPI_I2S_ClearITPendingBit, .-SPI_I2S_ClearITPendingBit
 1177 0012 00BF     		.text
 1178              	.Letext0:
 1179              		.file 2 "c:\\gnutoolsarmembedded\\4.7-2012q4\\bin\\../lib/gcc/arm-none-eabi/4.7.3/../../../../arm-
 1180              		.file 3 "cmsis/device/stm32f4xx.h"
 1181              		.file 4 "cmsis/device/stm32f4xx_spi.h"
 1182              		.file 5 "./cmsis/core/core_cm4.h"
 1183              		.file 6 "./cmsis/device/stm32f4xx_rcc.h"