ARM GAS  C:\Users\CNous\AppData\Local\Temp\ccCDm0MK.s 			page 1


   1              		.syntax unified
   2              		.cpu cortex-m4
   3              		.eabi_attribute 27, 3	@ Tag_ABI_HardFP_use
   4              		.eabi_attribute 28, 1	@ Tag_ABI_VFP_args
   5              		.fpu fpv4-sp-d16
   6              		.eabi_attribute 20, 1	@ Tag_ABI_FP_denormal
   7              		.eabi_attribute 21, 1	@ Tag_ABI_FP_exceptions
   8              		.eabi_attribute 23, 3	@ Tag_ABI_FP_number_model
   9              		.eabi_attribute 24, 1	@ Tag_ABI_align8_needed
  10              		.eabi_attribute 25, 1	@ Tag_ABI_align8_preserved
  11              		.eabi_attribute 26, 1	@ Tag_ABI_enum_size
  12              		.eabi_attribute 30, 2	@ Tag_ABI_optimization_goals
  13              		.eabi_attribute 34, 1	@ Tag_CPU_unaligned_access
  14              		.eabi_attribute 18, 4	@ Tag_ABI_PCS_wchar_t
  15              		.file	"stm32f4xx_rtc.c"
  16              	@ GNU C (GNU Tools for ARM Embedded Processors) version 4.7.3 20121207 (release) [ARM/embedded-4_7-
  17              	@	compiled by GNU C version 4.2.1-sjlj (mingw32-2), GMP version 4.3.2, MPFR version 2.4.2, MPC vers
  18              	@ GGC heuristics: --param ggc-min-expand=100 --param ggc-min-heapsize=131072
  19              	@ options passed:  -I . -I ./inc -I ./cmsis/core -I ./cmsis/device
  20              	@ -imultilib armv7e-m/fpu
  21              	@ -iprefix c:\gnutoolsarmembedded\4.7-2012q4\bin\../lib/gcc/arm-none-eabi/4.7.3/
  22              	@ -isysroot c:\gnutoolsarmembedded\4.7-2012q4\bin\../arm-none-eabi
  23              	@ -MD cmsis/device/stm32f4xx_rtc.d -MF .dep/stm32f4xx_rtc.o.d -MP
  24              	@ -MQ cmsis/device/stm32f4xx_rtc.o -D__USES_INITFINI__ -D __FPU_USED=1
  25              	@ -D __arm__ -D __ASSEMBLY__ -D USE_STDPERIPH_DRIVER -D STM32F4XX
  26              	@ -D HSE_VALUE=8000000 -D __FPU_PRESENT=1 -D STM32F407VG
  27              	@ -D RUN_FROM_FLASH=1 cmsis/device/stm32f4xx_rtc.c -mthumb -mcpu=cortex-m4
  28              	@ -mfloat-abi=hard -mfpu=fpv4-sp-d16
  29              	@ -auxbase-strip cmsis/device/stm32f4xx_rtc.o -gdwarf-2 -O2 -Wall
  30              	@ -Wstrict-prototypes -fverbose-asm -ffunction-sections -fdata-sections
  31              	@ options enabled:  -fauto-inc-dec -fbranch-count-reg -fcaller-saves
  32              	@ -fcombine-stack-adjustments -fcommon -fcompare-elim -fcprop-registers
  33              	@ -fcrossjumping -fcse-follow-jumps -fdata-sections -fdebug-types-section
  34              	@ -fdefer-pop -fdelete-null-pointer-checks -fdevirtualize -fdwarf2-cfi-asm
  35              	@ -fearly-inlining -feliminate-unused-debug-types -fexpensive-optimizations
  36              	@ -fforward-propagate -ffunction-cse -ffunction-sections -fgcse -fgcse-lm
  37              	@ -fgnu-runtime -fguess-branch-probability -fident -fif-conversion
  38              	@ -fif-conversion2 -findirect-inlining -finline -finline-atomics
  39              	@ -finline-functions-called-once -finline-small-functions -fipa-cp
  40              	@ -fipa-profile -fipa-pure-const -fipa-reference -fipa-sra
  41              	@ -fira-share-save-slots -fira-share-spill-slots -fivopts
  42              	@ -fkeep-static-consts -fleading-underscore -fmath-errno -fmerge-constants
  43              	@ -fmerge-debug-strings -fmove-loop-invariants -fomit-frame-pointer
  44              	@ -foptimize-register-move -foptimize-sibling-calls -foptimize-strlen
  45              	@ -fpartial-inlining -fpeephole -fpeephole2 -fprefetch-loop-arrays
  46              	@ -freg-struct-return -fregmove -frename-registers -freorder-blocks
  47              	@ -freorder-functions -frerun-cse-after-loop
  48              	@ -fsched-critical-path-heuristic -fsched-dep-count-heuristic
  49              	@ -fsched-group-heuristic -fsched-interblock -fsched-last-insn-heuristic
  50              	@ -fsched-rank-heuristic -fsched-spec -fsched-spec-insn-heuristic
  51              	@ -fsched-stalled-insns-dep -fschedule-insns -fschedule-insns2
  52              	@ -fsection-anchors -fshow-column -fshrink-wrap -fsigned-zeros
  53              	@ -fsplit-ivs-in-unroller -fsplit-wide-types -fstrict-aliasing
  54              	@ -fstrict-overflow -fstrict-volatile-bitfields -fthread-jumps
  55              	@ -ftoplevel-reorder -ftrapping-math -ftree-bit-ccp -ftree-builtin-call-dce
  56              	@ -ftree-ccp -ftree-ch -ftree-copy-prop -ftree-copyrename -ftree-cselim
  57              	@ -ftree-dce -ftree-dominator-opts -ftree-dse -ftree-forwprop -ftree-fre
ARM GAS  C:\Users\CNous\AppData\Local\Temp\ccCDm0MK.s 			page 2


  58              	@ -ftree-loop-if-convert -ftree-loop-im -ftree-loop-ivcanon
  59              	@ -ftree-loop-optimize -ftree-parallelize-loops= -ftree-phiprop -ftree-pre
  60              	@ -ftree-pta -ftree-reassoc -ftree-scev-cprop -ftree-sink
  61              	@ -ftree-slp-vectorize -ftree-sra -ftree-switch-conversion
  62              	@ -ftree-tail-merge -ftree-ter -ftree-vect-loop-version -ftree-vrp
  63              	@ -funit-at-a-time -funroll-loops -fvar-tracking -fvar-tracking-assignments
  64              	@ -fverbose-asm -fweb -fzero-initialized-in-bss -mlittle-endian
  65              	@ -msched-prolog -mthumb -munaligned-access -mvectorize-with-neon-quad
  66              	
  67              		.text
  68              	.Ltext0:
  69              		.cfi_sections	.debug_frame
  70              		.section	.text.RTC_StructInit,"ax",%progbits
  71              		.align	2
  72              		.global	RTC_StructInit
  73              		.thumb
  74              		.thumb_func
  75              		.type	RTC_StructInit, %function
  76              	RTC_StructInit:
  77              	.LFB112:
  78              		.file 1 "cmsis/device/stm32f4xx_rtc.c"
   1:cmsis/device/stm32f4xx_rtc.c **** /**
   2:cmsis/device/stm32f4xx_rtc.c ****   ******************************************************************************
   3:cmsis/device/stm32f4xx_rtc.c ****   * @file    stm32f4xx_rtc.c
   4:cmsis/device/stm32f4xx_rtc.c ****   * @author  MCD Application Team
   5:cmsis/device/stm32f4xx_rtc.c ****   * @version V1.0.0
   6:cmsis/device/stm32f4xx_rtc.c ****   * @date    30-September-2011
   7:cmsis/device/stm32f4xx_rtc.c ****   * @brief   This file provides firmware functions to manage the following 
   8:cmsis/device/stm32f4xx_rtc.c ****   *          functionalities of the Real-Time Clock (RTC) peripheral:
   9:cmsis/device/stm32f4xx_rtc.c ****   *           - Initialization
  10:cmsis/device/stm32f4xx_rtc.c ****   *           - Calendar (Time and Date) configuration
  11:cmsis/device/stm32f4xx_rtc.c ****   *           - Alarms (Alarm A and Alarm B) configuration
  12:cmsis/device/stm32f4xx_rtc.c ****   *           - WakeUp Timer configuration
  13:cmsis/device/stm32f4xx_rtc.c ****   *           - Daylight Saving configuration
  14:cmsis/device/stm32f4xx_rtc.c ****   *           - Output pin Configuration
  15:cmsis/device/stm32f4xx_rtc.c ****   *           - Coarse digital Calibration configuration
  16:cmsis/device/stm32f4xx_rtc.c ****   *           - Smooth digital Calibration configuration
  17:cmsis/device/stm32f4xx_rtc.c ****   *           - TimeStamp configuration
  18:cmsis/device/stm32f4xx_rtc.c ****   *           - Tampers configuration
  19:cmsis/device/stm32f4xx_rtc.c ****   *           - Backup Data Registers configuration
  20:cmsis/device/stm32f4xx_rtc.c ****   *           - Shift control synchronisation    
  21:cmsis/device/stm32f4xx_rtc.c ****   *           - RTC Tamper and TimeStamp Pins Selection and Output Type Config configuration
  22:cmsis/device/stm32f4xx_rtc.c ****   *           - Interrupts and flags management
  23:cmsis/device/stm32f4xx_rtc.c ****   *
  24:cmsis/device/stm32f4xx_rtc.c ****   *  @verbatim
  25:cmsis/device/stm32f4xx_rtc.c ****   *
  26:cmsis/device/stm32f4xx_rtc.c ****   *          ===================================================================
  27:cmsis/device/stm32f4xx_rtc.c ****   *                               Backup Domain Operating Condition
  28:cmsis/device/stm32f4xx_rtc.c ****   *          ===================================================================
  29:cmsis/device/stm32f4xx_rtc.c ****   *          The real-time clock (RTC), the RTC backup registers, and the backup 
  30:cmsis/device/stm32f4xx_rtc.c ****   *          SRAM (BKP SRAM) can be powered from the VBAT voltage when the main 
  31:cmsis/device/stm32f4xx_rtc.c ****   *          VDD supply is powered off.
  32:cmsis/device/stm32f4xx_rtc.c ****   *          To retain the content of the RTC backup registers, backup SRAM, 
  33:cmsis/device/stm32f4xx_rtc.c ****   *          and supply the RTC when VDD is turned off, VBAT pin can be connected 
  34:cmsis/device/stm32f4xx_rtc.c ****   *          to an optional standby voltage supplied by a battery or by another 
  35:cmsis/device/stm32f4xx_rtc.c ****   *          source.
  36:cmsis/device/stm32f4xx_rtc.c ****   *
ARM GAS  C:\Users\CNous\AppData\Local\Temp\ccCDm0MK.s 			page 3


  37:cmsis/device/stm32f4xx_rtc.c ****   *          To allow the RTC to operate even when the main digital supply (VDD) 
  38:cmsis/device/stm32f4xx_rtc.c ****   *          is turned off, the VBAT pin powers the following blocks:
  39:cmsis/device/stm32f4xx_rtc.c ****   *            1 - The RTC
  40:cmsis/device/stm32f4xx_rtc.c ****   *            2 - The LSE oscillator
  41:cmsis/device/stm32f4xx_rtc.c ****   *            3 - The backup SRAM when the low power backup regulator is enabled
  42:cmsis/device/stm32f4xx_rtc.c ****   *            4 - PC13 to PC15 I/Os, plus PI8 I/O (when available)
  43:cmsis/device/stm32f4xx_rtc.c ****   *
  44:cmsis/device/stm32f4xx_rtc.c ****   *          When the backup domain is supplied by VDD (analog switch connected 
  45:cmsis/device/stm32f4xx_rtc.c ****   *          to VDD), the following functions are available:
  46:cmsis/device/stm32f4xx_rtc.c ****   *            1 - PC14 and PC15 can be used as either GPIO or LSE pins
  47:cmsis/device/stm32f4xx_rtc.c ****   *            2 - PC13 can be used as a GPIO or as the RTC_AF1 pin
  48:cmsis/device/stm32f4xx_rtc.c ****   *            3 - PI8 can be used as a GPIO or as the RTC_AF2 pin
  49:cmsis/device/stm32f4xx_rtc.c ****   *
  50:cmsis/device/stm32f4xx_rtc.c ****   *          When the backup domain is supplied by VBAT (analog switch connected 
  51:cmsis/device/stm32f4xx_rtc.c ****   *          to VBAT because VDD is not present), the following functions are available:
  52:cmsis/device/stm32f4xx_rtc.c ****   *            1 - PC14 and PC15 can be used as LSE pins only
  53:cmsis/device/stm32f4xx_rtc.c ****   *            2 - PC13 can be used as the RTC_AF1 pin 
  54:cmsis/device/stm32f4xx_rtc.c ****   *            3 - PI8 can be used as the RTC_AF2 pin
  55:cmsis/device/stm32f4xx_rtc.c ****   *
  56:cmsis/device/stm32f4xx_rtc.c ****   *          ===================================================================
  57:cmsis/device/stm32f4xx_rtc.c ****   *                                    Backup Domain Reset
  58:cmsis/device/stm32f4xx_rtc.c ****   *          ===================================================================
  59:cmsis/device/stm32f4xx_rtc.c ****   *          The backup domain reset sets all RTC registers and the RCC_BDCR 
  60:cmsis/device/stm32f4xx_rtc.c ****   *          register to their reset values. The BKPSRAM is not affected by this
  61:cmsis/device/stm32f4xx_rtc.c ****   *          reset. The only way of resetting the BKPSRAM is through the Flash 
  62:cmsis/device/stm32f4xx_rtc.c ****   *          interface by requesting a protection level change from 1 to 0.
  63:cmsis/device/stm32f4xx_rtc.c ****   *          A backup domain reset is generated when one of the following events
  64:cmsis/device/stm32f4xx_rtc.c ****   *          occurs:
  65:cmsis/device/stm32f4xx_rtc.c ****   *            1 - Software reset, triggered by setting the BDRST bit in the 
  66:cmsis/device/stm32f4xx_rtc.c ****   *                RCC Backup domain control register (RCC_BDCR). You can use the
  67:cmsis/device/stm32f4xx_rtc.c ****   *                RCC_BackupResetCmd().
  68:cmsis/device/stm32f4xx_rtc.c ****   *            2 - VDD or VBAT power on, if both supplies have previously been
  69:cmsis/device/stm32f4xx_rtc.c ****   *                powered off.
  70:cmsis/device/stm32f4xx_rtc.c ****   *
  71:cmsis/device/stm32f4xx_rtc.c ****   *          ===================================================================
  72:cmsis/device/stm32f4xx_rtc.c ****   *                                   Backup Domain Access
  73:cmsis/device/stm32f4xx_rtc.c ****   *          ===================================================================
  74:cmsis/device/stm32f4xx_rtc.c ****   *          After reset, the backup domain (RTC registers, RTC backup data 
  75:cmsis/device/stm32f4xx_rtc.c ****   *          registers and backup SRAM) is protected against possible unwanted 
  76:cmsis/device/stm32f4xx_rtc.c ****   *          write accesses. 
  77:cmsis/device/stm32f4xx_rtc.c ****   *          To enable access to the RTC Domain and RTC registers, proceed as follows:
  78:cmsis/device/stm32f4xx_rtc.c ****   *            - Enable the Power Controller (PWR) APB1 interface clock using the
  79:cmsis/device/stm32f4xx_rtc.c ****   *              RCC_APB1PeriphClockCmd() function.
  80:cmsis/device/stm32f4xx_rtc.c ****   *            - Enable access to RTC domain using the PWR_BackupAccessCmd() function.
  81:cmsis/device/stm32f4xx_rtc.c ****   *            - Select the RTC clock source using the RCC_RTCCLKConfig() function.
  82:cmsis/device/stm32f4xx_rtc.c ****   *            - Enable RTC Clock using the RCC_RTCCLKCmd() function.
  83:cmsis/device/stm32f4xx_rtc.c ****   *
  84:cmsis/device/stm32f4xx_rtc.c ****   *          ===================================================================
  85:cmsis/device/stm32f4xx_rtc.c ****   *                                   RTC Driver: how to use it
  86:cmsis/device/stm32f4xx_rtc.c ****   *          ===================================================================
  87:cmsis/device/stm32f4xx_rtc.c ****   *            - Enable the RTC domain access (see description in the section above)
  88:cmsis/device/stm32f4xx_rtc.c ****   *            - Configure the RTC Prescaler (Asynchronous and Synchronous) and
  89:cmsis/device/stm32f4xx_rtc.c ****   *              RTC hour format using the RTC_Init() function.
  90:cmsis/device/stm32f4xx_rtc.c ****   *
  91:cmsis/device/stm32f4xx_rtc.c ****   *          Time and Date configuration
  92:cmsis/device/stm32f4xx_rtc.c ****   *          ===========================
  93:cmsis/device/stm32f4xx_rtc.c ****   *            - To configure the RTC Calendar (Time and Date) use the RTC_SetTime()
ARM GAS  C:\Users\CNous\AppData\Local\Temp\ccCDm0MK.s 			page 4


  94:cmsis/device/stm32f4xx_rtc.c ****   *              and RTC_SetDate() functions.
  95:cmsis/device/stm32f4xx_rtc.c ****   *            - To read the RTC Calendar, use the RTC_GetTime() and RTC_GetDate()
  96:cmsis/device/stm32f4xx_rtc.c ****   *              functions.
  97:cmsis/device/stm32f4xx_rtc.c ****   *            - Use the RTC_DayLightSavingConfig() function to add or sub one
  98:cmsis/device/stm32f4xx_rtc.c ****   *              hour to the RTC Calendar.    
  99:cmsis/device/stm32f4xx_rtc.c ****   *
 100:cmsis/device/stm32f4xx_rtc.c ****   *          Alarm configuration
 101:cmsis/device/stm32f4xx_rtc.c ****   *          ===================
 102:cmsis/device/stm32f4xx_rtc.c ****   *            - To configure the RTC Alarm use the RTC_SetAlarm() function.
 103:cmsis/device/stm32f4xx_rtc.c ****   *            - Enable the selected RTC Alarm using the RTC_AlarmCmd() function
 104:cmsis/device/stm32f4xx_rtc.c ****   *            - To read the RTC Alarm, use the RTC_GetAlarm() function.
 105:cmsis/device/stm32f4xx_rtc.c ****   *            - To read the RTC alarm SubSecond, use the RTC_GetAlarmSubSecond() function.
 106:cmsis/device/stm32f4xx_rtc.c ****   *
 107:cmsis/device/stm32f4xx_rtc.c ****   *          RTC Wakeup configuration
 108:cmsis/device/stm32f4xx_rtc.c ****   *          ========================
 109:cmsis/device/stm32f4xx_rtc.c ****   *            - Configure the RTC Wakeup Clock source use the RTC_WakeUpClockConfig()
 110:cmsis/device/stm32f4xx_rtc.c ****   *              function.
 111:cmsis/device/stm32f4xx_rtc.c ****   *            - Configure the RTC WakeUp Counter using the RTC_SetWakeUpCounter() 
 112:cmsis/device/stm32f4xx_rtc.c ****   *              function  
 113:cmsis/device/stm32f4xx_rtc.c ****   *            - Enable the RTC WakeUp using the RTC_WakeUpCmd() function  
 114:cmsis/device/stm32f4xx_rtc.c ****   *            - To read the RTC WakeUp Counter register, use the RTC_GetWakeUpCounter() 
 115:cmsis/device/stm32f4xx_rtc.c ****   *              function.
 116:cmsis/device/stm32f4xx_rtc.c ****   *
 117:cmsis/device/stm32f4xx_rtc.c ****   *          Outputs configuration
 118:cmsis/device/stm32f4xx_rtc.c ****   *          =====================
 119:cmsis/device/stm32f4xx_rtc.c ****   *          The RTC has 2 different outputs:
 120:cmsis/device/stm32f4xx_rtc.c ****   *            - AFO_ALARM: this output is used to manage the RTC Alarm A, Alarm B
 121:cmsis/device/stm32f4xx_rtc.c ****   *              and WaKeUp signals.          
 122:cmsis/device/stm32f4xx_rtc.c ****   *              To output the selected RTC signal on RTC_AF1 pin, use the 
 123:cmsis/device/stm32f4xx_rtc.c ****   *              RTC_OutputConfig() function.                
 124:cmsis/device/stm32f4xx_rtc.c ****   *            - AFO_CALIB: this output is 512Hz signal or 1Hz .  
 125:cmsis/device/stm32f4xx_rtc.c ****   *              To output the RTC Clock on RTC_AF1 pin, use the RTC_CalibOutputCmd()
 126:cmsis/device/stm32f4xx_rtc.c ****   *              function.
 127:cmsis/device/stm32f4xx_rtc.c ****   *
 128:cmsis/device/stm32f4xx_rtc.c ****   *          Smooth digital Calibration configuration
 129:cmsis/device/stm32f4xx_rtc.c ****   *          =================================    
 130:cmsis/device/stm32f4xx_rtc.c ****   *            - Configure the RTC Original Digital Calibration Value and the corresponding
 131:cmsis/device/stm32f4xx_rtc.c ****   *              calibration cycle period (32s,16s and 8s) using the RTC_SmoothCalibConfig() 
 132:cmsis/device/stm32f4xx_rtc.c ****   *              function.
 133:cmsis/device/stm32f4xx_rtc.c ****   *
 134:cmsis/device/stm32f4xx_rtc.c ****   *          Coarse digital Calibration configuration
 135:cmsis/device/stm32f4xx_rtc.c ****   *          =================================
 136:cmsis/device/stm32f4xx_rtc.c ****   *            - Configure the RTC Coarse Calibration Value and the corresponding
 137:cmsis/device/stm32f4xx_rtc.c ****   *              sign using the RTC_CoarseCalibConfig() function.
 138:cmsis/device/stm32f4xx_rtc.c ****   *            - Enable the RTC Coarse Calibration using the RTC_CoarseCalibCmd() 
 139:cmsis/device/stm32f4xx_rtc.c ****   *              function  
 140:cmsis/device/stm32f4xx_rtc.c ****   *
 141:cmsis/device/stm32f4xx_rtc.c ****   *          TimeStamp configuration
 142:cmsis/device/stm32f4xx_rtc.c ****   *          =======================
 143:cmsis/device/stm32f4xx_rtc.c ****   *            - Configure the RTC_AF1 trigger and enables the RTC TimeStamp 
 144:cmsis/device/stm32f4xx_rtc.c ****   *              using the RTC_TimeStampCmd() function.
 145:cmsis/device/stm32f4xx_rtc.c ****   *            - To read the RTC TimeStamp Time and Date register, use the 
 146:cmsis/device/stm32f4xx_rtc.c ****   *              RTC_GetTimeStamp() function.
 147:cmsis/device/stm32f4xx_rtc.c ****   *            - To read the RTC TimeStamp SubSecond register, use the 
 148:cmsis/device/stm32f4xx_rtc.c ****   *              RTC_GetTimeStampSubSecond() function.
 149:cmsis/device/stm32f4xx_rtc.c ****   *            - The TAMPER1 alternate function can be mapped either to RTC_AF1(PC13)
 150:cmsis/device/stm32f4xx_rtc.c ****   *              or RTC_AF2 (PI8) depending on the value of TAMP1INSEL bit in 
ARM GAS  C:\Users\CNous\AppData\Local\Temp\ccCDm0MK.s 			page 5


 151:cmsis/device/stm32f4xx_rtc.c ****   *              RTC_TAFCR register. You can use the  RTC_TamperPinSelection()
 152:cmsis/device/stm32f4xx_rtc.c ****   *              function to select the corresponding pin.     
 153:cmsis/device/stm32f4xx_rtc.c ****   *
 154:cmsis/device/stm32f4xx_rtc.c ****   *          Tamper configuration
 155:cmsis/device/stm32f4xx_rtc.c ****   *          ====================
 156:cmsis/device/stm32f4xx_rtc.c ****   *            - Enable the RTC Tamper using the RTC_TamperCmd() function.
 157:cmsis/device/stm32f4xx_rtc.c ****   *             - Configure the Tamper filter count using RTC_TamperFilterConfig()
 158:cmsis/device/stm32f4xx_rtc.c ****   *              function. 
 159:cmsis/device/stm32f4xx_rtc.c ****   *            - Configure the RTC Tamper trigger Edge or Level according to the Tamper 
 160:cmsis/device/stm32f4xx_rtc.c ****   *              filter (if equal to 0 Edge else Level) value using the RTC_TamperConfig() function
 161:cmsis/device/stm32f4xx_rtc.c ****   *            - Configure the Tamper sampling frequency using RTC_TamperSamplingFreqConfig()
 162:cmsis/device/stm32f4xx_rtc.c ****   *              function.
 163:cmsis/device/stm32f4xx_rtc.c ****   *            - Configure the Tamper precharge or discharge duration using 
 164:cmsis/device/stm32f4xx_rtc.c ****   *              RTC_TamperPinsPrechargeDuration() function.
 165:cmsis/device/stm32f4xx_rtc.c ****   *            - Enable the Tamper Pull-UP using RTC_TamperPullUpDisableCmd() function.
 166:cmsis/device/stm32f4xx_rtc.c ****   *            - Enable the Time stamp on Tamper detection event using  
 167:cmsis/device/stm32f4xx_rtc.c ****   *              RTC_TSOnTamperDetecCmd() function.
 168:cmsis/device/stm32f4xx_rtc.c ****   *            - The TIMESTAMP alternate function can be mapped to either RTC_AF1 
 169:cmsis/device/stm32f4xx_rtc.c ****   *              or RTC_AF2 depending on the value of the TSINSEL bit in the 
 170:cmsis/device/stm32f4xx_rtc.c ****   *              RTC_TAFCR register. You can use the  RTC_TimeStampPinSelection()
 171:cmsis/device/stm32f4xx_rtc.c ****   *              function to select the corresponding pin. 
 172:cmsis/device/stm32f4xx_rtc.c ****   *
 173:cmsis/device/stm32f4xx_rtc.c ****   *          Backup Data Registers configuration
 174:cmsis/device/stm32f4xx_rtc.c ****   *          ===================================
 175:cmsis/device/stm32f4xx_rtc.c ****   *            - To write to the RTC Backup Data registers, use the RTC_WriteBackupRegister()
 176:cmsis/device/stm32f4xx_rtc.c ****   *              function.  
 177:cmsis/device/stm32f4xx_rtc.c ****   *            - To read the RTC Backup Data registers, use the RTC_ReadBackupRegister()
 178:cmsis/device/stm32f4xx_rtc.c ****   *              function.
 179:cmsis/device/stm32f4xx_rtc.c ****   * 
 180:cmsis/device/stm32f4xx_rtc.c ****   *          ===================================================================
 181:cmsis/device/stm32f4xx_rtc.c ****   *                                  RTC and low power modes
 182:cmsis/device/stm32f4xx_rtc.c ****   *          ===================================================================
 183:cmsis/device/stm32f4xx_rtc.c ****   *           The MCU can be woken up from a low power mode by an RTC alternate 
 184:cmsis/device/stm32f4xx_rtc.c ****   *           function.
 185:cmsis/device/stm32f4xx_rtc.c ****   *           The RTC alternate functions are the RTC alarms (Alarm A and Alarm B), 
 186:cmsis/device/stm32f4xx_rtc.c ****   *           RTC wakeup, RTC tamper event detection and RTC time stamp event detection.
 187:cmsis/device/stm32f4xx_rtc.c ****   *           These RTC alternate functions can wake up the system from the Stop 
 188:cmsis/device/stm32f4xx_rtc.c ****   *           and Standby lowpower modes.
 189:cmsis/device/stm32f4xx_rtc.c ****   *           The system can also wake up from low power modes without depending 
 190:cmsis/device/stm32f4xx_rtc.c ****   *           on an external interrupt (Auto-wakeup mode), by using the RTC alarm 
 191:cmsis/device/stm32f4xx_rtc.c ****   *           or the RTC wakeup events.
 192:cmsis/device/stm32f4xx_rtc.c ****   *           The RTC provides a programmable time base for waking up from the 
 193:cmsis/device/stm32f4xx_rtc.c ****   *           Stop or Standby mode at regular intervals.
 194:cmsis/device/stm32f4xx_rtc.c ****   *           Wakeup from STOP and Standby modes is possible only when the RTC 
 195:cmsis/device/stm32f4xx_rtc.c ****   *           clock source is LSE or LSI.
 196:cmsis/device/stm32f4xx_rtc.c ****   *
 197:cmsis/device/stm32f4xx_rtc.c ****   *          ===================================================================
 198:cmsis/device/stm32f4xx_rtc.c ****   *                            Selection of RTC_AF1 alternate functions
 199:cmsis/device/stm32f4xx_rtc.c ****   *          ===================================================================
 200:cmsis/device/stm32f4xx_rtc.c ****   *          The RTC_AF1 pin (PC13) can be used for the following purposes:
 201:cmsis/device/stm32f4xx_rtc.c ****   *            - AFO_ALARM output
 202:cmsis/device/stm32f4xx_rtc.c ****   *            - AFO_CALIB output
 203:cmsis/device/stm32f4xx_rtc.c ****   *            - AFI_TAMPER
 204:cmsis/device/stm32f4xx_rtc.c ****   *            - AFI_TIMESTAMP
 205:cmsis/device/stm32f4xx_rtc.c ****   *
 206:cmsis/device/stm32f4xx_rtc.c ****   * +----------------------------------------------------------------------------------------------
 207:cmsis/device/stm32f4xx_rtc.c ****   * |     Pin         |AFO_ALARM |AFO_CALIB |AFI_TAMPER |AFI_TIMESTAMP | TAMP1INSEL |   TSINSEL    
ARM GAS  C:\Users\CNous\AppData\Local\Temp\ccCDm0MK.s 			page 6


 208:cmsis/device/stm32f4xx_rtc.c ****   * |  configuration  | ENABLED  | ENABLED  |  ENABLED  |   ENABLED    |TAMPER1 pin |TIMESTAMP pin 
 209:cmsis/device/stm32f4xx_rtc.c ****   * |  and function   |          |          |           |              | selection  |  selection   
 210:cmsis/device/stm32f4xx_rtc.c ****   * |-----------------|----------|----------|-----------|--------------|------------|--------------
 211:cmsis/device/stm32f4xx_rtc.c ****   * |   Alarm out     |          |          |           |              |    Don't   |     Don't    
 212:cmsis/device/stm32f4xx_rtc.c ****   * |   output OD     |     1    |Don't care|Don't care | Don't care   |    care    |     care     
 213:cmsis/device/stm32f4xx_rtc.c ****   * |-----------------|----------|----------|-----------|--------------|------------|--------------
 214:cmsis/device/stm32f4xx_rtc.c ****   * |   Alarm out     |          |          |           |              |    Don't   |     Don't    
 215:cmsis/device/stm32f4xx_rtc.c ****   * |   output PP     |     1    |Don't care|Don't care | Don't care   |    care    |     care     
 216:cmsis/device/stm32f4xx_rtc.c ****   * |-----------------|----------|----------|-----------|--------------|------------|--------------
 217:cmsis/device/stm32f4xx_rtc.c ****   * | Calibration out |          |          |           |              |    Don't   |     Don't    
 218:cmsis/device/stm32f4xx_rtc.c ****   * |   output PP     |     0    |    1     |Don't care | Don't care   |    care    |     care     
 219:cmsis/device/stm32f4xx_rtc.c ****   * |-----------------|----------|----------|-----------|--------------|------------|--------------
 220:cmsis/device/stm32f4xx_rtc.c ****   * |  TAMPER input   |          |          |           |              |            |     Don't    
 221:cmsis/device/stm32f4xx_rtc.c ****   * |   floating      |     0    |    0     |     1     |      0       |      0     |     care     
 222:cmsis/device/stm32f4xx_rtc.c ****   * |-----------------|----------|----------|-----------|--------------|------------|--------------
 223:cmsis/device/stm32f4xx_rtc.c ****   * |  TIMESTAMP and  |          |          |           |              |            |              
 224:cmsis/device/stm32f4xx_rtc.c ****   * |  TAMPER input   |     0    |    0     |     1     |      1       |      0     |      0       
 225:cmsis/device/stm32f4xx_rtc.c ****   * |   floating      |          |          |           |              |            |              
 226:cmsis/device/stm32f4xx_rtc.c ****   * |-----------------|----------|----------|-----------|--------------|------------|--------------
 227:cmsis/device/stm32f4xx_rtc.c ****   * | TIMESTAMP input |          |          |           |              |    Don't   |              
 228:cmsis/device/stm32f4xx_rtc.c ****   * |    floating     |     0    |    0     |     0     |      1       |    care    |      0       
 229:cmsis/device/stm32f4xx_rtc.c ****   * |-----------------|----------|----------|-----------|--------------|------------|--------------
 230:cmsis/device/stm32f4xx_rtc.c ****   * |  Standard GPIO  |     0    |    0     |     0     |      0       | Don't care |  Don't care  
 231:cmsis/device/stm32f4xx_rtc.c ****   * +----------------------------------------------------------------------------------------------
 232:cmsis/device/stm32f4xx_rtc.c ****   *
 233:cmsis/device/stm32f4xx_rtc.c ****   *
 234:cmsis/device/stm32f4xx_rtc.c ****   *          ===================================================================
 235:cmsis/device/stm32f4xx_rtc.c ****   *                            Selection of RTC_AF2 alternate functions
 236:cmsis/device/stm32f4xx_rtc.c ****   *          ===================================================================
 237:cmsis/device/stm32f4xx_rtc.c ****   *          The RTC_AF2 pin (PI8) can be used for the following purposes:
 238:cmsis/device/stm32f4xx_rtc.c ****   *            - AFI_TAMPER
 239:cmsis/device/stm32f4xx_rtc.c ****   *            - AFI_TIMESTAMP
 240:cmsis/device/stm32f4xx_rtc.c ****   *
 241:cmsis/device/stm32f4xx_rtc.c ****   * +---------------------------------------------------------------------------------------+
 242:cmsis/device/stm32f4xx_rtc.c ****   * |     Pin         |AFI_TAMPER |AFI_TIMESTAMP | TAMP1INSEL |   TSINSEL    |ALARMOUTTYPE  |
 243:cmsis/device/stm32f4xx_rtc.c ****   * |  configuration  |  ENABLED  |   ENABLED    |TAMPER1 pin |TIMESTAMP pin |  AFO_ALARM   |
 244:cmsis/device/stm32f4xx_rtc.c ****   * |  and function   |           |              | selection  |  selection   |Configuration |
 245:cmsis/device/stm32f4xx_rtc.c ****   * |-----------------|-----------|--------------|------------|--------------|--------------|
 246:cmsis/device/stm32f4xx_rtc.c ****   * |  TAMPER input   |           |              |            |     Don't    |              |
 247:cmsis/device/stm32f4xx_rtc.c ****   * |   floating      |     1     |      0       |      1     |     care     |  Don't care  |
 248:cmsis/device/stm32f4xx_rtc.c ****   * |-----------------|-----------|--------------|------------|--------------|--------------|
 249:cmsis/device/stm32f4xx_rtc.c ****   * |  TIMESTAMP and  |           |              |            |              |              |
 250:cmsis/device/stm32f4xx_rtc.c ****   * |  TAMPER input   |     1     |      1       |      1     |      1       |  Don't care  |
 251:cmsis/device/stm32f4xx_rtc.c ****   * |   floating      |           |              |            |              |              |
 252:cmsis/device/stm32f4xx_rtc.c ****   * |-----------------|-----------|--------------|------------|--------------|--------------|
 253:cmsis/device/stm32f4xx_rtc.c ****   * | TIMESTAMP input |           |              |    Don't   |              |              |
 254:cmsis/device/stm32f4xx_rtc.c ****   * |    floating     |     0     |      1       |    care    |      1       |  Don't care  |
 255:cmsis/device/stm32f4xx_rtc.c ****   * |-----------------|-----------|--------------|------------|--------------|--------------|
 256:cmsis/device/stm32f4xx_rtc.c ****   * |  Standard GPIO  |     0     |      0       | Don't care |  Don't care  |  Don't care  |
 257:cmsis/device/stm32f4xx_rtc.c ****   * +---------------------------------------------------------------------------------------+
 258:cmsis/device/stm32f4xx_rtc.c ****   * 
 259:cmsis/device/stm32f4xx_rtc.c ****   *
 260:cmsis/device/stm32f4xx_rtc.c ****   *  @endverbatim
 261:cmsis/device/stm32f4xx_rtc.c ****   *
 262:cmsis/device/stm32f4xx_rtc.c ****   ******************************************************************************
 263:cmsis/device/stm32f4xx_rtc.c ****   * @attention
 264:cmsis/device/stm32f4xx_rtc.c ****   *
ARM GAS  C:\Users\CNous\AppData\Local\Temp\ccCDm0MK.s 			page 7


 265:cmsis/device/stm32f4xx_rtc.c ****   * THE PRESENT FIRMWARE WHICH IS FOR GUIDANCE ONLY AIMS AT PROVIDING CUSTOMERS
 266:cmsis/device/stm32f4xx_rtc.c ****   * WITH CODING INFORMATION REGARDING THEIR PRODUCTS IN ORDER FOR THEM TO SAVE
 267:cmsis/device/stm32f4xx_rtc.c ****   * TIME. AS A RESULT, STMICROELECTRONICS SHALL NOT BE HELD LIABLE FOR ANY
 268:cmsis/device/stm32f4xx_rtc.c ****   * DIRECT, INDIRECT OR CONSEQUENTIAL DAMAGES WITH RESPECT TO ANY CLAIMS ARISING
 269:cmsis/device/stm32f4xx_rtc.c ****   * FROM THE CONTENT OF SUCH FIRMWARE AND/OR THE USE MADE BY CUSTOMERS OF THE
 270:cmsis/device/stm32f4xx_rtc.c ****   * CODING INFORMATION CONTAINED HEREIN IN CONNECTION WITH THEIR PRODUCTS.
 271:cmsis/device/stm32f4xx_rtc.c ****   *
 272:cmsis/device/stm32f4xx_rtc.c ****   * <h2><center>&copy; COPYRIGHT 2011 STMicroelectronics</center></h2>
 273:cmsis/device/stm32f4xx_rtc.c ****   ******************************************************************************
 274:cmsis/device/stm32f4xx_rtc.c ****   */ 
 275:cmsis/device/stm32f4xx_rtc.c **** 
 276:cmsis/device/stm32f4xx_rtc.c **** /* Includes ------------------------------------------------------------------*/
 277:cmsis/device/stm32f4xx_rtc.c **** #include "stm32f4xx_rtc.h"
 278:cmsis/device/stm32f4xx_rtc.c **** #include "stm32f4xx_rcc.h"
 279:cmsis/device/stm32f4xx_rtc.c **** 
 280:cmsis/device/stm32f4xx_rtc.c **** /** @addtogroup STM32F4xx_StdPeriph_Driver
 281:cmsis/device/stm32f4xx_rtc.c ****   * @{
 282:cmsis/device/stm32f4xx_rtc.c ****   */
 283:cmsis/device/stm32f4xx_rtc.c **** 
 284:cmsis/device/stm32f4xx_rtc.c **** /** @defgroup RTC 
 285:cmsis/device/stm32f4xx_rtc.c ****   * @brief RTC driver modules
 286:cmsis/device/stm32f4xx_rtc.c ****   * @{
 287:cmsis/device/stm32f4xx_rtc.c ****   */
 288:cmsis/device/stm32f4xx_rtc.c **** 
 289:cmsis/device/stm32f4xx_rtc.c **** /* Private typedef -----------------------------------------------------------*/
 290:cmsis/device/stm32f4xx_rtc.c **** /* Private define ------------------------------------------------------------*/
 291:cmsis/device/stm32f4xx_rtc.c **** 
 292:cmsis/device/stm32f4xx_rtc.c **** /* Masks Definition */
 293:cmsis/device/stm32f4xx_rtc.c **** #define RTC_TR_RESERVED_MASK    ((uint32_t)0x007F7F7F)
 294:cmsis/device/stm32f4xx_rtc.c **** #define RTC_DR_RESERVED_MASK    ((uint32_t)0x00FFFF3F) 
 295:cmsis/device/stm32f4xx_rtc.c **** #define RTC_INIT_MASK           ((uint32_t)0xFFFFFFFF)  
 296:cmsis/device/stm32f4xx_rtc.c **** #define RTC_RSF_MASK            ((uint32_t)0xFFFFFF5F)
 297:cmsis/device/stm32f4xx_rtc.c **** #define RTC_FLAGS_MASK          ((uint32_t)(RTC_FLAG_TSOVF | RTC_FLAG_TSF | RTC_FLAG_WUTF | \
 298:cmsis/device/stm32f4xx_rtc.c ****                                             RTC_FLAG_ALRBF | RTC_FLAG_ALRAF | RTC_FLAG_INITF | \
 299:cmsis/device/stm32f4xx_rtc.c ****                                             RTC_FLAG_RSF | RTC_FLAG_INITS | RTC_FLAG_WUTWF | \
 300:cmsis/device/stm32f4xx_rtc.c ****                                             RTC_FLAG_ALRBWF | RTC_FLAG_ALRAWF | RTC_FLAG_TAMP1F ))
 301:cmsis/device/stm32f4xx_rtc.c **** 
 302:cmsis/device/stm32f4xx_rtc.c **** #define INITMODE_TIMEOUT         ((uint32_t) 0x00010000)
 303:cmsis/device/stm32f4xx_rtc.c **** #define SYNCHRO_TIMEOUT          ((uint32_t) 0x00020000)
 304:cmsis/device/stm32f4xx_rtc.c **** #define RECALPF_TIMEOUT          ((uint32_t) 0x00020000)
 305:cmsis/device/stm32f4xx_rtc.c **** #define SHPF_TIMEOUT             ((uint32_t) 0x00001000)
 306:cmsis/device/stm32f4xx_rtc.c **** 
 307:cmsis/device/stm32f4xx_rtc.c **** /* Private macro -------------------------------------------------------------*/
 308:cmsis/device/stm32f4xx_rtc.c **** /* Private variables ---------------------------------------------------------*/
 309:cmsis/device/stm32f4xx_rtc.c **** /* Private function prototypes -----------------------------------------------*/
 310:cmsis/device/stm32f4xx_rtc.c **** static uint8_t RTC_ByteToBcd2(uint8_t Value);
 311:cmsis/device/stm32f4xx_rtc.c **** static uint8_t RTC_Bcd2ToByte(uint8_t Value);
 312:cmsis/device/stm32f4xx_rtc.c **** 
 313:cmsis/device/stm32f4xx_rtc.c **** /* Private functions ---------------------------------------------------------*/
 314:cmsis/device/stm32f4xx_rtc.c **** 
 315:cmsis/device/stm32f4xx_rtc.c **** /** @defgroup RTC_Private_Functions
 316:cmsis/device/stm32f4xx_rtc.c ****   * @{
 317:cmsis/device/stm32f4xx_rtc.c ****   */ 
 318:cmsis/device/stm32f4xx_rtc.c **** 
 319:cmsis/device/stm32f4xx_rtc.c **** /** @defgroup RTC_Group1 Initialization and Configuration functions
 320:cmsis/device/stm32f4xx_rtc.c ****  *  @brief   Initialization and Configuration functions 
 321:cmsis/device/stm32f4xx_rtc.c ****  *
ARM GAS  C:\Users\CNous\AppData\Local\Temp\ccCDm0MK.s 			page 8


 322:cmsis/device/stm32f4xx_rtc.c **** @verbatim   
 323:cmsis/device/stm32f4xx_rtc.c ****  ===============================================================================
 324:cmsis/device/stm32f4xx_rtc.c ****                  Initialization and Configuration functions
 325:cmsis/device/stm32f4xx_rtc.c ****  ===============================================================================
 326:cmsis/device/stm32f4xx_rtc.c **** 
 327:cmsis/device/stm32f4xx_rtc.c ****   This section provide functions allowing to initialize and configure the RTC
 328:cmsis/device/stm32f4xx_rtc.c ****   Prescaler (Synchronous and Asynchronous), RTC Hour format, disable RTC registers
 329:cmsis/device/stm32f4xx_rtc.c ****   Write protection, enter and exit the RTC initialization mode, RTC registers
 330:cmsis/device/stm32f4xx_rtc.c ****   synchronization check and reference clock detection enable.
 331:cmsis/device/stm32f4xx_rtc.c ****   
 332:cmsis/device/stm32f4xx_rtc.c ****   1. The RTC Prescaler is programmed to generate the RTC 1Hz time base. It is
 333:cmsis/device/stm32f4xx_rtc.c ****      split into 2 programmable prescalers to minimize power consumption.
 334:cmsis/device/stm32f4xx_rtc.c ****      - A 7-bit asynchronous prescaler and A 13-bit synchronous prescaler.
 335:cmsis/device/stm32f4xx_rtc.c ****      - When both prescalers are used, it is recommended to configure the asynchronous
 336:cmsis/device/stm32f4xx_rtc.c ****        prescaler to a high value to minimize consumption.
 337:cmsis/device/stm32f4xx_rtc.c **** 
 338:cmsis/device/stm32f4xx_rtc.c ****   2. All RTC registers are Write protected. Writing to the RTC registers
 339:cmsis/device/stm32f4xx_rtc.c ****      is enabled by writing a key into the Write Protection register, RTC_WPR.
 340:cmsis/device/stm32f4xx_rtc.c **** 
 341:cmsis/device/stm32f4xx_rtc.c ****   3. To Configure the RTC Calendar, user application should enter initialization
 342:cmsis/device/stm32f4xx_rtc.c ****      mode. In this mode, the calendar counter is stopped and its value can be 
 343:cmsis/device/stm32f4xx_rtc.c ****      updated. When the initialization sequence is complete, the calendar restarts 
 344:cmsis/device/stm32f4xx_rtc.c ****      counting after 4 RTCCLK cycles.
 345:cmsis/device/stm32f4xx_rtc.c **** 
 346:cmsis/device/stm32f4xx_rtc.c ****   4. To read the calendar through the shadow registers after Calendar initialization,
 347:cmsis/device/stm32f4xx_rtc.c ****      calendar update or after wakeup from low power modes the software must first 
 348:cmsis/device/stm32f4xx_rtc.c ****      clear the RSF flag. The software must then wait until it is set again before 
 349:cmsis/device/stm32f4xx_rtc.c ****      reading the calendar, which means that the calendar registers have been 
 350:cmsis/device/stm32f4xx_rtc.c ****      correctly copied into the RTC_TR and RTC_DR shadow registers.
 351:cmsis/device/stm32f4xx_rtc.c ****      The RTC_WaitForSynchro() function implements the above software sequence 
 352:cmsis/device/stm32f4xx_rtc.c ****      (RSF clear and RSF check).
 353:cmsis/device/stm32f4xx_rtc.c **** 
 354:cmsis/device/stm32f4xx_rtc.c **** @endverbatim
 355:cmsis/device/stm32f4xx_rtc.c ****   * @{
 356:cmsis/device/stm32f4xx_rtc.c ****   */
 357:cmsis/device/stm32f4xx_rtc.c **** 
 358:cmsis/device/stm32f4xx_rtc.c **** /**
 359:cmsis/device/stm32f4xx_rtc.c ****   * @brief  Deinitializes the RTC registers to their default reset values.
 360:cmsis/device/stm32f4xx_rtc.c ****   * @note   This function doesn't reset the RTC Clock source and RTC Backup Data
 361:cmsis/device/stm32f4xx_rtc.c ****   *         registers.       
 362:cmsis/device/stm32f4xx_rtc.c ****   * @param  None
 363:cmsis/device/stm32f4xx_rtc.c ****   * @retval An ErrorStatus enumeration value:
 364:cmsis/device/stm32f4xx_rtc.c ****   *          - SUCCESS: RTC registers are deinitialized
 365:cmsis/device/stm32f4xx_rtc.c ****   *          - ERROR: RTC registers are not deinitialized
 366:cmsis/device/stm32f4xx_rtc.c ****   */
 367:cmsis/device/stm32f4xx_rtc.c **** ErrorStatus RTC_DeInit(void)
 368:cmsis/device/stm32f4xx_rtc.c **** {
 369:cmsis/device/stm32f4xx_rtc.c ****   __IO uint32_t wutcounter = 0x00;
 370:cmsis/device/stm32f4xx_rtc.c ****   uint32_t wutwfstatus = 0x00;
 371:cmsis/device/stm32f4xx_rtc.c ****   ErrorStatus status = ERROR;
 372:cmsis/device/stm32f4xx_rtc.c ****   
 373:cmsis/device/stm32f4xx_rtc.c ****   /* Disable the write protection for RTC registers */
 374:cmsis/device/stm32f4xx_rtc.c ****   RTC->WPR = 0xCA;
 375:cmsis/device/stm32f4xx_rtc.c ****   RTC->WPR = 0x53;
 376:cmsis/device/stm32f4xx_rtc.c **** 
 377:cmsis/device/stm32f4xx_rtc.c ****   /* Set Initialization mode */
 378:cmsis/device/stm32f4xx_rtc.c ****   if (RTC_EnterInitMode() == ERROR)
ARM GAS  C:\Users\CNous\AppData\Local\Temp\ccCDm0MK.s 			page 9


 379:cmsis/device/stm32f4xx_rtc.c ****   {
 380:cmsis/device/stm32f4xx_rtc.c ****     status = ERROR;
 381:cmsis/device/stm32f4xx_rtc.c ****   }  
 382:cmsis/device/stm32f4xx_rtc.c ****   else
 383:cmsis/device/stm32f4xx_rtc.c ****   {
 384:cmsis/device/stm32f4xx_rtc.c ****     /* Reset TR, DR and CR registers */
 385:cmsis/device/stm32f4xx_rtc.c ****     RTC->TR = (uint32_t)0x00000000;
 386:cmsis/device/stm32f4xx_rtc.c ****     RTC->DR = (uint32_t)0x00002101;
 387:cmsis/device/stm32f4xx_rtc.c ****     /* Reset All CR bits except CR[2:0] */
 388:cmsis/device/stm32f4xx_rtc.c ****     RTC->CR &= (uint32_t)0x00000007;
 389:cmsis/device/stm32f4xx_rtc.c ****   
 390:cmsis/device/stm32f4xx_rtc.c ****     /* Wait till RTC WUTWF flag is set and if Time out is reached exit */
 391:cmsis/device/stm32f4xx_rtc.c ****     do
 392:cmsis/device/stm32f4xx_rtc.c ****     {
 393:cmsis/device/stm32f4xx_rtc.c ****       wutwfstatus = RTC->ISR & RTC_ISR_WUTWF;
 394:cmsis/device/stm32f4xx_rtc.c ****       wutcounter++;  
 395:cmsis/device/stm32f4xx_rtc.c ****     } while((wutcounter != INITMODE_TIMEOUT) && (wutwfstatus == 0x00));
 396:cmsis/device/stm32f4xx_rtc.c ****     
 397:cmsis/device/stm32f4xx_rtc.c ****     if ((RTC->ISR & RTC_ISR_WUTWF) == RESET)
 398:cmsis/device/stm32f4xx_rtc.c ****     {
 399:cmsis/device/stm32f4xx_rtc.c ****       status = ERROR;
 400:cmsis/device/stm32f4xx_rtc.c ****     }
 401:cmsis/device/stm32f4xx_rtc.c ****     else
 402:cmsis/device/stm32f4xx_rtc.c ****     {
 403:cmsis/device/stm32f4xx_rtc.c ****       /* Reset all RTC CR register bits */
 404:cmsis/device/stm32f4xx_rtc.c ****       RTC->CR &= (uint32_t)0x00000000;
 405:cmsis/device/stm32f4xx_rtc.c ****       RTC->WUTR = (uint32_t)0x0000FFFF;
 406:cmsis/device/stm32f4xx_rtc.c ****       RTC->PRER = (uint32_t)0x007F00FF;
 407:cmsis/device/stm32f4xx_rtc.c ****       RTC->CALIBR = (uint32_t)0x00000000;
 408:cmsis/device/stm32f4xx_rtc.c ****       RTC->ALRMAR = (uint32_t)0x00000000;        
 409:cmsis/device/stm32f4xx_rtc.c ****       RTC->ALRMBR = (uint32_t)0x00000000;
 410:cmsis/device/stm32f4xx_rtc.c ****       
 411:cmsis/device/stm32f4xx_rtc.c ****       /* Reset ISR register and exit initialization mode */
 412:cmsis/device/stm32f4xx_rtc.c ****       RTC->ISR = (uint32_t)0x00000000;
 413:cmsis/device/stm32f4xx_rtc.c ****       
 414:cmsis/device/stm32f4xx_rtc.c ****       /* Reset Tamper and alternate functions configuration register */
 415:cmsis/device/stm32f4xx_rtc.c ****       RTC->TAFCR = 0x00000000;
 416:cmsis/device/stm32f4xx_rtc.c ****   
 417:cmsis/device/stm32f4xx_rtc.c ****       if(RTC_WaitForSynchro() == ERROR)
 418:cmsis/device/stm32f4xx_rtc.c ****       {
 419:cmsis/device/stm32f4xx_rtc.c ****         status = ERROR;
 420:cmsis/device/stm32f4xx_rtc.c ****       }
 421:cmsis/device/stm32f4xx_rtc.c ****       else
 422:cmsis/device/stm32f4xx_rtc.c ****       {
 423:cmsis/device/stm32f4xx_rtc.c ****         status = SUCCESS;      
 424:cmsis/device/stm32f4xx_rtc.c ****       }
 425:cmsis/device/stm32f4xx_rtc.c ****     }
 426:cmsis/device/stm32f4xx_rtc.c ****   }
 427:cmsis/device/stm32f4xx_rtc.c ****   
 428:cmsis/device/stm32f4xx_rtc.c ****   /* Enable the write protection for RTC registers */
 429:cmsis/device/stm32f4xx_rtc.c ****   RTC->WPR = 0xFF;  
 430:cmsis/device/stm32f4xx_rtc.c ****   
 431:cmsis/device/stm32f4xx_rtc.c ****   return status;
 432:cmsis/device/stm32f4xx_rtc.c **** }
 433:cmsis/device/stm32f4xx_rtc.c **** 
 434:cmsis/device/stm32f4xx_rtc.c **** /**
 435:cmsis/device/stm32f4xx_rtc.c ****   * @brief  Initializes the RTC registers according to the specified parameters 
ARM GAS  C:\Users\CNous\AppData\Local\Temp\ccCDm0MK.s 			page 10


 436:cmsis/device/stm32f4xx_rtc.c ****   *         in RTC_InitStruct.
 437:cmsis/device/stm32f4xx_rtc.c ****   * @param  RTC_InitStruct: pointer to a RTC_InitTypeDef structure that contains 
 438:cmsis/device/stm32f4xx_rtc.c ****   *         the configuration information for the RTC peripheral.
 439:cmsis/device/stm32f4xx_rtc.c ****   * @note   The RTC Prescaler register is write protected and can be written in 
 440:cmsis/device/stm32f4xx_rtc.c ****   *         initialization mode only.  
 441:cmsis/device/stm32f4xx_rtc.c ****   * @retval An ErrorStatus enumeration value:
 442:cmsis/device/stm32f4xx_rtc.c ****   *          - SUCCESS: RTC registers are initialized
 443:cmsis/device/stm32f4xx_rtc.c ****   *          - ERROR: RTC registers are not initialized  
 444:cmsis/device/stm32f4xx_rtc.c ****   */
 445:cmsis/device/stm32f4xx_rtc.c **** ErrorStatus RTC_Init(RTC_InitTypeDef* RTC_InitStruct)
 446:cmsis/device/stm32f4xx_rtc.c **** {
 447:cmsis/device/stm32f4xx_rtc.c ****   ErrorStatus status = ERROR;
 448:cmsis/device/stm32f4xx_rtc.c ****   
 449:cmsis/device/stm32f4xx_rtc.c ****   /* Check the parameters */
 450:cmsis/device/stm32f4xx_rtc.c ****   assert_param(IS_RTC_HOUR_FORMAT(RTC_InitStruct->RTC_HourFormat));
 451:cmsis/device/stm32f4xx_rtc.c ****   assert_param(IS_RTC_ASYNCH_PREDIV(RTC_InitStruct->RTC_AsynchPrediv));
 452:cmsis/device/stm32f4xx_rtc.c ****   assert_param(IS_RTC_SYNCH_PREDIV(RTC_InitStruct->RTC_SynchPrediv));
 453:cmsis/device/stm32f4xx_rtc.c **** 
 454:cmsis/device/stm32f4xx_rtc.c ****   /* Disable the write protection for RTC registers */
 455:cmsis/device/stm32f4xx_rtc.c ****   RTC->WPR = 0xCA;
 456:cmsis/device/stm32f4xx_rtc.c ****   RTC->WPR = 0x53;
 457:cmsis/device/stm32f4xx_rtc.c **** 
 458:cmsis/device/stm32f4xx_rtc.c ****   /* Set Initialization mode */
 459:cmsis/device/stm32f4xx_rtc.c ****   if (RTC_EnterInitMode() == ERROR)
 460:cmsis/device/stm32f4xx_rtc.c ****   {
 461:cmsis/device/stm32f4xx_rtc.c ****     status = ERROR;
 462:cmsis/device/stm32f4xx_rtc.c ****   } 
 463:cmsis/device/stm32f4xx_rtc.c ****   else
 464:cmsis/device/stm32f4xx_rtc.c ****   {
 465:cmsis/device/stm32f4xx_rtc.c ****     /* Clear RTC CR FMT Bit */
 466:cmsis/device/stm32f4xx_rtc.c ****     RTC->CR &= ((uint32_t)~(RTC_CR_FMT));
 467:cmsis/device/stm32f4xx_rtc.c ****     /* Set RTC_CR register */
 468:cmsis/device/stm32f4xx_rtc.c ****     RTC->CR |=  ((uint32_t)(RTC_InitStruct->RTC_HourFormat));
 469:cmsis/device/stm32f4xx_rtc.c ****   
 470:cmsis/device/stm32f4xx_rtc.c ****     /* Configure the RTC PRER */
 471:cmsis/device/stm32f4xx_rtc.c ****     RTC->PRER = (uint32_t)(RTC_InitStruct->RTC_SynchPrediv);
 472:cmsis/device/stm32f4xx_rtc.c ****     RTC->PRER |= (uint32_t)(RTC_InitStruct->RTC_AsynchPrediv << 16);
 473:cmsis/device/stm32f4xx_rtc.c **** 
 474:cmsis/device/stm32f4xx_rtc.c ****     /* Exit Initialization mode */
 475:cmsis/device/stm32f4xx_rtc.c ****     RTC_ExitInitMode();
 476:cmsis/device/stm32f4xx_rtc.c **** 
 477:cmsis/device/stm32f4xx_rtc.c ****     status = SUCCESS;    
 478:cmsis/device/stm32f4xx_rtc.c ****   }
 479:cmsis/device/stm32f4xx_rtc.c ****   /* Enable the write protection for RTC registers */
 480:cmsis/device/stm32f4xx_rtc.c ****   RTC->WPR = 0xFF; 
 481:cmsis/device/stm32f4xx_rtc.c ****   
 482:cmsis/device/stm32f4xx_rtc.c ****   return status;
 483:cmsis/device/stm32f4xx_rtc.c **** }
 484:cmsis/device/stm32f4xx_rtc.c **** 
 485:cmsis/device/stm32f4xx_rtc.c **** /**
 486:cmsis/device/stm32f4xx_rtc.c ****   * @brief  Fills each RTC_InitStruct member with its default value.
 487:cmsis/device/stm32f4xx_rtc.c ****   * @param  RTC_InitStruct: pointer to a RTC_InitTypeDef structure which will be 
 488:cmsis/device/stm32f4xx_rtc.c ****   *         initialized.
 489:cmsis/device/stm32f4xx_rtc.c ****   * @retval None
 490:cmsis/device/stm32f4xx_rtc.c ****   */
 491:cmsis/device/stm32f4xx_rtc.c **** void RTC_StructInit(RTC_InitTypeDef* RTC_InitStruct)
 492:cmsis/device/stm32f4xx_rtc.c **** {
ARM GAS  C:\Users\CNous\AppData\Local\Temp\ccCDm0MK.s 			page 11


  79              		.loc 1 492 0
  80              		.cfi_startproc
  81              		@ args = 0, pretend = 0, frame = 0
  82              		@ frame_needed = 0, uses_anonymous_args = 0
  83              		@ link register save eliminated.
  84              	.LVL0:
 493:cmsis/device/stm32f4xx_rtc.c ****   /* Initialize the RTC_HourFormat member */
 494:cmsis/device/stm32f4xx_rtc.c ****   RTC_InitStruct->RTC_HourFormat = RTC_HourFormat_24;
 495:cmsis/device/stm32f4xx_rtc.c ****     
 496:cmsis/device/stm32f4xx_rtc.c ****   /* Initialize the RTC_AsynchPrediv member */
 497:cmsis/device/stm32f4xx_rtc.c ****   RTC_InitStruct->RTC_AsynchPrediv = (uint32_t)0x7F;
 498:cmsis/device/stm32f4xx_rtc.c **** 
 499:cmsis/device/stm32f4xx_rtc.c ****   /* Initialize the RTC_SynchPrediv member */
 500:cmsis/device/stm32f4xx_rtc.c ****   RTC_InitStruct->RTC_SynchPrediv = (uint32_t)0xFF; 
  85              		.loc 1 500 0
  86 0000 0021     		movs	r1, #0	@,
  87 0002 7F22     		movs	r2, #127	@,
  88 0004 FF23     		movs	r3, #255	@ tmp137,
  89 0006 80E80E00 		stmia	r0, {r1, r2, r3}	@ RTC_InitStruct,,,
  90 000a 7047     		bx	lr	@
  91              		.cfi_endproc
  92              	.LFE112:
  93              		.size	RTC_StructInit, .-RTC_StructInit
  94              		.section	.text.RTC_WriteProtectionCmd,"ax",%progbits
  95              		.align	2
  96              		.global	RTC_WriteProtectionCmd
  97              		.thumb
  98              		.thumb_func
  99              		.type	RTC_WriteProtectionCmd, %function
 100              	RTC_WriteProtectionCmd:
 101              	.LFB113:
 501:cmsis/device/stm32f4xx_rtc.c **** }
 502:cmsis/device/stm32f4xx_rtc.c **** 
 503:cmsis/device/stm32f4xx_rtc.c **** /**
 504:cmsis/device/stm32f4xx_rtc.c ****   * @brief  Enables or disables the RTC registers write protection.
 505:cmsis/device/stm32f4xx_rtc.c ****   * @note   All the RTC registers are write protected except for RTC_ISR[13:8], 
 506:cmsis/device/stm32f4xx_rtc.c ****   *         RTC_TAFCR and RTC_BKPxR.
 507:cmsis/device/stm32f4xx_rtc.c ****   * @note   Writing a wrong key reactivates the write protection.
 508:cmsis/device/stm32f4xx_rtc.c ****   * @note   The protection mechanism is not affected by system reset.  
 509:cmsis/device/stm32f4xx_rtc.c ****   * @param  NewState: new state of the write protection.
 510:cmsis/device/stm32f4xx_rtc.c ****   *          This parameter can be: ENABLE or DISABLE.
 511:cmsis/device/stm32f4xx_rtc.c ****   * @retval None
 512:cmsis/device/stm32f4xx_rtc.c ****   */
 513:cmsis/device/stm32f4xx_rtc.c **** void RTC_WriteProtectionCmd(FunctionalState NewState)
 514:cmsis/device/stm32f4xx_rtc.c **** {
 102              		.loc 1 514 0
 103              		.cfi_startproc
 104              		@ args = 0, pretend = 0, frame = 0
 105              		@ frame_needed = 0, uses_anonymous_args = 0
 106              		@ link register save eliminated.
 107              	.LVL1:
 515:cmsis/device/stm32f4xx_rtc.c ****   /* Check the parameters */
 516:cmsis/device/stm32f4xx_rtc.c ****   assert_param(IS_FUNCTIONAL_STATE(NewState));
 517:cmsis/device/stm32f4xx_rtc.c ****     
 518:cmsis/device/stm32f4xx_rtc.c ****   if (NewState != DISABLE)
 519:cmsis/device/stm32f4xx_rtc.c ****   {
 520:cmsis/device/stm32f4xx_rtc.c ****     /* Enable the write protection for RTC registers */
ARM GAS  C:\Users\CNous\AppData\Local\Temp\ccCDm0MK.s 			page 12


 521:cmsis/device/stm32f4xx_rtc.c ****     RTC->WPR = 0xFF;   
 108              		.loc 1 521 0
 109 0000 4FF42053 		mov	r3, #10240	@ tmp135,
 110 0004 C4F20003 		movt	r3, 16384	@ tmp135,
 518:cmsis/device/stm32f4xx_rtc.c ****   if (NewState != DISABLE)
 111              		.loc 1 518 0
 112 0008 20B9     		cbnz	r0, .L6	@ NewState,
 522:cmsis/device/stm32f4xx_rtc.c ****   }
 523:cmsis/device/stm32f4xx_rtc.c ****   else
 524:cmsis/device/stm32f4xx_rtc.c ****   {
 525:cmsis/device/stm32f4xx_rtc.c ****     /* Disable the write protection for RTC registers */
 526:cmsis/device/stm32f4xx_rtc.c ****     RTC->WPR = 0xCA;
 113              		.loc 1 526 0
 114 000a CA22     		movs	r2, #202	@ tmp138,
 527:cmsis/device/stm32f4xx_rtc.c ****     RTC->WPR = 0x53;    
 115              		.loc 1 527 0
 116 000c 5320     		movs	r0, #83	@ tmp140,
 117              	.LVL2:
 526:cmsis/device/stm32f4xx_rtc.c ****     RTC->WPR = 0xCA;
 118              		.loc 1 526 0
 119 000e 5A62     		str	r2, [r3, #36]	@ tmp138, MEM[(struct RTC_TypeDef *)1073752064B].WPR
 120              		.loc 1 527 0
 121 0010 5862     		str	r0, [r3, #36]	@ tmp140,
 122 0012 7047     		bx	lr	@
 123              	.LVL3:
 124              	.L6:
 521:cmsis/device/stm32f4xx_rtc.c ****     RTC->WPR = 0xFF;   
 125              		.loc 1 521 0
 126 0014 FF21     		movs	r1, #255	@ tmp136,
 127 0016 5962     		str	r1, [r3, #36]	@ tmp136,
 128 0018 7047     		bx	lr	@
 129              		.cfi_endproc
 130              	.LFE113:
 131              		.size	RTC_WriteProtectionCmd, .-RTC_WriteProtectionCmd
 132 001a 00BF     		.section	.text.RTC_EnterInitMode,"ax",%progbits
 133              		.align	2
 134              		.global	RTC_EnterInitMode
 135              		.thumb
 136              		.thumb_func
 137              		.type	RTC_EnterInitMode, %function
 138              	RTC_EnterInitMode:
 139              	.LFB114:
 528:cmsis/device/stm32f4xx_rtc.c ****   }
 529:cmsis/device/stm32f4xx_rtc.c **** }
 530:cmsis/device/stm32f4xx_rtc.c **** 
 531:cmsis/device/stm32f4xx_rtc.c **** /**
 532:cmsis/device/stm32f4xx_rtc.c ****   * @brief  Enters the RTC Initialization mode.
 533:cmsis/device/stm32f4xx_rtc.c ****   * @note   The RTC Initialization mode is write protected, use the 
 534:cmsis/device/stm32f4xx_rtc.c ****   *         RTC_WriteProtectionCmd(DISABLE) before calling this function.    
 535:cmsis/device/stm32f4xx_rtc.c ****   * @param  None
 536:cmsis/device/stm32f4xx_rtc.c ****   * @retval An ErrorStatus enumeration value:
 537:cmsis/device/stm32f4xx_rtc.c ****   *          - SUCCESS: RTC is in Init mode
 538:cmsis/device/stm32f4xx_rtc.c ****   *          - ERROR: RTC is not in Init mode  
 539:cmsis/device/stm32f4xx_rtc.c ****   */
 540:cmsis/device/stm32f4xx_rtc.c **** ErrorStatus RTC_EnterInitMode(void)
 541:cmsis/device/stm32f4xx_rtc.c **** {
 140              		.loc 1 541 0
ARM GAS  C:\Users\CNous\AppData\Local\Temp\ccCDm0MK.s 			page 13


 141              		.cfi_startproc
 142              		@ args = 0, pretend = 0, frame = 8
 143              		@ frame_needed = 0, uses_anonymous_args = 0
 144              		@ link register save eliminated.
 145 0000 82B0     		sub	sp, sp, #8	@,,
 146              	.LCFI0:
 147              		.cfi_def_cfa_offset 8
 542:cmsis/device/stm32f4xx_rtc.c ****   __IO uint32_t initcounter = 0x00;
 543:cmsis/device/stm32f4xx_rtc.c ****   ErrorStatus status = ERROR;
 544:cmsis/device/stm32f4xx_rtc.c ****   uint32_t initstatus = 0x00;
 545:cmsis/device/stm32f4xx_rtc.c ****      
 546:cmsis/device/stm32f4xx_rtc.c ****   /* Check if the Initialization mode is set */
 547:cmsis/device/stm32f4xx_rtc.c ****   if ((RTC->ISR & RTC_ISR_INITF) == (uint32_t)RESET)
 148              		.loc 1 547 0
 149 0002 4FF42051 		mov	r1, #10240	@ tmp147,
 542:cmsis/device/stm32f4xx_rtc.c ****   __IO uint32_t initcounter = 0x00;
 150              		.loc 1 542 0
 151 0006 0023     		movs	r3, #0	@ tmp146,
 152              		.loc 1 547 0
 153 0008 C4F20001 		movt	r1, 16384	@ tmp147,
 542:cmsis/device/stm32f4xx_rtc.c ****   __IO uint32_t initcounter = 0x00;
 154              		.loc 1 542 0
 155 000c 0193     		str	r3, [sp, #4]	@ tmp146, initcounter
 156              	.LVL4:
 157              		.loc 1 547 0
 158 000e C868     		ldr	r0, [r1, #12]	@ D.7397, MEM[(struct RTC_TypeDef *)1073752064B].ISR
 159 0010 4006     		lsls	r0, r0, #25	@, D.7397,
 160 0012 17D4     		bmi	.L11	@,
 548:cmsis/device/stm32f4xx_rtc.c ****   {
 549:cmsis/device/stm32f4xx_rtc.c ****     /* Set the Initialization mode */
 550:cmsis/device/stm32f4xx_rtc.c ****     RTC->ISR = (uint32_t)RTC_INIT_MASK;
 161              		.loc 1 550 0
 162 0014 4FF0FF32 		mov	r2, #-1	@ tmp150,
 163 0018 CA60     		str	r2, [r1, #12]	@ tmp150, MEM[(struct RTC_TypeDef *)1073752064B].ISR
 164 001a 00E0     		b	.L10	@
 165              	.LVL5:
 166              	.L19:
 551:cmsis/device/stm32f4xx_rtc.c ****     
 552:cmsis/device/stm32f4xx_rtc.c ****     /* Wait till RTC is in INIT state and if Time out is reached exit */
 553:cmsis/device/stm32f4xx_rtc.c ****     do
 554:cmsis/device/stm32f4xx_rtc.c ****     {
 555:cmsis/device/stm32f4xx_rtc.c ****       initstatus = RTC->ISR & RTC_ISR_INITF;
 556:cmsis/device/stm32f4xx_rtc.c ****       initcounter++;  
 557:cmsis/device/stm32f4xx_rtc.c ****     } while((initcounter != INITMODE_TIMEOUT) && (initstatus == 0x00));
 167              		.loc 1 557 0 discriminator 1
 168 001c 48B9     		cbnz	r0, .L9	@ initstatus,
 169              	.LVL6:
 170              	.L10:
 555:cmsis/device/stm32f4xx_rtc.c ****       initstatus = RTC->ISR & RTC_ISR_INITF;
 171              		.loc 1 555 0 discriminator 1
 172 001e C868     		ldr	r0, [r1, #12]	@ D.7401, MEM[(struct RTC_TypeDef *)1073752064B].ISR
 556:cmsis/device/stm32f4xx_rtc.c ****       initcounter++;  
 173              		.loc 1 556 0 discriminator 1
 174 0020 019B     		ldr	r3, [sp, #4]	@ initcounter.18, initcounter
 175 0022 5A1C     		adds	r2, r3, #1	@ initcounter.19, initcounter.18,
 176              	.LVL7:
 177 0024 0192     		str	r2, [sp, #4]	@ initcounter.19, initcounter
ARM GAS  C:\Users\CNous\AppData\Local\Temp\ccCDm0MK.s 			page 14


 178              	.LVL8:
 179              		.loc 1 557 0 discriminator 1
 180 0026 019B     		ldr	r3, [sp, #4]	@ initcounter.20, initcounter
 181 0028 B3F5803F 		cmp	r3, #65536	@ initcounter.20,
 555:cmsis/device/stm32f4xx_rtc.c ****       initstatus = RTC->ISR & RTC_ISR_INITF;
 182              		.loc 1 555 0 discriminator 1
 183 002c 00F04000 		and	r0, r0, #64	@ initstatus, D.7401,
 184              	.LVL9:
 185              		.loc 1 557 0 discriminator 1
 186 0030 F4D1     		bne	.L19	@,
 187              	.L9:
 188              	.LBB80:
 189              	.LBB81:
 558:cmsis/device/stm32f4xx_rtc.c ****     
 559:cmsis/device/stm32f4xx_rtc.c ****     if ((RTC->ISR & RTC_ISR_INITF) != RESET)
 190              		.loc 1 559 0
 191 0032 4FF42051 		mov	r1, #10240	@ tmp152,
 192 0036 C4F20001 		movt	r1, 16384	@ tmp152,
 193 003a CA68     		ldr	r2, [r1, #12]	@ D.7801, MEM[(struct RTC_TypeDef *)1073752064B].ISR
 560:cmsis/device/stm32f4xx_rtc.c ****     {
 561:cmsis/device/stm32f4xx_rtc.c ****       status = SUCCESS;
 194              		.loc 1 561 0
 195 003c C2F38010 		ubfx	r0, r2, #6, #1	@ status, D.7801,,
 196              	.LVL10:
 197              	.L8:
 198              	.LBE81:
 199              	.LBE80:
 562:cmsis/device/stm32f4xx_rtc.c ****     }
 563:cmsis/device/stm32f4xx_rtc.c ****     else
 564:cmsis/device/stm32f4xx_rtc.c ****     {
 565:cmsis/device/stm32f4xx_rtc.c ****       status = ERROR;
 566:cmsis/device/stm32f4xx_rtc.c ****     }        
 567:cmsis/device/stm32f4xx_rtc.c ****   }
 568:cmsis/device/stm32f4xx_rtc.c ****   else
 569:cmsis/device/stm32f4xx_rtc.c ****   {
 570:cmsis/device/stm32f4xx_rtc.c ****     status = SUCCESS;  
 571:cmsis/device/stm32f4xx_rtc.c ****   } 
 572:cmsis/device/stm32f4xx_rtc.c ****     
 573:cmsis/device/stm32f4xx_rtc.c ****   return (status);  
 574:cmsis/device/stm32f4xx_rtc.c **** }
 200              		.loc 1 574 0
 201 0040 02B0     		add	sp, sp, #8	@,,
 202 0042 7047     		bx	lr
 203              	.LVL11:
 204              	.L11:
 570:cmsis/device/stm32f4xx_rtc.c ****     status = SUCCESS;  
 205              		.loc 1 570 0
 206 0044 0120     		movs	r0, #1	@ status,
 207 0046 FBE7     		b	.L8	@
 208              		.cfi_endproc
 209              	.LFE114:
 210              		.size	RTC_EnterInitMode, .-RTC_EnterInitMode
 211              		.section	.text.RTC_Init,"ax",%progbits
 212              		.align	2
 213              		.global	RTC_Init
 214              		.thumb
 215              		.thumb_func
ARM GAS  C:\Users\CNous\AppData\Local\Temp\ccCDm0MK.s 			page 15


 216              		.type	RTC_Init, %function
 217              	RTC_Init:
 218              	.LFB111:
 446:cmsis/device/stm32f4xx_rtc.c **** {
 219              		.loc 1 446 0
 220              		.cfi_startproc
 221              		@ args = 0, pretend = 0, frame = 0
 222              		@ frame_needed = 0, uses_anonymous_args = 0
 223              	.LVL12:
 224 0000 38B5     		push	{r3, r4, r5, lr}	@
 225              	.LCFI1:
 226              		.cfi_def_cfa_offset 16
 227              		.cfi_offset 3, -16
 228              		.cfi_offset 4, -12
 229              		.cfi_offset 5, -8
 230              		.cfi_offset 14, -4
 455:cmsis/device/stm32f4xx_rtc.c ****   RTC->WPR = 0xCA;
 231              		.loc 1 455 0
 232 0002 4FF42054 		mov	r4, #10240	@ tmp150,
 233 0006 C4F20004 		movt	r4, 16384	@ tmp150,
 234 000a CA23     		movs	r3, #202	@ tmp151,
 456:cmsis/device/stm32f4xx_rtc.c ****   RTC->WPR = 0x53;
 235              		.loc 1 456 0
 236 000c 5321     		movs	r1, #83	@ tmp153,
 455:cmsis/device/stm32f4xx_rtc.c ****   RTC->WPR = 0xCA;
 237              		.loc 1 455 0
 238 000e 6362     		str	r3, [r4, #36]	@ tmp151, MEM[(struct RTC_TypeDef *)1073752064B].WPR
 456:cmsis/device/stm32f4xx_rtc.c ****   RTC->WPR = 0x53;
 239              		.loc 1 456 0
 240 0010 6162     		str	r1, [r4, #36]	@ tmp153, MEM[(struct RTC_TypeDef *)1073752064B].WPR
 446:cmsis/device/stm32f4xx_rtc.c **** {
 241              		.loc 1 446 0
 242 0012 0546     		mov	r5, r0	@ RTC_InitStruct, RTC_InitStruct
 459:cmsis/device/stm32f4xx_rtc.c ****   if (RTC_EnterInitMode() == ERROR)
 243              		.loc 1 459 0
 244 0014 FFF7FEFF 		bl	RTC_EnterInitMode	@
 245              	.LVL13:
 246 0018 A0B1     		cbz	r0, .L21	@ tmp154,
 466:cmsis/device/stm32f4xx_rtc.c ****     RTC->CR &= ((uint32_t)~(RTC_CR_FMT));
 247              		.loc 1 466 0
 248 001a A068     		ldr	r0, [r4, #8]	@ D.7423, MEM[(struct RTC_TypeDef *)1073752064B].CR
 249 001c 20F04002 		bic	r2, r0, #64	@ D.7424, D.7423,
 250 0020 A260     		str	r2, [r4, #8]	@ D.7424, MEM[(struct RTC_TypeDef *)1073752064B].CR
 468:cmsis/device/stm32f4xx_rtc.c ****     RTC->CR |=  ((uint32_t)(RTC_InitStruct->RTC_HourFormat));
 251              		.loc 1 468 0
 252 0022 A168     		ldr	r1, [r4, #8]	@ D.7425, MEM[(struct RTC_TypeDef *)1073752064B].CR
 253 0024 2B68     		ldr	r3, [r5, #0]	@ RTC_InitStruct_14(D)->RTC_HourFormat, RTC_InitStruct_14(D)->RTC_HourFormat
 254 0026 41EA0300 		orr	r0, r1, r3	@ D.7427, D.7425, RTC_InitStruct_14(D)->RTC_HourFormat
 255 002a A060     		str	r0, [r4, #8]	@ D.7427, MEM[(struct RTC_TypeDef *)1073752064B].CR
 471:cmsis/device/stm32f4xx_rtc.c ****     RTC->PRER = (uint32_t)(RTC_InitStruct->RTC_SynchPrediv);
 256              		.loc 1 471 0
 257 002c AA68     		ldr	r2, [r5, #8]	@ D.7428, RTC_InitStruct_14(D)->RTC_SynchPrediv
 258 002e 2261     		str	r2, [r4, #16]	@ D.7428, MEM[(struct RTC_TypeDef *)1073752064B].PRER
 472:cmsis/device/stm32f4xx_rtc.c ****     RTC->PRER |= (uint32_t)(RTC_InitStruct->RTC_AsynchPrediv << 16);
 259              		.loc 1 472 0
 260 0030 2169     		ldr	r1, [r4, #16]	@ D.7429, MEM[(struct RTC_TypeDef *)1073752064B].PRER
 261 0032 6B68     		ldr	r3, [r5, #4]	@ RTC_InitStruct_14(D)->RTC_AsynchPrediv, RTC_InitStruct_14(D)->RTC_AsynchPrediv
ARM GAS  C:\Users\CNous\AppData\Local\Temp\ccCDm0MK.s 			page 16


 262 0034 41EA0340 		orr	r0, r1, r3, lsl #16	@, D.7432, D.7429, RTC_InitStruct_14(D)->RTC_AsynchPrediv,
 263 0038 2061     		str	r0, [r4, #16]	@ D.7432, MEM[(struct RTC_TypeDef *)1073752064B].PRER
 264              	.LBB82:
 265              	.LBB83:
 575:cmsis/device/stm32f4xx_rtc.c **** 
 576:cmsis/device/stm32f4xx_rtc.c **** /**
 577:cmsis/device/stm32f4xx_rtc.c ****   * @brief  Exits the RTC Initialization mode.
 578:cmsis/device/stm32f4xx_rtc.c ****   * @note   When the initialization sequence is complete, the calendar restarts 
 579:cmsis/device/stm32f4xx_rtc.c ****   *         counting after 4 RTCCLK cycles.  
 580:cmsis/device/stm32f4xx_rtc.c ****   * @note   The RTC Initialization mode is write protected, use the 
 581:cmsis/device/stm32f4xx_rtc.c ****   *         RTC_WriteProtectionCmd(DISABLE) before calling this function.      
 582:cmsis/device/stm32f4xx_rtc.c ****   * @param  None
 583:cmsis/device/stm32f4xx_rtc.c ****   * @retval None
 584:cmsis/device/stm32f4xx_rtc.c ****   */
 585:cmsis/device/stm32f4xx_rtc.c **** void RTC_ExitInitMode(void)
 586:cmsis/device/stm32f4xx_rtc.c **** { 
 587:cmsis/device/stm32f4xx_rtc.c ****   /* Exit Initialization mode */
 588:cmsis/device/stm32f4xx_rtc.c ****   RTC->ISR &= (uint32_t)~RTC_ISR_INIT;  
 266              		.loc 1 588 0
 267 003a E268     		ldr	r2, [r4, #12]	@ D.7487, MEM[(struct RTC_TypeDef *)1073752064B].ISR
 268 003c 22F08001 		bic	r1, r2, #128	@ D.7486, D.7487,
 269 0040 E160     		str	r1, [r4, #12]	@ D.7486, MEM[(struct RTC_TypeDef *)1073752064B].ISR
 270              	.LVL14:
 477:cmsis/device/stm32f4xx_rtc.c ****     status = SUCCESS;    
 271              		.loc 1 477 0
 272 0042 0120     		movs	r0, #1	@ status,
 273              	.LVL15:
 274              	.L21:
 275              	.LBE83:
 276              	.LBE82:
 480:cmsis/device/stm32f4xx_rtc.c ****   RTC->WPR = 0xFF; 
 277              		.loc 1 480 0
 278 0044 4FF42053 		mov	r3, #10240	@ tmp167,
 279 0048 C4F20003 		movt	r3, 16384	@ tmp167,
 280 004c FF22     		movs	r2, #255	@ tmp168,
 281 004e 5A62     		str	r2, [r3, #36]	@ tmp168, MEM[(struct RTC_TypeDef *)1073752064B].WPR
 483:cmsis/device/stm32f4xx_rtc.c **** }
 282              		.loc 1 483 0
 283 0050 38BD     		pop	{r3, r4, r5, pc}	@
 284              		.cfi_endproc
 285              	.LFE111:
 286              		.size	RTC_Init, .-RTC_Init
 287 0052 00BF     		.section	.text.RTC_ExitInitMode,"ax",%progbits
 288              		.align	2
 289              		.global	RTC_ExitInitMode
 290              		.thumb
 291              		.thumb_func
 292              		.type	RTC_ExitInitMode, %function
 293              	RTC_ExitInitMode:
 294              	.LFB115:
 586:cmsis/device/stm32f4xx_rtc.c **** { 
 295              		.loc 1 586 0
 296              		.cfi_startproc
 297              		@ args = 0, pretend = 0, frame = 0
 298              		@ frame_needed = 0, uses_anonymous_args = 0
 299              		@ link register save eliminated.
 300              		.loc 1 588 0
ARM GAS  C:\Users\CNous\AppData\Local\Temp\ccCDm0MK.s 			page 17


 301 0000 4FF42053 		mov	r3, #10240	@ tmp136,
 302 0004 C4F20003 		movt	r3, 16384	@ tmp136,
 303 0008 DA68     		ldr	r2, [r3, #12]	@ D.7394, MEM[(struct RTC_TypeDef *)1073752064B].ISR
 304 000a 22F08000 		bic	r0, r2, #128	@ D.7395, D.7394,
 305 000e D860     		str	r0, [r3, #12]	@ D.7395, MEM[(struct RTC_TypeDef *)1073752064B].ISR
 306 0010 7047     		bx	lr	@
 307              		.cfi_endproc
 308              	.LFE115:
 309              		.size	RTC_ExitInitMode, .-RTC_ExitInitMode
 310 0012 00BF     		.section	.text.RTC_WaitForSynchro,"ax",%progbits
 311              		.align	2
 312              		.global	RTC_WaitForSynchro
 313              		.thumb
 314              		.thumb_func
 315              		.type	RTC_WaitForSynchro, %function
 316              	RTC_WaitForSynchro:
 317              	.LFB116:
 589:cmsis/device/stm32f4xx_rtc.c **** }
 590:cmsis/device/stm32f4xx_rtc.c **** 
 591:cmsis/device/stm32f4xx_rtc.c **** /**
 592:cmsis/device/stm32f4xx_rtc.c ****   * @brief  Waits until the RTC Time and Date registers (RTC_TR and RTC_DR) are 
 593:cmsis/device/stm32f4xx_rtc.c ****   *         synchronized with RTC APB clock.
 594:cmsis/device/stm32f4xx_rtc.c ****   * @note   The RTC Resynchronization mode is write protected, use the 
 595:cmsis/device/stm32f4xx_rtc.c ****   *         RTC_WriteProtectionCmd(DISABLE) before calling this function. 
 596:cmsis/device/stm32f4xx_rtc.c ****   * @note   To read the calendar through the shadow registers after Calendar 
 597:cmsis/device/stm32f4xx_rtc.c ****   *         initialization, calendar update or after wakeup from low power modes 
 598:cmsis/device/stm32f4xx_rtc.c ****   *         the software must first clear the RSF flag. 
 599:cmsis/device/stm32f4xx_rtc.c ****   *         The software must then wait until it is set again before reading 
 600:cmsis/device/stm32f4xx_rtc.c ****   *         the calendar, which means that the calendar registers have been 
 601:cmsis/device/stm32f4xx_rtc.c ****   *         correctly copied into the RTC_TR and RTC_DR shadow registers.   
 602:cmsis/device/stm32f4xx_rtc.c ****   * @param  None
 603:cmsis/device/stm32f4xx_rtc.c ****   * @retval An ErrorStatus enumeration value:
 604:cmsis/device/stm32f4xx_rtc.c ****   *          - SUCCESS: RTC registers are synchronised
 605:cmsis/device/stm32f4xx_rtc.c ****   *          - ERROR: RTC registers are not synchronised
 606:cmsis/device/stm32f4xx_rtc.c ****   */
 607:cmsis/device/stm32f4xx_rtc.c **** ErrorStatus RTC_WaitForSynchro(void)
 608:cmsis/device/stm32f4xx_rtc.c **** {
 318              		.loc 1 608 0
 319              		.cfi_startproc
 320              		@ args = 0, pretend = 0, frame = 8
 321              		@ frame_needed = 0, uses_anonymous_args = 0
 322              		@ link register save eliminated.
 609:cmsis/device/stm32f4xx_rtc.c ****   __IO uint32_t synchrocounter = 0;
 610:cmsis/device/stm32f4xx_rtc.c ****   ErrorStatus status = ERROR;
 611:cmsis/device/stm32f4xx_rtc.c ****   uint32_t synchrostatus = 0x00;
 612:cmsis/device/stm32f4xx_rtc.c **** 
 613:cmsis/device/stm32f4xx_rtc.c ****   /* Disable the write protection for RTC registers */
 614:cmsis/device/stm32f4xx_rtc.c ****   RTC->WPR = 0xCA;
 323              		.loc 1 614 0
 324 0000 4FF42051 		mov	r1, #10240	@ tmp147,
 325 0004 C4F20001 		movt	r1, 16384	@ tmp147,
 608:cmsis/device/stm32f4xx_rtc.c **** {
 326              		.loc 1 608 0
 327 0008 82B0     		sub	sp, sp, #8	@,,
 328              	.LCFI2:
 329              		.cfi_def_cfa_offset 8
 609:cmsis/device/stm32f4xx_rtc.c ****   __IO uint32_t synchrocounter = 0;
ARM GAS  C:\Users\CNous\AppData\Local\Temp\ccCDm0MK.s 			page 18


 330              		.loc 1 609 0
 331 000a 0023     		movs	r3, #0	@ tmp146,
 332              		.loc 1 614 0
 333 000c CA20     		movs	r0, #202	@ tmp148,
 615:cmsis/device/stm32f4xx_rtc.c ****   RTC->WPR = 0x53;
 334              		.loc 1 615 0
 335 000e 5322     		movs	r2, #83	@ tmp150,
 609:cmsis/device/stm32f4xx_rtc.c ****   __IO uint32_t synchrocounter = 0;
 336              		.loc 1 609 0
 337 0010 0193     		str	r3, [sp, #4]	@ tmp146, synchrocounter
 338              	.LVL16:
 614:cmsis/device/stm32f4xx_rtc.c ****   RTC->WPR = 0xCA;
 339              		.loc 1 614 0
 340 0012 4862     		str	r0, [r1, #36]	@ tmp148, MEM[(struct RTC_TypeDef *)1073752064B].WPR
 341              		.loc 1 615 0
 342 0014 4A62     		str	r2, [r1, #36]	@ tmp150, MEM[(struct RTC_TypeDef *)1073752064B].WPR
 616:cmsis/device/stm32f4xx_rtc.c ****     
 617:cmsis/device/stm32f4xx_rtc.c ****   /* Clear RSF flag */
 618:cmsis/device/stm32f4xx_rtc.c ****   RTC->ISR &= (uint32_t)RTC_RSF_MASK;
 343              		.loc 1 618 0
 344 0016 CB68     		ldr	r3, [r1, #12]	@ D.7379, MEM[(struct RTC_TypeDef *)1073752064B].ISR
 345 0018 23F0A000 		bic	r0, r3, #160	@ D.7380, D.7379,
 346 001c C860     		str	r0, [r1, #12]	@ D.7380, MEM[(struct RTC_TypeDef *)1073752064B].ISR
 347 001e 00E0     		b	.L26	@
 348              	.LVL17:
 349              	.L34:
 619:cmsis/device/stm32f4xx_rtc.c ****     
 620:cmsis/device/stm32f4xx_rtc.c ****   /* Wait the registers to be synchronised */
 621:cmsis/device/stm32f4xx_rtc.c ****   do
 622:cmsis/device/stm32f4xx_rtc.c ****   {
 623:cmsis/device/stm32f4xx_rtc.c ****     synchrostatus = RTC->ISR & RTC_ISR_RSF;
 624:cmsis/device/stm32f4xx_rtc.c ****     synchrocounter++;  
 625:cmsis/device/stm32f4xx_rtc.c ****   } while((synchrocounter != SYNCHRO_TIMEOUT) && (synchrostatus == 0x00));
 350              		.loc 1 625 0 discriminator 1
 351 0020 4AB9     		cbnz	r2, .L25	@ synchrostatus,
 352              	.LVL18:
 353              	.L26:
 623:cmsis/device/stm32f4xx_rtc.c ****     synchrostatus = RTC->ISR & RTC_ISR_RSF;
 354              		.loc 1 623 0 discriminator 1
 355 0022 CA68     		ldr	r2, [r1, #12]	@ D.7381, MEM[(struct RTC_TypeDef *)1073752064B].ISR
 624:cmsis/device/stm32f4xx_rtc.c ****     synchrocounter++;  
 356              		.loc 1 624 0 discriminator 1
 357 0024 019B     		ldr	r3, [sp, #4]	@ synchrocounter.15, synchrocounter
 358 0026 581C     		adds	r0, r3, #1	@ synchrocounter.16, synchrocounter.15,
 359              	.LVL19:
 360 0028 0190     		str	r0, [sp, #4]	@ synchrocounter.16, synchrocounter
 361              	.LVL20:
 362              		.loc 1 625 0 discriminator 1
 363 002a 019B     		ldr	r3, [sp, #4]	@ synchrocounter.17, synchrocounter
 364 002c B3F5003F 		cmp	r3, #131072	@ synchrocounter.17,
 623:cmsis/device/stm32f4xx_rtc.c ****     synchrostatus = RTC->ISR & RTC_ISR_RSF;
 365              		.loc 1 623 0 discriminator 1
 366 0030 02F02002 		and	r2, r2, #32	@ synchrostatus, D.7381,
 367              	.LVL21:
 368              		.loc 1 625 0 discriminator 1
 369 0034 F4D1     		bne	.L34	@,
 370              	.L25:
ARM GAS  C:\Users\CNous\AppData\Local\Temp\ccCDm0MK.s 			page 19


 626:cmsis/device/stm32f4xx_rtc.c ****     
 627:cmsis/device/stm32f4xx_rtc.c ****   if ((RTC->ISR & RTC_ISR_RSF) != RESET)
 371              		.loc 1 627 0
 372 0036 4FF42051 		mov	r1, #10240	@ tmp154,
 373 003a C4F20001 		movt	r1, 16384	@ tmp154,
 628:cmsis/device/stm32f4xx_rtc.c ****   {
 629:cmsis/device/stm32f4xx_rtc.c ****     status = SUCCESS;
 630:cmsis/device/stm32f4xx_rtc.c ****   }
 631:cmsis/device/stm32f4xx_rtc.c ****   else
 632:cmsis/device/stm32f4xx_rtc.c ****   {
 633:cmsis/device/stm32f4xx_rtc.c ****     status = ERROR;
 634:cmsis/device/stm32f4xx_rtc.c ****   }        
 635:cmsis/device/stm32f4xx_rtc.c **** 
 636:cmsis/device/stm32f4xx_rtc.c ****   /* Enable the write protection for RTC registers */
 637:cmsis/device/stm32f4xx_rtc.c ****   RTC->WPR = 0xFF; 
 374              		.loc 1 637 0
 375 003e FF23     		movs	r3, #255	@ tmp156,
 627:cmsis/device/stm32f4xx_rtc.c ****   if ((RTC->ISR & RTC_ISR_RSF) != RESET)
 376              		.loc 1 627 0
 377 0040 C868     		ldr	r0, [r1, #12]	@ D.7386, MEM[(struct RTC_TypeDef *)1073752064B].ISR
 378              	.LVL22:
 379              		.loc 1 637 0
 380 0042 4B62     		str	r3, [r1, #36]	@ tmp156, MEM[(struct RTC_TypeDef *)1073752064B].WPR
 638:cmsis/device/stm32f4xx_rtc.c ****     
 639:cmsis/device/stm32f4xx_rtc.c ****   return (status); 
 640:cmsis/device/stm32f4xx_rtc.c **** }
 381              		.loc 1 640 0
 382 0044 C0F34010 		ubfx	r0, r0, #5, #1	@, D.7386,,
 383              	.LVL23:
 384 0048 02B0     		add	sp, sp, #8	@,,
 385 004a 7047     		bx	lr
 386              		.cfi_endproc
 387              	.LFE116:
 388              		.size	RTC_WaitForSynchro, .-RTC_WaitForSynchro
 389              		.section	.text.RTC_DeInit,"ax",%progbits
 390              		.align	2
 391              		.global	RTC_DeInit
 392              		.thumb
 393              		.thumb_func
 394              		.type	RTC_DeInit, %function
 395              	RTC_DeInit:
 396              	.LFB110:
 368:cmsis/device/stm32f4xx_rtc.c **** {
 397              		.loc 1 368 0
 398              		.cfi_startproc
 399              		@ args = 0, pretend = 0, frame = 8
 400              		@ frame_needed = 0, uses_anonymous_args = 0
 401 0000 30B5     		push	{r4, r5, lr}	@
 402              	.LCFI3:
 403              		.cfi_def_cfa_offset 12
 404              		.cfi_offset 4, -12
 405              		.cfi_offset 5, -8
 406              		.cfi_offset 14, -4
 374:cmsis/device/stm32f4xx_rtc.c ****   RTC->WPR = 0xCA;
 407              		.loc 1 374 0
 408 0002 4FF42054 		mov	r4, #10240	@ tmp150,
 368:cmsis/device/stm32f4xx_rtc.c **** {
ARM GAS  C:\Users\CNous\AppData\Local\Temp\ccCDm0MK.s 			page 20


 409              		.loc 1 368 0
 410 0006 83B0     		sub	sp, sp, #12	@,,
 411              	.LCFI4:
 412              		.cfi_def_cfa_offset 24
 374:cmsis/device/stm32f4xx_rtc.c ****   RTC->WPR = 0xCA;
 413              		.loc 1 374 0
 414 0008 C4F20004 		movt	r4, 16384	@ tmp150,
 369:cmsis/device/stm32f4xx_rtc.c ****   __IO uint32_t wutcounter = 0x00;
 415              		.loc 1 369 0
 416 000c 0025     		movs	r5, #0	@ tmp149,
 374:cmsis/device/stm32f4xx_rtc.c ****   RTC->WPR = 0xCA;
 417              		.loc 1 374 0
 418 000e CA23     		movs	r3, #202	@ tmp151,
 375:cmsis/device/stm32f4xx_rtc.c ****   RTC->WPR = 0x53;
 419              		.loc 1 375 0
 420 0010 5320     		movs	r0, #83	@ tmp153,
 369:cmsis/device/stm32f4xx_rtc.c ****   __IO uint32_t wutcounter = 0x00;
 421              		.loc 1 369 0
 422 0012 0195     		str	r5, [sp, #4]	@ tmp149, wutcounter
 423              	.LVL24:
 374:cmsis/device/stm32f4xx_rtc.c ****   RTC->WPR = 0xCA;
 424              		.loc 1 374 0
 425 0014 6362     		str	r3, [r4, #36]	@ tmp151, MEM[(struct RTC_TypeDef *)1073752064B].WPR
 375:cmsis/device/stm32f4xx_rtc.c ****   RTC->WPR = 0x53;
 426              		.loc 1 375 0
 427 0016 6062     		str	r0, [r4, #36]	@ tmp153, MEM[(struct RTC_TypeDef *)1073752064B].WPR
 378:cmsis/device/stm32f4xx_rtc.c ****   if (RTC_EnterInitMode() == ERROR)
 428              		.loc 1 378 0
 429 0018 FFF7FEFF 		bl	RTC_EnterInitMode	@
 430              	.LVL25:
 431 001c D8B1     		cbz	r0, .L40	@,
 386:cmsis/device/stm32f4xx_rtc.c ****     RTC->DR = (uint32_t)0x00002101;
 432              		.loc 1 386 0
 433 001e 42F20111 		movw	r1, #8449	@ tmp158,
 385:cmsis/device/stm32f4xx_rtc.c ****     RTC->TR = (uint32_t)0x00000000;
 434              		.loc 1 385 0
 435 0022 2560     		str	r5, [r4, #0]	@ tmp149, MEM[(struct RTC_TypeDef *)1073752064B].TR
 386:cmsis/device/stm32f4xx_rtc.c ****     RTC->DR = (uint32_t)0x00002101;
 436              		.loc 1 386 0
 437 0024 6160     		str	r1, [r4, #4]	@ tmp158, MEM[(struct RTC_TypeDef *)1073752064B].DR
 388:cmsis/device/stm32f4xx_rtc.c ****     RTC->CR &= (uint32_t)0x00000007;
 438              		.loc 1 388 0
 439 0026 A268     		ldr	r2, [r4, #8]	@ D.7440, MEM[(struct RTC_TypeDef *)1073752064B].CR
 440 0028 02F00703 		and	r3, r2, #7	@ D.7441, D.7440,
 441 002c A360     		str	r3, [r4, #8]	@ D.7441, MEM[(struct RTC_TypeDef *)1073752064B].CR
 393:cmsis/device/stm32f4xx_rtc.c ****       wutwfstatus = RTC->ISR & RTC_ISR_WUTWF;
 442              		.loc 1 393 0
 443 002e 2046     		mov	r0, r4	@ tmp187, tmp150
 444 0030 00E0     		b	.L39	@
 445              	.LVL26:
 446              	.L51:
 395:cmsis/device/stm32f4xx_rtc.c ****     } while((wutcounter != INITMODE_TIMEOUT) && (wutwfstatus == 0x00));
 447              		.loc 1 395 0 discriminator 1
 448 0032 49B9     		cbnz	r1, .L38	@ wutwfstatus,
 449              	.LVL27:
 450              	.L39:
 393:cmsis/device/stm32f4xx_rtc.c ****       wutwfstatus = RTC->ISR & RTC_ISR_WUTWF;
ARM GAS  C:\Users\CNous\AppData\Local\Temp\ccCDm0MK.s 			page 21


 451              		.loc 1 393 0 discriminator 1
 452 0034 C168     		ldr	r1, [r0, #12]	@ D.7442, MEM[(struct RTC_TypeDef *)1073752064B].ISR
 394:cmsis/device/stm32f4xx_rtc.c ****       wutcounter++;  
 453              		.loc 1 394 0 discriminator 1
 454 0036 019A     		ldr	r2, [sp, #4]	@ wutcounter.21, wutcounter
 455 0038 531C     		adds	r3, r2, #1	@ wutcounter.22, wutcounter.21,
 456              	.LVL28:
 457 003a 0193     		str	r3, [sp, #4]	@ wutcounter.22, wutcounter
 458              	.LVL29:
 395:cmsis/device/stm32f4xx_rtc.c ****     } while((wutcounter != INITMODE_TIMEOUT) && (wutwfstatus == 0x00));
 459              		.loc 1 395 0 discriminator 1
 460 003c 019B     		ldr	r3, [sp, #4]	@ wutcounter.23, wutcounter
 461              	.LVL30:
 462 003e B3F5803F 		cmp	r3, #65536	@ wutcounter.23,
 393:cmsis/device/stm32f4xx_rtc.c ****       wutwfstatus = RTC->ISR & RTC_ISR_WUTWF;
 463              		.loc 1 393 0 discriminator 1
 464 0042 01F00401 		and	r1, r1, #4	@ wutwfstatus, D.7442,
 465              	.LVL31:
 395:cmsis/device/stm32f4xx_rtc.c ****     } while((wutcounter != INITMODE_TIMEOUT) && (wutwfstatus == 0x00));
 466              		.loc 1 395 0 discriminator 1
 467 0046 F4D1     		bne	.L51	@,
 468              	.L38:
 397:cmsis/device/stm32f4xx_rtc.c ****     if ((RTC->ISR & RTC_ISR_WUTWF) == RESET)
 469              		.loc 1 397 0
 470 0048 4FF42053 		mov	r3, #10240	@ tmp162,
 471 004c C4F20003 		movt	r3, 16384	@ tmp162,
 472 0050 D868     		ldr	r0, [r3, #12]	@ D.7447, MEM[(struct RTC_TypeDef *)1073752064B].ISR
 473 0052 4207     		lsls	r2, r0, #29	@, D.7447,
 474 0054 08D4     		bmi	.L52	@,
 475              	.LVL32:
 476              	.L40:
 380:cmsis/device/stm32f4xx_rtc.c ****     status = ERROR;
 477              		.loc 1 380 0
 478 0056 0020     		movs	r0, #0	@ status,
 479              	.L37:
 480              	.LVL33:
 429:cmsis/device/stm32f4xx_rtc.c ****   RTC->WPR = 0xFF;  
 481              		.loc 1 429 0
 482 0058 4FF42053 		mov	r3, #10240	@ tmp184,
 483 005c C4F20003 		movt	r3, 16384	@ tmp184,
 484 0060 FF21     		movs	r1, #255	@ tmp185,
 485 0062 5962     		str	r1, [r3, #36]	@ tmp185, MEM[(struct RTC_TypeDef *)1073752064B].WPR
 432:cmsis/device/stm32f4xx_rtc.c **** }
 486              		.loc 1 432 0
 487 0064 03B0     		add	sp, sp, #12	@,,
 488 0066 30BD     		pop	{r4, r5, pc}
 489              	.LVL34:
 490              	.L52:
 406:cmsis/device/stm32f4xx_rtc.c ****       RTC->PRER = (uint32_t)0x007F00FF;
 491              		.loc 1 406 0
 492 0068 FF21     		movs	r1, #255	@ tmp170,
 493              	.LVL35:
 404:cmsis/device/stm32f4xx_rtc.c ****       RTC->CR &= (uint32_t)0x00000000;
 494              		.loc 1 404 0
 495 006a 9868     		ldr	r0, [r3, #8]	@ vol.24, MEM[(struct RTC_TypeDef *)1073752064B].CR
 496 006c 0022     		movs	r2, #0	@ tmp166,
 406:cmsis/device/stm32f4xx_rtc.c ****       RTC->PRER = (uint32_t)0x007F00FF;
ARM GAS  C:\Users\CNous\AppData\Local\Temp\ccCDm0MK.s 			page 22


 497              		.loc 1 406 0
 498 006e C0F27F01 		movt	r1, 127	@ tmp170,
 405:cmsis/device/stm32f4xx_rtc.c ****       RTC->WUTR = (uint32_t)0x0000FFFF;
 499              		.loc 1 405 0
 500 0072 4FF6FF70 		movw	r0, #65535	@ tmp168,
 404:cmsis/device/stm32f4xx_rtc.c ****       RTC->CR &= (uint32_t)0x00000000;
 501              		.loc 1 404 0
 502 0076 9A60     		str	r2, [r3, #8]	@ tmp166, MEM[(struct RTC_TypeDef *)1073752064B].CR
 405:cmsis/device/stm32f4xx_rtc.c ****       RTC->WUTR = (uint32_t)0x0000FFFF;
 503              		.loc 1 405 0
 504 0078 5861     		str	r0, [r3, #20]	@ tmp168, MEM[(struct RTC_TypeDef *)1073752064B].WUTR
 406:cmsis/device/stm32f4xx_rtc.c ****       RTC->PRER = (uint32_t)0x007F00FF;
 505              		.loc 1 406 0
 506 007a 1961     		str	r1, [r3, #16]	@ tmp170, MEM[(struct RTC_TypeDef *)1073752064B].PRER
 407:cmsis/device/stm32f4xx_rtc.c ****       RTC->CALIBR = (uint32_t)0x00000000;
 507              		.loc 1 407 0
 508 007c 9A61     		str	r2, [r3, #24]	@ tmp166, MEM[(struct RTC_TypeDef *)1073752064B].CALIBR
 408:cmsis/device/stm32f4xx_rtc.c ****       RTC->ALRMAR = (uint32_t)0x00000000;        
 509              		.loc 1 408 0
 510 007e DA61     		str	r2, [r3, #28]	@ tmp166, MEM[(struct RTC_TypeDef *)1073752064B].ALRMAR
 409:cmsis/device/stm32f4xx_rtc.c ****       RTC->ALRMBR = (uint32_t)0x00000000;
 511              		.loc 1 409 0
 512 0080 1A62     		str	r2, [r3, #32]	@ tmp166, MEM[(struct RTC_TypeDef *)1073752064B].ALRMBR
 412:cmsis/device/stm32f4xx_rtc.c ****       RTC->ISR = (uint32_t)0x00000000;
 513              		.loc 1 412 0
 514 0082 DA60     		str	r2, [r3, #12]	@ tmp166, MEM[(struct RTC_TypeDef *)1073752064B].ISR
 415:cmsis/device/stm32f4xx_rtc.c ****       RTC->TAFCR = 0x00000000;
 515              		.loc 1 415 0
 516 0084 1A64     		str	r2, [r3, #64]	@ tmp166, MEM[(struct RTC_TypeDef *)1073752064B].TAFCR
 417:cmsis/device/stm32f4xx_rtc.c ****       if(RTC_WaitForSynchro() == ERROR)
 517              		.loc 1 417 0
 518 0086 FFF7FEFF 		bl	RTC_WaitForSynchro	@
 519              	.LVL36:
 380:cmsis/device/stm32f4xx_rtc.c ****     status = ERROR;
 520              		.loc 1 380 0
 521 008a 0030     		adds	r0, r0, #0	@ status,,
 522 008c 18BF     		it	ne
 523 008e 0120     		movne	r0, #1	@ status,
 524 0090 E2E7     		b	.L37	@
 525              		.cfi_endproc
 526              	.LFE110:
 527              		.size	RTC_DeInit, .-RTC_DeInit
 528 0092 00BF     		.section	.text.RTC_RefClockCmd,"ax",%progbits
 529              		.align	2
 530              		.global	RTC_RefClockCmd
 531              		.thumb
 532              		.thumb_func
 533              		.type	RTC_RefClockCmd, %function
 534              	RTC_RefClockCmd:
 535              	.LFB117:
 641:cmsis/device/stm32f4xx_rtc.c **** 
 642:cmsis/device/stm32f4xx_rtc.c **** /**
 643:cmsis/device/stm32f4xx_rtc.c ****   * @brief  Enables or disables the RTC reference clock detection.
 644:cmsis/device/stm32f4xx_rtc.c ****   * @param  NewState: new state of the RTC reference clock.
 645:cmsis/device/stm32f4xx_rtc.c ****   *          This parameter can be: ENABLE or DISABLE.
 646:cmsis/device/stm32f4xx_rtc.c ****   * @retval An ErrorStatus enumeration value:
 647:cmsis/device/stm32f4xx_rtc.c ****   *          - SUCCESS: RTC reference clock detection is enabled
ARM GAS  C:\Users\CNous\AppData\Local\Temp\ccCDm0MK.s 			page 23


 648:cmsis/device/stm32f4xx_rtc.c ****   *          - ERROR: RTC reference clock detection is disabled  
 649:cmsis/device/stm32f4xx_rtc.c ****   */
 650:cmsis/device/stm32f4xx_rtc.c **** ErrorStatus RTC_RefClockCmd(FunctionalState NewState)
 651:cmsis/device/stm32f4xx_rtc.c **** { 
 536              		.loc 1 651 0
 537              		.cfi_startproc
 538              		@ args = 0, pretend = 0, frame = 0
 539              		@ frame_needed = 0, uses_anonymous_args = 0
 540              	.LVL37:
 541 0000 38B5     		push	{r3, r4, r5, lr}	@
 542              	.LCFI5:
 543              		.cfi_def_cfa_offset 16
 544              		.cfi_offset 3, -16
 545              		.cfi_offset 4, -12
 546              		.cfi_offset 5, -8
 547              		.cfi_offset 14, -4
 652:cmsis/device/stm32f4xx_rtc.c ****   ErrorStatus status = ERROR;
 653:cmsis/device/stm32f4xx_rtc.c ****   
 654:cmsis/device/stm32f4xx_rtc.c ****   /* Check the parameters */
 655:cmsis/device/stm32f4xx_rtc.c ****   assert_param(IS_FUNCTIONAL_STATE(NewState));
 656:cmsis/device/stm32f4xx_rtc.c ****   
 657:cmsis/device/stm32f4xx_rtc.c ****   /* Disable the write protection for RTC registers */
 658:cmsis/device/stm32f4xx_rtc.c ****   RTC->WPR = 0xCA;
 548              		.loc 1 658 0
 549 0002 4FF42054 		mov	r4, #10240	@ tmp144,
 550 0006 C4F20004 		movt	r4, 16384	@ tmp144,
 551 000a CA23     		movs	r3, #202	@ tmp145,
 659:cmsis/device/stm32f4xx_rtc.c ****   RTC->WPR = 0x53;
 552              		.loc 1 659 0
 553 000c 5321     		movs	r1, #83	@ tmp147,
 658:cmsis/device/stm32f4xx_rtc.c ****   RTC->WPR = 0xCA;
 554              		.loc 1 658 0
 555 000e 6362     		str	r3, [r4, #36]	@ tmp145, MEM[(struct RTC_TypeDef *)1073752064B].WPR
 556              		.loc 1 659 0
 557 0010 6162     		str	r1, [r4, #36]	@ tmp147, MEM[(struct RTC_TypeDef *)1073752064B].WPR
 651:cmsis/device/stm32f4xx_rtc.c **** { 
 558              		.loc 1 651 0
 559 0012 0546     		mov	r5, r0	@ NewState, NewState
 660:cmsis/device/stm32f4xx_rtc.c ****     
 661:cmsis/device/stm32f4xx_rtc.c ****   /* Set Initialization mode */
 662:cmsis/device/stm32f4xx_rtc.c ****   if (RTC_EnterInitMode() == ERROR)
 560              		.loc 1 662 0
 561 0014 FFF7FEFF 		bl	RTC_EnterInitMode	@
 562              	.LVL38:
 563 0018 68B1     		cbz	r0, .L54	@ tmp148,
 663:cmsis/device/stm32f4xx_rtc.c ****   {
 664:cmsis/device/stm32f4xx_rtc.c ****     status = ERROR;
 665:cmsis/device/stm32f4xx_rtc.c ****   } 
 666:cmsis/device/stm32f4xx_rtc.c ****   else
 667:cmsis/device/stm32f4xx_rtc.c ****   {  
 668:cmsis/device/stm32f4xx_rtc.c ****     if (NewState != DISABLE)
 669:cmsis/device/stm32f4xx_rtc.c ****     {
 670:cmsis/device/stm32f4xx_rtc.c ****       /* Enable the RTC reference clock detection */
 671:cmsis/device/stm32f4xx_rtc.c ****       RTC->CR |= RTC_CR_REFCKON;   
 564              		.loc 1 671 0
 565 001a A068     		ldr	r0, [r4, #8]	@ D.7371,
 668:cmsis/device/stm32f4xx_rtc.c ****     if (NewState != DISABLE)
ARM GAS  C:\Users\CNous\AppData\Local\Temp\ccCDm0MK.s 			page 24


 566              		.loc 1 668 0
 567 001c 95B9     		cbnz	r5, .L58	@ NewState,
 672:cmsis/device/stm32f4xx_rtc.c ****     }
 673:cmsis/device/stm32f4xx_rtc.c ****     else
 674:cmsis/device/stm32f4xx_rtc.c ****     {
 675:cmsis/device/stm32f4xx_rtc.c ****       /* Disable the RTC reference clock detection */
 676:cmsis/device/stm32f4xx_rtc.c ****       RTC->CR &= ~RTC_CR_REFCKON;    
 568              		.loc 1 676 0
 569 001e 20F01002 		bic	r2, r0, #16	@ D.7375, D.7374,
 570 0022 A260     		str	r2, [r4, #8]	@ D.7375,
 571              	.L56:
 572              	.LBB84:
 573              	.LBB85:
 588:cmsis/device/stm32f4xx_rtc.c ****   RTC->ISR &= (uint32_t)~RTC_ISR_INIT;  
 574              		.loc 1 588 0
 575 0024 4FF42051 		mov	r1, #10240	@ tmp153,
 576 0028 C4F20001 		movt	r1, 16384	@ tmp153,
 677:cmsis/device/stm32f4xx_rtc.c ****     }
 678:cmsis/device/stm32f4xx_rtc.c ****     /* Exit Initialization mode */
 679:cmsis/device/stm32f4xx_rtc.c ****     RTC_ExitInitMode();
 680:cmsis/device/stm32f4xx_rtc.c ****     
 681:cmsis/device/stm32f4xx_rtc.c ****     status = SUCCESS;
 577              		.loc 1 681 0
 578 002c 0120     		movs	r0, #1	@ status,
 588:cmsis/device/stm32f4xx_rtc.c ****   RTC->ISR &= (uint32_t)~RTC_ISR_INIT;  
 579              		.loc 1 588 0
 580 002e CA68     		ldr	r2, [r1, #12]	@ D.7495, MEM[(struct RTC_TypeDef *)1073752064B].ISR
 581 0030 22F08003 		bic	r3, r2, #128	@ D.7494, D.7495,
 582 0034 CB60     		str	r3, [r1, #12]	@ D.7494, MEM[(struct RTC_TypeDef *)1073752064B].ISR
 583              	.LVL39:
 584              	.L54:
 585              	.LBE85:
 586              	.LBE84:
 682:cmsis/device/stm32f4xx_rtc.c ****   }
 683:cmsis/device/stm32f4xx_rtc.c ****   
 684:cmsis/device/stm32f4xx_rtc.c ****   /* Enable the write protection for RTC registers */
 685:cmsis/device/stm32f4xx_rtc.c ****   RTC->WPR = 0xFF;  
 587              		.loc 1 685 0
 588 0036 4FF42051 		mov	r1, #10240	@ tmp155,
 589 003a C4F20001 		movt	r1, 16384	@ tmp155,
 590 003e FF22     		movs	r2, #255	@ tmp156,
 591 0040 4A62     		str	r2, [r1, #36]	@ tmp156, MEM[(struct RTC_TypeDef *)1073752064B].WPR
 686:cmsis/device/stm32f4xx_rtc.c ****   
 687:cmsis/device/stm32f4xx_rtc.c ****   return status; 
 688:cmsis/device/stm32f4xx_rtc.c **** }
 592              		.loc 1 688 0
 593 0042 38BD     		pop	{r3, r4, r5, pc}	@
 594              	.LVL40:
 595              	.L58:
 671:cmsis/device/stm32f4xx_rtc.c ****       RTC->CR |= RTC_CR_REFCKON;   
 596              		.loc 1 671 0
 597 0044 40F01003 		orr	r3, r0, #16	@ D.7372, D.7371,
 598 0048 A360     		str	r3, [r4, #8]	@ D.7372,
 599 004a EBE7     		b	.L56	@
 600              		.cfi_endproc
 601              	.LFE117:
 602              		.size	RTC_RefClockCmd, .-RTC_RefClockCmd
ARM GAS  C:\Users\CNous\AppData\Local\Temp\ccCDm0MK.s 			page 25


 603              		.section	.text.RTC_BypassShadowCmd,"ax",%progbits
 604              		.align	2
 605              		.global	RTC_BypassShadowCmd
 606              		.thumb
 607              		.thumb_func
 608              		.type	RTC_BypassShadowCmd, %function
 609              	RTC_BypassShadowCmd:
 610              	.LFB118:
 689:cmsis/device/stm32f4xx_rtc.c **** 
 690:cmsis/device/stm32f4xx_rtc.c **** /**
 691:cmsis/device/stm32f4xx_rtc.c ****   * @brief  Enables or Disables the Bypass Shadow feature.
 692:cmsis/device/stm32f4xx_rtc.c ****   * @note   When the Bypass Shadow is enabled the calendar value are taken 
 693:cmsis/device/stm32f4xx_rtc.c ****   *         directly from the Calendar counter.
 694:cmsis/device/stm32f4xx_rtc.c ****   * @param  NewState: new state of the Bypass Shadow feature.
 695:cmsis/device/stm32f4xx_rtc.c ****   *         This parameter can be: ENABLE or DISABLE.
 696:cmsis/device/stm32f4xx_rtc.c ****   * @retval None
 697:cmsis/device/stm32f4xx_rtc.c **** */
 698:cmsis/device/stm32f4xx_rtc.c **** void RTC_BypassShadowCmd(FunctionalState NewState)
 699:cmsis/device/stm32f4xx_rtc.c **** {
 611              		.loc 1 699 0
 612              		.cfi_startproc
 613              		@ args = 0, pretend = 0, frame = 0
 614              		@ frame_needed = 0, uses_anonymous_args = 0
 615              		@ link register save eliminated.
 616              	.LVL41:
 700:cmsis/device/stm32f4xx_rtc.c ****   /* Check the parameters */
 701:cmsis/device/stm32f4xx_rtc.c ****   assert_param(IS_FUNCTIONAL_STATE(NewState));
 702:cmsis/device/stm32f4xx_rtc.c **** 
 703:cmsis/device/stm32f4xx_rtc.c ****   /* Disable the write protection for RTC registers */
 704:cmsis/device/stm32f4xx_rtc.c ****   RTC->WPR = 0xCA;
 617              		.loc 1 704 0
 618 0000 4FF42053 		mov	r3, #10240	@ tmp139,
 619 0004 C4F20003 		movt	r3, 16384	@ tmp139,
 620 0008 CA22     		movs	r2, #202	@ tmp140,
 705:cmsis/device/stm32f4xx_rtc.c ****   RTC->WPR = 0x53;
 621              		.loc 1 705 0
 622 000a 5321     		movs	r1, #83	@ tmp142,
 704:cmsis/device/stm32f4xx_rtc.c ****   RTC->WPR = 0xCA;
 623              		.loc 1 704 0
 624 000c 5A62     		str	r2, [r3, #36]	@ tmp140, MEM[(struct RTC_TypeDef *)1073752064B].WPR
 625              		.loc 1 705 0
 626 000e 5962     		str	r1, [r3, #36]	@ tmp142, MEM[(struct RTC_TypeDef *)1073752064B].WPR
 706:cmsis/device/stm32f4xx_rtc.c ****   
 707:cmsis/device/stm32f4xx_rtc.c ****   if (NewState != DISABLE)
 708:cmsis/device/stm32f4xx_rtc.c ****   {
 709:cmsis/device/stm32f4xx_rtc.c ****     /* Set the BYPSHAD bit */
 710:cmsis/device/stm32f4xx_rtc.c ****     RTC->CR |= (uint8_t)RTC_CR_BYPSHAD;
 627              		.loc 1 710 0
 628 0010 9A68     		ldr	r2, [r3, #8]	@ D.7359,
 707:cmsis/device/stm32f4xx_rtc.c ****   if (NewState != DISABLE)
 629              		.loc 1 707 0
 630 0012 48B9     		cbnz	r0, .L62	@ NewState,
 711:cmsis/device/stm32f4xx_rtc.c ****   }
 712:cmsis/device/stm32f4xx_rtc.c ****   else
 713:cmsis/device/stm32f4xx_rtc.c ****   {
 714:cmsis/device/stm32f4xx_rtc.c ****     /* Reset the BYPSHAD bit */
 715:cmsis/device/stm32f4xx_rtc.c ****     RTC->CR &= (uint8_t)~RTC_CR_BYPSHAD;
ARM GAS  C:\Users\CNous\AppData\Local\Temp\ccCDm0MK.s 			page 26


 631              		.loc 1 715 0
 632 0014 02F0DF00 		and	r0, r2, #223	@ D.7363, D.7362,
 633              	.LVL42:
 634 0018 9860     		str	r0, [r3, #8]	@ D.7363,
 635              	.L61:
 716:cmsis/device/stm32f4xx_rtc.c ****   }
 717:cmsis/device/stm32f4xx_rtc.c **** 
 718:cmsis/device/stm32f4xx_rtc.c ****   /* Enable the write protection for RTC registers */
 719:cmsis/device/stm32f4xx_rtc.c ****   RTC->WPR = 0xFF;
 636              		.loc 1 719 0
 637 001a 4FF42053 		mov	r3, #10240	@ tmp147,
 638 001e C4F20003 		movt	r3, 16384	@ tmp147,
 639 0022 FF22     		movs	r2, #255	@ tmp148,
 640 0024 5A62     		str	r2, [r3, #36]	@ tmp148, MEM[(struct RTC_TypeDef *)1073752064B].WPR
 641 0026 7047     		bx	lr	@
 642              	.LVL43:
 643              	.L62:
 710:cmsis/device/stm32f4xx_rtc.c ****     RTC->CR |= (uint8_t)RTC_CR_BYPSHAD;
 644              		.loc 1 710 0
 645 0028 42F02001 		orr	r1, r2, #32	@ D.7360, D.7359,
 646 002c 9960     		str	r1, [r3, #8]	@ D.7360,
 647 002e F4E7     		b	.L61	@
 648              		.cfi_endproc
 649              	.LFE118:
 650              		.size	RTC_BypassShadowCmd, .-RTC_BypassShadowCmd
 651              		.section	.text.RTC_SetTime,"ax",%progbits
 652              		.align	2
 653              		.global	RTC_SetTime
 654              		.thumb
 655              		.thumb_func
 656              		.type	RTC_SetTime, %function
 657              	RTC_SetTime:
 658              	.LFB119:
 720:cmsis/device/stm32f4xx_rtc.c **** }
 721:cmsis/device/stm32f4xx_rtc.c **** 
 722:cmsis/device/stm32f4xx_rtc.c **** /**
 723:cmsis/device/stm32f4xx_rtc.c ****   * @}
 724:cmsis/device/stm32f4xx_rtc.c ****   */
 725:cmsis/device/stm32f4xx_rtc.c **** 
 726:cmsis/device/stm32f4xx_rtc.c **** /** @defgroup RTC_Group2 Time and Date configuration functions
 727:cmsis/device/stm32f4xx_rtc.c ****  *  @brief   Time and Date configuration functions 
 728:cmsis/device/stm32f4xx_rtc.c ****  *
 729:cmsis/device/stm32f4xx_rtc.c **** @verbatim   
 730:cmsis/device/stm32f4xx_rtc.c ****  ===============================================================================
 731:cmsis/device/stm32f4xx_rtc.c ****                    Time and Date configuration functions
 732:cmsis/device/stm32f4xx_rtc.c ****  ===============================================================================  
 733:cmsis/device/stm32f4xx_rtc.c **** 
 734:cmsis/device/stm32f4xx_rtc.c ****   This section provide functions allowing to program and read the RTC Calendar
 735:cmsis/device/stm32f4xx_rtc.c ****   (Time and Date).
 736:cmsis/device/stm32f4xx_rtc.c **** 
 737:cmsis/device/stm32f4xx_rtc.c **** @endverbatim
 738:cmsis/device/stm32f4xx_rtc.c ****   * @{
 739:cmsis/device/stm32f4xx_rtc.c ****   */
 740:cmsis/device/stm32f4xx_rtc.c **** 
 741:cmsis/device/stm32f4xx_rtc.c **** /**
 742:cmsis/device/stm32f4xx_rtc.c ****   * @brief  Set the RTC current time.
 743:cmsis/device/stm32f4xx_rtc.c ****   * @param  RTC_Format: specifies the format of the entered parameters.
ARM GAS  C:\Users\CNous\AppData\Local\Temp\ccCDm0MK.s 			page 27


 744:cmsis/device/stm32f4xx_rtc.c ****   *          This parameter can be  one of the following values:
 745:cmsis/device/stm32f4xx_rtc.c ****   *            @arg RTC_Format_BIN:  Binary data format 
 746:cmsis/device/stm32f4xx_rtc.c ****   *            @arg RTC_Format_BCD:  BCD data format
 747:cmsis/device/stm32f4xx_rtc.c ****   * @param  RTC_TimeStruct: pointer to a RTC_TimeTypeDef structure that contains 
 748:cmsis/device/stm32f4xx_rtc.c ****   *                        the time configuration information for the RTC.     
 749:cmsis/device/stm32f4xx_rtc.c ****   * @retval An ErrorStatus enumeration value:
 750:cmsis/device/stm32f4xx_rtc.c ****   *          - SUCCESS: RTC Time register is configured
 751:cmsis/device/stm32f4xx_rtc.c ****   *          - ERROR: RTC Time register is not configured
 752:cmsis/device/stm32f4xx_rtc.c ****   */
 753:cmsis/device/stm32f4xx_rtc.c **** ErrorStatus RTC_SetTime(uint32_t RTC_Format, RTC_TimeTypeDef* RTC_TimeStruct)
 754:cmsis/device/stm32f4xx_rtc.c **** {
 659              		.loc 1 754 0
 660              		.cfi_startproc
 661              		@ args = 0, pretend = 0, frame = 0
 662              		@ frame_needed = 0, uses_anonymous_args = 0
 663              	.LVL44:
 664 0000 38B5     		push	{r3, r4, r5, lr}	@
 665              	.LCFI6:
 666              		.cfi_def_cfa_offset 16
 667              		.cfi_offset 3, -16
 668              		.cfi_offset 4, -12
 669              		.cfi_offset 5, -8
 670              		.cfi_offset 14, -4
 755:cmsis/device/stm32f4xx_rtc.c ****   uint32_t tmpreg = 0;
 756:cmsis/device/stm32f4xx_rtc.c ****   ErrorStatus status = ERROR;
 757:cmsis/device/stm32f4xx_rtc.c ****     
 758:cmsis/device/stm32f4xx_rtc.c ****   /* Check the parameters */
 759:cmsis/device/stm32f4xx_rtc.c ****   assert_param(IS_RTC_FORMAT(RTC_Format));
 760:cmsis/device/stm32f4xx_rtc.c ****   
 761:cmsis/device/stm32f4xx_rtc.c ****   if (RTC_Format == RTC_Format_BIN)
 762:cmsis/device/stm32f4xx_rtc.c ****   {
 763:cmsis/device/stm32f4xx_rtc.c ****     if ((RTC->CR & RTC_CR_FMT) != (uint32_t)RESET)
 671              		.loc 1 763 0
 672 0002 4FF42053 		mov	r3, #10240	@ tmp308,
 673 0006 C4F20003 		movt	r3, 16384	@ tmp308,
 674 000a 9A68     		ldr	r2, [r3, #8]	@ D.7307,
 761:cmsis/device/stm32f4xx_rtc.c ****   if (RTC_Format == RTC_Format_BIN)
 675              		.loc 1 761 0
 676 000c 0028     		cmp	r0, #0	@ RTC_Format
 677 000e 70D1     		bne	.L64	@
 678              		.loc 1 763 0
 679 0010 12F04004 		ands	r4, r2, #64	@ tmp309, D.7307,
 680 0014 40F09C80 		bne	.L65	@,
 764:cmsis/device/stm32f4xx_rtc.c ****     {
 765:cmsis/device/stm32f4xx_rtc.c ****       assert_param(IS_RTC_HOUR12(RTC_TimeStruct->RTC_Hours));
 766:cmsis/device/stm32f4xx_rtc.c ****       assert_param(IS_RTC_H12(RTC_TimeStruct->RTC_H12));
 767:cmsis/device/stm32f4xx_rtc.c ****     } 
 768:cmsis/device/stm32f4xx_rtc.c ****     else
 769:cmsis/device/stm32f4xx_rtc.c ****     {
 770:cmsis/device/stm32f4xx_rtc.c ****       RTC_TimeStruct->RTC_H12 = 0x00;
 681              		.loc 1 770 0
 682 0018 CC70     		strb	r4, [r1, #3]	@ tmp309, RTC_TimeStruct_9(D)->RTC_H12
 683              	.LVL45:
 684              	.L66:
 771:cmsis/device/stm32f4xx_rtc.c ****       assert_param(IS_RTC_HOUR24(RTC_TimeStruct->RTC_Hours));
 772:cmsis/device/stm32f4xx_rtc.c ****     }
 773:cmsis/device/stm32f4xx_rtc.c ****     assert_param(IS_RTC_MINUTES(RTC_TimeStruct->RTC_Minutes));
ARM GAS  C:\Users\CNous\AppData\Local\Temp\ccCDm0MK.s 			page 28


 774:cmsis/device/stm32f4xx_rtc.c ****     assert_param(IS_RTC_SECONDS(RTC_TimeStruct->RTC_Seconds));
 775:cmsis/device/stm32f4xx_rtc.c ****   }
 776:cmsis/device/stm32f4xx_rtc.c ****   else
 777:cmsis/device/stm32f4xx_rtc.c ****   {
 778:cmsis/device/stm32f4xx_rtc.c ****     if ((RTC->CR & RTC_CR_FMT) != (uint32_t)RESET)
 779:cmsis/device/stm32f4xx_rtc.c ****     {
 780:cmsis/device/stm32f4xx_rtc.c ****       tmpreg = RTC_Bcd2ToByte(RTC_TimeStruct->RTC_Hours);
 781:cmsis/device/stm32f4xx_rtc.c ****       assert_param(IS_RTC_HOUR12(tmpreg));
 782:cmsis/device/stm32f4xx_rtc.c ****       assert_param(IS_RTC_H12(RTC_TimeStruct->RTC_H12)); 
 783:cmsis/device/stm32f4xx_rtc.c ****     } 
 784:cmsis/device/stm32f4xx_rtc.c ****     else
 785:cmsis/device/stm32f4xx_rtc.c ****     {
 786:cmsis/device/stm32f4xx_rtc.c ****       RTC_TimeStruct->RTC_H12 = 0x00;
 787:cmsis/device/stm32f4xx_rtc.c ****       assert_param(IS_RTC_HOUR24(RTC_Bcd2ToByte(RTC_TimeStruct->RTC_Hours)));
 788:cmsis/device/stm32f4xx_rtc.c ****     }
 789:cmsis/device/stm32f4xx_rtc.c ****     assert_param(IS_RTC_MINUTES(RTC_Bcd2ToByte(RTC_TimeStruct->RTC_Minutes)));
 790:cmsis/device/stm32f4xx_rtc.c ****     assert_param(IS_RTC_SECONDS(RTC_Bcd2ToByte(RTC_TimeStruct->RTC_Seconds)));
 791:cmsis/device/stm32f4xx_rtc.c ****   }
 792:cmsis/device/stm32f4xx_rtc.c ****   
 793:cmsis/device/stm32f4xx_rtc.c ****   /* Check the input parameters format */
 794:cmsis/device/stm32f4xx_rtc.c ****   if (RTC_Format != RTC_Format_BIN)
 795:cmsis/device/stm32f4xx_rtc.c ****   {
 796:cmsis/device/stm32f4xx_rtc.c ****     tmpreg = (((uint32_t)(RTC_TimeStruct->RTC_Hours) << 16) | \
 797:cmsis/device/stm32f4xx_rtc.c ****              ((uint32_t)(RTC_TimeStruct->RTC_Minutes) << 8) | \
 798:cmsis/device/stm32f4xx_rtc.c ****              ((uint32_t)RTC_TimeStruct->RTC_Seconds) | \
 799:cmsis/device/stm32f4xx_rtc.c ****              ((uint32_t)(RTC_TimeStruct->RTC_H12) << 16)); 
 800:cmsis/device/stm32f4xx_rtc.c ****   }  
 801:cmsis/device/stm32f4xx_rtc.c ****   else
 802:cmsis/device/stm32f4xx_rtc.c ****   {
 803:cmsis/device/stm32f4xx_rtc.c ****     tmpreg = (uint32_t)(((uint32_t)RTC_ByteToBcd2(RTC_TimeStruct->RTC_Hours) << 16) | \
 685              		.loc 1 803 0
 686 001a 0B78     		ldrb	r3, [r1, #0]	@ zero_extendqisi2	@ Value, RTC_TimeStruct_9(D)->RTC_Hours
 687              	.LVL46:
 688              	.LBB86:
 689              	.LBB87:
 804:cmsis/device/stm32f4xx_rtc.c ****                    ((uint32_t)RTC_ByteToBcd2(RTC_TimeStruct->RTC_Minutes) << 8) | \
 805:cmsis/device/stm32f4xx_rtc.c ****                    ((uint32_t)RTC_ByteToBcd2(RTC_TimeStruct->RTC_Seconds)) | \
 806:cmsis/device/stm32f4xx_rtc.c ****                    (((uint32_t)RTC_TimeStruct->RTC_H12) << 16));
 807:cmsis/device/stm32f4xx_rtc.c ****   }  
 808:cmsis/device/stm32f4xx_rtc.c **** 
 809:cmsis/device/stm32f4xx_rtc.c ****   /* Disable the write protection for RTC registers */
 810:cmsis/device/stm32f4xx_rtc.c ****   RTC->WPR = 0xCA;
 811:cmsis/device/stm32f4xx_rtc.c ****   RTC->WPR = 0x53;
 812:cmsis/device/stm32f4xx_rtc.c **** 
 813:cmsis/device/stm32f4xx_rtc.c ****   /* Set Initialization mode */
 814:cmsis/device/stm32f4xx_rtc.c ****   if (RTC_EnterInitMode() == ERROR)
 815:cmsis/device/stm32f4xx_rtc.c ****   {
 816:cmsis/device/stm32f4xx_rtc.c ****     status = ERROR;
 817:cmsis/device/stm32f4xx_rtc.c ****   } 
 818:cmsis/device/stm32f4xx_rtc.c ****   else
 819:cmsis/device/stm32f4xx_rtc.c ****   {
 820:cmsis/device/stm32f4xx_rtc.c ****     /* Set the RTC_TR register */
 821:cmsis/device/stm32f4xx_rtc.c ****     RTC->TR = (uint32_t)(tmpreg & RTC_TR_RESERVED_MASK);
 822:cmsis/device/stm32f4xx_rtc.c **** 
 823:cmsis/device/stm32f4xx_rtc.c ****     /* Exit Initialization mode */
 824:cmsis/device/stm32f4xx_rtc.c ****     RTC_ExitInitMode(); 
 825:cmsis/device/stm32f4xx_rtc.c **** 
ARM GAS  C:\Users\CNous\AppData\Local\Temp\ccCDm0MK.s 			page 29


 826:cmsis/device/stm32f4xx_rtc.c ****     if(RTC_WaitForSynchro() == ERROR)
 827:cmsis/device/stm32f4xx_rtc.c ****     {
 828:cmsis/device/stm32f4xx_rtc.c ****       status = ERROR;
 829:cmsis/device/stm32f4xx_rtc.c ****     }
 830:cmsis/device/stm32f4xx_rtc.c ****     else
 831:cmsis/device/stm32f4xx_rtc.c ****     {
 832:cmsis/device/stm32f4xx_rtc.c ****       status = SUCCESS;
 833:cmsis/device/stm32f4xx_rtc.c ****     }
 834:cmsis/device/stm32f4xx_rtc.c ****   
 835:cmsis/device/stm32f4xx_rtc.c ****   }
 836:cmsis/device/stm32f4xx_rtc.c ****   /* Enable the write protection for RTC registers */
 837:cmsis/device/stm32f4xx_rtc.c ****   RTC->WPR = 0xFF; 
 838:cmsis/device/stm32f4xx_rtc.c ****     
 839:cmsis/device/stm32f4xx_rtc.c ****   return status;
 840:cmsis/device/stm32f4xx_rtc.c **** }
 841:cmsis/device/stm32f4xx_rtc.c **** 
 842:cmsis/device/stm32f4xx_rtc.c **** /**
 843:cmsis/device/stm32f4xx_rtc.c ****   * @brief  Fills each RTC_TimeStruct member with its default value
 844:cmsis/device/stm32f4xx_rtc.c ****   *         (Time = 00h:00min:00sec).
 845:cmsis/device/stm32f4xx_rtc.c ****   * @param  RTC_TimeStruct: pointer to a RTC_TimeTypeDef structure which will be 
 846:cmsis/device/stm32f4xx_rtc.c ****   *         initialized.
 847:cmsis/device/stm32f4xx_rtc.c ****   * @retval None
 848:cmsis/device/stm32f4xx_rtc.c ****   */
 849:cmsis/device/stm32f4xx_rtc.c **** void RTC_TimeStructInit(RTC_TimeTypeDef* RTC_TimeStruct)
 850:cmsis/device/stm32f4xx_rtc.c **** {
 851:cmsis/device/stm32f4xx_rtc.c ****   /* Time = 00h:00min:00sec */
 852:cmsis/device/stm32f4xx_rtc.c ****   RTC_TimeStruct->RTC_H12 = RTC_H12_AM;
 853:cmsis/device/stm32f4xx_rtc.c ****   RTC_TimeStruct->RTC_Hours = 0;
 854:cmsis/device/stm32f4xx_rtc.c ****   RTC_TimeStruct->RTC_Minutes = 0;
 855:cmsis/device/stm32f4xx_rtc.c ****   RTC_TimeStruct->RTC_Seconds = 0; 
 856:cmsis/device/stm32f4xx_rtc.c **** }
 857:cmsis/device/stm32f4xx_rtc.c **** 
 858:cmsis/device/stm32f4xx_rtc.c **** /**
 859:cmsis/device/stm32f4xx_rtc.c ****   * @brief  Get the RTC current Time.
 860:cmsis/device/stm32f4xx_rtc.c ****   * @param  RTC_Format: specifies the format of the returned parameters.
 861:cmsis/device/stm32f4xx_rtc.c ****   *          This parameter can be  one of the following values:
 862:cmsis/device/stm32f4xx_rtc.c ****   *            @arg RTC_Format_BIN:  Binary data format 
 863:cmsis/device/stm32f4xx_rtc.c ****   *            @arg RTC_Format_BCD:  BCD data format
 864:cmsis/device/stm32f4xx_rtc.c ****   * @param  RTC_TimeStruct: pointer to a RTC_TimeTypeDef structure that will 
 865:cmsis/device/stm32f4xx_rtc.c ****   *                        contain the returned current time configuration.     
 866:cmsis/device/stm32f4xx_rtc.c ****   * @retval None
 867:cmsis/device/stm32f4xx_rtc.c ****   */
 868:cmsis/device/stm32f4xx_rtc.c **** void RTC_GetTime(uint32_t RTC_Format, RTC_TimeTypeDef* RTC_TimeStruct)
 869:cmsis/device/stm32f4xx_rtc.c **** {
 870:cmsis/device/stm32f4xx_rtc.c ****   uint32_t tmpreg = 0;
 871:cmsis/device/stm32f4xx_rtc.c **** 
 872:cmsis/device/stm32f4xx_rtc.c ****   /* Check the parameters */
 873:cmsis/device/stm32f4xx_rtc.c ****   assert_param(IS_RTC_FORMAT(RTC_Format));
 874:cmsis/device/stm32f4xx_rtc.c **** 
 875:cmsis/device/stm32f4xx_rtc.c ****   /* Get the RTC_TR register */
 876:cmsis/device/stm32f4xx_rtc.c ****   tmpreg = (uint32_t)(RTC->TR & RTC_TR_RESERVED_MASK); 
 877:cmsis/device/stm32f4xx_rtc.c ****   
 878:cmsis/device/stm32f4xx_rtc.c ****   /* Fill the structure fields with the read parameters */
 879:cmsis/device/stm32f4xx_rtc.c ****   RTC_TimeStruct->RTC_Hours = (uint8_t)((tmpreg & (RTC_TR_HT | RTC_TR_HU)) >> 16);
 880:cmsis/device/stm32f4xx_rtc.c ****   RTC_TimeStruct->RTC_Minutes = (uint8_t)((tmpreg & (RTC_TR_MNT | RTC_TR_MNU)) >>8);
 881:cmsis/device/stm32f4xx_rtc.c ****   RTC_TimeStruct->RTC_Seconds = (uint8_t)(tmpreg & (RTC_TR_ST | RTC_TR_SU));
 882:cmsis/device/stm32f4xx_rtc.c ****   RTC_TimeStruct->RTC_H12 = (uint8_t)((tmpreg & (RTC_TR_PM)) >> 16);  
ARM GAS  C:\Users\CNous\AppData\Local\Temp\ccCDm0MK.s 			page 30


 883:cmsis/device/stm32f4xx_rtc.c **** 
 884:cmsis/device/stm32f4xx_rtc.c ****   /* Check the input parameters format */
 885:cmsis/device/stm32f4xx_rtc.c ****   if (RTC_Format == RTC_Format_BIN)
 886:cmsis/device/stm32f4xx_rtc.c ****   {
 887:cmsis/device/stm32f4xx_rtc.c ****     /* Convert the structure parameters to Binary format */
 888:cmsis/device/stm32f4xx_rtc.c ****     RTC_TimeStruct->RTC_Hours = (uint8_t)RTC_Bcd2ToByte(RTC_TimeStruct->RTC_Hours);
 889:cmsis/device/stm32f4xx_rtc.c ****     RTC_TimeStruct->RTC_Minutes = (uint8_t)RTC_Bcd2ToByte(RTC_TimeStruct->RTC_Minutes);
 890:cmsis/device/stm32f4xx_rtc.c ****     RTC_TimeStruct->RTC_Seconds = (uint8_t)RTC_Bcd2ToByte(RTC_TimeStruct->RTC_Seconds);   
 891:cmsis/device/stm32f4xx_rtc.c ****   }
 892:cmsis/device/stm32f4xx_rtc.c **** }
 893:cmsis/device/stm32f4xx_rtc.c **** 
 894:cmsis/device/stm32f4xx_rtc.c **** /**
 895:cmsis/device/stm32f4xx_rtc.c ****   * @brief  Gets the RTC current Calendar Subseconds value.
 896:cmsis/device/stm32f4xx_rtc.c ****   * @note   This function freeze the Time and Date registers after reading the 
 897:cmsis/device/stm32f4xx_rtc.c ****   *         SSR register.
 898:cmsis/device/stm32f4xx_rtc.c ****   * @param  None
 899:cmsis/device/stm32f4xx_rtc.c ****   * @retval RTC current Calendar Subseconds value.
 900:cmsis/device/stm32f4xx_rtc.c ****   */
 901:cmsis/device/stm32f4xx_rtc.c **** uint32_t RTC_GetSubSecond(void)
 902:cmsis/device/stm32f4xx_rtc.c **** {
 903:cmsis/device/stm32f4xx_rtc.c ****   uint32_t tmpreg = 0;
 904:cmsis/device/stm32f4xx_rtc.c ****   
 905:cmsis/device/stm32f4xx_rtc.c ****   /* Get subseconds values from the correspondent registers*/
 906:cmsis/device/stm32f4xx_rtc.c ****   tmpreg = (uint32_t)(RTC->SSR);
 907:cmsis/device/stm32f4xx_rtc.c ****   
 908:cmsis/device/stm32f4xx_rtc.c ****   /* Read DR register to unfroze calendar registers */
 909:cmsis/device/stm32f4xx_rtc.c ****   (void) (RTC->DR);
 910:cmsis/device/stm32f4xx_rtc.c ****   
 911:cmsis/device/stm32f4xx_rtc.c ****   return (tmpreg);
 912:cmsis/device/stm32f4xx_rtc.c **** }
 913:cmsis/device/stm32f4xx_rtc.c **** 
 914:cmsis/device/stm32f4xx_rtc.c **** /**
 915:cmsis/device/stm32f4xx_rtc.c ****   * @brief  Set the RTC current date.
 916:cmsis/device/stm32f4xx_rtc.c ****   * @param  RTC_Format: specifies the format of the entered parameters.
 917:cmsis/device/stm32f4xx_rtc.c ****   *          This parameter can be  one of the following values:
 918:cmsis/device/stm32f4xx_rtc.c ****   *            @arg RTC_Format_BIN:  Binary data format 
 919:cmsis/device/stm32f4xx_rtc.c ****   *            @arg RTC_Format_BCD:  BCD data format
 920:cmsis/device/stm32f4xx_rtc.c ****   * @param  RTC_DateStruct: pointer to a RTC_DateTypeDef structure that contains 
 921:cmsis/device/stm32f4xx_rtc.c ****   *                         the date configuration information for the RTC.
 922:cmsis/device/stm32f4xx_rtc.c ****   * @retval An ErrorStatus enumeration value:
 923:cmsis/device/stm32f4xx_rtc.c ****   *          - SUCCESS: RTC Date register is configured
 924:cmsis/device/stm32f4xx_rtc.c ****   *          - ERROR: RTC Date register is not configured
 925:cmsis/device/stm32f4xx_rtc.c ****   */
 926:cmsis/device/stm32f4xx_rtc.c **** ErrorStatus RTC_SetDate(uint32_t RTC_Format, RTC_DateTypeDef* RTC_DateStruct)
 927:cmsis/device/stm32f4xx_rtc.c **** {
 928:cmsis/device/stm32f4xx_rtc.c ****   uint32_t tmpreg = 0;
 929:cmsis/device/stm32f4xx_rtc.c ****   ErrorStatus status = ERROR;
 930:cmsis/device/stm32f4xx_rtc.c ****   
 931:cmsis/device/stm32f4xx_rtc.c ****   /* Check the parameters */
 932:cmsis/device/stm32f4xx_rtc.c ****   assert_param(IS_RTC_FORMAT(RTC_Format));
 933:cmsis/device/stm32f4xx_rtc.c **** 
 934:cmsis/device/stm32f4xx_rtc.c ****   if ((RTC_Format == RTC_Format_BIN) && ((RTC_DateStruct->RTC_Month & 0x10) == 0x10))
 935:cmsis/device/stm32f4xx_rtc.c ****   {
 936:cmsis/device/stm32f4xx_rtc.c ****     RTC_DateStruct->RTC_Month = (RTC_DateStruct->RTC_Month & (uint32_t)~(0x10)) + 0x0A;
 937:cmsis/device/stm32f4xx_rtc.c ****   }  
 938:cmsis/device/stm32f4xx_rtc.c ****   if (RTC_Format == RTC_Format_BIN)
 939:cmsis/device/stm32f4xx_rtc.c ****   {
ARM GAS  C:\Users\CNous\AppData\Local\Temp\ccCDm0MK.s 			page 31


 940:cmsis/device/stm32f4xx_rtc.c ****     assert_param(IS_RTC_YEAR(RTC_DateStruct->RTC_Year));
 941:cmsis/device/stm32f4xx_rtc.c ****     assert_param(IS_RTC_MONTH(RTC_DateStruct->RTC_Month));
 942:cmsis/device/stm32f4xx_rtc.c ****     assert_param(IS_RTC_DATE(RTC_DateStruct->RTC_Date));
 943:cmsis/device/stm32f4xx_rtc.c ****   }
 944:cmsis/device/stm32f4xx_rtc.c ****   else
 945:cmsis/device/stm32f4xx_rtc.c ****   {
 946:cmsis/device/stm32f4xx_rtc.c ****     assert_param(IS_RTC_YEAR(RTC_Bcd2ToByte(RTC_DateStruct->RTC_Year)));
 947:cmsis/device/stm32f4xx_rtc.c ****     tmpreg = RTC_Bcd2ToByte(RTC_DateStruct->RTC_Month);
 948:cmsis/device/stm32f4xx_rtc.c ****     assert_param(IS_RTC_MONTH(tmpreg));
 949:cmsis/device/stm32f4xx_rtc.c ****     tmpreg = RTC_Bcd2ToByte(RTC_DateStruct->RTC_Date);
 950:cmsis/device/stm32f4xx_rtc.c ****     assert_param(IS_RTC_DATE(tmpreg));
 951:cmsis/device/stm32f4xx_rtc.c ****   }
 952:cmsis/device/stm32f4xx_rtc.c ****   assert_param(IS_RTC_WEEKDAY(RTC_DateStruct->RTC_WeekDay));
 953:cmsis/device/stm32f4xx_rtc.c **** 
 954:cmsis/device/stm32f4xx_rtc.c ****   /* Check the input parameters format */
 955:cmsis/device/stm32f4xx_rtc.c ****   if (RTC_Format != RTC_Format_BIN)
 956:cmsis/device/stm32f4xx_rtc.c ****   {
 957:cmsis/device/stm32f4xx_rtc.c ****     tmpreg = ((((uint32_t)RTC_DateStruct->RTC_Year) << 16) | \
 958:cmsis/device/stm32f4xx_rtc.c ****               (((uint32_t)RTC_DateStruct->RTC_Month) << 8) | \
 959:cmsis/device/stm32f4xx_rtc.c ****               ((uint32_t)RTC_DateStruct->RTC_Date) | \
 960:cmsis/device/stm32f4xx_rtc.c ****               (((uint32_t)RTC_DateStruct->RTC_WeekDay) << 13)); 
 961:cmsis/device/stm32f4xx_rtc.c ****   }  
 962:cmsis/device/stm32f4xx_rtc.c ****   else
 963:cmsis/device/stm32f4xx_rtc.c ****   {
 964:cmsis/device/stm32f4xx_rtc.c ****     tmpreg = (((uint32_t)RTC_ByteToBcd2(RTC_DateStruct->RTC_Year) << 16) | \
 965:cmsis/device/stm32f4xx_rtc.c ****               ((uint32_t)RTC_ByteToBcd2(RTC_DateStruct->RTC_Month) << 8) | \
 966:cmsis/device/stm32f4xx_rtc.c ****               ((uint32_t)RTC_ByteToBcd2(RTC_DateStruct->RTC_Date)) | \
 967:cmsis/device/stm32f4xx_rtc.c ****               ((uint32_t)RTC_DateStruct->RTC_WeekDay << 13));
 968:cmsis/device/stm32f4xx_rtc.c ****   }
 969:cmsis/device/stm32f4xx_rtc.c **** 
 970:cmsis/device/stm32f4xx_rtc.c ****   /* Disable the write protection for RTC registers */
 971:cmsis/device/stm32f4xx_rtc.c ****   RTC->WPR = 0xCA;
 972:cmsis/device/stm32f4xx_rtc.c ****   RTC->WPR = 0x53;
 973:cmsis/device/stm32f4xx_rtc.c **** 
 974:cmsis/device/stm32f4xx_rtc.c ****   /* Set Initialization mode */
 975:cmsis/device/stm32f4xx_rtc.c ****   if (RTC_EnterInitMode() == ERROR)
 976:cmsis/device/stm32f4xx_rtc.c ****   {
 977:cmsis/device/stm32f4xx_rtc.c ****     status = ERROR;
 978:cmsis/device/stm32f4xx_rtc.c ****   } 
 979:cmsis/device/stm32f4xx_rtc.c ****   else
 980:cmsis/device/stm32f4xx_rtc.c ****   {
 981:cmsis/device/stm32f4xx_rtc.c ****     /* Set the RTC_DR register */
 982:cmsis/device/stm32f4xx_rtc.c ****     RTC->DR = (uint32_t)(tmpreg & RTC_DR_RESERVED_MASK);
 983:cmsis/device/stm32f4xx_rtc.c **** 
 984:cmsis/device/stm32f4xx_rtc.c ****     /* Exit Initialization mode */
 985:cmsis/device/stm32f4xx_rtc.c ****     RTC_ExitInitMode(); 
 986:cmsis/device/stm32f4xx_rtc.c **** 
 987:cmsis/device/stm32f4xx_rtc.c ****     if(RTC_WaitForSynchro() == ERROR)
 988:cmsis/device/stm32f4xx_rtc.c ****     {
 989:cmsis/device/stm32f4xx_rtc.c ****       status = ERROR;
 990:cmsis/device/stm32f4xx_rtc.c ****     }
 991:cmsis/device/stm32f4xx_rtc.c ****     else
 992:cmsis/device/stm32f4xx_rtc.c ****     {
 993:cmsis/device/stm32f4xx_rtc.c ****       status = SUCCESS;
 994:cmsis/device/stm32f4xx_rtc.c ****     }
 995:cmsis/device/stm32f4xx_rtc.c ****   }
 996:cmsis/device/stm32f4xx_rtc.c ****   /* Enable the write protection for RTC registers */
ARM GAS  C:\Users\CNous\AppData\Local\Temp\ccCDm0MK.s 			page 32


 997:cmsis/device/stm32f4xx_rtc.c ****   RTC->WPR = 0xFF;   
 998:cmsis/device/stm32f4xx_rtc.c ****   
 999:cmsis/device/stm32f4xx_rtc.c ****   return status;
1000:cmsis/device/stm32f4xx_rtc.c **** }
1001:cmsis/device/stm32f4xx_rtc.c **** 
1002:cmsis/device/stm32f4xx_rtc.c **** /**
1003:cmsis/device/stm32f4xx_rtc.c ****   * @brief  Fills each RTC_DateStruct member with its default value
1004:cmsis/device/stm32f4xx_rtc.c ****   *         (Monday, January 01 xx00).
1005:cmsis/device/stm32f4xx_rtc.c ****   * @param  RTC_DateStruct: pointer to a RTC_DateTypeDef structure which will be 
1006:cmsis/device/stm32f4xx_rtc.c ****   *         initialized.
1007:cmsis/device/stm32f4xx_rtc.c ****   * @retval None
1008:cmsis/device/stm32f4xx_rtc.c ****   */
1009:cmsis/device/stm32f4xx_rtc.c **** void RTC_DateStructInit(RTC_DateTypeDef* RTC_DateStruct)
1010:cmsis/device/stm32f4xx_rtc.c **** {
1011:cmsis/device/stm32f4xx_rtc.c ****   /* Monday, January 01 xx00 */
1012:cmsis/device/stm32f4xx_rtc.c ****   RTC_DateStruct->RTC_WeekDay = RTC_Weekday_Monday;
1013:cmsis/device/stm32f4xx_rtc.c ****   RTC_DateStruct->RTC_Date = 1;
1014:cmsis/device/stm32f4xx_rtc.c ****   RTC_DateStruct->RTC_Month = RTC_Month_January;
1015:cmsis/device/stm32f4xx_rtc.c ****   RTC_DateStruct->RTC_Year = 0;
1016:cmsis/device/stm32f4xx_rtc.c **** }
1017:cmsis/device/stm32f4xx_rtc.c **** 
1018:cmsis/device/stm32f4xx_rtc.c **** /**
1019:cmsis/device/stm32f4xx_rtc.c ****   * @brief  Get the RTC current date. 
1020:cmsis/device/stm32f4xx_rtc.c ****   * @param  RTC_Format: specifies the format of the returned parameters.
1021:cmsis/device/stm32f4xx_rtc.c ****   *          This parameter can be one of the following values:
1022:cmsis/device/stm32f4xx_rtc.c ****   *            @arg RTC_Format_BIN: Binary data format 
1023:cmsis/device/stm32f4xx_rtc.c ****   *            @arg RTC_Format_BCD: BCD data format
1024:cmsis/device/stm32f4xx_rtc.c ****   * @param RTC_DateStruct: pointer to a RTC_DateTypeDef structure that will 
1025:cmsis/device/stm32f4xx_rtc.c ****   *                        contain the returned current date configuration.     
1026:cmsis/device/stm32f4xx_rtc.c ****   * @retval None
1027:cmsis/device/stm32f4xx_rtc.c ****   */
1028:cmsis/device/stm32f4xx_rtc.c **** void RTC_GetDate(uint32_t RTC_Format, RTC_DateTypeDef* RTC_DateStruct)
1029:cmsis/device/stm32f4xx_rtc.c **** {
1030:cmsis/device/stm32f4xx_rtc.c ****   uint32_t tmpreg = 0;
1031:cmsis/device/stm32f4xx_rtc.c **** 
1032:cmsis/device/stm32f4xx_rtc.c ****   /* Check the parameters */
1033:cmsis/device/stm32f4xx_rtc.c ****   assert_param(IS_RTC_FORMAT(RTC_Format));
1034:cmsis/device/stm32f4xx_rtc.c ****   
1035:cmsis/device/stm32f4xx_rtc.c ****   /* Get the RTC_TR register */
1036:cmsis/device/stm32f4xx_rtc.c ****   tmpreg = (uint32_t)(RTC->DR & RTC_DR_RESERVED_MASK); 
1037:cmsis/device/stm32f4xx_rtc.c **** 
1038:cmsis/device/stm32f4xx_rtc.c ****   /* Fill the structure fields with the read parameters */
1039:cmsis/device/stm32f4xx_rtc.c ****   RTC_DateStruct->RTC_Year = (uint8_t)((tmpreg & (RTC_DR_YT | RTC_DR_YU)) >> 16);
1040:cmsis/device/stm32f4xx_rtc.c ****   RTC_DateStruct->RTC_Month = (uint8_t)((tmpreg & (RTC_DR_MT | RTC_DR_MU)) >> 8);
1041:cmsis/device/stm32f4xx_rtc.c ****   RTC_DateStruct->RTC_Date = (uint8_t)(tmpreg & (RTC_DR_DT | RTC_DR_DU));
1042:cmsis/device/stm32f4xx_rtc.c ****   RTC_DateStruct->RTC_WeekDay = (uint8_t)((tmpreg & (RTC_DR_WDU)) >> 13);
1043:cmsis/device/stm32f4xx_rtc.c **** 
1044:cmsis/device/stm32f4xx_rtc.c ****   /* Check the input parameters format */
1045:cmsis/device/stm32f4xx_rtc.c ****   if (RTC_Format == RTC_Format_BIN)
1046:cmsis/device/stm32f4xx_rtc.c ****   {
1047:cmsis/device/stm32f4xx_rtc.c ****     /* Convert the structure parameters to Binary format */
1048:cmsis/device/stm32f4xx_rtc.c ****     RTC_DateStruct->RTC_Year = (uint8_t)RTC_Bcd2ToByte(RTC_DateStruct->RTC_Year);
1049:cmsis/device/stm32f4xx_rtc.c ****     RTC_DateStruct->RTC_Month = (uint8_t)RTC_Bcd2ToByte(RTC_DateStruct->RTC_Month);
1050:cmsis/device/stm32f4xx_rtc.c ****     RTC_DateStruct->RTC_Date = (uint8_t)RTC_Bcd2ToByte(RTC_DateStruct->RTC_Date);
1051:cmsis/device/stm32f4xx_rtc.c ****   }
1052:cmsis/device/stm32f4xx_rtc.c **** }
1053:cmsis/device/stm32f4xx_rtc.c **** 
ARM GAS  C:\Users\CNous\AppData\Local\Temp\ccCDm0MK.s 			page 33


1054:cmsis/device/stm32f4xx_rtc.c **** /**
1055:cmsis/device/stm32f4xx_rtc.c ****   * @}
1056:cmsis/device/stm32f4xx_rtc.c ****   */
1057:cmsis/device/stm32f4xx_rtc.c **** 
1058:cmsis/device/stm32f4xx_rtc.c **** /** @defgroup RTC_Group3 Alarms configuration functions
1059:cmsis/device/stm32f4xx_rtc.c ****  *  @brief   Alarms (Alarm A and Alarm B) configuration functions 
1060:cmsis/device/stm32f4xx_rtc.c ****  *
1061:cmsis/device/stm32f4xx_rtc.c **** @verbatim   
1062:cmsis/device/stm32f4xx_rtc.c ****  ===============================================================================
1063:cmsis/device/stm32f4xx_rtc.c ****               Alarms (Alarm A and Alarm B) configuration functions
1064:cmsis/device/stm32f4xx_rtc.c ****  ===============================================================================  
1065:cmsis/device/stm32f4xx_rtc.c **** 
1066:cmsis/device/stm32f4xx_rtc.c ****   This section provide functions allowing to program and read the RTC Alarms.
1067:cmsis/device/stm32f4xx_rtc.c **** 
1068:cmsis/device/stm32f4xx_rtc.c **** @endverbatim
1069:cmsis/device/stm32f4xx_rtc.c ****   * @{
1070:cmsis/device/stm32f4xx_rtc.c ****   */
1071:cmsis/device/stm32f4xx_rtc.c **** 
1072:cmsis/device/stm32f4xx_rtc.c **** /**
1073:cmsis/device/stm32f4xx_rtc.c ****   * @brief  Set the specified RTC Alarm.
1074:cmsis/device/stm32f4xx_rtc.c ****   * @note   The Alarm register can only be written when the corresponding Alarm
1075:cmsis/device/stm32f4xx_rtc.c ****   *         is disabled (Use the RTC_AlarmCmd(DISABLE)).    
1076:cmsis/device/stm32f4xx_rtc.c ****   * @param  RTC_Format: specifies the format of the returned parameters.
1077:cmsis/device/stm32f4xx_rtc.c ****   *          This parameter can be one of the following values:
1078:cmsis/device/stm32f4xx_rtc.c ****   *            @arg RTC_Format_BIN: Binary data format 
1079:cmsis/device/stm32f4xx_rtc.c ****   *            @arg RTC_Format_BCD: BCD data format
1080:cmsis/device/stm32f4xx_rtc.c ****   * @param  RTC_Alarm: specifies the alarm to be configured.
1081:cmsis/device/stm32f4xx_rtc.c ****   *          This parameter can be one of the following values:
1082:cmsis/device/stm32f4xx_rtc.c ****   *            @arg RTC_Alarm_A: to select Alarm A
1083:cmsis/device/stm32f4xx_rtc.c ****   *            @arg RTC_Alarm_B: to select Alarm B  
1084:cmsis/device/stm32f4xx_rtc.c ****   * @param  RTC_AlarmStruct: pointer to a RTC_AlarmTypeDef structure that 
1085:cmsis/device/stm32f4xx_rtc.c ****   *                          contains the alarm configuration parameters.     
1086:cmsis/device/stm32f4xx_rtc.c ****   * @retval None
1087:cmsis/device/stm32f4xx_rtc.c ****   */
1088:cmsis/device/stm32f4xx_rtc.c **** void RTC_SetAlarm(uint32_t RTC_Format, uint32_t RTC_Alarm, RTC_AlarmTypeDef* RTC_AlarmStruct)
1089:cmsis/device/stm32f4xx_rtc.c **** {
1090:cmsis/device/stm32f4xx_rtc.c ****   uint32_t tmpreg = 0;
1091:cmsis/device/stm32f4xx_rtc.c ****   
1092:cmsis/device/stm32f4xx_rtc.c ****   /* Check the parameters */
1093:cmsis/device/stm32f4xx_rtc.c ****   assert_param(IS_RTC_FORMAT(RTC_Format));
1094:cmsis/device/stm32f4xx_rtc.c ****   assert_param(IS_RTC_ALARM(RTC_Alarm));
1095:cmsis/device/stm32f4xx_rtc.c ****   assert_param(IS_ALARM_MASK(RTC_AlarmStruct->RTC_AlarmMask));
1096:cmsis/device/stm32f4xx_rtc.c ****   assert_param(IS_RTC_ALARM_DATE_WEEKDAY_SEL(RTC_AlarmStruct->RTC_AlarmDateWeekDaySel));
1097:cmsis/device/stm32f4xx_rtc.c **** 
1098:cmsis/device/stm32f4xx_rtc.c ****   if (RTC_Format == RTC_Format_BIN)
1099:cmsis/device/stm32f4xx_rtc.c ****   {
1100:cmsis/device/stm32f4xx_rtc.c ****     if ((RTC->CR & RTC_CR_FMT) != (uint32_t)RESET)
1101:cmsis/device/stm32f4xx_rtc.c ****     {
1102:cmsis/device/stm32f4xx_rtc.c ****       assert_param(IS_RTC_HOUR12(RTC_AlarmStruct->RTC_AlarmTime.RTC_Hours));
1103:cmsis/device/stm32f4xx_rtc.c ****       assert_param(IS_RTC_H12(RTC_AlarmStruct->RTC_AlarmTime.RTC_H12));
1104:cmsis/device/stm32f4xx_rtc.c ****     } 
1105:cmsis/device/stm32f4xx_rtc.c ****     else
1106:cmsis/device/stm32f4xx_rtc.c ****     {
1107:cmsis/device/stm32f4xx_rtc.c ****       RTC_AlarmStruct->RTC_AlarmTime.RTC_H12 = 0x00;
1108:cmsis/device/stm32f4xx_rtc.c ****       assert_param(IS_RTC_HOUR24(RTC_AlarmStruct->RTC_AlarmTime.RTC_Hours));
1109:cmsis/device/stm32f4xx_rtc.c ****     }
1110:cmsis/device/stm32f4xx_rtc.c ****     assert_param(IS_RTC_MINUTES(RTC_AlarmStruct->RTC_AlarmTime.RTC_Minutes));
ARM GAS  C:\Users\CNous\AppData\Local\Temp\ccCDm0MK.s 			page 34


1111:cmsis/device/stm32f4xx_rtc.c ****     assert_param(IS_RTC_SECONDS(RTC_AlarmStruct->RTC_AlarmTime.RTC_Seconds));
1112:cmsis/device/stm32f4xx_rtc.c ****     
1113:cmsis/device/stm32f4xx_rtc.c ****     if(RTC_AlarmStruct->RTC_AlarmDateWeekDaySel == RTC_AlarmDateWeekDaySel_Date)
1114:cmsis/device/stm32f4xx_rtc.c ****     {
1115:cmsis/device/stm32f4xx_rtc.c ****       assert_param(IS_RTC_ALARM_DATE_WEEKDAY_DATE(RTC_AlarmStruct->RTC_AlarmDateWeekDay));
1116:cmsis/device/stm32f4xx_rtc.c ****     }
1117:cmsis/device/stm32f4xx_rtc.c ****     else
1118:cmsis/device/stm32f4xx_rtc.c ****     {
1119:cmsis/device/stm32f4xx_rtc.c ****       assert_param(IS_RTC_ALARM_DATE_WEEKDAY_WEEKDAY(RTC_AlarmStruct->RTC_AlarmDateWeekDay));
1120:cmsis/device/stm32f4xx_rtc.c ****     }
1121:cmsis/device/stm32f4xx_rtc.c ****   }
1122:cmsis/device/stm32f4xx_rtc.c ****   else
1123:cmsis/device/stm32f4xx_rtc.c ****   {
1124:cmsis/device/stm32f4xx_rtc.c ****     if ((RTC->CR & RTC_CR_FMT) != (uint32_t)RESET)
1125:cmsis/device/stm32f4xx_rtc.c ****     {
1126:cmsis/device/stm32f4xx_rtc.c ****       tmpreg = RTC_Bcd2ToByte(RTC_AlarmStruct->RTC_AlarmTime.RTC_Hours);
1127:cmsis/device/stm32f4xx_rtc.c ****       assert_param(IS_RTC_HOUR12(tmpreg));
1128:cmsis/device/stm32f4xx_rtc.c ****       assert_param(IS_RTC_H12(RTC_AlarmStruct->RTC_AlarmTime.RTC_H12));
1129:cmsis/device/stm32f4xx_rtc.c ****     } 
1130:cmsis/device/stm32f4xx_rtc.c ****     else
1131:cmsis/device/stm32f4xx_rtc.c ****     {
1132:cmsis/device/stm32f4xx_rtc.c ****       RTC_AlarmStruct->RTC_AlarmTime.RTC_H12 = 0x00;
1133:cmsis/device/stm32f4xx_rtc.c ****       assert_param(IS_RTC_HOUR24(RTC_Bcd2ToByte(RTC_AlarmStruct->RTC_AlarmTime.RTC_Hours)));
1134:cmsis/device/stm32f4xx_rtc.c ****     }
1135:cmsis/device/stm32f4xx_rtc.c ****     
1136:cmsis/device/stm32f4xx_rtc.c ****     assert_param(IS_RTC_MINUTES(RTC_Bcd2ToByte(RTC_AlarmStruct->RTC_AlarmTime.RTC_Minutes)));
1137:cmsis/device/stm32f4xx_rtc.c ****     assert_param(IS_RTC_SECONDS(RTC_Bcd2ToByte(RTC_AlarmStruct->RTC_AlarmTime.RTC_Seconds)));
1138:cmsis/device/stm32f4xx_rtc.c ****     
1139:cmsis/device/stm32f4xx_rtc.c ****     if(RTC_AlarmStruct->RTC_AlarmDateWeekDaySel == RTC_AlarmDateWeekDaySel_Date)
1140:cmsis/device/stm32f4xx_rtc.c ****     {
1141:cmsis/device/stm32f4xx_rtc.c ****       tmpreg = RTC_Bcd2ToByte(RTC_AlarmStruct->RTC_AlarmDateWeekDay);
1142:cmsis/device/stm32f4xx_rtc.c ****       assert_param(IS_RTC_ALARM_DATE_WEEKDAY_DATE(tmpreg));    
1143:cmsis/device/stm32f4xx_rtc.c ****     }
1144:cmsis/device/stm32f4xx_rtc.c ****     else
1145:cmsis/device/stm32f4xx_rtc.c ****     {
1146:cmsis/device/stm32f4xx_rtc.c ****       tmpreg = RTC_Bcd2ToByte(RTC_AlarmStruct->RTC_AlarmDateWeekDay);
1147:cmsis/device/stm32f4xx_rtc.c ****       assert_param(IS_RTC_ALARM_DATE_WEEKDAY_WEEKDAY(tmpreg));      
1148:cmsis/device/stm32f4xx_rtc.c ****     }    
1149:cmsis/device/stm32f4xx_rtc.c ****   }
1150:cmsis/device/stm32f4xx_rtc.c **** 
1151:cmsis/device/stm32f4xx_rtc.c ****   /* Check the input parameters format */
1152:cmsis/device/stm32f4xx_rtc.c ****   if (RTC_Format != RTC_Format_BIN)
1153:cmsis/device/stm32f4xx_rtc.c ****   {
1154:cmsis/device/stm32f4xx_rtc.c ****     tmpreg = (((uint32_t)(RTC_AlarmStruct->RTC_AlarmTime.RTC_Hours) << 16) | \
1155:cmsis/device/stm32f4xx_rtc.c ****               ((uint32_t)(RTC_AlarmStruct->RTC_AlarmTime.RTC_Minutes) << 8) | \
1156:cmsis/device/stm32f4xx_rtc.c ****               ((uint32_t)RTC_AlarmStruct->RTC_AlarmTime.RTC_Seconds) | \
1157:cmsis/device/stm32f4xx_rtc.c ****               ((uint32_t)(RTC_AlarmStruct->RTC_AlarmTime.RTC_H12) << 16) | \
1158:cmsis/device/stm32f4xx_rtc.c ****               ((uint32_t)(RTC_AlarmStruct->RTC_AlarmDateWeekDay) << 24) | \
1159:cmsis/device/stm32f4xx_rtc.c ****               ((uint32_t)RTC_AlarmStruct->RTC_AlarmDateWeekDaySel) | \
1160:cmsis/device/stm32f4xx_rtc.c ****               ((uint32_t)RTC_AlarmStruct->RTC_AlarmMask)); 
1161:cmsis/device/stm32f4xx_rtc.c ****   }  
1162:cmsis/device/stm32f4xx_rtc.c ****   else
1163:cmsis/device/stm32f4xx_rtc.c ****   {
1164:cmsis/device/stm32f4xx_rtc.c ****     tmpreg = (((uint32_t)RTC_ByteToBcd2(RTC_AlarmStruct->RTC_AlarmTime.RTC_Hours) << 16) | \
1165:cmsis/device/stm32f4xx_rtc.c ****               ((uint32_t)RTC_ByteToBcd2(RTC_AlarmStruct->RTC_AlarmTime.RTC_Minutes) << 8) | \
1166:cmsis/device/stm32f4xx_rtc.c ****               ((uint32_t)RTC_ByteToBcd2(RTC_AlarmStruct->RTC_AlarmTime.RTC_Seconds)) | \
1167:cmsis/device/stm32f4xx_rtc.c ****               ((uint32_t)(RTC_AlarmStruct->RTC_AlarmTime.RTC_H12) << 16) | \
ARM GAS  C:\Users\CNous\AppData\Local\Temp\ccCDm0MK.s 			page 35


1168:cmsis/device/stm32f4xx_rtc.c ****               ((uint32_t)RTC_ByteToBcd2(RTC_AlarmStruct->RTC_AlarmDateWeekDay) << 24) | \
1169:cmsis/device/stm32f4xx_rtc.c ****               ((uint32_t)RTC_AlarmStruct->RTC_AlarmDateWeekDaySel) | \
1170:cmsis/device/stm32f4xx_rtc.c ****               ((uint32_t)RTC_AlarmStruct->RTC_AlarmMask)); 
1171:cmsis/device/stm32f4xx_rtc.c ****   } 
1172:cmsis/device/stm32f4xx_rtc.c **** 
1173:cmsis/device/stm32f4xx_rtc.c ****   /* Disable the write protection for RTC registers */
1174:cmsis/device/stm32f4xx_rtc.c ****   RTC->WPR = 0xCA;
1175:cmsis/device/stm32f4xx_rtc.c ****   RTC->WPR = 0x53;
1176:cmsis/device/stm32f4xx_rtc.c **** 
1177:cmsis/device/stm32f4xx_rtc.c ****   /* Configure the Alarm register */
1178:cmsis/device/stm32f4xx_rtc.c ****   if (RTC_Alarm == RTC_Alarm_A)
1179:cmsis/device/stm32f4xx_rtc.c ****   {
1180:cmsis/device/stm32f4xx_rtc.c ****     RTC->ALRMAR = (uint32_t)tmpreg;
1181:cmsis/device/stm32f4xx_rtc.c ****   }
1182:cmsis/device/stm32f4xx_rtc.c ****   else
1183:cmsis/device/stm32f4xx_rtc.c ****   {
1184:cmsis/device/stm32f4xx_rtc.c ****     RTC->ALRMBR = (uint32_t)tmpreg;
1185:cmsis/device/stm32f4xx_rtc.c ****   }
1186:cmsis/device/stm32f4xx_rtc.c **** 
1187:cmsis/device/stm32f4xx_rtc.c ****   /* Enable the write protection for RTC registers */
1188:cmsis/device/stm32f4xx_rtc.c ****   RTC->WPR = 0xFF;   
1189:cmsis/device/stm32f4xx_rtc.c **** }
1190:cmsis/device/stm32f4xx_rtc.c **** 
1191:cmsis/device/stm32f4xx_rtc.c **** /**
1192:cmsis/device/stm32f4xx_rtc.c ****   * @brief  Fills each RTC_AlarmStruct member with its default value
1193:cmsis/device/stm32f4xx_rtc.c ****   *         (Time = 00h:00mn:00sec / Date = 1st day of the month/Mask =
1194:cmsis/device/stm32f4xx_rtc.c ****   *         all fields are masked).
1195:cmsis/device/stm32f4xx_rtc.c ****   * @param  RTC_AlarmStruct: pointer to a @ref RTC_AlarmTypeDef structure which
1196:cmsis/device/stm32f4xx_rtc.c ****   *         will be initialized.
1197:cmsis/device/stm32f4xx_rtc.c ****   * @retval None
1198:cmsis/device/stm32f4xx_rtc.c ****   */
1199:cmsis/device/stm32f4xx_rtc.c **** void RTC_AlarmStructInit(RTC_AlarmTypeDef* RTC_AlarmStruct)
1200:cmsis/device/stm32f4xx_rtc.c **** {
1201:cmsis/device/stm32f4xx_rtc.c ****   /* Alarm Time Settings : Time = 00h:00mn:00sec */
1202:cmsis/device/stm32f4xx_rtc.c ****   RTC_AlarmStruct->RTC_AlarmTime.RTC_H12 = RTC_H12_AM;
1203:cmsis/device/stm32f4xx_rtc.c ****   RTC_AlarmStruct->RTC_AlarmTime.RTC_Hours = 0;
1204:cmsis/device/stm32f4xx_rtc.c ****   RTC_AlarmStruct->RTC_AlarmTime.RTC_Minutes = 0;
1205:cmsis/device/stm32f4xx_rtc.c ****   RTC_AlarmStruct->RTC_AlarmTime.RTC_Seconds = 0;
1206:cmsis/device/stm32f4xx_rtc.c **** 
1207:cmsis/device/stm32f4xx_rtc.c ****   /* Alarm Date Settings : Date = 1st day of the month */
1208:cmsis/device/stm32f4xx_rtc.c ****   RTC_AlarmStruct->RTC_AlarmDateWeekDaySel = RTC_AlarmDateWeekDaySel_Date;
1209:cmsis/device/stm32f4xx_rtc.c ****   RTC_AlarmStruct->RTC_AlarmDateWeekDay = 1;
1210:cmsis/device/stm32f4xx_rtc.c **** 
1211:cmsis/device/stm32f4xx_rtc.c ****   /* Alarm Masks Settings : Mask =  all fields are not masked */
1212:cmsis/device/stm32f4xx_rtc.c ****   RTC_AlarmStruct->RTC_AlarmMask = RTC_AlarmMask_None;
1213:cmsis/device/stm32f4xx_rtc.c **** }
1214:cmsis/device/stm32f4xx_rtc.c **** 
1215:cmsis/device/stm32f4xx_rtc.c **** /**
1216:cmsis/device/stm32f4xx_rtc.c ****   * @brief  Get the RTC Alarm value and masks.
1217:cmsis/device/stm32f4xx_rtc.c ****   * @param  RTC_Format: specifies the format of the output parameters.
1218:cmsis/device/stm32f4xx_rtc.c ****   *          This parameter can be one of the following values:
1219:cmsis/device/stm32f4xx_rtc.c ****   *            @arg RTC_Format_BIN: Binary data format 
1220:cmsis/device/stm32f4xx_rtc.c ****   *            @arg RTC_Format_BCD: BCD data format
1221:cmsis/device/stm32f4xx_rtc.c ****   * @param  RTC_Alarm: specifies the alarm to be read.
1222:cmsis/device/stm32f4xx_rtc.c ****   *          This parameter can be one of the following values:
1223:cmsis/device/stm32f4xx_rtc.c ****   *            @arg RTC_Alarm_A: to select Alarm A
1224:cmsis/device/stm32f4xx_rtc.c ****   *            @arg RTC_Alarm_B: to select Alarm B  
ARM GAS  C:\Users\CNous\AppData\Local\Temp\ccCDm0MK.s 			page 36


1225:cmsis/device/stm32f4xx_rtc.c ****   * @param  RTC_AlarmStruct: pointer to a RTC_AlarmTypeDef structure that will 
1226:cmsis/device/stm32f4xx_rtc.c ****   *                          contains the output alarm configuration values.     
1227:cmsis/device/stm32f4xx_rtc.c ****   * @retval None
1228:cmsis/device/stm32f4xx_rtc.c ****   */
1229:cmsis/device/stm32f4xx_rtc.c **** void RTC_GetAlarm(uint32_t RTC_Format, uint32_t RTC_Alarm, RTC_AlarmTypeDef* RTC_AlarmStruct)
1230:cmsis/device/stm32f4xx_rtc.c **** {
1231:cmsis/device/stm32f4xx_rtc.c ****   uint32_t tmpreg = 0;
1232:cmsis/device/stm32f4xx_rtc.c **** 
1233:cmsis/device/stm32f4xx_rtc.c ****   /* Check the parameters */
1234:cmsis/device/stm32f4xx_rtc.c ****   assert_param(IS_RTC_FORMAT(RTC_Format));
1235:cmsis/device/stm32f4xx_rtc.c ****   assert_param(IS_RTC_ALARM(RTC_Alarm)); 
1236:cmsis/device/stm32f4xx_rtc.c **** 
1237:cmsis/device/stm32f4xx_rtc.c ****   /* Get the RTC_ALRMxR register */
1238:cmsis/device/stm32f4xx_rtc.c ****   if (RTC_Alarm == RTC_Alarm_A)
1239:cmsis/device/stm32f4xx_rtc.c ****   {
1240:cmsis/device/stm32f4xx_rtc.c ****     tmpreg = (uint32_t)(RTC->ALRMAR);
1241:cmsis/device/stm32f4xx_rtc.c ****   }
1242:cmsis/device/stm32f4xx_rtc.c ****   else
1243:cmsis/device/stm32f4xx_rtc.c ****   {
1244:cmsis/device/stm32f4xx_rtc.c ****     tmpreg = (uint32_t)(RTC->ALRMBR);
1245:cmsis/device/stm32f4xx_rtc.c ****   }
1246:cmsis/device/stm32f4xx_rtc.c **** 
1247:cmsis/device/stm32f4xx_rtc.c ****   /* Fill the structure with the read parameters */
1248:cmsis/device/stm32f4xx_rtc.c ****   RTC_AlarmStruct->RTC_AlarmTime.RTC_Hours = (uint32_t)((tmpreg & (RTC_ALRMAR_HT | \
1249:cmsis/device/stm32f4xx_rtc.c ****                                                      RTC_ALRMAR_HU)) >> 16);
1250:cmsis/device/stm32f4xx_rtc.c ****   RTC_AlarmStruct->RTC_AlarmTime.RTC_Minutes = (uint32_t)((tmpreg & (RTC_ALRMAR_MNT | \
1251:cmsis/device/stm32f4xx_rtc.c ****                                                      RTC_ALRMAR_MNU)) >> 8);
1252:cmsis/device/stm32f4xx_rtc.c ****   RTC_AlarmStruct->RTC_AlarmTime.RTC_Seconds = (uint32_t)(tmpreg & (RTC_ALRMAR_ST | \
1253:cmsis/device/stm32f4xx_rtc.c ****                                                      RTC_ALRMAR_SU));
1254:cmsis/device/stm32f4xx_rtc.c ****   RTC_AlarmStruct->RTC_AlarmTime.RTC_H12 = (uint32_t)((tmpreg & RTC_ALRMAR_PM) >> 16);
1255:cmsis/device/stm32f4xx_rtc.c ****   RTC_AlarmStruct->RTC_AlarmDateWeekDay = (uint32_t)((tmpreg & (RTC_ALRMAR_DT | RTC_ALRMAR_DU)) >> 
1256:cmsis/device/stm32f4xx_rtc.c ****   RTC_AlarmStruct->RTC_AlarmDateWeekDaySel = (uint32_t)(tmpreg & RTC_ALRMAR_WDSEL);
1257:cmsis/device/stm32f4xx_rtc.c ****   RTC_AlarmStruct->RTC_AlarmMask = (uint32_t)(tmpreg & RTC_AlarmMask_All);
1258:cmsis/device/stm32f4xx_rtc.c **** 
1259:cmsis/device/stm32f4xx_rtc.c ****   if (RTC_Format == RTC_Format_BIN)
1260:cmsis/device/stm32f4xx_rtc.c ****   {
1261:cmsis/device/stm32f4xx_rtc.c ****     RTC_AlarmStruct->RTC_AlarmTime.RTC_Hours = RTC_Bcd2ToByte(RTC_AlarmStruct-> \
1262:cmsis/device/stm32f4xx_rtc.c ****                                                         RTC_AlarmTime.RTC_Hours);
1263:cmsis/device/stm32f4xx_rtc.c ****     RTC_AlarmStruct->RTC_AlarmTime.RTC_Minutes = RTC_Bcd2ToByte(RTC_AlarmStruct-> \
1264:cmsis/device/stm32f4xx_rtc.c ****                                                         RTC_AlarmTime.RTC_Minutes);
1265:cmsis/device/stm32f4xx_rtc.c ****     RTC_AlarmStruct->RTC_AlarmTime.RTC_Seconds = RTC_Bcd2ToByte(RTC_AlarmStruct-> \
1266:cmsis/device/stm32f4xx_rtc.c ****                                                         RTC_AlarmTime.RTC_Seconds);
1267:cmsis/device/stm32f4xx_rtc.c ****     RTC_AlarmStruct->RTC_AlarmDateWeekDay = RTC_Bcd2ToByte(RTC_AlarmStruct->RTC_AlarmDateWeekDay);
1268:cmsis/device/stm32f4xx_rtc.c ****   }  
1269:cmsis/device/stm32f4xx_rtc.c **** }
1270:cmsis/device/stm32f4xx_rtc.c **** 
1271:cmsis/device/stm32f4xx_rtc.c **** /**
1272:cmsis/device/stm32f4xx_rtc.c ****   * @brief  Enables or disables the specified RTC Alarm.
1273:cmsis/device/stm32f4xx_rtc.c ****   * @param  RTC_Alarm: specifies the alarm to be configured.
1274:cmsis/device/stm32f4xx_rtc.c ****   *          This parameter can be any combination of the following values:
1275:cmsis/device/stm32f4xx_rtc.c ****   *            @arg RTC_Alarm_A: to select Alarm A
1276:cmsis/device/stm32f4xx_rtc.c ****   *            @arg RTC_Alarm_B: to select Alarm B  
1277:cmsis/device/stm32f4xx_rtc.c ****   * @param  NewState: new state of the specified alarm.
1278:cmsis/device/stm32f4xx_rtc.c ****   *          This parameter can be: ENABLE or DISABLE.
1279:cmsis/device/stm32f4xx_rtc.c ****   * @retval An ErrorStatus enumeration value:
1280:cmsis/device/stm32f4xx_rtc.c ****   *          - SUCCESS: RTC Alarm is enabled/disabled
1281:cmsis/device/stm32f4xx_rtc.c ****   *          - ERROR: RTC Alarm is not enabled/disabled  
ARM GAS  C:\Users\CNous\AppData\Local\Temp\ccCDm0MK.s 			page 37


1282:cmsis/device/stm32f4xx_rtc.c ****   */
1283:cmsis/device/stm32f4xx_rtc.c **** ErrorStatus RTC_AlarmCmd(uint32_t RTC_Alarm, FunctionalState NewState)
1284:cmsis/device/stm32f4xx_rtc.c **** {
1285:cmsis/device/stm32f4xx_rtc.c ****   __IO uint32_t alarmcounter = 0x00;
1286:cmsis/device/stm32f4xx_rtc.c ****   uint32_t alarmstatus = 0x00;
1287:cmsis/device/stm32f4xx_rtc.c ****   ErrorStatus status = ERROR;
1288:cmsis/device/stm32f4xx_rtc.c ****     
1289:cmsis/device/stm32f4xx_rtc.c ****   /* Check the parameters */
1290:cmsis/device/stm32f4xx_rtc.c ****   assert_param(IS_RTC_CMD_ALARM(RTC_Alarm));
1291:cmsis/device/stm32f4xx_rtc.c ****   assert_param(IS_FUNCTIONAL_STATE(NewState));
1292:cmsis/device/stm32f4xx_rtc.c **** 
1293:cmsis/device/stm32f4xx_rtc.c ****   /* Disable the write protection for RTC registers */
1294:cmsis/device/stm32f4xx_rtc.c ****   RTC->WPR = 0xCA;
1295:cmsis/device/stm32f4xx_rtc.c ****   RTC->WPR = 0x53;
1296:cmsis/device/stm32f4xx_rtc.c **** 
1297:cmsis/device/stm32f4xx_rtc.c ****   /* Configure the Alarm state */
1298:cmsis/device/stm32f4xx_rtc.c ****   if (NewState != DISABLE)
1299:cmsis/device/stm32f4xx_rtc.c ****   {
1300:cmsis/device/stm32f4xx_rtc.c ****     RTC->CR |= (uint32_t)RTC_Alarm;
1301:cmsis/device/stm32f4xx_rtc.c **** 
1302:cmsis/device/stm32f4xx_rtc.c ****     status = SUCCESS;    
1303:cmsis/device/stm32f4xx_rtc.c ****   }
1304:cmsis/device/stm32f4xx_rtc.c ****   else
1305:cmsis/device/stm32f4xx_rtc.c ****   { 
1306:cmsis/device/stm32f4xx_rtc.c ****     /* Disable the Alarm in RTC_CR register */
1307:cmsis/device/stm32f4xx_rtc.c ****     RTC->CR &= (uint32_t)~RTC_Alarm;
1308:cmsis/device/stm32f4xx_rtc.c ****    
1309:cmsis/device/stm32f4xx_rtc.c ****     /* Wait till RTC ALRxWF flag is set and if Time out is reached exit */
1310:cmsis/device/stm32f4xx_rtc.c ****     do
1311:cmsis/device/stm32f4xx_rtc.c ****     {
1312:cmsis/device/stm32f4xx_rtc.c ****       alarmstatus = RTC->ISR & (RTC_Alarm >> 8);
1313:cmsis/device/stm32f4xx_rtc.c ****       alarmcounter++;  
1314:cmsis/device/stm32f4xx_rtc.c ****     } while((alarmcounter != INITMODE_TIMEOUT) && (alarmstatus == 0x00));
1315:cmsis/device/stm32f4xx_rtc.c ****     
1316:cmsis/device/stm32f4xx_rtc.c ****     if ((RTC->ISR & (RTC_Alarm >> 8)) == RESET)
1317:cmsis/device/stm32f4xx_rtc.c ****     {
1318:cmsis/device/stm32f4xx_rtc.c ****       status = ERROR;
1319:cmsis/device/stm32f4xx_rtc.c ****     } 
1320:cmsis/device/stm32f4xx_rtc.c ****     else
1321:cmsis/device/stm32f4xx_rtc.c ****     {
1322:cmsis/device/stm32f4xx_rtc.c ****       status = SUCCESS;
1323:cmsis/device/stm32f4xx_rtc.c ****     }        
1324:cmsis/device/stm32f4xx_rtc.c ****   } 
1325:cmsis/device/stm32f4xx_rtc.c **** 
1326:cmsis/device/stm32f4xx_rtc.c ****   /* Enable the write protection for RTC registers */
1327:cmsis/device/stm32f4xx_rtc.c ****   RTC->WPR = 0xFF; 
1328:cmsis/device/stm32f4xx_rtc.c ****   
1329:cmsis/device/stm32f4xx_rtc.c ****   return status;
1330:cmsis/device/stm32f4xx_rtc.c **** }
1331:cmsis/device/stm32f4xx_rtc.c **** 
1332:cmsis/device/stm32f4xx_rtc.c **** /**
1333:cmsis/device/stm32f4xx_rtc.c ****   * @brief  Configure the RTC AlarmA/B Subseconds value and mask.*
1334:cmsis/device/stm32f4xx_rtc.c ****   * @note   This function is performed only when the Alarm is disabled. 
1335:cmsis/device/stm32f4xx_rtc.c ****   * @param  RTC_Alarm: specifies the alarm to be configured.
1336:cmsis/device/stm32f4xx_rtc.c ****   *   This parameter can be one of the following values:
1337:cmsis/device/stm32f4xx_rtc.c ****   *     @arg RTC_Alarm_A: to select Alarm A
1338:cmsis/device/stm32f4xx_rtc.c ****   *     @arg RTC_Alarm_B: to select Alarm B
ARM GAS  C:\Users\CNous\AppData\Local\Temp\ccCDm0MK.s 			page 38


1339:cmsis/device/stm32f4xx_rtc.c ****   * @param  RTC_AlarmSubSecondValue: specifies the Subseconds value.
1340:cmsis/device/stm32f4xx_rtc.c ****   *   This parameter can be a value from 0 to 0x00007FFF.
1341:cmsis/device/stm32f4xx_rtc.c ****   * @param  RTC_AlarmSubSecondMask:  specifies the Subseconds Mask.
1342:cmsis/device/stm32f4xx_rtc.c ****   *   This parameter can be any combination of the following values:
1343:cmsis/device/stm32f4xx_rtc.c ****   *     @arg RTC_AlarmSubSecondMask_All    : All Alarm SS fields are masked.
1344:cmsis/device/stm32f4xx_rtc.c ****   *                                          There is no comparison on sub seconds for Alarm.
1345:cmsis/device/stm32f4xx_rtc.c ****   *     @arg RTC_AlarmSubSecondMask_SS14_1 : SS[14:1] are don't care in Alarm comparison.
1346:cmsis/device/stm32f4xx_rtc.c ****   *                                          Only SS[0] is compared
1347:cmsis/device/stm32f4xx_rtc.c ****   *     @arg RTC_AlarmSubSecondMask_SS14_2 : SS[14:2] are don't care in Alarm comparison.
1348:cmsis/device/stm32f4xx_rtc.c ****   *                                          Only SS[1:0] are compared
1349:cmsis/device/stm32f4xx_rtc.c ****   *     @arg RTC_AlarmSubSecondMask_SS14_3 : SS[14:3] are don't care in Alarm comparison.
1350:cmsis/device/stm32f4xx_rtc.c ****   *                                          Only SS[2:0] are compared
1351:cmsis/device/stm32f4xx_rtc.c ****   *     @arg RTC_AlarmSubSecondMask_SS14_4 : SS[14:4] are don't care in Alarm comparison.
1352:cmsis/device/stm32f4xx_rtc.c ****   *                                          Only SS[3:0] are compared
1353:cmsis/device/stm32f4xx_rtc.c ****   *     @arg RTC_AlarmSubSecondMask_SS14_5 : SS[14:5] are don't care in Alarm comparison.
1354:cmsis/device/stm32f4xx_rtc.c ****   *                                          Only SS[4:0] are compared
1355:cmsis/device/stm32f4xx_rtc.c ****   *     @arg RTC_AlarmSubSecondMask_SS14_6 : SS[14:6] are don't care in Alarm comparison.
1356:cmsis/device/stm32f4xx_rtc.c ****   *                                          Only SS[5:0] are compared
1357:cmsis/device/stm32f4xx_rtc.c ****   *     @arg RTC_AlarmSubSecondMask_SS14_7 : SS[14:7] are don't care in Alarm comparison.
1358:cmsis/device/stm32f4xx_rtc.c ****   *                                          Only SS[6:0] are compared
1359:cmsis/device/stm32f4xx_rtc.c ****   *     @arg RTC_AlarmSubSecondMask_SS14_8 : SS[14:8] are don't care in Alarm comparison.
1360:cmsis/device/stm32f4xx_rtc.c ****   *                                          Only SS[7:0] are compared
1361:cmsis/device/stm32f4xx_rtc.c ****   *     @arg RTC_AlarmSubSecondMask_SS14_9 : SS[14:9] are don't care in Alarm comparison.
1362:cmsis/device/stm32f4xx_rtc.c ****   *                                          Only SS[8:0] are compared
1363:cmsis/device/stm32f4xx_rtc.c ****   *     @arg RTC_AlarmSubSecondMask_SS14_10: SS[14:10] are don't care in Alarm comparison.
1364:cmsis/device/stm32f4xx_rtc.c ****   *                                          Only SS[9:0] are compared
1365:cmsis/device/stm32f4xx_rtc.c ****   *     @arg RTC_AlarmSubSecondMask_SS14_11: SS[14:11] are don't care in Alarm comparison.
1366:cmsis/device/stm32f4xx_rtc.c ****   *                                          Only SS[10:0] are compared
1367:cmsis/device/stm32f4xx_rtc.c ****   *     @arg RTC_AlarmSubSecondMask_SS14_12: SS[14:12] are don't care in Alarm comparison.
1368:cmsis/device/stm32f4xx_rtc.c ****   *                                          Only SS[11:0] are compared
1369:cmsis/device/stm32f4xx_rtc.c ****   *     @arg RTC_AlarmSubSecondMask_SS14_13: SS[14:13] are don't care in Alarm comparison.
1370:cmsis/device/stm32f4xx_rtc.c ****   *                                          Only SS[12:0] are compared
1371:cmsis/device/stm32f4xx_rtc.c ****   *     @arg RTC_AlarmSubSecondMask_SS14   : SS[14] is don't care in Alarm comparison.
1372:cmsis/device/stm32f4xx_rtc.c ****   *                                          Only SS[13:0] are compared
1373:cmsis/device/stm32f4xx_rtc.c ****   *     @arg RTC_AlarmSubSecondMask_None   : SS[14:0] are compared and must match
1374:cmsis/device/stm32f4xx_rtc.c ****   *                                          to activate alarm
1375:cmsis/device/stm32f4xx_rtc.c ****   * @retval None
1376:cmsis/device/stm32f4xx_rtc.c ****   */
1377:cmsis/device/stm32f4xx_rtc.c **** void RTC_AlarmSubSecondConfig(uint32_t RTC_Alarm, uint32_t RTC_AlarmSubSecondValue, uint32_t RTC_Al
1378:cmsis/device/stm32f4xx_rtc.c **** {
1379:cmsis/device/stm32f4xx_rtc.c ****   uint32_t tmpreg = 0;
1380:cmsis/device/stm32f4xx_rtc.c **** 
1381:cmsis/device/stm32f4xx_rtc.c ****   /* Check the parameters */
1382:cmsis/device/stm32f4xx_rtc.c ****   assert_param(IS_RTC_ALARM(RTC_Alarm));
1383:cmsis/device/stm32f4xx_rtc.c ****   assert_param(IS_RTC_ALARM_SUB_SECOND_VALUE(RTC_AlarmSubSecondValue));
1384:cmsis/device/stm32f4xx_rtc.c ****   assert_param(IS_RTC_ALARM_SUB_SECOND_MASK(RTC_AlarmSubSecondMask));
1385:cmsis/device/stm32f4xx_rtc.c ****   
1386:cmsis/device/stm32f4xx_rtc.c ****   /* Disable the write protection for RTC registers */
1387:cmsis/device/stm32f4xx_rtc.c ****   RTC->WPR = 0xCA;
1388:cmsis/device/stm32f4xx_rtc.c ****   RTC->WPR = 0x53;
1389:cmsis/device/stm32f4xx_rtc.c ****   
1390:cmsis/device/stm32f4xx_rtc.c ****   /* Configure the Alarm A or Alarm B SubSecond registers */
1391:cmsis/device/stm32f4xx_rtc.c ****   tmpreg = (uint32_t) (uint32_t)(RTC_AlarmSubSecondValue) | (uint32_t)(RTC_AlarmSubSecondMask);
1392:cmsis/device/stm32f4xx_rtc.c ****   
1393:cmsis/device/stm32f4xx_rtc.c ****   if (RTC_Alarm == RTC_Alarm_A)
1394:cmsis/device/stm32f4xx_rtc.c ****   {
1395:cmsis/device/stm32f4xx_rtc.c ****     /* Configure the AlarmA SubSecond register */
ARM GAS  C:\Users\CNous\AppData\Local\Temp\ccCDm0MK.s 			page 39


1396:cmsis/device/stm32f4xx_rtc.c ****     RTC->ALRMASSR = tmpreg;
1397:cmsis/device/stm32f4xx_rtc.c ****   }
1398:cmsis/device/stm32f4xx_rtc.c ****   else
1399:cmsis/device/stm32f4xx_rtc.c ****   {
1400:cmsis/device/stm32f4xx_rtc.c ****     /* Configure the Alarm B SubSecond register */
1401:cmsis/device/stm32f4xx_rtc.c ****     RTC->ALRMBSSR = tmpreg;
1402:cmsis/device/stm32f4xx_rtc.c ****   }
1403:cmsis/device/stm32f4xx_rtc.c **** 
1404:cmsis/device/stm32f4xx_rtc.c ****   /* Enable the write protection for RTC registers */
1405:cmsis/device/stm32f4xx_rtc.c ****   RTC->WPR = 0xFF;
1406:cmsis/device/stm32f4xx_rtc.c **** 
1407:cmsis/device/stm32f4xx_rtc.c **** }
1408:cmsis/device/stm32f4xx_rtc.c **** 
1409:cmsis/device/stm32f4xx_rtc.c **** /**
1410:cmsis/device/stm32f4xx_rtc.c ****   * @brief  Gets the RTC Alarm Subseconds value.
1411:cmsis/device/stm32f4xx_rtc.c ****   * @param  RTC_Alarm: specifies the alarm to be read.
1412:cmsis/device/stm32f4xx_rtc.c ****   *   This parameter can be one of the following values:
1413:cmsis/device/stm32f4xx_rtc.c ****   *     @arg RTC_Alarm_A: to select Alarm A
1414:cmsis/device/stm32f4xx_rtc.c ****   *     @arg RTC_Alarm_B: to select Alarm B
1415:cmsis/device/stm32f4xx_rtc.c ****   * @param  None
1416:cmsis/device/stm32f4xx_rtc.c ****   * @retval RTC Alarm Subseconds value.
1417:cmsis/device/stm32f4xx_rtc.c ****   */
1418:cmsis/device/stm32f4xx_rtc.c **** uint32_t RTC_GetAlarmSubSecond(uint32_t RTC_Alarm)
1419:cmsis/device/stm32f4xx_rtc.c **** {
1420:cmsis/device/stm32f4xx_rtc.c ****   uint32_t tmpreg = 0;
1421:cmsis/device/stm32f4xx_rtc.c ****   
1422:cmsis/device/stm32f4xx_rtc.c ****   /* Get the RTC_ALRMxR register */
1423:cmsis/device/stm32f4xx_rtc.c ****   if (RTC_Alarm == RTC_Alarm_A)
1424:cmsis/device/stm32f4xx_rtc.c ****   {
1425:cmsis/device/stm32f4xx_rtc.c ****     tmpreg = (uint32_t)((RTC->ALRMASSR) & RTC_ALRMASSR_SS);
1426:cmsis/device/stm32f4xx_rtc.c ****   }
1427:cmsis/device/stm32f4xx_rtc.c ****   else
1428:cmsis/device/stm32f4xx_rtc.c ****   {
1429:cmsis/device/stm32f4xx_rtc.c ****     tmpreg = (uint32_t)((RTC->ALRMBSSR) & RTC_ALRMBSSR_SS);
1430:cmsis/device/stm32f4xx_rtc.c ****   } 
1431:cmsis/device/stm32f4xx_rtc.c ****   
1432:cmsis/device/stm32f4xx_rtc.c ****   return (tmpreg);
1433:cmsis/device/stm32f4xx_rtc.c **** }
1434:cmsis/device/stm32f4xx_rtc.c **** 
1435:cmsis/device/stm32f4xx_rtc.c **** /**
1436:cmsis/device/stm32f4xx_rtc.c ****   * @}
1437:cmsis/device/stm32f4xx_rtc.c ****   */
1438:cmsis/device/stm32f4xx_rtc.c **** 
1439:cmsis/device/stm32f4xx_rtc.c **** /** @defgroup RTC_Group4 WakeUp Timer configuration functions
1440:cmsis/device/stm32f4xx_rtc.c ****  *  @brief   WakeUp Timer configuration functions 
1441:cmsis/device/stm32f4xx_rtc.c ****  *
1442:cmsis/device/stm32f4xx_rtc.c **** @verbatim   
1443:cmsis/device/stm32f4xx_rtc.c ****  ===============================================================================
1444:cmsis/device/stm32f4xx_rtc.c ****                      WakeUp Timer configuration functions
1445:cmsis/device/stm32f4xx_rtc.c ****  ===============================================================================  
1446:cmsis/device/stm32f4xx_rtc.c **** 
1447:cmsis/device/stm32f4xx_rtc.c ****   This section provide functions allowing to program and read the RTC WakeUp.
1448:cmsis/device/stm32f4xx_rtc.c **** 
1449:cmsis/device/stm32f4xx_rtc.c **** @endverbatim
1450:cmsis/device/stm32f4xx_rtc.c ****   * @{
1451:cmsis/device/stm32f4xx_rtc.c ****   */
1452:cmsis/device/stm32f4xx_rtc.c **** 
ARM GAS  C:\Users\CNous\AppData\Local\Temp\ccCDm0MK.s 			page 40


1453:cmsis/device/stm32f4xx_rtc.c **** /**
1454:cmsis/device/stm32f4xx_rtc.c ****   * @brief  Configures the RTC Wakeup clock source.
1455:cmsis/device/stm32f4xx_rtc.c ****   * @note   The WakeUp Clock source can only be changed when the RTC WakeUp
1456:cmsis/device/stm32f4xx_rtc.c ****   *         is disabled (Use the RTC_WakeUpCmd(DISABLE)).      
1457:cmsis/device/stm32f4xx_rtc.c ****   * @param  RTC_WakeUpClock: Wakeup Clock source.
1458:cmsis/device/stm32f4xx_rtc.c ****   *          This parameter can be one of the following values:
1459:cmsis/device/stm32f4xx_rtc.c ****   *            @arg RTC_WakeUpClock_RTCCLK_Div16: RTC Wakeup Counter Clock = RTCCLK/16
1460:cmsis/device/stm32f4xx_rtc.c ****   *            @arg RTC_WakeUpClock_RTCCLK_Div8: RTC Wakeup Counter Clock = RTCCLK/8
1461:cmsis/device/stm32f4xx_rtc.c ****   *            @arg RTC_WakeUpClock_RTCCLK_Div4: RTC Wakeup Counter Clock = RTCCLK/4
1462:cmsis/device/stm32f4xx_rtc.c ****   *            @arg RTC_WakeUpClock_RTCCLK_Div2: RTC Wakeup Counter Clock = RTCCLK/2
1463:cmsis/device/stm32f4xx_rtc.c ****   *            @arg RTC_WakeUpClock_CK_SPRE_16bits: RTC Wakeup Counter Clock = CK_SPRE
1464:cmsis/device/stm32f4xx_rtc.c ****   *            @arg RTC_WakeUpClock_CK_SPRE_17bits: RTC Wakeup Counter Clock = CK_SPRE
1465:cmsis/device/stm32f4xx_rtc.c ****   * @retval None
1466:cmsis/device/stm32f4xx_rtc.c ****   */
1467:cmsis/device/stm32f4xx_rtc.c **** void RTC_WakeUpClockConfig(uint32_t RTC_WakeUpClock)
1468:cmsis/device/stm32f4xx_rtc.c **** {
1469:cmsis/device/stm32f4xx_rtc.c ****   /* Check the parameters */
1470:cmsis/device/stm32f4xx_rtc.c ****   assert_param(IS_RTC_WAKEUP_CLOCK(RTC_WakeUpClock));
1471:cmsis/device/stm32f4xx_rtc.c **** 
1472:cmsis/device/stm32f4xx_rtc.c ****   /* Disable the write protection for RTC registers */
1473:cmsis/device/stm32f4xx_rtc.c ****   RTC->WPR = 0xCA;
1474:cmsis/device/stm32f4xx_rtc.c ****   RTC->WPR = 0x53;
1475:cmsis/device/stm32f4xx_rtc.c **** 
1476:cmsis/device/stm32f4xx_rtc.c ****   /* Clear the Wakeup Timer clock source bits in CR register */
1477:cmsis/device/stm32f4xx_rtc.c ****   RTC->CR &= (uint32_t)~RTC_CR_WUCKSEL;
1478:cmsis/device/stm32f4xx_rtc.c **** 
1479:cmsis/device/stm32f4xx_rtc.c ****   /* Configure the clock source */
1480:cmsis/device/stm32f4xx_rtc.c ****   RTC->CR |= (uint32_t)RTC_WakeUpClock;
1481:cmsis/device/stm32f4xx_rtc.c ****   
1482:cmsis/device/stm32f4xx_rtc.c ****   /* Enable the write protection for RTC registers */
1483:cmsis/device/stm32f4xx_rtc.c ****   RTC->WPR = 0xFF; 
1484:cmsis/device/stm32f4xx_rtc.c **** }
1485:cmsis/device/stm32f4xx_rtc.c **** 
1486:cmsis/device/stm32f4xx_rtc.c **** /**
1487:cmsis/device/stm32f4xx_rtc.c ****   * @brief  Configures the RTC Wakeup counter.
1488:cmsis/device/stm32f4xx_rtc.c ****   * @note   The RTC WakeUp counter can only be written when the RTC WakeUp
1489:cmsis/device/stm32f4xx_rtc.c ****   *         is disabled (Use the RTC_WakeUpCmd(DISABLE)).        
1490:cmsis/device/stm32f4xx_rtc.c ****   * @param  RTC_WakeUpCounter: specifies the WakeUp counter.
1491:cmsis/device/stm32f4xx_rtc.c ****   *          This parameter can be a value from 0x0000 to 0xFFFF. 
1492:cmsis/device/stm32f4xx_rtc.c ****   * @retval None
1493:cmsis/device/stm32f4xx_rtc.c ****   */
1494:cmsis/device/stm32f4xx_rtc.c **** void RTC_SetWakeUpCounter(uint32_t RTC_WakeUpCounter)
1495:cmsis/device/stm32f4xx_rtc.c **** {
1496:cmsis/device/stm32f4xx_rtc.c ****   /* Check the parameters */
1497:cmsis/device/stm32f4xx_rtc.c ****   assert_param(IS_RTC_WAKEUP_COUNTER(RTC_WakeUpCounter));
1498:cmsis/device/stm32f4xx_rtc.c ****   
1499:cmsis/device/stm32f4xx_rtc.c ****   /* Disable the write protection for RTC registers */
1500:cmsis/device/stm32f4xx_rtc.c ****   RTC->WPR = 0xCA;
1501:cmsis/device/stm32f4xx_rtc.c ****   RTC->WPR = 0x53;
1502:cmsis/device/stm32f4xx_rtc.c ****   
1503:cmsis/device/stm32f4xx_rtc.c ****   /* Configure the Wakeup Timer counter */
1504:cmsis/device/stm32f4xx_rtc.c ****   RTC->WUTR = (uint32_t)RTC_WakeUpCounter;
1505:cmsis/device/stm32f4xx_rtc.c ****   
1506:cmsis/device/stm32f4xx_rtc.c ****   /* Enable the write protection for RTC registers */
1507:cmsis/device/stm32f4xx_rtc.c ****   RTC->WPR = 0xFF; 
1508:cmsis/device/stm32f4xx_rtc.c **** }
1509:cmsis/device/stm32f4xx_rtc.c **** 
ARM GAS  C:\Users\CNous\AppData\Local\Temp\ccCDm0MK.s 			page 41


1510:cmsis/device/stm32f4xx_rtc.c **** /**
1511:cmsis/device/stm32f4xx_rtc.c ****   * @brief  Returns the RTC WakeUp timer counter value.
1512:cmsis/device/stm32f4xx_rtc.c ****   * @param  None
1513:cmsis/device/stm32f4xx_rtc.c ****   * @retval The RTC WakeUp Counter value.
1514:cmsis/device/stm32f4xx_rtc.c ****   */
1515:cmsis/device/stm32f4xx_rtc.c **** uint32_t RTC_GetWakeUpCounter(void)
1516:cmsis/device/stm32f4xx_rtc.c **** {
1517:cmsis/device/stm32f4xx_rtc.c ****   /* Get the counter value */
1518:cmsis/device/stm32f4xx_rtc.c ****   return ((uint32_t)(RTC->WUTR & RTC_WUTR_WUT));
1519:cmsis/device/stm32f4xx_rtc.c **** }
1520:cmsis/device/stm32f4xx_rtc.c **** 
1521:cmsis/device/stm32f4xx_rtc.c **** /**
1522:cmsis/device/stm32f4xx_rtc.c ****   * @brief  Enables or Disables the RTC WakeUp timer.
1523:cmsis/device/stm32f4xx_rtc.c ****   * @param  NewState: new state of the WakeUp timer.
1524:cmsis/device/stm32f4xx_rtc.c ****   *          This parameter can be: ENABLE or DISABLE.
1525:cmsis/device/stm32f4xx_rtc.c ****   * @retval None
1526:cmsis/device/stm32f4xx_rtc.c ****   */
1527:cmsis/device/stm32f4xx_rtc.c **** ErrorStatus RTC_WakeUpCmd(FunctionalState NewState)
1528:cmsis/device/stm32f4xx_rtc.c **** {
1529:cmsis/device/stm32f4xx_rtc.c ****   __IO uint32_t wutcounter = 0x00;
1530:cmsis/device/stm32f4xx_rtc.c ****   uint32_t wutwfstatus = 0x00;
1531:cmsis/device/stm32f4xx_rtc.c ****   ErrorStatus status = ERROR;
1532:cmsis/device/stm32f4xx_rtc.c ****   
1533:cmsis/device/stm32f4xx_rtc.c ****   /* Check the parameters */
1534:cmsis/device/stm32f4xx_rtc.c ****   assert_param(IS_FUNCTIONAL_STATE(NewState));
1535:cmsis/device/stm32f4xx_rtc.c **** 
1536:cmsis/device/stm32f4xx_rtc.c ****   /* Disable the write protection for RTC registers */
1537:cmsis/device/stm32f4xx_rtc.c ****   RTC->WPR = 0xCA;
1538:cmsis/device/stm32f4xx_rtc.c ****   RTC->WPR = 0x53;
1539:cmsis/device/stm32f4xx_rtc.c **** 
1540:cmsis/device/stm32f4xx_rtc.c ****   if (NewState != DISABLE)
1541:cmsis/device/stm32f4xx_rtc.c ****   {
1542:cmsis/device/stm32f4xx_rtc.c ****     /* Enable the Wakeup Timer */
1543:cmsis/device/stm32f4xx_rtc.c ****     RTC->CR |= (uint32_t)RTC_CR_WUTE;
1544:cmsis/device/stm32f4xx_rtc.c ****     status = SUCCESS;    
1545:cmsis/device/stm32f4xx_rtc.c ****   }
1546:cmsis/device/stm32f4xx_rtc.c ****   else
1547:cmsis/device/stm32f4xx_rtc.c ****   {
1548:cmsis/device/stm32f4xx_rtc.c ****     /* Disable the Wakeup Timer */
1549:cmsis/device/stm32f4xx_rtc.c ****     RTC->CR &= (uint32_t)~RTC_CR_WUTE;
1550:cmsis/device/stm32f4xx_rtc.c ****     /* Wait till RTC WUTWF flag is set and if Time out is reached exit */
1551:cmsis/device/stm32f4xx_rtc.c ****     do
1552:cmsis/device/stm32f4xx_rtc.c ****     {
1553:cmsis/device/stm32f4xx_rtc.c ****       wutwfstatus = RTC->ISR & RTC_ISR_WUTWF;
1554:cmsis/device/stm32f4xx_rtc.c ****       wutcounter++;  
1555:cmsis/device/stm32f4xx_rtc.c ****     } while((wutcounter != INITMODE_TIMEOUT) && (wutwfstatus == 0x00));
1556:cmsis/device/stm32f4xx_rtc.c ****     
1557:cmsis/device/stm32f4xx_rtc.c ****     if ((RTC->ISR & RTC_ISR_WUTWF) == RESET)
1558:cmsis/device/stm32f4xx_rtc.c ****     {
1559:cmsis/device/stm32f4xx_rtc.c ****       status = ERROR;
1560:cmsis/device/stm32f4xx_rtc.c ****     }
1561:cmsis/device/stm32f4xx_rtc.c ****     else
1562:cmsis/device/stm32f4xx_rtc.c ****     {
1563:cmsis/device/stm32f4xx_rtc.c ****       status = SUCCESS;
1564:cmsis/device/stm32f4xx_rtc.c ****     }    
1565:cmsis/device/stm32f4xx_rtc.c ****   }
1566:cmsis/device/stm32f4xx_rtc.c **** 
ARM GAS  C:\Users\CNous\AppData\Local\Temp\ccCDm0MK.s 			page 42


1567:cmsis/device/stm32f4xx_rtc.c ****   /* Enable the write protection for RTC registers */
1568:cmsis/device/stm32f4xx_rtc.c ****   RTC->WPR = 0xFF; 
1569:cmsis/device/stm32f4xx_rtc.c ****   
1570:cmsis/device/stm32f4xx_rtc.c ****   return status;
1571:cmsis/device/stm32f4xx_rtc.c **** }
1572:cmsis/device/stm32f4xx_rtc.c **** 
1573:cmsis/device/stm32f4xx_rtc.c **** /**
1574:cmsis/device/stm32f4xx_rtc.c ****   * @}
1575:cmsis/device/stm32f4xx_rtc.c ****   */
1576:cmsis/device/stm32f4xx_rtc.c **** 
1577:cmsis/device/stm32f4xx_rtc.c **** /** @defgroup RTC_Group5 Daylight Saving configuration functions
1578:cmsis/device/stm32f4xx_rtc.c ****  *  @brief   Daylight Saving configuration functions 
1579:cmsis/device/stm32f4xx_rtc.c ****  *
1580:cmsis/device/stm32f4xx_rtc.c **** @verbatim   
1581:cmsis/device/stm32f4xx_rtc.c ****  ===============================================================================
1582:cmsis/device/stm32f4xx_rtc.c ****                     Daylight Saving configuration functions
1583:cmsis/device/stm32f4xx_rtc.c ****  ===============================================================================  
1584:cmsis/device/stm32f4xx_rtc.c **** 
1585:cmsis/device/stm32f4xx_rtc.c ****   This section provide functions allowing to configure the RTC DayLight Saving.
1586:cmsis/device/stm32f4xx_rtc.c **** 
1587:cmsis/device/stm32f4xx_rtc.c **** @endverbatim
1588:cmsis/device/stm32f4xx_rtc.c ****   * @{
1589:cmsis/device/stm32f4xx_rtc.c ****   */
1590:cmsis/device/stm32f4xx_rtc.c **** 
1591:cmsis/device/stm32f4xx_rtc.c **** /**
1592:cmsis/device/stm32f4xx_rtc.c ****   * @brief  Adds or substract one hour from the current time.
1593:cmsis/device/stm32f4xx_rtc.c ****   * @param  RTC_DayLightSaveOperation: the value of hour adjustment. 
1594:cmsis/device/stm32f4xx_rtc.c ****   *          This parameter can be one of the following values:
1595:cmsis/device/stm32f4xx_rtc.c ****   *            @arg RTC_DayLightSaving_SUB1H: Substract one hour (winter time)
1596:cmsis/device/stm32f4xx_rtc.c ****   *            @arg RTC_DayLightSaving_ADD1H: Add one hour (summer time)
1597:cmsis/device/stm32f4xx_rtc.c ****   * @param  RTC_StoreOperation: Specifies the value to be written in the BCK bit 
1598:cmsis/device/stm32f4xx_rtc.c ****   *                            in CR register to store the operation.
1599:cmsis/device/stm32f4xx_rtc.c ****   *          This parameter can be one of the following values:
1600:cmsis/device/stm32f4xx_rtc.c ****   *            @arg RTC_StoreOperation_Reset: BCK Bit Reset
1601:cmsis/device/stm32f4xx_rtc.c ****   *            @arg RTC_StoreOperation_Set: BCK Bit Set
1602:cmsis/device/stm32f4xx_rtc.c ****   * @retval None
1603:cmsis/device/stm32f4xx_rtc.c ****   */
1604:cmsis/device/stm32f4xx_rtc.c **** void RTC_DayLightSavingConfig(uint32_t RTC_DayLightSaving, uint32_t RTC_StoreOperation)
1605:cmsis/device/stm32f4xx_rtc.c **** {
1606:cmsis/device/stm32f4xx_rtc.c ****   /* Check the parameters */
1607:cmsis/device/stm32f4xx_rtc.c ****   assert_param(IS_RTC_DAYLIGHT_SAVING(RTC_DayLightSaving));
1608:cmsis/device/stm32f4xx_rtc.c ****   assert_param(IS_RTC_STORE_OPERATION(RTC_StoreOperation));
1609:cmsis/device/stm32f4xx_rtc.c **** 
1610:cmsis/device/stm32f4xx_rtc.c ****   /* Disable the write protection for RTC registers */
1611:cmsis/device/stm32f4xx_rtc.c ****   RTC->WPR = 0xCA;
1612:cmsis/device/stm32f4xx_rtc.c ****   RTC->WPR = 0x53;
1613:cmsis/device/stm32f4xx_rtc.c **** 
1614:cmsis/device/stm32f4xx_rtc.c ****   /* Clear the bits to be configured */
1615:cmsis/device/stm32f4xx_rtc.c ****   RTC->CR &= (uint32_t)~(RTC_CR_BCK);
1616:cmsis/device/stm32f4xx_rtc.c **** 
1617:cmsis/device/stm32f4xx_rtc.c ****   /* Configure the RTC_CR register */
1618:cmsis/device/stm32f4xx_rtc.c ****   RTC->CR |= (uint32_t)(RTC_DayLightSaving | RTC_StoreOperation);
1619:cmsis/device/stm32f4xx_rtc.c **** 
1620:cmsis/device/stm32f4xx_rtc.c ****   /* Enable the write protection for RTC registers */
1621:cmsis/device/stm32f4xx_rtc.c ****   RTC->WPR = 0xFF; 
1622:cmsis/device/stm32f4xx_rtc.c **** }
1623:cmsis/device/stm32f4xx_rtc.c **** 
ARM GAS  C:\Users\CNous\AppData\Local\Temp\ccCDm0MK.s 			page 43


1624:cmsis/device/stm32f4xx_rtc.c **** /**
1625:cmsis/device/stm32f4xx_rtc.c ****   * @brief  Returns the RTC Day Light Saving stored operation.
1626:cmsis/device/stm32f4xx_rtc.c ****   * @param  None
1627:cmsis/device/stm32f4xx_rtc.c ****   * @retval RTC Day Light Saving stored operation.
1628:cmsis/device/stm32f4xx_rtc.c ****   *          - RTC_StoreOperation_Reset
1629:cmsis/device/stm32f4xx_rtc.c ****   *          - RTC_StoreOperation_Set       
1630:cmsis/device/stm32f4xx_rtc.c ****   */
1631:cmsis/device/stm32f4xx_rtc.c **** uint32_t RTC_GetStoreOperation(void)
1632:cmsis/device/stm32f4xx_rtc.c **** {
1633:cmsis/device/stm32f4xx_rtc.c ****   return (RTC->CR & RTC_CR_BCK);
1634:cmsis/device/stm32f4xx_rtc.c **** }
1635:cmsis/device/stm32f4xx_rtc.c **** 
1636:cmsis/device/stm32f4xx_rtc.c **** /**
1637:cmsis/device/stm32f4xx_rtc.c ****   * @}
1638:cmsis/device/stm32f4xx_rtc.c ****   */
1639:cmsis/device/stm32f4xx_rtc.c **** 
1640:cmsis/device/stm32f4xx_rtc.c **** /** @defgroup RTC_Group6 Output pin Configuration function
1641:cmsis/device/stm32f4xx_rtc.c ****  *  @brief   Output pin Configuration function 
1642:cmsis/device/stm32f4xx_rtc.c ****  *
1643:cmsis/device/stm32f4xx_rtc.c **** @verbatim   
1644:cmsis/device/stm32f4xx_rtc.c ****  ===============================================================================
1645:cmsis/device/stm32f4xx_rtc.c ****                          Output pin Configuration function
1646:cmsis/device/stm32f4xx_rtc.c ****  ===============================================================================  
1647:cmsis/device/stm32f4xx_rtc.c **** 
1648:cmsis/device/stm32f4xx_rtc.c ****   This section provide functions allowing to configure the RTC Output source.
1649:cmsis/device/stm32f4xx_rtc.c **** 
1650:cmsis/device/stm32f4xx_rtc.c **** @endverbatim
1651:cmsis/device/stm32f4xx_rtc.c ****   * @{
1652:cmsis/device/stm32f4xx_rtc.c ****   */
1653:cmsis/device/stm32f4xx_rtc.c **** 
1654:cmsis/device/stm32f4xx_rtc.c **** /**
1655:cmsis/device/stm32f4xx_rtc.c ****   * @brief  Configures the RTC output source (AFO_ALARM).
1656:cmsis/device/stm32f4xx_rtc.c ****   * @param  RTC_Output: Specifies which signal will be routed to the RTC output. 
1657:cmsis/device/stm32f4xx_rtc.c ****   *          This parameter can be one of the following values:
1658:cmsis/device/stm32f4xx_rtc.c ****   *            @arg RTC_Output_Disable: No output selected
1659:cmsis/device/stm32f4xx_rtc.c ****   *            @arg RTC_Output_AlarmA: signal of AlarmA mapped to output
1660:cmsis/device/stm32f4xx_rtc.c ****   *            @arg RTC_Output_AlarmB: signal of AlarmB mapped to output
1661:cmsis/device/stm32f4xx_rtc.c ****   *            @arg RTC_Output_WakeUp: signal of WakeUp mapped to output
1662:cmsis/device/stm32f4xx_rtc.c ****   * @param  RTC_OutputPolarity: Specifies the polarity of the output signal. 
1663:cmsis/device/stm32f4xx_rtc.c ****   *          This parameter can be one of the following:
1664:cmsis/device/stm32f4xx_rtc.c ****   *            @arg RTC_OutputPolarity_High: The output pin is high when the 
1665:cmsis/device/stm32f4xx_rtc.c ****   *                                 ALRAF/ALRBF/WUTF is high (depending on OSEL)
1666:cmsis/device/stm32f4xx_rtc.c ****   *            @arg RTC_OutputPolarity_Low: The output pin is low when the 
1667:cmsis/device/stm32f4xx_rtc.c ****   *                                 ALRAF/ALRBF/WUTF is high (depending on OSEL)
1668:cmsis/device/stm32f4xx_rtc.c ****   * @retval None
1669:cmsis/device/stm32f4xx_rtc.c ****   */
1670:cmsis/device/stm32f4xx_rtc.c **** void RTC_OutputConfig(uint32_t RTC_Output, uint32_t RTC_OutputPolarity)
1671:cmsis/device/stm32f4xx_rtc.c **** {
1672:cmsis/device/stm32f4xx_rtc.c ****   /* Check the parameters */
1673:cmsis/device/stm32f4xx_rtc.c ****   assert_param(IS_RTC_OUTPUT(RTC_Output));
1674:cmsis/device/stm32f4xx_rtc.c ****   assert_param(IS_RTC_OUTPUT_POL(RTC_OutputPolarity));
1675:cmsis/device/stm32f4xx_rtc.c **** 
1676:cmsis/device/stm32f4xx_rtc.c ****   /* Disable the write protection for RTC registers */
1677:cmsis/device/stm32f4xx_rtc.c ****   RTC->WPR = 0xCA;
1678:cmsis/device/stm32f4xx_rtc.c ****   RTC->WPR = 0x53;
1679:cmsis/device/stm32f4xx_rtc.c **** 
1680:cmsis/device/stm32f4xx_rtc.c ****   /* Clear the bits to be configured */
ARM GAS  C:\Users\CNous\AppData\Local\Temp\ccCDm0MK.s 			page 44


1681:cmsis/device/stm32f4xx_rtc.c ****   RTC->CR &= (uint32_t)~(RTC_CR_OSEL | RTC_CR_POL);
1682:cmsis/device/stm32f4xx_rtc.c **** 
1683:cmsis/device/stm32f4xx_rtc.c ****   /* Configure the output selection and polarity */
1684:cmsis/device/stm32f4xx_rtc.c ****   RTC->CR |= (uint32_t)(RTC_Output | RTC_OutputPolarity);
1685:cmsis/device/stm32f4xx_rtc.c **** 
1686:cmsis/device/stm32f4xx_rtc.c ****   /* Enable the write protection for RTC registers */
1687:cmsis/device/stm32f4xx_rtc.c ****   RTC->WPR = 0xFF; 
1688:cmsis/device/stm32f4xx_rtc.c **** }
1689:cmsis/device/stm32f4xx_rtc.c **** 
1690:cmsis/device/stm32f4xx_rtc.c **** /**
1691:cmsis/device/stm32f4xx_rtc.c ****   * @}
1692:cmsis/device/stm32f4xx_rtc.c ****   */
1693:cmsis/device/stm32f4xx_rtc.c **** 
1694:cmsis/device/stm32f4xx_rtc.c **** /** @defgroup RTC_Group7 Digital Calibration configuration functions
1695:cmsis/device/stm32f4xx_rtc.c ****  *  @brief   Coarse Calibration configuration functions 
1696:cmsis/device/stm32f4xx_rtc.c ****  *
1697:cmsis/device/stm32f4xx_rtc.c **** @verbatim   
1698:cmsis/device/stm32f4xx_rtc.c ****  ===============================================================================
1699:cmsis/device/stm32f4xx_rtc.c ****                   Digital Calibration configuration functions
1700:cmsis/device/stm32f4xx_rtc.c ****  ===============================================================================  
1701:cmsis/device/stm32f4xx_rtc.c **** 
1702:cmsis/device/stm32f4xx_rtc.c **** @endverbatim
1703:cmsis/device/stm32f4xx_rtc.c ****   * @{
1704:cmsis/device/stm32f4xx_rtc.c ****   */
1705:cmsis/device/stm32f4xx_rtc.c **** 
1706:cmsis/device/stm32f4xx_rtc.c **** /**
1707:cmsis/device/stm32f4xx_rtc.c ****   * @brief  Configures the Coarse calibration parameters.
1708:cmsis/device/stm32f4xx_rtc.c ****   * @param  RTC_CalibSign: specifies the sign of the coarse calibration value.
1709:cmsis/device/stm32f4xx_rtc.c ****   *          This parameter can be  one of the following values:
1710:cmsis/device/stm32f4xx_rtc.c ****   *            @arg RTC_CalibSign_Positive: The value sign is positive 
1711:cmsis/device/stm32f4xx_rtc.c ****   *            @arg RTC_CalibSign_Negative: The value sign is negative
1712:cmsis/device/stm32f4xx_rtc.c ****   * @param  Value: value of coarse calibration expressed in ppm (coded on 5 bits).
1713:cmsis/device/stm32f4xx_rtc.c ****   *    
1714:cmsis/device/stm32f4xx_rtc.c ****   * @note   This Calibration value should be between 0 and 63 when using negative
1715:cmsis/device/stm32f4xx_rtc.c ****   *         sign with a 2-ppm step.
1716:cmsis/device/stm32f4xx_rtc.c ****   *           
1717:cmsis/device/stm32f4xx_rtc.c ****   * @note   This Calibration value should be between 0 and 126 when using positive
1718:cmsis/device/stm32f4xx_rtc.c ****   *         sign with a 4-ppm step.
1719:cmsis/device/stm32f4xx_rtc.c ****   *           
1720:cmsis/device/stm32f4xx_rtc.c ****   * @retval An ErrorStatus enumeration value:
1721:cmsis/device/stm32f4xx_rtc.c ****   *          - SUCCESS: RTC Coarse calibration are initialized
1722:cmsis/device/stm32f4xx_rtc.c ****   *          - ERROR: RTC Coarse calibration are not initialized     
1723:cmsis/device/stm32f4xx_rtc.c ****   */
1724:cmsis/device/stm32f4xx_rtc.c **** ErrorStatus RTC_CoarseCalibConfig(uint32_t RTC_CalibSign, uint32_t Value)
1725:cmsis/device/stm32f4xx_rtc.c **** {
1726:cmsis/device/stm32f4xx_rtc.c ****   ErrorStatus status = ERROR;
1727:cmsis/device/stm32f4xx_rtc.c ****    
1728:cmsis/device/stm32f4xx_rtc.c ****   /* Check the parameters */
1729:cmsis/device/stm32f4xx_rtc.c ****   assert_param(IS_RTC_CALIB_SIGN(RTC_CalibSign));
1730:cmsis/device/stm32f4xx_rtc.c ****   assert_param(IS_RTC_CALIB_VALUE(Value)); 
1731:cmsis/device/stm32f4xx_rtc.c **** 
1732:cmsis/device/stm32f4xx_rtc.c ****   /* Disable the write protection for RTC registers */
1733:cmsis/device/stm32f4xx_rtc.c ****   RTC->WPR = 0xCA;
1734:cmsis/device/stm32f4xx_rtc.c ****   RTC->WPR = 0x53;
1735:cmsis/device/stm32f4xx_rtc.c **** 
1736:cmsis/device/stm32f4xx_rtc.c ****   /* Set Initialization mode */
1737:cmsis/device/stm32f4xx_rtc.c ****   if (RTC_EnterInitMode() == ERROR)
ARM GAS  C:\Users\CNous\AppData\Local\Temp\ccCDm0MK.s 			page 45


1738:cmsis/device/stm32f4xx_rtc.c ****   {
1739:cmsis/device/stm32f4xx_rtc.c ****     status = ERROR;
1740:cmsis/device/stm32f4xx_rtc.c ****   } 
1741:cmsis/device/stm32f4xx_rtc.c ****   else
1742:cmsis/device/stm32f4xx_rtc.c ****   {
1743:cmsis/device/stm32f4xx_rtc.c ****     /* Set the coarse calibration value */
1744:cmsis/device/stm32f4xx_rtc.c ****     RTC->CALIBR = (uint32_t)(RTC_CalibSign | Value);
1745:cmsis/device/stm32f4xx_rtc.c ****     /* Exit Initialization mode */
1746:cmsis/device/stm32f4xx_rtc.c ****     RTC_ExitInitMode();
1747:cmsis/device/stm32f4xx_rtc.c ****     
1748:cmsis/device/stm32f4xx_rtc.c ****     status = SUCCESS;
1749:cmsis/device/stm32f4xx_rtc.c ****   } 
1750:cmsis/device/stm32f4xx_rtc.c **** 
1751:cmsis/device/stm32f4xx_rtc.c ****   /* Enable the write protection for RTC registers */
1752:cmsis/device/stm32f4xx_rtc.c ****   RTC->WPR = 0xFF; 
1753:cmsis/device/stm32f4xx_rtc.c ****   
1754:cmsis/device/stm32f4xx_rtc.c ****   return status;
1755:cmsis/device/stm32f4xx_rtc.c **** }
1756:cmsis/device/stm32f4xx_rtc.c **** 
1757:cmsis/device/stm32f4xx_rtc.c **** /**
1758:cmsis/device/stm32f4xx_rtc.c ****   * @brief  Enables or disables the Coarse calibration process.
1759:cmsis/device/stm32f4xx_rtc.c ****   * @param  NewState: new state of the Coarse calibration.
1760:cmsis/device/stm32f4xx_rtc.c ****   *          This parameter can be: ENABLE or DISABLE.
1761:cmsis/device/stm32f4xx_rtc.c ****   * @retval An ErrorStatus enumeration value:
1762:cmsis/device/stm32f4xx_rtc.c ****   *          - SUCCESS: RTC Coarse calibration are enabled/disabled
1763:cmsis/device/stm32f4xx_rtc.c ****   *          - ERROR: RTC Coarse calibration are not enabled/disabled    
1764:cmsis/device/stm32f4xx_rtc.c ****   */
1765:cmsis/device/stm32f4xx_rtc.c **** ErrorStatus RTC_CoarseCalibCmd(FunctionalState NewState)
1766:cmsis/device/stm32f4xx_rtc.c **** {
1767:cmsis/device/stm32f4xx_rtc.c ****   ErrorStatus status = ERROR;
1768:cmsis/device/stm32f4xx_rtc.c ****   
1769:cmsis/device/stm32f4xx_rtc.c ****   /* Check the parameters */
1770:cmsis/device/stm32f4xx_rtc.c ****   assert_param(IS_FUNCTIONAL_STATE(NewState));
1771:cmsis/device/stm32f4xx_rtc.c **** 
1772:cmsis/device/stm32f4xx_rtc.c ****   /* Disable the write protection for RTC registers */
1773:cmsis/device/stm32f4xx_rtc.c ****   RTC->WPR = 0xCA;
1774:cmsis/device/stm32f4xx_rtc.c ****   RTC->WPR = 0x53;
1775:cmsis/device/stm32f4xx_rtc.c ****   
1776:cmsis/device/stm32f4xx_rtc.c ****   /* Set Initialization mode */
1777:cmsis/device/stm32f4xx_rtc.c ****   if (RTC_EnterInitMode() == ERROR)
1778:cmsis/device/stm32f4xx_rtc.c ****   {
1779:cmsis/device/stm32f4xx_rtc.c ****     status =  ERROR;
1780:cmsis/device/stm32f4xx_rtc.c ****   }
1781:cmsis/device/stm32f4xx_rtc.c ****   else
1782:cmsis/device/stm32f4xx_rtc.c ****   {
1783:cmsis/device/stm32f4xx_rtc.c ****     if (NewState != DISABLE)
1784:cmsis/device/stm32f4xx_rtc.c ****     {
1785:cmsis/device/stm32f4xx_rtc.c ****       /* Enable the Coarse Calibration */
1786:cmsis/device/stm32f4xx_rtc.c ****       RTC->CR |= (uint32_t)RTC_CR_DCE;
1787:cmsis/device/stm32f4xx_rtc.c ****     }
1788:cmsis/device/stm32f4xx_rtc.c ****     else
1789:cmsis/device/stm32f4xx_rtc.c ****     { 
1790:cmsis/device/stm32f4xx_rtc.c ****       /* Disable the Coarse Calibration */
1791:cmsis/device/stm32f4xx_rtc.c ****       RTC->CR &= (uint32_t)~RTC_CR_DCE;
1792:cmsis/device/stm32f4xx_rtc.c ****     }
1793:cmsis/device/stm32f4xx_rtc.c ****     /* Exit Initialization mode */
1794:cmsis/device/stm32f4xx_rtc.c ****     RTC_ExitInitMode();
ARM GAS  C:\Users\CNous\AppData\Local\Temp\ccCDm0MK.s 			page 46


1795:cmsis/device/stm32f4xx_rtc.c ****     
1796:cmsis/device/stm32f4xx_rtc.c ****     status = SUCCESS;
1797:cmsis/device/stm32f4xx_rtc.c ****   } 
1798:cmsis/device/stm32f4xx_rtc.c ****   
1799:cmsis/device/stm32f4xx_rtc.c ****   /* Enable the write protection for RTC registers */
1800:cmsis/device/stm32f4xx_rtc.c ****   RTC->WPR = 0xFF; 
1801:cmsis/device/stm32f4xx_rtc.c ****   
1802:cmsis/device/stm32f4xx_rtc.c ****   return status;
1803:cmsis/device/stm32f4xx_rtc.c **** }
1804:cmsis/device/stm32f4xx_rtc.c **** 
1805:cmsis/device/stm32f4xx_rtc.c **** /**
1806:cmsis/device/stm32f4xx_rtc.c ****   * @brief  Enables or disables the RTC clock to be output through the relative pin.
1807:cmsis/device/stm32f4xx_rtc.c ****   * @param  NewState: new state of the digital calibration Output.
1808:cmsis/device/stm32f4xx_rtc.c ****   *          This parameter can be: ENABLE or DISABLE.
1809:cmsis/device/stm32f4xx_rtc.c ****   * @retval None
1810:cmsis/device/stm32f4xx_rtc.c ****   */
1811:cmsis/device/stm32f4xx_rtc.c **** void RTC_CalibOutputCmd(FunctionalState NewState)
1812:cmsis/device/stm32f4xx_rtc.c **** {
1813:cmsis/device/stm32f4xx_rtc.c ****   /* Check the parameters */
1814:cmsis/device/stm32f4xx_rtc.c ****   assert_param(IS_FUNCTIONAL_STATE(NewState));
1815:cmsis/device/stm32f4xx_rtc.c ****   
1816:cmsis/device/stm32f4xx_rtc.c ****   /* Disable the write protection for RTC registers */
1817:cmsis/device/stm32f4xx_rtc.c ****   RTC->WPR = 0xCA;
1818:cmsis/device/stm32f4xx_rtc.c ****   RTC->WPR = 0x53;
1819:cmsis/device/stm32f4xx_rtc.c ****   
1820:cmsis/device/stm32f4xx_rtc.c ****   if (NewState != DISABLE)
1821:cmsis/device/stm32f4xx_rtc.c ****   {
1822:cmsis/device/stm32f4xx_rtc.c ****     /* Enable the RTC clock output */
1823:cmsis/device/stm32f4xx_rtc.c ****     RTC->CR |= (uint32_t)RTC_CR_COE;
1824:cmsis/device/stm32f4xx_rtc.c ****   }
1825:cmsis/device/stm32f4xx_rtc.c ****   else
1826:cmsis/device/stm32f4xx_rtc.c ****   { 
1827:cmsis/device/stm32f4xx_rtc.c ****     /* Disable the RTC clock output */
1828:cmsis/device/stm32f4xx_rtc.c ****     RTC->CR &= (uint32_t)~RTC_CR_COE;
1829:cmsis/device/stm32f4xx_rtc.c ****   }
1830:cmsis/device/stm32f4xx_rtc.c ****   
1831:cmsis/device/stm32f4xx_rtc.c ****   /* Enable the write protection for RTC registers */
1832:cmsis/device/stm32f4xx_rtc.c ****   RTC->WPR = 0xFF; 
1833:cmsis/device/stm32f4xx_rtc.c **** }
1834:cmsis/device/stm32f4xx_rtc.c **** 
1835:cmsis/device/stm32f4xx_rtc.c **** /**
1836:cmsis/device/stm32f4xx_rtc.c ****   * @brief  Configure the Calibration Pinout (RTC_CALIB) Selection (1Hz or 512Hz).
1837:cmsis/device/stm32f4xx_rtc.c ****   * @param  RTC_CalibOutput : Select the Calibration output Selection .
1838:cmsis/device/stm32f4xx_rtc.c ****   *   This parameter can be one of the following values:
1839:cmsis/device/stm32f4xx_rtc.c ****   *     @arg RTC_CalibOutput_512Hz: A signal has a regular waveform at 512Hz. 
1840:cmsis/device/stm32f4xx_rtc.c ****   *     @arg RTC_CalibOutput_1Hz  : A signal has a regular waveform at 1Hz.
1841:cmsis/device/stm32f4xx_rtc.c ****   * @retval None
1842:cmsis/device/stm32f4xx_rtc.c **** */
1843:cmsis/device/stm32f4xx_rtc.c **** void RTC_CalibOutputConfig(uint32_t RTC_CalibOutput)
1844:cmsis/device/stm32f4xx_rtc.c **** {
1845:cmsis/device/stm32f4xx_rtc.c ****   /* Check the parameters */
1846:cmsis/device/stm32f4xx_rtc.c ****   assert_param(IS_RTC_CALIB_OUTPUT(RTC_CalibOutput));
1847:cmsis/device/stm32f4xx_rtc.c **** 
1848:cmsis/device/stm32f4xx_rtc.c ****   /* Disable the write protection for RTC registers */
1849:cmsis/device/stm32f4xx_rtc.c ****   RTC->WPR = 0xCA;
1850:cmsis/device/stm32f4xx_rtc.c ****   RTC->WPR = 0x53;
1851:cmsis/device/stm32f4xx_rtc.c ****   
ARM GAS  C:\Users\CNous\AppData\Local\Temp\ccCDm0MK.s 			page 47


1852:cmsis/device/stm32f4xx_rtc.c ****   /*clear flags before config*/
1853:cmsis/device/stm32f4xx_rtc.c ****   RTC->CR &= (uint32_t)~(RTC_CR_COSEL);
1854:cmsis/device/stm32f4xx_rtc.c **** 
1855:cmsis/device/stm32f4xx_rtc.c ****   /* Configure the RTC_CR register */
1856:cmsis/device/stm32f4xx_rtc.c ****   RTC->CR |= (uint32_t)RTC_CalibOutput;
1857:cmsis/device/stm32f4xx_rtc.c **** 
1858:cmsis/device/stm32f4xx_rtc.c ****   /* Enable the write protection for RTC registers */
1859:cmsis/device/stm32f4xx_rtc.c ****   RTC->WPR = 0xFF;
1860:cmsis/device/stm32f4xx_rtc.c **** }
1861:cmsis/device/stm32f4xx_rtc.c **** 
1862:cmsis/device/stm32f4xx_rtc.c **** /**
1863:cmsis/device/stm32f4xx_rtc.c ****   * @brief  Configures the Smooth Calibration Settings.
1864:cmsis/device/stm32f4xx_rtc.c ****   * @param  RTC_SmoothCalibPeriod : Select the Smooth Calibration Period.
1865:cmsis/device/stm32f4xx_rtc.c ****   *   This parameter can be can be one of the following values:
1866:cmsis/device/stm32f4xx_rtc.c ****   *     @arg RTC_SmoothCalibPeriod_32sec : The smooth calibration periode is 32s.
1867:cmsis/device/stm32f4xx_rtc.c ****   *     @arg RTC_SmoothCalibPeriod_16sec : The smooth calibration periode is 16s.
1868:cmsis/device/stm32f4xx_rtc.c ****   *     @arg RTC_SmoothCalibPeriod_8sec  : The smooth calibartion periode is 8s.
1869:cmsis/device/stm32f4xx_rtc.c ****   * @param  RTC_SmoothCalibPlusPulses : Select to Set or reset the CALP bit.
1870:cmsis/device/stm32f4xx_rtc.c ****   *   This parameter can be one of the following values:
1871:cmsis/device/stm32f4xx_rtc.c ****   *     @arg RTC_SmoothCalibPlusPulses_Set  : Add one RTCCLK puls every 2**11 pulses.
1872:cmsis/device/stm32f4xx_rtc.c ****   *     @arg RTC_SmoothCalibPlusPulses_Reset: No RTCCLK pulses are added.
1873:cmsis/device/stm32f4xx_rtc.c ****   * @param  RTC_SmouthCalibMinusPulsesValue: Select the value of CALM[8:0] bits.
1874:cmsis/device/stm32f4xx_rtc.c ****   *   This parameter can be one any value from 0 to 0x000001FF.
1875:cmsis/device/stm32f4xx_rtc.c ****   * @retval An ErrorStatus enumeration value:
1876:cmsis/device/stm32f4xx_rtc.c ****   *          - SUCCESS: RTC Calib registers are configured
1877:cmsis/device/stm32f4xx_rtc.c ****   *          - ERROR: RTC Calib registers are not configured
1878:cmsis/device/stm32f4xx_rtc.c **** */
1879:cmsis/device/stm32f4xx_rtc.c **** ErrorStatus RTC_SmoothCalibConfig(uint32_t RTC_SmoothCalibPeriod,
1880:cmsis/device/stm32f4xx_rtc.c ****                                   uint32_t RTC_SmoothCalibPlusPulses,
1881:cmsis/device/stm32f4xx_rtc.c ****                                   uint32_t RTC_SmouthCalibMinusPulsesValue)
1882:cmsis/device/stm32f4xx_rtc.c **** {
1883:cmsis/device/stm32f4xx_rtc.c ****   ErrorStatus status = ERROR;
1884:cmsis/device/stm32f4xx_rtc.c ****   uint32_t recalpfcount = 0;
1885:cmsis/device/stm32f4xx_rtc.c **** 
1886:cmsis/device/stm32f4xx_rtc.c ****   /* Check the parameters */
1887:cmsis/device/stm32f4xx_rtc.c ****   assert_param(IS_RTC_SMOOTH_CALIB_PERIOD(RTC_SmoothCalibPeriod));
1888:cmsis/device/stm32f4xx_rtc.c ****   assert_param(IS_RTC_SMOOTH_CALIB_PLUS(RTC_SmoothCalibPlusPulses));
1889:cmsis/device/stm32f4xx_rtc.c ****   assert_param(IS_RTC_SMOOTH_CALIB_MINUS(RTC_SmouthCalibMinusPulsesValue));
1890:cmsis/device/stm32f4xx_rtc.c **** 
1891:cmsis/device/stm32f4xx_rtc.c ****   /* Disable the write protection for RTC registers */
1892:cmsis/device/stm32f4xx_rtc.c ****   RTC->WPR = 0xCA;
1893:cmsis/device/stm32f4xx_rtc.c ****   RTC->WPR = 0x53;
1894:cmsis/device/stm32f4xx_rtc.c ****   
1895:cmsis/device/stm32f4xx_rtc.c ****   /* check if a calibration is pending*/
1896:cmsis/device/stm32f4xx_rtc.c ****   if ((RTC->ISR & RTC_ISR_RECALPF) != RESET)
1897:cmsis/device/stm32f4xx_rtc.c ****   {
1898:cmsis/device/stm32f4xx_rtc.c ****     /* wait until the Calibration is completed*/
1899:cmsis/device/stm32f4xx_rtc.c ****     while (((RTC->ISR & RTC_ISR_RECALPF) != RESET) && (recalpfcount != RECALPF_TIMEOUT))
1900:cmsis/device/stm32f4xx_rtc.c ****     {
1901:cmsis/device/stm32f4xx_rtc.c ****       recalpfcount++;
1902:cmsis/device/stm32f4xx_rtc.c ****     }
1903:cmsis/device/stm32f4xx_rtc.c ****   }
1904:cmsis/device/stm32f4xx_rtc.c **** 
1905:cmsis/device/stm32f4xx_rtc.c ****   /* check if the calibration pending is completed or if there is no calibration operation at all*/
1906:cmsis/device/stm32f4xx_rtc.c ****   if ((RTC->ISR & RTC_ISR_RECALPF) == RESET)
1907:cmsis/device/stm32f4xx_rtc.c ****   {
1908:cmsis/device/stm32f4xx_rtc.c ****     /* Configure the Smooth calibration settings */
ARM GAS  C:\Users\CNous\AppData\Local\Temp\ccCDm0MK.s 			page 48


1909:cmsis/device/stm32f4xx_rtc.c ****     RTC->CALR = (uint32_t)((uint32_t)RTC_SmoothCalibPeriod | (uint32_t)RTC_SmoothCalibPlusPulses | 
1910:cmsis/device/stm32f4xx_rtc.c **** 
1911:cmsis/device/stm32f4xx_rtc.c ****     status = SUCCESS;
1912:cmsis/device/stm32f4xx_rtc.c ****   }
1913:cmsis/device/stm32f4xx_rtc.c ****   else
1914:cmsis/device/stm32f4xx_rtc.c ****   {
1915:cmsis/device/stm32f4xx_rtc.c ****     status = ERROR;
1916:cmsis/device/stm32f4xx_rtc.c ****   }
1917:cmsis/device/stm32f4xx_rtc.c **** 
1918:cmsis/device/stm32f4xx_rtc.c ****   /* Enable the write protection for RTC registers */
1919:cmsis/device/stm32f4xx_rtc.c ****   RTC->WPR = 0xFF;
1920:cmsis/device/stm32f4xx_rtc.c ****   
1921:cmsis/device/stm32f4xx_rtc.c ****   return (ErrorStatus)(status);
1922:cmsis/device/stm32f4xx_rtc.c **** }
1923:cmsis/device/stm32f4xx_rtc.c **** 
1924:cmsis/device/stm32f4xx_rtc.c **** /**
1925:cmsis/device/stm32f4xx_rtc.c ****   * @}
1926:cmsis/device/stm32f4xx_rtc.c ****   */
1927:cmsis/device/stm32f4xx_rtc.c **** 
1928:cmsis/device/stm32f4xx_rtc.c **** 
1929:cmsis/device/stm32f4xx_rtc.c **** /** @defgroup RTC_Group8 TimeStamp configuration functions
1930:cmsis/device/stm32f4xx_rtc.c ****  *  @brief   TimeStamp configuration functions 
1931:cmsis/device/stm32f4xx_rtc.c ****  *
1932:cmsis/device/stm32f4xx_rtc.c **** @verbatim   
1933:cmsis/device/stm32f4xx_rtc.c ****  ===============================================================================
1934:cmsis/device/stm32f4xx_rtc.c ****                        TimeStamp configuration functions
1935:cmsis/device/stm32f4xx_rtc.c ****  ===============================================================================  
1936:cmsis/device/stm32f4xx_rtc.c **** 
1937:cmsis/device/stm32f4xx_rtc.c **** @endverbatim
1938:cmsis/device/stm32f4xx_rtc.c ****   * @{
1939:cmsis/device/stm32f4xx_rtc.c ****   */
1940:cmsis/device/stm32f4xx_rtc.c **** 
1941:cmsis/device/stm32f4xx_rtc.c **** /**
1942:cmsis/device/stm32f4xx_rtc.c ****   * @brief  Enables or Disables the RTC TimeStamp functionality with the 
1943:cmsis/device/stm32f4xx_rtc.c ****   *         specified time stamp pin stimulating edge.
1944:cmsis/device/stm32f4xx_rtc.c ****   * @param  RTC_TimeStampEdge: Specifies the pin edge on which the TimeStamp is 
1945:cmsis/device/stm32f4xx_rtc.c ****   *         activated.
1946:cmsis/device/stm32f4xx_rtc.c ****   *          This parameter can be one of the following:
1947:cmsis/device/stm32f4xx_rtc.c ****   *            @arg RTC_TimeStampEdge_Rising: the Time stamp event occurs on the rising 
1948:cmsis/device/stm32f4xx_rtc.c ****   *                                    edge of the related pin.
1949:cmsis/device/stm32f4xx_rtc.c ****   *            @arg RTC_TimeStampEdge_Falling: the Time stamp event occurs on the 
1950:cmsis/device/stm32f4xx_rtc.c ****   *                                     falling edge of the related pin.
1951:cmsis/device/stm32f4xx_rtc.c ****   * @param  NewState: new state of the TimeStamp.
1952:cmsis/device/stm32f4xx_rtc.c ****   *          This parameter can be: ENABLE or DISABLE.
1953:cmsis/device/stm32f4xx_rtc.c ****   * @retval None
1954:cmsis/device/stm32f4xx_rtc.c ****   */
1955:cmsis/device/stm32f4xx_rtc.c **** void RTC_TimeStampCmd(uint32_t RTC_TimeStampEdge, FunctionalState NewState)
1956:cmsis/device/stm32f4xx_rtc.c **** {
1957:cmsis/device/stm32f4xx_rtc.c ****   uint32_t tmpreg = 0;
1958:cmsis/device/stm32f4xx_rtc.c **** 
1959:cmsis/device/stm32f4xx_rtc.c ****   /* Check the parameters */
1960:cmsis/device/stm32f4xx_rtc.c ****   assert_param(IS_RTC_TIMESTAMP_EDGE(RTC_TimeStampEdge));
1961:cmsis/device/stm32f4xx_rtc.c ****   assert_param(IS_FUNCTIONAL_STATE(NewState));
1962:cmsis/device/stm32f4xx_rtc.c **** 
1963:cmsis/device/stm32f4xx_rtc.c ****   /* Get the RTC_CR register and clear the bits to be configured */
1964:cmsis/device/stm32f4xx_rtc.c ****   tmpreg = (uint32_t)(RTC->CR & (uint32_t)~(RTC_CR_TSEDGE | RTC_CR_TSE));
1965:cmsis/device/stm32f4xx_rtc.c **** 
ARM GAS  C:\Users\CNous\AppData\Local\Temp\ccCDm0MK.s 			page 49


1966:cmsis/device/stm32f4xx_rtc.c ****   /* Get the new configuration */
1967:cmsis/device/stm32f4xx_rtc.c ****   if (NewState != DISABLE)
1968:cmsis/device/stm32f4xx_rtc.c ****   {
1969:cmsis/device/stm32f4xx_rtc.c ****     tmpreg |= (uint32_t)(RTC_TimeStampEdge | RTC_CR_TSE);
1970:cmsis/device/stm32f4xx_rtc.c ****   }
1971:cmsis/device/stm32f4xx_rtc.c ****   else
1972:cmsis/device/stm32f4xx_rtc.c ****   {
1973:cmsis/device/stm32f4xx_rtc.c ****     tmpreg |= (uint32_t)(RTC_TimeStampEdge);
1974:cmsis/device/stm32f4xx_rtc.c ****   }
1975:cmsis/device/stm32f4xx_rtc.c **** 
1976:cmsis/device/stm32f4xx_rtc.c ****   /* Disable the write protection for RTC registers */
1977:cmsis/device/stm32f4xx_rtc.c ****   RTC->WPR = 0xCA;
1978:cmsis/device/stm32f4xx_rtc.c ****   RTC->WPR = 0x53;
1979:cmsis/device/stm32f4xx_rtc.c **** 
1980:cmsis/device/stm32f4xx_rtc.c ****   /* Configure the Time Stamp TSEDGE and Enable bits */
1981:cmsis/device/stm32f4xx_rtc.c ****   RTC->CR = (uint32_t)tmpreg;
1982:cmsis/device/stm32f4xx_rtc.c **** 
1983:cmsis/device/stm32f4xx_rtc.c ****   /* Enable the write protection for RTC registers */
1984:cmsis/device/stm32f4xx_rtc.c ****   RTC->WPR = 0xFF; 
1985:cmsis/device/stm32f4xx_rtc.c **** }
1986:cmsis/device/stm32f4xx_rtc.c **** 
1987:cmsis/device/stm32f4xx_rtc.c **** /**
1988:cmsis/device/stm32f4xx_rtc.c ****   * @brief  Get the RTC TimeStamp value and masks.
1989:cmsis/device/stm32f4xx_rtc.c ****   * @param  RTC_Format: specifies the format of the output parameters.
1990:cmsis/device/stm32f4xx_rtc.c ****   *          This parameter can be one of the following values:
1991:cmsis/device/stm32f4xx_rtc.c ****   *            @arg RTC_Format_BIN: Binary data format 
1992:cmsis/device/stm32f4xx_rtc.c ****   *            @arg RTC_Format_BCD: BCD data format
1993:cmsis/device/stm32f4xx_rtc.c ****   * @param RTC_StampTimeStruct: pointer to a RTC_TimeTypeDef structure that will 
1994:cmsis/device/stm32f4xx_rtc.c ****   *                             contains the TimeStamp time values. 
1995:cmsis/device/stm32f4xx_rtc.c ****   * @param RTC_StampDateStruct: pointer to a RTC_DateTypeDef structure that will 
1996:cmsis/device/stm32f4xx_rtc.c ****   *                             contains the TimeStamp date values.     
1997:cmsis/device/stm32f4xx_rtc.c ****   * @retval None
1998:cmsis/device/stm32f4xx_rtc.c ****   */
1999:cmsis/device/stm32f4xx_rtc.c **** void RTC_GetTimeStamp(uint32_t RTC_Format, RTC_TimeTypeDef* RTC_StampTimeStruct, 
2000:cmsis/device/stm32f4xx_rtc.c ****                                       RTC_DateTypeDef* RTC_StampDateStruct)
2001:cmsis/device/stm32f4xx_rtc.c **** {
2002:cmsis/device/stm32f4xx_rtc.c ****   uint32_t tmptime = 0, tmpdate = 0;
2003:cmsis/device/stm32f4xx_rtc.c **** 
2004:cmsis/device/stm32f4xx_rtc.c ****   /* Check the parameters */
2005:cmsis/device/stm32f4xx_rtc.c ****   assert_param(IS_RTC_FORMAT(RTC_Format));
2006:cmsis/device/stm32f4xx_rtc.c **** 
2007:cmsis/device/stm32f4xx_rtc.c ****   /* Get the TimeStamp time and date registers values */
2008:cmsis/device/stm32f4xx_rtc.c ****   tmptime = (uint32_t)(RTC->TSTR & RTC_TR_RESERVED_MASK);
2009:cmsis/device/stm32f4xx_rtc.c ****   tmpdate = (uint32_t)(RTC->TSDR & RTC_DR_RESERVED_MASK);
2010:cmsis/device/stm32f4xx_rtc.c **** 
2011:cmsis/device/stm32f4xx_rtc.c ****   /* Fill the Time structure fields with the read parameters */
2012:cmsis/device/stm32f4xx_rtc.c ****   RTC_StampTimeStruct->RTC_Hours = (uint8_t)((tmptime & (RTC_TR_HT | RTC_TR_HU)) >> 16);
2013:cmsis/device/stm32f4xx_rtc.c ****   RTC_StampTimeStruct->RTC_Minutes = (uint8_t)((tmptime & (RTC_TR_MNT | RTC_TR_MNU)) >> 8);
2014:cmsis/device/stm32f4xx_rtc.c ****   RTC_StampTimeStruct->RTC_Seconds = (uint8_t)(tmptime & (RTC_TR_ST | RTC_TR_SU));
2015:cmsis/device/stm32f4xx_rtc.c ****   RTC_StampTimeStruct->RTC_H12 = (uint8_t)((tmptime & (RTC_TR_PM)) >> 16);  
2016:cmsis/device/stm32f4xx_rtc.c **** 
2017:cmsis/device/stm32f4xx_rtc.c ****   /* Fill the Date structure fields with the read parameters */
2018:cmsis/device/stm32f4xx_rtc.c ****   RTC_StampDateStruct->RTC_Year = 0;
2019:cmsis/device/stm32f4xx_rtc.c ****   RTC_StampDateStruct->RTC_Month = (uint8_t)((tmpdate & (RTC_DR_MT | RTC_DR_MU)) >> 8);
2020:cmsis/device/stm32f4xx_rtc.c ****   RTC_StampDateStruct->RTC_Date = (uint8_t)(tmpdate & (RTC_DR_DT | RTC_DR_DU));
2021:cmsis/device/stm32f4xx_rtc.c ****   RTC_StampDateStruct->RTC_WeekDay = (uint8_t)((tmpdate & (RTC_DR_WDU)) >> 13);
2022:cmsis/device/stm32f4xx_rtc.c **** 
ARM GAS  C:\Users\CNous\AppData\Local\Temp\ccCDm0MK.s 			page 50


2023:cmsis/device/stm32f4xx_rtc.c ****   /* Check the input parameters format */
2024:cmsis/device/stm32f4xx_rtc.c ****   if (RTC_Format == RTC_Format_BIN)
2025:cmsis/device/stm32f4xx_rtc.c ****   {
2026:cmsis/device/stm32f4xx_rtc.c ****     /* Convert the Time structure parameters to Binary format */
2027:cmsis/device/stm32f4xx_rtc.c ****     RTC_StampTimeStruct->RTC_Hours = (uint8_t)RTC_Bcd2ToByte(RTC_StampTimeStruct->RTC_Hours);
2028:cmsis/device/stm32f4xx_rtc.c ****     RTC_StampTimeStruct->RTC_Minutes = (uint8_t)RTC_Bcd2ToByte(RTC_StampTimeStruct->RTC_Minutes);
2029:cmsis/device/stm32f4xx_rtc.c ****     RTC_StampTimeStruct->RTC_Seconds = (uint8_t)RTC_Bcd2ToByte(RTC_StampTimeStruct->RTC_Seconds);
2030:cmsis/device/stm32f4xx_rtc.c **** 
2031:cmsis/device/stm32f4xx_rtc.c ****     /* Convert the Date structure parameters to Binary format */
2032:cmsis/device/stm32f4xx_rtc.c ****     RTC_StampDateStruct->RTC_Month = (uint8_t)RTC_Bcd2ToByte(RTC_StampDateStruct->RTC_Month);
2033:cmsis/device/stm32f4xx_rtc.c ****     RTC_StampDateStruct->RTC_Date = (uint8_t)RTC_Bcd2ToByte(RTC_StampDateStruct->RTC_Date);
2034:cmsis/device/stm32f4xx_rtc.c ****     RTC_StampDateStruct->RTC_WeekDay = (uint8_t)RTC_Bcd2ToByte(RTC_StampDateStruct->RTC_WeekDay);
2035:cmsis/device/stm32f4xx_rtc.c ****   }
2036:cmsis/device/stm32f4xx_rtc.c **** }
2037:cmsis/device/stm32f4xx_rtc.c **** 
2038:cmsis/device/stm32f4xx_rtc.c **** /**
2039:cmsis/device/stm32f4xx_rtc.c ****   * @brief  Get the RTC timestamp Subseconds value.
2040:cmsis/device/stm32f4xx_rtc.c ****   * @param  None
2041:cmsis/device/stm32f4xx_rtc.c ****   * @retval RTC current timestamp Subseconds value.
2042:cmsis/device/stm32f4xx_rtc.c ****   */
2043:cmsis/device/stm32f4xx_rtc.c **** uint32_t RTC_GetTimeStampSubSecond(void)
2044:cmsis/device/stm32f4xx_rtc.c **** {
2045:cmsis/device/stm32f4xx_rtc.c ****   /* Get timestamp subseconds values from the correspondent registers */
2046:cmsis/device/stm32f4xx_rtc.c ****   return (uint32_t)(RTC->TSSSR);
2047:cmsis/device/stm32f4xx_rtc.c **** }
2048:cmsis/device/stm32f4xx_rtc.c **** 
2049:cmsis/device/stm32f4xx_rtc.c **** /**
2050:cmsis/device/stm32f4xx_rtc.c ****   * @}
2051:cmsis/device/stm32f4xx_rtc.c ****   */
2052:cmsis/device/stm32f4xx_rtc.c **** 
2053:cmsis/device/stm32f4xx_rtc.c **** /** @defgroup RTC_Group9 Tampers configuration functions
2054:cmsis/device/stm32f4xx_rtc.c ****  *  @brief   Tampers configuration functions 
2055:cmsis/device/stm32f4xx_rtc.c ****  *
2056:cmsis/device/stm32f4xx_rtc.c **** @verbatim   
2057:cmsis/device/stm32f4xx_rtc.c ****  ===============================================================================
2058:cmsis/device/stm32f4xx_rtc.c ****                        Tampers configuration functions
2059:cmsis/device/stm32f4xx_rtc.c ****  ===============================================================================  
2060:cmsis/device/stm32f4xx_rtc.c **** 
2061:cmsis/device/stm32f4xx_rtc.c **** @endverbatim
2062:cmsis/device/stm32f4xx_rtc.c ****   * @{
2063:cmsis/device/stm32f4xx_rtc.c ****   */
2064:cmsis/device/stm32f4xx_rtc.c **** 
2065:cmsis/device/stm32f4xx_rtc.c **** /**
2066:cmsis/device/stm32f4xx_rtc.c ****   * @brief  Configures the select Tamper pin edge.
2067:cmsis/device/stm32f4xx_rtc.c ****   * @param  RTC_Tamper: Selected tamper pin.
2068:cmsis/device/stm32f4xx_rtc.c ****   *          This parameter can be RTC_Tamper_1.
2069:cmsis/device/stm32f4xx_rtc.c ****   * @param  RTC_TamperTrigger: Specifies the trigger on the tamper pin that 
2070:cmsis/device/stm32f4xx_rtc.c ****   *         stimulates tamper event. 
2071:cmsis/device/stm32f4xx_rtc.c ****   *   This parameter can be one of the following values:
2072:cmsis/device/stm32f4xx_rtc.c ****   *     @arg RTC_TamperTrigger_RisingEdge: Rising Edge of the tamper pin causes tamper event.
2073:cmsis/device/stm32f4xx_rtc.c ****   *     @arg RTC_TamperTrigger_FallingEdge: Falling Edge of the tamper pin causes tamper event.
2074:cmsis/device/stm32f4xx_rtc.c ****   *     @arg RTC_TamperTrigger_LowLevel: Low Level of the tamper pin causes tamper event.
2075:cmsis/device/stm32f4xx_rtc.c ****   *     @arg RTC_TamperTrigger_HighLevel: High Level of the tamper pin causes tamper event.
2076:cmsis/device/stm32f4xx_rtc.c ****   * @retval None
2077:cmsis/device/stm32f4xx_rtc.c ****   */
2078:cmsis/device/stm32f4xx_rtc.c **** void RTC_TamperTriggerConfig(uint32_t RTC_Tamper, uint32_t RTC_TamperTrigger)
2079:cmsis/device/stm32f4xx_rtc.c **** {
ARM GAS  C:\Users\CNous\AppData\Local\Temp\ccCDm0MK.s 			page 51


2080:cmsis/device/stm32f4xx_rtc.c ****   /* Check the parameters */
2081:cmsis/device/stm32f4xx_rtc.c ****   assert_param(IS_RTC_TAMPER(RTC_Tamper)); 
2082:cmsis/device/stm32f4xx_rtc.c ****   assert_param(IS_RTC_TAMPER_TRIGGER(RTC_TamperTrigger));
2083:cmsis/device/stm32f4xx_rtc.c ****  
2084:cmsis/device/stm32f4xx_rtc.c ****   if (RTC_TamperTrigger == RTC_TamperTrigger_RisingEdge)
2085:cmsis/device/stm32f4xx_rtc.c ****   {  
2086:cmsis/device/stm32f4xx_rtc.c ****     /* Configure the RTC_TAFCR register */
2087:cmsis/device/stm32f4xx_rtc.c ****     RTC->TAFCR &= (uint32_t)((uint32_t)~(RTC_Tamper << 1));	
2088:cmsis/device/stm32f4xx_rtc.c ****   }
2089:cmsis/device/stm32f4xx_rtc.c ****   else
2090:cmsis/device/stm32f4xx_rtc.c ****   { 
2091:cmsis/device/stm32f4xx_rtc.c ****     /* Configure the RTC_TAFCR register */
2092:cmsis/device/stm32f4xx_rtc.c ****     RTC->TAFCR |= (uint32_t)(RTC_Tamper << 1);  
2093:cmsis/device/stm32f4xx_rtc.c ****   }  
2094:cmsis/device/stm32f4xx_rtc.c **** }
2095:cmsis/device/stm32f4xx_rtc.c **** 
2096:cmsis/device/stm32f4xx_rtc.c **** /**
2097:cmsis/device/stm32f4xx_rtc.c ****   * @brief  Enables or Disables the Tamper detection.
2098:cmsis/device/stm32f4xx_rtc.c ****   * @param  RTC_Tamper: Selected tamper pin.
2099:cmsis/device/stm32f4xx_rtc.c ****   *          This parameter can be RTC_Tamper_1.
2100:cmsis/device/stm32f4xx_rtc.c ****   * @param  NewState: new state of the tamper pin.
2101:cmsis/device/stm32f4xx_rtc.c ****   *          This parameter can be: ENABLE or DISABLE.                   
2102:cmsis/device/stm32f4xx_rtc.c ****   * @retval None
2103:cmsis/device/stm32f4xx_rtc.c ****   */
2104:cmsis/device/stm32f4xx_rtc.c **** void RTC_TamperCmd(uint32_t RTC_Tamper, FunctionalState NewState)
2105:cmsis/device/stm32f4xx_rtc.c **** {
2106:cmsis/device/stm32f4xx_rtc.c ****   /* Check the parameters */
2107:cmsis/device/stm32f4xx_rtc.c ****   assert_param(IS_RTC_TAMPER(RTC_Tamper));  
2108:cmsis/device/stm32f4xx_rtc.c ****   assert_param(IS_FUNCTIONAL_STATE(NewState));
2109:cmsis/device/stm32f4xx_rtc.c ****   
2110:cmsis/device/stm32f4xx_rtc.c ****   if (NewState != DISABLE)
2111:cmsis/device/stm32f4xx_rtc.c ****   {
2112:cmsis/device/stm32f4xx_rtc.c ****     /* Enable the selected Tamper pin */
2113:cmsis/device/stm32f4xx_rtc.c ****     RTC->TAFCR |= (uint32_t)RTC_Tamper;
2114:cmsis/device/stm32f4xx_rtc.c ****   }
2115:cmsis/device/stm32f4xx_rtc.c ****   else
2116:cmsis/device/stm32f4xx_rtc.c ****   {
2117:cmsis/device/stm32f4xx_rtc.c ****     /* Disable the selected Tamper pin */
2118:cmsis/device/stm32f4xx_rtc.c ****     RTC->TAFCR &= (uint32_t)~RTC_Tamper;    
2119:cmsis/device/stm32f4xx_rtc.c ****   }  
2120:cmsis/device/stm32f4xx_rtc.c **** }
2121:cmsis/device/stm32f4xx_rtc.c **** 
2122:cmsis/device/stm32f4xx_rtc.c **** /**
2123:cmsis/device/stm32f4xx_rtc.c ****   * @brief  Configures the Tampers Filter.
2124:cmsis/device/stm32f4xx_rtc.c ****   * @param  RTC_TamperFilter: Specifies the tampers filter.
2125:cmsis/device/stm32f4xx_rtc.c ****   *   This parameter can be one of the following values:
2126:cmsis/device/stm32f4xx_rtc.c ****   *     @arg RTC_TamperFilter_Disable: Tamper filter is disabled.
2127:cmsis/device/stm32f4xx_rtc.c ****   *     @arg RTC_TamperFilter_2Sample: Tamper is activated after 2 consecutive 
2128:cmsis/device/stm32f4xx_rtc.c ****   *                                    samples at the active level 
2129:cmsis/device/stm32f4xx_rtc.c ****   *     @arg RTC_TamperFilter_4Sample: Tamper is activated after 4 consecutive 
2130:cmsis/device/stm32f4xx_rtc.c ****   *                                    samples at the active level
2131:cmsis/device/stm32f4xx_rtc.c ****   *     @arg RTC_TamperFilter_8Sample: Tamper is activated after 8 consecutive 
2132:cmsis/device/stm32f4xx_rtc.c ****   *                                    samples at the active level 
2133:cmsis/device/stm32f4xx_rtc.c ****   * @retval None
2134:cmsis/device/stm32f4xx_rtc.c ****   */
2135:cmsis/device/stm32f4xx_rtc.c **** void RTC_TamperFilterConfig(uint32_t RTC_TamperFilter)
2136:cmsis/device/stm32f4xx_rtc.c **** {
ARM GAS  C:\Users\CNous\AppData\Local\Temp\ccCDm0MK.s 			page 52


2137:cmsis/device/stm32f4xx_rtc.c ****   /* Check the parameters */
2138:cmsis/device/stm32f4xx_rtc.c ****   assert_param(IS_RTC_TAMPER_FILTER(RTC_TamperFilter));
2139:cmsis/device/stm32f4xx_rtc.c ****    
2140:cmsis/device/stm32f4xx_rtc.c ****   /* Clear TAMPFLT[1:0] bits in the RTC_TAFCR register */
2141:cmsis/device/stm32f4xx_rtc.c ****   RTC->TAFCR &= (uint32_t)~(RTC_TAFCR_TAMPFLT);
2142:cmsis/device/stm32f4xx_rtc.c **** 
2143:cmsis/device/stm32f4xx_rtc.c ****   /* Configure the RTC_TAFCR register */
2144:cmsis/device/stm32f4xx_rtc.c ****   RTC->TAFCR |= (uint32_t)RTC_TamperFilter;
2145:cmsis/device/stm32f4xx_rtc.c **** }
2146:cmsis/device/stm32f4xx_rtc.c **** 
2147:cmsis/device/stm32f4xx_rtc.c **** /**
2148:cmsis/device/stm32f4xx_rtc.c ****   * @brief  Configures the Tampers Sampling Frequency.
2149:cmsis/device/stm32f4xx_rtc.c ****   * @param  RTC_TamperSamplingFreq: Specifies the tampers Sampling Frequency.
2150:cmsis/device/stm32f4xx_rtc.c ****   *   This parameter can be one of the following values:
2151:cmsis/device/stm32f4xx_rtc.c ****   *     @arg RTC_TamperSamplingFreq_RTCCLK_Div32768: Each of the tamper inputs are sampled
2152:cmsis/device/stm32f4xx_rtc.c ****   *                                           with a frequency =  RTCCLK / 32768
2153:cmsis/device/stm32f4xx_rtc.c ****   *     @arg RTC_TamperSamplingFreq_RTCCLK_Div16384: Each of the tamper inputs are sampled
2154:cmsis/device/stm32f4xx_rtc.c ****   *                                           with a frequency =  RTCCLK / 16384
2155:cmsis/device/stm32f4xx_rtc.c ****   *     @arg RTC_TamperSamplingFreq_RTCCLK_Div8192: Each of the tamper inputs are sampled
2156:cmsis/device/stm32f4xx_rtc.c ****   *                                           with a frequency =  RTCCLK / 8192
2157:cmsis/device/stm32f4xx_rtc.c ****   *     @arg RTC_TamperSamplingFreq_RTCCLK_Div4096: Each of the tamper inputs are sampled
2158:cmsis/device/stm32f4xx_rtc.c ****   *                                           with a frequency =  RTCCLK / 4096
2159:cmsis/device/stm32f4xx_rtc.c ****   *     @arg RTC_TamperSamplingFreq_RTCCLK_Div2048: Each of the tamper inputs are sampled
2160:cmsis/device/stm32f4xx_rtc.c ****   *                                           with a frequency =  RTCCLK / 2048
2161:cmsis/device/stm32f4xx_rtc.c ****   *     @arg RTC_TamperSamplingFreq_RTCCLK_Div1024: Each of the tamper inputs are sampled
2162:cmsis/device/stm32f4xx_rtc.c ****   *                                           with a frequency =  RTCCLK / 1024
2163:cmsis/device/stm32f4xx_rtc.c ****   *     @arg RTC_TamperSamplingFreq_RTCCLK_Div512: Each of the tamper inputs are sampled
2164:cmsis/device/stm32f4xx_rtc.c ****   *                                           with a frequency =  RTCCLK / 512  
2165:cmsis/device/stm32f4xx_rtc.c ****   *     @arg RTC_TamperSamplingFreq_RTCCLK_Div256: Each of the tamper inputs are sampled
2166:cmsis/device/stm32f4xx_rtc.c ****   *                                           with a frequency =  RTCCLK / 256  
2167:cmsis/device/stm32f4xx_rtc.c ****   * @retval None
2168:cmsis/device/stm32f4xx_rtc.c ****   */
2169:cmsis/device/stm32f4xx_rtc.c **** void RTC_TamperSamplingFreqConfig(uint32_t RTC_TamperSamplingFreq)
2170:cmsis/device/stm32f4xx_rtc.c **** {
2171:cmsis/device/stm32f4xx_rtc.c ****   /* Check the parameters */
2172:cmsis/device/stm32f4xx_rtc.c ****   assert_param(IS_RTC_TAMPER_SAMPLING_FREQ(RTC_TamperSamplingFreq));
2173:cmsis/device/stm32f4xx_rtc.c ****  
2174:cmsis/device/stm32f4xx_rtc.c ****   /* Clear TAMPFREQ[2:0] bits in the RTC_TAFCR register */
2175:cmsis/device/stm32f4xx_rtc.c ****   RTC->TAFCR &= (uint32_t)~(RTC_TAFCR_TAMPFREQ);
2176:cmsis/device/stm32f4xx_rtc.c **** 
2177:cmsis/device/stm32f4xx_rtc.c ****   /* Configure the RTC_TAFCR register */
2178:cmsis/device/stm32f4xx_rtc.c ****   RTC->TAFCR |= (uint32_t)RTC_TamperSamplingFreq;
2179:cmsis/device/stm32f4xx_rtc.c **** }
2180:cmsis/device/stm32f4xx_rtc.c **** 
2181:cmsis/device/stm32f4xx_rtc.c **** /**
2182:cmsis/device/stm32f4xx_rtc.c ****   * @brief  Configures the Tampers Pins input Precharge Duration.
2183:cmsis/device/stm32f4xx_rtc.c ****   * @param  RTC_TamperPrechargeDuration: Specifies the Tampers Pins input
2184:cmsis/device/stm32f4xx_rtc.c ****   *         Precharge Duration.
2185:cmsis/device/stm32f4xx_rtc.c ****   *   This parameter can be one of the following values:
2186:cmsis/device/stm32f4xx_rtc.c ****   *     @arg RTC_TamperPrechargeDuration_1RTCCLK: Tamper pins are pre-charged before sampling durin
2187:cmsis/device/stm32f4xx_rtc.c ****   *     @arg RTC_TamperPrechargeDuration_2RTCCLK: Tamper pins are pre-charged before sampling durin
2188:cmsis/device/stm32f4xx_rtc.c ****   *     @arg RTC_TamperPrechargeDuration_4RTCCLK: Tamper pins are pre-charged before sampling durin
2189:cmsis/device/stm32f4xx_rtc.c ****   *     @arg RTC_TamperPrechargeDuration_8RTCCLK: Tamper pins are pre-charged before sampling durin
2190:cmsis/device/stm32f4xx_rtc.c ****   * @retval None
2191:cmsis/device/stm32f4xx_rtc.c ****   */
2192:cmsis/device/stm32f4xx_rtc.c **** void RTC_TamperPinsPrechargeDuration(uint32_t RTC_TamperPrechargeDuration)
2193:cmsis/device/stm32f4xx_rtc.c **** {
ARM GAS  C:\Users\CNous\AppData\Local\Temp\ccCDm0MK.s 			page 53


2194:cmsis/device/stm32f4xx_rtc.c ****   /* Check the parameters */
2195:cmsis/device/stm32f4xx_rtc.c ****   assert_param(IS_RTC_TAMPER_PRECHARGE_DURATION(RTC_TamperPrechargeDuration));
2196:cmsis/device/stm32f4xx_rtc.c ****    
2197:cmsis/device/stm32f4xx_rtc.c ****   /* Clear TAMPPRCH[1:0] bits in the RTC_TAFCR register */
2198:cmsis/device/stm32f4xx_rtc.c ****   RTC->TAFCR &= (uint32_t)~(RTC_TAFCR_TAMPPRCH);
2199:cmsis/device/stm32f4xx_rtc.c **** 
2200:cmsis/device/stm32f4xx_rtc.c ****   /* Configure the RTC_TAFCR register */
2201:cmsis/device/stm32f4xx_rtc.c ****   RTC->TAFCR |= (uint32_t)RTC_TamperPrechargeDuration;
2202:cmsis/device/stm32f4xx_rtc.c **** }
2203:cmsis/device/stm32f4xx_rtc.c **** 
2204:cmsis/device/stm32f4xx_rtc.c **** /**
2205:cmsis/device/stm32f4xx_rtc.c ****   * @brief  Enables or Disables the TimeStamp on Tamper Detection Event.
2206:cmsis/device/stm32f4xx_rtc.c ****   * @note   The timestamp is valid even the TSE bit in tamper control register 
2207:cmsis/device/stm32f4xx_rtc.c ****   *         is reset.   
2208:cmsis/device/stm32f4xx_rtc.c ****   * @param  NewState: new state of the timestamp on tamper event.
2209:cmsis/device/stm32f4xx_rtc.c ****   *         This parameter can be: ENABLE or DISABLE.
2210:cmsis/device/stm32f4xx_rtc.c ****   * @retval None
2211:cmsis/device/stm32f4xx_rtc.c ****   */
2212:cmsis/device/stm32f4xx_rtc.c **** void RTC_TimeStampOnTamperDetectionCmd(FunctionalState NewState)
2213:cmsis/device/stm32f4xx_rtc.c **** {
2214:cmsis/device/stm32f4xx_rtc.c ****   /* Check the parameters */
2215:cmsis/device/stm32f4xx_rtc.c ****   assert_param(IS_FUNCTIONAL_STATE(NewState));
2216:cmsis/device/stm32f4xx_rtc.c ****    
2217:cmsis/device/stm32f4xx_rtc.c ****   if (NewState != DISABLE)
2218:cmsis/device/stm32f4xx_rtc.c ****   {
2219:cmsis/device/stm32f4xx_rtc.c ****     /* Save timestamp on tamper detection event */
2220:cmsis/device/stm32f4xx_rtc.c ****     RTC->TAFCR |= (uint32_t)RTC_TAFCR_TAMPTS;
2221:cmsis/device/stm32f4xx_rtc.c ****   }
2222:cmsis/device/stm32f4xx_rtc.c ****   else
2223:cmsis/device/stm32f4xx_rtc.c ****   {
2224:cmsis/device/stm32f4xx_rtc.c ****     /* Tamper detection does not cause a timestamp to be saved */
2225:cmsis/device/stm32f4xx_rtc.c ****     RTC->TAFCR &= (uint32_t)~RTC_TAFCR_TAMPTS;    
2226:cmsis/device/stm32f4xx_rtc.c ****   }
2227:cmsis/device/stm32f4xx_rtc.c **** }
2228:cmsis/device/stm32f4xx_rtc.c **** 
2229:cmsis/device/stm32f4xx_rtc.c **** /**
2230:cmsis/device/stm32f4xx_rtc.c ****   * @brief  Enables or Disables the Precharge of Tamper pin.
2231:cmsis/device/stm32f4xx_rtc.c ****   * @param  NewState: new state of tamper pull up.
2232:cmsis/device/stm32f4xx_rtc.c ****   *   This parameter can be: ENABLE or DISABLE.                   
2233:cmsis/device/stm32f4xx_rtc.c ****   * @retval None
2234:cmsis/device/stm32f4xx_rtc.c ****   */
2235:cmsis/device/stm32f4xx_rtc.c **** void RTC_TamperPullUpCmd(FunctionalState NewState)
2236:cmsis/device/stm32f4xx_rtc.c **** {
2237:cmsis/device/stm32f4xx_rtc.c ****   /* Check the parameters */
2238:cmsis/device/stm32f4xx_rtc.c ****   assert_param(IS_FUNCTIONAL_STATE(NewState));
2239:cmsis/device/stm32f4xx_rtc.c ****   
2240:cmsis/device/stm32f4xx_rtc.c ****  if (NewState != DISABLE)
2241:cmsis/device/stm32f4xx_rtc.c ****   {
2242:cmsis/device/stm32f4xx_rtc.c ****     /* Enable precharge of the selected Tamper pin */
2243:cmsis/device/stm32f4xx_rtc.c ****     RTC->TAFCR &= (uint32_t)~RTC_TAFCR_TAMPPUDIS; 
2244:cmsis/device/stm32f4xx_rtc.c ****   }
2245:cmsis/device/stm32f4xx_rtc.c ****   else
2246:cmsis/device/stm32f4xx_rtc.c ****   {
2247:cmsis/device/stm32f4xx_rtc.c ****     /* Disable precharge of the selected Tamper pin */
2248:cmsis/device/stm32f4xx_rtc.c ****     RTC->TAFCR |= (uint32_t)RTC_TAFCR_TAMPPUDIS;    
2249:cmsis/device/stm32f4xx_rtc.c ****   } 
2250:cmsis/device/stm32f4xx_rtc.c **** }
ARM GAS  C:\Users\CNous\AppData\Local\Temp\ccCDm0MK.s 			page 54


2251:cmsis/device/stm32f4xx_rtc.c **** 
2252:cmsis/device/stm32f4xx_rtc.c **** /**
2253:cmsis/device/stm32f4xx_rtc.c ****   * @}
2254:cmsis/device/stm32f4xx_rtc.c ****   */
2255:cmsis/device/stm32f4xx_rtc.c **** 
2256:cmsis/device/stm32f4xx_rtc.c **** /** @defgroup RTC_Group10 Backup Data Registers configuration functions
2257:cmsis/device/stm32f4xx_rtc.c ****  *  @brief   Backup Data Registers configuration functions  
2258:cmsis/device/stm32f4xx_rtc.c ****  *
2259:cmsis/device/stm32f4xx_rtc.c **** @verbatim   
2260:cmsis/device/stm32f4xx_rtc.c ****  ===============================================================================
2261:cmsis/device/stm32f4xx_rtc.c ****                        Backup Data Registers configuration functions 
2262:cmsis/device/stm32f4xx_rtc.c ****  ===============================================================================  
2263:cmsis/device/stm32f4xx_rtc.c **** 
2264:cmsis/device/stm32f4xx_rtc.c **** @endverbatim
2265:cmsis/device/stm32f4xx_rtc.c ****   * @{
2266:cmsis/device/stm32f4xx_rtc.c ****   */
2267:cmsis/device/stm32f4xx_rtc.c **** 
2268:cmsis/device/stm32f4xx_rtc.c **** /**
2269:cmsis/device/stm32f4xx_rtc.c ****   * @brief  Writes a data in a specified RTC Backup data register.
2270:cmsis/device/stm32f4xx_rtc.c ****   * @param  RTC_BKP_DR: RTC Backup data Register number.
2271:cmsis/device/stm32f4xx_rtc.c ****   *          This parameter can be: RTC_BKP_DRx where x can be from 0 to 19 to 
2272:cmsis/device/stm32f4xx_rtc.c ****   *                          specify the register.
2273:cmsis/device/stm32f4xx_rtc.c ****   * @param  Data: Data to be written in the specified RTC Backup data register.                    
2274:cmsis/device/stm32f4xx_rtc.c ****   * @retval None
2275:cmsis/device/stm32f4xx_rtc.c ****   */
2276:cmsis/device/stm32f4xx_rtc.c **** void RTC_WriteBackupRegister(uint32_t RTC_BKP_DR, uint32_t Data)
2277:cmsis/device/stm32f4xx_rtc.c **** {
2278:cmsis/device/stm32f4xx_rtc.c ****   __IO uint32_t tmp = 0;
2279:cmsis/device/stm32f4xx_rtc.c ****   
2280:cmsis/device/stm32f4xx_rtc.c ****   /* Check the parameters */
2281:cmsis/device/stm32f4xx_rtc.c ****   assert_param(IS_RTC_BKP(RTC_BKP_DR));
2282:cmsis/device/stm32f4xx_rtc.c **** 
2283:cmsis/device/stm32f4xx_rtc.c ****   tmp = RTC_BASE + 0x50;
2284:cmsis/device/stm32f4xx_rtc.c ****   tmp += (RTC_BKP_DR * 4);
2285:cmsis/device/stm32f4xx_rtc.c **** 
2286:cmsis/device/stm32f4xx_rtc.c ****   /* Write the specified register */
2287:cmsis/device/stm32f4xx_rtc.c ****   *(__IO uint32_t *)tmp = (uint32_t)Data;
2288:cmsis/device/stm32f4xx_rtc.c **** }
2289:cmsis/device/stm32f4xx_rtc.c **** 
2290:cmsis/device/stm32f4xx_rtc.c **** /**
2291:cmsis/device/stm32f4xx_rtc.c ****   * @brief  Reads data from the specified RTC Backup data Register.
2292:cmsis/device/stm32f4xx_rtc.c ****   * @param  RTC_BKP_DR: RTC Backup data Register number.
2293:cmsis/device/stm32f4xx_rtc.c ****   *          This parameter can be: RTC_BKP_DRx where x can be from 0 to 19 to 
2294:cmsis/device/stm32f4xx_rtc.c ****   *                          specify the register.                   
2295:cmsis/device/stm32f4xx_rtc.c ****   * @retval None
2296:cmsis/device/stm32f4xx_rtc.c ****   */
2297:cmsis/device/stm32f4xx_rtc.c **** uint32_t RTC_ReadBackupRegister(uint32_t RTC_BKP_DR)
2298:cmsis/device/stm32f4xx_rtc.c **** {
2299:cmsis/device/stm32f4xx_rtc.c ****   __IO uint32_t tmp = 0;
2300:cmsis/device/stm32f4xx_rtc.c ****   
2301:cmsis/device/stm32f4xx_rtc.c ****   /* Check the parameters */
2302:cmsis/device/stm32f4xx_rtc.c ****   assert_param(IS_RTC_BKP(RTC_BKP_DR));
2303:cmsis/device/stm32f4xx_rtc.c **** 
2304:cmsis/device/stm32f4xx_rtc.c ****   tmp = RTC_BASE + 0x50;
2305:cmsis/device/stm32f4xx_rtc.c ****   tmp += (RTC_BKP_DR * 4);
2306:cmsis/device/stm32f4xx_rtc.c ****   
2307:cmsis/device/stm32f4xx_rtc.c ****   /* Read the specified register */
ARM GAS  C:\Users\CNous\AppData\Local\Temp\ccCDm0MK.s 			page 55


2308:cmsis/device/stm32f4xx_rtc.c ****   return (*(__IO uint32_t *)tmp);
2309:cmsis/device/stm32f4xx_rtc.c **** }
2310:cmsis/device/stm32f4xx_rtc.c **** 
2311:cmsis/device/stm32f4xx_rtc.c **** /**
2312:cmsis/device/stm32f4xx_rtc.c ****   * @}
2313:cmsis/device/stm32f4xx_rtc.c ****   */
2314:cmsis/device/stm32f4xx_rtc.c **** 
2315:cmsis/device/stm32f4xx_rtc.c **** /** @defgroup RTC_Group11 RTC Tamper and TimeStamp Pins Selection and Output Type Config configurat
2316:cmsis/device/stm32f4xx_rtc.c ****  *  @brief   RTC Tamper and TimeStamp Pins Selection and Output Type Config 
2317:cmsis/device/stm32f4xx_rtc.c ****  *           configuration functions  
2318:cmsis/device/stm32f4xx_rtc.c ****  *
2319:cmsis/device/stm32f4xx_rtc.c **** @verbatim   
2320:cmsis/device/stm32f4xx_rtc.c ****  ===============================================================================
2321:cmsis/device/stm32f4xx_rtc.c ****   RTC Tamper and TimeStamp Pins Selection and Output Type Config configuration 
2322:cmsis/device/stm32f4xx_rtc.c ****   functions 
2323:cmsis/device/stm32f4xx_rtc.c ****  ===============================================================================  
2324:cmsis/device/stm32f4xx_rtc.c **** 
2325:cmsis/device/stm32f4xx_rtc.c **** @endverbatim
2326:cmsis/device/stm32f4xx_rtc.c ****   * @{
2327:cmsis/device/stm32f4xx_rtc.c ****   */
2328:cmsis/device/stm32f4xx_rtc.c **** 
2329:cmsis/device/stm32f4xx_rtc.c **** /**
2330:cmsis/device/stm32f4xx_rtc.c ****   * @brief  Selects the RTC Tamper Pin.
2331:cmsis/device/stm32f4xx_rtc.c ****   * @param  RTC_TamperPin: specifies the RTC Tamper Pin.
2332:cmsis/device/stm32f4xx_rtc.c ****   *          This parameter can be one of the following values:
2333:cmsis/device/stm32f4xx_rtc.c ****   *            @arg RTC_TamperPin_PC13: PC13 is selected as RTC Tamper Pin.
2334:cmsis/device/stm32f4xx_rtc.c ****   *            @arg RTC_TamperPin_PI8: PI8 is selected as RTC Tamper Pin.    
2335:cmsis/device/stm32f4xx_rtc.c ****   * @retval None
2336:cmsis/device/stm32f4xx_rtc.c ****   */
2337:cmsis/device/stm32f4xx_rtc.c **** void RTC_TamperPinSelection(uint32_t RTC_TamperPin)
2338:cmsis/device/stm32f4xx_rtc.c **** {
2339:cmsis/device/stm32f4xx_rtc.c ****   /* Check the parameters */
2340:cmsis/device/stm32f4xx_rtc.c ****   assert_param(IS_RTC_TAMPER_PIN(RTC_TamperPin));
2341:cmsis/device/stm32f4xx_rtc.c ****   
2342:cmsis/device/stm32f4xx_rtc.c ****   RTC->TAFCR &= (uint32_t)~(RTC_TAFCR_TAMPINSEL);
2343:cmsis/device/stm32f4xx_rtc.c ****   RTC->TAFCR |= (uint32_t)(RTC_TamperPin);  
2344:cmsis/device/stm32f4xx_rtc.c **** }
2345:cmsis/device/stm32f4xx_rtc.c **** 
2346:cmsis/device/stm32f4xx_rtc.c **** /**
2347:cmsis/device/stm32f4xx_rtc.c ****   * @brief  Selects the RTC TimeStamp Pin.
2348:cmsis/device/stm32f4xx_rtc.c ****   * @param  RTC_TimeStampPin: specifies the RTC TimeStamp Pin.
2349:cmsis/device/stm32f4xx_rtc.c ****   *          This parameter can be one of the following values:
2350:cmsis/device/stm32f4xx_rtc.c ****   *            @arg RTC_TimeStampPin_PC13: PC13 is selected as RTC TimeStamp Pin.
2351:cmsis/device/stm32f4xx_rtc.c ****   *            @arg RTC_TimeStampPin_PI8: PI8 is selected as RTC TimeStamp Pin.    
2352:cmsis/device/stm32f4xx_rtc.c ****   * @retval None
2353:cmsis/device/stm32f4xx_rtc.c ****   */
2354:cmsis/device/stm32f4xx_rtc.c **** void RTC_TimeStampPinSelection(uint32_t RTC_TimeStampPin)
2355:cmsis/device/stm32f4xx_rtc.c **** {
2356:cmsis/device/stm32f4xx_rtc.c ****   /* Check the parameters */
2357:cmsis/device/stm32f4xx_rtc.c ****   assert_param(IS_RTC_TIMESTAMP_PIN(RTC_TimeStampPin));
2358:cmsis/device/stm32f4xx_rtc.c ****   
2359:cmsis/device/stm32f4xx_rtc.c ****   RTC->TAFCR &= (uint32_t)~(RTC_TAFCR_TSINSEL);
2360:cmsis/device/stm32f4xx_rtc.c ****   RTC->TAFCR |= (uint32_t)(RTC_TimeStampPin);  
2361:cmsis/device/stm32f4xx_rtc.c **** }
2362:cmsis/device/stm32f4xx_rtc.c **** 
2363:cmsis/device/stm32f4xx_rtc.c **** /**
2364:cmsis/device/stm32f4xx_rtc.c ****   * @brief  Configures the RTC Output Pin mode. 
ARM GAS  C:\Users\CNous\AppData\Local\Temp\ccCDm0MK.s 			page 56


2365:cmsis/device/stm32f4xx_rtc.c ****   * @param  RTC_OutputType: specifies the RTC Output (PC13) pin mode.
2366:cmsis/device/stm32f4xx_rtc.c ****   *          This parameter can be one of the following values:
2367:cmsis/device/stm32f4xx_rtc.c ****   *            @arg RTC_OutputType_OpenDrain: RTC Output (PC13) is configured in 
2368:cmsis/device/stm32f4xx_rtc.c ****   *                                    Open Drain mode.
2369:cmsis/device/stm32f4xx_rtc.c ****   *            @arg RTC_OutputType_PushPull:  RTC Output (PC13) is configured in 
2370:cmsis/device/stm32f4xx_rtc.c ****   *                                    Push Pull mode.    
2371:cmsis/device/stm32f4xx_rtc.c ****   * @retval None
2372:cmsis/device/stm32f4xx_rtc.c ****   */
2373:cmsis/device/stm32f4xx_rtc.c **** void RTC_OutputTypeConfig(uint32_t RTC_OutputType)
2374:cmsis/device/stm32f4xx_rtc.c **** {
2375:cmsis/device/stm32f4xx_rtc.c ****   /* Check the parameters */
2376:cmsis/device/stm32f4xx_rtc.c ****   assert_param(IS_RTC_OUTPUT_TYPE(RTC_OutputType));
2377:cmsis/device/stm32f4xx_rtc.c ****   
2378:cmsis/device/stm32f4xx_rtc.c ****   RTC->TAFCR &= (uint32_t)~(RTC_TAFCR_ALARMOUTTYPE);
2379:cmsis/device/stm32f4xx_rtc.c ****   RTC->TAFCR |= (uint32_t)(RTC_OutputType);  
2380:cmsis/device/stm32f4xx_rtc.c **** }
2381:cmsis/device/stm32f4xx_rtc.c **** 
2382:cmsis/device/stm32f4xx_rtc.c **** /**
2383:cmsis/device/stm32f4xx_rtc.c ****   * @}
2384:cmsis/device/stm32f4xx_rtc.c ****   */
2385:cmsis/device/stm32f4xx_rtc.c **** 
2386:cmsis/device/stm32f4xx_rtc.c **** /** @defgroup RTC_Group12 Shift control synchronisation functions
2387:cmsis/device/stm32f4xx_rtc.c ****  *  @brief   Shift control synchronisation functions 
2388:cmsis/device/stm32f4xx_rtc.c ****  *
2389:cmsis/device/stm32f4xx_rtc.c **** @verbatim   
2390:cmsis/device/stm32f4xx_rtc.c ****  ===============================================================================
2391:cmsis/device/stm32f4xx_rtc.c ****                    Shift control synchronisation functions
2392:cmsis/device/stm32f4xx_rtc.c ****  ===============================================================================  
2393:cmsis/device/stm32f4xx_rtc.c **** 
2394:cmsis/device/stm32f4xx_rtc.c **** @endverbatim
2395:cmsis/device/stm32f4xx_rtc.c ****   * @{
2396:cmsis/device/stm32f4xx_rtc.c ****   */
2397:cmsis/device/stm32f4xx_rtc.c **** 
2398:cmsis/device/stm32f4xx_rtc.c **** /**
2399:cmsis/device/stm32f4xx_rtc.c ****   * @brief  Configures the Synchronization Shift Control Settings.
2400:cmsis/device/stm32f4xx_rtc.c ****   * @note   When REFCKON is set, firmware must not write to Shift control register 
2401:cmsis/device/stm32f4xx_rtc.c ****   * @param  RTC_ShiftAdd1S : Select to add or not 1 second to the time Calendar.
2402:cmsis/device/stm32f4xx_rtc.c ****   *   This parameter can be one of the following values :
2403:cmsis/device/stm32f4xx_rtc.c ****   *     @arg RTC_ShiftAdd1S_Set  : Add one second to the clock calendar. 
2404:cmsis/device/stm32f4xx_rtc.c ****   *     @arg RTC_ShiftAdd1S_Reset: No effect.
2405:cmsis/device/stm32f4xx_rtc.c ****   * @param  RTC_ShiftSubFS: Select the number of Second Fractions to Substitute.
2406:cmsis/device/stm32f4xx_rtc.c ****   *         This parameter can be one any value from 0 to 0x7FFF.
2407:cmsis/device/stm32f4xx_rtc.c ****   * @retval An ErrorStatus enumeration value:
2408:cmsis/device/stm32f4xx_rtc.c ****   *          - SUCCESS: RTC Shift registers are configured
2409:cmsis/device/stm32f4xx_rtc.c ****   *          - ERROR: RTC Shift registers are not configured
2410:cmsis/device/stm32f4xx_rtc.c **** */
2411:cmsis/device/stm32f4xx_rtc.c **** ErrorStatus RTC_SynchroShiftConfig(uint32_t RTC_ShiftAdd1S, uint32_t RTC_ShiftSubFS)
2412:cmsis/device/stm32f4xx_rtc.c **** {
2413:cmsis/device/stm32f4xx_rtc.c ****   ErrorStatus status = ERROR;
2414:cmsis/device/stm32f4xx_rtc.c ****   uint32_t shpfcount = 0;
2415:cmsis/device/stm32f4xx_rtc.c **** 
2416:cmsis/device/stm32f4xx_rtc.c ****   /* Check the parameters */
2417:cmsis/device/stm32f4xx_rtc.c ****   assert_param(IS_RTC_SHIFT_ADD1S(RTC_ShiftAdd1S));
2418:cmsis/device/stm32f4xx_rtc.c ****   assert_param(IS_RTC_SHIFT_SUBFS(RTC_ShiftSubFS));
2419:cmsis/device/stm32f4xx_rtc.c **** 
2420:cmsis/device/stm32f4xx_rtc.c ****   /* Disable the write protection for RTC registers */
2421:cmsis/device/stm32f4xx_rtc.c ****   RTC->WPR = 0xCA;
ARM GAS  C:\Users\CNous\AppData\Local\Temp\ccCDm0MK.s 			page 57


2422:cmsis/device/stm32f4xx_rtc.c ****   RTC->WPR = 0x53;
2423:cmsis/device/stm32f4xx_rtc.c ****   
2424:cmsis/device/stm32f4xx_rtc.c ****   /* Check if a Shift is pending*/
2425:cmsis/device/stm32f4xx_rtc.c ****   if ((RTC->ISR & RTC_ISR_SHPF) != RESET)
2426:cmsis/device/stm32f4xx_rtc.c ****   {
2427:cmsis/device/stm32f4xx_rtc.c ****     /* Wait until the shift is completed*/
2428:cmsis/device/stm32f4xx_rtc.c ****     while (((RTC->ISR & RTC_ISR_SHPF) != RESET) && (shpfcount != SHPF_TIMEOUT))
2429:cmsis/device/stm32f4xx_rtc.c ****     {
2430:cmsis/device/stm32f4xx_rtc.c ****       shpfcount++;
2431:cmsis/device/stm32f4xx_rtc.c ****     }
2432:cmsis/device/stm32f4xx_rtc.c ****   }
2433:cmsis/device/stm32f4xx_rtc.c **** 
2434:cmsis/device/stm32f4xx_rtc.c ****   /* Check if the Shift pending is completed or if there is no Shift operation at all*/
2435:cmsis/device/stm32f4xx_rtc.c ****   if ((RTC->ISR & RTC_ISR_SHPF) == RESET)
2436:cmsis/device/stm32f4xx_rtc.c ****   {
2437:cmsis/device/stm32f4xx_rtc.c ****     /* check if the reference clock detection is disabled */
2438:cmsis/device/stm32f4xx_rtc.c ****     if((RTC->CR & RTC_CR_REFCKON) == RESET)
2439:cmsis/device/stm32f4xx_rtc.c ****     {
2440:cmsis/device/stm32f4xx_rtc.c ****       /* Configure the Shift settings */
2441:cmsis/device/stm32f4xx_rtc.c ****       RTC->SHIFTR = (uint32_t)(uint32_t)(RTC_ShiftSubFS) | (uint32_t)(RTC_ShiftAdd1S);
2442:cmsis/device/stm32f4xx_rtc.c ****     
2443:cmsis/device/stm32f4xx_rtc.c ****       if(RTC_WaitForSynchro() == ERROR)
2444:cmsis/device/stm32f4xx_rtc.c ****       {
2445:cmsis/device/stm32f4xx_rtc.c ****         status = ERROR;
2446:cmsis/device/stm32f4xx_rtc.c ****       }
2447:cmsis/device/stm32f4xx_rtc.c ****       else
2448:cmsis/device/stm32f4xx_rtc.c ****       {
2449:cmsis/device/stm32f4xx_rtc.c ****         status = SUCCESS;
2450:cmsis/device/stm32f4xx_rtc.c ****       }
2451:cmsis/device/stm32f4xx_rtc.c ****     }
2452:cmsis/device/stm32f4xx_rtc.c ****     else
2453:cmsis/device/stm32f4xx_rtc.c ****     {
2454:cmsis/device/stm32f4xx_rtc.c ****       status = ERROR;
2455:cmsis/device/stm32f4xx_rtc.c ****     }
2456:cmsis/device/stm32f4xx_rtc.c ****   }
2457:cmsis/device/stm32f4xx_rtc.c ****   else
2458:cmsis/device/stm32f4xx_rtc.c ****   {
2459:cmsis/device/stm32f4xx_rtc.c ****     status = ERROR;
2460:cmsis/device/stm32f4xx_rtc.c ****   }
2461:cmsis/device/stm32f4xx_rtc.c **** 
2462:cmsis/device/stm32f4xx_rtc.c ****   /* Enable the write protection for RTC registers */
2463:cmsis/device/stm32f4xx_rtc.c ****   RTC->WPR = 0xFF;
2464:cmsis/device/stm32f4xx_rtc.c ****   
2465:cmsis/device/stm32f4xx_rtc.c ****   return (ErrorStatus)(status);
2466:cmsis/device/stm32f4xx_rtc.c **** }
2467:cmsis/device/stm32f4xx_rtc.c **** 
2468:cmsis/device/stm32f4xx_rtc.c **** /**
2469:cmsis/device/stm32f4xx_rtc.c ****   * @}
2470:cmsis/device/stm32f4xx_rtc.c ****   */
2471:cmsis/device/stm32f4xx_rtc.c **** 
2472:cmsis/device/stm32f4xx_rtc.c **** /** @defgroup RTC_Group13 Interrupts and flags management functions
2473:cmsis/device/stm32f4xx_rtc.c ****  *  @brief   Interrupts and flags management functions  
2474:cmsis/device/stm32f4xx_rtc.c ****  *
2475:cmsis/device/stm32f4xx_rtc.c **** @verbatim   
2476:cmsis/device/stm32f4xx_rtc.c ****  ===============================================================================
2477:cmsis/device/stm32f4xx_rtc.c ****                        Interrupts and flags management functions
2478:cmsis/device/stm32f4xx_rtc.c ****  ===============================================================================  
ARM GAS  C:\Users\CNous\AppData\Local\Temp\ccCDm0MK.s 			page 58


2479:cmsis/device/stm32f4xx_rtc.c ****  All RTC interrupts are connected to the EXTI controller.
2480:cmsis/device/stm32f4xx_rtc.c ****  
2481:cmsis/device/stm32f4xx_rtc.c ****  - To enable the RTC Alarm interrupt, the following sequence is required:
2482:cmsis/device/stm32f4xx_rtc.c ****    - Configure and enable the EXTI Line 17 in interrupt mode and select the rising 
2483:cmsis/device/stm32f4xx_rtc.c ****      edge sensitivity using the EXTI_Init() function.
2484:cmsis/device/stm32f4xx_rtc.c ****    - Configure and enable the RTC_Alarm IRQ channel in the NVIC using the NVIC_Init()
2485:cmsis/device/stm32f4xx_rtc.c ****      function.
2486:cmsis/device/stm32f4xx_rtc.c ****    - Configure the RTC to generate RTC alarms (Alarm A and/or Alarm B) using
2487:cmsis/device/stm32f4xx_rtc.c ****      the RTC_SetAlarm() and RTC_AlarmCmd() functions.
2488:cmsis/device/stm32f4xx_rtc.c **** 
2489:cmsis/device/stm32f4xx_rtc.c ****  - To enable the RTC Wakeup interrupt, the following sequence is required:
2490:cmsis/device/stm32f4xx_rtc.c ****    - Configure and enable the EXTI Line 22 in interrupt mode and select the rising 
2491:cmsis/device/stm32f4xx_rtc.c ****      edge sensitivity using the EXTI_Init() function.
2492:cmsis/device/stm32f4xx_rtc.c ****    - Configure and enable the RTC_WKUP IRQ channel in the NVIC using the NVIC_Init()
2493:cmsis/device/stm32f4xx_rtc.c ****      function.
2494:cmsis/device/stm32f4xx_rtc.c ****    - Configure the RTC to generate the RTC wakeup timer event using the 
2495:cmsis/device/stm32f4xx_rtc.c ****      RTC_WakeUpClockConfig(), RTC_SetWakeUpCounter() and RTC_WakeUpCmd() functions.
2496:cmsis/device/stm32f4xx_rtc.c **** 
2497:cmsis/device/stm32f4xx_rtc.c ****  - To enable the RTC Tamper interrupt, the following sequence is required:
2498:cmsis/device/stm32f4xx_rtc.c ****    - Configure and enable the EXTI Line 21 in interrupt mode and select the rising 
2499:cmsis/device/stm32f4xx_rtc.c ****      edge sensitivity using the EXTI_Init() function.
2500:cmsis/device/stm32f4xx_rtc.c ****    - Configure and enable the TAMP_STAMP IRQ channel in the NVIC using the NVIC_Init()
2501:cmsis/device/stm32f4xx_rtc.c ****      function.
2502:cmsis/device/stm32f4xx_rtc.c ****    - Configure the RTC to detect the RTC tamper event using the 
2503:cmsis/device/stm32f4xx_rtc.c ****      RTC_TamperTriggerConfig() and RTC_TamperCmd() functions.
2504:cmsis/device/stm32f4xx_rtc.c **** 
2505:cmsis/device/stm32f4xx_rtc.c ****  - To enable the RTC TimeStamp interrupt, the following sequence is required:
2506:cmsis/device/stm32f4xx_rtc.c ****    - Configure and enable the EXTI Line 21 in interrupt mode and select the rising 
2507:cmsis/device/stm32f4xx_rtc.c ****      edge sensitivity using the EXTI_Init() function.
2508:cmsis/device/stm32f4xx_rtc.c ****    - Configure and enable the TAMP_STAMP IRQ channel in the NVIC using the NVIC_Init()
2509:cmsis/device/stm32f4xx_rtc.c ****      function.
2510:cmsis/device/stm32f4xx_rtc.c ****    - Configure the RTC to detect the RTC time-stamp event using the 
2511:cmsis/device/stm32f4xx_rtc.c ****      RTC_TimeStampCmd() functions.
2512:cmsis/device/stm32f4xx_rtc.c **** 
2513:cmsis/device/stm32f4xx_rtc.c **** @endverbatim
2514:cmsis/device/stm32f4xx_rtc.c ****   * @{
2515:cmsis/device/stm32f4xx_rtc.c ****   */
2516:cmsis/device/stm32f4xx_rtc.c **** 
2517:cmsis/device/stm32f4xx_rtc.c **** /**
2518:cmsis/device/stm32f4xx_rtc.c ****   * @brief  Enables or disables the specified RTC interrupts.
2519:cmsis/device/stm32f4xx_rtc.c ****   * @param  RTC_IT: specifies the RTC interrupt sources to be enabled or disabled. 
2520:cmsis/device/stm32f4xx_rtc.c ****   *          This parameter can be any combination of the following values:
2521:cmsis/device/stm32f4xx_rtc.c ****   *            @arg RTC_IT_TS:  Time Stamp interrupt mask
2522:cmsis/device/stm32f4xx_rtc.c ****   *            @arg RTC_IT_WUT:  WakeUp Timer interrupt mask
2523:cmsis/device/stm32f4xx_rtc.c ****   *            @arg RTC_IT_ALRB:  Alarm B interrupt mask
2524:cmsis/device/stm32f4xx_rtc.c ****   *            @arg RTC_IT_ALRA:  Alarm A interrupt mask
2525:cmsis/device/stm32f4xx_rtc.c ****   *            @arg RTC_IT_TAMP: Tamper event interrupt mask
2526:cmsis/device/stm32f4xx_rtc.c ****   * @param  NewState: new state of the specified RTC interrupts.
2527:cmsis/device/stm32f4xx_rtc.c ****   *          This parameter can be: ENABLE or DISABLE.
2528:cmsis/device/stm32f4xx_rtc.c ****   * @retval None
2529:cmsis/device/stm32f4xx_rtc.c ****   */
2530:cmsis/device/stm32f4xx_rtc.c **** void RTC_ITConfig(uint32_t RTC_IT, FunctionalState NewState)
2531:cmsis/device/stm32f4xx_rtc.c **** {
2532:cmsis/device/stm32f4xx_rtc.c ****   /* Check the parameters */
2533:cmsis/device/stm32f4xx_rtc.c ****   assert_param(IS_RTC_CONFIG_IT(RTC_IT));
2534:cmsis/device/stm32f4xx_rtc.c ****   assert_param(IS_FUNCTIONAL_STATE(NewState));
2535:cmsis/device/stm32f4xx_rtc.c **** 
ARM GAS  C:\Users\CNous\AppData\Local\Temp\ccCDm0MK.s 			page 59


2536:cmsis/device/stm32f4xx_rtc.c ****   /* Disable the write protection for RTC registers */
2537:cmsis/device/stm32f4xx_rtc.c ****   RTC->WPR = 0xCA;
2538:cmsis/device/stm32f4xx_rtc.c ****   RTC->WPR = 0x53;
2539:cmsis/device/stm32f4xx_rtc.c **** 
2540:cmsis/device/stm32f4xx_rtc.c ****   if (NewState != DISABLE)
2541:cmsis/device/stm32f4xx_rtc.c ****   {
2542:cmsis/device/stm32f4xx_rtc.c ****     /* Configure the Interrupts in the RTC_CR register */
2543:cmsis/device/stm32f4xx_rtc.c ****     RTC->CR |= (uint32_t)(RTC_IT & ~RTC_TAFCR_TAMPIE);
2544:cmsis/device/stm32f4xx_rtc.c ****     /* Configure the Tamper Interrupt in the RTC_TAFCR */
2545:cmsis/device/stm32f4xx_rtc.c ****     RTC->TAFCR |= (uint32_t)(RTC_IT & RTC_TAFCR_TAMPIE);
2546:cmsis/device/stm32f4xx_rtc.c ****   }
2547:cmsis/device/stm32f4xx_rtc.c ****   else
2548:cmsis/device/stm32f4xx_rtc.c ****   {
2549:cmsis/device/stm32f4xx_rtc.c ****     /* Configure the Interrupts in the RTC_CR register */
2550:cmsis/device/stm32f4xx_rtc.c ****     RTC->CR &= (uint32_t)~(RTC_IT & (uint32_t)~RTC_TAFCR_TAMPIE);
2551:cmsis/device/stm32f4xx_rtc.c ****     /* Configure the Tamper Interrupt in the RTC_TAFCR */
2552:cmsis/device/stm32f4xx_rtc.c ****     RTC->TAFCR &= (uint32_t)~(RTC_IT & RTC_TAFCR_TAMPIE);
2553:cmsis/device/stm32f4xx_rtc.c ****   }
2554:cmsis/device/stm32f4xx_rtc.c ****   /* Enable the write protection for RTC registers */
2555:cmsis/device/stm32f4xx_rtc.c ****   RTC->WPR = 0xFF; 
2556:cmsis/device/stm32f4xx_rtc.c **** }
2557:cmsis/device/stm32f4xx_rtc.c **** 
2558:cmsis/device/stm32f4xx_rtc.c **** /**
2559:cmsis/device/stm32f4xx_rtc.c ****   * @brief  Checks whether the specified RTC flag is set or not.
2560:cmsis/device/stm32f4xx_rtc.c ****   * @param  RTC_FLAG: specifies the flag to check.
2561:cmsis/device/stm32f4xx_rtc.c ****   *          This parameter can be one of the following values:
2562:cmsis/device/stm32f4xx_rtc.c ****   *            @arg RTC_FLAG_TAMP1F: Tamper 1 event flag
2563:cmsis/device/stm32f4xx_rtc.c ****   *            @arg RTC_FLAG_TSOVF: Time Stamp OverFlow flag
2564:cmsis/device/stm32f4xx_rtc.c ****   *            @arg RTC_FLAG_TSF: Time Stamp event flag
2565:cmsis/device/stm32f4xx_rtc.c ****   *            @arg RTC_FLAG_WUTF: WakeUp Timer flag
2566:cmsis/device/stm32f4xx_rtc.c ****   *            @arg RTC_FLAG_ALRBF: Alarm B flag
2567:cmsis/device/stm32f4xx_rtc.c ****   *            @arg RTC_FLAG_ALRAF: Alarm A flag
2568:cmsis/device/stm32f4xx_rtc.c ****   *            @arg RTC_FLAG_INITF: Initialization mode flag
2569:cmsis/device/stm32f4xx_rtc.c ****   *            @arg RTC_FLAG_RSF: Registers Synchronized flag
2570:cmsis/device/stm32f4xx_rtc.c ****   *            @arg RTC_FLAG_INITS: Registers Configured flag
2571:cmsis/device/stm32f4xx_rtc.c ****   *            @arg RTC_FLAG_WUTWF: WakeUp Timer Write flag
2572:cmsis/device/stm32f4xx_rtc.c ****   *            @arg RTC_FLAG_ALRBWF: Alarm B Write flag
2573:cmsis/device/stm32f4xx_rtc.c ****   *            @arg RTC_FLAG_ALRAWF: Alarm A write flag
2574:cmsis/device/stm32f4xx_rtc.c ****   * @retval The new state of RTC_FLAG (SET or RESET).
2575:cmsis/device/stm32f4xx_rtc.c ****   */
2576:cmsis/device/stm32f4xx_rtc.c **** FlagStatus RTC_GetFlagStatus(uint32_t RTC_FLAG)
2577:cmsis/device/stm32f4xx_rtc.c **** {
2578:cmsis/device/stm32f4xx_rtc.c ****   FlagStatus bitstatus = RESET;
2579:cmsis/device/stm32f4xx_rtc.c ****   uint32_t tmpreg = 0;
2580:cmsis/device/stm32f4xx_rtc.c ****   
2581:cmsis/device/stm32f4xx_rtc.c ****   /* Check the parameters */
2582:cmsis/device/stm32f4xx_rtc.c ****   assert_param(IS_RTC_GET_FLAG(RTC_FLAG));
2583:cmsis/device/stm32f4xx_rtc.c ****   
2584:cmsis/device/stm32f4xx_rtc.c ****   /* Get all the flags */
2585:cmsis/device/stm32f4xx_rtc.c ****   tmpreg = (uint32_t)(RTC->ISR & RTC_FLAGS_MASK);
2586:cmsis/device/stm32f4xx_rtc.c ****   
2587:cmsis/device/stm32f4xx_rtc.c ****   /* Return the status of the flag */
2588:cmsis/device/stm32f4xx_rtc.c ****   if ((tmpreg & RTC_FLAG) != (uint32_t)RESET)
2589:cmsis/device/stm32f4xx_rtc.c ****   {
2590:cmsis/device/stm32f4xx_rtc.c ****     bitstatus = SET;
2591:cmsis/device/stm32f4xx_rtc.c ****   }
2592:cmsis/device/stm32f4xx_rtc.c ****   else
ARM GAS  C:\Users\CNous\AppData\Local\Temp\ccCDm0MK.s 			page 60


2593:cmsis/device/stm32f4xx_rtc.c ****   {
2594:cmsis/device/stm32f4xx_rtc.c ****     bitstatus = RESET;
2595:cmsis/device/stm32f4xx_rtc.c ****   }
2596:cmsis/device/stm32f4xx_rtc.c ****   return bitstatus;
2597:cmsis/device/stm32f4xx_rtc.c **** }
2598:cmsis/device/stm32f4xx_rtc.c **** 
2599:cmsis/device/stm32f4xx_rtc.c **** /**
2600:cmsis/device/stm32f4xx_rtc.c ****   * @brief  Clears the RTC's pending flags.
2601:cmsis/device/stm32f4xx_rtc.c ****   * @param  RTC_FLAG: specifies the RTC flag to clear.
2602:cmsis/device/stm32f4xx_rtc.c ****   *          This parameter can be any combination of the following values:
2603:cmsis/device/stm32f4xx_rtc.c ****   *            @arg RTC_FLAG_TAMP1F: Tamper 1 event flag
2604:cmsis/device/stm32f4xx_rtc.c ****   *            @arg RTC_FLAG_TSOVF: Time Stamp Overflow flag 
2605:cmsis/device/stm32f4xx_rtc.c ****   *            @arg RTC_FLAG_TSF: Time Stamp event flag
2606:cmsis/device/stm32f4xx_rtc.c ****   *            @arg RTC_FLAG_WUTF: WakeUp Timer flag
2607:cmsis/device/stm32f4xx_rtc.c ****   *            @arg RTC_FLAG_ALRBF: Alarm B flag
2608:cmsis/device/stm32f4xx_rtc.c ****   *            @arg RTC_FLAG_ALRAF: Alarm A flag
2609:cmsis/device/stm32f4xx_rtc.c ****   *            @arg RTC_FLAG_RSF: Registers Synchronized flag
2610:cmsis/device/stm32f4xx_rtc.c ****   * @retval None
2611:cmsis/device/stm32f4xx_rtc.c ****   */
2612:cmsis/device/stm32f4xx_rtc.c **** void RTC_ClearFlag(uint32_t RTC_FLAG)
2613:cmsis/device/stm32f4xx_rtc.c **** {
2614:cmsis/device/stm32f4xx_rtc.c ****   /* Check the parameters */
2615:cmsis/device/stm32f4xx_rtc.c ****   assert_param(IS_RTC_CLEAR_FLAG(RTC_FLAG));
2616:cmsis/device/stm32f4xx_rtc.c **** 
2617:cmsis/device/stm32f4xx_rtc.c ****   /* Clear the Flags in the RTC_ISR register */
2618:cmsis/device/stm32f4xx_rtc.c ****   RTC->ISR = (uint32_t)((uint32_t)(~((RTC_FLAG | RTC_ISR_INIT)& 0x0000FFFF) | (uint32_t)(RTC->ISR &
2619:cmsis/device/stm32f4xx_rtc.c **** }
2620:cmsis/device/stm32f4xx_rtc.c **** 
2621:cmsis/device/stm32f4xx_rtc.c **** /**
2622:cmsis/device/stm32f4xx_rtc.c ****   * @brief  Checks whether the specified RTC interrupt has occurred or not.
2623:cmsis/device/stm32f4xx_rtc.c ****   * @param  RTC_IT: specifies the RTC interrupt source to check.
2624:cmsis/device/stm32f4xx_rtc.c ****   *          This parameter can be one of the following values:
2625:cmsis/device/stm32f4xx_rtc.c ****   *            @arg RTC_IT_TS: Time Stamp interrupt 
2626:cmsis/device/stm32f4xx_rtc.c ****   *            @arg RTC_IT_WUT: WakeUp Timer interrupt 
2627:cmsis/device/stm32f4xx_rtc.c ****   *            @arg RTC_IT_ALRB: Alarm B interrupt 
2628:cmsis/device/stm32f4xx_rtc.c ****   *            @arg RTC_IT_ALRA: Alarm A interrupt 
2629:cmsis/device/stm32f4xx_rtc.c ****   *            @arg RTC_IT_TAMP1: Tamper 1 event interrupt 
2630:cmsis/device/stm32f4xx_rtc.c ****   * @retval The new state of RTC_IT (SET or RESET).
2631:cmsis/device/stm32f4xx_rtc.c ****   */
2632:cmsis/device/stm32f4xx_rtc.c **** ITStatus RTC_GetITStatus(uint32_t RTC_IT)
2633:cmsis/device/stm32f4xx_rtc.c **** {
2634:cmsis/device/stm32f4xx_rtc.c ****   ITStatus bitstatus = RESET;
2635:cmsis/device/stm32f4xx_rtc.c ****   uint32_t tmpreg = 0, enablestatus = 0;
2636:cmsis/device/stm32f4xx_rtc.c ****  
2637:cmsis/device/stm32f4xx_rtc.c ****   /* Check the parameters */
2638:cmsis/device/stm32f4xx_rtc.c ****   assert_param(IS_RTC_GET_IT(RTC_IT));
2639:cmsis/device/stm32f4xx_rtc.c ****   
2640:cmsis/device/stm32f4xx_rtc.c ****   /* Get the TAMPER Interrupt enable bit and pending bit */
2641:cmsis/device/stm32f4xx_rtc.c ****   tmpreg = (uint32_t)(RTC->TAFCR & (RTC_TAFCR_TAMPIE));
2642:cmsis/device/stm32f4xx_rtc.c ****  
2643:cmsis/device/stm32f4xx_rtc.c ****   /* Get the Interrupt enable Status */
2644:cmsis/device/stm32f4xx_rtc.c ****   enablestatus = (uint32_t)((RTC->CR & RTC_IT) | (tmpreg & (RTC_IT >> 15)));
2645:cmsis/device/stm32f4xx_rtc.c ****   
2646:cmsis/device/stm32f4xx_rtc.c ****   /* Get the Interrupt pending bit */
2647:cmsis/device/stm32f4xx_rtc.c ****   tmpreg = (uint32_t)((RTC->ISR & (uint32_t)(RTC_IT >> 4)));
2648:cmsis/device/stm32f4xx_rtc.c ****   
2649:cmsis/device/stm32f4xx_rtc.c ****   /* Get the status of the Interrupt */
ARM GAS  C:\Users\CNous\AppData\Local\Temp\ccCDm0MK.s 			page 61


2650:cmsis/device/stm32f4xx_rtc.c ****   if ((enablestatus != (uint32_t)RESET) && ((tmpreg & 0x0000FFFF) != (uint32_t)RESET))
2651:cmsis/device/stm32f4xx_rtc.c ****   {
2652:cmsis/device/stm32f4xx_rtc.c ****     bitstatus = SET;
2653:cmsis/device/stm32f4xx_rtc.c ****   }
2654:cmsis/device/stm32f4xx_rtc.c ****   else
2655:cmsis/device/stm32f4xx_rtc.c ****   {
2656:cmsis/device/stm32f4xx_rtc.c ****     bitstatus = RESET;
2657:cmsis/device/stm32f4xx_rtc.c ****   }
2658:cmsis/device/stm32f4xx_rtc.c ****   return bitstatus;
2659:cmsis/device/stm32f4xx_rtc.c **** }
2660:cmsis/device/stm32f4xx_rtc.c **** 
2661:cmsis/device/stm32f4xx_rtc.c **** /**
2662:cmsis/device/stm32f4xx_rtc.c ****   * @brief  Clears the RTC's interrupt pending bits.
2663:cmsis/device/stm32f4xx_rtc.c ****   * @param  RTC_IT: specifies the RTC interrupt pending bit to clear.
2664:cmsis/device/stm32f4xx_rtc.c ****   *          This parameter can be any combination of the following values:
2665:cmsis/device/stm32f4xx_rtc.c ****   *            @arg RTC_IT_TS: Time Stamp interrupt 
2666:cmsis/device/stm32f4xx_rtc.c ****   *            @arg RTC_IT_WUT: WakeUp Timer interrupt 
2667:cmsis/device/stm32f4xx_rtc.c ****   *            @arg RTC_IT_ALRB: Alarm B interrupt 
2668:cmsis/device/stm32f4xx_rtc.c ****   *            @arg RTC_IT_ALRA: Alarm A interrupt 
2669:cmsis/device/stm32f4xx_rtc.c ****   *            @arg RTC_IT_TAMP1: Tamper 1 event interrupt 
2670:cmsis/device/stm32f4xx_rtc.c ****   * @retval None
2671:cmsis/device/stm32f4xx_rtc.c ****   */
2672:cmsis/device/stm32f4xx_rtc.c **** void RTC_ClearITPendingBit(uint32_t RTC_IT)
2673:cmsis/device/stm32f4xx_rtc.c **** {
2674:cmsis/device/stm32f4xx_rtc.c ****   uint32_t tmpreg = 0;
2675:cmsis/device/stm32f4xx_rtc.c **** 
2676:cmsis/device/stm32f4xx_rtc.c ****   /* Check the parameters */
2677:cmsis/device/stm32f4xx_rtc.c ****   assert_param(IS_RTC_CLEAR_IT(RTC_IT));
2678:cmsis/device/stm32f4xx_rtc.c **** 
2679:cmsis/device/stm32f4xx_rtc.c ****   /* Get the RTC_ISR Interrupt pending bits mask */
2680:cmsis/device/stm32f4xx_rtc.c ****   tmpreg = (uint32_t)(RTC_IT >> 4);
2681:cmsis/device/stm32f4xx_rtc.c **** 
2682:cmsis/device/stm32f4xx_rtc.c ****   /* Clear the interrupt pending bits in the RTC_ISR register */
2683:cmsis/device/stm32f4xx_rtc.c ****   RTC->ISR = (uint32_t)((uint32_t)(~((tmpreg | RTC_ISR_INIT)& 0x0000FFFF) | (uint32_t)(RTC->ISR & R
2684:cmsis/device/stm32f4xx_rtc.c **** }
2685:cmsis/device/stm32f4xx_rtc.c **** 
2686:cmsis/device/stm32f4xx_rtc.c **** /**
2687:cmsis/device/stm32f4xx_rtc.c ****   * @}
2688:cmsis/device/stm32f4xx_rtc.c ****   */
2689:cmsis/device/stm32f4xx_rtc.c **** 
2690:cmsis/device/stm32f4xx_rtc.c **** /**
2691:cmsis/device/stm32f4xx_rtc.c ****   * @brief  Converts a 2 digit decimal to BCD format.
2692:cmsis/device/stm32f4xx_rtc.c ****   * @param  Value: Byte to be converted.
2693:cmsis/device/stm32f4xx_rtc.c ****   * @retval Converted byte
2694:cmsis/device/stm32f4xx_rtc.c ****   */
2695:cmsis/device/stm32f4xx_rtc.c **** static uint8_t RTC_ByteToBcd2(uint8_t Value)
2696:cmsis/device/stm32f4xx_rtc.c **** {
2697:cmsis/device/stm32f4xx_rtc.c ****   uint8_t bcdhigh = 0;
2698:cmsis/device/stm32f4xx_rtc.c ****   
2699:cmsis/device/stm32f4xx_rtc.c ****   while (Value >= 10)
 690              		.loc 1 2699 0
 691 001c 0025     		movs	r5, #0	@ prephitmp.147,
 692 001e 092B     		cmp	r3, #9	@ Value,
 693 0020 1CD9     		bls	.L76	@,
 694 0022 0A3B     		subs	r3, r3, #10	@ tmp374, Value,
 695 0024 4CF6CD42 		movw	r2, #52429	@ tmp378,
 696 0028 DBB2     		uxtb	r3, r3	@ tmp376, tmp374
ARM GAS  C:\Users\CNous\AppData\Local\Temp\ccCDm0MK.s 			page 62


 697 002a CCF6CC42 		movt	r2, 52428	@ tmp378,
 698 002e A2FB0305 		umull	r0, r5, r2, r3	@, tmp377, tmp378, tmp376
2700:cmsis/device/stm32f4xx_rtc.c ****   {
2701:cmsis/device/stm32f4xx_rtc.c ****     bcdhigh++;
 699              		.loc 1 2701 0
 700 0032 0122     		movs	r2, #1	@ bcdhigh,
 701              	.LVL47:
2699:cmsis/device/stm32f4xx_rtc.c ****   while (Value >= 10)
 702              		.loc 1 2699 0
 703 0034 092B     		cmp	r3, #9	@ Value,
 704 0036 C5F3C000 		ubfx	r0, r5, #3, #1	@ tmp379, tmp377,,
 705 003a 0DD9     		bls	.L102	@,
 706 003c 20B1     		cbz	r0, .L69	@ tmp379,
2702:cmsis/device/stm32f4xx_rtc.c ****     Value -= 10;
 707              		.loc 1 2702 0
 708 003e 0A3B     		subs	r3, r3, #10	@ tmp410, Value,
 709              	.LVL48:
 710 0040 DBB2     		uxtb	r3, r3	@ Value, tmp410
 711              	.LVL49:
2701:cmsis/device/stm32f4xx_rtc.c ****     bcdhigh++;
 712              		.loc 1 2701 0
 713 0042 0222     		movs	r2, #2	@ bcdhigh,
 714              	.LVL50:
2699:cmsis/device/stm32f4xx_rtc.c ****   while (Value >= 10)
 715              		.loc 1 2699 0
 716 0044 092B     		cmp	r3, #9	@ Value,
 717 0046 07D9     		bls	.L102	@,
 718              	.LVL51:
 719              	.L69:
 720              		.loc 1 2702 0
 721 0048 143B     		subs	r3, r3, #20	@ tmp390, Value,
 722              	.LVL52:
 723 004a 03F0FF03 		and	r3, r3, #255	@ Value, tmp390,
 724              	.LVL53:
2701:cmsis/device/stm32f4xx_rtc.c ****     bcdhigh++;
 725              		.loc 1 2701 0
 726 004e 951C     		adds	r5, r2, #2	@ tmp389, bcdhigh,
2699:cmsis/device/stm32f4xx_rtc.c ****   while (Value >= 10)
 727              		.loc 1 2699 0
 728 0050 092B     		cmp	r3, #9	@ Value,
2701:cmsis/device/stm32f4xx_rtc.c ****     bcdhigh++;
 729              		.loc 1 2701 0
