ARM GAS  C:\Users\CNous\AppData\Local\Temp\ccZi7tDD.s 			page 1


   1              		.syntax unified
   2              		.cpu cortex-m4
   3              		.eabi_attribute 27, 3	@ Tag_ABI_HardFP_use
   4              		.eabi_attribute 28, 1	@ Tag_ABI_VFP_args
   5              		.fpu fpv4-sp-d16
   6              		.eabi_attribute 20, 1	@ Tag_ABI_FP_denormal
   7              		.eabi_attribute 21, 1	@ Tag_ABI_FP_exceptions
   8              		.eabi_attribute 23, 3	@ Tag_ABI_FP_number_model
   9              		.eabi_attribute 24, 1	@ Tag_ABI_align8_needed
  10              		.eabi_attribute 25, 1	@ Tag_ABI_align8_preserved
  11              		.eabi_attribute 26, 1	@ Tag_ABI_enum_size
  12              		.eabi_attribute 30, 2	@ Tag_ABI_optimization_goals
  13              		.eabi_attribute 34, 1	@ Tag_CPU_unaligned_access
  14              		.eabi_attribute 18, 4	@ Tag_ABI_PCS_wchar_t
  15              		.file	"stm32f4xx_tim.c"
  16              	@ GNU C (GNU Tools for ARM Embedded Processors) version 4.7.3 20121207 (release) [ARM/embedded-4_7-
  17              	@	compiled by GNU C version 4.2.1-sjlj (mingw32-2), GMP version 4.3.2, MPFR version 2.4.2, MPC vers
  18              	@ GGC heuristics: --param ggc-min-expand=100 --param ggc-min-heapsize=131072
  19              	@ options passed:  -I . -I ./inc -I ./cmsis/core -I ./cmsis/device
  20              	@ -imultilib armv7e-m/fpu
  21              	@ -iprefix c:\gnutoolsarmembedded\4.7-2012q4\bin\../lib/gcc/arm-none-eabi/4.7.3/
  22              	@ -isysroot c:\gnutoolsarmembedded\4.7-2012q4\bin\../arm-none-eabi
  23              	@ -MD cmsis/device/stm32f4xx_tim.d -MF .dep/stm32f4xx_tim.o.d -MP
  24              	@ -MQ cmsis/device/stm32f4xx_tim.o -D__USES_INITFINI__ -D __FPU_USED=1
  25              	@ -D __arm__ -D __ASSEMBLY__ -D USE_STDPERIPH_DRIVER -D STM32F4XX
  26              	@ -D HSE_VALUE=8000000 -D __FPU_PRESENT=1 -D STM32F407VG
  27              	@ -D RUN_FROM_FLASH=1 cmsis/device/stm32f4xx_tim.c -mthumb -mcpu=cortex-m4
  28              	@ -mfloat-abi=hard -mfpu=fpv4-sp-d16
  29              	@ -auxbase-strip cmsis/device/stm32f4xx_tim.o -gdwarf-2 -O2 -Wall
  30              	@ -Wstrict-prototypes -fverbose-asm -ffunction-sections -fdata-sections
  31              	@ options enabled:  -fauto-inc-dec -fbranch-count-reg -fcaller-saves
  32              	@ -fcombine-stack-adjustments -fcommon -fcompare-elim -fcprop-registers
  33              	@ -fcrossjumping -fcse-follow-jumps -fdata-sections -fdebug-types-section
  34              	@ -fdefer-pop -fdelete-null-pointer-checks -fdevirtualize -fdwarf2-cfi-asm
  35              	@ -fearly-inlining -feliminate-unused-debug-types -fexpensive-optimizations
  36              	@ -fforward-propagate -ffunction-cse -ffunction-sections -fgcse -fgcse-lm
  37              	@ -fgnu-runtime -fguess-branch-probability -fident -fif-conversion
  38              	@ -fif-conversion2 -findirect-inlining -finline -finline-atomics
  39              	@ -finline-functions-called-once -finline-small-functions -fipa-cp
  40              	@ -fipa-profile -fipa-pure-const -fipa-reference -fipa-sra
  41              	@ -fira-share-save-slots -fira-share-spill-slots -fivopts
  42              	@ -fkeep-static-consts -fleading-underscore -fmath-errno -fmerge-constants
  43              	@ -fmerge-debug-strings -fmove-loop-invariants -fomit-frame-pointer
  44              	@ -foptimize-register-move -foptimize-sibling-calls -foptimize-strlen
  45              	@ -fpartial-inlining -fpeephole -fpeephole2 -fprefetch-loop-arrays
  46              	@ -freg-struct-return -fregmove -frename-registers -freorder-blocks
  47              	@ -freorder-functions -frerun-cse-after-loop
  48              	@ -fsched-critical-path-heuristic -fsched-dep-count-heuristic
  49              	@ -fsched-group-heuristic -fsched-interblock -fsched-last-insn-heuristic
  50              	@ -fsched-rank-heuristic -fsched-spec -fsched-spec-insn-heuristic
  51              	@ -fsched-stalled-insns-dep -fschedule-insns -fschedule-insns2
  52              	@ -fsection-anchors -fshow-column -fshrink-wrap -fsigned-zeros
  53              	@ -fsplit-ivs-in-unroller -fsplit-wide-types -fstrict-aliasing
  54              	@ -fstrict-overflow -fstrict-volatile-bitfields -fthread-jumps
  55              	@ -ftoplevel-reorder -ftrapping-math -ftree-bit-ccp -ftree-builtin-call-dce
  56              	@ -ftree-ccp -ftree-ch -ftree-copy-prop -ftree-copyrename -ftree-cselim
  57              	@ -ftree-dce -ftree-dominator-opts -ftree-dse -ftree-forwprop -ftree-fre
ARM GAS  C:\Users\CNous\AppData\Local\Temp\ccZi7tDD.s 			page 2


  58              	@ -ftree-loop-if-convert -ftree-loop-im -ftree-loop-ivcanon
  59              	@ -ftree-loop-optimize -ftree-parallelize-loops= -ftree-phiprop -ftree-pre
  60              	@ -ftree-pta -ftree-reassoc -ftree-scev-cprop -ftree-sink
  61              	@ -ftree-slp-vectorize -ftree-sra -ftree-switch-conversion
  62              	@ -ftree-tail-merge -ftree-ter -ftree-vect-loop-version -ftree-vrp
  63              	@ -funit-at-a-time -funroll-loops -fvar-tracking -fvar-tracking-assignments
  64              	@ -fverbose-asm -fweb -fzero-initialized-in-bss -mlittle-endian
  65              	@ -msched-prolog -mthumb -munaligned-access -mvectorize-with-neon-quad
  66              	
  67              		.text
  68              	.Ltext0:
  69              		.cfi_sections	.debug_frame
  70              		.section	.text.TIM_DeInit,"ax",%progbits
  71              		.align	2
  72              		.global	TIM_DeInit
  73              		.thumb
  74              		.thumb_func
  75              		.type	TIM_DeInit, %function
  76              	TIM_DeInit:
  77              	.LFB110:
  78              		.file 1 "cmsis/device/stm32f4xx_tim.c"
   1:cmsis/device/stm32f4xx_tim.c **** /**
   2:cmsis/device/stm32f4xx_tim.c ****   ******************************************************************************
   3:cmsis/device/stm32f4xx_tim.c ****   * @file    stm32f4xx_tim.c
   4:cmsis/device/stm32f4xx_tim.c ****   * @author  MCD Application Team
   5:cmsis/device/stm32f4xx_tim.c ****   * @version V1.0.0
   6:cmsis/device/stm32f4xx_tim.c ****   * @date    30-September-2011
   7:cmsis/device/stm32f4xx_tim.c ****   * @brief   This file provides firmware functions to manage the following 
   8:cmsis/device/stm32f4xx_tim.c ****   *          functionalities of the TIM peripheral:
   9:cmsis/device/stm32f4xx_tim.c ****   *            - TimeBase management
  10:cmsis/device/stm32f4xx_tim.c ****   *            - Output Compare management
  11:cmsis/device/stm32f4xx_tim.c ****   *            - Input Capture management
  12:cmsis/device/stm32f4xx_tim.c ****   *            - Advanced-control timers (TIM1 and TIM8) specific features  
  13:cmsis/device/stm32f4xx_tim.c ****   *            - Interrupts, DMA and flags management
  14:cmsis/device/stm32f4xx_tim.c ****   *            - Clocks management
  15:cmsis/device/stm32f4xx_tim.c ****   *            - Synchronization management
  16:cmsis/device/stm32f4xx_tim.c ****   *            - Specific interface management
  17:cmsis/device/stm32f4xx_tim.c ****   *            - Specific remapping management      
  18:cmsis/device/stm32f4xx_tim.c ****   *              
  19:cmsis/device/stm32f4xx_tim.c ****   *  @verbatim
  20:cmsis/device/stm32f4xx_tim.c ****   *  
  21:cmsis/device/stm32f4xx_tim.c ****   *          ===================================================================
  22:cmsis/device/stm32f4xx_tim.c ****   *                                 How to use this driver
  23:cmsis/device/stm32f4xx_tim.c ****   *          ===================================================================
  24:cmsis/device/stm32f4xx_tim.c ****   *          This driver provides functions to configure and program the TIM 
  25:cmsis/device/stm32f4xx_tim.c ****   *          of all STM32F4xx devices.
  26:cmsis/device/stm32f4xx_tim.c ****   *          These functions are split in 9 groups: 
  27:cmsis/device/stm32f4xx_tim.c ****   *   
  28:cmsis/device/stm32f4xx_tim.c ****   *          1. TIM TimeBase management: this group includes all needed functions 
  29:cmsis/device/stm32f4xx_tim.c ****   *             to configure the TM Timebase unit:
  30:cmsis/device/stm32f4xx_tim.c ****   *                   - Set/Get Prescaler
  31:cmsis/device/stm32f4xx_tim.c ****   *                   - Set/Get Autoreload  
  32:cmsis/device/stm32f4xx_tim.c ****   *                   - Counter modes configuration
  33:cmsis/device/stm32f4xx_tim.c ****   *                   - Set Clock division  
  34:cmsis/device/stm32f4xx_tim.c ****   *                   - Select the One Pulse mode
  35:cmsis/device/stm32f4xx_tim.c ****   *                   - Update Request Configuration
  36:cmsis/device/stm32f4xx_tim.c ****   *                   - Update Disable Configuration
ARM GAS  C:\Users\CNous\AppData\Local\Temp\ccZi7tDD.s 			page 3


  37:cmsis/device/stm32f4xx_tim.c ****   *                   - Auto-Preload Configuration 
  38:cmsis/device/stm32f4xx_tim.c ****   *                   - Enable/Disable the counter     
  39:cmsis/device/stm32f4xx_tim.c ****   *                 
  40:cmsis/device/stm32f4xx_tim.c ****   *          2. TIM Output Compare management: this group includes all needed 
  41:cmsis/device/stm32f4xx_tim.c ****   *             functions to configure the Capture/Compare unit used in Output 
  42:cmsis/device/stm32f4xx_tim.c ****   *             compare mode: 
  43:cmsis/device/stm32f4xx_tim.c ****   *                   - Configure each channel, independently, in Output Compare mode
  44:cmsis/device/stm32f4xx_tim.c ****   *                   - Select the output compare modes
  45:cmsis/device/stm32f4xx_tim.c ****   *                   - Select the Polarities of each channel
  46:cmsis/device/stm32f4xx_tim.c ****   *                   - Set/Get the Capture/Compare register values
  47:cmsis/device/stm32f4xx_tim.c ****   *                   - Select the Output Compare Fast mode 
  48:cmsis/device/stm32f4xx_tim.c ****   *                   - Select the Output Compare Forced mode  
  49:cmsis/device/stm32f4xx_tim.c ****   *                   - Output Compare-Preload Configuration 
  50:cmsis/device/stm32f4xx_tim.c ****   *                   - Clear Output Compare Reference
  51:cmsis/device/stm32f4xx_tim.c ****   *                   - Select the OCREF Clear signal
  52:cmsis/device/stm32f4xx_tim.c ****   *                   - Enable/Disable the Capture/Compare Channels    
  53:cmsis/device/stm32f4xx_tim.c ****   *                   
  54:cmsis/device/stm32f4xx_tim.c ****   *          3. TIM Input Capture management: this group includes all needed 
  55:cmsis/device/stm32f4xx_tim.c ****   *             functions to configure the Capture/Compare unit used in 
  56:cmsis/device/stm32f4xx_tim.c ****   *             Input Capture mode:
  57:cmsis/device/stm32f4xx_tim.c ****   *                   - Configure each channel in input capture mode
  58:cmsis/device/stm32f4xx_tim.c ****   *                   - Configure Channel1/2 in PWM Input mode
  59:cmsis/device/stm32f4xx_tim.c ****   *                   - Set the Input Capture Prescaler
  60:cmsis/device/stm32f4xx_tim.c ****   *                   - Get the Capture/Compare values      
  61:cmsis/device/stm32f4xx_tim.c ****   *                   
  62:cmsis/device/stm32f4xx_tim.c ****   *          4. Advanced-control timers (TIM1 and TIM8) specific features
  63:cmsis/device/stm32f4xx_tim.c ****   *                   - Configures the Break input, dead time, Lock level, the OSSI,
  64:cmsis/device/stm32f4xx_tim.c ****   *                      the OSSR State and the AOE(automatic output enable)
  65:cmsis/device/stm32f4xx_tim.c ****   *                   - Enable/Disable the TIM peripheral Main Outputs
  66:cmsis/device/stm32f4xx_tim.c ****   *                   - Select the Commutation event
  67:cmsis/device/stm32f4xx_tim.c ****   *                   - Set/Reset the Capture Compare Preload Control bit
  68:cmsis/device/stm32f4xx_tim.c ****   *                              
  69:cmsis/device/stm32f4xx_tim.c ****   *          5. TIM interrupts, DMA and flags management
  70:cmsis/device/stm32f4xx_tim.c ****   *                   - Enable/Disable interrupt sources
  71:cmsis/device/stm32f4xx_tim.c ****   *                   - Get flags status
  72:cmsis/device/stm32f4xx_tim.c ****   *                   - Clear flags/ Pending bits
  73:cmsis/device/stm32f4xx_tim.c ****   *                   - Enable/Disable DMA requests 
  74:cmsis/device/stm32f4xx_tim.c ****   *                   - Configure DMA burst mode
  75:cmsis/device/stm32f4xx_tim.c ****   *                   - Select CaptureCompare DMA request  
  76:cmsis/device/stm32f4xx_tim.c ****   *              
  77:cmsis/device/stm32f4xx_tim.c ****   *          6. TIM clocks management: this group includes all needed functions 
  78:cmsis/device/stm32f4xx_tim.c ****   *             to configure the clock controller unit:
  79:cmsis/device/stm32f4xx_tim.c ****   *                   - Select internal/External clock
  80:cmsis/device/stm32f4xx_tim.c ****   *                   - Select the external clock mode: ETR(Mode1/Mode2), TIx or ITRx
  81:cmsis/device/stm32f4xx_tim.c ****   *         
  82:cmsis/device/stm32f4xx_tim.c ****   *          7. TIM synchronization management: this group includes all needed 
  83:cmsis/device/stm32f4xx_tim.c ****   *             functions to configure the Synchronization unit:
  84:cmsis/device/stm32f4xx_tim.c ****   *                   - Select Input Trigger  
  85:cmsis/device/stm32f4xx_tim.c ****   *                   - Select Output Trigger  
  86:cmsis/device/stm32f4xx_tim.c ****   *                   - Select Master Slave Mode 
  87:cmsis/device/stm32f4xx_tim.c ****   *                   - ETR Configuration when used as external trigger   
  88:cmsis/device/stm32f4xx_tim.c ****   *     
  89:cmsis/device/stm32f4xx_tim.c ****   *          8. TIM specific interface management, this group includes all 
  90:cmsis/device/stm32f4xx_tim.c ****   *             needed functions to use the specific TIM interface:
  91:cmsis/device/stm32f4xx_tim.c ****   *                   - Encoder Interface Configuration
  92:cmsis/device/stm32f4xx_tim.c ****   *                   - Select Hall Sensor   
  93:cmsis/device/stm32f4xx_tim.c ****   *         
ARM GAS  C:\Users\CNous\AppData\Local\Temp\ccZi7tDD.s 			page 4


  94:cmsis/device/stm32f4xx_tim.c ****   *          9. TIM specific remapping management includes the Remapping 
  95:cmsis/device/stm32f4xx_tim.c ****   *             configuration of specific timers               
  96:cmsis/device/stm32f4xx_tim.c ****   *   
  97:cmsis/device/stm32f4xx_tim.c ****   *  @endverbatim
  98:cmsis/device/stm32f4xx_tim.c ****   *    
  99:cmsis/device/stm32f4xx_tim.c ****   ******************************************************************************
 100:cmsis/device/stm32f4xx_tim.c ****   * @attention
 101:cmsis/device/stm32f4xx_tim.c ****   *
 102:cmsis/device/stm32f4xx_tim.c ****   * THE PRESENT FIRMWARE WHICH IS FOR GUIDANCE ONLY AIMS AT PROVIDING CUSTOMERS
 103:cmsis/device/stm32f4xx_tim.c ****   * WITH CODING INFORMATION REGARDING THEIR PRODUCTS IN ORDER FOR THEM TO SAVE
 104:cmsis/device/stm32f4xx_tim.c ****   * TIME. AS A RESULT, STMICROELECTRONICS SHALL NOT BE HELD LIABLE FOR ANY
 105:cmsis/device/stm32f4xx_tim.c ****   * DIRECT, INDIRECT OR CONSEQUENTIAL DAMAGES WITH RESPECT TO ANY CLAIMS ARISING
 106:cmsis/device/stm32f4xx_tim.c ****   * FROM THE CONTENT OF SUCH FIRMWARE AND/OR THE USE MADE BY CUSTOMERS OF THE
 107:cmsis/device/stm32f4xx_tim.c ****   * CODING INFORMATION CONTAINED HEREIN IN CONNECTION WITH THEIR PRODUCTS.
 108:cmsis/device/stm32f4xx_tim.c ****   *
 109:cmsis/device/stm32f4xx_tim.c ****   * <h2><center>&copy; COPYRIGHT 2011 STMicroelectronics</center></h2>
 110:cmsis/device/stm32f4xx_tim.c ****   ******************************************************************************
 111:cmsis/device/stm32f4xx_tim.c ****   */
 112:cmsis/device/stm32f4xx_tim.c **** 
 113:cmsis/device/stm32f4xx_tim.c **** /* Includes ------------------------------------------------------------------*/
 114:cmsis/device/stm32f4xx_tim.c **** #include "stm32f4xx_tim.h"
 115:cmsis/device/stm32f4xx_tim.c **** #include "stm32f4xx_rcc.h"
 116:cmsis/device/stm32f4xx_tim.c **** 
 117:cmsis/device/stm32f4xx_tim.c **** /** @addtogroup STM32F4xx_StdPeriph_Driver
 118:cmsis/device/stm32f4xx_tim.c ****   * @{
 119:cmsis/device/stm32f4xx_tim.c ****   */
 120:cmsis/device/stm32f4xx_tim.c **** 
 121:cmsis/device/stm32f4xx_tim.c **** /** @defgroup TIM 
 122:cmsis/device/stm32f4xx_tim.c ****   * @brief TIM driver modules
 123:cmsis/device/stm32f4xx_tim.c ****   * @{
 124:cmsis/device/stm32f4xx_tim.c ****   */
 125:cmsis/device/stm32f4xx_tim.c **** 
 126:cmsis/device/stm32f4xx_tim.c **** /* Private typedef -----------------------------------------------------------*/
 127:cmsis/device/stm32f4xx_tim.c **** /* Private define ------------------------------------------------------------*/
 128:cmsis/device/stm32f4xx_tim.c **** 
 129:cmsis/device/stm32f4xx_tim.c **** /* ---------------------- TIM registers bit mask ------------------------ */
 130:cmsis/device/stm32f4xx_tim.c **** #define SMCR_ETR_MASK      ((uint16_t)0x00FF) 
 131:cmsis/device/stm32f4xx_tim.c **** #define CCMR_OFFSET        ((uint16_t)0x0018)
 132:cmsis/device/stm32f4xx_tim.c **** #define CCER_CCE_SET       ((uint16_t)0x0001)  
 133:cmsis/device/stm32f4xx_tim.c **** #define	CCER_CCNE_SET      ((uint16_t)0x0004) 
 134:cmsis/device/stm32f4xx_tim.c **** #define CCMR_OC13M_MASK    ((uint16_t)0xFF8F)
 135:cmsis/device/stm32f4xx_tim.c **** #define CCMR_OC24M_MASK    ((uint16_t)0x8FFF) 
 136:cmsis/device/stm32f4xx_tim.c **** 
 137:cmsis/device/stm32f4xx_tim.c **** /* Private macro -------------------------------------------------------------*/
 138:cmsis/device/stm32f4xx_tim.c **** /* Private variables ---------------------------------------------------------*/
 139:cmsis/device/stm32f4xx_tim.c **** /* Private function prototypes -----------------------------------------------*/
 140:cmsis/device/stm32f4xx_tim.c **** static void TI1_Config(TIM_TypeDef* TIMx, uint16_t TIM_ICPolarity, uint16_t TIM_ICSelection,
 141:cmsis/device/stm32f4xx_tim.c ****                        uint16_t TIM_ICFilter);
 142:cmsis/device/stm32f4xx_tim.c **** static void TI2_Config(TIM_TypeDef* TIMx, uint16_t TIM_ICPolarity, uint16_t TIM_ICSelection,
 143:cmsis/device/stm32f4xx_tim.c ****                        uint16_t TIM_ICFilter);
 144:cmsis/device/stm32f4xx_tim.c **** static void TI3_Config(TIM_TypeDef* TIMx, uint16_t TIM_ICPolarity, uint16_t TIM_ICSelection,
 145:cmsis/device/stm32f4xx_tim.c ****                        uint16_t TIM_ICFilter);
 146:cmsis/device/stm32f4xx_tim.c **** static void TI4_Config(TIM_TypeDef* TIMx, uint16_t TIM_ICPolarity, uint16_t TIM_ICSelection,
 147:cmsis/device/stm32f4xx_tim.c ****                        uint16_t TIM_ICFilter);
 148:cmsis/device/stm32f4xx_tim.c **** 
 149:cmsis/device/stm32f4xx_tim.c **** /* Private functions ---------------------------------------------------------*/
 150:cmsis/device/stm32f4xx_tim.c **** 
ARM GAS  C:\Users\CNous\AppData\Local\Temp\ccZi7tDD.s 			page 5


 151:cmsis/device/stm32f4xx_tim.c **** /** @defgroup TIM_Private_Functions
 152:cmsis/device/stm32f4xx_tim.c ****   * @{
 153:cmsis/device/stm32f4xx_tim.c ****   */
 154:cmsis/device/stm32f4xx_tim.c **** 
 155:cmsis/device/stm32f4xx_tim.c **** /** @defgroup TIM_Group1 TimeBase management functions
 156:cmsis/device/stm32f4xx_tim.c ****  *  @brief   TimeBase management functions 
 157:cmsis/device/stm32f4xx_tim.c ****  *
 158:cmsis/device/stm32f4xx_tim.c **** @verbatim   
 159:cmsis/device/stm32f4xx_tim.c ****  ===============================================================================
 160:cmsis/device/stm32f4xx_tim.c ****                        TimeBase management functions
 161:cmsis/device/stm32f4xx_tim.c ****  ===============================================================================  
 162:cmsis/device/stm32f4xx_tim.c ****   
 163:cmsis/device/stm32f4xx_tim.c ****        ===================================================================      
 164:cmsis/device/stm32f4xx_tim.c ****               TIM Driver: how to use it in Timing(Time base) Mode
 165:cmsis/device/stm32f4xx_tim.c ****        =================================================================== 
 166:cmsis/device/stm32f4xx_tim.c ****        To use the Timer in Timing(Time base) mode, the following steps are mandatory:
 167:cmsis/device/stm32f4xx_tim.c ****        
 168:cmsis/device/stm32f4xx_tim.c ****        1. Enable TIM clock using RCC_APBxPeriphClockCmd(RCC_APBxPeriph_TIMx, ENABLE) function
 169:cmsis/device/stm32f4xx_tim.c ****                     
 170:cmsis/device/stm32f4xx_tim.c ****        2. Fill the TIM_TimeBaseInitStruct with the desired parameters.
 171:cmsis/device/stm32f4xx_tim.c ****        
 172:cmsis/device/stm32f4xx_tim.c ****        3. Call TIM_TimeBaseInit(TIMx, &TIM_TimeBaseInitStruct) to configure the Time Base unit
 173:cmsis/device/stm32f4xx_tim.c ****           with the corresponding configuration
 174:cmsis/device/stm32f4xx_tim.c ****           
 175:cmsis/device/stm32f4xx_tim.c ****        4. Enable the NVIC if you need to generate the update interrupt. 
 176:cmsis/device/stm32f4xx_tim.c ****           
 177:cmsis/device/stm32f4xx_tim.c ****        5. Enable the corresponding interrupt using the function TIM_ITConfig(TIMx, TIM_IT_Update) 
 178:cmsis/device/stm32f4xx_tim.c ****        
 179:cmsis/device/stm32f4xx_tim.c ****        6. Call the TIM_Cmd(ENABLE) function to enable the TIM counter.
 180:cmsis/device/stm32f4xx_tim.c ****              
 181:cmsis/device/stm32f4xx_tim.c ****        Note1: All other functions can be used separately to modify, if needed,
 182:cmsis/device/stm32f4xx_tim.c ****           a specific feature of the Timer. 
 183:cmsis/device/stm32f4xx_tim.c **** 
 184:cmsis/device/stm32f4xx_tim.c **** @endverbatim
 185:cmsis/device/stm32f4xx_tim.c ****   * @{
 186:cmsis/device/stm32f4xx_tim.c ****   */
 187:cmsis/device/stm32f4xx_tim.c ****   
 188:cmsis/device/stm32f4xx_tim.c **** /**
 189:cmsis/device/stm32f4xx_tim.c ****   * @brief  Deinitializes the TIMx peripheral registers to their default reset values.
 190:cmsis/device/stm32f4xx_tim.c ****   * @param  TIMx: where x can be 1 to 14 to select the TIM peripheral.
 191:cmsis/device/stm32f4xx_tim.c ****   * @retval None
 192:cmsis/device/stm32f4xx_tim.c **** 
 193:cmsis/device/stm32f4xx_tim.c ****   */
 194:cmsis/device/stm32f4xx_tim.c **** void TIM_DeInit(TIM_TypeDef* TIMx)
 195:cmsis/device/stm32f4xx_tim.c **** {
  79              		.loc 1 195 0
  80              		.cfi_startproc
  81              		@ args = 0, pretend = 0, frame = 0
  82              		@ frame_needed = 0, uses_anonymous_args = 0
  83              	.LVL0:
  84 0000 08B5     		push	{r3, lr}	@
  85              	.LCFI0:
  86              		.cfi_def_cfa_offset 8
  87              		.cfi_offset 3, -8
  88              		.cfi_offset 14, -4
 196:cmsis/device/stm32f4xx_tim.c ****   /* Check the parameters */
 197:cmsis/device/stm32f4xx_tim.c ****   assert_param(IS_TIM_ALL_PERIPH(TIMx)); 
ARM GAS  C:\Users\CNous\AppData\Local\Temp\ccZi7tDD.s 			page 6


 198:cmsis/device/stm32f4xx_tim.c ****  
 199:cmsis/device/stm32f4xx_tim.c ****   if (TIMx == TIM1)
  89              		.loc 1 199 0
  90 0002 0023     		movs	r3, #0	@ tmp135,
  91 0004 C4F20103 		movt	r3, 16385	@ tmp135,
  92 0008 9842     		cmp	r0, r3	@ TIMx, tmp135
  93 000a 5BD0     		beq	.L17	@,
 200:cmsis/device/stm32f4xx_tim.c ****   {
 201:cmsis/device/stm32f4xx_tim.c ****     RCC_APB2PeriphResetCmd(RCC_APB2Periph_TIM1, ENABLE);
 202:cmsis/device/stm32f4xx_tim.c ****     RCC_APB2PeriphResetCmd(RCC_APB2Periph_TIM1, DISABLE);  
 203:cmsis/device/stm32f4xx_tim.c ****   } 
 204:cmsis/device/stm32f4xx_tim.c ****   else if (TIMx == TIM2) 
  94              		.loc 1 204 0
  95 000c B0F1804F 		cmp	r0, #1073741824	@ TIMx,
  96 0010 62D0     		beq	.L18	@,
 205:cmsis/device/stm32f4xx_tim.c ****   {     
 206:cmsis/device/stm32f4xx_tim.c ****     RCC_APB1PeriphResetCmd(RCC_APB1Periph_TIM2, ENABLE);
 207:cmsis/device/stm32f4xx_tim.c ****     RCC_APB1PeriphResetCmd(RCC_APB1Periph_TIM2, DISABLE);
 208:cmsis/device/stm32f4xx_tim.c ****   }  
 209:cmsis/device/stm32f4xx_tim.c ****   else if (TIMx == TIM3)
  97              		.loc 1 209 0
  98 0012 4FF48061 		mov	r1, #1024	@ tmp136,
  99 0016 C4F20001 		movt	r1, 16384	@ tmp136,
 100 001a 8842     		cmp	r0, r1	@ TIMx, tmp136
 101 001c 66D0     		beq	.L19	@,
 210:cmsis/device/stm32f4xx_tim.c ****   { 
 211:cmsis/device/stm32f4xx_tim.c ****     RCC_APB1PeriphResetCmd(RCC_APB1Periph_TIM3, ENABLE);
 212:cmsis/device/stm32f4xx_tim.c ****     RCC_APB1PeriphResetCmd(RCC_APB1Periph_TIM3, DISABLE);
 213:cmsis/device/stm32f4xx_tim.c ****   }  
 214:cmsis/device/stm32f4xx_tim.c ****   else if (TIMx == TIM4)
 102              		.loc 1 214 0
 103 001e 4FF40062 		mov	r2, #2048	@ tmp137,
 104 0022 C4F20002 		movt	r2, 16384	@ tmp137,
 105 0026 9042     		cmp	r0, r2	@ TIMx, tmp137
 106 0028 6AD0     		beq	.L20	@,
 215:cmsis/device/stm32f4xx_tim.c ****   { 
 216:cmsis/device/stm32f4xx_tim.c ****     RCC_APB1PeriphResetCmd(RCC_APB1Periph_TIM4, ENABLE);
 217:cmsis/device/stm32f4xx_tim.c ****     RCC_APB1PeriphResetCmd(RCC_APB1Periph_TIM4, DISABLE);
 218:cmsis/device/stm32f4xx_tim.c ****   }  
 219:cmsis/device/stm32f4xx_tim.c ****   else if (TIMx == TIM5)
 107              		.loc 1 219 0
 108 002a 4FF44063 		mov	r3, #3072	@ tmp138,
 109 002e C4F20003 		movt	r3, 16384	@ tmp138,
 110 0032 9842     		cmp	r0, r3	@ TIMx, tmp138
 111 0034 6ED0     		beq	.L21	@,
 220:cmsis/device/stm32f4xx_tim.c ****   {      
 221:cmsis/device/stm32f4xx_tim.c ****     RCC_APB1PeriphResetCmd(RCC_APB1Periph_TIM5, ENABLE);
 222:cmsis/device/stm32f4xx_tim.c ****     RCC_APB1PeriphResetCmd(RCC_APB1Periph_TIM5, DISABLE);
 223:cmsis/device/stm32f4xx_tim.c ****   }  
 224:cmsis/device/stm32f4xx_tim.c ****   else if (TIMx == TIM6)  
 112              		.loc 1 224 0
 113 0036 4FF48051 		mov	r1, #4096	@ tmp139,
 114 003a C4F20001 		movt	r1, 16384	@ tmp139,
 115 003e 8842     		cmp	r0, r1	@ TIMx, tmp139
 116 0040 72D0     		beq	.L22	@,
 225:cmsis/device/stm32f4xx_tim.c ****   {    
 226:cmsis/device/stm32f4xx_tim.c ****     RCC_APB1PeriphResetCmd(RCC_APB1Periph_TIM6, ENABLE);
ARM GAS  C:\Users\CNous\AppData\Local\Temp\ccZi7tDD.s 			page 7


 227:cmsis/device/stm32f4xx_tim.c ****     RCC_APB1PeriphResetCmd(RCC_APB1Periph_TIM6, DISABLE);
 228:cmsis/device/stm32f4xx_tim.c ****   }  
 229:cmsis/device/stm32f4xx_tim.c ****   else if (TIMx == TIM7)
 117              		.loc 1 229 0
 118 0042 4FF4A052 		mov	r2, #5120	@ tmp140,
 119 0046 C4F20002 		movt	r2, 16384	@ tmp140,
 120 004a 9042     		cmp	r0, r2	@ TIMx, tmp140
 121 004c 76D0     		beq	.L23	@,
 230:cmsis/device/stm32f4xx_tim.c ****   {      
 231:cmsis/device/stm32f4xx_tim.c ****     RCC_APB1PeriphResetCmd(RCC_APB1Periph_TIM7, ENABLE);
 232:cmsis/device/stm32f4xx_tim.c ****     RCC_APB1PeriphResetCmd(RCC_APB1Periph_TIM7, DISABLE);
 233:cmsis/device/stm32f4xx_tim.c ****   }  
 234:cmsis/device/stm32f4xx_tim.c ****   else if (TIMx == TIM8)
 122              		.loc 1 234 0
 123 004e 4FF48063 		mov	r3, #1024	@ tmp141,
 124 0052 C4F20103 		movt	r3, 16385	@ tmp141,
 125 0056 9842     		cmp	r0, r3	@ TIMx, tmp141
 126 0058 7AD0     		beq	.L24	@,
 235:cmsis/device/stm32f4xx_tim.c ****   {      
 236:cmsis/device/stm32f4xx_tim.c ****     RCC_APB2PeriphResetCmd(RCC_APB2Periph_TIM8, ENABLE);
 237:cmsis/device/stm32f4xx_tim.c ****     RCC_APB2PeriphResetCmd(RCC_APB2Periph_TIM8, DISABLE);  
 238:cmsis/device/stm32f4xx_tim.c ****   }  
 239:cmsis/device/stm32f4xx_tim.c ****   else if (TIMx == TIM9)
 127              		.loc 1 239 0
 128 005a 4FF48041 		mov	r1, #16384	@ tmp142,
 129 005e C4F20101 		movt	r1, 16385	@ tmp142,
 130 0062 8842     		cmp	r0, r1	@ TIMx, tmp142
 131 0064 7ED0     		beq	.L25	@,
 240:cmsis/device/stm32f4xx_tim.c ****   {      
 241:cmsis/device/stm32f4xx_tim.c ****     RCC_APB2PeriphResetCmd(RCC_APB2Periph_TIM9, ENABLE);
 242:cmsis/device/stm32f4xx_tim.c ****     RCC_APB2PeriphResetCmd(RCC_APB2Periph_TIM9, DISABLE);  
 243:cmsis/device/stm32f4xx_tim.c ****    }  
 244:cmsis/device/stm32f4xx_tim.c ****   else if (TIMx == TIM10)
 132              		.loc 1 244 0
 133 0066 4FF48842 		mov	r2, #17408	@ tmp143,
 134 006a C4F20102 		movt	r2, 16385	@ tmp143,
 135 006e 9042     		cmp	r0, r2	@ TIMx, tmp143
 136 0070 00F08480 		beq	.L26	@,
 245:cmsis/device/stm32f4xx_tim.c ****   {      
 246:cmsis/device/stm32f4xx_tim.c ****     RCC_APB2PeriphResetCmd(RCC_APB2Periph_TIM10, ENABLE);
 247:cmsis/device/stm32f4xx_tim.c ****     RCC_APB2PeriphResetCmd(RCC_APB2Periph_TIM10, DISABLE);  
 248:cmsis/device/stm32f4xx_tim.c ****   }  
 249:cmsis/device/stm32f4xx_tim.c ****   else if (TIMx == TIM11) 
 137              		.loc 1 249 0
 138 0074 4FF49043 		mov	r3, #18432	@ tmp144,
 139 0078 C4F20103 		movt	r3, 16385	@ tmp144,
 140 007c 9842     		cmp	r0, r3	@ TIMx, tmp144
 141 007e 00F08980 		beq	.L27	@,
 250:cmsis/device/stm32f4xx_tim.c ****   {     
 251:cmsis/device/stm32f4xx_tim.c ****     RCC_APB2PeriphResetCmd(RCC_APB2Periph_TIM11, ENABLE);
 252:cmsis/device/stm32f4xx_tim.c ****     RCC_APB2PeriphResetCmd(RCC_APB2Periph_TIM11, DISABLE);  
 253:cmsis/device/stm32f4xx_tim.c ****   }  
 254:cmsis/device/stm32f4xx_tim.c ****   else if (TIMx == TIM12)
 142              		.loc 1 254 0
 143 0082 4FF4C051 		mov	r1, #6144	@ tmp145,
 144 0086 C4F20001 		movt	r1, 16384	@ tmp145,
 145 008a 8842     		cmp	r0, r1	@ TIMx, tmp145
ARM GAS  C:\Users\CNous\AppData\Local\Temp\ccZi7tDD.s 			page 8


 146 008c 00F08E80 		beq	.L28	@,
 255:cmsis/device/stm32f4xx_tim.c ****   {      
 256:cmsis/device/stm32f4xx_tim.c ****     RCC_APB1PeriphResetCmd(RCC_APB1Periph_TIM12, ENABLE);
 257:cmsis/device/stm32f4xx_tim.c ****     RCC_APB1PeriphResetCmd(RCC_APB1Periph_TIM12, DISABLE);  
 258:cmsis/device/stm32f4xx_tim.c ****   }  
 259:cmsis/device/stm32f4xx_tim.c ****   else if (TIMx == TIM13) 
 147              		.loc 1 259 0
 148 0090 4FF4E052 		mov	r2, #7168	@ tmp146,
 149 0094 C4F20002 		movt	r2, 16384	@ tmp146,
 150 0098 9042     		cmp	r0, r2	@ TIMx, tmp146
 151 009a 00F09180 		beq	.L29	@,
 260:cmsis/device/stm32f4xx_tim.c ****   {       
 261:cmsis/device/stm32f4xx_tim.c ****     RCC_APB1PeriphResetCmd(RCC_APB1Periph_TIM13, ENABLE);
 262:cmsis/device/stm32f4xx_tim.c ****     RCC_APB1PeriphResetCmd(RCC_APB1Periph_TIM13, DISABLE);  
 263:cmsis/device/stm32f4xx_tim.c ****   }  
 264:cmsis/device/stm32f4xx_tim.c ****   else
 265:cmsis/device/stm32f4xx_tim.c ****   { 
 266:cmsis/device/stm32f4xx_tim.c ****     if (TIMx == TIM14) 
 152              		.loc 1 266 0
 153 009e 4FF40053 		mov	r3, #8192	@ tmp147,
 154 00a2 C4F20003 		movt	r3, 16384	@ tmp147,
 155 00a6 9842     		cmp	r0, r3	@ TIMx, tmp147
 156 00a8 00D0     		beq	.L30	@,
 157 00aa 08BD     		pop	{r3, pc}	@
 158              	.L30:
 267:cmsis/device/stm32f4xx_tim.c ****     {     
 268:cmsis/device/stm32f4xx_tim.c ****       RCC_APB1PeriphResetCmd(RCC_APB1Periph_TIM14, ENABLE);
 159              		.loc 1 268 0
 160 00ac 0121     		movs	r1, #1	@,
 161 00ae 4FF48070 		mov	r0, #256	@,
 162              	.LVL1:
 163 00b2 FFF7FEFF 		bl	RCC_APB1PeriphResetCmd	@
 164              	.LVL2:
 269:cmsis/device/stm32f4xx_tim.c ****       RCC_APB1PeriphResetCmd(RCC_APB1Periph_TIM14, DISABLE); 
 165              		.loc 1 269 0
 166 00b6 4FF48070 		mov	r0, #256	@,
 167 00ba 0021     		movs	r1, #0	@,
 270:cmsis/device/stm32f4xx_tim.c ****     }   
 271:cmsis/device/stm32f4xx_tim.c ****   }
 272:cmsis/device/stm32f4xx_tim.c **** }
 168              		.loc 1 272 0
 169 00bc BDE80840 		pop	{r3, lr}	@
 269:cmsis/device/stm32f4xx_tim.c ****       RCC_APB1PeriphResetCmd(RCC_APB1Periph_TIM14, DISABLE); 
 170              		.loc 1 269 0
 171 00c0 FFF7FEBF 		b	RCC_APB1PeriphResetCmd	@
 172              	.LVL3:
 173              	.L17:
 201:cmsis/device/stm32f4xx_tim.c ****     RCC_APB2PeriphResetCmd(RCC_APB2Periph_TIM1, ENABLE);
 174              		.loc 1 201 0
 175 00c4 0120     		movs	r0, #1	@,
 176              	.LVL4:
 177 00c6 0146     		mov	r1, r0	@,
 178 00c8 FFF7FEFF 		bl	RCC_APB2PeriphResetCmd	@
 179              	.LVL5:
 202:cmsis/device/stm32f4xx_tim.c ****     RCC_APB2PeriphResetCmd(RCC_APB2Periph_TIM1, DISABLE);  
 180              		.loc 1 202 0
 181 00cc 0120     		movs	r0, #1	@,
ARM GAS  C:\Users\CNous\AppData\Local\Temp\ccZi7tDD.s 			page 9


 182 00ce 0021     		movs	r1, #0	@,
 183              		.loc 1 272 0
 184 00d0 BDE80840 		pop	{r3, lr}	@
 202:cmsis/device/stm32f4xx_tim.c ****     RCC_APB2PeriphResetCmd(RCC_APB2Periph_TIM1, DISABLE);  
 185              		.loc 1 202 0
 186 00d4 FFF7FEBF 		b	RCC_APB2PeriphResetCmd	@
 187              	.LVL6:
 188              	.L18:
 206:cmsis/device/stm32f4xx_tim.c ****     RCC_APB1PeriphResetCmd(RCC_APB1Periph_TIM2, ENABLE);
 189              		.loc 1 206 0
 190 00d8 0120     		movs	r0, #1	@,
 191              	.LVL7:
 192 00da 0146     		mov	r1, r0	@,
 193 00dc FFF7FEFF 		bl	RCC_APB1PeriphResetCmd	@
 194              	.LVL8:
 207:cmsis/device/stm32f4xx_tim.c ****     RCC_APB1PeriphResetCmd(RCC_APB1Periph_TIM2, DISABLE);
 195              		.loc 1 207 0
 196 00e0 0120     		movs	r0, #1	@,
 197 00e2 0021     		movs	r1, #0	@,
 198              		.loc 1 272 0
 199 00e4 BDE80840 		pop	{r3, lr}	@
 207:cmsis/device/stm32f4xx_tim.c ****     RCC_APB1PeriphResetCmd(RCC_APB1Periph_TIM2, DISABLE);
 200              		.loc 1 207 0
 201 00e8 FFF7FEBF 		b	RCC_APB1PeriphResetCmd	@
 202              	.LVL9:
 203              	.L19:
 211:cmsis/device/stm32f4xx_tim.c ****     RCC_APB1PeriphResetCmd(RCC_APB1Periph_TIM3, ENABLE);
 204              		.loc 1 211 0
 205 00ec 0220     		movs	r0, #2	@,
 206              	.LVL10:
 207 00ee 0121     		movs	r1, #1	@,
 208 00f0 FFF7FEFF 		bl	RCC_APB1PeriphResetCmd	@
 209              	.LVL11:
 212:cmsis/device/stm32f4xx_tim.c ****     RCC_APB1PeriphResetCmd(RCC_APB1Periph_TIM3, DISABLE);
 210              		.loc 1 212 0
 211 00f4 0220     		movs	r0, #2	@,
 212 00f6 0021     		movs	r1, #0	@,
 213              		.loc 1 272 0
 214 00f8 BDE80840 		pop	{r3, lr}	@
 212:cmsis/device/stm32f4xx_tim.c ****     RCC_APB1PeriphResetCmd(RCC_APB1Periph_TIM3, DISABLE);
 215              		.loc 1 212 0
 216 00fc FFF7FEBF 		b	RCC_APB1PeriphResetCmd	@
 217              	.LVL12:
 218              	.L20:
 216:cmsis/device/stm32f4xx_tim.c ****     RCC_APB1PeriphResetCmd(RCC_APB1Periph_TIM4, ENABLE);
 219              		.loc 1 216 0
 220 0100 0420     		movs	r0, #4	@,
 221              	.LVL13:
 222 0102 0121     		movs	r1, #1	@,
 223 0104 FFF7FEFF 		bl	RCC_APB1PeriphResetCmd	@
 224              	.LVL14:
 217:cmsis/device/stm32f4xx_tim.c ****     RCC_APB1PeriphResetCmd(RCC_APB1Periph_TIM4, DISABLE);
 225              		.loc 1 217 0
 226 0108 0420     		movs	r0, #4	@,
 227 010a 0021     		movs	r1, #0	@,
 228              		.loc 1 272 0
 229 010c BDE80840 		pop	{r3, lr}	@
ARM GAS  C:\Users\CNous\AppData\Local\Temp\ccZi7tDD.s 			page 10


 217:cmsis/device/stm32f4xx_tim.c ****     RCC_APB1PeriphResetCmd(RCC_APB1Periph_TIM4, DISABLE);
 230              		.loc 1 217 0
 231 0110 FFF7FEBF 		b	RCC_APB1PeriphResetCmd	@
 232              	.LVL15:
 233              	.L21:
 221:cmsis/device/stm32f4xx_tim.c ****     RCC_APB1PeriphResetCmd(RCC_APB1Periph_TIM5, ENABLE);
 234              		.loc 1 221 0
 235 0114 0820     		movs	r0, #8	@,
 236              	.LVL16:
 237 0116 0121     		movs	r1, #1	@,
 238 0118 FFF7FEFF 		bl	RCC_APB1PeriphResetCmd	@
 239              	.LVL17:
 222:cmsis/device/stm32f4xx_tim.c ****     RCC_APB1PeriphResetCmd(RCC_APB1Periph_TIM5, DISABLE);
 240              		.loc 1 222 0
 241 011c 0820     		movs	r0, #8	@,
 242 011e 0021     		movs	r1, #0	@,
 243              		.loc 1 272 0
 244 0120 BDE80840 		pop	{r3, lr}	@
 222:cmsis/device/stm32f4xx_tim.c ****     RCC_APB1PeriphResetCmd(RCC_APB1Periph_TIM5, DISABLE);
 245              		.loc 1 222 0
 246 0124 FFF7FEBF 		b	RCC_APB1PeriphResetCmd	@
 247              	.LVL18:
 248              	.L22:
 226:cmsis/device/stm32f4xx_tim.c ****     RCC_APB1PeriphResetCmd(RCC_APB1Periph_TIM6, ENABLE);
 249              		.loc 1 226 0
 250 0128 1020     		movs	r0, #16	@,
 251              	.LVL19:
 252 012a 0121     		movs	r1, #1	@,
 253 012c FFF7FEFF 		bl	RCC_APB1PeriphResetCmd	@
 254              	.LVL20:
 227:cmsis/device/stm32f4xx_tim.c ****     RCC_APB1PeriphResetCmd(RCC_APB1Periph_TIM6, DISABLE);
 255              		.loc 1 227 0
 256 0130 1020     		movs	r0, #16	@,
 257 0132 0021     		movs	r1, #0	@,
 258              		.loc 1 272 0
 259 0134 BDE80840 		pop	{r3, lr}	@
 227:cmsis/device/stm32f4xx_tim.c ****     RCC_APB1PeriphResetCmd(RCC_APB1Periph_TIM6, DISABLE);
 260              		.loc 1 227 0
 261 0138 FFF7FEBF 		b	RCC_APB1PeriphResetCmd	@
 262              	.LVL21:
 263              	.L23:
 231:cmsis/device/stm32f4xx_tim.c ****     RCC_APB1PeriphResetCmd(RCC_APB1Periph_TIM7, ENABLE);
 264              		.loc 1 231 0
 265 013c 2020     		movs	r0, #32	@,
 266              	.LVL22:
 267 013e 0121     		movs	r1, #1	@,
 268 0140 FFF7FEFF 		bl	RCC_APB1PeriphResetCmd	@
 269              	.LVL23:
 232:cmsis/device/stm32f4xx_tim.c ****     RCC_APB1PeriphResetCmd(RCC_APB1Periph_TIM7, DISABLE);
 270              		.loc 1 232 0
 271 0144 2020     		movs	r0, #32	@,
 272 0146 0021     		movs	r1, #0	@,
 273              		.loc 1 272 0
 274 0148 BDE80840 		pop	{r3, lr}	@
 232:cmsis/device/stm32f4xx_tim.c ****     RCC_APB1PeriphResetCmd(RCC_APB1Periph_TIM7, DISABLE);
 275              		.loc 1 232 0
 276 014c FFF7FEBF 		b	RCC_APB1PeriphResetCmd	@
ARM GAS  C:\Users\CNous\AppData\Local\Temp\ccZi7tDD.s 			page 11


 277              	.LVL24:
 278              	.L24:
 236:cmsis/device/stm32f4xx_tim.c ****     RCC_APB2PeriphResetCmd(RCC_APB2Periph_TIM8, ENABLE);
 279              		.loc 1 236 0
 280 0150 0220     		movs	r0, #2	@,
 281              	.LVL25:
 282 0152 0121     		movs	r1, #1	@,
 283 0154 FFF7FEFF 		bl	RCC_APB2PeriphResetCmd	@
 284              	.LVL26:
 237:cmsis/device/stm32f4xx_tim.c ****     RCC_APB2PeriphResetCmd(RCC_APB2Periph_TIM8, DISABLE);  
 285              		.loc 1 237 0
 286 0158 0220     		movs	r0, #2	@,
 287 015a 0021     		movs	r1, #0	@,
 288              		.loc 1 272 0
 289 015c BDE80840 		pop	{r3, lr}	@
 237:cmsis/device/stm32f4xx_tim.c ****     RCC_APB2PeriphResetCmd(RCC_APB2Periph_TIM8, DISABLE);  
 290              		.loc 1 237 0
 291 0160 FFF7FEBF 		b	RCC_APB2PeriphResetCmd	@
 292              	.LVL27:
 293              	.L25:
 241:cmsis/device/stm32f4xx_tim.c ****     RCC_APB2PeriphResetCmd(RCC_APB2Periph_TIM9, ENABLE);
 294              		.loc 1 241 0
 295 0164 0121     		movs	r1, #1	@,
 296 0166 4FF48030 		mov	r0, #65536	@,
 297              	.LVL28:
 298 016a FFF7FEFF 		bl	RCC_APB2PeriphResetCmd	@
 299              	.LVL29:
 242:cmsis/device/stm32f4xx_tim.c ****     RCC_APB2PeriphResetCmd(RCC_APB2Periph_TIM9, DISABLE);  
 300              		.loc 1 242 0
 301 016e 4FF48030 		mov	r0, #65536	@,
 302 0172 0021     		movs	r1, #0	@,
 303              		.loc 1 272 0
 304 0174 BDE80840 		pop	{r3, lr}	@
 242:cmsis/device/stm32f4xx_tim.c ****     RCC_APB2PeriphResetCmd(RCC_APB2Periph_TIM9, DISABLE);  
 305              		.loc 1 242 0
 306 0178 FFF7FEBF 		b	RCC_APB2PeriphResetCmd	@
 307              	.LVL30:
 308              	.L26:
 246:cmsis/device/stm32f4xx_tim.c ****     RCC_APB2PeriphResetCmd(RCC_APB2Periph_TIM10, ENABLE);
 309              		.loc 1 246 0
 310 017c 0121     		movs	r1, #1	@,
 311 017e 4FF40030 		mov	r0, #131072	@,
 312              	.LVL31:
 313 0182 FFF7FEFF 		bl	RCC_APB2PeriphResetCmd	@
 314              	.LVL32:
 247:cmsis/device/stm32f4xx_tim.c ****     RCC_APB2PeriphResetCmd(RCC_APB2Periph_TIM10, DISABLE);  
 315              		.loc 1 247 0
 316 0186 4FF40030 		mov	r0, #131072	@,
 317 018a 0021     		movs	r1, #0	@,
 318              		.loc 1 272 0
 319 018c BDE80840 		pop	{r3, lr}	@
 247:cmsis/device/stm32f4xx_tim.c ****     RCC_APB2PeriphResetCmd(RCC_APB2Periph_TIM10, DISABLE);  
 320              		.loc 1 247 0
 321 0190 FFF7FEBF 		b	RCC_APB2PeriphResetCmd	@
 322              	.LVL33:
 323              	.L27:
 251:cmsis/device/stm32f4xx_tim.c ****     RCC_APB2PeriphResetCmd(RCC_APB2Periph_TIM11, ENABLE);
ARM GAS  C:\Users\CNous\AppData\Local\Temp\ccZi7tDD.s 			page 12


 324              		.loc 1 251 0
 325 0194 0121     		movs	r1, #1	@,
 326 0196 4FF48020 		mov	r0, #262144	@,
 327              	.LVL34:
 328 019a FFF7FEFF 		bl	RCC_APB2PeriphResetCmd	@
 329              	.LVL35:
 252:cmsis/device/stm32f4xx_tim.c ****     RCC_APB2PeriphResetCmd(RCC_APB2Periph_TIM11, DISABLE);  
 330              		.loc 1 252 0
 331 019e 4FF48020 		mov	r0, #262144	@,
 332 01a2 0021     		movs	r1, #0	@,
 333              		.loc 1 272 0
 334 01a4 BDE80840 		pop	{r3, lr}	@
 252:cmsis/device/stm32f4xx_tim.c ****     RCC_APB2PeriphResetCmd(RCC_APB2Periph_TIM11, DISABLE);  
 335              		.loc 1 252 0
 336 01a8 FFF7FEBF 		b	RCC_APB2PeriphResetCmd	@
 337              	.LVL36:
 338              	.L28:
 256:cmsis/device/stm32f4xx_tim.c ****     RCC_APB1PeriphResetCmd(RCC_APB1Periph_TIM12, ENABLE);
 339              		.loc 1 256 0
 340 01ac 4020     		movs	r0, #64	@,
 341              	.LVL37:
 342 01ae 0121     		movs	r1, #1	@,
 343 01b0 FFF7FEFF 		bl	RCC_APB1PeriphResetCmd	@
 344              	.LVL38:
 257:cmsis/device/stm32f4xx_tim.c ****     RCC_APB1PeriphResetCmd(RCC_APB1Periph_TIM12, DISABLE);  
 345              		.loc 1 257 0
 346 01b4 4020     		movs	r0, #64	@,
 347 01b6 0021     		movs	r1, #0	@,
 348              		.loc 1 272 0
 349 01b8 BDE80840 		pop	{r3, lr}	@
 257:cmsis/device/stm32f4xx_tim.c ****     RCC_APB1PeriphResetCmd(RCC_APB1Periph_TIM12, DISABLE);  
 350              		.loc 1 257 0
 351 01bc FFF7FEBF 		b	RCC_APB1PeriphResetCmd	@
 352              	.LVL39:
 353              	.L29:
 261:cmsis/device/stm32f4xx_tim.c ****     RCC_APB1PeriphResetCmd(RCC_APB1Periph_TIM13, ENABLE);
 354              		.loc 1 261 0
 355 01c0 8020     		movs	r0, #128	@,
 356              	.LVL40:
 357 01c2 0121     		movs	r1, #1	@,
 358 01c4 FFF7FEFF 		bl	RCC_APB1PeriphResetCmd	@
 359              	.LVL41:
 262:cmsis/device/stm32f4xx_tim.c ****     RCC_APB1PeriphResetCmd(RCC_APB1Periph_TIM13, DISABLE);  
 360              		.loc 1 262 0
 361 01c8 8020     		movs	r0, #128	@,
 362 01ca 0021     		movs	r1, #0	@,
 363              		.loc 1 272 0
 364 01cc BDE80840 		pop	{r3, lr}	@
 262:cmsis/device/stm32f4xx_tim.c ****     RCC_APB1PeriphResetCmd(RCC_APB1Periph_TIM13, DISABLE);  
 365              		.loc 1 262 0
 366 01d0 FFF7FEBF 		b	RCC_APB1PeriphResetCmd	@
 367              	.LVL42:
 368              		.cfi_endproc
 369              	.LFE110:
 370              		.size	TIM_DeInit, .-TIM_DeInit
 371              		.section	.text.TIM_TimeBaseInit,"ax",%progbits
 372              		.align	2
ARM GAS  C:\Users\CNous\AppData\Local\Temp\ccZi7tDD.s 			page 13


 373              		.global	TIM_TimeBaseInit
 374              		.thumb
 375              		.thumb_func
 376              		.type	TIM_TimeBaseInit, %function
 377              	TIM_TimeBaseInit:
 378              	.LFB111:
 273:cmsis/device/stm32f4xx_tim.c **** 
 274:cmsis/device/stm32f4xx_tim.c **** /**
 275:cmsis/device/stm32f4xx_tim.c ****   * @brief  Initializes the TIMx Time Base Unit peripheral according to 
 276:cmsis/device/stm32f4xx_tim.c ****   *         the specified parameters in the TIM_TimeBaseInitStruct.
 277:cmsis/device/stm32f4xx_tim.c ****   * @param  TIMx: where x can be  1 to 14 to select the TIM peripheral.
 278:cmsis/device/stm32f4xx_tim.c ****   * @param  TIM_TimeBaseInitStruct: pointer to a TIM_TimeBaseInitTypeDef structure
 279:cmsis/device/stm32f4xx_tim.c ****   *         that contains the configuration information for the specified TIM peripheral.
 280:cmsis/device/stm32f4xx_tim.c ****   * @retval None
 281:cmsis/device/stm32f4xx_tim.c ****   */
 282:cmsis/device/stm32f4xx_tim.c **** void TIM_TimeBaseInit(TIM_TypeDef* TIMx, TIM_TimeBaseInitTypeDef* TIM_TimeBaseInitStruct)
 283:cmsis/device/stm32f4xx_tim.c **** {
 379              		.loc 1 283 0
 380              		.cfi_startproc
 381              		@ args = 0, pretend = 0, frame = 0
 382              		@ frame_needed = 0, uses_anonymous_args = 0
 383              		@ link register save eliminated.
 384              	.LVL43:
 284:cmsis/device/stm32f4xx_tim.c ****   uint16_t tmpcr1 = 0;
 285:cmsis/device/stm32f4xx_tim.c **** 
 286:cmsis/device/stm32f4xx_tim.c ****   /* Check the parameters */
 287:cmsis/device/stm32f4xx_tim.c ****   assert_param(IS_TIM_ALL_PERIPH(TIMx)); 
 288:cmsis/device/stm32f4xx_tim.c ****   assert_param(IS_TIM_COUNTER_MODE(TIM_TimeBaseInitStruct->TIM_CounterMode));
 289:cmsis/device/stm32f4xx_tim.c ****   assert_param(IS_TIM_CKD_DIV(TIM_TimeBaseInitStruct->TIM_ClockDivision));
 290:cmsis/device/stm32f4xx_tim.c **** 
 291:cmsis/device/stm32f4xx_tim.c ****   tmpcr1 = TIMx->CR1;  
 292:cmsis/device/stm32f4xx_tim.c **** 
 293:cmsis/device/stm32f4xx_tim.c ****   if((TIMx == TIM1) || (TIMx == TIM8)||
 385              		.loc 1 293 0
 386 0000 0022     		movs	r2, #0	@ tmp153,
 291:cmsis/device/stm32f4xx_tim.c ****   tmpcr1 = TIMx->CR1;  
 387              		.loc 1 291 0
 388 0002 0388     		ldrh	r3, [r0, #0]	@, TIMx_4(D)->CR1
 389              		.loc 1 293 0
 390 0004 C4F20102 		movt	r2, 16385	@ tmp153,
 391 0008 9042     		cmp	r0, r2	@ TIMx, tmp153
 283:cmsis/device/stm32f4xx_tim.c **** {
 392              		.loc 1 283 0
 393 000a 70B4     		push	{r4, r5, r6}	@
 394              	.LCFI1:
 395              		.cfi_def_cfa_offset 12
 396              		.cfi_offset 4, -12
 397              		.cfi_offset 5, -8
 398              		.cfi_offset 6, -4
 291:cmsis/device/stm32f4xx_tim.c ****   tmpcr1 = TIMx->CR1;  
 399              		.loc 1 291 0
 400 000c 9BB2     		uxth	r3, r3	@ tmpcr1, TIMx_4(D)->CR1
 401              	.LVL44:
 402              		.loc 1 293 0
 403 000e 1AD0     		beq	.L32	@,
 404              		.loc 1 293 0 is_stmt 0 discriminator 1
 405 0010 4FF48062 		mov	r2, #1024	@ tmp154,
ARM GAS  C:\Users\CNous\AppData\Local\Temp\ccZi7tDD.s 			page 14


 406 0014 C4F20102 		movt	r2, 16385	@ tmp154,
 407 0018 9042     		cmp	r0, r2	@ TIMx, tmp154
 408 001a 14D0     		beq	.L32	@,
 409 001c B0F1804F 		cmp	r0, #1073741824	@ TIMx,
 410 0020 11D0     		beq	.L32	@,
 294:cmsis/device/stm32f4xx_tim.c ****      (TIMx == TIM2) || (TIMx == TIM3)||
 411              		.loc 1 294 0 is_stmt 1
 412 0022 4FF48062 		mov	r2, #1024	@ tmp155,
 413 0026 C4F20002 		movt	r2, 16384	@ tmp155,
 414 002a 9042     		cmp	r0, r2	@ TIMx, tmp155
 415 002c 0BD0     		beq	.L32	@,
 416              		.loc 1 294 0 is_stmt 0 discriminator 1
 417 002e 4FF40062 		mov	r2, #2048	@ tmp156,
 418 0032 C4F20002 		movt	r2, 16384	@ tmp156,
 419 0036 9042     		cmp	r0, r2	@ TIMx, tmp156
 420 0038 05D0     		beq	.L32	@,
 295:cmsis/device/stm32f4xx_tim.c ****      (TIMx == TIM4) || (TIMx == TIM5)) 
 421              		.loc 1 295 0 is_stmt 1
 422 003a 4FF44062 		mov	r2, #3072	@ tmp157,
 423 003e C4F20002 		movt	r2, 16384	@ tmp157,
 424 0042 9042     		cmp	r0, r2	@ TIMx, tmp157
 425 0044 05D1     		bne	.L33	@,
 426              	.L32:
 296:cmsis/device/stm32f4xx_tim.c ****   {
 297:cmsis/device/stm32f4xx_tim.c ****     /* Select the Counter Mode */
 298:cmsis/device/stm32f4xx_tim.c ****     tmpcr1 &= (uint16_t)(~(TIM_CR1_DIR | TIM_CR1_CMS));
 427              		.loc 1 298 0
 428 0046 4FF68F72 		movw	r2, #65423	@ tmpcr1,
 299:cmsis/device/stm32f4xx_tim.c ****     tmpcr1 |= (uint32_t)TIM_TimeBaseInitStruct->TIM_CounterMode;
 429              		.loc 1 299 0
 430 004a 4C88     		ldrh	r4, [r1, #2]	@ tmp160, TIM_TimeBaseInitStruct_7(D)->TIM_CounterMode
 298:cmsis/device/stm32f4xx_tim.c ****     tmpcr1 &= (uint16_t)(~(TIM_CR1_DIR | TIM_CR1_CMS));
 431              		.loc 1 298 0
 432 004c 1A40     		ands	r2, r2, r3	@, tmpcr1, tmpcr1, tmpcr1
 433              	.LVL45:
 434              		.loc 1 299 0
 435 004e 42EA0403 		orr	r3, r2, r4	@ tmpcr1, tmpcr1, tmp160
 436              	.LVL46:
 437              	.L33:
 300:cmsis/device/stm32f4xx_tim.c ****   }
 301:cmsis/device/stm32f4xx_tim.c ****  
 302:cmsis/device/stm32f4xx_tim.c ****   if((TIMx != TIM6) && (TIMx != TIM7))
 438              		.loc 1 302 0
 439 0052 4FF48052 		mov	r2, #4096	@ tmp161,
 440 0056 C4F20002 		movt	r2, 16384	@ tmp161,
 441 005a 9042     		cmp	r0, r2	@ TIMx, tmp161
 442 005c 21D0     		beq	.L35	@,
 443              		.loc 1 302 0 is_stmt 0 discriminator 1
 444 005e 4FF4A052 		mov	r2, #5120	@ tmp162,
 445 0062 C4F20002 		movt	r2, 16384	@ tmp162,
 446 0066 9042     		cmp	r0, r2	@ TIMx, tmp162
 447 0068 1BD0     		beq	.L35	@,
 303:cmsis/device/stm32f4xx_tim.c ****   {
 304:cmsis/device/stm32f4xx_tim.c ****     /* Set the clock division */
 305:cmsis/device/stm32f4xx_tim.c ****     tmpcr1 &=  (uint16_t)(~TIM_CR1_CKD);
 448              		.loc 1 305 0 is_stmt 1
 449 006a 4FF6FF42 		movw	r2, #64767	@ tmpcr1,
ARM GAS  C:\Users\CNous\AppData\Local\Temp\ccZi7tDD.s 			page 15


 306:cmsis/device/stm32f4xx_tim.c ****     tmpcr1 |= (uint32_t)TIM_TimeBaseInitStruct->TIM_ClockDivision;
 450              		.loc 1 306 0
 451 006e 0E89     		ldrh	r6, [r1, #8]	@ tmp165, TIM_TimeBaseInitStruct_7(D)->TIM_ClockDivision
 307:cmsis/device/stm32f4xx_tim.c ****   }
 308:cmsis/device/stm32f4xx_tim.c **** 
 309:cmsis/device/stm32f4xx_tim.c ****   TIMx->CR1 = tmpcr1;
 310:cmsis/device/stm32f4xx_tim.c **** 
 311:cmsis/device/stm32f4xx_tim.c ****   /* Set the Autoreload value */
 312:cmsis/device/stm32f4xx_tim.c ****   TIMx->ARR = TIM_TimeBaseInitStruct->TIM_Period ;
 452              		.loc 1 312 0
 453 0070 4C68     		ldr	r4, [r1, #4]	@ D.7334, TIM_TimeBaseInitStruct_7(D)->TIM_Period
 313:cmsis/device/stm32f4xx_tim.c ****  
 314:cmsis/device/stm32f4xx_tim.c ****   /* Set the Prescaler value */
 315:cmsis/device/stm32f4xx_tim.c ****   TIMx->PSC = TIM_TimeBaseInitStruct->TIM_Prescaler;
 454              		.loc 1 315 0
 455 0072 0D88     		ldrh	r5, [r1, #0]	@ D.7335, TIM_TimeBaseInitStruct_7(D)->TIM_Prescaler
 305:cmsis/device/stm32f4xx_tim.c ****     tmpcr1 &=  (uint16_t)(~TIM_CR1_CKD);
 456              		.loc 1 305 0
 457 0074 1A40     		ands	r2, r2, r3	@, tmpcr1, tmpcr1, tmpcr1
 458              	.LVL47:
 316:cmsis/device/stm32f4xx_tim.c ****     
 317:cmsis/device/stm32f4xx_tim.c ****   if ((TIMx == TIM1) || (TIMx == TIM8))  
 459              		.loc 1 317 0
 460 0076 0023     		movs	r3, #0	@ tmp168,
 461 0078 C4F20103 		movt	r3, 16385	@ tmp168,
 306:cmsis/device/stm32f4xx_tim.c ****     tmpcr1 |= (uint32_t)TIM_TimeBaseInitStruct->TIM_ClockDivision;
 462              		.loc 1 306 0
 463 007c 3243     		orrs	r2, r2, r6	@, tmpcr1, tmpcr1, tmp165
 464              	.LVL48:
 465              		.loc 1 317 0
 466 007e 9842     		cmp	r0, r3	@ TIMx, tmp168
 309:cmsis/device/stm32f4xx_tim.c ****   TIMx->CR1 = tmpcr1;
 467              		.loc 1 309 0
 468 0080 0280     		strh	r2, [r0, #0]	@ movhi	@ tmpcr1, TIMx_4(D)->CR1
 312:cmsis/device/stm32f4xx_tim.c ****   TIMx->ARR = TIM_TimeBaseInitStruct->TIM_Period ;
 469              		.loc 1 312 0
 470 0082 C462     		str	r4, [r0, #44]	@ D.7334, TIMx_4(D)->ARR
 315:cmsis/device/stm32f4xx_tim.c ****   TIMx->PSC = TIM_TimeBaseInitStruct->TIM_Prescaler;
 471              		.loc 1 315 0
 472 0084 0585     		strh	r5, [r0, #40]	@ movhi	@ D.7335, TIMx_4(D)->PSC
 473              		.loc 1 317 0
 474 0086 09D0     		beq	.L38	@,
 475              		.loc 1 317 0 is_stmt 0 discriminator 1
 476 0088 4FF48062 		mov	r2, #1024	@ tmp172,
 477              	.LVL49:
 478 008c C4F20102 		movt	r2, 16385	@ tmp172,
 479 0090 9042     		cmp	r0, r2	@ TIMx, tmp172
 480 0092 03D0     		beq	.L38	@,
 481              	.LVL50:
 482              	.L37:
 318:cmsis/device/stm32f4xx_tim.c ****   {
 319:cmsis/device/stm32f4xx_tim.c ****     /* Set the Repetition Counter value */
 320:cmsis/device/stm32f4xx_tim.c ****     TIMx->RCR = TIM_TimeBaseInitStruct->TIM_RepetitionCounter;
 321:cmsis/device/stm32f4xx_tim.c ****   }
 322:cmsis/device/stm32f4xx_tim.c **** 
 323:cmsis/device/stm32f4xx_tim.c ****   /* Generate an update event to reload the Prescaler 
 324:cmsis/device/stm32f4xx_tim.c ****      and the repetition counter(only for TIM1 and TIM8) value immediatly */
ARM GAS  C:\Users\CNous\AppData\Local\Temp\ccZi7tDD.s 			page 16


 325:cmsis/device/stm32f4xx_tim.c ****   TIMx->EGR = TIM_PSCReloadMode_Immediate;          
 483              		.loc 1 325 0 is_stmt 1
 484 0094 0123     		movs	r3, #1	@ tmp174,
 485 0096 8382     		strh	r3, [r0, #20]	@ movhi	@ tmp174, TIMx_4(D)->EGR
 326:cmsis/device/stm32f4xx_tim.c **** }
 486              		.loc 1 326 0
 487 0098 70BC     		pop	{r4, r5, r6}
 488 009a 7047     		bx	lr
 489              	.LVL51:
 490              	.L38:
 320:cmsis/device/stm32f4xx_tim.c ****     TIMx->RCR = TIM_TimeBaseInitStruct->TIM_RepetitionCounter;
 491              		.loc 1 320 0
 492 009c 897A     		ldrb	r1, [r1, #10]	@ zero_extendqisi2	@ TIM_TimeBaseInitStruct_7(D)->TIM_RepetitionCounter, TIM_Ti
 493              	.LVL52:
 494 009e 0186     		strh	r1, [r0, #48]	@ movhi	@ TIM_TimeBaseInitStruct_7(D)->TIM_RepetitionCounter, TIMx_4(D)->RCR
 495 00a0 F8E7     		b	.L37	@
 496              	.LVL53:
 497              	.L35:
 309:cmsis/device/stm32f4xx_tim.c ****   TIMx->CR1 = tmpcr1;
 498              		.loc 1 309 0
 499 00a2 0380     		strh	r3, [r0, #0]	@ movhi	@ tmpcr1,* TIMx
 312:cmsis/device/stm32f4xx_tim.c ****   TIMx->ARR = TIM_TimeBaseInitStruct->TIM_Period ;
 500              		.loc 1 312 0
 501 00a4 4A68     		ldr	r2, [r1, #4]	@ D.7334, TIM_TimeBaseInitStruct_7(D)->TIM_Period
 315:cmsis/device/stm32f4xx_tim.c ****   TIMx->PSC = TIM_TimeBaseInitStruct->TIM_Prescaler;
 502              		.loc 1 315 0
 503 00a6 0988     		ldrh	r1, [r1, #0]	@ D.7335, TIM_TimeBaseInitStruct_7(D)->TIM_Prescaler
 504              	.LVL54:
 312:cmsis/device/stm32f4xx_tim.c ****   TIMx->ARR = TIM_TimeBaseInitStruct->TIM_Period ;
 505              		.loc 1 312 0
 506 00a8 C262     		str	r2, [r0, #44]	@ D.7334,
 315:cmsis/device/stm32f4xx_tim.c ****   TIMx->PSC = TIM_TimeBaseInitStruct->TIM_Prescaler;
 507              		.loc 1 315 0
 508 00aa 0185     		strh	r1, [r0, #40]	@ movhi	@ D.7335,
 509 00ac F2E7     		b	.L37	@
 510              		.cfi_endproc
 511              	.LFE111:
 512              		.size	TIM_TimeBaseInit, .-TIM_TimeBaseInit
 513 00ae 00BF     		.section	.text.TIM_TimeBaseStructInit,"ax",%progbits
 514              		.align	2
 515              		.global	TIM_TimeBaseStructInit
 516              		.thumb
 517              		.thumb_func
 518              		.type	TIM_TimeBaseStructInit, %function
 519              	TIM_TimeBaseStructInit:
 520              	.LFB112:
 327:cmsis/device/stm32f4xx_tim.c **** 
 328:cmsis/device/stm32f4xx_tim.c **** /**
 329:cmsis/device/stm32f4xx_tim.c ****   * @brief  Fills each TIM_TimeBaseInitStruct member with its default value.
 330:cmsis/device/stm32f4xx_tim.c ****   * @param  TIM_TimeBaseInitStruct : pointer to a TIM_TimeBaseInitTypeDef
 331:cmsis/device/stm32f4xx_tim.c ****   *         structure which will be initialized.
 332:cmsis/device/stm32f4xx_tim.c ****   * @retval None
 333:cmsis/device/stm32f4xx_tim.c ****   */
 334:cmsis/device/stm32f4xx_tim.c **** void TIM_TimeBaseStructInit(TIM_TimeBaseInitTypeDef* TIM_TimeBaseInitStruct)
 335:cmsis/device/stm32f4xx_tim.c **** {
 521              		.loc 1 335 0
 522              		.cfi_startproc
ARM GAS  C:\Users\CNous\AppData\Local\Temp\ccZi7tDD.s 			page 17


 523              		@ args = 0, pretend = 0, frame = 0
 524              		@ frame_needed = 0, uses_anonymous_args = 0
 525              		@ link register save eliminated.
 526              	.LVL55:
 336:cmsis/device/stm32f4xx_tim.c ****   /* Set the default configuration */
 337:cmsis/device/stm32f4xx_tim.c ****   TIM_TimeBaseInitStruct->TIM_Period = 0xFFFFFFFF;
 338:cmsis/device/stm32f4xx_tim.c ****   TIM_TimeBaseInitStruct->TIM_Prescaler = 0x0000;
 527              		.loc 1 338 0
 528 0000 0023     		movs	r3, #0	@ tmp137,
 337:cmsis/device/stm32f4xx_tim.c ****   TIM_TimeBaseInitStruct->TIM_Period = 0xFFFFFFFF;
 529              		.loc 1 337 0
 530 0002 4FF0FF31 		mov	r1, #-1	@ tmp135,
 531 0006 4160     		str	r1, [r0, #4]	@ tmp135, TIM_TimeBaseInitStruct_1(D)->TIM_Period
 532              		.loc 1 338 0
 533 0008 0380     		strh	r3, [r0, #0]	@ movhi	@ tmp137, TIM_TimeBaseInitStruct_1(D)->TIM_Prescaler
 339:cmsis/device/stm32f4xx_tim.c ****   TIM_TimeBaseInitStruct->TIM_ClockDivision = TIM_CKD_DIV1;
 534              		.loc 1 339 0
 535 000a 0381     		strh	r3, [r0, #8]	@ movhi	@ tmp137, TIM_TimeBaseInitStruct_1(D)->TIM_ClockDivision
 340:cmsis/device/stm32f4xx_tim.c ****   TIM_TimeBaseInitStruct->TIM_CounterMode = TIM_CounterMode_Up;
 536              		.loc 1 340 0
 537 000c 4380     		strh	r3, [r0, #2]	@ movhi	@ tmp137, TIM_TimeBaseInitStruct_1(D)->TIM_CounterMode
 341:cmsis/device/stm32f4xx_tim.c ****   TIM_TimeBaseInitStruct->TIM_RepetitionCounter = 0x0000;
 538              		.loc 1 341 0
 539 000e 8372     		strb	r3, [r0, #10]	@ tmp136, TIM_TimeBaseInitStruct_1(D)->TIM_RepetitionCounter
 540 0010 7047     		bx	lr	@
 541              		.cfi_endproc
 542              	.LFE112:
 543              		.size	TIM_TimeBaseStructInit, .-TIM_TimeBaseStructInit
 544 0012 00BF     		.section	.text.TIM_PrescalerConfig,"ax",%progbits
 545              		.align	2
 546              		.global	TIM_PrescalerConfig
 547              		.thumb
 548              		.thumb_func
 549              		.type	TIM_PrescalerConfig, %function
 550              	TIM_PrescalerConfig:
 551              	.LFB113:
 342:cmsis/device/stm32f4xx_tim.c **** }
 343:cmsis/device/stm32f4xx_tim.c **** 
 344:cmsis/device/stm32f4xx_tim.c **** /**
 345:cmsis/device/stm32f4xx_tim.c ****   * @brief  Configures the TIMx Prescaler.
 346:cmsis/device/stm32f4xx_tim.c ****   * @param  TIMx: where x can be  1 to 14 to select the TIM peripheral.
 347:cmsis/device/stm32f4xx_tim.c ****   * @param  Prescaler: specifies the Prescaler Register value
 348:cmsis/device/stm32f4xx_tim.c ****   * @param  TIM_PSCReloadMode: specifies the TIM Prescaler Reload mode
 349:cmsis/device/stm32f4xx_tim.c ****   *          This parameter can be one of the following values:
 350:cmsis/device/stm32f4xx_tim.c ****   *            @arg TIM_PSCReloadMode_Update: The Prescaler is loaded at the update event.
 351:cmsis/device/stm32f4xx_tim.c ****   *            @arg TIM_PSCReloadMode_Immediate: The Prescaler is loaded immediatly.
 352:cmsis/device/stm32f4xx_tim.c ****   * @retval None
 353:cmsis/device/stm32f4xx_tim.c ****   */
 354:cmsis/device/stm32f4xx_tim.c **** void TIM_PrescalerConfig(TIM_TypeDef* TIMx, uint16_t Prescaler, uint16_t TIM_PSCReloadMode)
 355:cmsis/device/stm32f4xx_tim.c **** {
 552              		.loc 1 355 0
 553              		.cfi_startproc
 554              		@ args = 0, pretend = 0, frame = 0
 555              		@ frame_needed = 0, uses_anonymous_args = 0
 556              		@ link register save eliminated.
 557              	.LVL56:
 356:cmsis/device/stm32f4xx_tim.c ****   /* Check the parameters */
ARM GAS  C:\Users\CNous\AppData\Local\Temp\ccZi7tDD.s 			page 18


 357:cmsis/device/stm32f4xx_tim.c ****   assert_param(IS_TIM_ALL_PERIPH(TIMx));
 358:cmsis/device/stm32f4xx_tim.c ****   assert_param(IS_TIM_PRESCALER_RELOAD(TIM_PSCReloadMode));
 359:cmsis/device/stm32f4xx_tim.c ****   /* Set the Prescaler value */
 360:cmsis/device/stm32f4xx_tim.c ****   TIMx->PSC = Prescaler;
 558              		.loc 1 360 0
 559 0000 0185     		strh	r1, [r0, #40]	@ movhi	@ Prescaler, TIMx_1(D)->PSC
 361:cmsis/device/stm32f4xx_tim.c ****   /* Set or reset the UG Bit */
 362:cmsis/device/stm32f4xx_tim.c ****   TIMx->EGR = TIM_PSCReloadMode;
 560              		.loc 1 362 0
 561 0002 8282     		strh	r2, [r0, #20]	@ movhi	@ TIM_PSCReloadMode, TIMx_1(D)->EGR
 562 0004 7047     		bx	lr	@
 563              		.cfi_endproc
 564              	.LFE113:
 565              		.size	TIM_PrescalerConfig, .-TIM_PrescalerConfig
 566 0006 00BF     		.section	.text.TIM_CounterModeConfig,"ax",%progbits
 567              		.align	2
 568              		.global	TIM_CounterModeConfig
 569              		.thumb
 570              		.thumb_func
 571              		.type	TIM_CounterModeConfig, %function
 572              	TIM_CounterModeConfig:
 573              	.LFB114:
 363:cmsis/device/stm32f4xx_tim.c **** }
 364:cmsis/device/stm32f4xx_tim.c **** 
 365:cmsis/device/stm32f4xx_tim.c **** /**
 366:cmsis/device/stm32f4xx_tim.c ****   * @brief  Specifies the TIMx Counter Mode to be used.
 367:cmsis/device/stm32f4xx_tim.c ****   * @param  TIMx: where x can be  1, 2, 3, 4, 5 or 8 to select the TIM peripheral.
 368:cmsis/device/stm32f4xx_tim.c ****   * @param  TIM_CounterMode: specifies the Counter Mode to be used
 369:cmsis/device/stm32f4xx_tim.c ****   *          This parameter can be one of the following values:
 370:cmsis/device/stm32f4xx_tim.c ****   *            @arg TIM_CounterMode_Up: TIM Up Counting Mode
 371:cmsis/device/stm32f4xx_tim.c ****   *            @arg TIM_CounterMode_Down: TIM Down Counting Mode
 372:cmsis/device/stm32f4xx_tim.c ****   *            @arg TIM_CounterMode_CenterAligned1: TIM Center Aligned Mode1
 373:cmsis/device/stm32f4xx_tim.c ****   *            @arg TIM_CounterMode_CenterAligned2: TIM Center Aligned Mode2
 374:cmsis/device/stm32f4xx_tim.c ****   *            @arg TIM_CounterMode_CenterAligned3: TIM Center Aligned Mode3
 375:cmsis/device/stm32f4xx_tim.c ****   * @retval None
 376:cmsis/device/stm32f4xx_tim.c ****   */
 377:cmsis/device/stm32f4xx_tim.c **** void TIM_CounterModeConfig(TIM_TypeDef* TIMx, uint16_t TIM_CounterMode)
 378:cmsis/device/stm32f4xx_tim.c **** {
 574              		.loc 1 378 0
 575              		.cfi_startproc
 576              		@ args = 0, pretend = 0, frame = 0
 577              		@ frame_needed = 0, uses_anonymous_args = 0
 578              		@ link register save eliminated.
 579              	.LVL57:
 379:cmsis/device/stm32f4xx_tim.c ****   uint16_t tmpcr1 = 0;
 380:cmsis/device/stm32f4xx_tim.c **** 
 381:cmsis/device/stm32f4xx_tim.c ****   /* Check the parameters */
 382:cmsis/device/stm32f4xx_tim.c ****   assert_param(IS_TIM_LIST3_PERIPH(TIMx));
 383:cmsis/device/stm32f4xx_tim.c ****   assert_param(IS_TIM_COUNTER_MODE(TIM_CounterMode));
 384:cmsis/device/stm32f4xx_tim.c **** 
 385:cmsis/device/stm32f4xx_tim.c ****   tmpcr1 = TIMx->CR1;
 580              		.loc 1 385 0
 581 0000 0388     		ldrh	r3, [r0, #0]	@, TIMx_2(D)->CR1
 582              	.LVL58:
 386:cmsis/device/stm32f4xx_tim.c **** 
 387:cmsis/device/stm32f4xx_tim.c ****   /* Reset the CMS and DIR Bits */
 388:cmsis/device/stm32f4xx_tim.c ****   tmpcr1 &= (uint16_t)~(TIM_CR1_DIR | TIM_CR1_CMS);
ARM GAS  C:\Users\CNous\AppData\Local\Temp\ccZi7tDD.s 			page 19


 583              		.loc 1 388 0
 584 0002 23F07002 		bic	r2, r3, #112	@ tmpcr1, TIMx_2(D)->CR1,
 585 0006 1304     		lsls	r3, r2, #16	@ tmpcr1, tmpcr1,
 586              	.LVL59:
 587 0008 1A0C     		lsrs	r2, r3, #16	@ tmpcr1, tmpcr1,
 588              	.LVL60:
 389:cmsis/device/stm32f4xx_tim.c **** 
 390:cmsis/device/stm32f4xx_tim.c ****   /* Set the Counter Mode */
 391:cmsis/device/stm32f4xx_tim.c ****   tmpcr1 |= TIM_CounterMode;
 589              		.loc 1 391 0
 590 000a 1143     		orrs	r1, r1, r2	@, tmpcr1, TIM_CounterMode, tmpcr1
 591              	.LVL61:
 392:cmsis/device/stm32f4xx_tim.c **** 
 393:cmsis/device/stm32f4xx_tim.c ****   /* Write to TIMx CR1 register */
 394:cmsis/device/stm32f4xx_tim.c ****   TIMx->CR1 = tmpcr1;
 592              		.loc 1 394 0
 593 000c 0180     		strh	r1, [r0, #0]	@ movhi	@ tmpcr1, TIMx_2(D)->CR1
 594 000e 7047     		bx	lr	@
 595              		.cfi_endproc
 596              	.LFE114:
 597              		.size	TIM_CounterModeConfig, .-TIM_CounterModeConfig
 598              		.section	.text.TIM_SetCounter,"ax",%progbits
 599              		.align	2
 600              		.global	TIM_SetCounter
 601              		.thumb
 602              		.thumb_func
 603              		.type	TIM_SetCounter, %function
 604              	TIM_SetCounter:
 605              	.LFB115:
 395:cmsis/device/stm32f4xx_tim.c **** }
 396:cmsis/device/stm32f4xx_tim.c **** 
 397:cmsis/device/stm32f4xx_tim.c **** /**
 398:cmsis/device/stm32f4xx_tim.c ****   * @brief  Sets the TIMx Counter Register value
 399:cmsis/device/stm32f4xx_tim.c ****   * @param  TIMx: where x can be 1 to 14 to select the TIM peripheral.
 400:cmsis/device/stm32f4xx_tim.c ****   * @param  Counter: specifies the Counter register new value.
 401:cmsis/device/stm32f4xx_tim.c ****   * @retval None
 402:cmsis/device/stm32f4xx_tim.c ****   */
 403:cmsis/device/stm32f4xx_tim.c **** void TIM_SetCounter(TIM_TypeDef* TIMx, uint32_t Counter)
 404:cmsis/device/stm32f4xx_tim.c **** {
 606              		.loc 1 404 0
 607              		.cfi_startproc
 608              		@ args = 0, pretend = 0, frame = 0
 609              		@ frame_needed = 0, uses_anonymous_args = 0
 610              		@ link register save eliminated.
 611              	.LVL62:
 405:cmsis/device/stm32f4xx_tim.c ****   /* Check the parameters */
 406:cmsis/device/stm32f4xx_tim.c ****    assert_param(IS_TIM_ALL_PERIPH(TIMx));
 407:cmsis/device/stm32f4xx_tim.c **** 
 408:cmsis/device/stm32f4xx_tim.c ****   /* Set the Counter Register value */
 409:cmsis/device/stm32f4xx_tim.c ****   TIMx->CNT = Counter;
 612              		.loc 1 409 0
 613 0000 4162     		str	r1, [r0, #36]	@ Counter, TIMx_1(D)->CNT
 614 0002 7047     		bx	lr	@
 615              		.cfi_endproc
 616              	.LFE115:
 617              		.size	TIM_SetCounter, .-TIM_SetCounter
 618              		.section	.text.TIM_SetAutoreload,"ax",%progbits
ARM GAS  C:\Users\CNous\AppData\Local\Temp\ccZi7tDD.s 			page 20


 619              		.align	2
 620              		.global	TIM_SetAutoreload
 621              		.thumb
 622              		.thumb_func
 623              		.type	TIM_SetAutoreload, %function
 624              	TIM_SetAutoreload:
 625              	.LFB116:
 410:cmsis/device/stm32f4xx_tim.c **** }
 411:cmsis/device/stm32f4xx_tim.c **** 
 412:cmsis/device/stm32f4xx_tim.c **** /**
 413:cmsis/device/stm32f4xx_tim.c ****   * @brief  Sets the TIMx Autoreload Register value
 414:cmsis/device/stm32f4xx_tim.c ****   * @param  TIMx: where x can be 1 to 14 to select the TIM peripheral.
 415:cmsis/device/stm32f4xx_tim.c ****   * @param  Autoreload: specifies the Autoreload register new value.
 416:cmsis/device/stm32f4xx_tim.c ****   * @retval None
 417:cmsis/device/stm32f4xx_tim.c ****   */
 418:cmsis/device/stm32f4xx_tim.c **** void TIM_SetAutoreload(TIM_TypeDef* TIMx, uint32_t Autoreload)
 419:cmsis/device/stm32f4xx_tim.c **** {
 626              		.loc 1 419 0
 627              		.cfi_startproc
 628              		@ args = 0, pretend = 0, frame = 0
 629              		@ frame_needed = 0, uses_anonymous_args = 0
 630              		@ link register save eliminated.
 631              	.LVL63:
 420:cmsis/device/stm32f4xx_tim.c ****   /* Check the parameters */
 421:cmsis/device/stm32f4xx_tim.c ****   assert_param(IS_TIM_ALL_PERIPH(TIMx));
 422:cmsis/device/stm32f4xx_tim.c ****   
 423:cmsis/device/stm32f4xx_tim.c ****   /* Set the Autoreload Register value */
 424:cmsis/device/stm32f4xx_tim.c ****   TIMx->ARR = Autoreload;
 632              		.loc 1 424 0
 633 0000 C162     		str	r1, [r0, #44]	@ Autoreload, TIMx_1(D)->ARR
 634 0002 7047     		bx	lr	@
 635              		.cfi_endproc
 636              	.LFE116:
 637              		.size	TIM_SetAutoreload, .-TIM_SetAutoreload
 638              		.section	.text.TIM_GetCounter,"ax",%progbits
 639              		.align	2
 640              		.global	TIM_GetCounter
 641              		.thumb
 642              		.thumb_func
 643              		.type	TIM_GetCounter, %function
 644              	TIM_GetCounter:
 645              	.LFB117:
 425:cmsis/device/stm32f4xx_tim.c **** }
 426:cmsis/device/stm32f4xx_tim.c **** 
 427:cmsis/device/stm32f4xx_tim.c **** /**
 428:cmsis/device/stm32f4xx_tim.c ****   * @brief  Gets the TIMx Counter value.
 429:cmsis/device/stm32f4xx_tim.c ****   * @param  TIMx: where x can be 1 to 14 to select the TIM peripheral.
 430:cmsis/device/stm32f4xx_tim.c ****   * @retval Counter Register value
 431:cmsis/device/stm32f4xx_tim.c ****   */
 432:cmsis/device/stm32f4xx_tim.c **** uint32_t TIM_GetCounter(TIM_TypeDef* TIMx)
 433:cmsis/device/stm32f4xx_tim.c **** {
 646              		.loc 1 433 0
 647              		.cfi_startproc
 648              		@ args = 0, pretend = 0, frame = 0
 649              		@ frame_needed = 0, uses_anonymous_args = 0
 650              		@ link register save eliminated.
 651              	.LVL64:
ARM GAS  C:\Users\CNous\AppData\Local\Temp\ccZi7tDD.s 			page 21


 434:cmsis/device/stm32f4xx_tim.c ****   /* Check the parameters */
 435:cmsis/device/stm32f4xx_tim.c ****   assert_param(IS_TIM_ALL_PERIPH(TIMx));
 436:cmsis/device/stm32f4xx_tim.c **** 
 437:cmsis/device/stm32f4xx_tim.c ****   /* Get the Counter Register value */
 438:cmsis/device/stm32f4xx_tim.c ****   return TIMx->CNT;
 652              		.loc 1 438 0
 653 0000 406A     		ldr	r0, [r0, #36]	@ D.7319, TIMx_1(D)->CNT
 654              	.LVL65:
 439:cmsis/device/stm32f4xx_tim.c **** }
 655              		.loc 1 439 0
 656 0002 7047     		bx	lr	@
 657              		.cfi_endproc
 658              	.LFE117:
 659              		.size	TIM_GetCounter, .-TIM_GetCounter
 660              		.section	.text.TIM_GetPrescaler,"ax",%progbits
 661              		.align	2
 662              		.global	TIM_GetPrescaler
 663              		.thumb
 664              		.thumb_func
 665              		.type	TIM_GetPrescaler, %function
 666              	TIM_GetPrescaler:
 667              	.LFB118:
 440:cmsis/device/stm32f4xx_tim.c **** 
 441:cmsis/device/stm32f4xx_tim.c **** /**
 442:cmsis/device/stm32f4xx_tim.c ****   * @brief  Gets the TIMx Prescaler value.
 443:cmsis/device/stm32f4xx_tim.c ****   * @param  TIMx: where x can be 1 to 14 to select the TIM peripheral.
 444:cmsis/device/stm32f4xx_tim.c ****   * @retval Prescaler Register value.
 445:cmsis/device/stm32f4xx_tim.c ****   */
 446:cmsis/device/stm32f4xx_tim.c **** uint16_t TIM_GetPrescaler(TIM_TypeDef* TIMx)
 447:cmsis/device/stm32f4xx_tim.c **** {
 668              		.loc 1 447 0
 669              		.cfi_startproc
 670              		@ args = 0, pretend = 0, frame = 0
 671              		@ frame_needed = 0, uses_anonymous_args = 0
 672              		@ link register save eliminated.
 673              	.LVL66:
 448:cmsis/device/stm32f4xx_tim.c ****   /* Check the parameters */
 449:cmsis/device/stm32f4xx_tim.c ****   assert_param(IS_TIM_ALL_PERIPH(TIMx));
 450:cmsis/device/stm32f4xx_tim.c **** 
 451:cmsis/device/stm32f4xx_tim.c ****   /* Get the Prescaler Register value */
 452:cmsis/device/stm32f4xx_tim.c ****   return TIMx->PSC;
 674              		.loc 1 452 0
 675 0000 008D     		ldrh	r0, [r0, #40]	@, TIMx_1(D)->PSC
 676              	.LVL67:
 453:cmsis/device/stm32f4xx_tim.c **** }
 677              		.loc 1 453 0
 678 0002 80B2     		uxth	r0, r0	@, TIMx_1(D)->PSC
 679 0004 7047     		bx	lr	@
 680              		.cfi_endproc
 681              	.LFE118:
 682              		.size	TIM_GetPrescaler, .-TIM_GetPrescaler
 683 0006 00BF     		.section	.text.TIM_UpdateDisableConfig,"ax",%progbits
 684              		.align	2
 685              		.global	TIM_UpdateDisableConfig
 686              		.thumb
 687              		.thumb_func
 688              		.type	TIM_UpdateDisableConfig, %function
ARM GAS  C:\Users\CNous\AppData\Local\Temp\ccZi7tDD.s 			page 22


 689              	TIM_UpdateDisableConfig:
 690              	.LFB119:
 454:cmsis/device/stm32f4xx_tim.c **** 
 455:cmsis/device/stm32f4xx_tim.c **** /**
 456:cmsis/device/stm32f4xx_tim.c ****   * @brief  Enables or Disables the TIMx Update event.
 457:cmsis/device/stm32f4xx_tim.c ****   * @param  TIMx: where x can be 1 to 14 to select the TIM peripheral.
 458:cmsis/device/stm32f4xx_tim.c ****   * @param  NewState: new state of the TIMx UDIS bit
 459:cmsis/device/stm32f4xx_tim.c ****   *          This parameter can be: ENABLE or DISABLE.
 460:cmsis/device/stm32f4xx_tim.c ****   * @retval None
 461:cmsis/device/stm32f4xx_tim.c ****   */
 462:cmsis/device/stm32f4xx_tim.c **** void TIM_UpdateDisableConfig(TIM_TypeDef* TIMx, FunctionalState NewState)
 463:cmsis/device/stm32f4xx_tim.c **** {
 691              		.loc 1 463 0
 692              		.cfi_startproc
 693              		@ args = 0, pretend = 0, frame = 0
 694              		@ frame_needed = 0, uses_anonymous_args = 0
 695              		@ link register save eliminated.
 696              	.LVL68:
 464:cmsis/device/stm32f4xx_tim.c ****   /* Check the parameters */
 465:cmsis/device/stm32f4xx_tim.c ****   assert_param(IS_TIM_ALL_PERIPH(TIMx));
 466:cmsis/device/stm32f4xx_tim.c ****   assert_param(IS_FUNCTIONAL_STATE(NewState));
 467:cmsis/device/stm32f4xx_tim.c **** 
 468:cmsis/device/stm32f4xx_tim.c ****   if (NewState != DISABLE)
 469:cmsis/device/stm32f4xx_tim.c ****   {
 470:cmsis/device/stm32f4xx_tim.c ****     /* Set the Update Disable Bit */
 471:cmsis/device/stm32f4xx_tim.c ****     TIMx->CR1 |= TIM_CR1_UDIS;
 697              		.loc 1 471 0
 698 0000 0388     		ldrh	r3, [r0, #0]	@,* TIMx
 468:cmsis/device/stm32f4xx_tim.c ****   if (NewState != DISABLE)
 699              		.loc 1 468 0
 700 0002 29B9     		cbnz	r1, .L53	@ NewState,
 472:cmsis/device/stm32f4xx_tim.c ****   }
 473:cmsis/device/stm32f4xx_tim.c ****   else
 474:cmsis/device/stm32f4xx_tim.c ****   {
 475:cmsis/device/stm32f4xx_tim.c ****     /* Reset the Update Disable Bit */
 476:cmsis/device/stm32f4xx_tim.c ****     TIMx->CR1 &= (uint16_t)~TIM_CR1_UDIS;
 701              		.loc 1 476 0
 702 0004 23F00201 		bic	r1, r3, #2	@ D.7316, TIMx_2(D)->CR1,
 703              	.LVL69:
 704 0008 0A04     		lsls	r2, r1, #16	@ D.7316, D.7316,
 705 000a 130C     		lsrs	r3, r2, #16	@ D.7316, D.7316,
 706 000c 0380     		strh	r3, [r0, #0]	@ movhi	@ D.7316,* TIMx
 707 000e 7047     		bx	lr	@
 708              	.LVL70:
 709              	.L53:
 471:cmsis/device/stm32f4xx_tim.c ****     TIMx->CR1 |= TIM_CR1_UDIS;
 710              		.loc 1 471 0
 711 0010 99B2     		uxth	r1, r3	@ D.7312, TIMx_2(D)->CR1
 712              	.LVL71:
 713 0012 41F00202 		orr	r2, r1, #2	@ D.7313, D.7312,
 714 0016 0280     		strh	r2, [r0, #0]	@ movhi	@ D.7313,* TIMx
 715 0018 7047     		bx	lr	@
 716              		.cfi_endproc
 717              	.LFE119:
 718              		.size	TIM_UpdateDisableConfig, .-TIM_UpdateDisableConfig
 719 001a 00BF     		.section	.text.TIM_UpdateRequestConfig,"ax",%progbits
 720              		.align	2
ARM GAS  C:\Users\CNous\AppData\Local\Temp\ccZi7tDD.s 			page 23


 721              		.global	TIM_UpdateRequestConfig
 722              		.thumb
 723              		.thumb_func
 724              		.type	TIM_UpdateRequestConfig, %function
 725              	TIM_UpdateRequestConfig:
 726              	.LFB120:
 477:cmsis/device/stm32f4xx_tim.c ****   }
 478:cmsis/device/stm32f4xx_tim.c **** }
 479:cmsis/device/stm32f4xx_tim.c **** 
 480:cmsis/device/stm32f4xx_tim.c **** /**
 481:cmsis/device/stm32f4xx_tim.c ****   * @brief  Configures the TIMx Update Request Interrupt source.
 482:cmsis/device/stm32f4xx_tim.c ****   * @param  TIMx: where x can be 1 to 14 to select the TIM peripheral.
 483:cmsis/device/stm32f4xx_tim.c ****   * @param  TIM_UpdateSource: specifies the Update source.
 484:cmsis/device/stm32f4xx_tim.c ****   *          This parameter can be one of the following values:
 485:cmsis/device/stm32f4xx_tim.c ****   *            @arg TIM_UpdateSource_Global: Source of update is the counter
 486:cmsis/device/stm32f4xx_tim.c ****   *                 overflow/underflow or the setting of UG bit, or an update
 487:cmsis/device/stm32f4xx_tim.c ****   *                 generation through the slave mode controller.
 488:cmsis/device/stm32f4xx_tim.c ****   *            @arg TIM_UpdateSource_Regular: Source of update is counter overflow/underflow.
 489:cmsis/device/stm32f4xx_tim.c ****   * @retval None
 490:cmsis/device/stm32f4xx_tim.c ****   */
 491:cmsis/device/stm32f4xx_tim.c **** void TIM_UpdateRequestConfig(TIM_TypeDef* TIMx, uint16_t TIM_UpdateSource)
 492:cmsis/device/stm32f4xx_tim.c **** {
 727              		.loc 1 492 0
 728              		.cfi_startproc
 729              		@ args = 0, pretend = 0, frame = 0
 730              		@ frame_needed = 0, uses_anonymous_args = 0
 731              		@ link register save eliminated.
 732              	.LVL72:
 493:cmsis/device/stm32f4xx_tim.c ****   /* Check the parameters */
 494:cmsis/device/stm32f4xx_tim.c ****   assert_param(IS_TIM_ALL_PERIPH(TIMx));
 495:cmsis/device/stm32f4xx_tim.c ****   assert_param(IS_TIM_UPDATE_SOURCE(TIM_UpdateSource));
 496:cmsis/device/stm32f4xx_tim.c **** 
 497:cmsis/device/stm32f4xx_tim.c ****   if (TIM_UpdateSource != TIM_UpdateSource_Global)
 498:cmsis/device/stm32f4xx_tim.c ****   {
 499:cmsis/device/stm32f4xx_tim.c ****     /* Set the URS Bit */
 500:cmsis/device/stm32f4xx_tim.c ****     TIMx->CR1 |= TIM_CR1_URS;
 733              		.loc 1 500 0
 734 0000 0388     		ldrh	r3, [r0, #0]	@,* TIMx
 497:cmsis/device/stm32f4xx_tim.c ****   if (TIM_UpdateSource != TIM_UpdateSource_Global)
 735              		.loc 1 497 0
 736 0002 29B9     		cbnz	r1, .L57	@ TIM_UpdateSource,
 501:cmsis/device/stm32f4xx_tim.c ****   }
 502:cmsis/device/stm32f4xx_tim.c ****   else
 503:cmsis/device/stm32f4xx_tim.c ****   {
 504:cmsis/device/stm32f4xx_tim.c ****     /* Reset the URS Bit */
 505:cmsis/device/stm32f4xx_tim.c ****     TIMx->CR1 &= (uint16_t)~TIM_CR1_URS;
 737              		.loc 1 505 0
 738 0004 23F00401 		bic	r1, r3, #4	@ D.7309, TIMx_2(D)->CR1,
 739              	.LVL73:
 740 0008 0A04     		lsls	r2, r1, #16	@ D.7309, D.7309,
 741 000a 130C     		lsrs	r3, r2, #16	@ D.7309, D.7309,
 742 000c 0380     		strh	r3, [r0, #0]	@ movhi	@ D.7309,* TIMx
 743 000e 7047     		bx	lr	@
 744              	.LVL74:
 745              	.L57:
 500:cmsis/device/stm32f4xx_tim.c ****     TIMx->CR1 |= TIM_CR1_URS;
 746              		.loc 1 500 0
ARM GAS  C:\Users\CNous\AppData\Local\Temp\ccZi7tDD.s 			page 24


 747 0010 99B2     		uxth	r1, r3	@ D.7305, TIMx_2(D)->CR1
 748              	.LVL75:
 749 0012 41F00402 		orr	r2, r1, #4	@ D.7306, D.7305,
 750 0016 0280     		strh	r2, [r0, #0]	@ movhi	@ D.7306,* TIMx
 751 0018 7047     		bx	lr	@
 752              		.cfi_endproc
 753              	.LFE120:
 754              		.size	TIM_UpdateRequestConfig, .-TIM_UpdateRequestConfig
 755 001a 00BF     		.section	.text.TIM_ARRPreloadConfig,"ax",%progbits
 756              		.align	2
 757              		.global	TIM_ARRPreloadConfig
 758              		.thumb
 759              		.thumb_func
 760              		.type	TIM_ARRPreloadConfig, %function
 761              	TIM_ARRPreloadConfig:
 762              	.LFB121:
 506:cmsis/device/stm32f4xx_tim.c ****   }
 507:cmsis/device/stm32f4xx_tim.c **** }
 508:cmsis/device/stm32f4xx_tim.c **** 
 509:cmsis/device/stm32f4xx_tim.c **** /**
 510:cmsis/device/stm32f4xx_tim.c ****   * @brief  Enables or disables TIMx peripheral Preload register on ARR.
 511:cmsis/device/stm32f4xx_tim.c ****   * @param  TIMx: where x can be 1 to 14 to select the TIM peripheral.
 512:cmsis/device/stm32f4xx_tim.c ****   * @param  NewState: new state of the TIMx peripheral Preload register
 513:cmsis/device/stm32f4xx_tim.c ****   *          This parameter can be: ENABLE or DISABLE.
 514:cmsis/device/stm32f4xx_tim.c ****   * @retval None
 515:cmsis/device/stm32f4xx_tim.c ****   */
 516:cmsis/device/stm32f4xx_tim.c **** void TIM_ARRPreloadConfig(TIM_TypeDef* TIMx, FunctionalState NewState)
 517:cmsis/device/stm32f4xx_tim.c **** {
 763              		.loc 1 517 0
 764              		.cfi_startproc
 765              		@ args = 0, pretend = 0, frame = 0
 766              		@ frame_needed = 0, uses_anonymous_args = 0
 767              		@ link register save eliminated.
 768              	.LVL76:
 518:cmsis/device/stm32f4xx_tim.c ****   /* Check the parameters */
 519:cmsis/device/stm32f4xx_tim.c ****   assert_param(IS_TIM_ALL_PERIPH(TIMx));
 520:cmsis/device/stm32f4xx_tim.c ****   assert_param(IS_FUNCTIONAL_STATE(NewState));
 521:cmsis/device/stm32f4xx_tim.c **** 
 522:cmsis/device/stm32f4xx_tim.c ****   if (NewState != DISABLE)
 523:cmsis/device/stm32f4xx_tim.c ****   {
 524:cmsis/device/stm32f4xx_tim.c ****     /* Set the ARR Preload Bit */
 525:cmsis/device/stm32f4xx_tim.c ****     TIMx->CR1 |= TIM_CR1_ARPE;
 769              		.loc 1 525 0
 770 0000 0388     		ldrh	r3, [r0, #0]	@,* TIMx
 522:cmsis/device/stm32f4xx_tim.c ****   if (NewState != DISABLE)
 771              		.loc 1 522 0
 772 0002 29B9     		cbnz	r1, .L61	@ NewState,
 526:cmsis/device/stm32f4xx_tim.c ****   }
 527:cmsis/device/stm32f4xx_tim.c ****   else
 528:cmsis/device/stm32f4xx_tim.c ****   {
 529:cmsis/device/stm32f4xx_tim.c ****     /* Reset the ARR Preload Bit */
 530:cmsis/device/stm32f4xx_tim.c ****     TIMx->CR1 &= (uint16_t)~TIM_CR1_ARPE;
 773              		.loc 1 530 0
 774 0004 23F08001 		bic	r1, r3, #128	@ D.7302, TIMx_2(D)->CR1,
 775              	.LVL77:
 776 0008 0A04     		lsls	r2, r1, #16	@ D.7302, D.7302,
 777 000a 130C     		lsrs	r3, r2, #16	@ D.7302, D.7302,
ARM GAS  C:\Users\CNous\AppData\Local\Temp\ccZi7tDD.s 			page 25


 778 000c 0380     		strh	r3, [r0, #0]	@ movhi	@ D.7302,* TIMx
 779 000e 7047     		bx	lr	@
 780              	.LVL78:
 781              	.L61:
 525:cmsis/device/stm32f4xx_tim.c ****     TIMx->CR1 |= TIM_CR1_ARPE;
 782              		.loc 1 525 0
 783 0010 99B2     		uxth	r1, r3	@ D.7298, TIMx_2(D)->CR1
 784              	.LVL79:
 785 0012 41F08002 		orr	r2, r1, #128	@ D.7299, D.7298,
 786 0016 0280     		strh	r2, [r0, #0]	@ movhi	@ D.7299,* TIMx
 787 0018 7047     		bx	lr	@
 788              		.cfi_endproc
 789              	.LFE121:
 790              		.size	TIM_ARRPreloadConfig, .-TIM_ARRPreloadConfig
 791 001a 00BF     		.section	.text.TIM_SelectOnePulseMode,"ax",%progbits
 792              		.align	2
 793              		.global	TIM_SelectOnePulseMode
 794              		.thumb
 795              		.thumb_func
 796              		.type	TIM_SelectOnePulseMode, %function
 797              	TIM_SelectOnePulseMode:
 798              	.LFB122:
 531:cmsis/device/stm32f4xx_tim.c ****   }
 532:cmsis/device/stm32f4xx_tim.c **** }
 533:cmsis/device/stm32f4xx_tim.c **** 
 534:cmsis/device/stm32f4xx_tim.c **** /**
 535:cmsis/device/stm32f4xx_tim.c ****   * @brief  Selects the TIMx's One Pulse Mode.
 536:cmsis/device/stm32f4xx_tim.c ****   * @param  TIMx: where x can be 1 to 14 to select the TIM peripheral.
 537:cmsis/device/stm32f4xx_tim.c ****   * @param  TIM_OPMode: specifies the OPM Mode to be used.
 538:cmsis/device/stm32f4xx_tim.c ****   *          This parameter can be one of the following values:
 539:cmsis/device/stm32f4xx_tim.c ****   *            @arg TIM_OPMode_Single
 540:cmsis/device/stm32f4xx_tim.c ****   *            @arg TIM_OPMode_Repetitive
 541:cmsis/device/stm32f4xx_tim.c ****   * @retval None
 542:cmsis/device/stm32f4xx_tim.c ****   */
 543:cmsis/device/stm32f4xx_tim.c **** void TIM_SelectOnePulseMode(TIM_TypeDef* TIMx, uint16_t TIM_OPMode)
 544:cmsis/device/stm32f4xx_tim.c **** {
 799              		.loc 1 544 0
 800              		.cfi_startproc
 801              		@ args = 0, pretend = 0, frame = 0
 802              		@ frame_needed = 0, uses_anonymous_args = 0
 803              		@ link register save eliminated.
 804              	.LVL80:
 545:cmsis/device/stm32f4xx_tim.c ****   /* Check the parameters */
 546:cmsis/device/stm32f4xx_tim.c ****   assert_param(IS_TIM_ALL_PERIPH(TIMx));
 547:cmsis/device/stm32f4xx_tim.c ****   assert_param(IS_TIM_OPM_MODE(TIM_OPMode));
 548:cmsis/device/stm32f4xx_tim.c **** 
 549:cmsis/device/stm32f4xx_tim.c ****   /* Reset the OPM Bit */
 550:cmsis/device/stm32f4xx_tim.c ****   TIMx->CR1 &= (uint16_t)~TIM_CR1_OPM;
 805              		.loc 1 550 0
 806 0000 0388     		ldrh	r3, [r0, #0]	@, TIMx_1(D)->CR1
 807 0002 23F00802 		bic	r2, r3, #8	@ D.7293, TIMx_1(D)->CR1,
 808 0006 1304     		lsls	r3, r2, #16	@ D.7293, D.7293,
 809 0008 1A0C     		lsrs	r2, r3, #16	@ D.7293, D.7293,
 810 000a 0280     		strh	r2, [r0, #0]	@ movhi	@ D.7293, TIMx_1(D)->CR1
 551:cmsis/device/stm32f4xx_tim.c **** 
 552:cmsis/device/stm32f4xx_tim.c ****   /* Configure the OPM Mode */
 553:cmsis/device/stm32f4xx_tim.c ****   TIMx->CR1 |= TIM_OPMode;
ARM GAS  C:\Users\CNous\AppData\Local\Temp\ccZi7tDD.s 			page 26


 811              		.loc 1 553 0
 812 000c 0388     		ldrh	r3, [r0, #0]	@, TIMx_1(D)->CR1
 813 000e 9AB2     		uxth	r2, r3	@ D.7294, TIMx_1(D)->CR1
 814 0010 1143     		orrs	r1, r1, r2	@, D.7295, TIM_OPMode, D.7294
 815              	.LVL81:
 816 0012 0180     		strh	r1, [r0, #0]	@ movhi	@ D.7295, TIMx_1(D)->CR1
 817 0014 7047     		bx	lr	@
 818              		.cfi_endproc
 819              	.LFE122:
 820              		.size	TIM_SelectOnePulseMode, .-TIM_SelectOnePulseMode
 821 0016 00BF     		.section	.text.TIM_SetClockDivision,"ax",%progbits
 822              		.align	2
 823              		.global	TIM_SetClockDivision
 824              		.thumb
 825              		.thumb_func
 826              		.type	TIM_SetClockDivision, %function
 827              	TIM_SetClockDivision:
 828              	.LFB123:
 554:cmsis/device/stm32f4xx_tim.c **** }
 555:cmsis/device/stm32f4xx_tim.c **** 
 556:cmsis/device/stm32f4xx_tim.c **** /**
 557:cmsis/device/stm32f4xx_tim.c ****   * @brief  Sets the TIMx Clock Division value.
 558:cmsis/device/stm32f4xx_tim.c ****   * @param  TIMx: where x can be 1 to 14 except 6 and 7, to select the TIM peripheral.
 559:cmsis/device/stm32f4xx_tim.c ****   * @param  TIM_CKD: specifies the clock division value.
 560:cmsis/device/stm32f4xx_tim.c ****   *          This parameter can be one of the following value:
 561:cmsis/device/stm32f4xx_tim.c ****   *            @arg TIM_CKD_DIV1: TDTS = Tck_tim
 562:cmsis/device/stm32f4xx_tim.c ****   *            @arg TIM_CKD_DIV2: TDTS = 2*Tck_tim
 563:cmsis/device/stm32f4xx_tim.c ****   *            @arg TIM_CKD_DIV4: TDTS = 4*Tck_tim
 564:cmsis/device/stm32f4xx_tim.c ****   * @retval None
 565:cmsis/device/stm32f4xx_tim.c ****   */
 566:cmsis/device/stm32f4xx_tim.c **** void TIM_SetClockDivision(TIM_TypeDef* TIMx, uint16_t TIM_CKD)
 567:cmsis/device/stm32f4xx_tim.c **** {
 829              		.loc 1 567 0
 830              		.cfi_startproc
 831              		@ args = 0, pretend = 0, frame = 0
 832              		@ frame_needed = 0, uses_anonymous_args = 0
 833              		@ link register save eliminated.
 834              	.LVL82:
 568:cmsis/device/stm32f4xx_tim.c ****   /* Check the parameters */
 569:cmsis/device/stm32f4xx_tim.c ****   assert_param(IS_TIM_LIST1_PERIPH(TIMx));
 570:cmsis/device/stm32f4xx_tim.c ****   assert_param(IS_TIM_CKD_DIV(TIM_CKD));
 571:cmsis/device/stm32f4xx_tim.c **** 
 572:cmsis/device/stm32f4xx_tim.c ****   /* Reset the CKD Bits */
 573:cmsis/device/stm32f4xx_tim.c ****   TIMx->CR1 &= (uint16_t)(~TIM_CR1_CKD);
 835              		.loc 1 573 0
 836 0000 0388     		ldrh	r3, [r0, #0]	@, TIMx_1(D)->CR1
 837 0002 23F44072 		bic	r2, r3, #768	@ D.7289, TIMx_1(D)->CR1,
 838 0006 1304     		lsls	r3, r2, #16	@ D.7289, D.7289,
 839 0008 1A0C     		lsrs	r2, r3, #16	@ D.7289, D.7289,
 840 000a 0280     		strh	r2, [r0, #0]	@ movhi	@ D.7289, TIMx_1(D)->CR1
 574:cmsis/device/stm32f4xx_tim.c **** 
 575:cmsis/device/stm32f4xx_tim.c ****   /* Set the CKD value */
 576:cmsis/device/stm32f4xx_tim.c ****   TIMx->CR1 |= TIM_CKD;
 841              		.loc 1 576 0
 842 000c 0388     		ldrh	r3, [r0, #0]	@, TIMx_1(D)->CR1
 843 000e 9AB2     		uxth	r2, r3	@ D.7290, TIMx_1(D)->CR1
 844 0010 1143     		orrs	r1, r1, r2	@, D.7291, TIM_CKD, D.7290
ARM GAS  C:\Users\CNous\AppData\Local\Temp\ccZi7tDD.s 			page 27


 845              	.LVL83:
 846 0012 0180     		strh	r1, [r0, #0]	@ movhi	@ D.7291, TIMx_1(D)->CR1
 847 0014 7047     		bx	lr	@
 848              		.cfi_endproc
 849              	.LFE123:
 850              		.size	TIM_SetClockDivision, .-TIM_SetClockDivision
 851 0016 00BF     		.section	.text.TIM_Cmd,"ax",%progbits
 852              		.align	2
 853              		.global	TIM_Cmd
 854              		.thumb
 855              		.thumb_func
 856              		.type	TIM_Cmd, %function
 857              	TIM_Cmd:
 858              	.LFB124:
 577:cmsis/device/stm32f4xx_tim.c **** }
 578:cmsis/device/stm32f4xx_tim.c **** 
 579:cmsis/device/stm32f4xx_tim.c **** /**
 580:cmsis/device/stm32f4xx_tim.c ****   * @brief  Enables or disables the specified TIM peripheral.
 581:cmsis/device/stm32f4xx_tim.c ****   * @param  TIMx: where x can be 1 to 14 to select the TIMx peripheral.
 582:cmsis/device/stm32f4xx_tim.c ****   * @param  NewState: new state of the TIMx peripheral.
 583:cmsis/device/stm32f4xx_tim.c ****   *          This parameter can be: ENABLE or DISABLE.
 584:cmsis/device/stm32f4xx_tim.c ****   * @retval None
 585:cmsis/device/stm32f4xx_tim.c ****   */
 586:cmsis/device/stm32f4xx_tim.c **** void TIM_Cmd(TIM_TypeDef* TIMx, FunctionalState NewState)
 587:cmsis/device/stm32f4xx_tim.c **** {
 859              		.loc 1 587 0
 860              		.cfi_startproc
 861              		@ args = 0, pretend = 0, frame = 0
 862              		@ frame_needed = 0, uses_anonymous_args = 0
 863              		@ link register save eliminated.
 864              	.LVL84:
 588:cmsis/device/stm32f4xx_tim.c ****   /* Check the parameters */
 589:cmsis/device/stm32f4xx_tim.c ****   assert_param(IS_TIM_ALL_PERIPH(TIMx)); 
 590:cmsis/device/stm32f4xx_tim.c ****   assert_param(IS_FUNCTIONAL_STATE(NewState));
 591:cmsis/device/stm32f4xx_tim.c ****   
 592:cmsis/device/stm32f4xx_tim.c ****   if (NewState != DISABLE)
 593:cmsis/device/stm32f4xx_tim.c ****   {
 594:cmsis/device/stm32f4xx_tim.c ****     /* Enable the TIM Counter */
 595:cmsis/device/stm32f4xx_tim.c ****     TIMx->CR1 |= TIM_CR1_CEN;
 865              		.loc 1 595 0
 866 0000 0388     		ldrh	r3, [r0, #0]	@,* TIMx
 592:cmsis/device/stm32f4xx_tim.c ****   if (NewState != DISABLE)
 867              		.loc 1 592 0
 868 0002 29B9     		cbnz	r1, .L67	@ NewState,
 596:cmsis/device/stm32f4xx_tim.c ****   }
 597:cmsis/device/stm32f4xx_tim.c ****   else
 598:cmsis/device/stm32f4xx_tim.c ****   {
 599:cmsis/device/stm32f4xx_tim.c ****     /* Disable the TIM Counter */
 600:cmsis/device/stm32f4xx_tim.c ****     TIMx->CR1 &= (uint16_t)~TIM_CR1_CEN;
 869              		.loc 1 600 0
 870 0004 23F00101 		bic	r1, r3, #1	@ D.7287, TIMx_2(D)->CR1,
 871              	.LVL85:
 872 0008 0A04     		lsls	r2, r1, #16	@ D.7287, D.7287,
 873 000a 130C     		lsrs	r3, r2, #16	@ D.7287, D.7287,
 874 000c 0380     		strh	r3, [r0, #0]	@ movhi	@ D.7287,* TIMx
 875 000e 7047     		bx	lr	@
 876              	.LVL86:
ARM GAS  C:\Users\CNous\AppData\Local\Temp\ccZi7tDD.s 			page 28


 877              	.L67:
 595:cmsis/device/stm32f4xx_tim.c ****     TIMx->CR1 |= TIM_CR1_CEN;
 878              		.loc 1 595 0
 879 0010 99B2     		uxth	r1, r3	@ D.7283, TIMx_2(D)->CR1
 880              	.LVL87:
 881 0012 41F00102 		orr	r2, r1, #1	@ D.7284, D.7283,
 882 0016 0280     		strh	r2, [r0, #0]	@ movhi	@ D.7284,* TIMx
 883 0018 7047     		bx	lr	@
 884              		.cfi_endproc
 885              	.LFE124:
 886              		.size	TIM_Cmd, .-TIM_Cmd
 887 001a 00BF     		.section	.text.TIM_OC1Init,"ax",%progbits
 888              		.align	2
 889              		.global	TIM_OC1Init
 890              		.thumb
 891              		.thumb_func
 892              		.type	TIM_OC1Init, %function
 893              	TIM_OC1Init:
 894              	.LFB125:
 601:cmsis/device/stm32f4xx_tim.c ****   }
 602:cmsis/device/stm32f4xx_tim.c **** }
 603:cmsis/device/stm32f4xx_tim.c **** /**
 604:cmsis/device/stm32f4xx_tim.c ****   * @}
 605:cmsis/device/stm32f4xx_tim.c ****   */
 606:cmsis/device/stm32f4xx_tim.c **** 
 607:cmsis/device/stm32f4xx_tim.c **** /** @defgroup TIM_Group2 Output Compare management functions
 608:cmsis/device/stm32f4xx_tim.c ****  *  @brief    Output Compare management functions 
 609:cmsis/device/stm32f4xx_tim.c ****  *
 610:cmsis/device/stm32f4xx_tim.c **** @verbatim   
 611:cmsis/device/stm32f4xx_tim.c ****  ===============================================================================
 612:cmsis/device/stm32f4xx_tim.c ****                         Output Compare management functions
 613:cmsis/device/stm32f4xx_tim.c ****  ===============================================================================  
 614:cmsis/device/stm32f4xx_tim.c ****    
 615:cmsis/device/stm32f4xx_tim.c ****        ===================================================================      
 616:cmsis/device/stm32f4xx_tim.c ****               TIM Driver: how to use it in Output Compare Mode
 617:cmsis/device/stm32f4xx_tim.c ****        =================================================================== 
 618:cmsis/device/stm32f4xx_tim.c ****        To use the Timer in Output Compare mode, the following steps are mandatory:
 619:cmsis/device/stm32f4xx_tim.c ****        
 620:cmsis/device/stm32f4xx_tim.c ****        1. Enable TIM clock using RCC_APBxPeriphClockCmd(RCC_APBxPeriph_TIMx, ENABLE) function
 621:cmsis/device/stm32f4xx_tim.c ****        
 622:cmsis/device/stm32f4xx_tim.c ****        2. Configure the TIM pins by configuring the corresponding GPIO pins
 623:cmsis/device/stm32f4xx_tim.c ****        
 624:cmsis/device/stm32f4xx_tim.c ****        2. Configure the Time base unit as described in the first part of this driver, 
 625:cmsis/device/stm32f4xx_tim.c ****           if needed, else the Timer will run with the default configuration:
 626:cmsis/device/stm32f4xx_tim.c ****           - Autoreload value = 0xFFFF
 627:cmsis/device/stm32f4xx_tim.c ****           - Prescaler value = 0x0000
 628:cmsis/device/stm32f4xx_tim.c ****           - Counter mode = Up counting
 629:cmsis/device/stm32f4xx_tim.c ****           - Clock Division = TIM_CKD_DIV1
 630:cmsis/device/stm32f4xx_tim.c ****           
 631:cmsis/device/stm32f4xx_tim.c ****        3. Fill the TIM_OCInitStruct with the desired parameters including:
 632:cmsis/device/stm32f4xx_tim.c ****           - The TIM Output Compare mode: TIM_OCMode
 633:cmsis/device/stm32f4xx_tim.c ****           - TIM Output State: TIM_OutputState
 634:cmsis/device/stm32f4xx_tim.c ****           - TIM Pulse value: TIM_Pulse
 635:cmsis/device/stm32f4xx_tim.c ****           - TIM Output Compare Polarity : TIM_OCPolarity
 636:cmsis/device/stm32f4xx_tim.c ****        
 637:cmsis/device/stm32f4xx_tim.c ****        4. Call TIM_OCxInit(TIMx, &TIM_OCInitStruct) to configure the desired channel with the 
 638:cmsis/device/stm32f4xx_tim.c ****           corresponding configuration
ARM GAS  C:\Users\CNous\AppData\Local\Temp\ccZi7tDD.s 			page 29


 639:cmsis/device/stm32f4xx_tim.c ****        
 640:cmsis/device/stm32f4xx_tim.c ****        5. Call the TIM_Cmd(ENABLE) function to enable the TIM counter.
 641:cmsis/device/stm32f4xx_tim.c ****        
 642:cmsis/device/stm32f4xx_tim.c ****        Note1: All other functions can be used separately to modify, if needed,
 643:cmsis/device/stm32f4xx_tim.c ****               a specific feature of the Timer. 
 644:cmsis/device/stm32f4xx_tim.c ****           
 645:cmsis/device/stm32f4xx_tim.c ****        Note2: In case of PWM mode, this function is mandatory:
 646:cmsis/device/stm32f4xx_tim.c ****               TIM_OCxPreloadConfig(TIMx, TIM_OCPreload_ENABLE); 
 647:cmsis/device/stm32f4xx_tim.c ****               
 648:cmsis/device/stm32f4xx_tim.c ****        Note3: If the corresponding interrupt or DMA request are needed, the user should:
 649:cmsis/device/stm32f4xx_tim.c ****                 1. Enable the NVIC (or the DMA) to use the TIM interrupts (or DMA requests). 
 650:cmsis/device/stm32f4xx_tim.c ****                 2. Enable the corresponding interrupt (or DMA request) using the function 
 651:cmsis/device/stm32f4xx_tim.c ****                    TIM_ITConfig(TIMx, TIM_IT_CCx) (or TIM_DMA_Cmd(TIMx, TIM_DMA_CCx))   
 652:cmsis/device/stm32f4xx_tim.c **** 
 653:cmsis/device/stm32f4xx_tim.c **** @endverbatim
 654:cmsis/device/stm32f4xx_tim.c ****   * @{
 655:cmsis/device/stm32f4xx_tim.c ****   */
 656:cmsis/device/stm32f4xx_tim.c **** 
 657:cmsis/device/stm32f4xx_tim.c **** /**
 658:cmsis/device/stm32f4xx_tim.c ****   * @brief  Initializes the TIMx Channel1 according to the specified parameters in
 659:cmsis/device/stm32f4xx_tim.c ****   *         the TIM_OCInitStruct.
 660:cmsis/device/stm32f4xx_tim.c ****   * @param  TIMx: where x can be 1 to 14 except 6 and 7, to select the TIM peripheral.
 661:cmsis/device/stm32f4xx_tim.c ****   * @param  TIM_OCInitStruct: pointer to a TIM_OCInitTypeDef structure that contains
 662:cmsis/device/stm32f4xx_tim.c ****   *         the configuration information for the specified TIM peripheral.
 663:cmsis/device/stm32f4xx_tim.c ****   * @retval None
 664:cmsis/device/stm32f4xx_tim.c ****   */
 665:cmsis/device/stm32f4xx_tim.c **** void TIM_OC1Init(TIM_TypeDef* TIMx, TIM_OCInitTypeDef* TIM_OCInitStruct)
 666:cmsis/device/stm32f4xx_tim.c **** {
 895              		.loc 1 666 0
 896              		.cfi_startproc
 897              		@ args = 0, pretend = 0, frame = 0
 898              		@ frame_needed = 0, uses_anonymous_args = 0
 899              		@ link register save eliminated.
 900              	.LVL88:
 901 0000 2DE9F001 		push	{r4, r5, r6, r7, r8}	@
 902              	.LCFI2:
 903              		.cfi_def_cfa_offset 20
 904              		.cfi_offset 4, -20
 905              		.cfi_offset 5, -16
 906              		.cfi_offset 6, -12
 907              		.cfi_offset 7, -8
 908              		.cfi_offset 8, -4
 667:cmsis/device/stm32f4xx_tim.c ****   uint16_t tmpccmrx = 0, tmpccer = 0, tmpcr2 = 0;
 668:cmsis/device/stm32f4xx_tim.c ****    
 669:cmsis/device/stm32f4xx_tim.c ****   /* Check the parameters */
 670:cmsis/device/stm32f4xx_tim.c ****   assert_param(IS_TIM_LIST1_PERIPH(TIMx)); 
 671:cmsis/device/stm32f4xx_tim.c ****   assert_param(IS_TIM_OC_MODE(TIM_OCInitStruct->TIM_OCMode));
 672:cmsis/device/stm32f4xx_tim.c ****   assert_param(IS_TIM_OUTPUT_STATE(TIM_OCInitStruct->TIM_OutputState));
 673:cmsis/device/stm32f4xx_tim.c ****   assert_param(IS_TIM_OC_POLARITY(TIM_OCInitStruct->TIM_OCPolarity));   
 674:cmsis/device/stm32f4xx_tim.c **** 
 675:cmsis/device/stm32f4xx_tim.c ****   /* Disable the Channel 1: Reset the CC1E Bit */
 676:cmsis/device/stm32f4xx_tim.c ****   TIMx->CCER &= (uint16_t)~TIM_CCER_CC1E;
 909              		.loc 1 676 0
 910 0004 048C     		ldrh	r4, [r0, #32]	@, TIMx_6(D)->CCER
 677:cmsis/device/stm32f4xx_tim.c ****   
 678:cmsis/device/stm32f4xx_tim.c ****   /* Get the TIMx CCER register value */
 679:cmsis/device/stm32f4xx_tim.c ****   tmpccer = TIMx->CCER;
ARM GAS  C:\Users\CNous\AppData\Local\Temp\ccZi7tDD.s 			page 30


 680:cmsis/device/stm32f4xx_tim.c ****   /* Get the TIMx CR2 register value */
 681:cmsis/device/stm32f4xx_tim.c ****   tmpcr2 =  TIMx->CR2;
 682:cmsis/device/stm32f4xx_tim.c ****   
 683:cmsis/device/stm32f4xx_tim.c ****   /* Get the TIMx CCMR1 register value */
 684:cmsis/device/stm32f4xx_tim.c ****   tmpccmrx = TIMx->CCMR1;
 685:cmsis/device/stm32f4xx_tim.c ****     
 686:cmsis/device/stm32f4xx_tim.c ****   /* Reset the Output Compare Mode Bits */
 687:cmsis/device/stm32f4xx_tim.c ****   tmpccmrx &= (uint16_t)~TIM_CCMR1_OC1M;
 688:cmsis/device/stm32f4xx_tim.c ****   tmpccmrx &= (uint16_t)~TIM_CCMR1_CC1S;
 689:cmsis/device/stm32f4xx_tim.c ****   /* Select the Output Compare Mode */
 690:cmsis/device/stm32f4xx_tim.c ****   tmpccmrx |= TIM_OCInitStruct->TIM_OCMode;
 691:cmsis/device/stm32f4xx_tim.c ****   
 692:cmsis/device/stm32f4xx_tim.c ****   /* Reset the Output Polarity level */
 693:cmsis/device/stm32f4xx_tim.c ****   tmpccer &= (uint16_t)~TIM_CCER_CC1P;
 694:cmsis/device/stm32f4xx_tim.c ****   /* Set the Output Compare Polarity */
 695:cmsis/device/stm32f4xx_tim.c ****   tmpccer |= TIM_OCInitStruct->TIM_OCPolarity;
 911              		.loc 1 695 0
 912 0006 B1F802C0 		ldrh	ip, [r1, #2]	@, TIM_OCInitStruct_14(D)->TIM_OutputState
 913 000a 8E89     		ldrh	r6, [r1, #12]	@, TIM_OCInitStruct_14(D)->TIM_OCPolarity
 690:cmsis/device/stm32f4xx_tim.c ****   tmpccmrx |= TIM_OCInitStruct->TIM_OCMode;
 914              		.loc 1 690 0
 915 000c 0F88     		ldrh	r7, [r1, #0]	@ tmp171, TIM_OCInitStruct_14(D)->TIM_OCMode
 676:cmsis/device/stm32f4xx_tim.c ****   TIMx->CCER &= (uint16_t)~TIM_CCER_CC1E;
 916              		.loc 1 676 0
 917 000e 24F00102 		bic	r2, r4, #1	@ D.7269, TIMx_6(D)->CCER,
 918 0012 1304     		lsls	r3, r2, #16	@ D.7269, D.7269,
 919 0014 1D0C     		lsrs	r5, r3, #16	@ D.7269, D.7269,
 920 0016 0584     		strh	r5, [r0, #32]	@ movhi	@ D.7269, TIMx_6(D)->CCER
 679:cmsis/device/stm32f4xx_tim.c ****   tmpccer = TIMx->CCER;
 921              		.loc 1 679 0
 922 0018 048C     		ldrh	r4, [r0, #32]	@, TIMx_6(D)->CCER
 923              	.LVL89:
 681:cmsis/device/stm32f4xx_tim.c ****   tmpcr2 =  TIMx->CR2;
 924              		.loc 1 681 0
 925 001a 8588     		ldrh	r5, [r0, #4]	@, TIMx_6(D)->CR2
 684:cmsis/device/stm32f4xx_tim.c ****   tmpccmrx = TIMx->CCMR1;
 926              		.loc 1 684 0
 927 001c 028B     		ldrh	r2, [r0, #24]	@, TIMx_6(D)->CCMR1
 693:cmsis/device/stm32f4xx_tim.c ****   tmpccer &= (uint16_t)~TIM_CCER_CC1P;
 928              		.loc 1 693 0
 929 001e 24F00203 		bic	r3, r4, #2	@ tmpccer, TIMx_6(D)->CCER,
 688:cmsis/device/stm32f4xx_tim.c ****   tmpccmrx &= (uint16_t)~TIM_CCMR1_CC1S;
 930              		.loc 1 688 0
 931 0022 22F07304 		bic	r4, r2, #115	@ tmpccmrx, TIMx_6(D)->CCMR1,
 932              	.LVL90:
 933 0026 2204     		lsls	r2, r4, #16	@ tmpccmrx, tmpccmrx,
 696:cmsis/device/stm32f4xx_tim.c ****   
 697:cmsis/device/stm32f4xx_tim.c ****   /* Set the Output State */
 698:cmsis/device/stm32f4xx_tim.c ****   tmpccer |= TIM_OCInitStruct->TIM_OutputState;
 699:cmsis/device/stm32f4xx_tim.c ****     
 700:cmsis/device/stm32f4xx_tim.c ****   if((TIMx == TIM1) || (TIMx == TIM8))
 934              		.loc 1 700 0
 935 0028 0024     		movs	r4, #0	@ tmp177,
 693:cmsis/device/stm32f4xx_tim.c ****   tmpccer &= (uint16_t)~TIM_CCER_CC1P;
 936              		.loc 1 693 0
 937 002a 1B04     		lsls	r3, r3, #16	@ tmpccer, tmpccer,
 695:cmsis/device/stm32f4xx_tim.c ****   tmpccer |= TIM_OCInitStruct->TIM_OCPolarity;
ARM GAS  C:\Users\CNous\AppData\Local\Temp\ccZi7tDD.s 			page 31


 938              		.loc 1 695 0
 939 002c 4CEA0606 		orr	r6, ip, r6	@ tmp175, TIM_OCInitStruct_14(D)->TIM_OutputState, TIM_OCInitStruct_14(D)->TIM_OCPo
 940              		.loc 1 700 0
 941 0030 C4F20104 		movt	r4, 16385	@ tmp177,
 688:cmsis/device/stm32f4xx_tim.c ****   tmpccmrx &= (uint16_t)~TIM_CCMR1_CC1S;
 942              		.loc 1 688 0
 943 0034 120C     		lsrs	r2, r2, #16	@ tmpccmrx, tmpccmrx,
 693:cmsis/device/stm32f4xx_tim.c ****   tmpccer &= (uint16_t)~TIM_CCER_CC1P;
 944              		.loc 1 693 0
 945 0036 1B0C     		lsrs	r3, r3, #16	@ tmpccer, tmpccer,
 695:cmsis/device/stm32f4xx_tim.c ****   tmpccer |= TIM_OCInitStruct->TIM_OCPolarity;
 946              		.loc 1 695 0
 947 0038 B6B2     		uxth	r6, r6	@ tmpccer, tmp175
 948              		.loc 1 700 0
 949 003a A042     		cmp	r0, r4	@ TIMx, tmp177
 681:cmsis/device/stm32f4xx_tim.c ****   tmpcr2 =  TIMx->CR2;
 950              		.loc 1 681 0
 951 003c ADB2     		uxth	r5, r5	@ tmpcr2, TIMx_6(D)->CR2
 952              	.LVL91:
 690:cmsis/device/stm32f4xx_tim.c ****   tmpccmrx |= TIM_OCInitStruct->TIM_OCMode;
 953              		.loc 1 690 0
 954 003e 42EA0702 		orr	r2, r2, r7	@ tmpccmrx, tmpccmrx, tmp171
 955              	.LVL92:
 698:cmsis/device/stm32f4xx_tim.c ****   tmpccer |= TIM_OCInitStruct->TIM_OutputState;
 956              		.loc 1 698 0
 957 0042 46EA0303 		orr	r3, r6, r3	@ tmpccer, tmpccer, tmpccer
 958              	.LVL93:
 959              		.loc 1 700 0
 960 0046 0DD0     		beq	.L69	@,
 961              		.loc 1 700 0 is_stmt 0 discriminator 1
 962 0048 4FF48064 		mov	r4, #1024	@ tmp178,
 963 004c C4F20104 		movt	r4, 16385	@ tmp178,
 964 0050 A042     		cmp	r0, r4	@ TIMx, tmp178
 965 0052 07D0     		beq	.L69	@,
 966              	.LVL94:
 967              	.L70:
 701:cmsis/device/stm32f4xx_tim.c ****   {
 702:cmsis/device/stm32f4xx_tim.c ****     assert_param(IS_TIM_OUTPUTN_STATE(TIM_OCInitStruct->TIM_OutputNState));
 703:cmsis/device/stm32f4xx_tim.c ****     assert_param(IS_TIM_OCN_POLARITY(TIM_OCInitStruct->TIM_OCNPolarity));
 704:cmsis/device/stm32f4xx_tim.c ****     assert_param(IS_TIM_OCNIDLE_STATE(TIM_OCInitStruct->TIM_OCNIdleState));
 705:cmsis/device/stm32f4xx_tim.c ****     assert_param(IS_TIM_OCIDLE_STATE(TIM_OCInitStruct->TIM_OCIdleState));
 706:cmsis/device/stm32f4xx_tim.c ****     
 707:cmsis/device/stm32f4xx_tim.c ****     /* Reset the Output N Polarity level */
 708:cmsis/device/stm32f4xx_tim.c ****     tmpccer &= (uint16_t)~TIM_CCER_CC1NP;
 709:cmsis/device/stm32f4xx_tim.c ****     /* Set the Output N Polarity */
 710:cmsis/device/stm32f4xx_tim.c ****     tmpccer |= TIM_OCInitStruct->TIM_OCNPolarity;
 711:cmsis/device/stm32f4xx_tim.c ****     /* Reset the Output N State */
 712:cmsis/device/stm32f4xx_tim.c ****     tmpccer &= (uint16_t)~TIM_CCER_CC1NE;
 713:cmsis/device/stm32f4xx_tim.c ****     
 714:cmsis/device/stm32f4xx_tim.c ****     /* Set the Output N State */
 715:cmsis/device/stm32f4xx_tim.c ****     tmpccer |= TIM_OCInitStruct->TIM_OutputNState;
 716:cmsis/device/stm32f4xx_tim.c ****     /* Reset the Output Compare and Output Compare N IDLE State */
 717:cmsis/device/stm32f4xx_tim.c ****     tmpcr2 &= (uint16_t)~TIM_CR2_OIS1;
 718:cmsis/device/stm32f4xx_tim.c ****     tmpcr2 &= (uint16_t)~TIM_CR2_OIS1N;
 719:cmsis/device/stm32f4xx_tim.c ****     /* Set the Output Idle state */
 720:cmsis/device/stm32f4xx_tim.c ****     tmpcr2 |= TIM_OCInitStruct->TIM_OCIdleState;
 721:cmsis/device/stm32f4xx_tim.c ****     /* Set the Output N Idle state */
ARM GAS  C:\Users\CNous\AppData\Local\Temp\ccZi7tDD.s 			page 32


 722:cmsis/device/stm32f4xx_tim.c ****     tmpcr2 |= TIM_OCInitStruct->TIM_OCNIdleState;
 723:cmsis/device/stm32f4xx_tim.c ****   }
 724:cmsis/device/stm32f4xx_tim.c ****   /* Write to TIMx CR2 */
 725:cmsis/device/stm32f4xx_tim.c ****   TIMx->CR2 = tmpcr2;
 726:cmsis/device/stm32f4xx_tim.c ****   
 727:cmsis/device/stm32f4xx_tim.c ****   /* Write to TIMx CCMR1 */
 728:cmsis/device/stm32f4xx_tim.c ****   TIMx->CCMR1 = tmpccmrx;
 729:cmsis/device/stm32f4xx_tim.c ****   
 730:cmsis/device/stm32f4xx_tim.c ****   /* Set the Capture Compare Register value */
 731:cmsis/device/stm32f4xx_tim.c ****   TIMx->CCR1 = TIM_OCInitStruct->TIM_Pulse;
 968              		.loc 1 731 0 is_stmt 1
 969 0054 8968     		ldr	r1, [r1, #8]	@ D.7280, TIM_OCInitStruct_14(D)->TIM_Pulse
 970              	.LVL95:
 725:cmsis/device/stm32f4xx_tim.c ****   TIMx->CR2 = tmpcr2;
 971              		.loc 1 725 0
 972 0056 8580     		strh	r5, [r0, #4]	@ movhi	@ tmpcr2, TIMx_6(D)->CR2
 728:cmsis/device/stm32f4xx_tim.c ****   TIMx->CCMR1 = tmpccmrx;
 973              		.loc 1 728 0
 974 0058 0283     		strh	r2, [r0, #24]	@ movhi	@ tmpccmrx, TIMx_6(D)->CCMR1
 975              		.loc 1 731 0
 976 005a 4163     		str	r1, [r0, #52]	@ D.7280, TIMx_6(D)->CCR1
 732:cmsis/device/stm32f4xx_tim.c ****   
 733:cmsis/device/stm32f4xx_tim.c ****   /* Write to TIMx CCER */
 734:cmsis/device/stm32f4xx_tim.c ****   TIMx->CCER = tmpccer;
 977              		.loc 1 734 0
 978 005c 0384     		strh	r3, [r0, #32]	@ movhi	@ tmpccer, TIMx_6(D)->CCER
 735:cmsis/device/stm32f4xx_tim.c **** }
 979              		.loc 1 735 0
 980 005e BDE8F001 		pop	{r4, r5, r6, r7, r8}
 981 0062 7047     		bx	lr
 982              	.LVL96:
 983              	.L69:
 708:cmsis/device/stm32f4xx_tim.c ****     tmpccer &= (uint16_t)~TIM_CCER_CC1NP;
 984              		.loc 1 708 0
 985 0064 4FF6F774 		movw	r4, #65527	@ tmpccer,
 710:cmsis/device/stm32f4xx_tim.c ****     tmpccer |= TIM_OCInitStruct->TIM_OCNPolarity;
 986              		.loc 1 710 0
 987 0068 B1F80EC0 		ldrh	ip, [r1, #14]	@ tmp181, TIM_OCInitStruct_14(D)->TIM_OCNPolarity
 720:cmsis/device/stm32f4xx_tim.c ****     tmpcr2 |= TIM_OCInitStruct->TIM_OCIdleState;
 988              		.loc 1 720 0
 989 006c B1F81280 		ldrh	r8, [r1, #18]	@, TIM_OCInitStruct_14(D)->TIM_OCNIdleState
 990 0070 0F8A     		ldrh	r7, [r1, #16]	@, TIM_OCInitStruct_14(D)->TIM_OCIdleState
 715:cmsis/device/stm32f4xx_tim.c ****     tmpccer |= TIM_OCInitStruct->TIM_OutputNState;
 991              		.loc 1 715 0
 992 0072 8E88     		ldrh	r6, [r1, #4]	@ tmp184, TIM_OCInitStruct_14(D)->TIM_OutputNState
 708:cmsis/device/stm32f4xx_tim.c ****     tmpccer &= (uint16_t)~TIM_CCER_CC1NP;
 993              		.loc 1 708 0
 994 0074 1C40     		ands	r4, r4, r3	@, tmpccer, tmpccer, tmpccer
 995              	.LVL97:
 710:cmsis/device/stm32f4xx_tim.c ****     tmpccer |= TIM_OCInitStruct->TIM_OCNPolarity;
 996              		.loc 1 710 0
 997 0076 44EA0C0C 		orr	ip, r4, ip	@ tmpccer, tmpccer, tmp181
 998              	.LVL98:
 712:cmsis/device/stm32f4xx_tim.c ****     tmpccer &= (uint16_t)~TIM_CCER_CC1NE;
 999              		.loc 1 712 0
 1000 007a 4FF6FB73 		movw	r3, #65531	@ tmpccer,
 718:cmsis/device/stm32f4xx_tim.c ****     tmpcr2 &= (uint16_t)~TIM_CR2_OIS1N;
ARM GAS  C:\Users\CNous\AppData\Local\Temp\ccZi7tDD.s 			page 33


 1001              		.loc 1 718 0
 1002 007e 4FF6FF44 		movw	r4, #64767	@ tmpcr2,
 720:cmsis/device/stm32f4xx_tim.c ****     tmpcr2 |= TIM_OCInitStruct->TIM_OCIdleState;
 1003              		.loc 1 720 0
 1004 0082 48EA0707 		orr	r7, r8, r7	@ tmp188, TIM_OCInitStruct_14(D)->TIM_OCNIdleState, TIM_OCInitStruct_14(D)->TIM_OCI
 718:cmsis/device/stm32f4xx_tim.c ****     tmpcr2 &= (uint16_t)~TIM_CR2_OIS1N;
 1005              		.loc 1 718 0
 1006 0086 2C40     		ands	r4, r4, r5	@, tmpcr2, tmpcr2, tmpcr2
 712:cmsis/device/stm32f4xx_tim.c ****     tmpccer &= (uint16_t)~TIM_CCER_CC1NE;
 1007              		.loc 1 712 0
 1008 0088 0CEA0303 		and	r3, ip, r3	@ tmpccer, tmpccer, tmpccer
 1009              	.LVL99:
 720:cmsis/device/stm32f4xx_tim.c ****     tmpcr2 |= TIM_OCInitStruct->TIM_OCIdleState;
 1010              		.loc 1 720 0
 1011 008c BDB2     		uxth	r5, r7	@ tmpcr2, tmp188
 1012              	.LVL100:
 715:cmsis/device/stm32f4xx_tim.c ****     tmpccer |= TIM_OCInitStruct->TIM_OutputNState;
 1013              		.loc 1 715 0
 1014 008e 3343     		orrs	r3, r3, r6	@, tmpccer, tmpccer, tmp184
 1015              	.LVL101:
 722:cmsis/device/stm32f4xx_tim.c ****     tmpcr2 |= TIM_OCInitStruct->TIM_OCNIdleState;
 1016              		.loc 1 722 0
 1017 0090 2543     		orrs	r5, r5, r4	@, tmpcr2, tmpcr2, tmpcr2
 1018              	.LVL102:
 1019 0092 DFE7     		b	.L70	@
 1020              		.cfi_endproc
 1021              	.LFE125:
 1022              		.size	TIM_OC1Init, .-TIM_OC1Init
 1023              		.section	.text.TIM_OC2Init,"ax",%progbits
 1024              		.align	2
 1025              		.global	TIM_OC2Init
 1026              		.thumb
 1027              		.thumb_func
 1028              		.type	TIM_OC2Init, %function
 1029              	TIM_OC2Init:
 1030              	.LFB126:
 736:cmsis/device/stm32f4xx_tim.c **** 
 737:cmsis/device/stm32f4xx_tim.c **** /**
 738:cmsis/device/stm32f4xx_tim.c ****   * @brief  Initializes the TIMx Channel2 according to the specified parameters 
 739:cmsis/device/stm32f4xx_tim.c ****   *         in the TIM_OCInitStruct.
 740:cmsis/device/stm32f4xx_tim.c ****   * @param  TIMx: where x can be 1, 2, 3, 4, 5, 8, 9 or 12 to select the TIM 
 741:cmsis/device/stm32f4xx_tim.c ****   *         peripheral.
 742:cmsis/device/stm32f4xx_tim.c ****   * @param  TIM_OCInitStruct: pointer to a TIM_OCInitTypeDef structure that contains
 743:cmsis/device/stm32f4xx_tim.c ****   *         the configuration information for the specified TIM peripheral.
 744:cmsis/device/stm32f4xx_tim.c ****   * @retval None
 745:cmsis/device/stm32f4xx_tim.c ****   */
 746:cmsis/device/stm32f4xx_tim.c **** void TIM_OC2Init(TIM_TypeDef* TIMx, TIM_OCInitTypeDef* TIM_OCInitStruct)
 747:cmsis/device/stm32f4xx_tim.c **** {
 1031              		.loc 1 747 0
 1032              		.cfi_startproc
 1033              		@ args = 0, pretend = 0, frame = 0
 1034              		@ frame_needed = 0, uses_anonymous_args = 0
 1035              		@ link register save eliminated.
 1036              	.LVL103:
 1037 0000 2DE9F003 		push	{r4, r5, r6, r7, r8, r9}	@
 1038              	.LCFI3:
 1039              		.cfi_def_cfa_offset 24
ARM GAS  C:\Users\CNous\AppData\Local\Temp\ccZi7tDD.s 			page 34


 1040              		.cfi_offset 4, -24
 1041              		.cfi_offset 5, -20
 1042              		.cfi_offset 6, -16
 1043              		.cfi_offset 7, -12
 1044              		.cfi_offset 8, -8
 1045              		.cfi_offset 9, -4
 748:cmsis/device/stm32f4xx_tim.c ****   uint16_t tmpccmrx = 0, tmpccer = 0, tmpcr2 = 0;
 749:cmsis/device/stm32f4xx_tim.c ****    
 750:cmsis/device/stm32f4xx_tim.c ****   /* Check the parameters */
 751:cmsis/device/stm32f4xx_tim.c ****   assert_param(IS_TIM_LIST2_PERIPH(TIMx)); 
 752:cmsis/device/stm32f4xx_tim.c ****   assert_param(IS_TIM_OC_MODE(TIM_OCInitStruct->TIM_OCMode));
 753:cmsis/device/stm32f4xx_tim.c ****   assert_param(IS_TIM_OUTPUT_STATE(TIM_OCInitStruct->TIM_OutputState));
 754:cmsis/device/stm32f4xx_tim.c ****   assert_param(IS_TIM_OC_POLARITY(TIM_OCInitStruct->TIM_OCPolarity));   
 755:cmsis/device/stm32f4xx_tim.c **** 
 756:cmsis/device/stm32f4xx_tim.c ****   /* Disable the Channel 2: Reset the CC2E Bit */
 757:cmsis/device/stm32f4xx_tim.c ****   TIMx->CCER &= (uint16_t)~TIM_CCER_CC2E;
 1046              		.loc 1 757 0
 1047 0004 048C     		ldrh	r4, [r0, #32]	@, TIMx_6(D)->CCER
 758:cmsis/device/stm32f4xx_tim.c ****   
 759:cmsis/device/stm32f4xx_tim.c ****   /* Get the TIMx CCER register value */  
 760:cmsis/device/stm32f4xx_tim.c ****   tmpccer = TIMx->CCER;
 761:cmsis/device/stm32f4xx_tim.c ****   /* Get the TIMx CR2 register value */
 762:cmsis/device/stm32f4xx_tim.c ****   tmpcr2 =  TIMx->CR2;
 763:cmsis/device/stm32f4xx_tim.c ****   
 764:cmsis/device/stm32f4xx_tim.c ****   /* Get the TIMx CCMR1 register value */
 765:cmsis/device/stm32f4xx_tim.c ****   tmpccmrx = TIMx->CCMR1;
 766:cmsis/device/stm32f4xx_tim.c ****     
 767:cmsis/device/stm32f4xx_tim.c ****   /* Reset the Output Compare mode and Capture/Compare selection Bits */
 768:cmsis/device/stm32f4xx_tim.c ****   tmpccmrx &= (uint16_t)~TIM_CCMR1_OC2M;
 769:cmsis/device/stm32f4xx_tim.c ****   tmpccmrx &= (uint16_t)~TIM_CCMR1_CC2S;
 770:cmsis/device/stm32f4xx_tim.c ****   
 771:cmsis/device/stm32f4xx_tim.c ****   /* Select the Output Compare Mode */
 772:cmsis/device/stm32f4xx_tim.c ****   tmpccmrx |= (uint16_t)(TIM_OCInitStruct->TIM_OCMode << 8);
 773:cmsis/device/stm32f4xx_tim.c ****   
 774:cmsis/device/stm32f4xx_tim.c ****   /* Reset the Output Polarity level */
 775:cmsis/device/stm32f4xx_tim.c ****   tmpccer &= (uint16_t)~TIM_CCER_CC2P;
 776:cmsis/device/stm32f4xx_tim.c ****   /* Set the Output Compare Polarity */
 777:cmsis/device/stm32f4xx_tim.c ****   tmpccer |= (uint16_t)(TIM_OCInitStruct->TIM_OCPolarity << 4);
 1048              		.loc 1 777 0
 1049 0006 8D89     		ldrh	r5, [r1, #12]	@, TIM_OCInitStruct_14(D)->TIM_OCPolarity
 772:cmsis/device/stm32f4xx_tim.c ****   tmpccmrx |= (uint16_t)(TIM_OCInitStruct->TIM_OCMode << 8);
 1050              		.loc 1 772 0
 1051 0008 0F88     		ldrh	r7, [r1, #0]	@, TIM_OCInitStruct_14(D)->TIM_OCMode
 778:cmsis/device/stm32f4xx_tim.c ****   
 779:cmsis/device/stm32f4xx_tim.c ****   /* Set the Output State */
 780:cmsis/device/stm32f4xx_tim.c ****   tmpccer |= (uint16_t)(TIM_OCInitStruct->TIM_OutputState << 4);
 1052              		.loc 1 780 0
 1053 000a 4E88     		ldrh	r6, [r1, #2]	@, TIM_OCInitStruct_14(D)->TIM_OutputState
 757:cmsis/device/stm32f4xx_tim.c ****   TIMx->CCER &= (uint16_t)~TIM_CCER_CC2E;
 1054              		.loc 1 757 0
 1055 000c 24F01002 		bic	r2, r4, #16	@ D.7249, TIMx_6(D)->CCER,
 1056 0010 1304     		lsls	r3, r2, #16	@ D.7249, D.7249,
 1057 0012 1C0C     		lsrs	r4, r3, #16	@ D.7249, D.7249,
 1058 0014 0484     		strh	r4, [r0, #32]	@ movhi	@ D.7249, TIMx_6(D)->CCER
 760:cmsis/device/stm32f4xx_tim.c ****   tmpccer = TIMx->CCER;
 1059              		.loc 1 760 0
 1060 0016 028C     		ldrh	r2, [r0, #32]	@, TIMx_6(D)->CCER
ARM GAS  C:\Users\CNous\AppData\Local\Temp\ccZi7tDD.s 			page 35


 1061              	.LVL104:
 762:cmsis/device/stm32f4xx_tim.c ****   tmpcr2 =  TIMx->CR2;
 1062              		.loc 1 762 0
 1063 0018 8488     		ldrh	r4, [r0, #4]	@, TIMx_6(D)->CR2
 765:cmsis/device/stm32f4xx_tim.c ****   tmpccmrx = TIMx->CCMR1;
 1064              		.loc 1 765 0
 1065 001a 038B     		ldrh	r3, [r0, #24]	@, TIMx_6(D)->CCMR1
 775:cmsis/device/stm32f4xx_tim.c ****   tmpccer &= (uint16_t)~TIM_CCER_CC2P;
 1066              		.loc 1 775 0
 1067 001c 22F02002 		bic	r2, r2, #32	@ tmpccer, TIMx_6(D)->CCER,
 1068              	.LVL105:
 1069 0020 1204     		lsls	r2, r2, #16	@ tmpccer, tmpccer,
 1070 0022 120C     		lsrs	r2, r2, #16	@ tmpccer, tmpccer,
 769:cmsis/device/stm32f4xx_tim.c ****   tmpccmrx &= (uint16_t)~TIM_CCMR1_CC2S;
 1071              		.loc 1 769 0
 1072 0024 23F4E643 		bic	r3, r3, #29440	@ tmpccmrx, TIMx_6(D)->CCMR1,
 1073 0028 1B04     		lsls	r3, r3, #16	@ tmpccmrx, tmpccmrx,
 777:cmsis/device/stm32f4xx_tim.c ****   tmpccer |= (uint16_t)(TIM_OCInitStruct->TIM_OCPolarity << 4);
 1074              		.loc 1 777 0
 1075 002a 42EA0512 		orr	r2, r2, r5, lsl #4	@, tmp185, tmpccer, TIM_OCInitStruct_14(D)->TIM_OCPolarity,
 781:cmsis/device/stm32f4xx_tim.c ****     
 782:cmsis/device/stm32f4xx_tim.c ****   if((TIMx == TIM1) || (TIMx == TIM8))
 1076              		.loc 1 782 0
 1077 002e 0025     		movs	r5, #0	@ tmp190,
 769:cmsis/device/stm32f4xx_tim.c ****   tmpccmrx &= (uint16_t)~TIM_CCMR1_CC2S;
 1078              		.loc 1 769 0
 1079 0030 1B0C     		lsrs	r3, r3, #16	@ tmpccmrx, tmpccmrx,
 1080              		.loc 1 782 0
 1081 0032 C4F20105 		movt	r5, 16385	@ tmp190,
 772:cmsis/device/stm32f4xx_tim.c ****   tmpccmrx |= (uint16_t)(TIM_OCInitStruct->TIM_OCMode << 8);
 1082              		.loc 1 772 0
 1083 0036 43EA0723 		orr	r3, r3, r7, lsl #8	@, tmp180, tmpccmrx, TIM_OCInitStruct_14(D)->TIM_OCMode,
 780:cmsis/device/stm32f4xx_tim.c ****   tmpccer |= (uint16_t)(TIM_OCInitStruct->TIM_OutputState << 4);
 1084              		.loc 1 780 0
 1085 003a 42EA0612 		orr	r2, r2, r6, lsl #4	@, tmpccer, tmp185, TIM_OCInitStruct_14(D)->TIM_OutputState,
 1086              		.loc 1 782 0
 1087 003e A842     		cmp	r0, r5	@ TIMx, tmp190
 762:cmsis/device/stm32f4xx_tim.c ****   tmpcr2 =  TIMx->CR2;
 1088              		.loc 1 762 0
 1089 0040 A4B2     		uxth	r4, r4	@ tmpcr2, TIMx_6(D)->CR2
 1090              	.LVL106:
 772:cmsis/device/stm32f4xx_tim.c ****   tmpccmrx |= (uint16_t)(TIM_OCInitStruct->TIM_OCMode << 8);
 1091              		.loc 1 772 0
 1092 0042 9BB2     		uxth	r3, r3	@ tmpccmrx, tmp180
 1093              	.LVL107:
 780:cmsis/device/stm32f4xx_tim.c ****   tmpccer |= (uint16_t)(TIM_OCInitStruct->TIM_OutputState << 4);
 1094              		.loc 1 780 0
 1095 0044 92B2     		uxth	r2, r2	@ tmpccer, tmpccer
 1096              	.LVL108:
 1097              		.loc 1 782 0
 1098 0046 0DD0     		beq	.L72	@,
 1099              		.loc 1 782 0 is_stmt 0 discriminator 1
 1100 0048 4FF48065 		mov	r5, #1024	@ tmp191,
 1101 004c C4F20105 		movt	r5, 16385	@ tmp191,
 1102 0050 A842     		cmp	r0, r5	@ TIMx, tmp191
 1103 0052 07D0     		beq	.L72	@,
 1104              	.LVL109:
ARM GAS  C:\Users\CNous\AppData\Local\Temp\ccZi7tDD.s 			page 36


 1105              	.L73:
 783:cmsis/device/stm32f4xx_tim.c ****   {
 784:cmsis/device/stm32f4xx_tim.c ****     assert_param(IS_TIM_OUTPUTN_STATE(TIM_OCInitStruct->TIM_OutputNState));
 785:cmsis/device/stm32f4xx_tim.c ****     assert_param(IS_TIM_OCN_POLARITY(TIM_OCInitStruct->TIM_OCNPolarity));
 786:cmsis/device/stm32f4xx_tim.c ****     assert_param(IS_TIM_OCNIDLE_STATE(TIM_OCInitStruct->TIM_OCNIdleState));
 787:cmsis/device/stm32f4xx_tim.c ****     assert_param(IS_TIM_OCIDLE_STATE(TIM_OCInitStruct->TIM_OCIdleState));
 788:cmsis/device/stm32f4xx_tim.c ****     
 789:cmsis/device/stm32f4xx_tim.c ****     /* Reset the Output N Polarity level */
 790:cmsis/device/stm32f4xx_tim.c ****     tmpccer &= (uint16_t)~TIM_CCER_CC2NP;
 791:cmsis/device/stm32f4xx_tim.c ****     /* Set the Output N Polarity */
 792:cmsis/device/stm32f4xx_tim.c ****     tmpccer |= (uint16_t)(TIM_OCInitStruct->TIM_OCNPolarity << 4);
 793:cmsis/device/stm32f4xx_tim.c ****     /* Reset the Output N State */
 794:cmsis/device/stm32f4xx_tim.c ****     tmpccer &= (uint16_t)~TIM_CCER_CC2NE;
 795:cmsis/device/stm32f4xx_tim.c ****     
 796:cmsis/device/stm32f4xx_tim.c ****     /* Set the Output N State */
 797:cmsis/device/stm32f4xx_tim.c ****     tmpccer |= (uint16_t)(TIM_OCInitStruct->TIM_OutputNState << 4);
 798:cmsis/device/stm32f4xx_tim.c ****     /* Reset the Output Compare and Output Compare N IDLE State */
 799:cmsis/device/stm32f4xx_tim.c ****     tmpcr2 &= (uint16_t)~TIM_CR2_OIS2;
 800:cmsis/device/stm32f4xx_tim.c ****     tmpcr2 &= (uint16_t)~TIM_CR2_OIS2N;
 801:cmsis/device/stm32f4xx_tim.c ****     /* Set the Output Idle state */
 802:cmsis/device/stm32f4xx_tim.c ****     tmpcr2 |= (uint16_t)(TIM_OCInitStruct->TIM_OCIdleState << 2);
 803:cmsis/device/stm32f4xx_tim.c ****     /* Set the Output N Idle state */
 804:cmsis/device/stm32f4xx_tim.c ****     tmpcr2 |= (uint16_t)(TIM_OCInitStruct->TIM_OCNIdleState << 2);
 805:cmsis/device/stm32f4xx_tim.c ****   }
 806:cmsis/device/stm32f4xx_tim.c ****   /* Write to TIMx CR2 */
 807:cmsis/device/stm32f4xx_tim.c ****   TIMx->CR2 = tmpcr2;
 808:cmsis/device/stm32f4xx_tim.c ****   
 809:cmsis/device/stm32f4xx_tim.c ****   /* Write to TIMx CCMR1 */
 810:cmsis/device/stm32f4xx_tim.c ****   TIMx->CCMR1 = tmpccmrx;
 811:cmsis/device/stm32f4xx_tim.c ****   
 812:cmsis/device/stm32f4xx_tim.c ****   /* Set the Capture Compare Register value */
 813:cmsis/device/stm32f4xx_tim.c ****   TIMx->CCR2 = TIM_OCInitStruct->TIM_Pulse;
 1106              		.loc 1 813 0 is_stmt 1
 1107 0054 8968     		ldr	r1, [r1, #8]	@ D.7267, TIM_OCInitStruct_14(D)->TIM_Pulse
 1108              	.LVL110:
 807:cmsis/device/stm32f4xx_tim.c ****   TIMx->CR2 = tmpcr2;
 1109              		.loc 1 807 0
 1110 0056 8480     		strh	r4, [r0, #4]	@ movhi	@ tmpcr2, TIMx_6(D)->CR2
 810:cmsis/device/stm32f4xx_tim.c ****   TIMx->CCMR1 = tmpccmrx;
 1111              		.loc 1 810 0
 1112 0058 0383     		strh	r3, [r0, #24]	@ movhi	@ tmpccmrx, TIMx_6(D)->CCMR1
 1113              		.loc 1 813 0
 1114 005a 8163     		str	r1, [r0, #56]	@ D.7267, TIMx_6(D)->CCR2
 814:cmsis/device/stm32f4xx_tim.c ****   
 815:cmsis/device/stm32f4xx_tim.c ****   /* Write to TIMx CCER */
 816:cmsis/device/stm32f4xx_tim.c ****   TIMx->CCER = tmpccer;
 1115              		.loc 1 816 0
 1116 005c 0284     		strh	r2, [r0, #32]	@ movhi	@ tmpccer, TIMx_6(D)->CCER
 817:cmsis/device/stm32f4xx_tim.c **** }
 1117              		.loc 1 817 0
 1118 005e BDE8F003 		pop	{r4, r5, r6, r7, r8, r9}
 1119 0062 7047     		bx	lr
 1120              	.LVL111:
 1121              	.L72:
 790:cmsis/device/stm32f4xx_tim.c ****     tmpccer &= (uint16_t)~TIM_CCER_CC2NP;
 1122              		.loc 1 790 0
 1123 0064 4FF67F76 		movw	r6, #65407	@ tmpccer,
ARM GAS  C:\Users\CNous\AppData\Local\Temp\ccZi7tDD.s 			page 37


 792:cmsis/device/stm32f4xx_tim.c ****     tmpccer |= (uint16_t)(TIM_OCInitStruct->TIM_OCNPolarity << 4);
 1124              		.loc 1 792 0
 1125 0068 B1F80E90 		ldrh	r9, [r1, #14]	@, TIM_OCInitStruct_14(D)->TIM_OCNPolarity
 802:cmsis/device/stm32f4xx_tim.c ****     tmpcr2 |= (uint16_t)(TIM_OCInitStruct->TIM_OCIdleState << 2);
 1126              		.loc 1 802 0
 1127 006c B1F81080 		ldrh	r8, [r1, #16]	@, TIM_OCInitStruct_14(D)->TIM_OCIdleState
 797:cmsis/device/stm32f4xx_tim.c ****     tmpccer |= (uint16_t)(TIM_OCInitStruct->TIM_OutputNState << 4);
 1128              		.loc 1 797 0
 1129 0070 B1F804C0 		ldrh	ip, [r1, #4]	@, TIM_OCInitStruct_14(D)->TIM_OutputNState
 804:cmsis/device/stm32f4xx_tim.c ****     tmpcr2 |= (uint16_t)(TIM_OCInitStruct->TIM_OCNIdleState << 2);
 1130              		.loc 1 804 0
 1131 0074 4F8A     		ldrh	r7, [r1, #18]	@, TIM_OCInitStruct_14(D)->TIM_OCNIdleState
 790:cmsis/device/stm32f4xx_tim.c ****     tmpccer &= (uint16_t)~TIM_CCER_CC2NP;
 1132              		.loc 1 790 0
 1133 0076 1640     		ands	r6, r6, r2	@, tmpccer, tmpccer, tmpccer
 1134              	.LVL112:
 800:cmsis/device/stm32f4xx_tim.c ****     tmpcr2 &= (uint16_t)~TIM_CR2_OIS2N;
 1135              		.loc 1 800 0
 1136 0078 4FF2FF35 		movw	r5, #62463	@ tmpcr2,
 1137 007c 2540     		ands	r5, r5, r4	@, tmpcr2, tmpcr2, tmpcr2
 792:cmsis/device/stm32f4xx_tim.c ****     tmpccer |= (uint16_t)(TIM_OCInitStruct->TIM_OCNPolarity << 4);
 1138              		.loc 1 792 0
 1139 007e 46EA0916 		orr	r6, r6, r9, lsl #4	@, tmp196, tmpccer, TIM_OCInitStruct_14(D)->TIM_OCNPolarity,
 1140              	.LVL113:
 794:cmsis/device/stm32f4xx_tim.c ****     tmpccer &= (uint16_t)~TIM_CCER_CC2NE;
 1141              		.loc 1 794 0
 1142 0082 4FF6BF72 		movw	r2, #65471	@ tmpccer,
 1143 0086 3240     		ands	r2, r2, r6	@, tmpccer, tmpccer, tmp196
 1144              	.LVL114:
 802:cmsis/device/stm32f4xx_tim.c ****     tmpcr2 |= (uint16_t)(TIM_OCInitStruct->TIM_OCIdleState << 2);
 1145              		.loc 1 802 0
 1146 0088 45EA8804 		orr	r4, r5, r8, lsl #2	@, tmp206, tmpcr2, TIM_OCInitStruct_14(D)->TIM_OCIdleState,
 1147              	.LVL115:
 797:cmsis/device/stm32f4xx_tim.c ****     tmpccer |= (uint16_t)(TIM_OCInitStruct->TIM_OutputNState << 4);
 1148              		.loc 1 797 0
 1149 008c 42EA0C12 		orr	r2, r2, ip, lsl #4	@, tmp201, tmpccer, TIM_OCInitStruct_14(D)->TIM_OutputNState,
 1150              	.LVL116:
 804:cmsis/device/stm32f4xx_tim.c ****     tmpcr2 |= (uint16_t)(TIM_OCInitStruct->TIM_OCNIdleState << 2);
 1151              		.loc 1 804 0
 1152 0090 44EA8704 		orr	r4, r4, r7, lsl #2	@, tmpcr2, tmp206, TIM_OCInitStruct_14(D)->TIM_OCNIdleState,
 797:cmsis/device/stm32f4xx_tim.c ****     tmpccer |= (uint16_t)(TIM_OCInitStruct->TIM_OutputNState << 4);
 1153              		.loc 1 797 0
 1154 0094 92B2     		uxth	r2, r2	@ tmpccer, tmp201
 1155              	.LVL117:
 804:cmsis/device/stm32f4xx_tim.c ****     tmpcr2 |= (uint16_t)(TIM_OCInitStruct->TIM_OCNIdleState << 2);
 1156              		.loc 1 804 0
 1157 0096 A4B2     		uxth	r4, r4	@ tmpcr2, tmpcr2
 1158              	.LVL118:
 1159 0098 DCE7     		b	.L73	@
 1160              		.cfi_endproc
 1161              	.LFE126:
 1162              		.size	TIM_OC2Init, .-TIM_OC2Init
 1163 009a 00BF     		.section	.text.TIM_OC3Init,"ax",%progbits
 1164              		.align	2
 1165              		.global	TIM_OC3Init
 1166              		.thumb
 1167              		.thumb_func
ARM GAS  C:\Users\CNous\AppData\Local\Temp\ccZi7tDD.s 			page 38


 1168              		.type	TIM_OC3Init, %function
 1169              	TIM_OC3Init:
 1170              	.LFB127:
 818:cmsis/device/stm32f4xx_tim.c **** 
 819:cmsis/device/stm32f4xx_tim.c **** /**
 820:cmsis/device/stm32f4xx_tim.c ****   * @brief  Initializes the TIMx Channel3 according to the specified parameters
 821:cmsis/device/stm32f4xx_tim.c ****   *         in the TIM_OCInitStruct.
 822:cmsis/device/stm32f4xx_tim.c ****   * @param  TIMx: where x can be 1, 2, 3, 4, 5 or 8 to select the TIM peripheral.
 823:cmsis/device/stm32f4xx_tim.c ****   * @param  TIM_OCInitStruct: pointer to a TIM_OCInitTypeDef structure that contains
 824:cmsis/device/stm32f4xx_tim.c ****   *         the configuration information for the specified TIM peripheral.
 825:cmsis/device/stm32f4xx_tim.c ****   * @retval None
 826:cmsis/device/stm32f4xx_tim.c ****   */
 827:cmsis/device/stm32f4xx_tim.c **** void TIM_OC3Init(TIM_TypeDef* TIMx, TIM_OCInitTypeDef* TIM_OCInitStruct)
 828:cmsis/device/stm32f4xx_tim.c **** {
 1171              		.loc 1 828 0
 1172              		.cfi_startproc
 1173              		@ args = 0, pretend = 0, frame = 0
 1174              		@ frame_needed = 0, uses_anonymous_args = 0
 1175              		@ link register save eliminated.
 1176              	.LVL119:
 1177 0000 2DE9F003 		push	{r4, r5, r6, r7, r8, r9}	@
 1178              	.LCFI4:
 1179              		.cfi_def_cfa_offset 24
 1180              		.cfi_offset 4, -24
 1181              		.cfi_offset 5, -20
 1182              		.cfi_offset 6, -16
 1183              		.cfi_offset 7, -12
 1184              		.cfi_offset 8, -8
 1185              		.cfi_offset 9, -4
 829:cmsis/device/stm32f4xx_tim.c ****   uint16_t tmpccmrx = 0, tmpccer = 0, tmpcr2 = 0;
 830:cmsis/device/stm32f4xx_tim.c ****    
 831:cmsis/device/stm32f4xx_tim.c ****   /* Check the parameters */
 832:cmsis/device/stm32f4xx_tim.c ****   assert_param(IS_TIM_LIST3_PERIPH(TIMx)); 
 833:cmsis/device/stm32f4xx_tim.c ****   assert_param(IS_TIM_OC_MODE(TIM_OCInitStruct->TIM_OCMode));
 834:cmsis/device/stm32f4xx_tim.c ****   assert_param(IS_TIM_OUTPUT_STATE(TIM_OCInitStruct->TIM_OutputState));
 835:cmsis/device/stm32f4xx_tim.c ****   assert_param(IS_TIM_OC_POLARITY(TIM_OCInitStruct->TIM_OCPolarity));   
 836:cmsis/device/stm32f4xx_tim.c **** 
 837:cmsis/device/stm32f4xx_tim.c ****   /* Disable the Channel 3: Reset the CC2E Bit */
 838:cmsis/device/stm32f4xx_tim.c ****   TIMx->CCER &= (uint16_t)~TIM_CCER_CC3E;
 1186              		.loc 1 838 0
 1187 0004 048C     		ldrh	r4, [r0, #32]	@, TIMx_6(D)->CCER
 839:cmsis/device/stm32f4xx_tim.c ****   
 840:cmsis/device/stm32f4xx_tim.c ****   /* Get the TIMx CCER register value */
 841:cmsis/device/stm32f4xx_tim.c ****   tmpccer = TIMx->CCER;
 842:cmsis/device/stm32f4xx_tim.c ****   /* Get the TIMx CR2 register value */
 843:cmsis/device/stm32f4xx_tim.c ****   tmpcr2 =  TIMx->CR2;
 844:cmsis/device/stm32f4xx_tim.c ****   
 845:cmsis/device/stm32f4xx_tim.c ****   /* Get the TIMx CCMR2 register value */
 846:cmsis/device/stm32f4xx_tim.c ****   tmpccmrx = TIMx->CCMR2;
 847:cmsis/device/stm32f4xx_tim.c ****     
 848:cmsis/device/stm32f4xx_tim.c ****   /* Reset the Output Compare mode and Capture/Compare selection Bits */
 849:cmsis/device/stm32f4xx_tim.c ****   tmpccmrx &= (uint16_t)~TIM_CCMR2_OC3M;
 850:cmsis/device/stm32f4xx_tim.c ****   tmpccmrx &= (uint16_t)~TIM_CCMR2_CC3S;  
 851:cmsis/device/stm32f4xx_tim.c ****   /* Select the Output Compare Mode */
 852:cmsis/device/stm32f4xx_tim.c ****   tmpccmrx |= TIM_OCInitStruct->TIM_OCMode;
 853:cmsis/device/stm32f4xx_tim.c ****   
 854:cmsis/device/stm32f4xx_tim.c ****   /* Reset the Output Polarity level */
ARM GAS  C:\Users\CNous\AppData\Local\Temp\ccZi7tDD.s 			page 39


 855:cmsis/device/stm32f4xx_tim.c ****   tmpccer &= (uint16_t)~TIM_CCER_CC3P;
 856:cmsis/device/stm32f4xx_tim.c ****   /* Set the Output Compare Polarity */
 857:cmsis/device/stm32f4xx_tim.c ****   tmpccer |= (uint16_t)(TIM_OCInitStruct->TIM_OCPolarity << 8);
 1188              		.loc 1 857 0
 1189 0006 8D89     		ldrh	r5, [r1, #12]	@, TIM_OCInitStruct_14(D)->TIM_OCPolarity
 858:cmsis/device/stm32f4xx_tim.c ****   
 859:cmsis/device/stm32f4xx_tim.c ****   /* Set the Output State */
 860:cmsis/device/stm32f4xx_tim.c ****   tmpccer |= (uint16_t)(TIM_OCInitStruct->TIM_OutputState << 8);
 1190              		.loc 1 860 0
 1191 0008 4F88     		ldrh	r7, [r1, #2]	@, TIM_OCInitStruct_14(D)->TIM_OutputState
 852:cmsis/device/stm32f4xx_tim.c ****   tmpccmrx |= TIM_OCInitStruct->TIM_OCMode;
 1192              		.loc 1 852 0
 1193 000a 0E88     		ldrh	r6, [r1, #0]	@ tmp177, TIM_OCInitStruct_14(D)->TIM_OCMode
 838:cmsis/device/stm32f4xx_tim.c ****   TIMx->CCER &= (uint16_t)~TIM_CCER_CC3E;
 1194              		.loc 1 838 0
 1195 000c 24F48072 		bic	r2, r4, #256	@ D.7230, TIMx_6(D)->CCER,
 1196 0010 1304     		lsls	r3, r2, #16	@ D.7230, D.7230,
 1197 0012 1C0C     		lsrs	r4, r3, #16	@ D.7230, D.7230,
 1198 0014 0484     		strh	r4, [r0, #32]	@ movhi	@ D.7230, TIMx_6(D)->CCER
 841:cmsis/device/stm32f4xx_tim.c ****   tmpccer = TIMx->CCER;
 1199              		.loc 1 841 0
 1200 0016 028C     		ldrh	r2, [r0, #32]	@, TIMx_6(D)->CCER
 1201              	.LVL120:
 843:cmsis/device/stm32f4xx_tim.c ****   tmpcr2 =  TIMx->CR2;
 1202              		.loc 1 843 0
 1203 0018 8488     		ldrh	r4, [r0, #4]	@, TIMx_6(D)->CR2
 846:cmsis/device/stm32f4xx_tim.c ****   tmpccmrx = TIMx->CCMR2;
 1204              		.loc 1 846 0
 1205 001a 838B     		ldrh	r3, [r0, #28]	@, TIMx_6(D)->CCMR2
 855:cmsis/device/stm32f4xx_tim.c ****   tmpccer &= (uint16_t)~TIM_CCER_CC3P;
 1206              		.loc 1 855 0
 1207 001c 22F40072 		bic	r2, r2, #512	@ tmpccer, TIMx_6(D)->CCER,
 1208              	.LVL121:
 1209 0020 1204     		lsls	r2, r2, #16	@ tmpccer, tmpccer,
 1210 0022 120C     		lsrs	r2, r2, #16	@ tmpccer, tmpccer,
 857:cmsis/device/stm32f4xx_tim.c ****   tmpccer |= (uint16_t)(TIM_OCInitStruct->TIM_OCPolarity << 8);
 1211              		.loc 1 857 0
 1212 0024 42EA0522 		orr	r2, r2, r5, lsl #8	@, tmp182, tmpccer, TIM_OCInitStruct_14(D)->TIM_OCPolarity,
 850:cmsis/device/stm32f4xx_tim.c ****   tmpccmrx &= (uint16_t)~TIM_CCMR2_CC3S;  
 1213              		.loc 1 850 0
 1214 0028 23F07303 		bic	r3, r3, #115	@ tmpccmrx, TIMx_6(D)->CCMR2,
 861:cmsis/device/stm32f4xx_tim.c ****     
 862:cmsis/device/stm32f4xx_tim.c ****   if((TIMx == TIM1) || (TIMx == TIM8))
 1215              		.loc 1 862 0
 1216 002c 0025     		movs	r5, #0	@ tmp187,
 850:cmsis/device/stm32f4xx_tim.c ****   tmpccmrx &= (uint16_t)~TIM_CCMR2_CC3S;  
 1217              		.loc 1 850 0
 1218 002e 1B04     		lsls	r3, r3, #16	@ tmpccmrx, tmpccmrx,
 1219              		.loc 1 862 0
 1220 0030 C4F20105 		movt	r5, 16385	@ tmp187,
 850:cmsis/device/stm32f4xx_tim.c ****   tmpccmrx &= (uint16_t)~TIM_CCMR2_CC3S;  
 1221              		.loc 1 850 0
 1222 0034 1B0C     		lsrs	r3, r3, #16	@ tmpccmrx, tmpccmrx,
 860:cmsis/device/stm32f4xx_tim.c ****   tmpccer |= (uint16_t)(TIM_OCInitStruct->TIM_OutputState << 8);
 1223              		.loc 1 860 0
 1224 0036 42EA0722 		orr	r2, r2, r7, lsl #8	@, tmpccer, tmp182, TIM_OCInitStruct_14(D)->TIM_OutputState,
 1225              		.loc 1 862 0
ARM GAS  C:\Users\CNous\AppData\Local\Temp\ccZi7tDD.s 			page 40


 1226 003a A842     		cmp	r0, r5	@ TIMx, tmp187
 843:cmsis/device/stm32f4xx_tim.c ****   tmpcr2 =  TIMx->CR2;
 1227              		.loc 1 843 0
 1228 003c A4B2     		uxth	r4, r4	@ tmpcr2, TIMx_6(D)->CR2
 1229              	.LVL122:
 852:cmsis/device/stm32f4xx_tim.c ****   tmpccmrx |= TIM_OCInitStruct->TIM_OCMode;
 1230              		.loc 1 852 0
 1231 003e 43EA0603 		orr	r3, r3, r6	@ tmpccmrx, tmpccmrx, tmp177
 1232              	.LVL123:
 860:cmsis/device/stm32f4xx_tim.c ****   tmpccer |= (uint16_t)(TIM_OCInitStruct->TIM_OutputState << 8);
 1233              		.loc 1 860 0
 1234 0042 92B2     		uxth	r2, r2	@ tmpccer, tmpccer
 1235              	.LVL124:
 1236              		.loc 1 862 0
 1237 0044 0DD0     		beq	.L75	@,
 1238              		.loc 1 862 0 is_stmt 0 discriminator 1
 1239 0046 4FF48065 		mov	r5, #1024	@ tmp188,
 1240 004a C4F20105 		movt	r5, 16385	@ tmp188,
 1241 004e A842     		cmp	r0, r5	@ TIMx, tmp188
 1242 0050 07D0     		beq	.L75	@,
 1243              	.LVL125:
 1244              	.L76:
 863:cmsis/device/stm32f4xx_tim.c ****   {
 864:cmsis/device/stm32f4xx_tim.c ****     assert_param(IS_TIM_OUTPUTN_STATE(TIM_OCInitStruct->TIM_OutputNState));
 865:cmsis/device/stm32f4xx_tim.c ****     assert_param(IS_TIM_OCN_POLARITY(TIM_OCInitStruct->TIM_OCNPolarity));
 866:cmsis/device/stm32f4xx_tim.c ****     assert_param(IS_TIM_OCNIDLE_STATE(TIM_OCInitStruct->TIM_OCNIdleState));
 867:cmsis/device/stm32f4xx_tim.c ****     assert_param(IS_TIM_OCIDLE_STATE(TIM_OCInitStruct->TIM_OCIdleState));
 868:cmsis/device/stm32f4xx_tim.c ****     
 869:cmsis/device/stm32f4xx_tim.c ****     /* Reset the Output N Polarity level */
 870:cmsis/device/stm32f4xx_tim.c ****     tmpccer &= (uint16_t)~TIM_CCER_CC3NP;
 871:cmsis/device/stm32f4xx_tim.c ****     /* Set the Output N Polarity */
 872:cmsis/device/stm32f4xx_tim.c ****     tmpccer |= (uint16_t)(TIM_OCInitStruct->TIM_OCNPolarity << 8);
 873:cmsis/device/stm32f4xx_tim.c ****     /* Reset the Output N State */
 874:cmsis/device/stm32f4xx_tim.c ****     tmpccer &= (uint16_t)~TIM_CCER_CC3NE;
 875:cmsis/device/stm32f4xx_tim.c ****     
 876:cmsis/device/stm32f4xx_tim.c ****     /* Set the Output N State */
 877:cmsis/device/stm32f4xx_tim.c ****     tmpccer |= (uint16_t)(TIM_OCInitStruct->TIM_OutputNState << 8);
 878:cmsis/device/stm32f4xx_tim.c ****     /* Reset the Output Compare and Output Compare N IDLE State */
 879:cmsis/device/stm32f4xx_tim.c ****     tmpcr2 &= (uint16_t)~TIM_CR2_OIS3;
 880:cmsis/device/stm32f4xx_tim.c ****     tmpcr2 &= (uint16_t)~TIM_CR2_OIS3N;
 881:cmsis/device/stm32f4xx_tim.c ****     /* Set the Output Idle state */
 882:cmsis/device/stm32f4xx_tim.c ****     tmpcr2 |= (uint16_t)(TIM_OCInitStruct->TIM_OCIdleState << 4);
 883:cmsis/device/stm32f4xx_tim.c ****     /* Set the Output N Idle state */
 884:cmsis/device/stm32f4xx_tim.c ****     tmpcr2 |= (uint16_t)(TIM_OCInitStruct->TIM_OCNIdleState << 4);
 885:cmsis/device/stm32f4xx_tim.c ****   }
 886:cmsis/device/stm32f4xx_tim.c ****   /* Write to TIMx CR2 */
 887:cmsis/device/stm32f4xx_tim.c ****   TIMx->CR2 = tmpcr2;
 888:cmsis/device/stm32f4xx_tim.c ****   
 889:cmsis/device/stm32f4xx_tim.c ****   /* Write to TIMx CCMR2 */
 890:cmsis/device/stm32f4xx_tim.c ****   TIMx->CCMR2 = tmpccmrx;
 891:cmsis/device/stm32f4xx_tim.c ****   
 892:cmsis/device/stm32f4xx_tim.c ****   /* Set the Capture Compare Register value */
 893:cmsis/device/stm32f4xx_tim.c ****   TIMx->CCR3 = TIM_OCInitStruct->TIM_Pulse;
 1245              		.loc 1 893 0 is_stmt 1
 1246 0052 8968     		ldr	r1, [r1, #8]	@ D.7247, TIM_OCInitStruct_14(D)->TIM_Pulse
 1247              	.LVL126:
 887:cmsis/device/stm32f4xx_tim.c ****   TIMx->CR2 = tmpcr2;
ARM GAS  C:\Users\CNous\AppData\Local\Temp\ccZi7tDD.s 			page 41


 1248              		.loc 1 887 0
 1249 0054 8480     		strh	r4, [r0, #4]	@ movhi	@ tmpcr2, TIMx_6(D)->CR2
 890:cmsis/device/stm32f4xx_tim.c ****   TIMx->CCMR2 = tmpccmrx;
 1250              		.loc 1 890 0
 1251 0056 8383     		strh	r3, [r0, #28]	@ movhi	@ tmpccmrx, TIMx_6(D)->CCMR2
 1252              		.loc 1 893 0
 1253 0058 C163     		str	r1, [r0, #60]	@ D.7247, TIMx_6(D)->CCR3
 894:cmsis/device/stm32f4xx_tim.c ****   
 895:cmsis/device/stm32f4xx_tim.c ****   /* Write to TIMx CCER */
 896:cmsis/device/stm32f4xx_tim.c ****   TIMx->CCER = tmpccer;
 1254              		.loc 1 896 0
 1255 005a 0284     		strh	r2, [r0, #32]	@ movhi	@ tmpccer, TIMx_6(D)->CCER
 897:cmsis/device/stm32f4xx_tim.c **** }
 1256              		.loc 1 897 0
 1257 005c BDE8F003 		pop	{r4, r5, r6, r7, r8, r9}
 1258 0060 7047     		bx	lr
 1259              	.LVL127:
 1260              	.L75:
 870:cmsis/device/stm32f4xx_tim.c ****     tmpccer &= (uint16_t)~TIM_CCER_CC3NP;
 1261              		.loc 1 870 0
 1262 0062 4FF2FF76 		movw	r6, #63487	@ tmpccer,
 872:cmsis/device/stm32f4xx_tim.c ****     tmpccer |= (uint16_t)(TIM_OCInitStruct->TIM_OCNPolarity << 8);
 1263              		.loc 1 872 0
 1264 0066 B1F80E90 		ldrh	r9, [r1, #14]	@, TIM_OCInitStruct_14(D)->TIM_OCNPolarity
 882:cmsis/device/stm32f4xx_tim.c ****     tmpcr2 |= (uint16_t)(TIM_OCInitStruct->TIM_OCIdleState << 4);
 1265              		.loc 1 882 0
 1266 006a B1F81080 		ldrh	r8, [r1, #16]	@, TIM_OCInitStruct_14(D)->TIM_OCIdleState
 877:cmsis/device/stm32f4xx_tim.c ****     tmpccer |= (uint16_t)(TIM_OCInitStruct->TIM_OutputNState << 8);
 1267              		.loc 1 877 0
 1268 006e B1F804C0 		ldrh	ip, [r1, #4]	@, TIM_OCInitStruct_14(D)->TIM_OutputNState
 884:cmsis/device/stm32f4xx_tim.c ****     tmpcr2 |= (uint16_t)(TIM_OCInitStruct->TIM_OCNIdleState << 4);
 1269              		.loc 1 884 0
 1270 0072 4F8A     		ldrh	r7, [r1, #18]	@, TIM_OCInitStruct_14(D)->TIM_OCNIdleState
 870:cmsis/device/stm32f4xx_tim.c ****     tmpccer &= (uint16_t)~TIM_CCER_CC3NP;
 1271              		.loc 1 870 0
 1272 0074 1640     		ands	r6, r6, r2	@, tmpccer, tmpccer, tmpccer
 1273              	.LVL128:
 880:cmsis/device/stm32f4xx_tim.c ****     tmpcr2 &= (uint16_t)~TIM_CR2_OIS3N;
 1274              		.loc 1 880 0
 1275 0076 4CF6FF75 		movw	r5, #53247	@ tmpcr2,
 1276 007a 2540     		ands	r5, r5, r4	@, tmpcr2, tmpcr2, tmpcr2
 872:cmsis/device/stm32f4xx_tim.c ****     tmpccer |= (uint16_t)(TIM_OCInitStruct->TIM_OCNPolarity << 8);
 1277              		.loc 1 872 0
 1278 007c 46EA0926 		orr	r6, r6, r9, lsl #8	@, tmp193, tmpccer, TIM_OCInitStruct_14(D)->TIM_OCNPolarity,
 1279              	.LVL129:
 874:cmsis/device/stm32f4xx_tim.c ****     tmpccer &= (uint16_t)~TIM_CCER_CC3NE;
 1280              		.loc 1 874 0
 1281 0080 4FF6FF32 		movw	r2, #64511	@ tmpccer,
 1282 0084 3240     		ands	r2, r2, r6	@, tmpccer, tmpccer, tmp193
 1283              	.LVL130:
 882:cmsis/device/stm32f4xx_tim.c ****     tmpcr2 |= (uint16_t)(TIM_OCInitStruct->TIM_OCIdleState << 4);
 1284              		.loc 1 882 0
 1285 0086 45EA0814 		orr	r4, r5, r8, lsl #4	@, tmp203, tmpcr2, TIM_OCInitStruct_14(D)->TIM_OCIdleState,
 1286              	.LVL131:
 877:cmsis/device/stm32f4xx_tim.c ****     tmpccer |= (uint16_t)(TIM_OCInitStruct->TIM_OutputNState << 8);
 1287              		.loc 1 877 0
 1288 008a 42EA0C22 		orr	r2, r2, ip, lsl #8	@, tmp198, tmpccer, TIM_OCInitStruct_14(D)->TIM_OutputNState,
ARM GAS  C:\Users\CNous\AppData\Local\Temp\ccZi7tDD.s 			page 42


 1289              	.LVL132:
 884:cmsis/device/stm32f4xx_tim.c ****     tmpcr2 |= (uint16_t)(TIM_OCInitStruct->TIM_OCNIdleState << 4);
 1290              		.loc 1 884 0
 1291 008e 44EA0714 		orr	r4, r4, r7, lsl #4	@, tmpcr2, tmp203, TIM_OCInitStruct_14(D)->TIM_OCNIdleState,
 877:cmsis/device/stm32f4xx_tim.c ****     tmpccer |= (uint16_t)(TIM_OCInitStruct->TIM_OutputNState << 8);
 1292              		.loc 1 877 0
 1293 0092 92B2     		uxth	r2, r2	@ tmpccer, tmp198
 1294              	.LVL133:
 884:cmsis/device/stm32f4xx_tim.c ****     tmpcr2 |= (uint16_t)(TIM_OCInitStruct->TIM_OCNIdleState << 4);
 1295              		.loc 1 884 0
 1296 0094 A4B2     		uxth	r4, r4	@ tmpcr2, tmpcr2
 1297              	.LVL134:
 1298 0096 DCE7     		b	.L76	@
 1299              		.cfi_endproc
 1300              	.LFE127:
 1301              		.size	TIM_OC3Init, .-TIM_OC3Init
 1302              		.section	.text.TIM_OC4Init,"ax",%progbits
 1303              		.align	2
 1304              		.global	TIM_OC4Init
 1305              		.thumb
 1306              		.thumb_func
 1307              		.type	TIM_OC4Init, %function
 1308              	TIM_OC4Init:
 1309              	.LFB128:
 898:cmsis/device/stm32f4xx_tim.c **** 
 899:cmsis/device/stm32f4xx_tim.c **** /**
 900:cmsis/device/stm32f4xx_tim.c ****   * @brief  Initializes the TIMx Channel4 according to the specified parameters
 901:cmsis/device/stm32f4xx_tim.c ****   *         in the TIM_OCInitStruct.
 902:cmsis/device/stm32f4xx_tim.c ****   * @param  TIMx: where x can be 1, 2, 3, 4, 5 or 8 to select the TIM peripheral.
 903:cmsis/device/stm32f4xx_tim.c ****   * @param  TIM_OCInitStruct: pointer to a TIM_OCInitTypeDef structure that contains
 904:cmsis/device/stm32f4xx_tim.c ****   *         the configuration information for the specified TIM peripheral.
 905:cmsis/device/stm32f4xx_tim.c ****   * @retval None
 906:cmsis/device/stm32f4xx_tim.c ****   */
 907:cmsis/device/stm32f4xx_tim.c **** void TIM_OC4Init(TIM_TypeDef* TIMx, TIM_OCInitTypeDef* TIM_OCInitStruct)
 908:cmsis/device/stm32f4xx_tim.c **** {
 1310              		.loc 1 908 0
 1311              		.cfi_startproc
 1312              		@ args = 0, pretend = 0, frame = 0
 1313              		@ frame_needed = 0, uses_anonymous_args = 0
 1314              		@ link register save eliminated.
 1315              	.LVL135:
 1316 0000 F0B4     		push	{r4, r5, r6, r7}	@
 1317              	.LCFI5:
 1318              		.cfi_def_cfa_offset 16
 1319              		.cfi_offset 4, -16
 1320              		.cfi_offset 5, -12
 1321              		.cfi_offset 6, -8
 1322              		.cfi_offset 7, -4
 909:cmsis/device/stm32f4xx_tim.c ****   uint16_t tmpccmrx = 0, tmpccer = 0, tmpcr2 = 0;
 910:cmsis/device/stm32f4xx_tim.c ****    
 911:cmsis/device/stm32f4xx_tim.c ****   /* Check the parameters */
 912:cmsis/device/stm32f4xx_tim.c ****   assert_param(IS_TIM_LIST3_PERIPH(TIMx)); 
 913:cmsis/device/stm32f4xx_tim.c ****   assert_param(IS_TIM_OC_MODE(TIM_OCInitStruct->TIM_OCMode));
 914:cmsis/device/stm32f4xx_tim.c ****   assert_param(IS_TIM_OUTPUT_STATE(TIM_OCInitStruct->TIM_OutputState));
 915:cmsis/device/stm32f4xx_tim.c ****   assert_param(IS_TIM_OC_POLARITY(TIM_OCInitStruct->TIM_OCPolarity));   
 916:cmsis/device/stm32f4xx_tim.c **** 
 917:cmsis/device/stm32f4xx_tim.c ****   /* Disable the Channel 4: Reset the CC4E Bit */
ARM GAS  C:\Users\CNous\AppData\Local\Temp\ccZi7tDD.s 			page 43


 918:cmsis/device/stm32f4xx_tim.c ****   TIMx->CCER &= (uint16_t)~TIM_CCER_CC4E;
 1323              		.loc 1 918 0
 1324 0002 048C     		ldrh	r4, [r0, #32]	@, TIMx_5(D)->CCER
 919:cmsis/device/stm32f4xx_tim.c ****   
 920:cmsis/device/stm32f4xx_tim.c ****   /* Get the TIMx CCER register value */
 921:cmsis/device/stm32f4xx_tim.c ****   tmpccer = TIMx->CCER;
 922:cmsis/device/stm32f4xx_tim.c ****   /* Get the TIMx CR2 register value */
 923:cmsis/device/stm32f4xx_tim.c ****   tmpcr2 =  TIMx->CR2;
 924:cmsis/device/stm32f4xx_tim.c ****   
 925:cmsis/device/stm32f4xx_tim.c ****   /* Get the TIMx CCMR2 register value */
 926:cmsis/device/stm32f4xx_tim.c ****   tmpccmrx = TIMx->CCMR2;
 927:cmsis/device/stm32f4xx_tim.c ****     
 928:cmsis/device/stm32f4xx_tim.c ****   /* Reset the Output Compare mode and Capture/Compare selection Bits */
 929:cmsis/device/stm32f4xx_tim.c ****   tmpccmrx &= (uint16_t)~TIM_CCMR2_OC4M;
 930:cmsis/device/stm32f4xx_tim.c ****   tmpccmrx &= (uint16_t)~TIM_CCMR2_CC4S;
 931:cmsis/device/stm32f4xx_tim.c ****   
 932:cmsis/device/stm32f4xx_tim.c ****   /* Select the Output Compare Mode */
 933:cmsis/device/stm32f4xx_tim.c ****   tmpccmrx |= (uint16_t)(TIM_OCInitStruct->TIM_OCMode << 8);
 934:cmsis/device/stm32f4xx_tim.c ****   
 935:cmsis/device/stm32f4xx_tim.c ****   /* Reset the Output Polarity level */
 936:cmsis/device/stm32f4xx_tim.c ****   tmpccer &= (uint16_t)~TIM_CCER_CC4P;
 937:cmsis/device/stm32f4xx_tim.c ****   /* Set the Output Compare Polarity */
 938:cmsis/device/stm32f4xx_tim.c ****   tmpccer |= (uint16_t)(TIM_OCInitStruct->TIM_OCPolarity << 12);
 1325              		.loc 1 938 0
 1326 0004 B1F80CC0 		ldrh	ip, [r1, #12]	@, TIM_OCInitStruct_13(D)->TIM_OCPolarity
 933:cmsis/device/stm32f4xx_tim.c ****   tmpccmrx |= (uint16_t)(TIM_OCInitStruct->TIM_OCMode << 8);
 1327              		.loc 1 933 0
 1328 0008 0F88     		ldrh	r7, [r1, #0]	@, TIM_OCInitStruct_13(D)->TIM_OCMode
 939:cmsis/device/stm32f4xx_tim.c ****   
 940:cmsis/device/stm32f4xx_tim.c ****   /* Set the Output State */
 941:cmsis/device/stm32f4xx_tim.c ****   tmpccer |= (uint16_t)(TIM_OCInitStruct->TIM_OutputState << 12);
 1329              		.loc 1 941 0
 1330 000a 4E88     		ldrh	r6, [r1, #2]	@, TIM_OCInitStruct_13(D)->TIM_OutputState
 918:cmsis/device/stm32f4xx_tim.c ****   TIMx->CCER &= (uint16_t)~TIM_CCER_CC4E;
 1331              		.loc 1 918 0
 1332 000c 24F48052 		bic	r2, r4, #4096	@ D.7216, TIMx_5(D)->CCER,
 1333 0010 1304     		lsls	r3, r2, #16	@ D.7216, D.7216,
 1334 0012 1D0C     		lsrs	r5, r3, #16	@ D.7216, D.7216,
 1335 0014 0584     		strh	r5, [r0, #32]	@ movhi	@ D.7216, TIMx_5(D)->CCER
 921:cmsis/device/stm32f4xx_tim.c ****   tmpccer = TIMx->CCER;
 1336              		.loc 1 921 0
 1337 0016 048C     		ldrh	r4, [r0, #32]	@, TIMx_5(D)->CCER
 1338              	.LVL136:
 923:cmsis/device/stm32f4xx_tim.c ****   tmpcr2 =  TIMx->CR2;
 1339              		.loc 1 923 0
 1340 0018 8588     		ldrh	r5, [r0, #4]	@, TIMx_5(D)->CR2
 926:cmsis/device/stm32f4xx_tim.c ****   tmpccmrx = TIMx->CCMR2;
 1341              		.loc 1 926 0
 1342 001a 838B     		ldrh	r3, [r0, #28]	@, TIMx_5(D)->CCMR2
 936:cmsis/device/stm32f4xx_tim.c ****   tmpccer &= (uint16_t)~TIM_CCER_CC4P;
 1343              		.loc 1 936 0
 1344 001c 24F40052 		bic	r2, r4, #8192	@ tmpccer, TIMx_5(D)->CCER,
 1345 0020 1204     		lsls	r2, r2, #16	@ tmpccer, tmpccer,
 930:cmsis/device/stm32f4xx_tim.c ****   tmpccmrx &= (uint16_t)~TIM_CCMR2_CC4S;
 1346              		.loc 1 930 0
 1347 0022 23F4E644 		bic	r4, r3, #29440	@ tmpccmrx, TIMx_5(D)->CCMR2,
 1348              	.LVL137:
ARM GAS  C:\Users\CNous\AppData\Local\Temp\ccZi7tDD.s 			page 44


 1349 0026 2304     		lsls	r3, r4, #16	@ tmpccmrx, tmpccmrx,
 936:cmsis/device/stm32f4xx_tim.c ****   tmpccer &= (uint16_t)~TIM_CCER_CC4P;
 1350              		.loc 1 936 0
 1351 0028 140C     		lsrs	r4, r2, #16	@ tmpccer, tmpccer,
 938:cmsis/device/stm32f4xx_tim.c ****   tmpccer |= (uint16_t)(TIM_OCInitStruct->TIM_OCPolarity << 12);
 1352              		.loc 1 938 0
 1353 002a 44EA0C32 		orr	r2, r4, ip, lsl #12	@, tmp175, tmpccer, TIM_OCInitStruct_13(D)->TIM_OCPolarity,
 942:cmsis/device/stm32f4xx_tim.c ****   
 943:cmsis/device/stm32f4xx_tim.c ****   if((TIMx == TIM1) || (TIMx == TIM8))
 1354              		.loc 1 943 0
 1355 002e 0024     		movs	r4, #0	@ tmp180,
 930:cmsis/device/stm32f4xx_tim.c ****   tmpccmrx &= (uint16_t)~TIM_CCMR2_CC4S;
 1356              		.loc 1 930 0
 1357 0030 1B0C     		lsrs	r3, r3, #16	@ tmpccmrx, tmpccmrx,
 1358              		.loc 1 943 0
 1359 0032 C4F20104 		movt	r4, 16385	@ tmp180,
 933:cmsis/device/stm32f4xx_tim.c ****   tmpccmrx |= (uint16_t)(TIM_OCInitStruct->TIM_OCMode << 8);
 1360              		.loc 1 933 0
 1361 0036 43EA0723 		orr	r3, r3, r7, lsl #8	@, tmp170, tmpccmrx, TIM_OCInitStruct_13(D)->TIM_OCMode,
 941:cmsis/device/stm32f4xx_tim.c ****   tmpccer |= (uint16_t)(TIM_OCInitStruct->TIM_OutputState << 12);
 1362              		.loc 1 941 0
 1363 003a 42EA0632 		orr	r2, r2, r6, lsl #12	@, tmpccer, tmp175, TIM_OCInitStruct_13(D)->TIM_OutputState,
 1364              		.loc 1 943 0
 1365 003e A042     		cmp	r0, r4	@ TIMx, tmp180
 923:cmsis/device/stm32f4xx_tim.c ****   tmpcr2 =  TIMx->CR2;
 1366              		.loc 1 923 0
 1367 0040 ADB2     		uxth	r5, r5	@ tmpcr2, TIMx_5(D)->CR2
 1368              	.LVL138:
 933:cmsis/device/stm32f4xx_tim.c ****   tmpccmrx |= (uint16_t)(TIM_OCInitStruct->TIM_OCMode << 8);
 1369              		.loc 1 933 0
 1370 0042 9BB2     		uxth	r3, r3	@ tmpccmrx, tmp170
 1371              	.LVL139:
 941:cmsis/device/stm32f4xx_tim.c ****   tmpccer |= (uint16_t)(TIM_OCInitStruct->TIM_OutputState << 12);
 1372              		.loc 1 941 0
 1373 0044 92B2     		uxth	r2, r2	@ tmpccer, tmpccer
 1374              	.LVL140:
 1375              		.loc 1 943 0
 1376 0046 0CD0     		beq	.L78	@,
 1377              		.loc 1 943 0 is_stmt 0 discriminator 1
 1378 0048 4FF48064 		mov	r4, #1024	@ tmp181,
 1379 004c C4F20104 		movt	r4, 16385	@ tmp181,
 1380 0050 A042     		cmp	r0, r4	@ TIMx, tmp181
 1381 0052 06D0     		beq	.L78	@,
 1382              	.LVL141:
 1383              	.L79:
 944:cmsis/device/stm32f4xx_tim.c ****   {
 945:cmsis/device/stm32f4xx_tim.c ****     assert_param(IS_TIM_OCIDLE_STATE(TIM_OCInitStruct->TIM_OCIdleState));
 946:cmsis/device/stm32f4xx_tim.c ****     /* Reset the Output Compare IDLE State */
 947:cmsis/device/stm32f4xx_tim.c ****     tmpcr2 &=(uint16_t) ~TIM_CR2_OIS4;
 948:cmsis/device/stm32f4xx_tim.c ****     /* Set the Output Idle state */
 949:cmsis/device/stm32f4xx_tim.c ****     tmpcr2 |= (uint16_t)(TIM_OCInitStruct->TIM_OCIdleState << 6);
 950:cmsis/device/stm32f4xx_tim.c ****   }
 951:cmsis/device/stm32f4xx_tim.c ****   /* Write to TIMx CR2 */
 952:cmsis/device/stm32f4xx_tim.c ****   TIMx->CR2 = tmpcr2;
 953:cmsis/device/stm32f4xx_tim.c ****   
 954:cmsis/device/stm32f4xx_tim.c ****   /* Write to TIMx CCMR2 */  
 955:cmsis/device/stm32f4xx_tim.c ****   TIMx->CCMR2 = tmpccmrx;
ARM GAS  C:\Users\CNous\AppData\Local\Temp\ccZi7tDD.s 			page 45


 956:cmsis/device/stm32f4xx_tim.c ****     
 957:cmsis/device/stm32f4xx_tim.c ****   /* Set the Capture Compare Register value */
 958:cmsis/device/stm32f4xx_tim.c ****   TIMx->CCR4 = TIM_OCInitStruct->TIM_Pulse;
 1384              		.loc 1 958 0 is_stmt 1
 1385 0054 8968     		ldr	r1, [r1, #8]	@ D.7228, TIM_OCInitStruct_13(D)->TIM_Pulse
 1386              	.LVL142:
 952:cmsis/device/stm32f4xx_tim.c ****   TIMx->CR2 = tmpcr2;
 1387              		.loc 1 952 0
 1388 0056 8580     		strh	r5, [r0, #4]	@ movhi	@ tmpcr2, TIMx_5(D)->CR2
 955:cmsis/device/stm32f4xx_tim.c ****   TIMx->CCMR2 = tmpccmrx;
 1389              		.loc 1 955 0
 1390 0058 8383     		strh	r3, [r0, #28]	@ movhi	@ tmpccmrx, TIMx_5(D)->CCMR2
 1391              		.loc 1 958 0
 1392 005a 0164     		str	r1, [r0, #64]	@ D.7228, TIMx_5(D)->CCR4
 959:cmsis/device/stm32f4xx_tim.c ****   
 960:cmsis/device/stm32f4xx_tim.c ****   /* Write to TIMx CCER */
 961:cmsis/device/stm32f4xx_tim.c ****   TIMx->CCER = tmpccer;
 1393              		.loc 1 961 0
 1394 005c 0284     		strh	r2, [r0, #32]	@ movhi	@ tmpccer, TIMx_5(D)->CCER
 962:cmsis/device/stm32f4xx_tim.c **** }
 1395              		.loc 1 962 0
 1396 005e F0BC     		pop	{r4, r5, r6, r7}
 1397 0060 7047     		bx	lr
 1398              	.LVL143:
 1399              	.L78:
 947:cmsis/device/stm32f4xx_tim.c ****     tmpcr2 &=(uint16_t) ~TIM_CR2_OIS4;
 1400              		.loc 1 947 0
 1401 0062 4BF6FF74 		movw	r4, #49151	@ tmpcr2,
 949:cmsis/device/stm32f4xx_tim.c ****     tmpcr2 |= (uint16_t)(TIM_OCInitStruct->TIM_OCIdleState << 6);
 1402              		.loc 1 949 0
 1403 0066 0E8A     		ldrh	r6, [r1, #16]	@, TIM_OCInitStruct_13(D)->TIM_OCIdleState
 947:cmsis/device/stm32f4xx_tim.c ****     tmpcr2 &=(uint16_t) ~TIM_CR2_OIS4;
 1404              		.loc 1 947 0
 1405 0068 2C40     		ands	r4, r4, r5	@, tmpcr2, tmpcr2, tmpcr2
 1406              	.LVL144:
 949:cmsis/device/stm32f4xx_tim.c ****     tmpcr2 |= (uint16_t)(TIM_OCInitStruct->TIM_OCIdleState << 6);
 1407              		.loc 1 949 0
 1408 006a 44EA8615 		orr	r5, r4, r6, lsl #6	@, tmp186, tmpcr2, TIM_OCInitStruct_13(D)->TIM_OCIdleState,
 1409 006e ADB2     		uxth	r5, r5	@ tmpcr2, tmp186
 1410              	.LVL145:
 1411 0070 F0E7     		b	.L79	@
 1412              		.cfi_endproc
 1413              	.LFE128:
 1414              		.size	TIM_OC4Init, .-TIM_OC4Init
 1415 0072 00BF     		.section	.text.TIM_OCStructInit,"ax",%progbits
 1416              		.align	2
 1417              		.global	TIM_OCStructInit
 1418              		.thumb
 1419              		.thumb_func
 1420              		.type	TIM_OCStructInit, %function
 1421              	TIM_OCStructInit:
 1422              	.LFB129:
 963:cmsis/device/stm32f4xx_tim.c **** 
 964:cmsis/device/stm32f4xx_tim.c **** /**
 965:cmsis/device/stm32f4xx_tim.c ****   * @brief  Fills each TIM_OCInitStruct member with its default value.
 966:cmsis/device/stm32f4xx_tim.c ****   * @param  TIM_OCInitStruct: pointer to a TIM_OCInitTypeDef structure which will
 967:cmsis/device/stm32f4xx_tim.c ****   *         be initialized.
ARM GAS  C:\Users\CNous\AppData\Local\Temp\ccZi7tDD.s 			page 46


 968:cmsis/device/stm32f4xx_tim.c ****   * @retval None
 969:cmsis/device/stm32f4xx_tim.c ****   */
 970:cmsis/device/stm32f4xx_tim.c **** void TIM_OCStructInit(TIM_OCInitTypeDef* TIM_OCInitStruct)
 971:cmsis/device/stm32f4xx_tim.c **** {
 1423              		.loc 1 971 0
 1424              		.cfi_startproc
 1425              		@ args = 0, pretend = 0, frame = 0
 1426              		@ frame_needed = 0, uses_anonymous_args = 0
 1427              		@ link register save eliminated.
 1428              	.LVL146:
 972:cmsis/device/stm32f4xx_tim.c ****   /* Set the default configuration */
 973:cmsis/device/stm32f4xx_tim.c ****   TIM_OCInitStruct->TIM_OCMode = TIM_OCMode_Timing;
 1429              		.loc 1 973 0
 1430 0000 0023     		movs	r3, #0	@ tmp136,
 1431 0002 0380     		strh	r3, [r0, #0]	@ movhi	@ tmp136, TIM_OCInitStruct_1(D)->TIM_OCMode
 974:cmsis/device/stm32f4xx_tim.c ****   TIM_OCInitStruct->TIM_OutputState = TIM_OutputState_Disable;
 1432              		.loc 1 974 0
 1433 0004 4380     		strh	r3, [r0, #2]	@ movhi	@ tmp136, TIM_OCInitStruct_1(D)->TIM_OutputState
 975:cmsis/device/stm32f4xx_tim.c ****   TIM_OCInitStruct->TIM_OutputNState = TIM_OutputNState_Disable;
 1434              		.loc 1 975 0
 1435 0006 8380     		strh	r3, [r0, #4]	@ movhi	@ tmp136, TIM_OCInitStruct_1(D)->TIM_OutputNState
 976:cmsis/device/stm32f4xx_tim.c ****   TIM_OCInitStruct->TIM_Pulse = 0x00000000;
 1436              		.loc 1 976 0
 1437 0008 8360     		str	r3, [r0, #8]	@ tmp136, TIM_OCInitStruct_1(D)->TIM_Pulse
 977:cmsis/device/stm32f4xx_tim.c ****   TIM_OCInitStruct->TIM_OCPolarity = TIM_OCPolarity_High;
 1438              		.loc 1 977 0
 1439 000a 8381     		strh	r3, [r0, #12]	@ movhi	@ tmp136, TIM_OCInitStruct_1(D)->TIM_OCPolarity
 978:cmsis/device/stm32f4xx_tim.c ****   TIM_OCInitStruct->TIM_OCNPolarity = TIM_OCPolarity_High;
 1440              		.loc 1 978 0
 1441 000c C381     		strh	r3, [r0, #14]	@ movhi	@ tmp136, TIM_OCInitStruct_1(D)->TIM_OCNPolarity
 979:cmsis/device/stm32f4xx_tim.c ****   TIM_OCInitStruct->TIM_OCIdleState = TIM_OCIdleState_Reset;
 1442              		.loc 1 979 0
 1443 000e 0382     		strh	r3, [r0, #16]	@ movhi	@ tmp136, TIM_OCInitStruct_1(D)->TIM_OCIdleState
 980:cmsis/device/stm32f4xx_tim.c ****   TIM_OCInitStruct->TIM_OCNIdleState = TIM_OCNIdleState_Reset;
 1444              		.loc 1 980 0
 1445 0010 4382     		strh	r3, [r0, #18]	@ movhi	@ tmp136, TIM_OCInitStruct_1(D)->TIM_OCNIdleState
 1446 0012 7047     		bx	lr	@
 1447              		.cfi_endproc
 1448              	.LFE129:
 1449              		.size	TIM_OCStructInit, .-TIM_OCStructInit
 1450              		.section	.text.TIM_SelectOCxM,"ax",%progbits
 1451              		.align	2
 1452              		.global	TIM_SelectOCxM
 1453              		.thumb
 1454              		.thumb_func
 1455              		.type	TIM_SelectOCxM, %function
 1456              	TIM_SelectOCxM:
 1457              	.LFB130:
 981:cmsis/device/stm32f4xx_tim.c **** }
 982:cmsis/device/stm32f4xx_tim.c **** 
 983:cmsis/device/stm32f4xx_tim.c **** /**
 984:cmsis/device/stm32f4xx_tim.c ****   * @brief  Selects the TIM Output Compare Mode.
 985:cmsis/device/stm32f4xx_tim.c ****   * @note   This function disables the selected channel before changing the Output
 986:cmsis/device/stm32f4xx_tim.c ****   *         Compare Mode. If needed, user has to enable this channel using
 987:cmsis/device/stm32f4xx_tim.c ****   *         TIM_CCxCmd() and TIM_CCxNCmd() functions.
 988:cmsis/device/stm32f4xx_tim.c ****   * @param  TIMx: where x can be 1 to 14 except 6 and 7, to select the TIM peripheral.
 989:cmsis/device/stm32f4xx_tim.c ****   * @param  TIM_Channel: specifies the TIM Channel
ARM GAS  C:\Users\CNous\AppData\Local\Temp\ccZi7tDD.s 			page 47


 990:cmsis/device/stm32f4xx_tim.c ****   *          This parameter can be one of the following values:
 991:cmsis/device/stm32f4xx_tim.c ****   *            @arg TIM_Channel_1: TIM Channel 1
 992:cmsis/device/stm32f4xx_tim.c ****   *            @arg TIM_Channel_2: TIM Channel 2
 993:cmsis/device/stm32f4xx_tim.c ****   *            @arg TIM_Channel_3: TIM Channel 3
 994:cmsis/device/stm32f4xx_tim.c ****   *            @arg TIM_Channel_4: TIM Channel 4
 995:cmsis/device/stm32f4xx_tim.c ****   * @param  TIM_OCMode: specifies the TIM Output Compare Mode.
 996:cmsis/device/stm32f4xx_tim.c ****   *           This parameter can be one of the following values:
 997:cmsis/device/stm32f4xx_tim.c ****   *            @arg TIM_OCMode_Timing
 998:cmsis/device/stm32f4xx_tim.c ****   *            @arg TIM_OCMode_Active
 999:cmsis/device/stm32f4xx_tim.c ****   *            @arg TIM_OCMode_Toggle
1000:cmsis/device/stm32f4xx_tim.c ****   *            @arg TIM_OCMode_PWM1
1001:cmsis/device/stm32f4xx_tim.c ****   *            @arg TIM_OCMode_PWM2
1002:cmsis/device/stm32f4xx_tim.c ****   *            @arg TIM_ForcedAction_Active
1003:cmsis/device/stm32f4xx_tim.c ****   *            @arg TIM_ForcedAction_InActive
1004:cmsis/device/stm32f4xx_tim.c ****   * @retval None
1005:cmsis/device/stm32f4xx_tim.c ****   */
1006:cmsis/device/stm32f4xx_tim.c **** void TIM_SelectOCxM(TIM_TypeDef* TIMx, uint16_t TIM_Channel, uint16_t TIM_OCMode)
1007:cmsis/device/stm32f4xx_tim.c **** {
 1458              		.loc 1 1007 0
 1459              		.cfi_startproc
 1460              		@ args = 0, pretend = 0, frame = 0
 1461              		@ frame_needed = 0, uses_anonymous_args = 0
 1462              		@ link register save eliminated.
 1463              	.LVL147:
1008:cmsis/device/stm32f4xx_tim.c ****   uint32_t tmp = 0;
1009:cmsis/device/stm32f4xx_tim.c ****   uint16_t tmp1 = 0;
1010:cmsis/device/stm32f4xx_tim.c **** 
1011:cmsis/device/stm32f4xx_tim.c ****   /* Check the parameters */
1012:cmsis/device/stm32f4xx_tim.c ****   assert_param(IS_TIM_LIST1_PERIPH(TIMx));
1013:cmsis/device/stm32f4xx_tim.c ****   assert_param(IS_TIM_CHANNEL(TIM_Channel));
1014:cmsis/device/stm32f4xx_tim.c ****   assert_param(IS_TIM_OCM(TIM_OCMode));
1015:cmsis/device/stm32f4xx_tim.c **** 
1016:cmsis/device/stm32f4xx_tim.c ****   tmp = (uint32_t) TIMx;
1017:cmsis/device/stm32f4xx_tim.c ****   tmp += CCMR_OFFSET;
1018:cmsis/device/stm32f4xx_tim.c **** 
1019:cmsis/device/stm32f4xx_tim.c ****   tmp1 = CCER_CCE_SET << (uint16_t)TIM_Channel;
1020:cmsis/device/stm32f4xx_tim.c **** 
1021:cmsis/device/stm32f4xx_tim.c ****   /* Disable the Channel: Reset the CCxE Bit */
1022:cmsis/device/stm32f4xx_tim.c ****   TIMx->CCER &= (uint16_t) ~tmp1;
 1464              		.loc 1 1022 0
 1465 0000 038C     		ldrh	r3, [r0, #32]	@, TIMx_3(D)->CCER
1007:cmsis/device/stm32f4xx_tim.c **** {
 1466              		.loc 1 1007 0
 1467 0002 10B4     		push	{r4}	@
 1468              	.LCFI6:
 1469              		.cfi_def_cfa_offset 4
 1470              		.cfi_offset 4, -4
1019:cmsis/device/stm32f4xx_tim.c ****   tmp1 = CCER_CCE_SET << (uint16_t)TIM_Channel;
 1471              		.loc 1 1019 0
 1472 0004 0124     		movs	r4, #1	@ tmp168,
 1473              		.loc 1 1022 0
 1474 0006 9BB2     		uxth	r3, r3	@ D.7191, TIMx_3(D)->CCER
1019:cmsis/device/stm32f4xx_tim.c ****   tmp1 = CCER_CCE_SET << (uint16_t)TIM_Channel;
 1475              		.loc 1 1019 0
 1476 0008 04FA01F4 		lsl	r4, r4, r1	@ tmp167, tmp168, TIM_Channel
 1477              		.loc 1 1022 0
 1478 000c 23EA0404 		bic	r4, r3, r4	@ D.7193, D.7191, tmp167
ARM GAS  C:\Users\CNous\AppData\Local\Temp\ccZi7tDD.s 			page 48


 1479 0010 0484     		strh	r4, [r0, #32]	@ movhi	@ D.7193, TIMx_3(D)->CCER
1017:cmsis/device/stm32f4xx_tim.c ****   tmp += CCMR_OFFSET;
 1480              		.loc 1 1017 0
 1481 0012 00F11803 		add	r3, r0, #24	@ tmp, TIMx,
 1482              	.LVL148:
1023:cmsis/device/stm32f4xx_tim.c **** 
1024:cmsis/device/stm32f4xx_tim.c ****   if((TIM_Channel == TIM_Channel_1) ||(TIM_Channel == TIM_Channel_3))
 1483              		.loc 1 1024 0
 1484 0016 79B1     		cbz	r1, .L82	@ TIM_Channel,
 1485              		.loc 1 1024 0 is_stmt 0 discriminator 1
 1486 0018 0829     		cmp	r1, #8	@ TIM_Channel,
 1487 001a 0DD0     		beq	.L82	@,
 1488              	.LVL149:
1025:cmsis/device/stm32f4xx_tim.c ****   {
1026:cmsis/device/stm32f4xx_tim.c ****     tmp += (TIM_Channel>>1);
1027:cmsis/device/stm32f4xx_tim.c **** 
1028:cmsis/device/stm32f4xx_tim.c ****     /* Reset the OCxM bits in the CCMRx register */
1029:cmsis/device/stm32f4xx_tim.c ****     *(__IO uint32_t *) tmp &= CCMR_OC13M_MASK;
1030:cmsis/device/stm32f4xx_tim.c ****    
1031:cmsis/device/stm32f4xx_tim.c ****     /* Configure the OCxM bits in the CCMRx register */
1032:cmsis/device/stm32f4xx_tim.c ****     *(__IO uint32_t *) tmp |= TIM_OCMode;
1033:cmsis/device/stm32f4xx_tim.c ****   }
1034:cmsis/device/stm32f4xx_tim.c ****   else
1035:cmsis/device/stm32f4xx_tim.c ****   {
1036:cmsis/device/stm32f4xx_tim.c ****     tmp += (uint16_t)(TIM_Channel - (uint16_t)4)>> (uint16_t)1;
 1489              		.loc 1 1036 0 is_stmt 1
 1490 001c 0439     		subs	r1, r1, #4	@ tmp177, TIM_Channel,
 1491              	.LVL150:
 1492 001e C1F34E01 		ubfx	r1, r1, #1, #15	@ tmp180, tmp177,,
 1493              	.LVL151:
1037:cmsis/device/stm32f4xx_tim.c **** 
1038:cmsis/device/stm32f4xx_tim.c ****     /* Reset the OCxM bits in the CCMRx register */
1039:cmsis/device/stm32f4xx_tim.c ****     *(__IO uint32_t *) tmp &= CCMR_OC24M_MASK;
 1494              		.loc 1 1039 0
 1495 0022 48F6FF70 		movw	r0, #36863	@ D.7210,
 1496              	.LVL152:
 1497 0026 CC58     		ldr	r4, [r1, r3]	@ D.7209, *tmp.0_18
 1498 0028 2040     		ands	r0, r0, r4	@, D.7210, D.7210, D.7209
 1499 002a C850     		str	r0, [r1, r3]	@ D.7210, *tmp.0_18
1040:cmsis/device/stm32f4xx_tim.c ****     
1041:cmsis/device/stm32f4xx_tim.c ****     /* Configure the OCxM bits in the CCMRx register */
1042:cmsis/device/stm32f4xx_tim.c ****     *(__IO uint32_t *) tmp |= (uint16_t)(TIM_OCMode << 8);
 1500              		.loc 1 1042 0
 1501 002c 1202     		lsls	r2, r2, #8	@ tmp182, TIM_OCMode,
 1502              	.LVL153:
 1503 002e C858     		ldr	r0, [r1, r3]	@ D.7211, *tmp.0_18
 1504 0030 92B2     		uxth	r2, r2	@ tmp183, tmp182
 1505 0032 1043     		orrs	r0, r0, r2	@, D.7214, D.7211, tmp183
 1506 0034 C850     		str	r0, [r1, r3]	@ D.7214,* tmp
 1507 0036 08E0     		b	.L81	@
 1508              	.LVL154:
 1509              	.L82:
1026:cmsis/device/stm32f4xx_tim.c ****     tmp += (TIM_Channel>>1);
 1510              		.loc 1 1026 0
 1511 0038 4908     		lsrs	r1, r1, #1	@ tmp175, TIM_Channel,
 1512              	.LVL155:
1029:cmsis/device/stm32f4xx_tim.c ****     *(__IO uint32_t *) tmp &= CCMR_OC13M_MASK;
ARM GAS  C:\Users\CNous\AppData\Local\Temp\ccZi7tDD.s 			page 49


 1513              		.loc 1 1029 0
 1514 003a 4FF68F70 		movw	r0, #65423	@ D.7202,
 1515              	.LVL156:
 1516 003e CC58     		ldr	r4, [r1, r3]	@ D.7201, *tmp.0_32
 1517 0040 2040     		ands	r0, r0, r4	@, D.7202, D.7202, D.7201
 1518 0042 C850     		str	r0, [r1, r3]	@ D.7202, *tmp.0_32
1032:cmsis/device/stm32f4xx_tim.c ****     *(__IO uint32_t *) tmp |= TIM_OCMode;
 1519              		.loc 1 1032 0
 1520 0044 C858     		ldr	r0, [r1, r3]	@ D.7203, *tmp.0_32
 1521 0046 0243     		orrs	r2, r2, r0	@, D.7205, TIM_OCMode, D.7203
 1522              	.LVL157:
 1523 0048 CA50     		str	r2, [r1, r3]	@ D.7205,* tmp
 1524              	.L81:
1043:cmsis/device/stm32f4xx_tim.c ****   }
1044:cmsis/device/stm32f4xx_tim.c **** }
 1525              		.loc 1 1044 0
 1526 004a 10BC     		pop	{r4}
 1527 004c 7047     		bx	lr
 1528              		.cfi_endproc
 1529              	.LFE130:
 1530              		.size	TIM_SelectOCxM, .-TIM_SelectOCxM
 1531 004e 00BF     		.section	.text.TIM_SetCompare1,"ax",%progbits
 1532              		.align	2
 1533              		.global	TIM_SetCompare1
 1534              		.thumb
 1535              		.thumb_func
 1536              		.type	TIM_SetCompare1, %function
 1537              	TIM_SetCompare1:
 1538              	.LFB131:
1045:cmsis/device/stm32f4xx_tim.c **** 
1046:cmsis/device/stm32f4xx_tim.c **** /**
1047:cmsis/device/stm32f4xx_tim.c ****   * @brief  Sets the TIMx Capture Compare1 Register value
1048:cmsis/device/stm32f4xx_tim.c ****   * @param  TIMx: where x can be 1 to 14 except 6 and 7, to select the TIM peripheral.
1049:cmsis/device/stm32f4xx_tim.c ****   * @param  Compare1: specifies the Capture Compare1 register new value.
1050:cmsis/device/stm32f4xx_tim.c ****   * @retval None
1051:cmsis/device/stm32f4xx_tim.c ****   */
1052:cmsis/device/stm32f4xx_tim.c **** void TIM_SetCompare1(TIM_TypeDef* TIMx, uint32_t Compare1)
1053:cmsis/device/stm32f4xx_tim.c **** {
 1539              		.loc 1 1053 0
 1540              		.cfi_startproc
 1541              		@ args = 0, pretend = 0, frame = 0
 1542              		@ frame_needed = 0, uses_anonymous_args = 0
 1543              		@ link register save eliminated.
 1544              	.LVL158:
1054:cmsis/device/stm32f4xx_tim.c ****   /* Check the parameters */
1055:cmsis/device/stm32f4xx_tim.c ****   assert_param(IS_TIM_LIST1_PERIPH(TIMx));
1056:cmsis/device/stm32f4xx_tim.c **** 
1057:cmsis/device/stm32f4xx_tim.c ****   /* Set the Capture Compare1 Register value */
1058:cmsis/device/stm32f4xx_tim.c ****   TIMx->CCR1 = Compare1;
 1545              		.loc 1 1058 0
 1546 0000 4163     		str	r1, [r0, #52]	@ Compare1, TIMx_1(D)->CCR1
 1547 0002 7047     		bx	lr	@
 1548              		.cfi_endproc
 1549              	.LFE131:
 1550              		.size	TIM_SetCompare1, .-TIM_SetCompare1
 1551              		.section	.text.TIM_SetCompare2,"ax",%progbits
 1552              		.align	2
ARM GAS  C:\Users\CNous\AppData\Local\Temp\ccZi7tDD.s 			page 50


 1553              		.global	TIM_SetCompare2
 1554              		.thumb
 1555              		.thumb_func
 1556              		.type	TIM_SetCompare2, %function
 1557              	TIM_SetCompare2:
 1558              	.LFB132:
1059:cmsis/device/stm32f4xx_tim.c **** }
1060:cmsis/device/stm32f4xx_tim.c **** 
1061:cmsis/device/stm32f4xx_tim.c **** /**
1062:cmsis/device/stm32f4xx_tim.c ****   * @brief  Sets the TIMx Capture Compare2 Register value
1063:cmsis/device/stm32f4xx_tim.c ****   * @param  TIMx: where x can be 1, 2, 3, 4, 5, 8, 9 or 12 to select the TIM 
1064:cmsis/device/stm32f4xx_tim.c ****   *         peripheral.
1065:cmsis/device/stm32f4xx_tim.c ****   * @param  Compare2: specifies the Capture Compare2 register new value.
1066:cmsis/device/stm32f4xx_tim.c ****   * @retval None
1067:cmsis/device/stm32f4xx_tim.c ****   */
1068:cmsis/device/stm32f4xx_tim.c **** void TIM_SetCompare2(TIM_TypeDef* TIMx, uint32_t Compare2)
1069:cmsis/device/stm32f4xx_tim.c **** {
 1559              		.loc 1 1069 0
 1560              		.cfi_startproc
 1561              		@ args = 0, pretend = 0, frame = 0
 1562              		@ frame_needed = 0, uses_anonymous_args = 0
 1563              		@ link register save eliminated.
 1564              	.LVL159:
1070:cmsis/device/stm32f4xx_tim.c ****   /* Check the parameters */
1071:cmsis/device/stm32f4xx_tim.c ****   assert_param(IS_TIM_LIST2_PERIPH(TIMx));
1072:cmsis/device/stm32f4xx_tim.c **** 
1073:cmsis/device/stm32f4xx_tim.c ****   /* Set the Capture Compare2 Register value */
1074:cmsis/device/stm32f4xx_tim.c ****   TIMx->CCR2 = Compare2;
 1565              		.loc 1 1074 0
 1566 0000 8163     		str	r1, [r0, #56]	@ Compare2, TIMx_1(D)->CCR2
 1567 0002 7047     		bx	lr	@
 1568              		.cfi_endproc
 1569              	.LFE132:
 1570              		.size	TIM_SetCompare2, .-TIM_SetCompare2
 1571              		.section	.text.TIM_SetCompare3,"ax",%progbits
 1572              		.align	2
 1573              		.global	TIM_SetCompare3
 1574              		.thumb
 1575              		.thumb_func
 1576              		.type	TIM_SetCompare3, %function
 1577              	TIM_SetCompare3:
 1578              	.LFB133:
1075:cmsis/device/stm32f4xx_tim.c **** }
1076:cmsis/device/stm32f4xx_tim.c **** 
1077:cmsis/device/stm32f4xx_tim.c **** /**
1078:cmsis/device/stm32f4xx_tim.c ****   * @brief  Sets the TIMx Capture Compare3 Register value
1079:cmsis/device/stm32f4xx_tim.c ****   * @param  TIMx: where x can be 1, 2, 3, 4, 5 or 8 to select the TIM peripheral.
1080:cmsis/device/stm32f4xx_tim.c ****   * @param  Compare3: specifies the Capture Compare3 register new value.
1081:cmsis/device/stm32f4xx_tim.c ****   * @retval None
1082:cmsis/device/stm32f4xx_tim.c ****   */
1083:cmsis/device/stm32f4xx_tim.c **** void TIM_SetCompare3(TIM_TypeDef* TIMx, uint32_t Compare3)
1084:cmsis/device/stm32f4xx_tim.c **** {
 1579              		.loc 1 1084 0
 1580              		.cfi_startproc
 1581              		@ args = 0, pretend = 0, frame = 0
 1582              		@ frame_needed = 0, uses_anonymous_args = 0
 1583              		@ link register save eliminated.
ARM GAS  C:\Users\CNous\AppData\Local\Temp\ccZi7tDD.s 			page 51


 1584              	.LVL160:
1085:cmsis/device/stm32f4xx_tim.c ****   /* Check the parameters */
1086:cmsis/device/stm32f4xx_tim.c ****   assert_param(IS_TIM_LIST3_PERIPH(TIMx));
1087:cmsis/device/stm32f4xx_tim.c **** 
1088:cmsis/device/stm32f4xx_tim.c ****   /* Set the Capture Compare3 Register value */
1089:cmsis/device/stm32f4xx_tim.c ****   TIMx->CCR3 = Compare3;
 1585              		.loc 1 1089 0
 1586 0000 C163     		str	r1, [r0, #60]	@ Compare3, TIMx_1(D)->CCR3
 1587 0002 7047     		bx	lr	@
 1588              		.cfi_endproc
 1589              	.LFE133:
 1590              		.size	TIM_SetCompare3, .-TIM_SetCompare3
 1591              		.section	.text.TIM_SetCompare4,"ax",%progbits
 1592              		.align	2
 1593              		.global	TIM_SetCompare4
 1594              		.thumb
 1595              		.thumb_func
 1596              		.type	TIM_SetCompare4, %function
 1597              	TIM_SetCompare4:
 1598              	.LFB134:
1090:cmsis/device/stm32f4xx_tim.c **** }
1091:cmsis/device/stm32f4xx_tim.c **** 
1092:cmsis/device/stm32f4xx_tim.c **** /**
1093:cmsis/device/stm32f4xx_tim.c ****   * @brief  Sets the TIMx Capture Compare4 Register value
1094:cmsis/device/stm32f4xx_tim.c ****   * @param  TIMx: where x can be 1, 2, 3, 4, 5 or 8 to select the TIM peripheral.
1095:cmsis/device/stm32f4xx_tim.c ****   * @param  Compare4: specifies the Capture Compare4 register new value.
1096:cmsis/device/stm32f4xx_tim.c ****   * @retval None
1097:cmsis/device/stm32f4xx_tim.c ****   */
1098:cmsis/device/stm32f4xx_tim.c **** void TIM_SetCompare4(TIM_TypeDef* TIMx, uint32_t Compare4)
1099:cmsis/device/stm32f4xx_tim.c **** {
 1599              		.loc 1 1099 0
 1600              		.cfi_startproc
 1601              		@ args = 0, pretend = 0, frame = 0
 1602              		@ frame_needed = 0, uses_anonymous_args = 0
 1603              		@ link register save eliminated.
 1604              	.LVL161:
1100:cmsis/device/stm32f4xx_tim.c ****   /* Check the parameters */
1101:cmsis/device/stm32f4xx_tim.c ****   assert_param(IS_TIM_LIST3_PERIPH(TIMx));
1102:cmsis/device/stm32f4xx_tim.c **** 
1103:cmsis/device/stm32f4xx_tim.c ****   /* Set the Capture Compare4 Register value */
1104:cmsis/device/stm32f4xx_tim.c ****   TIMx->CCR4 = Compare4;
 1605              		.loc 1 1104 0
 1606 0000 0164     		str	r1, [r0, #64]	@ Compare4, TIMx_1(D)->CCR4
 1607 0002 7047     		bx	lr	@
 1608              		.cfi_endproc
 1609              	.LFE134:
 1610              		.size	TIM_SetCompare4, .-TIM_SetCompare4
 1611              		.section	.text.TIM_ForcedOC1Config,"ax",%progbits
 1612              		.align	2
 1613              		.global	TIM_ForcedOC1Config
 1614              		.thumb
 1615              		.thumb_func
 1616              		.type	TIM_ForcedOC1Config, %function
 1617              	TIM_ForcedOC1Config:
 1618              	.LFB135:
1105:cmsis/device/stm32f4xx_tim.c **** }
1106:cmsis/device/stm32f4xx_tim.c **** 
ARM GAS  C:\Users\CNous\AppData\Local\Temp\ccZi7tDD.s 			page 52


1107:cmsis/device/stm32f4xx_tim.c **** /**
1108:cmsis/device/stm32f4xx_tim.c ****   * @brief  Forces the TIMx output 1 waveform to active or inactive level.
1109:cmsis/device/stm32f4xx_tim.c ****   * @param  TIMx: where x can be 1 to 14 except 6 and 7, to select the TIM peripheral.
1110:cmsis/device/stm32f4xx_tim.c ****   * @param  TIM_ForcedAction: specifies the forced Action to be set to the output waveform.
1111:cmsis/device/stm32f4xx_tim.c ****   *          This parameter can be one of the following values:
1112:cmsis/device/stm32f4xx_tim.c ****   *            @arg TIM_ForcedAction_Active: Force active level on OC1REF
1113:cmsis/device/stm32f4xx_tim.c ****   *            @arg TIM_ForcedAction_InActive: Force inactive level on OC1REF.
1114:cmsis/device/stm32f4xx_tim.c ****   * @retval None
1115:cmsis/device/stm32f4xx_tim.c ****   */
1116:cmsis/device/stm32f4xx_tim.c **** void TIM_ForcedOC1Config(TIM_TypeDef* TIMx, uint16_t TIM_ForcedAction)
1117:cmsis/device/stm32f4xx_tim.c **** {
 1619              		.loc 1 1117 0
 1620              		.cfi_startproc
 1621              		@ args = 0, pretend = 0, frame = 0
 1622              		@ frame_needed = 0, uses_anonymous_args = 0
 1623              		@ link register save eliminated.
 1624              	.LVL162:
1118:cmsis/device/stm32f4xx_tim.c ****   uint16_t tmpccmr1 = 0;
1119:cmsis/device/stm32f4xx_tim.c **** 
1120:cmsis/device/stm32f4xx_tim.c ****   /* Check the parameters */
1121:cmsis/device/stm32f4xx_tim.c ****   assert_param(IS_TIM_LIST1_PERIPH(TIMx));
1122:cmsis/device/stm32f4xx_tim.c ****   assert_param(IS_TIM_FORCED_ACTION(TIM_ForcedAction));
1123:cmsis/device/stm32f4xx_tim.c ****   tmpccmr1 = TIMx->CCMR1;
 1625              		.loc 1 1123 0
 1626 0000 038B     		ldrh	r3, [r0, #24]	@, TIMx_2(D)->CCMR1
 1627              	.LVL163:
1124:cmsis/device/stm32f4xx_tim.c **** 
1125:cmsis/device/stm32f4xx_tim.c ****   /* Reset the OC1M Bits */
1126:cmsis/device/stm32f4xx_tim.c ****   tmpccmr1 &= (uint16_t)~TIM_CCMR1_OC1M;
 1628              		.loc 1 1126 0
 1629 0002 23F07002 		bic	r2, r3, #112	@ tmpccmr1, TIMx_2(D)->CCMR1,
 1630 0006 1304     		lsls	r3, r2, #16	@ tmpccmr1, tmpccmr1,
 1631              	.LVL164:
 1632 0008 1A0C     		lsrs	r2, r3, #16	@ tmpccmr1, tmpccmr1,
 1633              	.LVL165:
1127:cmsis/device/stm32f4xx_tim.c **** 
1128:cmsis/device/stm32f4xx_tim.c ****   /* Configure The Forced output Mode */
1129:cmsis/device/stm32f4xx_tim.c ****   tmpccmr1 |= TIM_ForcedAction;
 1634              		.loc 1 1129 0
 1635 000a 1143     		orrs	r1, r1, r2	@, tmpccmr1, TIM_ForcedAction, tmpccmr1
 1636              	.LVL166:
1130:cmsis/device/stm32f4xx_tim.c **** 
1131:cmsis/device/stm32f4xx_tim.c ****   /* Write to TIMx CCMR1 register */
1132:cmsis/device/stm32f4xx_tim.c ****   TIMx->CCMR1 = tmpccmr1;
 1637              		.loc 1 1132 0
 1638 000c 0183     		strh	r1, [r0, #24]	@ movhi	@ tmpccmr1, TIMx_2(D)->CCMR1
 1639 000e 7047     		bx	lr	@
 1640              		.cfi_endproc
 1641              	.LFE135:
 1642              		.size	TIM_ForcedOC1Config, .-TIM_ForcedOC1Config
 1643              		.section	.text.TIM_ForcedOC2Config,"ax",%progbits
 1644              		.align	2
 1645              		.global	TIM_ForcedOC2Config
 1646              		.thumb
 1647              		.thumb_func
 1648              		.type	TIM_ForcedOC2Config, %function
 1649              	TIM_ForcedOC2Config:
ARM GAS  C:\Users\CNous\AppData\Local\Temp\ccZi7tDD.s 			page 53


 1650              	.LFB136:
1133:cmsis/device/stm32f4xx_tim.c **** }
1134:cmsis/device/stm32f4xx_tim.c **** 
1135:cmsis/device/stm32f4xx_tim.c **** /**
1136:cmsis/device/stm32f4xx_tim.c ****   * @brief  Forces the TIMx output 2 waveform to active or inactive level.
1137:cmsis/device/stm32f4xx_tim.c ****   * @param  TIMx: where x can be  1, 2, 3, 4, 5, 8, 9 or 12 to select the TIM 
1138:cmsis/device/stm32f4xx_tim.c ****   *         peripheral.
1139:cmsis/device/stm32f4xx_tim.c ****   * @param  TIM_ForcedAction: specifies the forced Action to be set to the output waveform.
1140:cmsis/device/stm32f4xx_tim.c ****   *          This parameter can be one of the following values:
1141:cmsis/device/stm32f4xx_tim.c ****   *            @arg TIM_ForcedAction_Active: Force active level on OC2REF
1142:cmsis/device/stm32f4xx_tim.c ****   *            @arg TIM_ForcedAction_InActive: Force inactive level on OC2REF.
1143:cmsis/device/stm32f4xx_tim.c ****   * @retval None
1144:cmsis/device/stm32f4xx_tim.c ****   */
1145:cmsis/device/stm32f4xx_tim.c **** void TIM_ForcedOC2Config(TIM_TypeDef* TIMx, uint16_t TIM_ForcedAction)
1146:cmsis/device/stm32f4xx_tim.c **** {
 1651              		.loc 1 1146 0
 1652              		.cfi_startproc
 1653              		@ args = 0, pretend = 0, frame = 0
 1654              		@ frame_needed = 0, uses_anonymous_args = 0
 1655              		@ link register save eliminated.
 1656              	.LVL167:
1147:cmsis/device/stm32f4xx_tim.c ****   uint16_t tmpccmr1 = 0;
1148:cmsis/device/stm32f4xx_tim.c **** 
1149:cmsis/device/stm32f4xx_tim.c ****   /* Check the parameters */
1150:cmsis/device/stm32f4xx_tim.c ****   assert_param(IS_TIM_LIST2_PERIPH(TIMx));
1151:cmsis/device/stm32f4xx_tim.c ****   assert_param(IS_TIM_FORCED_ACTION(TIM_ForcedAction));
1152:cmsis/device/stm32f4xx_tim.c ****   tmpccmr1 = TIMx->CCMR1;
 1657              		.loc 1 1152 0
 1658 0000 038B     		ldrh	r3, [r0, #24]	@, TIMx_2(D)->CCMR1
 1659              	.LVL168:
1153:cmsis/device/stm32f4xx_tim.c **** 
1154:cmsis/device/stm32f4xx_tim.c ****   /* Reset the OC2M Bits */
1155:cmsis/device/stm32f4xx_tim.c ****   tmpccmr1 &= (uint16_t)~TIM_CCMR1_OC2M;
 1660              		.loc 1 1155 0
 1661 0002 23F4E042 		bic	r2, r3, #28672	@ tmpccmr1, TIMx_2(D)->CCMR1,
 1662 0006 1304     		lsls	r3, r2, #16	@ tmpccmr1, tmpccmr1,
 1663              	.LVL169:
 1664 0008 1A0C     		lsrs	r2, r3, #16	@ tmpccmr1, tmpccmr1,
 1665              	.LVL170:
1156:cmsis/device/stm32f4xx_tim.c **** 
1157:cmsis/device/stm32f4xx_tim.c ****   /* Configure The Forced output Mode */
1158:cmsis/device/stm32f4xx_tim.c ****   tmpccmr1 |= (uint16_t)(TIM_ForcedAction << 8);
 1666              		.loc 1 1158 0
 1667 000a 42EA0121 		orr	r1, r2, r1, lsl #8	@, tmp145, tmpccmr1, TIM_ForcedAction,
 1668              	.LVL171:
 1669 000e 8BB2     		uxth	r3, r1	@ tmpccmr1, tmp145
 1670              	.LVL172:
1159:cmsis/device/stm32f4xx_tim.c **** 
1160:cmsis/device/stm32f4xx_tim.c ****   /* Write to TIMx CCMR1 register */
1161:cmsis/device/stm32f4xx_tim.c ****   TIMx->CCMR1 = tmpccmr1;
 1671              		.loc 1 1161 0
 1672 0010 0383     		strh	r3, [r0, #24]	@ movhi	@ tmpccmr1, TIMx_2(D)->CCMR1
 1673 0012 7047     		bx	lr	@
 1674              		.cfi_endproc
 1675              	.LFE136:
 1676              		.size	TIM_ForcedOC2Config, .-TIM_ForcedOC2Config
 1677              		.section	.text.TIM_ForcedOC3Config,"ax",%progbits
ARM GAS  C:\Users\CNous\AppData\Local\Temp\ccZi7tDD.s 			page 54


 1678              		.align	2
 1679              		.global	TIM_ForcedOC3Config
 1680              		.thumb
 1681              		.thumb_func
 1682              		.type	TIM_ForcedOC3Config, %function
 1683              	TIM_ForcedOC3Config:
 1684              	.LFB137:
1162:cmsis/device/stm32f4xx_tim.c **** }
1163:cmsis/device/stm32f4xx_tim.c **** 
1164:cmsis/device/stm32f4xx_tim.c **** /**
1165:cmsis/device/stm32f4xx_tim.c ****   * @brief  Forces the TIMx output 3 waveform to active or inactive level.
1166:cmsis/device/stm32f4xx_tim.c ****   * @param  TIMx: where x can be  1, 2, 3, 4, 5 or 8 to select the TIM peripheral.
1167:cmsis/device/stm32f4xx_tim.c ****   * @param  TIM_ForcedAction: specifies the forced Action to be set to the output waveform.
1168:cmsis/device/stm32f4xx_tim.c ****   *          This parameter can be one of the following values:
1169:cmsis/device/stm32f4xx_tim.c ****   *            @arg TIM_ForcedAction_Active: Force active level on OC3REF
1170:cmsis/device/stm32f4xx_tim.c ****   *            @arg TIM_ForcedAction_InActive: Force inactive level on OC3REF.
1171:cmsis/device/stm32f4xx_tim.c ****   * @retval None
1172:cmsis/device/stm32f4xx_tim.c ****   */
1173:cmsis/device/stm32f4xx_tim.c **** void TIM_ForcedOC3Config(TIM_TypeDef* TIMx, uint16_t TIM_ForcedAction)
1174:cmsis/device/stm32f4xx_tim.c **** {
 1685              		.loc 1 1174 0
 1686              		.cfi_startproc
 1687              		@ args = 0, pretend = 0, frame = 0
 1688              		@ frame_needed = 0, uses_anonymous_args = 0
 1689              		@ link register save eliminated.
 1690              	.LVL173:
1175:cmsis/device/stm32f4xx_tim.c ****   uint16_t tmpccmr2 = 0;
1176:cmsis/device/stm32f4xx_tim.c **** 
1177:cmsis/device/stm32f4xx_tim.c ****   /* Check the parameters */
1178:cmsis/device/stm32f4xx_tim.c ****   assert_param(IS_TIM_LIST3_PERIPH(TIMx));
1179:cmsis/device/stm32f4xx_tim.c ****   assert_param(IS_TIM_FORCED_ACTION(TIM_ForcedAction));
1180:cmsis/device/stm32f4xx_tim.c **** 
1181:cmsis/device/stm32f4xx_tim.c ****   tmpccmr2 = TIMx->CCMR2;
 1691              		.loc 1 1181 0
 1692 0000 838B     		ldrh	r3, [r0, #28]	@, TIMx_2(D)->CCMR2
 1693              	.LVL174:
1182:cmsis/device/stm32f4xx_tim.c **** 
1183:cmsis/device/stm32f4xx_tim.c ****   /* Reset the OC1M Bits */
1184:cmsis/device/stm32f4xx_tim.c ****   tmpccmr2 &= (uint16_t)~TIM_CCMR2_OC3M;
 1694              		.loc 1 1184 0
 1695 0002 23F07002 		bic	r2, r3, #112	@ tmpccmr2, TIMx_2(D)->CCMR2,
 1696 0006 1304     		lsls	r3, r2, #16	@ tmpccmr2, tmpccmr2,
 1697              	.LVL175:
 1698 0008 1A0C     		lsrs	r2, r3, #16	@ tmpccmr2, tmpccmr2,
 1699              	.LVL176:
1185:cmsis/device/stm32f4xx_tim.c **** 
1186:cmsis/device/stm32f4xx_tim.c ****   /* Configure The Forced output Mode */
1187:cmsis/device/stm32f4xx_tim.c ****   tmpccmr2 |= TIM_ForcedAction;
 1700              		.loc 1 1187 0
 1701 000a 1143     		orrs	r1, r1, r2	@, tmpccmr2, TIM_ForcedAction, tmpccmr2
 1702              	.LVL177:
1188:cmsis/device/stm32f4xx_tim.c **** 
1189:cmsis/device/stm32f4xx_tim.c ****   /* Write to TIMx CCMR2 register */
1190:cmsis/device/stm32f4xx_tim.c ****   TIMx->CCMR2 = tmpccmr2;
 1703              		.loc 1 1190 0
 1704 000c 8183     		strh	r1, [r0, #28]	@ movhi	@ tmpccmr2, TIMx_2(D)->CCMR2
 1705 000e 7047     		bx	lr	@
ARM GAS  C:\Users\CNous\AppData\Local\Temp\ccZi7tDD.s 			page 55


 1706              		.cfi_endproc
 1707              	.LFE137:
 1708              		.size	TIM_ForcedOC3Config, .-TIM_ForcedOC3Config
 1709              		.section	.text.TIM_ForcedOC4Config,"ax",%progbits
 1710              		.align	2
 1711              		.global	TIM_ForcedOC4Config
 1712              		.thumb
 1713              		.thumb_func
 1714              		.type	TIM_ForcedOC4Config, %function
 1715              	TIM_ForcedOC4Config:
 1716              	.LFB138:
1191:cmsis/device/stm32f4xx_tim.c **** }
1192:cmsis/device/stm32f4xx_tim.c **** 
1193:cmsis/device/stm32f4xx_tim.c **** /**
1194:cmsis/device/stm32f4xx_tim.c ****   * @brief  Forces the TIMx output 4 waveform to active or inactive level.
1195:cmsis/device/stm32f4xx_tim.c ****   * @param  TIMx: where x can be  1, 2, 3, 4, 5 or 8 to select the TIM peripheral.
1196:cmsis/device/stm32f4xx_tim.c ****   * @param  TIM_ForcedAction: specifies the forced Action to be set to the output waveform.
1197:cmsis/device/stm32f4xx_tim.c ****   *          This parameter can be one of the following values:
1198:cmsis/device/stm32f4xx_tim.c ****   *            @arg TIM_ForcedAction_Active: Force active level on OC4REF
1199:cmsis/device/stm32f4xx_tim.c ****   *            @arg TIM_ForcedAction_InActive: Force inactive level on OC4REF.
1200:cmsis/device/stm32f4xx_tim.c ****   * @retval None
1201:cmsis/device/stm32f4xx_tim.c ****   */
1202:cmsis/device/stm32f4xx_tim.c **** void TIM_ForcedOC4Config(TIM_TypeDef* TIMx, uint16_t TIM_ForcedAction)
1203:cmsis/device/stm32f4xx_tim.c **** {
 1717              		.loc 1 1203 0
 1718              		.cfi_startproc
 1719              		@ args = 0, pretend = 0, frame = 0
 1720              		@ frame_needed = 0, uses_anonymous_args = 0
 1721              		@ link register save eliminated.
 1722              	.LVL178:
1204:cmsis/device/stm32f4xx_tim.c ****   uint16_t tmpccmr2 = 0;
1205:cmsis/device/stm32f4xx_tim.c **** 
1206:cmsis/device/stm32f4xx_tim.c ****   /* Check the parameters */
1207:cmsis/device/stm32f4xx_tim.c ****   assert_param(IS_TIM_LIST3_PERIPH(TIMx));
1208:cmsis/device/stm32f4xx_tim.c ****   assert_param(IS_TIM_FORCED_ACTION(TIM_ForcedAction));
1209:cmsis/device/stm32f4xx_tim.c ****   tmpccmr2 = TIMx->CCMR2;
 1723              		.loc 1 1209 0
 1724 0000 838B     		ldrh	r3, [r0, #28]	@, TIMx_2(D)->CCMR2
 1725              	.LVL179:
1210:cmsis/device/stm32f4xx_tim.c **** 
1211:cmsis/device/stm32f4xx_tim.c ****   /* Reset the OC2M Bits */
1212:cmsis/device/stm32f4xx_tim.c ****   tmpccmr2 &= (uint16_t)~TIM_CCMR2_OC4M;
 1726              		.loc 1 1212 0
 1727 0002 23F4E042 		bic	r2, r3, #28672	@ tmpccmr2, TIMx_2(D)->CCMR2,
 1728 0006 1304     		lsls	r3, r2, #16	@ tmpccmr2, tmpccmr2,
 1729              	.LVL180:
 1730 0008 1A0C     		lsrs	r2, r3, #16	@ tmpccmr2, tmpccmr2,
 1731              	.LVL181:
1213:cmsis/device/stm32f4xx_tim.c **** 
1214:cmsis/device/stm32f4xx_tim.c ****   /* Configure The Forced output Mode */
1215:cmsis/device/stm32f4xx_tim.c ****   tmpccmr2 |= (uint16_t)(TIM_ForcedAction << 8);
 1732              		.loc 1 1215 0
 1733 000a 42EA0121 		orr	r1, r2, r1, lsl #8	@, tmp145, tmpccmr2, TIM_ForcedAction,
 1734              	.LVL182:
 1735 000e 8BB2     		uxth	r3, r1	@ tmpccmr2, tmp145
 1736              	.LVL183:
1216:cmsis/device/stm32f4xx_tim.c **** 
ARM GAS  C:\Users\CNous\AppData\Local\Temp\ccZi7tDD.s 			page 56


1217:cmsis/device/stm32f4xx_tim.c ****   /* Write to TIMx CCMR2 register */
1218:cmsis/device/stm32f4xx_tim.c ****   TIMx->CCMR2 = tmpccmr2;
 1737              		.loc 1 1218 0
 1738 0010 8383     		strh	r3, [r0, #28]	@ movhi	@ tmpccmr2, TIMx_2(D)->CCMR2
 1739 0012 7047     		bx	lr	@
 1740              		.cfi_endproc
 1741              	.LFE138:
 1742              		.size	TIM_ForcedOC4Config, .-TIM_ForcedOC4Config
 1743              		.section	.text.TIM_OC1PreloadConfig,"ax",%progbits
 1744              		.align	2
 1745              		.global	TIM_OC1PreloadConfig
 1746              		.thumb
 1747              		.thumb_func
 1748              		.type	TIM_OC1PreloadConfig, %function
 1749              	TIM_OC1PreloadConfig:
 1750              	.LFB139:
1219:cmsis/device/stm32f4xx_tim.c **** }
1220:cmsis/device/stm32f4xx_tim.c **** 
1221:cmsis/device/stm32f4xx_tim.c **** /**
1222:cmsis/device/stm32f4xx_tim.c ****   * @brief  Enables or disables the TIMx peripheral Preload register on CCR1.
1223:cmsis/device/stm32f4xx_tim.c ****   * @param  TIMx: where x can be 1 to 14 except 6 and 7, to select the TIM peripheral.
1224:cmsis/device/stm32f4xx_tim.c ****   * @param  TIM_OCPreload: new state of the TIMx peripheral Preload register
1225:cmsis/device/stm32f4xx_tim.c ****   *          This parameter can be one of the following values:
1226:cmsis/device/stm32f4xx_tim.c ****   *            @arg TIM_OCPreload_Enable
1227:cmsis/device/stm32f4xx_tim.c ****   *            @arg TIM_OCPreload_Disable
1228:cmsis/device/stm32f4xx_tim.c ****   * @retval None
1229:cmsis/device/stm32f4xx_tim.c ****   */
1230:cmsis/device/stm32f4xx_tim.c **** void TIM_OC1PreloadConfig(TIM_TypeDef* TIMx, uint16_t TIM_OCPreload)
1231:cmsis/device/stm32f4xx_tim.c **** {
 1751              		.loc 1 1231 0
 1752              		.cfi_startproc
 1753              		@ args = 0, pretend = 0, frame = 0
 1754              		@ frame_needed = 0, uses_anonymous_args = 0
 1755              		@ link register save eliminated.
 1756              	.LVL184:
1232:cmsis/device/stm32f4xx_tim.c ****   uint16_t tmpccmr1 = 0;
1233:cmsis/device/stm32f4xx_tim.c **** 
1234:cmsis/device/stm32f4xx_tim.c ****   /* Check the parameters */
1235:cmsis/device/stm32f4xx_tim.c ****   assert_param(IS_TIM_LIST1_PERIPH(TIMx));
1236:cmsis/device/stm32f4xx_tim.c ****   assert_param(IS_TIM_OCPRELOAD_STATE(TIM_OCPreload));
1237:cmsis/device/stm32f4xx_tim.c **** 
1238:cmsis/device/stm32f4xx_tim.c ****   tmpccmr1 = TIMx->CCMR1;
 1757              		.loc 1 1238 0
 1758 0000 038B     		ldrh	r3, [r0, #24]	@, TIMx_2(D)->CCMR1
 1759              	.LVL185:
1239:cmsis/device/stm32f4xx_tim.c **** 
1240:cmsis/device/stm32f4xx_tim.c ****   /* Reset the OC1PE Bit */
1241:cmsis/device/stm32f4xx_tim.c ****   tmpccmr1 &= (uint16_t)(~TIM_CCMR1_OC1PE);
 1760              		.loc 1 1241 0
 1761 0002 23F00802 		bic	r2, r3, #8	@ tmpccmr1, TIMx_2(D)->CCMR1,
 1762 0006 1304     		lsls	r3, r2, #16	@ tmpccmr1, tmpccmr1,
 1763              	.LVL186:
 1764 0008 1A0C     		lsrs	r2, r3, #16	@ tmpccmr1, tmpccmr1,
 1765              	.LVL187:
1242:cmsis/device/stm32f4xx_tim.c **** 
1243:cmsis/device/stm32f4xx_tim.c ****   /* Enable or Disable the Output Compare Preload feature */
1244:cmsis/device/stm32f4xx_tim.c ****   tmpccmr1 |= TIM_OCPreload;
ARM GAS  C:\Users\CNous\AppData\Local\Temp\ccZi7tDD.s 			page 57


 1766              		.loc 1 1244 0
 1767 000a 1143     		orrs	r1, r1, r2	@, tmpccmr1, TIM_OCPreload, tmpccmr1
 1768              	.LVL188:
1245:cmsis/device/stm32f4xx_tim.c **** 
1246:cmsis/device/stm32f4xx_tim.c ****   /* Write to TIMx CCMR1 register */
1247:cmsis/device/stm32f4xx_tim.c ****   TIMx->CCMR1 = tmpccmr1;
 1769              		.loc 1 1247 0
 1770 000c 0183     		strh	r1, [r0, #24]	@ movhi	@ tmpccmr1, TIMx_2(D)->CCMR1
 1771 000e 7047     		bx	lr	@
 1772              		.cfi_endproc
 1773              	.LFE139:
 1774              		.size	TIM_OC1PreloadConfig, .-TIM_OC1PreloadConfig
 1775              		.section	.text.TIM_OC2PreloadConfig,"ax",%progbits
 1776              		.align	2
 1777              		.global	TIM_OC2PreloadConfig
 1778              		.thumb
 1779              		.thumb_func
 1780              		.type	TIM_OC2PreloadConfig, %function
 1781              	TIM_OC2PreloadConfig:
 1782              	.LFB140:
1248:cmsis/device/stm32f4xx_tim.c **** }
1249:cmsis/device/stm32f4xx_tim.c **** 
1250:cmsis/device/stm32f4xx_tim.c **** /**
1251:cmsis/device/stm32f4xx_tim.c ****   * @brief  Enables or disables the TIMx peripheral Preload register on CCR2.
1252:cmsis/device/stm32f4xx_tim.c ****   * @param  TIMx: where x can be  1, 2, 3, 4, 5, 8, 9 or 12 to select the TIM 
1253:cmsis/device/stm32f4xx_tim.c ****   *         peripheral.
1254:cmsis/device/stm32f4xx_tim.c ****   * @param  TIM_OCPreload: new state of the TIMx peripheral Preload register
1255:cmsis/device/stm32f4xx_tim.c ****   *          This parameter can be one of the following values:
1256:cmsis/device/stm32f4xx_tim.c ****   *            @arg TIM_OCPreload_Enable
1257:cmsis/device/stm32f4xx_tim.c ****   *            @arg TIM_OCPreload_Disable
1258:cmsis/device/stm32f4xx_tim.c ****   * @retval None
1259:cmsis/device/stm32f4xx_tim.c ****   */
1260:cmsis/device/stm32f4xx_tim.c **** void TIM_OC2PreloadConfig(TIM_TypeDef* TIMx, uint16_t TIM_OCPreload)
1261:cmsis/device/stm32f4xx_tim.c **** {
 1783              		.loc 1 1261 0
 1784              		.cfi_startproc
 1785              		@ args = 0, pretend = 0, frame = 0
 1786              		@ frame_needed = 0, uses_anonymous_args = 0
 1787              		@ link register save eliminated.
 1788              	.LVL189:
1262:cmsis/device/stm32f4xx_tim.c ****   uint16_t tmpccmr1 = 0;
1263:cmsis/device/stm32f4xx_tim.c **** 
1264:cmsis/device/stm32f4xx_tim.c ****   /* Check the parameters */
1265:cmsis/device/stm32f4xx_tim.c ****   assert_param(IS_TIM_LIST2_PERIPH(TIMx));
1266:cmsis/device/stm32f4xx_tim.c ****   assert_param(IS_TIM_OCPRELOAD_STATE(TIM_OCPreload));
1267:cmsis/device/stm32f4xx_tim.c **** 
1268:cmsis/device/stm32f4xx_tim.c ****   tmpccmr1 = TIMx->CCMR1;
 1789              		.loc 1 1268 0
 1790 0000 038B     		ldrh	r3, [r0, #24]	@, TIMx_2(D)->CCMR1
 1791              	.LVL190:
1269:cmsis/device/stm32f4xx_tim.c **** 
1270:cmsis/device/stm32f4xx_tim.c ****   /* Reset the OC2PE Bit */
1271:cmsis/device/stm32f4xx_tim.c ****   tmpccmr1 &= (uint16_t)(~TIM_CCMR1_OC2PE);
 1792              		.loc 1 1271 0
 1793 0002 23F40062 		bic	r2, r3, #2048	@ tmpccmr1, TIMx_2(D)->CCMR1,
 1794 0006 1304     		lsls	r3, r2, #16	@ tmpccmr1, tmpccmr1,
 1795              	.LVL191:
ARM GAS  C:\Users\CNous\AppData\Local\Temp\ccZi7tDD.s 			page 58


 1796 0008 1A0C     		lsrs	r2, r3, #16	@ tmpccmr1, tmpccmr1,
 1797              	.LVL192:
1272:cmsis/device/stm32f4xx_tim.c **** 
1273:cmsis/device/stm32f4xx_tim.c ****   /* Enable or Disable the Output Compare Preload feature */
1274:cmsis/device/stm32f4xx_tim.c ****   tmpccmr1 |= (uint16_t)(TIM_OCPreload << 8);
 1798              		.loc 1 1274 0
 1799 000a 42EA0121 		orr	r1, r2, r1, lsl #8	@, tmp145, tmpccmr1, TIM_OCPreload,
 1800              	.LVL193:
 1801 000e 8BB2     		uxth	r3, r1	@ tmpccmr1, tmp145
 1802              	.LVL194:
1275:cmsis/device/stm32f4xx_tim.c **** 
1276:cmsis/device/stm32f4xx_tim.c ****   /* Write to TIMx CCMR1 register */
1277:cmsis/device/stm32f4xx_tim.c ****   TIMx->CCMR1 = tmpccmr1;
 1803              		.loc 1 1277 0
 1804 0010 0383     		strh	r3, [r0, #24]	@ movhi	@ tmpccmr1, TIMx_2(D)->CCMR1
 1805 0012 7047     		bx	lr	@
 1806              		.cfi_endproc
 1807              	.LFE140:
 1808              		.size	TIM_OC2PreloadConfig, .-TIM_OC2PreloadConfig
 1809              		.section	.text.TIM_OC3PreloadConfig,"ax",%progbits
 1810              		.align	2
 1811              		.global	TIM_OC3PreloadConfig
 1812              		.thumb
 1813              		.thumb_func
 1814              		.type	TIM_OC3PreloadConfig, %function
 1815              	TIM_OC3PreloadConfig:
 1816              	.LFB141:
1278:cmsis/device/stm32f4xx_tim.c **** }
1279:cmsis/device/stm32f4xx_tim.c **** 
1280:cmsis/device/stm32f4xx_tim.c **** /**
1281:cmsis/device/stm32f4xx_tim.c ****   * @brief  Enables or disables the TIMx peripheral Preload register on CCR3.
1282:cmsis/device/stm32f4xx_tim.c ****   * @param  TIMx: where x can be  1, 2, 3, 4, 5 or 8 to select the TIM peripheral.
1283:cmsis/device/stm32f4xx_tim.c ****   * @param  TIM_OCPreload: new state of the TIMx peripheral Preload register
1284:cmsis/device/stm32f4xx_tim.c ****   *          This parameter can be one of the following values:
1285:cmsis/device/stm32f4xx_tim.c ****   *            @arg TIM_OCPreload_Enable
1286:cmsis/device/stm32f4xx_tim.c ****   *            @arg TIM_OCPreload_Disable
1287:cmsis/device/stm32f4xx_tim.c ****   * @retval None
1288:cmsis/device/stm32f4xx_tim.c ****   */
1289:cmsis/device/stm32f4xx_tim.c **** void TIM_OC3PreloadConfig(TIM_TypeDef* TIMx, uint16_t TIM_OCPreload)
1290:cmsis/device/stm32f4xx_tim.c **** {
 1817              		.loc 1 1290 0
 1818              		.cfi_startproc
 1819              		@ args = 0, pretend = 0, frame = 0
 1820              		@ frame_needed = 0, uses_anonymous_args = 0
 1821              		@ link register save eliminated.
 1822              	.LVL195:
1291:cmsis/device/stm32f4xx_tim.c ****   uint16_t tmpccmr2 = 0;
1292:cmsis/device/stm32f4xx_tim.c **** 
1293:cmsis/device/stm32f4xx_tim.c ****   /* Check the parameters */
1294:cmsis/device/stm32f4xx_tim.c ****   assert_param(IS_TIM_LIST3_PERIPH(TIMx));
1295:cmsis/device/stm32f4xx_tim.c ****   assert_param(IS_TIM_OCPRELOAD_STATE(TIM_OCPreload));
1296:cmsis/device/stm32f4xx_tim.c **** 
1297:cmsis/device/stm32f4xx_tim.c ****   tmpccmr2 = TIMx->CCMR2;
 1823              		.loc 1 1297 0
 1824 0000 838B     		ldrh	r3, [r0, #28]	@, TIMx_2(D)->CCMR2
 1825              	.LVL196:
1298:cmsis/device/stm32f4xx_tim.c **** 
ARM GAS  C:\Users\CNous\AppData\Local\Temp\ccZi7tDD.s 			page 59


1299:cmsis/device/stm32f4xx_tim.c ****   /* Reset the OC3PE Bit */
1300:cmsis/device/stm32f4xx_tim.c ****   tmpccmr2 &= (uint16_t)(~TIM_CCMR2_OC3PE);
 1826              		.loc 1 1300 0
 1827 0002 23F00802 		bic	r2, r3, #8	@ tmpccmr2, TIMx_2(D)->CCMR2,
 1828 0006 1304     		lsls	r3, r2, #16	@ tmpccmr2, tmpccmr2,
 1829              	.LVL197:
 1830 0008 1A0C     		lsrs	r2, r3, #16	@ tmpccmr2, tmpccmr2,
 1831              	.LVL198:
1301:cmsis/device/stm32f4xx_tim.c **** 
1302:cmsis/device/stm32f4xx_tim.c ****   /* Enable or Disable the Output Compare Preload feature */
1303:cmsis/device/stm32f4xx_tim.c ****   tmpccmr2 |= TIM_OCPreload;
 1832              		.loc 1 1303 0
 1833 000a 1143     		orrs	r1, r1, r2	@, tmpccmr2, TIM_OCPreload, tmpccmr2
 1834              	.LVL199:
1304:cmsis/device/stm32f4xx_tim.c **** 
1305:cmsis/device/stm32f4xx_tim.c ****   /* Write to TIMx CCMR2 register */
1306:cmsis/device/stm32f4xx_tim.c ****   TIMx->CCMR2 = tmpccmr2;
 1835              		.loc 1 1306 0
 1836 000c 8183     		strh	r1, [r0, #28]	@ movhi	@ tmpccmr2, TIMx_2(D)->CCMR2
 1837 000e 7047     		bx	lr	@
 1838              		.cfi_endproc
 1839              	.LFE141:
 1840              		.size	TIM_OC3PreloadConfig, .-TIM_OC3PreloadConfig
 1841              		.section	.text.TIM_OC4PreloadConfig,"ax",%progbits
 1842              		.align	2
 1843              		.global	TIM_OC4PreloadConfig
 1844              		.thumb
 1845              		.thumb_func
 1846              		.type	TIM_OC4PreloadConfig, %function
 1847              	TIM_OC4PreloadConfig:
 1848              	.LFB142:
1307:cmsis/device/stm32f4xx_tim.c **** }
1308:cmsis/device/stm32f4xx_tim.c **** 
1309:cmsis/device/stm32f4xx_tim.c **** /**
1310:cmsis/device/stm32f4xx_tim.c ****   * @brief  Enables or disables the TIMx peripheral Preload register on CCR4.
1311:cmsis/device/stm32f4xx_tim.c ****   * @param  TIMx: where x can be  1, 2, 3, 4, 5 or 8 to select the TIM peripheral.
1312:cmsis/device/stm32f4xx_tim.c ****   * @param  TIM_OCPreload: new state of the TIMx peripheral Preload register
1313:cmsis/device/stm32f4xx_tim.c ****   *          This parameter can be one of the following values:
1314:cmsis/device/stm32f4xx_tim.c ****   *            @arg TIM_OCPreload_Enable
1315:cmsis/device/stm32f4xx_tim.c ****   *            @arg TIM_OCPreload_Disable
1316:cmsis/device/stm32f4xx_tim.c ****   * @retval None
1317:cmsis/device/stm32f4xx_tim.c ****   */
1318:cmsis/device/stm32f4xx_tim.c **** void TIM_OC4PreloadConfig(TIM_TypeDef* TIMx, uint16_t TIM_OCPreload)
1319:cmsis/device/stm32f4xx_tim.c **** {
 1849              		.loc 1 1319 0
 1850              		.cfi_startproc
 1851              		@ args = 0, pretend = 0, frame = 0
 1852              		@ frame_needed = 0, uses_anonymous_args = 0
 1853              		@ link register save eliminated.
 1854              	.LVL200:
1320:cmsis/device/stm32f4xx_tim.c ****   uint16_t tmpccmr2 = 0;
1321:cmsis/device/stm32f4xx_tim.c **** 
1322:cmsis/device/stm32f4xx_tim.c ****   /* Check the parameters */
1323:cmsis/device/stm32f4xx_tim.c ****   assert_param(IS_TIM_LIST3_PERIPH(TIMx));
1324:cmsis/device/stm32f4xx_tim.c ****   assert_param(IS_TIM_OCPRELOAD_STATE(TIM_OCPreload));
1325:cmsis/device/stm32f4xx_tim.c **** 
1326:cmsis/device/stm32f4xx_tim.c ****   tmpccmr2 = TIMx->CCMR2;
ARM GAS  C:\Users\CNous\AppData\Local\Temp\ccZi7tDD.s 			page 60


 1855              		.loc 1 1326 0
 1856 0000 838B     		ldrh	r3, [r0, #28]	@, TIMx_2(D)->CCMR2
 1857              	.LVL201:
1327:cmsis/device/stm32f4xx_tim.c **** 
1328:cmsis/device/stm32f4xx_tim.c ****   /* Reset the OC4PE Bit */
1329:cmsis/device/stm32f4xx_tim.c ****   tmpccmr2 &= (uint16_t)(~TIM_CCMR2_OC4PE);
 1858              		.loc 1 1329 0
 1859 0002 23F40062 		bic	r2, r3, #2048	@ tmpccmr2, TIMx_2(D)->CCMR2,
 1860 0006 1304     		lsls	r3, r2, #16	@ tmpccmr2, tmpccmr2,
 1861              	.LVL202:
 1862 0008 1A0C     		lsrs	r2, r3, #16	@ tmpccmr2, tmpccmr2,
 1863              	.LVL203:
1330:cmsis/device/stm32f4xx_tim.c **** 
1331:cmsis/device/stm32f4xx_tim.c ****   /* Enable or Disable the Output Compare Preload feature */
1332:cmsis/device/stm32f4xx_tim.c ****   tmpccmr2 |= (uint16_t)(TIM_OCPreload << 8);
 1864              		.loc 1 1332 0
 1865 000a 42EA0121 		orr	r1, r2, r1, lsl #8	@, tmp145, tmpccmr2, TIM_OCPreload,
 1866              	.LVL204:
 1867 000e 8BB2     		uxth	r3, r1	@ tmpccmr2, tmp145
 1868              	.LVL205:
1333:cmsis/device/stm32f4xx_tim.c **** 
1334:cmsis/device/stm32f4xx_tim.c ****   /* Write to TIMx CCMR2 register */
1335:cmsis/device/stm32f4xx_tim.c ****   TIMx->CCMR2 = tmpccmr2;
 1869              		.loc 1 1335 0
 1870 0010 8383     		strh	r3, [r0, #28]	@ movhi	@ tmpccmr2, TIMx_2(D)->CCMR2
 1871 0012 7047     		bx	lr	@
 1872              		.cfi_endproc
 1873              	.LFE142:
 1874              		.size	TIM_OC4PreloadConfig, .-TIM_OC4PreloadConfig
 1875              		.section	.text.TIM_OC1FastConfig,"ax",%progbits
 1876              		.align	2
 1877              		.global	TIM_OC1FastConfig
 1878              		.thumb
 1879              		.thumb_func
 1880              		.type	TIM_OC1FastConfig, %function
 1881              	TIM_OC1FastConfig:
 1882              	.LFB143:
1336:cmsis/device/stm32f4xx_tim.c **** }
1337:cmsis/device/stm32f4xx_tim.c **** 
1338:cmsis/device/stm32f4xx_tim.c **** /**
1339:cmsis/device/stm32f4xx_tim.c ****   * @brief  Configures the TIMx Output Compare 1 Fast feature.
1340:cmsis/device/stm32f4xx_tim.c ****   * @param  TIMx: where x can be 1 to 14 except 6 and 7, to select the TIM peripheral.
1341:cmsis/device/stm32f4xx_tim.c ****   * @param  TIM_OCFast: new state of the Output Compare Fast Enable Bit.
1342:cmsis/device/stm32f4xx_tim.c ****   *          This parameter can be one of the following values:
1343:cmsis/device/stm32f4xx_tim.c ****   *            @arg TIM_OCFast_Enable: TIM output compare fast enable
1344:cmsis/device/stm32f4xx_tim.c ****   *            @arg TIM_OCFast_Disable: TIM output compare fast disable
1345:cmsis/device/stm32f4xx_tim.c ****   * @retval None
1346:cmsis/device/stm32f4xx_tim.c ****   */
1347:cmsis/device/stm32f4xx_tim.c **** void TIM_OC1FastConfig(TIM_TypeDef* TIMx, uint16_t TIM_OCFast)
1348:cmsis/device/stm32f4xx_tim.c **** {
 1883              		.loc 1 1348 0
 1884              		.cfi_startproc
 1885              		@ args = 0, pretend = 0, frame = 0
 1886              		@ frame_needed = 0, uses_anonymous_args = 0
 1887              		@ link register save eliminated.
 1888              	.LVL206:
1349:cmsis/device/stm32f4xx_tim.c ****   uint16_t tmpccmr1 = 0;
ARM GAS  C:\Users\CNous\AppData\Local\Temp\ccZi7tDD.s 			page 61


1350:cmsis/device/stm32f4xx_tim.c **** 
1351:cmsis/device/stm32f4xx_tim.c ****   /* Check the parameters */
1352:cmsis/device/stm32f4xx_tim.c ****   assert_param(IS_TIM_LIST1_PERIPH(TIMx));
1353:cmsis/device/stm32f4xx_tim.c ****   assert_param(IS_TIM_OCFAST_STATE(TIM_OCFast));
1354:cmsis/device/stm32f4xx_tim.c **** 
1355:cmsis/device/stm32f4xx_tim.c ****   /* Get the TIMx CCMR1 register value */
1356:cmsis/device/stm32f4xx_tim.c ****   tmpccmr1 = TIMx->CCMR1;
 1889              		.loc 1 1356 0
 1890 0000 038B     		ldrh	r3, [r0, #24]	@, TIMx_2(D)->CCMR1
 1891              	.LVL207:
1357:cmsis/device/stm32f4xx_tim.c **** 
1358:cmsis/device/stm32f4xx_tim.c ****   /* Reset the OC1FE Bit */
1359:cmsis/device/stm32f4xx_tim.c ****   tmpccmr1 &= (uint16_t)~TIM_CCMR1_OC1FE;
 1892              		.loc 1 1359 0
 1893 0002 23F00402 		bic	r2, r3, #4	@ tmpccmr1, TIMx_2(D)->CCMR1,
 1894 0006 1304     		lsls	r3, r2, #16	@ tmpccmr1, tmpccmr1,
 1895              	.LVL208:
 1896 0008 1A0C     		lsrs	r2, r3, #16	@ tmpccmr1, tmpccmr1,
 1897              	.LVL209:
1360:cmsis/device/stm32f4xx_tim.c **** 
1361:cmsis/device/stm32f4xx_tim.c ****   /* Enable or Disable the Output Compare Fast Bit */
1362:cmsis/device/stm32f4xx_tim.c ****   tmpccmr1 |= TIM_OCFast;
 1898              		.loc 1 1362 0
 1899 000a 1143     		orrs	r1, r1, r2	@, tmpccmr1, TIM_OCFast, tmpccmr1
 1900              	.LVL210:
1363:cmsis/device/stm32f4xx_tim.c **** 
1364:cmsis/device/stm32f4xx_tim.c ****   /* Write to TIMx CCMR1 */
1365:cmsis/device/stm32f4xx_tim.c ****   TIMx->CCMR1 = tmpccmr1;
 1901              		.loc 1 1365 0
 1902 000c 0183     		strh	r1, [r0, #24]	@ movhi	@ tmpccmr1, TIMx_2(D)->CCMR1
 1903 000e 7047     		bx	lr	@
 1904              		.cfi_endproc
 1905              	.LFE143:
 1906              		.size	TIM_OC1FastConfig, .-TIM_OC1FastConfig
 1907              		.section	.text.TIM_OC2FastConfig,"ax",%progbits
 1908              		.align	2
 1909              		.global	TIM_OC2FastConfig
 1910              		.thumb
 1911              		.thumb_func
 1912              		.type	TIM_OC2FastConfig, %function
 1913              	TIM_OC2FastConfig:
 1914              	.LFB144:
1366:cmsis/device/stm32f4xx_tim.c **** }
1367:cmsis/device/stm32f4xx_tim.c **** 
1368:cmsis/device/stm32f4xx_tim.c **** /**
1369:cmsis/device/stm32f4xx_tim.c ****   * @brief  Configures the TIMx Output Compare 2 Fast feature.
1370:cmsis/device/stm32f4xx_tim.c ****   * @param  TIMx: where x can be  1, 2, 3, 4, 5, 8, 9 or 12 to select the TIM 
1371:cmsis/device/stm32f4xx_tim.c ****   *         peripheral.
1372:cmsis/device/stm32f4xx_tim.c ****   * @param  TIM_OCFast: new state of the Output Compare Fast Enable Bit.
1373:cmsis/device/stm32f4xx_tim.c ****   *          This parameter can be one of the following values:
1374:cmsis/device/stm32f4xx_tim.c ****   *            @arg TIM_OCFast_Enable: TIM output compare fast enable
1375:cmsis/device/stm32f4xx_tim.c ****   *            @arg TIM_OCFast_Disable: TIM output compare fast disable
1376:cmsis/device/stm32f4xx_tim.c ****   * @retval None
1377:cmsis/device/stm32f4xx_tim.c ****   */
1378:cmsis/device/stm32f4xx_tim.c **** void TIM_OC2FastConfig(TIM_TypeDef* TIMx, uint16_t TIM_OCFast)
1379:cmsis/device/stm32f4xx_tim.c **** {
 1915              		.loc 1 1379 0
ARM GAS  C:\Users\CNous\AppData\Local\Temp\ccZi7tDD.s 			page 62


 1916              		.cfi_startproc
 1917              		@ args = 0, pretend = 0, frame = 0
 1918              		@ frame_needed = 0, uses_anonymous_args = 0
 1919              		@ link register save eliminated.
 1920              	.LVL211:
1380:cmsis/device/stm32f4xx_tim.c ****   uint16_t tmpccmr1 = 0;
1381:cmsis/device/stm32f4xx_tim.c **** 
1382:cmsis/device/stm32f4xx_tim.c ****   /* Check the parameters */
1383:cmsis/device/stm32f4xx_tim.c ****   assert_param(IS_TIM_LIST2_PERIPH(TIMx));
1384:cmsis/device/stm32f4xx_tim.c ****   assert_param(IS_TIM_OCFAST_STATE(TIM_OCFast));
1385:cmsis/device/stm32f4xx_tim.c **** 
1386:cmsis/device/stm32f4xx_tim.c ****   /* Get the TIMx CCMR1 register value */
1387:cmsis/device/stm32f4xx_tim.c ****   tmpccmr1 = TIMx->CCMR1;
 1921              		.loc 1 1387 0
 1922 0000 038B     		ldrh	r3, [r0, #24]	@, TIMx_2(D)->CCMR1
 1923              	.LVL212:
1388:cmsis/device/stm32f4xx_tim.c **** 
1389:cmsis/device/stm32f4xx_tim.c ****   /* Reset the OC2FE Bit */
1390:cmsis/device/stm32f4xx_tim.c ****   tmpccmr1 &= (uint16_t)(~TIM_CCMR1_OC2FE);
 1924              		.loc 1 1390 0
 1925 0002 23F48062 		bic	r2, r3, #1024	@ tmpccmr1, TIMx_2(D)->CCMR1,
 1926 0006 1304     		lsls	r3, r2, #16	@ tmpccmr1, tmpccmr1,
 1927              	.LVL213:
 1928 0008 1A0C     		lsrs	r2, r3, #16	@ tmpccmr1, tmpccmr1,
 1929              	.LVL214:
1391:cmsis/device/stm32f4xx_tim.c **** 
1392:cmsis/device/stm32f4xx_tim.c ****   /* Enable or Disable the Output Compare Fast Bit */
1393:cmsis/device/stm32f4xx_tim.c ****   tmpccmr1 |= (uint16_t)(TIM_OCFast << 8);
 1930              		.loc 1 1393 0
 1931 000a 42EA0121 		orr	r1, r2, r1, lsl #8	@, tmp145, tmpccmr1, TIM_OCFast,
 1932              	.LVL215:
 1933 000e 8BB2     		uxth	r3, r1	@ tmpccmr1, tmp145
 1934              	.LVL216:
1394:cmsis/device/stm32f4xx_tim.c **** 
1395:cmsis/device/stm32f4xx_tim.c ****   /* Write to TIMx CCMR1 */
1396:cmsis/device/stm32f4xx_tim.c ****   TIMx->CCMR1 = tmpccmr1;
 1935              		.loc 1 1396 0
 1936 0010 0383     		strh	r3, [r0, #24]	@ movhi	@ tmpccmr1, TIMx_2(D)->CCMR1
 1937 0012 7047     		bx	lr	@
 1938              		.cfi_endproc
 1939              	.LFE144:
 1940              		.size	TIM_OC2FastConfig, .-TIM_OC2FastConfig
 1941              		.section	.text.TIM_OC3FastConfig,"ax",%progbits
 1942              		.align	2
 1943              		.global	TIM_OC3FastConfig
 1944              		.thumb
 1945              		.thumb_func
 1946              		.type	TIM_OC3FastConfig, %function
 1947              	TIM_OC3FastConfig:
 1948              	.LFB145:
1397:cmsis/device/stm32f4xx_tim.c **** }
1398:cmsis/device/stm32f4xx_tim.c **** 
1399:cmsis/device/stm32f4xx_tim.c **** /**
1400:cmsis/device/stm32f4xx_tim.c ****   * @brief  Configures the TIMx Output Compare 3 Fast feature.
1401:cmsis/device/stm32f4xx_tim.c ****   * @param  TIMx: where x can be  1, 2, 3, 4, 5 or 8 to select the TIM peripheral.
1402:cmsis/device/stm32f4xx_tim.c ****   * @param  TIM_OCFast: new state of the Output Compare Fast Enable Bit.
1403:cmsis/device/stm32f4xx_tim.c ****   *          This parameter can be one of the following values:
ARM GAS  C:\Users\CNous\AppData\Local\Temp\ccZi7tDD.s 			page 63


1404:cmsis/device/stm32f4xx_tim.c ****   *            @arg TIM_OCFast_Enable: TIM output compare fast enable
1405:cmsis/device/stm32f4xx_tim.c ****   *            @arg TIM_OCFast_Disable: TIM output compare fast disable
1406:cmsis/device/stm32f4xx_tim.c ****   * @retval None
1407:cmsis/device/stm32f4xx_tim.c ****   */
1408:cmsis/device/stm32f4xx_tim.c **** void TIM_OC3FastConfig(TIM_TypeDef* TIMx, uint16_t TIM_OCFast)
1409:cmsis/device/stm32f4xx_tim.c **** {
 1949              		.loc 1 1409 0
 1950              		.cfi_startproc
 1951              		@ args = 0, pretend = 0, frame = 0
 1952              		@ frame_needed = 0, uses_anonymous_args = 0
 1953              		@ link register save eliminated.
 1954              	.LVL217:
1410:cmsis/device/stm32f4xx_tim.c ****   uint16_t tmpccmr2 = 0;
1411:cmsis/device/stm32f4xx_tim.c ****   
1412:cmsis/device/stm32f4xx_tim.c ****   /* Check the parameters */
1413:cmsis/device/stm32f4xx_tim.c ****   assert_param(IS_TIM_LIST3_PERIPH(TIMx));
1414:cmsis/device/stm32f4xx_tim.c ****   assert_param(IS_TIM_OCFAST_STATE(TIM_OCFast));
1415:cmsis/device/stm32f4xx_tim.c **** 
1416:cmsis/device/stm32f4xx_tim.c ****   /* Get the TIMx CCMR2 register value */
1417:cmsis/device/stm32f4xx_tim.c ****   tmpccmr2 = TIMx->CCMR2;
 1955              		.loc 1 1417 0
 1956 0000 838B     		ldrh	r3, [r0, #28]	@, TIMx_2(D)->CCMR2
 1957              	.LVL218:
1418:cmsis/device/stm32f4xx_tim.c **** 
1419:cmsis/device/stm32f4xx_tim.c ****   /* Reset the OC3FE Bit */
1420:cmsis/device/stm32f4xx_tim.c ****   tmpccmr2 &= (uint16_t)~TIM_CCMR2_OC3FE;
 1958              		.loc 1 1420 0
 1959 0002 23F00402 		bic	r2, r3, #4	@ tmpccmr2, TIMx_2(D)->CCMR2,
 1960 0006 1304     		lsls	r3, r2, #16	@ tmpccmr2, tmpccmr2,
 1961              	.LVL219:
 1962 0008 1A0C     		lsrs	r2, r3, #16	@ tmpccmr2, tmpccmr2,
 1963              	.LVL220:
1421:cmsis/device/stm32f4xx_tim.c **** 
1422:cmsis/device/stm32f4xx_tim.c ****   /* Enable or Disable the Output Compare Fast Bit */
1423:cmsis/device/stm32f4xx_tim.c ****   tmpccmr2 |= TIM_OCFast;
 1964              		.loc 1 1423 0
 1965 000a 1143     		orrs	r1, r1, r2	@, tmpccmr2, TIM_OCFast, tmpccmr2
 1966              	.LVL221:
1424:cmsis/device/stm32f4xx_tim.c **** 
1425:cmsis/device/stm32f4xx_tim.c ****   /* Write to TIMx CCMR2 */
1426:cmsis/device/stm32f4xx_tim.c ****   TIMx->CCMR2 = tmpccmr2;
 1967              		.loc 1 1426 0
 1968 000c 8183     		strh	r1, [r0, #28]	@ movhi	@ tmpccmr2, TIMx_2(D)->CCMR2
 1969 000e 7047     		bx	lr	@
 1970              		.cfi_endproc
 1971              	.LFE145:
 1972              		.size	TIM_OC3FastConfig, .-TIM_OC3FastConfig
 1973              		.section	.text.TIM_OC4FastConfig,"ax",%progbits
 1974              		.align	2
 1975              		.global	TIM_OC4FastConfig
 1976              		.thumb
 1977              		.thumb_func
 1978              		.type	TIM_OC4FastConfig, %function
 1979              	TIM_OC4FastConfig:
 1980              	.LFB146:
1427:cmsis/device/stm32f4xx_tim.c **** }
1428:cmsis/device/stm32f4xx_tim.c **** 
ARM GAS  C:\Users\CNous\AppData\Local\Temp\ccZi7tDD.s 			page 64


1429:cmsis/device/stm32f4xx_tim.c **** /**
1430:cmsis/device/stm32f4xx_tim.c ****   * @brief  Configures the TIMx Output Compare 4 Fast feature.
1431:cmsis/device/stm32f4xx_tim.c ****   * @param  TIMx: where x can be  1, 2, 3, 4, 5 or 8 to select the TIM peripheral.
1432:cmsis/device/stm32f4xx_tim.c ****   * @param  TIM_OCFast: new state of the Output Compare Fast Enable Bit.
1433:cmsis/device/stm32f4xx_tim.c ****   *          This parameter can be one of the following values:
1434:cmsis/device/stm32f4xx_tim.c ****   *            @arg TIM_OCFast_Enable: TIM output compare fast enable
1435:cmsis/device/stm32f4xx_tim.c ****   *            @arg TIM_OCFast_Disable: TIM output compare fast disable
1436:cmsis/device/stm32f4xx_tim.c ****   * @retval None
1437:cmsis/device/stm32f4xx_tim.c ****   */
1438:cmsis/device/stm32f4xx_tim.c **** void TIM_OC4FastConfig(TIM_TypeDef* TIMx, uint16_t TIM_OCFast)
1439:cmsis/device/stm32f4xx_tim.c **** {
 1981              		.loc 1 1439 0
 1982              		.cfi_startproc
 1983              		@ args = 0, pretend = 0, frame = 0
 1984              		@ frame_needed = 0, uses_anonymous_args = 0
 1985              		@ link register save eliminated.
 1986              	.LVL222:
1440:cmsis/device/stm32f4xx_tim.c ****   uint16_t tmpccmr2 = 0;
1441:cmsis/device/stm32f4xx_tim.c **** 
1442:cmsis/device/stm32f4xx_tim.c ****   /* Check the parameters */
1443:cmsis/device/stm32f4xx_tim.c ****   assert_param(IS_TIM_LIST3_PERIPH(TIMx));
1444:cmsis/device/stm32f4xx_tim.c ****   assert_param(IS_TIM_OCFAST_STATE(TIM_OCFast));
1445:cmsis/device/stm32f4xx_tim.c **** 
1446:cmsis/device/stm32f4xx_tim.c ****   /* Get the TIMx CCMR2 register value */
1447:cmsis/device/stm32f4xx_tim.c ****   tmpccmr2 = TIMx->CCMR2;
 1987              		.loc 1 1447 0
 1988 0000 838B     		ldrh	r3, [r0, #28]	@, TIMx_2(D)->CCMR2
 1989              	.LVL223:
1448:cmsis/device/stm32f4xx_tim.c **** 
1449:cmsis/device/stm32f4xx_tim.c ****   /* Reset the OC4FE Bit */
1450:cmsis/device/stm32f4xx_tim.c ****   tmpccmr2 &= (uint16_t)(~TIM_CCMR2_OC4FE);
 1990              		.loc 1 1450 0
 1991 0002 23F48062 		bic	r2, r3, #1024	@ tmpccmr2, TIMx_2(D)->CCMR2,
 1992 0006 1304     		lsls	r3, r2, #16	@ tmpccmr2, tmpccmr2,
 1993              	.LVL224:
 1994 0008 1A0C     		lsrs	r2, r3, #16	@ tmpccmr2, tmpccmr2,
 1995              	.LVL225:
1451:cmsis/device/stm32f4xx_tim.c **** 
1452:cmsis/device/stm32f4xx_tim.c ****   /* Enable or Disable the Output Compare Fast Bit */
1453:cmsis/device/stm32f4xx_tim.c ****   tmpccmr2 |= (uint16_t)(TIM_OCFast << 8);
 1996              		.loc 1 1453 0
 1997 000a 42EA0121 		orr	r1, r2, r1, lsl #8	@, tmp145, tmpccmr2, TIM_OCFast,
 1998              	.LVL226:
 1999 000e 8BB2     		uxth	r3, r1	@ tmpccmr2, tmp145
 2000              	.LVL227:
1454:cmsis/device/stm32f4xx_tim.c **** 
1455:cmsis/device/stm32f4xx_tim.c ****   /* Write to TIMx CCMR2 */
1456:cmsis/device/stm32f4xx_tim.c ****   TIMx->CCMR2 = tmpccmr2;
 2001              		.loc 1 1456 0
 2002 0010 8383     		strh	r3, [r0, #28]	@ movhi	@ tmpccmr2, TIMx_2(D)->CCMR2
 2003 0012 7047     		bx	lr	@
 2004              		.cfi_endproc
 2005              	.LFE146:
 2006              		.size	TIM_OC4FastConfig, .-TIM_OC4FastConfig
 2007              		.section	.text.TIM_ClearOC1Ref,"ax",%progbits
 2008              		.align	2
 2009              		.global	TIM_ClearOC1Ref
ARM GAS  C:\Users\CNous\AppData\Local\Temp\ccZi7tDD.s 			page 65


 2010              		.thumb
 2011              		.thumb_func
 2012              		.type	TIM_ClearOC1Ref, %function
 2013              	TIM_ClearOC1Ref:
 2014              	.LFB147:
1457:cmsis/device/stm32f4xx_tim.c **** }
1458:cmsis/device/stm32f4xx_tim.c **** 
1459:cmsis/device/stm32f4xx_tim.c **** /**
1460:cmsis/device/stm32f4xx_tim.c ****   * @brief  Clears or safeguards the OCREF1 signal on an external event
1461:cmsis/device/stm32f4xx_tim.c ****   * @param  TIMx: where x can be 1 to 14 except 6 and 7, to select the TIM peripheral.
1462:cmsis/device/stm32f4xx_tim.c ****   * @param  TIM_OCClear: new state of the Output Compare Clear Enable Bit.
1463:cmsis/device/stm32f4xx_tim.c ****   *          This parameter can be one of the following values:
1464:cmsis/device/stm32f4xx_tim.c ****   *            @arg TIM_OCClear_Enable: TIM Output clear enable
1465:cmsis/device/stm32f4xx_tim.c ****   *            @arg TIM_OCClear_Disable: TIM Output clear disable
1466:cmsis/device/stm32f4xx_tim.c ****   * @retval None
1467:cmsis/device/stm32f4xx_tim.c ****   */
1468:cmsis/device/stm32f4xx_tim.c **** void TIM_ClearOC1Ref(TIM_TypeDef* TIMx, uint16_t TIM_OCClear)
1469:cmsis/device/stm32f4xx_tim.c **** {
 2015              		.loc 1 1469 0
 2016              		.cfi_startproc
 2017              		@ args = 0, pretend = 0, frame = 0
 2018              		@ frame_needed = 0, uses_anonymous_args = 0
 2019              		@ link register save eliminated.
 2020              	.LVL228:
1470:cmsis/device/stm32f4xx_tim.c ****   uint16_t tmpccmr1 = 0;
1471:cmsis/device/stm32f4xx_tim.c **** 
1472:cmsis/device/stm32f4xx_tim.c ****   /* Check the parameters */
1473:cmsis/device/stm32f4xx_tim.c ****   assert_param(IS_TIM_LIST1_PERIPH(TIMx));
1474:cmsis/device/stm32f4xx_tim.c ****   assert_param(IS_TIM_OCCLEAR_STATE(TIM_OCClear));
1475:cmsis/device/stm32f4xx_tim.c **** 
1476:cmsis/device/stm32f4xx_tim.c ****   tmpccmr1 = TIMx->CCMR1;
 2021              		.loc 1 1476 0
 2022 0000 038B     		ldrh	r3, [r0, #24]	@, TIMx_2(D)->CCMR1
 2023              	.LVL229:
1477:cmsis/device/stm32f4xx_tim.c **** 
1478:cmsis/device/stm32f4xx_tim.c ****   /* Reset the OC1CE Bit */
1479:cmsis/device/stm32f4xx_tim.c ****   tmpccmr1 &= (uint16_t)~TIM_CCMR1_OC1CE;
 2024              		.loc 1 1479 0
 2025 0002 23F08002 		bic	r2, r3, #128	@ tmpccmr1, TIMx_2(D)->CCMR1,
 2026 0006 1304     		lsls	r3, r2, #16	@ tmpccmr1, tmpccmr1,
 2027              	.LVL230:
 2028 0008 1A0C     		lsrs	r2, r3, #16	@ tmpccmr1, tmpccmr1,
 2029              	.LVL231:
1480:cmsis/device/stm32f4xx_tim.c **** 
1481:cmsis/device/stm32f4xx_tim.c ****   /* Enable or Disable the Output Compare Clear Bit */
1482:cmsis/device/stm32f4xx_tim.c ****   tmpccmr1 |= TIM_OCClear;
 2030              		.loc 1 1482 0
 2031 000a 1143     		orrs	r1, r1, r2	@, tmpccmr1, TIM_OCClear, tmpccmr1
 2032              	.LVL232:
1483:cmsis/device/stm32f4xx_tim.c **** 
1484:cmsis/device/stm32f4xx_tim.c ****   /* Write to TIMx CCMR1 register */
1485:cmsis/device/stm32f4xx_tim.c ****   TIMx->CCMR1 = tmpccmr1;
 2033              		.loc 1 1485 0
 2034 000c 0183     		strh	r1, [r0, #24]	@ movhi	@ tmpccmr1, TIMx_2(D)->CCMR1
 2035 000e 7047     		bx	lr	@
 2036              		.cfi_endproc
 2037              	.LFE147:
ARM GAS  C:\Users\CNous\AppData\Local\Temp\ccZi7tDD.s 			page 66


 2038              		.size	TIM_ClearOC1Ref, .-TIM_ClearOC1Ref
 2039              		.section	.text.TIM_ClearOC2Ref,"ax",%progbits
 2040              		.align	2
 2041              		.global	TIM_ClearOC2Ref
 2042              		.thumb
 2043              		.thumb_func
 2044              		.type	TIM_ClearOC2Ref, %function
 2045              	TIM_ClearOC2Ref:
 2046              	.LFB148:
1486:cmsis/device/stm32f4xx_tim.c **** }
1487:cmsis/device/stm32f4xx_tim.c **** 
1488:cmsis/device/stm32f4xx_tim.c **** /**
1489:cmsis/device/stm32f4xx_tim.c ****   * @brief  Clears or safeguards the OCREF2 signal on an external event
1490:cmsis/device/stm32f4xx_tim.c ****   * @param  TIMx: where x can be  1, 2, 3, 4, 5, 8, 9 or 12 to select the TIM 
1491:cmsis/device/stm32f4xx_tim.c ****   *         peripheral.
1492:cmsis/device/stm32f4xx_tim.c ****   * @param  TIM_OCClear: new state of the Output Compare Clear Enable Bit.
1493:cmsis/device/stm32f4xx_tim.c ****   *          This parameter can be one of the following values:
1494:cmsis/device/stm32f4xx_tim.c ****   *            @arg TIM_OCClear_Enable: TIM Output clear enable
1495:cmsis/device/stm32f4xx_tim.c ****   *            @arg TIM_OCClear_Disable: TIM Output clear disable
1496:cmsis/device/stm32f4xx_tim.c ****   * @retval None
1497:cmsis/device/stm32f4xx_tim.c ****   */
1498:cmsis/device/stm32f4xx_tim.c **** void TIM_ClearOC2Ref(TIM_TypeDef* TIMx, uint16_t TIM_OCClear)
1499:cmsis/device/stm32f4xx_tim.c **** {
 2047              		.loc 1 1499 0
 2048              		.cfi_startproc
 2049              		@ args = 0, pretend = 0, frame = 0
 2050              		@ frame_needed = 0, uses_anonymous_args = 0
 2051              		@ link register save eliminated.
 2052              	.LVL233:
1500:cmsis/device/stm32f4xx_tim.c ****   uint16_t tmpccmr1 = 0;
1501:cmsis/device/stm32f4xx_tim.c **** 
1502:cmsis/device/stm32f4xx_tim.c ****   /* Check the parameters */
1503:cmsis/device/stm32f4xx_tim.c ****   assert_param(IS_TIM_LIST2_PERIPH(TIMx));
1504:cmsis/device/stm32f4xx_tim.c ****   assert_param(IS_TIM_OCCLEAR_STATE(TIM_OCClear));
1505:cmsis/device/stm32f4xx_tim.c **** 
1506:cmsis/device/stm32f4xx_tim.c ****   tmpccmr1 = TIMx->CCMR1;
 2053              		.loc 1 1506 0
 2054 0000 038B     		ldrh	r3, [r0, #24]	@, TIMx_2(D)->CCMR1
 2055              	.LVL234:
1507:cmsis/device/stm32f4xx_tim.c **** 
1508:cmsis/device/stm32f4xx_tim.c ****   /* Reset the OC2CE Bit */
1509:cmsis/device/stm32f4xx_tim.c ****   tmpccmr1 &= (uint16_t)~TIM_CCMR1_OC2CE;
 2056              		.loc 1 1509 0
 2057 0002 5A04     		lsls	r2, r3, #17	@ tmpccmr1, TIMx_2(D)->CCMR1,
 2058 0004 530C     		lsrs	r3, r2, #17	@ tmpccmr1, tmpccmr1,
 2059              	.LVL235:
1510:cmsis/device/stm32f4xx_tim.c **** 
1511:cmsis/device/stm32f4xx_tim.c ****   /* Enable or Disable the Output Compare Clear Bit */
1512:cmsis/device/stm32f4xx_tim.c ****   tmpccmr1 |= (uint16_t)(TIM_OCClear << 8);
 2060              		.loc 1 1512 0
 2061 0006 43EA0121 		orr	r1, r3, r1, lsl #8	@, tmp146, tmpccmr1, TIM_OCClear,
 2062              	.LVL236:
 2063 000a 8AB2     		uxth	r2, r1	@ tmpccmr1, tmp146
 2064              	.LVL237:
1513:cmsis/device/stm32f4xx_tim.c **** 
1514:cmsis/device/stm32f4xx_tim.c ****   /* Write to TIMx CCMR1 register */
1515:cmsis/device/stm32f4xx_tim.c ****   TIMx->CCMR1 = tmpccmr1;
ARM GAS  C:\Users\CNous\AppData\Local\Temp\ccZi7tDD.s 			page 67


 2065              		.loc 1 1515 0
 2066 000c 0283     		strh	r2, [r0, #24]	@ movhi	@ tmpccmr1, TIMx_2(D)->CCMR1
 2067 000e 7047     		bx	lr	@
 2068              		.cfi_endproc
 2069              	.LFE148:
 2070              		.size	TIM_ClearOC2Ref, .-TIM_ClearOC2Ref
 2071              		.section	.text.TIM_ClearOC3Ref,"ax",%progbits
 2072              		.align	2
 2073              		.global	TIM_ClearOC3Ref
 2074              		.thumb
 2075              		.thumb_func
 2076              		.type	TIM_ClearOC3Ref, %function
 2077              	TIM_ClearOC3Ref:
 2078              	.LFB149:
1516:cmsis/device/stm32f4xx_tim.c **** }
1517:cmsis/device/stm32f4xx_tim.c **** 
1518:cmsis/device/stm32f4xx_tim.c **** /**
1519:cmsis/device/stm32f4xx_tim.c ****   * @brief  Clears or safeguards the OCREF3 signal on an external event
1520:cmsis/device/stm32f4xx_tim.c ****   * @param  TIMx: where x can be  1, 2, 3, 4, 5 or 8 to select the TIM peripheral.
1521:cmsis/device/stm32f4xx_tim.c ****   * @param  TIM_OCClear: new state of the Output Compare Clear Enable Bit.
1522:cmsis/device/stm32f4xx_tim.c ****   *          This parameter can be one of the following values:
1523:cmsis/device/stm32f4xx_tim.c ****   *            @arg TIM_OCClear_Enable: TIM Output clear enable
1524:cmsis/device/stm32f4xx_tim.c ****   *            @arg TIM_OCClear_Disable: TIM Output clear disable
1525:cmsis/device/stm32f4xx_tim.c ****   * @retval None
1526:cmsis/device/stm32f4xx_tim.c ****   */
1527:cmsis/device/stm32f4xx_tim.c **** void TIM_ClearOC3Ref(TIM_TypeDef* TIMx, uint16_t TIM_OCClear)
1528:cmsis/device/stm32f4xx_tim.c **** {
 2079              		.loc 1 1528 0
 2080              		.cfi_startproc
 2081              		@ args = 0, pretend = 0, frame = 0
 2082              		@ frame_needed = 0, uses_anonymous_args = 0
 2083              		@ link register save eliminated.
 2084              	.LVL238:
1529:cmsis/device/stm32f4xx_tim.c ****   uint16_t tmpccmr2 = 0;
1530:cmsis/device/stm32f4xx_tim.c **** 
1531:cmsis/device/stm32f4xx_tim.c ****   /* Check the parameters */
1532:cmsis/device/stm32f4xx_tim.c ****   assert_param(IS_TIM_LIST3_PERIPH(TIMx));
1533:cmsis/device/stm32f4xx_tim.c ****   assert_param(IS_TIM_OCCLEAR_STATE(TIM_OCClear));
1534:cmsis/device/stm32f4xx_tim.c **** 
1535:cmsis/device/stm32f4xx_tim.c ****   tmpccmr2 = TIMx->CCMR2;
 2085              		.loc 1 1535 0
 2086 0000 838B     		ldrh	r3, [r0, #28]	@, TIMx_2(D)->CCMR2
 2087              	.LVL239:
1536:cmsis/device/stm32f4xx_tim.c **** 
1537:cmsis/device/stm32f4xx_tim.c ****   /* Reset the OC3CE Bit */
1538:cmsis/device/stm32f4xx_tim.c ****   tmpccmr2 &= (uint16_t)~TIM_CCMR2_OC3CE;
 2088              		.loc 1 1538 0
 2089 0002 23F08002 		bic	r2, r3, #128	@ tmpccmr2, TIMx_2(D)->CCMR2,
 2090 0006 1304     		lsls	r3, r2, #16	@ tmpccmr2, tmpccmr2,
 2091              	.LVL240:
 2092 0008 1A0C     		lsrs	r2, r3, #16	@ tmpccmr2, tmpccmr2,
 2093              	.LVL241:
1539:cmsis/device/stm32f4xx_tim.c **** 
1540:cmsis/device/stm32f4xx_tim.c ****   /* Enable or Disable the Output Compare Clear Bit */
1541:cmsis/device/stm32f4xx_tim.c ****   tmpccmr2 |= TIM_OCClear;
 2094              		.loc 1 1541 0
 2095 000a 1143     		orrs	r1, r1, r2	@, tmpccmr2, TIM_OCClear, tmpccmr2
ARM GAS  C:\Users\CNous\AppData\Local\Temp\ccZi7tDD.s 			page 68


 2096              	.LVL242:
1542:cmsis/device/stm32f4xx_tim.c **** 
1543:cmsis/device/stm32f4xx_tim.c ****   /* Write to TIMx CCMR2 register */
1544:cmsis/device/stm32f4xx_tim.c ****   TIMx->CCMR2 = tmpccmr2;
 2097              		.loc 1 1544 0
 2098 000c 8183     		strh	r1, [r0, #28]	@ movhi	@ tmpccmr2, TIMx_2(D)->CCMR2
 2099 000e 7047     		bx	lr	@
 2100              		.cfi_endproc
 2101              	.LFE149:
 2102              		.size	TIM_ClearOC3Ref, .-TIM_ClearOC3Ref
 2103              		.section	.text.TIM_ClearOC4Ref,"ax",%progbits
 2104              		.align	2
 2105              		.global	TIM_ClearOC4Ref
 2106              		.thumb
 2107              		.thumb_func
 2108              		.type	TIM_ClearOC4Ref, %function
 2109              	TIM_ClearOC4Ref:
 2110              	.LFB150:
1545:cmsis/device/stm32f4xx_tim.c **** }
1546:cmsis/device/stm32f4xx_tim.c **** 
1547:cmsis/device/stm32f4xx_tim.c **** /**
1548:cmsis/device/stm32f4xx_tim.c ****   * @brief  Clears or safeguards the OCREF4 signal on an external event
1549:cmsis/device/stm32f4xx_tim.c ****   * @param  TIMx: where x can be  1, 2, 3, 4, 5 or 8 to select the TIM peripheral.
1550:cmsis/device/stm32f4xx_tim.c ****   * @param  TIM_OCClear: new state of the Output Compare Clear Enable Bit.
1551:cmsis/device/stm32f4xx_tim.c ****   *          This parameter can be one of the following values:
1552:cmsis/device/stm32f4xx_tim.c ****   *            @arg TIM_OCClear_Enable: TIM Output clear enable
1553:cmsis/device/stm32f4xx_tim.c ****   *            @arg TIM_OCClear_Disable: TIM Output clear disable
1554:cmsis/device/stm32f4xx_tim.c ****   * @retval None
1555:cmsis/device/stm32f4xx_tim.c ****   */
1556:cmsis/device/stm32f4xx_tim.c **** void TIM_ClearOC4Ref(TIM_TypeDef* TIMx, uint16_t TIM_OCClear)
1557:cmsis/device/stm32f4xx_tim.c **** {
 2111              		.loc 1 1557 0
 2112              		.cfi_startproc
 2113              		@ args = 0, pretend = 0, frame = 0
 2114              		@ frame_needed = 0, uses_anonymous_args = 0
 2115              		@ link register save eliminated.
 2116              	.LVL243:
1558:cmsis/device/stm32f4xx_tim.c ****   uint16_t tmpccmr2 = 0;
1559:cmsis/device/stm32f4xx_tim.c **** 
1560:cmsis/device/stm32f4xx_tim.c ****   /* Check the parameters */
1561:cmsis/device/stm32f4xx_tim.c ****   assert_param(IS_TIM_LIST3_PERIPH(TIMx));
1562:cmsis/device/stm32f4xx_tim.c ****   assert_param(IS_TIM_OCCLEAR_STATE(TIM_OCClear));
1563:cmsis/device/stm32f4xx_tim.c **** 
1564:cmsis/device/stm32f4xx_tim.c ****   tmpccmr2 = TIMx->CCMR2;
 2117              		.loc 1 1564 0
 2118 0000 838B     		ldrh	r3, [r0, #28]	@, TIMx_2(D)->CCMR2
 2119              	.LVL244:
1565:cmsis/device/stm32f4xx_tim.c **** 
1566:cmsis/device/stm32f4xx_tim.c ****   /* Reset the OC4CE Bit */
1567:cmsis/device/stm32f4xx_tim.c ****   tmpccmr2 &= (uint16_t)~TIM_CCMR2_OC4CE;
 2120              		.loc 1 1567 0
 2121 0002 5A04     		lsls	r2, r3, #17	@ tmpccmr2, TIMx_2(D)->CCMR2,
 2122 0004 530C     		lsrs	r3, r2, #17	@ tmpccmr2, tmpccmr2,
 2123              	.LVL245:
1568:cmsis/device/stm32f4xx_tim.c **** 
1569:cmsis/device/stm32f4xx_tim.c ****   /* Enable or Disable the Output Compare Clear Bit */
1570:cmsis/device/stm32f4xx_tim.c ****   tmpccmr2 |= (uint16_t)(TIM_OCClear << 8);
ARM GAS  C:\Users\CNous\AppData\Local\Temp\ccZi7tDD.s 			page 69


 2124              		.loc 1 1570 0
 2125 0006 43EA0121 		orr	r1, r3, r1, lsl #8	@, tmp146, tmpccmr2, TIM_OCClear,
 2126              	.LVL246:
 2127 000a 8AB2     		uxth	r2, r1	@ tmpccmr2, tmp146
 2128              	.LVL247:
1571:cmsis/device/stm32f4xx_tim.c **** 
1572:cmsis/device/stm32f4xx_tim.c ****   /* Write to TIMx CCMR2 register */
1573:cmsis/device/stm32f4xx_tim.c ****   TIMx->CCMR2 = tmpccmr2;
 2129              		.loc 1 1573 0
 2130 000c 8283     		strh	r2, [r0, #28]	@ movhi	@ tmpccmr2, TIMx_2(D)->CCMR2
 2131 000e 7047     		bx	lr	@
 2132              		.cfi_endproc
 2133              	.LFE150:
 2134              		.size	TIM_ClearOC4Ref, .-TIM_ClearOC4Ref
 2135              		.section	.text.TIM_OC1PolarityConfig,"ax",%progbits
 2136              		.align	2
 2137              		.global	TIM_OC1PolarityConfig
 2138              		.thumb
 2139              		.thumb_func
 2140              		.type	TIM_OC1PolarityConfig, %function
 2141              	TIM_OC1PolarityConfig:
 2142              	.LFB151:
1574:cmsis/device/stm32f4xx_tim.c **** }
1575:cmsis/device/stm32f4xx_tim.c **** 
1576:cmsis/device/stm32f4xx_tim.c **** /**
1577:cmsis/device/stm32f4xx_tim.c ****   * @brief  Configures the TIMx channel 1 polarity.
1578:cmsis/device/stm32f4xx_tim.c ****   * @param  TIMx: where x can be 1 to 14 except 6 and 7, to select the TIM peripheral.
1579:cmsis/device/stm32f4xx_tim.c ****   * @param  TIM_OCPolarity: specifies the OC1 Polarity
1580:cmsis/device/stm32f4xx_tim.c ****   *          This parameter can be one of the following values:
1581:cmsis/device/stm32f4xx_tim.c ****   *            @arg TIM_OCPolarity_High: Output Compare active high
1582:cmsis/device/stm32f4xx_tim.c ****   *            @arg TIM_OCPolarity_Low: Output Compare active low
1583:cmsis/device/stm32f4xx_tim.c ****   * @retval None
1584:cmsis/device/stm32f4xx_tim.c ****   */
1585:cmsis/device/stm32f4xx_tim.c **** void TIM_OC1PolarityConfig(TIM_TypeDef* TIMx, uint16_t TIM_OCPolarity)
1586:cmsis/device/stm32f4xx_tim.c **** {
 2143              		.loc 1 1586 0
 2144              		.cfi_startproc
 2145              		@ args = 0, pretend = 0, frame = 0
 2146              		@ frame_needed = 0, uses_anonymous_args = 0
 2147              		@ link register save eliminated.
 2148              	.LVL248:
1587:cmsis/device/stm32f4xx_tim.c ****   uint16_t tmpccer = 0;
1588:cmsis/device/stm32f4xx_tim.c **** 
1589:cmsis/device/stm32f4xx_tim.c ****   /* Check the parameters */
1590:cmsis/device/stm32f4xx_tim.c ****   assert_param(IS_TIM_LIST1_PERIPH(TIMx));
1591:cmsis/device/stm32f4xx_tim.c ****   assert_param(IS_TIM_OC_POLARITY(TIM_OCPolarity));
1592:cmsis/device/stm32f4xx_tim.c **** 
1593:cmsis/device/stm32f4xx_tim.c ****   tmpccer = TIMx->CCER;
 2149              		.loc 1 1593 0
 2150 0000 038C     		ldrh	r3, [r0, #32]	@, TIMx_2(D)->CCER
 2151              	.LVL249:
1594:cmsis/device/stm32f4xx_tim.c **** 
1595:cmsis/device/stm32f4xx_tim.c ****   /* Set or Reset the CC1P Bit */
1596:cmsis/device/stm32f4xx_tim.c ****   tmpccer &= (uint16_t)(~TIM_CCER_CC1P);
 2152              		.loc 1 1596 0
 2153 0002 23F00202 		bic	r2, r3, #2	@ tmpccer, TIMx_2(D)->CCER,
 2154 0006 1304     		lsls	r3, r2, #16	@ tmpccer, tmpccer,
ARM GAS  C:\Users\CNous\AppData\Local\Temp\ccZi7tDD.s 			page 70


 2155              	.LVL250:
 2156 0008 1A0C     		lsrs	r2, r3, #16	@ tmpccer, tmpccer,
 2157              	.LVL251:
1597:cmsis/device/stm32f4xx_tim.c ****   tmpccer |= TIM_OCPolarity;
 2158              		.loc 1 1597 0
 2159 000a 1143     		orrs	r1, r1, r2	@, tmpccer, TIM_OCPolarity, tmpccer
 2160              	.LVL252:
1598:cmsis/device/stm32f4xx_tim.c **** 
1599:cmsis/device/stm32f4xx_tim.c ****   /* Write to TIMx CCER register */
1600:cmsis/device/stm32f4xx_tim.c ****   TIMx->CCER = tmpccer;
 2161              		.loc 1 1600 0
 2162 000c 0184     		strh	r1, [r0, #32]	@ movhi	@ tmpccer, TIMx_2(D)->CCER
 2163 000e 7047     		bx	lr	@
 2164              		.cfi_endproc
 2165              	.LFE151:
 2166              		.size	TIM_OC1PolarityConfig, .-TIM_OC1PolarityConfig
 2167              		.section	.text.TIM_OC1NPolarityConfig,"ax",%progbits
 2168              		.align	2
 2169              		.global	TIM_OC1NPolarityConfig
 2170              		.thumb
 2171              		.thumb_func
 2172              		.type	TIM_OC1NPolarityConfig, %function
 2173              	TIM_OC1NPolarityConfig:
 2174              	.LFB152:
1601:cmsis/device/stm32f4xx_tim.c **** }
1602:cmsis/device/stm32f4xx_tim.c **** 
1603:cmsis/device/stm32f4xx_tim.c **** /**
1604:cmsis/device/stm32f4xx_tim.c ****   * @brief  Configures the TIMx Channel 1N polarity.
1605:cmsis/device/stm32f4xx_tim.c ****   * @param  TIMx: where x can be 1 or 8 to select the TIM peripheral.
1606:cmsis/device/stm32f4xx_tim.c ****   * @param  TIM_OCNPolarity: specifies the OC1N Polarity
1607:cmsis/device/stm32f4xx_tim.c ****   *          This parameter can be one of the following values:
1608:cmsis/device/stm32f4xx_tim.c ****   *            @arg TIM_OCNPolarity_High: Output Compare active high
1609:cmsis/device/stm32f4xx_tim.c ****   *            @arg TIM_OCNPolarity_Low: Output Compare active low
1610:cmsis/device/stm32f4xx_tim.c ****   * @retval None
1611:cmsis/device/stm32f4xx_tim.c ****   */
1612:cmsis/device/stm32f4xx_tim.c **** void TIM_OC1NPolarityConfig(TIM_TypeDef* TIMx, uint16_t TIM_OCNPolarity)
1613:cmsis/device/stm32f4xx_tim.c **** {
 2175              		.loc 1 1613 0
 2176              		.cfi_startproc
 2177              		@ args = 0, pretend = 0, frame = 0
 2178              		@ frame_needed = 0, uses_anonymous_args = 0
 2179              		@ link register save eliminated.
 2180              	.LVL253:
1614:cmsis/device/stm32f4xx_tim.c ****   uint16_t tmpccer = 0;
1615:cmsis/device/stm32f4xx_tim.c ****   /* Check the parameters */
1616:cmsis/device/stm32f4xx_tim.c ****   assert_param(IS_TIM_LIST4_PERIPH(TIMx));
1617:cmsis/device/stm32f4xx_tim.c ****   assert_param(IS_TIM_OCN_POLARITY(TIM_OCNPolarity));
1618:cmsis/device/stm32f4xx_tim.c ****    
1619:cmsis/device/stm32f4xx_tim.c ****   tmpccer = TIMx->CCER;
 2181              		.loc 1 1619 0
 2182 0000 038C     		ldrh	r3, [r0, #32]	@, TIMx_2(D)->CCER
 2183              	.LVL254:
1620:cmsis/device/stm32f4xx_tim.c **** 
1621:cmsis/device/stm32f4xx_tim.c ****   /* Set or Reset the CC1NP Bit */
1622:cmsis/device/stm32f4xx_tim.c ****   tmpccer &= (uint16_t)~TIM_CCER_CC1NP;
 2184              		.loc 1 1622 0
 2185 0002 23F00802 		bic	r2, r3, #8	@ tmpccer, TIMx_2(D)->CCER,
ARM GAS  C:\Users\CNous\AppData\Local\Temp\ccZi7tDD.s 			page 71


 2186 0006 1304     		lsls	r3, r2, #16	@ tmpccer, tmpccer,
 2187              	.LVL255:
 2188 0008 1A0C     		lsrs	r2, r3, #16	@ tmpccer, tmpccer,
 2189              	.LVL256:
1623:cmsis/device/stm32f4xx_tim.c ****   tmpccer |= TIM_OCNPolarity;
 2190              		.loc 1 1623 0
 2191 000a 1143     		orrs	r1, r1, r2	@, tmpccer, TIM_OCNPolarity, tmpccer
 2192              	.LVL257:
1624:cmsis/device/stm32f4xx_tim.c **** 
1625:cmsis/device/stm32f4xx_tim.c ****   /* Write to TIMx CCER register */
1626:cmsis/device/stm32f4xx_tim.c ****   TIMx->CCER = tmpccer;
 2193              		.loc 1 1626 0
 2194 000c 0184     		strh	r1, [r0, #32]	@ movhi	@ tmpccer, TIMx_2(D)->CCER
 2195 000e 7047     		bx	lr	@
 2196              		.cfi_endproc
 2197              	.LFE152:
 2198              		.size	TIM_OC1NPolarityConfig, .-TIM_OC1NPolarityConfig
 2199              		.section	.text.TIM_OC2PolarityConfig,"ax",%progbits
 2200              		.align	2
 2201              		.global	TIM_OC2PolarityConfig
 2202              		.thumb
 2203              		.thumb_func
 2204              		.type	TIM_OC2PolarityConfig, %function
 2205              	TIM_OC2PolarityConfig:
 2206              	.LFB153:
1627:cmsis/device/stm32f4xx_tim.c **** }
1628:cmsis/device/stm32f4xx_tim.c **** 
1629:cmsis/device/stm32f4xx_tim.c **** /**
1630:cmsis/device/stm32f4xx_tim.c ****   * @brief  Configures the TIMx channel 2 polarity.
1631:cmsis/device/stm32f4xx_tim.c ****   * @param  TIMx: where x can be 1, 2, 3, 4, 5, 8, 9 or 12 to select the TIM 
1632:cmsis/device/stm32f4xx_tim.c ****   *         peripheral.
1633:cmsis/device/stm32f4xx_tim.c ****   * @param  TIM_OCPolarity: specifies the OC2 Polarity
1634:cmsis/device/stm32f4xx_tim.c ****   *          This parameter can be one of the following values:
1635:cmsis/device/stm32f4xx_tim.c ****   *            @arg TIM_OCPolarity_High: Output Compare active high
1636:cmsis/device/stm32f4xx_tim.c ****   *            @arg TIM_OCPolarity_Low: Output Compare active low
1637:cmsis/device/stm32f4xx_tim.c ****   * @retval None
1638:cmsis/device/stm32f4xx_tim.c ****   */
1639:cmsis/device/stm32f4xx_tim.c **** void TIM_OC2PolarityConfig(TIM_TypeDef* TIMx, uint16_t TIM_OCPolarity)
1640:cmsis/device/stm32f4xx_tim.c **** {
 2207              		.loc 1 1640 0
 2208              		.cfi_startproc
 2209              		@ args = 0, pretend = 0, frame = 0
 2210              		@ frame_needed = 0, uses_anonymous_args = 0
 2211              		@ link register save eliminated.
 2212              	.LVL258:
1641:cmsis/device/stm32f4xx_tim.c ****   uint16_t tmpccer = 0;
1642:cmsis/device/stm32f4xx_tim.c **** 
1643:cmsis/device/stm32f4xx_tim.c ****   /* Check the parameters */
1644:cmsis/device/stm32f4xx_tim.c ****   assert_param(IS_TIM_LIST2_PERIPH(TIMx));
1645:cmsis/device/stm32f4xx_tim.c ****   assert_param(IS_TIM_OC_POLARITY(TIM_OCPolarity));
1646:cmsis/device/stm32f4xx_tim.c **** 
1647:cmsis/device/stm32f4xx_tim.c ****   tmpccer = TIMx->CCER;
 2213              		.loc 1 1647 0
 2214 0000 038C     		ldrh	r3, [r0, #32]	@, TIMx_2(D)->CCER
 2215              	.LVL259:
1648:cmsis/device/stm32f4xx_tim.c **** 
1649:cmsis/device/stm32f4xx_tim.c ****   /* Set or Reset the CC2P Bit */
ARM GAS  C:\Users\CNous\AppData\Local\Temp\ccZi7tDD.s 			page 72


1650:cmsis/device/stm32f4xx_tim.c ****   tmpccer &= (uint16_t)(~TIM_CCER_CC2P);
 2216              		.loc 1 1650 0
 2217 0002 23F02002 		bic	r2, r3, #32	@ tmpccer, TIMx_2(D)->CCER,
 2218 0006 1304     		lsls	r3, r2, #16	@ tmpccer, tmpccer,
 2219              	.LVL260:
 2220 0008 1A0C     		lsrs	r2, r3, #16	@ tmpccer, tmpccer,
 2221              	.LVL261:
1651:cmsis/device/stm32f4xx_tim.c ****   tmpccer |= (uint16_t)(TIM_OCPolarity << 4);
 2222              		.loc 1 1651 0
 2223 000a 42EA0111 		orr	r1, r2, r1, lsl #4	@, tmp145, tmpccer, TIM_OCPolarity,
 2224              	.LVL262:
 2225 000e 8BB2     		uxth	r3, r1	@ tmpccer, tmp145
 2226              	.LVL263:
1652:cmsis/device/stm32f4xx_tim.c **** 
1653:cmsis/device/stm32f4xx_tim.c ****   /* Write to TIMx CCER register */
1654:cmsis/device/stm32f4xx_tim.c ****   TIMx->CCER = tmpccer;
 2227              		.loc 1 1654 0
 2228 0010 0384     		strh	r3, [r0, #32]	@ movhi	@ tmpccer, TIMx_2(D)->CCER
 2229 0012 7047     		bx	lr	@
 2230              		.cfi_endproc
 2231              	.LFE153:
 2232              		.size	TIM_OC2PolarityConfig, .-TIM_OC2PolarityConfig
 2233              		.section	.text.TIM_OC2NPolarityConfig,"ax",%progbits
 2234              		.align	2
 2235              		.global	TIM_OC2NPolarityConfig
 2236              		.thumb
 2237              		.thumb_func
 2238              		.type	TIM_OC2NPolarityConfig, %function
 2239              	TIM_OC2NPolarityConfig:
 2240              	.LFB154:
1655:cmsis/device/stm32f4xx_tim.c **** }
1656:cmsis/device/stm32f4xx_tim.c **** 
1657:cmsis/device/stm32f4xx_tim.c **** /**
1658:cmsis/device/stm32f4xx_tim.c ****   * @brief  Configures the TIMx Channel 2N polarity.
1659:cmsis/device/stm32f4xx_tim.c ****   * @param  TIMx: where x can be 1 or 8 to select the TIM peripheral.
1660:cmsis/device/stm32f4xx_tim.c ****   * @param  TIM_OCNPolarity: specifies the OC2N Polarity
1661:cmsis/device/stm32f4xx_tim.c ****   *          This parameter can be one of the following values:
1662:cmsis/device/stm32f4xx_tim.c ****   *            @arg TIM_OCNPolarity_High: Output Compare active high
1663:cmsis/device/stm32f4xx_tim.c ****   *            @arg TIM_OCNPolarity_Low: Output Compare active low
1664:cmsis/device/stm32f4xx_tim.c ****   * @retval None
1665:cmsis/device/stm32f4xx_tim.c ****   */
1666:cmsis/device/stm32f4xx_tim.c **** void TIM_OC2NPolarityConfig(TIM_TypeDef* TIMx, uint16_t TIM_OCNPolarity)
1667:cmsis/device/stm32f4xx_tim.c **** {
 2241              		.loc 1 1667 0
 2242              		.cfi_startproc
 2243              		@ args = 0, pretend = 0, frame = 0
 2244              		@ frame_needed = 0, uses_anonymous_args = 0
 2245              		@ link register save eliminated.
 2246              	.LVL264:
1668:cmsis/device/stm32f4xx_tim.c ****   uint16_t tmpccer = 0;
1669:cmsis/device/stm32f4xx_tim.c **** 
1670:cmsis/device/stm32f4xx_tim.c ****   /* Check the parameters */
1671:cmsis/device/stm32f4xx_tim.c ****   assert_param(IS_TIM_LIST4_PERIPH(TIMx));
1672:cmsis/device/stm32f4xx_tim.c ****   assert_param(IS_TIM_OCN_POLARITY(TIM_OCNPolarity));
1673:cmsis/device/stm32f4xx_tim.c ****   
1674:cmsis/device/stm32f4xx_tim.c ****   tmpccer = TIMx->CCER;
 2247              		.loc 1 1674 0
ARM GAS  C:\Users\CNous\AppData\Local\Temp\ccZi7tDD.s 			page 73


 2248 0000 038C     		ldrh	r3, [r0, #32]	@, TIMx_2(D)->CCER
 2249              	.LVL265:
1675:cmsis/device/stm32f4xx_tim.c **** 
1676:cmsis/device/stm32f4xx_tim.c ****   /* Set or Reset the CC2NP Bit */
1677:cmsis/device/stm32f4xx_tim.c ****   tmpccer &= (uint16_t)~TIM_CCER_CC2NP;
 2250              		.loc 1 1677 0
 2251 0002 23F08002 		bic	r2, r3, #128	@ tmpccer, TIMx_2(D)->CCER,
 2252 0006 1304     		lsls	r3, r2, #16	@ tmpccer, tmpccer,
 2253              	.LVL266:
 2254 0008 1A0C     		lsrs	r2, r3, #16	@ tmpccer, tmpccer,
 2255              	.LVL267:
1678:cmsis/device/stm32f4xx_tim.c ****   tmpccer |= (uint16_t)(TIM_OCNPolarity << 4);
 2256              		.loc 1 1678 0
 2257 000a 42EA0111 		orr	r1, r2, r1, lsl #4	@, tmp145, tmpccer, TIM_OCNPolarity,
 2258              	.LVL268:
 2259 000e 8BB2     		uxth	r3, r1	@ tmpccer, tmp145
 2260              	.LVL269:
1679:cmsis/device/stm32f4xx_tim.c **** 
1680:cmsis/device/stm32f4xx_tim.c ****   /* Write to TIMx CCER register */
1681:cmsis/device/stm32f4xx_tim.c ****   TIMx->CCER = tmpccer;
 2261              		.loc 1 1681 0
 2262 0010 0384     		strh	r3, [r0, #32]	@ movhi	@ tmpccer, TIMx_2(D)->CCER
 2263 0012 7047     		bx	lr	@
 2264              		.cfi_endproc
 2265              	.LFE154:
 2266              		.size	TIM_OC2NPolarityConfig, .-TIM_OC2NPolarityConfig
 2267              		.section	.text.TIM_OC3PolarityConfig,"ax",%progbits
 2268              		.align	2
 2269              		.global	TIM_OC3PolarityConfig
 2270              		.thumb
 2271              		.thumb_func
 2272              		.type	TIM_OC3PolarityConfig, %function
 2273              	TIM_OC3PolarityConfig:
 2274              	.LFB155:
1682:cmsis/device/stm32f4xx_tim.c **** }
1683:cmsis/device/stm32f4xx_tim.c **** 
1684:cmsis/device/stm32f4xx_tim.c **** /**
1685:cmsis/device/stm32f4xx_tim.c ****   * @brief  Configures the TIMx channel 3 polarity.
1686:cmsis/device/stm32f4xx_tim.c ****   * @param  TIMx: where x can be 1, 2, 3, 4, 5 or 8 to select the TIM peripheral.
1687:cmsis/device/stm32f4xx_tim.c ****   * @param  TIM_OCPolarity: specifies the OC3 Polarity
1688:cmsis/device/stm32f4xx_tim.c ****   *          This parameter can be one of the following values:
1689:cmsis/device/stm32f4xx_tim.c ****   *            @arg TIM_OCPolarity_High: Output Compare active high
1690:cmsis/device/stm32f4xx_tim.c ****   *            @arg TIM_OCPolarity_Low: Output Compare active low
1691:cmsis/device/stm32f4xx_tim.c ****   * @retval None
1692:cmsis/device/stm32f4xx_tim.c ****   */
1693:cmsis/device/stm32f4xx_tim.c **** void TIM_OC3PolarityConfig(TIM_TypeDef* TIMx, uint16_t TIM_OCPolarity)
1694:cmsis/device/stm32f4xx_tim.c **** {
 2275              		.loc 1 1694 0
 2276              		.cfi_startproc
 2277              		@ args = 0, pretend = 0, frame = 0
 2278              		@ frame_needed = 0, uses_anonymous_args = 0
 2279              		@ link register save eliminated.
 2280              	.LVL270:
1695:cmsis/device/stm32f4xx_tim.c ****   uint16_t tmpccer = 0;
1696:cmsis/device/stm32f4xx_tim.c **** 
1697:cmsis/device/stm32f4xx_tim.c ****   /* Check the parameters */
1698:cmsis/device/stm32f4xx_tim.c ****   assert_param(IS_TIM_LIST3_PERIPH(TIMx));
ARM GAS  C:\Users\CNous\AppData\Local\Temp\ccZi7tDD.s 			page 74


1699:cmsis/device/stm32f4xx_tim.c ****   assert_param(IS_TIM_OC_POLARITY(TIM_OCPolarity));
1700:cmsis/device/stm32f4xx_tim.c **** 
1701:cmsis/device/stm32f4xx_tim.c ****   tmpccer = TIMx->CCER;
 2281              		.loc 1 1701 0
 2282 0000 038C     		ldrh	r3, [r0, #32]	@, TIMx_2(D)->CCER
 2283              	.LVL271:
1702:cmsis/device/stm32f4xx_tim.c **** 
1703:cmsis/device/stm32f4xx_tim.c ****   /* Set or Reset the CC3P Bit */
1704:cmsis/device/stm32f4xx_tim.c ****   tmpccer &= (uint16_t)~TIM_CCER_CC3P;
 2284              		.loc 1 1704 0
 2285 0002 23F40072 		bic	r2, r3, #512	@ tmpccer, TIMx_2(D)->CCER,
 2286 0006 1304     		lsls	r3, r2, #16	@ tmpccer, tmpccer,
 2287              	.LVL272:
 2288 0008 1A0C     		lsrs	r2, r3, #16	@ tmpccer, tmpccer,
 2289              	.LVL273:
1705:cmsis/device/stm32f4xx_tim.c ****   tmpccer |= (uint16_t)(TIM_OCPolarity << 8);
 2290              		.loc 1 1705 0
 2291 000a 42EA0121 		orr	r1, r2, r1, lsl #8	@, tmp145, tmpccer, TIM_OCPolarity,
 2292              	.LVL274:
 2293 000e 8BB2     		uxth	r3, r1	@ tmpccer, tmp145
 2294              	.LVL275:
1706:cmsis/device/stm32f4xx_tim.c **** 
1707:cmsis/device/stm32f4xx_tim.c ****   /* Write to TIMx CCER register */
1708:cmsis/device/stm32f4xx_tim.c ****   TIMx->CCER = tmpccer;
 2295              		.loc 1 1708 0
 2296 0010 0384     		strh	r3, [r0, #32]	@ movhi	@ tmpccer, TIMx_2(D)->CCER
 2297 0012 7047     		bx	lr	@
 2298              		.cfi_endproc
 2299              	.LFE155:
 2300              		.size	TIM_OC3PolarityConfig, .-TIM_OC3PolarityConfig
 2301              		.section	.text.TIM_OC3NPolarityConfig,"ax",%progbits
 2302              		.align	2
 2303              		.global	TIM_OC3NPolarityConfig
 2304              		.thumb
 2305              		.thumb_func
