ARM GAS  C:\Users\CNous\AppData\Local\Temp\ccZZVbMp.s 			page 1


   1              		.syntax unified
   2              		.cpu cortex-m4
   3              		.eabi_attribute 27, 3	@ Tag_ABI_HardFP_use
   4              		.eabi_attribute 28, 1	@ Tag_ABI_VFP_args
   5              		.fpu fpv4-sp-d16
   6              		.eabi_attribute 20, 1	@ Tag_ABI_FP_denormal
   7              		.eabi_attribute 21, 1	@ Tag_ABI_FP_exceptions
   8              		.eabi_attribute 23, 3	@ Tag_ABI_FP_number_model
   9              		.eabi_attribute 24, 1	@ Tag_ABI_align8_needed
  10              		.eabi_attribute 25, 1	@ Tag_ABI_align8_preserved
  11              		.eabi_attribute 26, 1	@ Tag_ABI_enum_size
  12              		.eabi_attribute 30, 2	@ Tag_ABI_optimization_goals
  13              		.eabi_attribute 34, 1	@ Tag_CPU_unaligned_access
  14              		.eabi_attribute 18, 4	@ Tag_ABI_PCS_wchar_t
  15              		.file	"stm32f4xx_exti.c"
  16              	@ GNU C (GNU Tools for ARM Embedded Processors) version 4.7.3 20121207 (release) [ARM/embedded-4_7-
  17              	@	compiled by GNU C version 4.2.1-sjlj (mingw32-2), GMP version 4.3.2, MPFR version 2.4.2, MPC vers
  18              	@ GGC heuristics: --param ggc-min-expand=100 --param ggc-min-heapsize=131072
  19              	@ options passed:  -I . -I ./inc -I ./cmsis/core -I ./cmsis/device
  20              	@ -imultilib armv7e-m/fpu
  21              	@ -iprefix c:\gnutoolsarmembedded\4.7-2012q4\bin\../lib/gcc/arm-none-eabi/4.7.3/
  22              	@ -isysroot c:\gnutoolsarmembedded\4.7-2012q4\bin\../arm-none-eabi
  23              	@ -MD cmsis/device/stm32f4xx_exti.d -MF .dep/stm32f4xx_exti.o.d -MP
  24              	@ -MQ cmsis/device/stm32f4xx_exti.o -D__USES_INITFINI__ -D __FPU_USED=1
  25              	@ -D __arm__ -D __ASSEMBLY__ -D USE_STDPERIPH_DRIVER -D STM32F4XX
  26              	@ -D HSE_VALUE=8000000 -D __FPU_PRESENT=1 -D STM32F407VG
  27              	@ -D RUN_FROM_FLASH=1 cmsis/device/stm32f4xx_exti.c -mthumb -mcpu=cortex-m4
  28              	@ -mfloat-abi=hard -mfpu=fpv4-sp-d16
  29              	@ -auxbase-strip cmsis/device/stm32f4xx_exti.o -gdwarf-2 -O2 -Wall
  30              	@ -Wstrict-prototypes -fverbose-asm -ffunction-sections -fdata-sections
  31              	@ options enabled:  -fauto-inc-dec -fbranch-count-reg -fcaller-saves
  32              	@ -fcombine-stack-adjustments -fcommon -fcompare-elim -fcprop-registers
  33              	@ -fcrossjumping -fcse-follow-jumps -fdata-sections -fdebug-types-section
  34              	@ -fdefer-pop -fdelete-null-pointer-checks -fdevirtualize -fdwarf2-cfi-asm
  35              	@ -fearly-inlining -feliminate-unused-debug-types -fexpensive-optimizations
  36              	@ -fforward-propagate -ffunction-cse -ffunction-sections -fgcse -fgcse-lm
  37              	@ -fgnu-runtime -fguess-branch-probability -fident -fif-conversion
  38              	@ -fif-conversion2 -findirect-inlining -finline -finline-atomics
  39              	@ -finline-functions-called-once -finline-small-functions -fipa-cp
  40              	@ -fipa-profile -fipa-pure-const -fipa-reference -fipa-sra
  41              	@ -fira-share-save-slots -fira-share-spill-slots -fivopts
  42              	@ -fkeep-static-consts -fleading-underscore -fmath-errno -fmerge-constants
  43              	@ -fmerge-debug-strings -fmove-loop-invariants -fomit-frame-pointer
  44              	@ -foptimize-register-move -foptimize-sibling-calls -foptimize-strlen
  45              	@ -fpartial-inlining -fpeephole -fpeephole2 -fprefetch-loop-arrays
  46              	@ -freg-struct-return -fregmove -frename-registers -freorder-blocks
  47              	@ -freorder-functions -frerun-cse-after-loop
  48              	@ -fsched-critical-path-heuristic -fsched-dep-count-heuristic
  49              	@ -fsched-group-heuristic -fsched-interblock -fsched-last-insn-heuristic
  50              	@ -fsched-rank-heuristic -fsched-spec -fsched-spec-insn-heuristic
  51              	@ -fsched-stalled-insns-dep -fschedule-insns -fschedule-insns2
  52              	@ -fsection-anchors -fshow-column -fshrink-wrap -fsigned-zeros
  53              	@ -fsplit-ivs-in-unroller -fsplit-wide-types -fstrict-aliasing
  54              	@ -fstrict-overflow -fstrict-volatile-bitfields -fthread-jumps
  55              	@ -ftoplevel-reorder -ftrapping-math -ftree-bit-ccp -ftree-builtin-call-dce
  56              	@ -ftree-ccp -ftree-ch -ftree-copy-prop -ftree-copyrename -ftree-cselim
  57              	@ -ftree-dce -ftree-dominator-opts -ftree-dse -ftree-forwprop -ftree-fre
ARM GAS  C:\Users\CNous\AppData\Local\Temp\ccZZVbMp.s 			page 2


  58              	@ -ftree-loop-if-convert -ftree-loop-im -ftree-loop-ivcanon
  59              	@ -ftree-loop-optimize -ftree-parallelize-loops= -ftree-phiprop -ftree-pre
  60              	@ -ftree-pta -ftree-reassoc -ftree-scev-cprop -ftree-sink
  61              	@ -ftree-slp-vectorize -ftree-sra -ftree-switch-conversion
  62              	@ -ftree-tail-merge -ftree-ter -ftree-vect-loop-version -ftree-vrp
  63              	@ -funit-at-a-time -funroll-loops -fvar-tracking -fvar-tracking-assignments
  64              	@ -fverbose-asm -fweb -fzero-initialized-in-bss -mlittle-endian
  65              	@ -msched-prolog -mthumb -munaligned-access -mvectorize-with-neon-quad
  66              	
  67              		.text
  68              	.Ltext0:
  69              		.cfi_sections	.debug_frame
  70              		.section	.text.EXTI_DeInit,"ax",%progbits
  71              		.align	2
  72              		.global	EXTI_DeInit
  73              		.thumb
  74              		.thumb_func
  75              		.type	EXTI_DeInit, %function
  76              	EXTI_DeInit:
  77              	.LFB110:
  78              		.file 1 "cmsis/device/stm32f4xx_exti.c"
   1:cmsis/device/stm32f4xx_exti.c **** /**
   2:cmsis/device/stm32f4xx_exti.c ****   ******************************************************************************
   3:cmsis/device/stm32f4xx_exti.c ****   * @file    stm32f4xx_exti.c
   4:cmsis/device/stm32f4xx_exti.c ****   * @author  MCD Application Team
   5:cmsis/device/stm32f4xx_exti.c ****   * @version V1.0.0
   6:cmsis/device/stm32f4xx_exti.c ****   * @date    30-September-2011
   7:cmsis/device/stm32f4xx_exti.c ****   * @brief   This file provides firmware functions to manage the following 
   8:cmsis/device/stm32f4xx_exti.c ****   *          functionalities of the EXTI peripheral:           
   9:cmsis/device/stm32f4xx_exti.c ****   *           - Initialization and Configuration
  10:cmsis/device/stm32f4xx_exti.c ****   *           - Interrupts and flags management
  11:cmsis/device/stm32f4xx_exti.c ****   *
  12:cmsis/device/stm32f4xx_exti.c ****   *  @verbatim  
  13:cmsis/device/stm32f4xx_exti.c ****   *  
  14:cmsis/device/stm32f4xx_exti.c ****   *          ===================================================================
  15:cmsis/device/stm32f4xx_exti.c ****   *                                     EXTI features
  16:cmsis/device/stm32f4xx_exti.c ****   *          ===================================================================
  17:cmsis/device/stm32f4xx_exti.c ****   *    
  18:cmsis/device/stm32f4xx_exti.c ****   *          External interrupt/event lines are mapped as following:
  19:cmsis/device/stm32f4xx_exti.c ****   *            1- All available GPIO pins are connected to the 16 external 
  20:cmsis/device/stm32f4xx_exti.c ****   *               interrupt/event lines from EXTI0 to EXTI15.
  21:cmsis/device/stm32f4xx_exti.c ****   *            2- EXTI line 16 is connected to the PVD Output
  22:cmsis/device/stm32f4xx_exti.c ****   *            3- EXTI line 17 is connected to the RTC Alarm event
  23:cmsis/device/stm32f4xx_exti.c ****   *            4- EXTI line 18 is connected to the USB OTG FS Wakeup from suspend event            
  24:cmsis/device/stm32f4xx_exti.c ****   *            5- EXTI line 19 is connected to the Ethernet Wakeup event
  25:cmsis/device/stm32f4xx_exti.c ****   *            6- EXTI line 20 is connected to the USB OTG HS (configured in FS) Wakeup event 
  26:cmsis/device/stm32f4xx_exti.c ****   *            7- EXTI line 21 is connected to the RTC Tamper and Time Stamp events                
  27:cmsis/device/stm32f4xx_exti.c ****   *            8- EXTI line 22 is connected to the RTC Wakeup event
  28:cmsis/device/stm32f4xx_exti.c ****   *        
  29:cmsis/device/stm32f4xx_exti.c ****   *          ===================================================================
  30:cmsis/device/stm32f4xx_exti.c ****   *                                 How to use this driver
  31:cmsis/device/stm32f4xx_exti.c ****   *          ===================================================================  
  32:cmsis/device/stm32f4xx_exti.c ****   *              
  33:cmsis/device/stm32f4xx_exti.c ****   *          In order to use an I/O pin as an external interrupt source, follow
  34:cmsis/device/stm32f4xx_exti.c ****   *          steps below:
  35:cmsis/device/stm32f4xx_exti.c ****   *            1- Configure the I/O in input mode using GPIO_Init()
  36:cmsis/device/stm32f4xx_exti.c ****   *            2- Select the input source pin for the EXTI line using SYSCFG_EXTILineConfig()
ARM GAS  C:\Users\CNous\AppData\Local\Temp\ccZZVbMp.s 			page 3


  37:cmsis/device/stm32f4xx_exti.c ****   *            3- Select the mode(interrupt, event) and configure the trigger 
  38:cmsis/device/stm32f4xx_exti.c ****   *               selection (Rising, falling or both) using EXTI_Init()
  39:cmsis/device/stm32f4xx_exti.c ****   *            4- Configure NVIC IRQ channel mapped to the EXTI line using NVIC_Init()
  40:cmsis/device/stm32f4xx_exti.c ****   *   
  41:cmsis/device/stm32f4xx_exti.c ****   *  @note  SYSCFG APB clock must be enabled to get write access to SYSCFG_EXTICRx
  42:cmsis/device/stm32f4xx_exti.c ****   *         registers using RCC_APB2PeriphClockCmd(RCC_APB2Periph_SYSCFG, ENABLE);
  43:cmsis/device/stm32f4xx_exti.c ****   *          
  44:cmsis/device/stm32f4xx_exti.c ****   *  @endverbatim                  
  45:cmsis/device/stm32f4xx_exti.c ****   *
  46:cmsis/device/stm32f4xx_exti.c ****   ******************************************************************************
  47:cmsis/device/stm32f4xx_exti.c ****   * @attention
  48:cmsis/device/stm32f4xx_exti.c ****   *
  49:cmsis/device/stm32f4xx_exti.c ****   * THE PRESENT FIRMWARE WHICH IS FOR GUIDANCE ONLY AIMS AT PROVIDING CUSTOMERS
  50:cmsis/device/stm32f4xx_exti.c ****   * WITH CODING INFORMATION REGARDING THEIR PRODUCTS IN ORDER FOR THEM TO SAVE
  51:cmsis/device/stm32f4xx_exti.c ****   * TIME. AS A RESULT, STMICROELECTRONICS SHALL NOT BE HELD LIABLE FOR ANY
  52:cmsis/device/stm32f4xx_exti.c ****   * DIRECT, INDIRECT OR CONSEQUENTIAL DAMAGES WITH RESPECT TO ANY CLAIMS ARISING
  53:cmsis/device/stm32f4xx_exti.c ****   * FROM THE CONTENT OF SUCH FIRMWARE AND/OR THE USE MADE BY CUSTOMERS OF THE
  54:cmsis/device/stm32f4xx_exti.c ****   * CODING INFORMATION CONTAINED HEREIN IN CONNECTION WITH THEIR PRODUCTS.
  55:cmsis/device/stm32f4xx_exti.c ****   *
  56:cmsis/device/stm32f4xx_exti.c ****   * <h2><center>&copy; COPYRIGHT 2011 STMicroelectronics</center></h2>
  57:cmsis/device/stm32f4xx_exti.c ****   ******************************************************************************
  58:cmsis/device/stm32f4xx_exti.c ****   */
  59:cmsis/device/stm32f4xx_exti.c **** 
  60:cmsis/device/stm32f4xx_exti.c **** /* Includes ------------------------------------------------------------------*/
  61:cmsis/device/stm32f4xx_exti.c **** #include "stm32f4xx_exti.h"
  62:cmsis/device/stm32f4xx_exti.c **** 
  63:cmsis/device/stm32f4xx_exti.c **** /** @addtogroup STM32F4xx_StdPeriph_Driver
  64:cmsis/device/stm32f4xx_exti.c ****   * @{
  65:cmsis/device/stm32f4xx_exti.c ****   */
  66:cmsis/device/stm32f4xx_exti.c **** 
  67:cmsis/device/stm32f4xx_exti.c **** /** @defgroup EXTI 
  68:cmsis/device/stm32f4xx_exti.c ****   * @brief EXTI driver modules
  69:cmsis/device/stm32f4xx_exti.c ****   * @{
  70:cmsis/device/stm32f4xx_exti.c ****   */
  71:cmsis/device/stm32f4xx_exti.c **** 
  72:cmsis/device/stm32f4xx_exti.c **** /* Private typedef -----------------------------------------------------------*/
  73:cmsis/device/stm32f4xx_exti.c **** /* Private define ------------------------------------------------------------*/
  74:cmsis/device/stm32f4xx_exti.c **** 
  75:cmsis/device/stm32f4xx_exti.c **** #define EXTI_LINENONE    ((uint32_t)0x00000)  /* No interrupt selected */
  76:cmsis/device/stm32f4xx_exti.c **** 
  77:cmsis/device/stm32f4xx_exti.c **** /* Private macro -------------------------------------------------------------*/
  78:cmsis/device/stm32f4xx_exti.c **** /* Private variables ---------------------------------------------------------*/
  79:cmsis/device/stm32f4xx_exti.c **** /* Private function prototypes -----------------------------------------------*/
  80:cmsis/device/stm32f4xx_exti.c **** /* Private functions ---------------------------------------------------------*/
  81:cmsis/device/stm32f4xx_exti.c **** 
  82:cmsis/device/stm32f4xx_exti.c **** /** @defgroup EXTI_Private_Functions
  83:cmsis/device/stm32f4xx_exti.c ****   * @{
  84:cmsis/device/stm32f4xx_exti.c ****   */
  85:cmsis/device/stm32f4xx_exti.c **** 
  86:cmsis/device/stm32f4xx_exti.c **** /** @defgroup EXTI_Group1 Initialization and Configuration functions
  87:cmsis/device/stm32f4xx_exti.c ****  *  @brief   Initialization and Configuration functions 
  88:cmsis/device/stm32f4xx_exti.c ****  *
  89:cmsis/device/stm32f4xx_exti.c **** @verbatim   
  90:cmsis/device/stm32f4xx_exti.c ****  ===============================================================================
  91:cmsis/device/stm32f4xx_exti.c ****                   Initialization and Configuration functions
  92:cmsis/device/stm32f4xx_exti.c ****  ===============================================================================  
  93:cmsis/device/stm32f4xx_exti.c **** 
ARM GAS  C:\Users\CNous\AppData\Local\Temp\ccZZVbMp.s 			page 4


  94:cmsis/device/stm32f4xx_exti.c **** @endverbatim
  95:cmsis/device/stm32f4xx_exti.c ****   * @{
  96:cmsis/device/stm32f4xx_exti.c ****   */
  97:cmsis/device/stm32f4xx_exti.c **** 
  98:cmsis/device/stm32f4xx_exti.c **** /**
  99:cmsis/device/stm32f4xx_exti.c ****   * @brief  Deinitializes the EXTI peripheral registers to their default reset values.
 100:cmsis/device/stm32f4xx_exti.c ****   * @param  None
 101:cmsis/device/stm32f4xx_exti.c ****   * @retval None
 102:cmsis/device/stm32f4xx_exti.c ****   */
 103:cmsis/device/stm32f4xx_exti.c **** void EXTI_DeInit(void)
 104:cmsis/device/stm32f4xx_exti.c **** {
  79              		.loc 1 104 0
  80              		.cfi_startproc
  81              		@ args = 0, pretend = 0, frame = 0
  82              		@ frame_needed = 0, uses_anonymous_args = 0
  83              		@ link register save eliminated.
 105:cmsis/device/stm32f4xx_exti.c ****   EXTI->IMR = 0x00000000;
  84              		.loc 1 105 0
  85 0000 4FF47053 		mov	r3, #15360	@ tmp134,
  86 0004 C4F20103 		movt	r3, 16385	@ tmp134,
 106:cmsis/device/stm32f4xx_exti.c ****   EXTI->EMR = 0x00000000;
 107:cmsis/device/stm32f4xx_exti.c ****   EXTI->RTSR = 0x00000000;
 108:cmsis/device/stm32f4xx_exti.c ****   EXTI->FTSR = 0x00000000;
 109:cmsis/device/stm32f4xx_exti.c ****   EXTI->PR = 0x007FFFFF;
  87              		.loc 1 109 0
  88 0008 4FF6FF71 		movw	r1, #65535	@ tmp143,
 105:cmsis/device/stm32f4xx_exti.c ****   EXTI->IMR = 0x00000000;
  89              		.loc 1 105 0
  90 000c 0022     		movs	r2, #0	@ tmp135,
  91              		.loc 1 109 0
  92 000e C0F27F01 		movt	r1, 127	@ tmp143,
 105:cmsis/device/stm32f4xx_exti.c ****   EXTI->IMR = 0x00000000;
  93              		.loc 1 105 0
  94 0012 1A60     		str	r2, [r3, #0]	@ tmp135, MEM[(struct EXTI_TypeDef *)1073822720B].IMR
 106:cmsis/device/stm32f4xx_exti.c ****   EXTI->EMR = 0x00000000;
  95              		.loc 1 106 0
  96 0014 5A60     		str	r2, [r3, #4]	@ tmp135, MEM[(struct EXTI_TypeDef *)1073822720B].EMR
 107:cmsis/device/stm32f4xx_exti.c ****   EXTI->RTSR = 0x00000000;
  97              		.loc 1 107 0
  98 0016 9A60     		str	r2, [r3, #8]	@ tmp135, MEM[(struct EXTI_TypeDef *)1073822720B].RTSR
 108:cmsis/device/stm32f4xx_exti.c ****   EXTI->FTSR = 0x00000000;
  99              		.loc 1 108 0
 100 0018 DA60     		str	r2, [r3, #12]	@ tmp135, MEM[(struct EXTI_TypeDef *)1073822720B].FTSR
 101              		.loc 1 109 0
 102 001a 5961     		str	r1, [r3, #20]	@ tmp143, MEM[(struct EXTI_TypeDef *)1073822720B].PR
 103 001c 7047     		bx	lr	@
 104              		.cfi_endproc
 105              	.LFE110:
 106              		.size	EXTI_DeInit, .-EXTI_DeInit
 107 001e 00BF     		.section	.text.EXTI_Init,"ax",%progbits
 108              		.align	2
 109              		.global	EXTI_Init
 110              		.thumb
 111              		.thumb_func
 112              		.type	EXTI_Init, %function
 113              	EXTI_Init:
 114              	.LFB111:
ARM GAS  C:\Users\CNous\AppData\Local\Temp\ccZZVbMp.s 			page 5


 110:cmsis/device/stm32f4xx_exti.c **** }
 111:cmsis/device/stm32f4xx_exti.c **** 
 112:cmsis/device/stm32f4xx_exti.c **** /**
 113:cmsis/device/stm32f4xx_exti.c ****   * @brief  Initializes the EXTI peripheral according to the specified
 114:cmsis/device/stm32f4xx_exti.c ****   *         parameters in the EXTI_InitStruct.
 115:cmsis/device/stm32f4xx_exti.c ****   * @param  EXTI_InitStruct: pointer to a EXTI_InitTypeDef structure
 116:cmsis/device/stm32f4xx_exti.c ****   *         that contains the configuration information for the EXTI peripheral.
 117:cmsis/device/stm32f4xx_exti.c ****   * @retval None
 118:cmsis/device/stm32f4xx_exti.c ****   */
 119:cmsis/device/stm32f4xx_exti.c **** void EXTI_Init(EXTI_InitTypeDef* EXTI_InitStruct)
 120:cmsis/device/stm32f4xx_exti.c **** {
 115              		.loc 1 120 0
 116              		.cfi_startproc
 117              		@ args = 0, pretend = 0, frame = 0
 118              		@ frame_needed = 0, uses_anonymous_args = 0
 119              		@ link register save eliminated.
 120              	.LVL0:
 121:cmsis/device/stm32f4xx_exti.c ****   uint32_t tmp = 0;
 122:cmsis/device/stm32f4xx_exti.c **** 
 123:cmsis/device/stm32f4xx_exti.c ****   /* Check the parameters */
 124:cmsis/device/stm32f4xx_exti.c ****   assert_param(IS_EXTI_MODE(EXTI_InitStruct->EXTI_Mode));
 125:cmsis/device/stm32f4xx_exti.c ****   assert_param(IS_EXTI_TRIGGER(EXTI_InitStruct->EXTI_Trigger));
 126:cmsis/device/stm32f4xx_exti.c ****   assert_param(IS_EXTI_LINE(EXTI_InitStruct->EXTI_Line));  
 127:cmsis/device/stm32f4xx_exti.c ****   assert_param(IS_FUNCTIONAL_STATE(EXTI_InitStruct->EXTI_LineCmd));
 128:cmsis/device/stm32f4xx_exti.c **** 
 129:cmsis/device/stm32f4xx_exti.c ****   tmp = (uint32_t)EXTI_BASE;
 130:cmsis/device/stm32f4xx_exti.c ****      
 131:cmsis/device/stm32f4xx_exti.c ****   if (EXTI_InitStruct->EXTI_LineCmd != DISABLE)
 121              		.loc 1 131 0
 122 0000 8379     		ldrb	r3, [r0, #6]	@ zero_extendqisi2	@ EXTI_InitStruct_3(D)->EXTI_LineCmd, EXTI_InitStruct_3(D)->E
 120:cmsis/device/stm32f4xx_exti.c **** {
 123              		.loc 1 120 0
 124 0002 70B4     		push	{r4, r5, r6}	@
 125              	.LCFI0:
 126              		.cfi_def_cfa_offset 12
 127              		.cfi_offset 4, -12
 128              		.cfi_offset 5, -8
 129              		.cfi_offset 6, -4
 130              		.loc 1 131 0
 131 0004 3BB3     		cbz	r3, .L3	@ EXTI_InitStruct_3(D)->EXTI_LineCmd,
 132:cmsis/device/stm32f4xx_exti.c ****   {
 133:cmsis/device/stm32f4xx_exti.c ****     /* Clear EXTI line configuration */
 134:cmsis/device/stm32f4xx_exti.c ****     EXTI->IMR &= ~EXTI_InitStruct->EXTI_Line;
 132              		.loc 1 134 0
 133 0006 4FF47053 		mov	r3, #15360	@ tmp173,
 134 000a C4F20103 		movt	r3, 16385	@ tmp173,
 135 000e 0168     		ldr	r1, [r0, #0]	@ D.6563, EXTI_InitStruct_3(D)->EXTI_Line
 136 0010 1E68     		ldr	r6, [r3, #0]	@ D.6562, MEM[(struct EXTI_TypeDef *)1073822720B].IMR
 135:cmsis/device/stm32f4xx_exti.c ****     EXTI->EMR &= ~EXTI_InitStruct->EXTI_Line;
 136:cmsis/device/stm32f4xx_exti.c ****     
 137:cmsis/device/stm32f4xx_exti.c ****     tmp += EXTI_InitStruct->EXTI_Mode;
 137              		.loc 1 137 0
 138 0012 0279     		ldrb	r2, [r0, #4]	@ zero_extendqisi2	@ EXTI_InitStruct_3(D)->EXTI_Mode, EXTI_InitStruct_3(D)->EXTI
 138:cmsis/device/stm32f4xx_exti.c **** 
 139:cmsis/device/stm32f4xx_exti.c ****     *(__IO uint32_t *) tmp |= EXTI_InitStruct->EXTI_Line;
 140:cmsis/device/stm32f4xx_exti.c **** 
 141:cmsis/device/stm32f4xx_exti.c ****     /* Clear Rising Falling edge configuration */
ARM GAS  C:\Users\CNous\AppData\Local\Temp\ccZZVbMp.s 			page 6


 142:cmsis/device/stm32f4xx_exti.c ****     EXTI->RTSR &= ~EXTI_InitStruct->EXTI_Line;
 143:cmsis/device/stm32f4xx_exti.c ****     EXTI->FTSR &= ~EXTI_InitStruct->EXTI_Line;
 144:cmsis/device/stm32f4xx_exti.c ****     
 145:cmsis/device/stm32f4xx_exti.c ****     /* Select the trigger for the selected external interrupts */
 146:cmsis/device/stm32f4xx_exti.c ****     if (EXTI_InitStruct->EXTI_Trigger == EXTI_Trigger_Rising_Falling)
 139              		.loc 1 146 0
 140 0014 4579     		ldrb	r5, [r0, #5]	@ zero_extendqisi2	@ D.6577, EXTI_InitStruct_3(D)->EXTI_Trigger
 134:cmsis/device/stm32f4xx_exti.c ****     EXTI->IMR &= ~EXTI_InitStruct->EXTI_Line;
 141              		.loc 1 134 0
 142 0016 CC43     		mvns	r4, r1	@ D.6564, D.6563
 143 0018 2640     		ands	r6, r6, r4	@, D.6565, D.6562, D.6564
 144 001a 1E60     		str	r6, [r3, #0]	@ D.6565, MEM[(struct EXTI_TypeDef *)1073822720B].IMR
 135:cmsis/device/stm32f4xx_exti.c ****     EXTI->EMR &= ~EXTI_InitStruct->EXTI_Line;
 145              		.loc 1 135 0
 146 001c 5E68     		ldr	r6, [r3, #4]	@ D.6566, MEM[(struct EXTI_TypeDef *)1073822720B].EMR
 137:cmsis/device/stm32f4xx_exti.c ****     tmp += EXTI_InitStruct->EXTI_Mode;
 147              		.loc 1 137 0
 148 001e 02F18042 		add	r2, r2, #1073741824	@ tmp178, EXTI_InitStruct_3(D)->EXTI_Mode,
 149 0022 02F59E32 		add	r2, r2, #80896	@ tmp.0, tmp178,
 135:cmsis/device/stm32f4xx_exti.c ****     EXTI->EMR &= ~EXTI_InitStruct->EXTI_Line;
 150              		.loc 1 135 0
 151 0026 3440     		ands	r4, r4, r6	@, D.6567, D.6564, D.6566
 152 0028 5C60     		str	r4, [r3, #4]	@ D.6567, MEM[(struct EXTI_TypeDef *)1073822720B].EMR
 153              	.LVL1:
 139:cmsis/device/stm32f4xx_exti.c ****     *(__IO uint32_t *) tmp |= EXTI_InitStruct->EXTI_Line;
 154              		.loc 1 139 0
 155 002a 1468     		ldr	r4, [r2, #0]	@ D.6571, *tmp.0_21
 156 002c 2143     		orrs	r1, r1, r4	@, D.6572, D.6563, D.6571
 157 002e 1160     		str	r1, [r2, #0]	@ D.6572, *tmp.0_21
 142:cmsis/device/stm32f4xx_exti.c ****     EXTI->RTSR &= ~EXTI_InitStruct->EXTI_Line;
 158              		.loc 1 142 0
 159 0030 0268     		ldr	r2, [r0, #0]	@ D.6563, EXTI_InitStruct_3(D)->EXTI_Line
 160 0032 9868     		ldr	r0, [r3, #8]	@ D.6573, MEM[(struct EXTI_TypeDef *)1073822720B].RTSR
 161              	.LVL2:
 162 0034 D143     		mvns	r1, r2	@ D.6564, D.6563
 163 0036 0840     		ands	r0, r0, r1	@, D.6574, D.6573, D.6564
 164 0038 9860     		str	r0, [r3, #8]	@ D.6574, MEM[(struct EXTI_TypeDef *)1073822720B].RTSR
 143:cmsis/device/stm32f4xx_exti.c ****     EXTI->FTSR &= ~EXTI_InitStruct->EXTI_Line;
 165              		.loc 1 143 0
 166 003a D868     		ldr	r0, [r3, #12]	@ D.6575, MEM[(struct EXTI_TypeDef *)1073822720B].FTSR
 167              		.loc 1 146 0
 168 003c 102D     		cmp	r5, #16	@ D.6577,
 143:cmsis/device/stm32f4xx_exti.c ****     EXTI->FTSR &= ~EXTI_InitStruct->EXTI_Line;
 169              		.loc 1 143 0
 170 003e 01EA0001 		and	r1, r1, r0	@ D.6576, D.6564, D.6575
 171 0042 D960     		str	r1, [r3, #12]	@ D.6576, MEM[(struct EXTI_TypeDef *)1073822720B].FTSR
 172              		.loc 1 146 0
 173 0044 13D0     		beq	.L7	@,
 174              	.LVL3:
 147:cmsis/device/stm32f4xx_exti.c ****     {
 148:cmsis/device/stm32f4xx_exti.c ****       /* Rising Falling edge */
 149:cmsis/device/stm32f4xx_exti.c ****       EXTI->RTSR |= EXTI_InitStruct->EXTI_Line;
 150:cmsis/device/stm32f4xx_exti.c ****       EXTI->FTSR |= EXTI_InitStruct->EXTI_Line;
 151:cmsis/device/stm32f4xx_exti.c ****     }
 152:cmsis/device/stm32f4xx_exti.c ****     else
 153:cmsis/device/stm32f4xx_exti.c ****     {
 154:cmsis/device/stm32f4xx_exti.c ****       tmp = (uint32_t)EXTI_BASE;
ARM GAS  C:\Users\CNous\AppData\Local\Temp\ccZZVbMp.s 			page 7


 155:cmsis/device/stm32f4xx_exti.c ****       tmp += EXTI_InitStruct->EXTI_Trigger;
 175              		.loc 1 155 0
 176 0046 05F18045 		add	r5, r5, #1073741824	@ tmp187, D.6577,
 177              	.LVL4:
 178 004a 05F59E35 		add	r5, r5, #80896	@ tmp.0, tmp187,
 179              	.LVL5:
 156:cmsis/device/stm32f4xx_exti.c **** 
 157:cmsis/device/stm32f4xx_exti.c ****       *(__IO uint32_t *) tmp |= EXTI_InitStruct->EXTI_Line;
 180              		.loc 1 157 0
 181 004e 2B68     		ldr	r3, [r5, #0]	@ D.6586, *tmp.0_53
 182 0050 1A43     		orrs	r2, r2, r3	@, D.6587, D.6563, D.6586
 183 0052 2A60     		str	r2, [r5, #0]	@ D.6587, *tmp.0_53
 184 0054 09E0     		b	.L2	@
 185              	.LVL6:
 186              	.L3:
 158:cmsis/device/stm32f4xx_exti.c ****     }
 159:cmsis/device/stm32f4xx_exti.c ****   }
 160:cmsis/device/stm32f4xx_exti.c ****   else
 161:cmsis/device/stm32f4xx_exti.c ****   {
 162:cmsis/device/stm32f4xx_exti.c ****     tmp += EXTI_InitStruct->EXTI_Mode;
 187              		.loc 1 162 0
 188 0056 0279     		ldrb	r2, [r0, #4]	@ zero_extendqisi2	@ EXTI_InitStruct_3(D)->EXTI_Mode, EXTI_InitStruct_3(D)->EXTI
 163:cmsis/device/stm32f4xx_exti.c **** 
 164:cmsis/device/stm32f4xx_exti.c ****     /* Disable the selected external lines */
 165:cmsis/device/stm32f4xx_exti.c ****     *(__IO uint32_t *) tmp &= ~EXTI_InitStruct->EXTI_Line;
 189              		.loc 1 165 0
 190 0058 0168     		ldr	r1, [r0, #0]	@ EXTI_InitStruct_3(D)->EXTI_Line, EXTI_InitStruct_3(D)->EXTI_Line
 162:cmsis/device/stm32f4xx_exti.c ****     tmp += EXTI_InitStruct->EXTI_Mode;
 191              		.loc 1 162 0
 192 005a 02F18040 		add	r0, r2, #1073741824	@ tmp189, EXTI_InitStruct_3(D)->EXTI_Mode,
 193              	.LVL7:
 194 005e 00F59E33 		add	r3, r0, #80896	@ tmp.0, tmp189,
 195              		.loc 1 165 0
 196 0062 1A68     		ldr	r2, [r3, #0]	@ D.6589, *tmp.0_61
 197 0064 22EA0102 		bic	r2, r2, r1	@ D.6590, D.6589, EXTI_InitStruct_3(D)->EXTI_Line
 198 0068 1A60     		str	r2, [r3, #0]	@ D.6590, *tmp.0_61
 199              	.LVL8:
 200              	.L2:
 166:cmsis/device/stm32f4xx_exti.c ****   }
 167:cmsis/device/stm32f4xx_exti.c **** }
 201              		.loc 1 167 0
 202 006a 70BC     		pop	{r4, r5, r6}
 203 006c 7047     		bx	lr
 204              	.LVL9:
 205              	.L7:
 149:cmsis/device/stm32f4xx_exti.c ****       EXTI->RTSR |= EXTI_InitStruct->EXTI_Line;
 206              		.loc 1 149 0
 207 006e 9968     		ldr	r1, [r3, #8]	@ D.6580, MEM[(struct EXTI_TypeDef *)1073822720B].RTSR
 208 0070 1143     		orrs	r1, r1, r2	@, D.6581, D.6580, D.6563
 209 0072 9960     		str	r1, [r3, #8]	@ D.6581, MEM[(struct EXTI_TypeDef *)1073822720B].RTSR
 150:cmsis/device/stm32f4xx_exti.c ****       EXTI->FTSR |= EXTI_InitStruct->EXTI_Line;
 210              		.loc 1 150 0
 211 0074 D868     		ldr	r0, [r3, #12]	@ D.6582, MEM[(struct EXTI_TypeDef *)1073822720B].FTSR
 212 0076 0243     		orrs	r2, r2, r0	@, D.6583, D.6563, D.6582
 213 0078 DA60     		str	r2, [r3, #12]	@ D.6583, MEM[(struct EXTI_TypeDef *)1073822720B].FTSR
 214 007a F6E7     		b	.L2	@
 215              		.cfi_endproc
ARM GAS  C:\Users\CNous\AppData\Local\Temp\ccZZVbMp.s 			page 8


 216              	.LFE111:
 217              		.size	EXTI_Init, .-EXTI_Init
 218              		.section	.text.EXTI_StructInit,"ax",%progbits
 219              		.align	2
 220              		.global	EXTI_StructInit
 221              		.thumb
 222              		.thumb_func
 223              		.type	EXTI_StructInit, %function
 224              	EXTI_StructInit:
 225              	.LFB112:
 168:cmsis/device/stm32f4xx_exti.c **** 
 169:cmsis/device/stm32f4xx_exti.c **** /**
 170:cmsis/device/stm32f4xx_exti.c ****   * @brief  Fills each EXTI_InitStruct member with its reset value.
 171:cmsis/device/stm32f4xx_exti.c ****   * @param  EXTI_InitStruct: pointer to a EXTI_InitTypeDef structure which will
 172:cmsis/device/stm32f4xx_exti.c ****   *         be initialized.
 173:cmsis/device/stm32f4xx_exti.c ****   * @retval None
 174:cmsis/device/stm32f4xx_exti.c ****   */
 175:cmsis/device/stm32f4xx_exti.c **** void EXTI_StructInit(EXTI_InitTypeDef* EXTI_InitStruct)
 176:cmsis/device/stm32f4xx_exti.c **** {
 226              		.loc 1 176 0
 227              		.cfi_startproc
 228              		@ args = 0, pretend = 0, frame = 0
 229              		@ frame_needed = 0, uses_anonymous_args = 0
 230              		@ link register save eliminated.
 231              	.LVL10:
 177:cmsis/device/stm32f4xx_exti.c ****   EXTI_InitStruct->EXTI_Line = EXTI_LINENONE;
 232              		.loc 1 177 0
 233 0000 0023     		movs	r3, #0	@ tmp135,
 178:cmsis/device/stm32f4xx_exti.c ****   EXTI_InitStruct->EXTI_Mode = EXTI_Mode_Interrupt;
 179:cmsis/device/stm32f4xx_exti.c ****   EXTI_InitStruct->EXTI_Trigger = EXTI_Trigger_Falling;
 234              		.loc 1 179 0
 235 0002 0C22     		movs	r2, #12	@ tmp138,
 177:cmsis/device/stm32f4xx_exti.c ****   EXTI_InitStruct->EXTI_Line = EXTI_LINENONE;
 236              		.loc 1 177 0
 237 0004 0360     		str	r3, [r0, #0]	@ tmp135, EXTI_InitStruct_1(D)->EXTI_Line
 178:cmsis/device/stm32f4xx_exti.c ****   EXTI_InitStruct->EXTI_Mode = EXTI_Mode_Interrupt;
 238              		.loc 1 178 0
 239 0006 0371     		strb	r3, [r0, #4]	@ tmp135, EXTI_InitStruct_1(D)->EXTI_Mode
 240              		.loc 1 179 0
 241 0008 4271     		strb	r2, [r0, #5]	@ tmp138, EXTI_InitStruct_1(D)->EXTI_Trigger
 180:cmsis/device/stm32f4xx_exti.c ****   EXTI_InitStruct->EXTI_LineCmd = DISABLE;
 242              		.loc 1 180 0
 243 000a 8371     		strb	r3, [r0, #6]	@ tmp135, EXTI_InitStruct_1(D)->EXTI_LineCmd
 244 000c 7047     		bx	lr	@
 245              		.cfi_endproc
 246              	.LFE112:
 247              		.size	EXTI_StructInit, .-EXTI_StructInit
 248 000e 00BF     		.section	.text.EXTI_GenerateSWInterrupt,"ax",%progbits
 249              		.align	2
 250              		.global	EXTI_GenerateSWInterrupt
 251              		.thumb
 252              		.thumb_func
 253              		.type	EXTI_GenerateSWInterrupt, %function
 254              	EXTI_GenerateSWInterrupt:
 255              	.LFB113:
 181:cmsis/device/stm32f4xx_exti.c **** }
 182:cmsis/device/stm32f4xx_exti.c **** 
ARM GAS  C:\Users\CNous\AppData\Local\Temp\ccZZVbMp.s 			page 9


 183:cmsis/device/stm32f4xx_exti.c **** /**
 184:cmsis/device/stm32f4xx_exti.c ****   * @brief  Generates a Software interrupt on selected EXTI line.
 185:cmsis/device/stm32f4xx_exti.c ****   * @param  EXTI_Line: specifies the EXTI line on which the software interrupt
 186:cmsis/device/stm32f4xx_exti.c ****   *         will be generated.
 187:cmsis/device/stm32f4xx_exti.c ****   *         This parameter can be any combination of EXTI_Linex where x can be (0..22)
 188:cmsis/device/stm32f4xx_exti.c ****   * @retval None
 189:cmsis/device/stm32f4xx_exti.c ****   */
 190:cmsis/device/stm32f4xx_exti.c **** void EXTI_GenerateSWInterrupt(uint32_t EXTI_Line)
 191:cmsis/device/stm32f4xx_exti.c **** {
 256              		.loc 1 191 0
 257              		.cfi_startproc
 258              		@ args = 0, pretend = 0, frame = 0
 259              		@ frame_needed = 0, uses_anonymous_args = 0
 260              		@ link register save eliminated.
 261              	.LVL11:
 192:cmsis/device/stm32f4xx_exti.c ****   /* Check the parameters */
 193:cmsis/device/stm32f4xx_exti.c ****   assert_param(IS_EXTI_LINE(EXTI_Line));
 194:cmsis/device/stm32f4xx_exti.c ****   
 195:cmsis/device/stm32f4xx_exti.c ****   EXTI->SWIER |= EXTI_Line;
 262              		.loc 1 195 0
 263 0000 4FF47053 		mov	r3, #15360	@ tmp137,
 264 0004 C4F20103 		movt	r3, 16385	@ tmp137,
 265 0008 1A69     		ldr	r2, [r3, #16]	@ D.6556, MEM[(struct EXTI_TypeDef *)1073822720B].SWIER
 266 000a 1043     		orrs	r0, r0, r2	@, D.6557, EXTI_Line, D.6556
 267              	.LVL12:
 268 000c 1861     		str	r0, [r3, #16]	@ D.6557, MEM[(struct EXTI_TypeDef *)1073822720B].SWIER
 269 000e 7047     		bx	lr	@
 270              		.cfi_endproc
 271              	.LFE113:
 272              		.size	EXTI_GenerateSWInterrupt, .-EXTI_GenerateSWInterrupt
 273              		.section	.text.EXTI_GetFlagStatus,"ax",%progbits
 274              		.align	2
 275              		.global	EXTI_GetFlagStatus
 276              		.thumb
 277              		.thumb_func
 278              		.type	EXTI_GetFlagStatus, %function
 279              	EXTI_GetFlagStatus:
 280              	.LFB114:
 196:cmsis/device/stm32f4xx_exti.c **** }
 197:cmsis/device/stm32f4xx_exti.c **** 
 198:cmsis/device/stm32f4xx_exti.c **** /**
 199:cmsis/device/stm32f4xx_exti.c ****   * @}
 200:cmsis/device/stm32f4xx_exti.c ****   */
 201:cmsis/device/stm32f4xx_exti.c **** 
 202:cmsis/device/stm32f4xx_exti.c **** /** @defgroup EXTI_Group2 Interrupts and flags management functions
 203:cmsis/device/stm32f4xx_exti.c ****  *  @brief   Interrupts and flags management functions 
 204:cmsis/device/stm32f4xx_exti.c ****  *
 205:cmsis/device/stm32f4xx_exti.c **** @verbatim   
 206:cmsis/device/stm32f4xx_exti.c ****  ===============================================================================
 207:cmsis/device/stm32f4xx_exti.c ****                   Interrupts and flags management functions
 208:cmsis/device/stm32f4xx_exti.c ****  ===============================================================================  
 209:cmsis/device/stm32f4xx_exti.c **** 
 210:cmsis/device/stm32f4xx_exti.c **** @endverbatim
 211:cmsis/device/stm32f4xx_exti.c ****   * @{
 212:cmsis/device/stm32f4xx_exti.c ****   */
 213:cmsis/device/stm32f4xx_exti.c **** 
 214:cmsis/device/stm32f4xx_exti.c **** /**
ARM GAS  C:\Users\CNous\AppData\Local\Temp\ccZZVbMp.s 			page 10


 215:cmsis/device/stm32f4xx_exti.c ****   * @brief  Checks whether the specified EXTI line flag is set or not.
 216:cmsis/device/stm32f4xx_exti.c ****   * @param  EXTI_Line: specifies the EXTI line flag to check.
 217:cmsis/device/stm32f4xx_exti.c ****   *          This parameter can be EXTI_Linex where x can be(0..22)
 218:cmsis/device/stm32f4xx_exti.c ****   * @retval The new state of EXTI_Line (SET or RESET).
 219:cmsis/device/stm32f4xx_exti.c ****   */
 220:cmsis/device/stm32f4xx_exti.c **** FlagStatus EXTI_GetFlagStatus(uint32_t EXTI_Line)
 221:cmsis/device/stm32f4xx_exti.c **** {
 281              		.loc 1 221 0
 282              		.cfi_startproc
 283              		@ args = 0, pretend = 0, frame = 0
 284              		@ frame_needed = 0, uses_anonymous_args = 0
 285              		@ link register save eliminated.
 286              	.LVL13:
 222:cmsis/device/stm32f4xx_exti.c ****   FlagStatus bitstatus = RESET;
 223:cmsis/device/stm32f4xx_exti.c ****   /* Check the parameters */
 224:cmsis/device/stm32f4xx_exti.c ****   assert_param(IS_GET_EXTI_LINE(EXTI_Line));
 225:cmsis/device/stm32f4xx_exti.c ****   
 226:cmsis/device/stm32f4xx_exti.c ****   if ((EXTI->PR & EXTI_Line) != (uint32_t)RESET)
 287              		.loc 1 226 0
 288 0000 4FF47053 		mov	r3, #15360	@ tmp140,
 289 0004 C4F20103 		movt	r3, 16385	@ tmp140,
 290 0008 5969     		ldr	r1, [r3, #20]	@ D.6548, MEM[(struct EXTI_TypeDef *)1073822720B].PR
 291              	.LVL14:
 292 000a 0842     		tst	r0, r1	@ EXTI_Line, D.6548
 227:cmsis/device/stm32f4xx_exti.c ****   {
 228:cmsis/device/stm32f4xx_exti.c ****     bitstatus = SET;
 229:cmsis/device/stm32f4xx_exti.c ****   }
 230:cmsis/device/stm32f4xx_exti.c ****   else
 231:cmsis/device/stm32f4xx_exti.c ****   {
 232:cmsis/device/stm32f4xx_exti.c ****     bitstatus = RESET;
 233:cmsis/device/stm32f4xx_exti.c ****   }
 234:cmsis/device/stm32f4xx_exti.c ****   return bitstatus;
 235:cmsis/device/stm32f4xx_exti.c **** }
 293              		.loc 1 235 0
 294 000c 0CBF     		ite	eq	@
 295 000e 0020     		moveq	r0, #0	@,
 296 0010 0120     		movne	r0, #1	@,
 297              	.LVL15:
 298 0012 7047     		bx	lr	@
 299              		.cfi_endproc
 300              	.LFE114:
 301              		.size	EXTI_GetFlagStatus, .-EXTI_GetFlagStatus
 302              		.section	.text.EXTI_ClearFlag,"ax",%progbits
 303              		.align	2
 304              		.global	EXTI_ClearFlag
 305              		.thumb
 306              		.thumb_func
 307              		.type	EXTI_ClearFlag, %function
 308              	EXTI_ClearFlag:
 309              	.LFB115:
 236:cmsis/device/stm32f4xx_exti.c **** 
 237:cmsis/device/stm32f4xx_exti.c **** /**
 238:cmsis/device/stm32f4xx_exti.c ****   * @brief  Clears the EXTI's line pending flags.
 239:cmsis/device/stm32f4xx_exti.c ****   * @param  EXTI_Line: specifies the EXTI lines flags to clear.
 240:cmsis/device/stm32f4xx_exti.c ****   *          This parameter can be any combination of EXTI_Linex where x can be (0..22)
 241:cmsis/device/stm32f4xx_exti.c ****   * @retval None
 242:cmsis/device/stm32f4xx_exti.c ****   */
ARM GAS  C:\Users\CNous\AppData\Local\Temp\ccZZVbMp.s 			page 11


 243:cmsis/device/stm32f4xx_exti.c **** void EXTI_ClearFlag(uint32_t EXTI_Line)
 244:cmsis/device/stm32f4xx_exti.c **** {
 310              		.loc 1 244 0
 311              		.cfi_startproc
 312              		@ args = 0, pretend = 0, frame = 0
 313              		@ frame_needed = 0, uses_anonymous_args = 0
 314              		@ link register save eliminated.
 315              	.LVL16:
 245:cmsis/device/stm32f4xx_exti.c ****   /* Check the parameters */
 246:cmsis/device/stm32f4xx_exti.c ****   assert_param(IS_EXTI_LINE(EXTI_Line));
 247:cmsis/device/stm32f4xx_exti.c ****   
 248:cmsis/device/stm32f4xx_exti.c ****   EXTI->PR = EXTI_Line;
 316              		.loc 1 248 0
 317 0000 4FF47053 		mov	r3, #15360	@ tmp136,
 318 0004 C4F20103 		movt	r3, 16385	@ tmp136,
 319 0008 5861     		str	r0, [r3, #20]	@ EXTI_Line, MEM[(struct EXTI_TypeDef *)1073822720B].PR
 320 000a 7047     		bx	lr	@
 321              		.cfi_endproc
 322              	.LFE115:
 323              		.size	EXTI_ClearFlag, .-EXTI_ClearFlag
 324              		.section	.text.EXTI_GetITStatus,"ax",%progbits
 325              		.align	2
 326              		.global	EXTI_GetITStatus
 327              		.thumb
 328              		.thumb_func
 329              		.type	EXTI_GetITStatus, %function
 330              	EXTI_GetITStatus:
 331              	.LFB116:
 249:cmsis/device/stm32f4xx_exti.c **** }
 250:cmsis/device/stm32f4xx_exti.c **** 
 251:cmsis/device/stm32f4xx_exti.c **** /**
 252:cmsis/device/stm32f4xx_exti.c ****   * @brief  Checks whether the specified EXTI line is asserted or not.
 253:cmsis/device/stm32f4xx_exti.c ****   * @param  EXTI_Line: specifies the EXTI line to check.
 254:cmsis/device/stm32f4xx_exti.c ****   *          This parameter can be EXTI_Linex where x can be(0..22)
 255:cmsis/device/stm32f4xx_exti.c ****   * @retval The new state of EXTI_Line (SET or RESET).
 256:cmsis/device/stm32f4xx_exti.c ****   */
 257:cmsis/device/stm32f4xx_exti.c **** ITStatus EXTI_GetITStatus(uint32_t EXTI_Line)
 258:cmsis/device/stm32f4xx_exti.c **** {
 332              		.loc 1 258 0
 333              		.cfi_startproc
 334              		@ args = 0, pretend = 0, frame = 0
 335              		@ frame_needed = 0, uses_anonymous_args = 0
 336              		@ link register save eliminated.
 337              	.LVL17:
 259:cmsis/device/stm32f4xx_exti.c ****   ITStatus bitstatus = RESET;
 260:cmsis/device/stm32f4xx_exti.c ****   uint32_t enablestatus = 0;
 261:cmsis/device/stm32f4xx_exti.c ****   /* Check the parameters */
 262:cmsis/device/stm32f4xx_exti.c ****   assert_param(IS_GET_EXTI_LINE(EXTI_Line));
 263:cmsis/device/stm32f4xx_exti.c ****   
 264:cmsis/device/stm32f4xx_exti.c ****   enablestatus =  EXTI->IMR & EXTI_Line;
 338              		.loc 1 264 0
 339 0000 4FF47053 		mov	r3, #15360	@ tmp142,
 340 0004 C4F20103 		movt	r3, 16385	@ tmp142,
 341 0008 1A68     		ldr	r2, [r3, #0]	@ D.6537, MEM[(struct EXTI_TypeDef *)1073822720B].IMR
 342              	.LVL18:
 265:cmsis/device/stm32f4xx_exti.c ****   if (((EXTI->PR & EXTI_Line) != (uint32_t)RESET) && (enablestatus != (uint32_t)RESET))
 343              		.loc 1 265 0
ARM GAS  C:\Users\CNous\AppData\Local\Temp\ccZZVbMp.s 			page 12


 344 000a 5969     		ldr	r1, [r3, #20]	@ D.6540, MEM[(struct EXTI_TypeDef *)1073822720B].PR
 345 000c 10EA0103 		ands	r3, r0, r1	@ tmp144, EXTI_Line, D.6540
 346 0010 04D0     		beq	.L14	@,
 347              		.loc 1 265 0 is_stmt 0 discriminator 1
 348 0012 1042     		tst	r0, r2	@ EXTI_Line, D.6537
 266:cmsis/device/stm32f4xx_exti.c ****   {
 267:cmsis/device/stm32f4xx_exti.c ****     bitstatus = SET;
 349              		.loc 1 267 0 is_stmt 1 discriminator 1
 350 0014 0CBF     		ite	eq	@
 351 0016 0020     		moveq	r0, #0	@, bitstatus
 352 0018 0120     		movne	r0, #1	@, bitstatus
 353              	.LVL19:
 354 001a 7047     		bx	lr	@
 355              	.LVL20:
 356              	.L14:
 268:cmsis/device/stm32f4xx_exti.c ****   }
 269:cmsis/device/stm32f4xx_exti.c ****   else
 270:cmsis/device/stm32f4xx_exti.c ****   {
 271:cmsis/device/stm32f4xx_exti.c ****     bitstatus = RESET;
 357              		.loc 1 271 0
 358 001c 1846     		mov	r0, r3	@ bitstatus, tmp144
 359              	.LVL21:
 272:cmsis/device/stm32f4xx_exti.c ****   }
 273:cmsis/device/stm32f4xx_exti.c ****   return bitstatus;
 274:cmsis/device/stm32f4xx_exti.c **** }
 360              		.loc 1 274 0
 361 001e 7047     		bx	lr	@
 362              		.cfi_endproc
 363              	.LFE116:
 364              		.size	EXTI_GetITStatus, .-EXTI_GetITStatus
 365              		.section	.text.EXTI_ClearITPendingBit,"ax",%progbits
 366              		.align	2
 367              		.global	EXTI_ClearITPendingBit
 368              		.thumb
 369              		.thumb_func
 370              		.type	EXTI_ClearITPendingBit, %function
 371              	EXTI_ClearITPendingBit:
 372              	.LFB117:
 275:cmsis/device/stm32f4xx_exti.c **** 
 276:cmsis/device/stm32f4xx_exti.c **** /**
 277:cmsis/device/stm32f4xx_exti.c ****   * @brief  Clears the EXTI's line pending bits.
 278:cmsis/device/stm32f4xx_exti.c ****   * @param  EXTI_Line: specifies the EXTI lines to clear.
 279:cmsis/device/stm32f4xx_exti.c ****   *          This parameter can be any combination of EXTI_Linex where x can be (0..22)
 280:cmsis/device/stm32f4xx_exti.c ****   * @retval None
 281:cmsis/device/stm32f4xx_exti.c ****   */
 282:cmsis/device/stm32f4xx_exti.c **** void EXTI_ClearITPendingBit(uint32_t EXTI_Line)
 283:cmsis/device/stm32f4xx_exti.c **** {
 373              		.loc 1 283 0
 374              		.cfi_startproc
 375              		@ args = 0, pretend = 0, frame = 0
 376              		@ frame_needed = 0, uses_anonymous_args = 0
 377              		@ link register save eliminated.
 378              	.LVL22:
 284:cmsis/device/stm32f4xx_exti.c ****   /* Check the parameters */
 285:cmsis/device/stm32f4xx_exti.c ****   assert_param(IS_EXTI_LINE(EXTI_Line));
 286:cmsis/device/stm32f4xx_exti.c ****   
 287:cmsis/device/stm32f4xx_exti.c ****   EXTI->PR = EXTI_Line;
ARM GAS  C:\Users\CNous\AppData\Local\Temp\ccZZVbMp.s 			page 13


 379              		.loc 1 287 0
 380 0000 4FF47053 		mov	r3, #15360	@ tmp136,
 381 0004 C4F20103 		movt	r3, 16385	@ tmp136,
 382 0008 5861     		str	r0, [r3, #20]	@ EXTI_Line, MEM[(struct EXTI_TypeDef *)1073822720B].PR
 383 000a 7047     		bx	lr	@
 384              		.cfi_endproc
 385              	.LFE117:
 386              		.size	EXTI_ClearITPendingBit, .-EXTI_ClearITPendingBit
 387              		.text
 388              	.Letext0:
 389              		.file 2 "c:\\gnutoolsarmembedded\\4.7-2012q4\\bin\\../lib/gcc/arm-none-eabi/4.7.3/../../../../arm-
 390              		.file 3 "cmsis/device/stm32f4xx.h"
 391              		.file 4 "cmsis/device/stm32f4xx_exti.h"
 392              		.file 5 "./cmsis/core/core_cm4.h"
 393              		.section	.debug_info,"",%progbits
 394              	.Ldebug_info0:
 395 0000 71030000 		.4byte	0x371
 396 0004 0200     		.2byte	0x2
 397 0006 00000000 		.4byte	.Ldebug_abbrev0
 398 000a 04       		.byte	0x4
 399 000b 01       		.uleb128 0x1
 400 000c 88010000 		.4byte	.LASF44
 401 0010 01       		.byte	0x1
 402 0011 21020000 		.4byte	.LASF45
 403 0015 14000000 		.4byte	.LASF46
 404 0019 00000000 		.4byte	.Ldebug_ranges0+0
 405 001d 00000000 		.4byte	0
 406 0021 00000000 		.4byte	0
 407 0025 00000000 		.4byte	.Ldebug_line0
 408 0029 02       		.uleb128 0x2
 409 002a 01       		.byte	0x1
 410 002b 06       		.byte	0x6
 411 002c D8020000 		.4byte	.LASF0
 412 0030 02       		.uleb128 0x2
 413 0031 01       		.byte	0x1
 414 0032 08       		.byte	0x8
 415 0033 10010000 		.4byte	.LASF1
 416 0037 02       		.uleb128 0x2
 417 0038 02       		.byte	0x2
 418 0039 05       		.byte	0x5
 419 003a C0020000 		.4byte	.LASF2
 420 003e 02       		.uleb128 0x2
 421 003f 02       		.byte	0x2
 422 0040 07       		.byte	0x7
 423 0041 8E000000 		.4byte	.LASF3
 424 0045 03       		.uleb128 0x3
 425 0046 79020000 		.4byte	.LASF5
 426 004a 02       		.byte	0x2
 427 004b 4F       		.byte	0x4f
 428 004c 50000000 		.4byte	0x50
 429 0050 02       		.uleb128 0x2
 430 0051 04       		.byte	0x4
 431 0052 05       		.byte	0x5
 432 0053 CF020000 		.4byte	.LASF4
 433 0057 03       		.uleb128 0x3
 434 0058 D1010000 		.4byte	.LASF6
 435 005c 02       		.byte	0x2
ARM GAS  C:\Users\CNous\AppData\Local\Temp\ccZZVbMp.s 			page 14


 436 005d 50       		.byte	0x50
 437 005e 62000000 		.4byte	0x62
 438 0062 02       		.uleb128 0x2
 439 0063 04       		.byte	0x4
 440 0064 07       		.byte	0x7
 441 0065 38010000 		.4byte	.LASF7
 442 0069 02       		.uleb128 0x2
 443 006a 08       		.byte	0x8
 444 006b 05       		.byte	0x5
 445 006c 8A020000 		.4byte	.LASF8
 446 0070 02       		.uleb128 0x2
 447 0071 08       		.byte	0x8
 448 0072 07       		.byte	0x7
 449 0073 3F020000 		.4byte	.LASF9
 450 0077 04       		.uleb128 0x4
 451 0078 04       		.byte	0x4
 452 0079 05       		.byte	0x5
 453 007a 696E7400 		.ascii	"int\000"
 454 007e 02       		.uleb128 0x2
 455 007f 04       		.byte	0x4
 456 0080 07       		.byte	0x7
 457 0081 0A020000 		.4byte	.LASF10
 458 0085 02       		.uleb128 0x2
 459 0086 04       		.byte	0x4
 460 0087 07       		.byte	0x7
 461 0088 81020000 		.4byte	.LASF11
 462 008c 05       		.uleb128 0x5
 463 008d 57000000 		.4byte	0x57
 464 0091 05       		.uleb128 0x5
 465 0092 45000000 		.4byte	0x45
 466 0096 06       		.uleb128 0x6
 467 0097 01       		.byte	0x1
 468 0098 03       		.byte	0x3
 469 0099 1801     		.2byte	0x118
 470 009b AC000000 		.4byte	0xac
 471 009f 07       		.uleb128 0x7
 472 00a0 4A010000 		.4byte	.LASF12
 473 00a4 00       		.sleb128 0
 474 00a5 08       		.uleb128 0x8
 475 00a6 53455400 		.ascii	"SET\000"
 476 00aa 01       		.sleb128 1
 477 00ab 00       		.byte	0
 478 00ac 09       		.uleb128 0x9
 479 00ad 1E010000 		.4byte	.LASF13
 480 00b1 03       		.byte	0x3
 481 00b2 1801     		.2byte	0x118
 482 00b4 96000000 		.4byte	0x96
 483 00b8 09       		.uleb128 0x9
 484 00b9 39000000 		.4byte	.LASF14
 485 00bd 03       		.byte	0x3
 486 00be 1801     		.2byte	0x118
 487 00c0 96000000 		.4byte	0x96
 488 00c4 06       		.uleb128 0x6
 489 00c5 01       		.byte	0x1
 490 00c6 03       		.byte	0x3
 491 00c7 1A01     		.2byte	0x11a
 492 00c9 DA000000 		.4byte	0xda
ARM GAS  C:\Users\CNous\AppData\Local\Temp\ccZZVbMp.s 			page 15


 493 00cd 07       		.uleb128 0x7
 494 00ce 6E010000 		.4byte	.LASF15
 495 00d2 00       		.sleb128 0
 496 00d3 07       		.uleb128 0x7
 497 00d4 F5000000 		.4byte	.LASF16
 498 00d8 01       		.sleb128 1
 499 00d9 00       		.byte	0
 500 00da 09       		.uleb128 0x9
 501 00db A1000000 		.4byte	.LASF17
 502 00df 03       		.byte	0x3
 503 00e0 1A01     		.2byte	0x11a
 504 00e2 C4000000 		.4byte	0xc4
 505 00e6 0A       		.uleb128 0xa
 506 00e7 18       		.byte	0x18
 507 00e8 03       		.byte	0x3
 508 00e9 3202     		.2byte	0x232
 509 00eb 49010000 		.4byte	0x149
 510 00ef 0B       		.uleb128 0xb
 511 00f0 494D5200 		.ascii	"IMR\000"
 512 00f4 03       		.byte	0x3
 513 00f5 3402     		.2byte	0x234
 514 00f7 8C000000 		.4byte	0x8c
 515 00fb 02       		.byte	0x2
 516 00fc 23       		.byte	0x23
 517 00fd 00       		.uleb128 0
 518 00fe 0B       		.uleb128 0xb
 519 00ff 454D5200 		.ascii	"EMR\000"
 520 0103 03       		.byte	0x3
 521 0104 3502     		.2byte	0x235
 522 0106 8C000000 		.4byte	0x8c
 523 010a 02       		.byte	0x2
 524 010b 23       		.byte	0x23
 525 010c 04       		.uleb128 0x4
 526 010d 0C       		.uleb128 0xc
 527 010e 83010000 		.4byte	.LASF18
 528 0112 03       		.byte	0x3
 529 0113 3602     		.2byte	0x236
 530 0115 8C000000 		.4byte	0x8c
 531 0119 02       		.byte	0x2
 532 011a 23       		.byte	0x23
 533 011b 08       		.uleb128 0x8
 534 011c 0C       		.uleb128 0xc
 535 011d CA020000 		.4byte	.LASF19
 536 0121 03       		.byte	0x3
 537 0122 3702     		.2byte	0x237
 538 0124 8C000000 		.4byte	0x8c
 539 0128 02       		.byte	0x2
 540 0129 23       		.byte	0x23
 541 012a 0C       		.uleb128 0xc
 542 012b 0C       		.uleb128 0xc
 543 012c F8020000 		.4byte	.LASF20
 544 0130 03       		.byte	0x3
 545 0131 3802     		.2byte	0x238
 546 0133 8C000000 		.4byte	0x8c
 547 0137 02       		.byte	0x2
 548 0138 23       		.byte	0x23
 549 0139 10       		.uleb128 0x10
ARM GAS  C:\Users\CNous\AppData\Local\Temp\ccZZVbMp.s 			page 16


 550 013a 0B       		.uleb128 0xb
 551 013b 505200   		.ascii	"PR\000"
 552 013e 03       		.byte	0x3
 553 013f 3902     		.2byte	0x239
 554 0141 8C000000 		.4byte	0x8c
 555 0145 02       		.byte	0x2
 556 0146 23       		.byte	0x23
 557 0147 14       		.uleb128 0x14
 558 0148 00       		.byte	0
 559 0149 09       		.uleb128 0x9
 560 014a 61010000 		.4byte	.LASF21
 561 014e 03       		.byte	0x3
 562 014f 3A02     		.2byte	0x23a
 563 0151 E6000000 		.4byte	0xe6
 564 0155 0D       		.uleb128 0xd
 565 0156 01       		.byte	0x1
 566 0157 04       		.byte	0x4
 567 0158 31       		.byte	0x31
 568 0159 6A010000 		.4byte	0x16a
 569 015d 07       		.uleb128 0x7
 570 015e FC000000 		.4byte	.LASF22
 571 0162 00       		.sleb128 0
 572 0163 07       		.uleb128 0x7
 573 0164 7E000000 		.4byte	.LASF23
 574 0168 04       		.sleb128 4
 575 0169 00       		.byte	0
 576 016a 03       		.uleb128 0x3
 577 016b 50010000 		.4byte	.LASF24
 578 016f 04       		.byte	0x4
 579 0170 34       		.byte	0x34
 580 0171 55010000 		.4byte	0x155
 581 0175 0D       		.uleb128 0xd
 582 0176 01       		.byte	0x1
 583 0177 04       		.byte	0x4
 584 0178 3D       		.byte	0x3d
 585 0179 90010000 		.4byte	0x190
 586 017d 07       		.uleb128 0x7
 587 017e DA010000 		.4byte	.LASF25
 588 0182 08       		.sleb128 8
 589 0183 07       		.uleb128 0x7
 590 0184 69000000 		.4byte	.LASF26
 591 0188 0C       		.sleb128 12
 592 0189 07       		.uleb128 0x7
 593 018a EE010000 		.4byte	.LASF27
 594 018e 10       		.sleb128 16
 595 018f 00       		.byte	0
 596 0190 03       		.uleb128 0x3
 597 0191 E4020000 		.4byte	.LASF28
 598 0195 04       		.byte	0x4
 599 0196 41       		.byte	0x41
 600 0197 75010000 		.4byte	0x175
 601 019b 0E       		.uleb128 0xe
 602 019c 08       		.byte	0x8
 603 019d 04       		.byte	0x4
 604 019e 4A       		.byte	0x4a
 605 019f DC010000 		.4byte	0x1dc
 606 01a3 0F       		.uleb128 0xf
ARM GAS  C:\Users\CNous\AppData\Local\Temp\ccZZVbMp.s 			page 17


 607 01a4 00000000 		.4byte	.LASF29
 608 01a8 04       		.byte	0x4
 609 01a9 4C       		.byte	0x4c
 610 01aa 57000000 		.4byte	0x57
 611 01ae 02       		.byte	0x2
 612 01af 23       		.byte	0x23
 613 01b0 00       		.uleb128 0
 614 01b1 0F       		.uleb128 0xf
 615 01b2 0A000000 		.4byte	.LASF30
 616 01b6 04       		.byte	0x4
 617 01b7 4F       		.byte	0x4f
 618 01b8 6A010000 		.4byte	0x16a
 619 01bc 02       		.byte	0x2
 620 01bd 23       		.byte	0x23
 621 01be 04       		.uleb128 0x4
 622 01bf 0F       		.uleb128 0xf
 623 01c0 5C000000 		.4byte	.LASF31
 624 01c4 04       		.byte	0x4
 625 01c5 52       		.byte	0x52
 626 01c6 90010000 		.4byte	0x190
 627 01ca 02       		.byte	0x2
 628 01cb 23       		.byte	0x23
 629 01cc 05       		.uleb128 0x5
 630 01cd 0F       		.uleb128 0xf
 631 01ce 4F000000 		.4byte	.LASF32
 632 01d2 04       		.byte	0x4
 633 01d3 55       		.byte	0x55
 634 01d4 DA000000 		.4byte	0xda
 635 01d8 02       		.byte	0x2
 636 01d9 23       		.byte	0x23
 637 01da 06       		.uleb128 0x6
 638 01db 00       		.byte	0
 639 01dc 03       		.uleb128 0x3
 640 01dd D4000000 		.4byte	.LASF33
 641 01e1 04       		.byte	0x4
 642 01e2 57       		.byte	0x57
 643 01e3 9B010000 		.4byte	0x19b
 644 01e7 10       		.uleb128 0x10
 645 01e8 01       		.byte	0x1
 646 01e9 FE020000 		.4byte	.LASF47
 647 01ed 01       		.byte	0x1
 648 01ee 67       		.byte	0x67
 649 01ef 01       		.byte	0x1
 650 01f0 00000000 		.4byte	.LFB110
 651 01f4 1E000000 		.4byte	.LFE110
 652 01f8 02       		.byte	0x2
 653 01f9 7D       		.byte	0x7d
 654 01fa 00       		.sleb128 0
 655 01fb 01       		.byte	0x1
 656 01fc 11       		.uleb128 0x11
 657 01fd 01       		.byte	0x1
 658 01fe 17020000 		.4byte	.LASF34
 659 0202 01       		.byte	0x1
 660 0203 77       		.byte	0x77
 661 0204 01       		.byte	0x1
 662 0205 00000000 		.4byte	.LFB111
 663 0209 7C000000 		.4byte	.LFE111
ARM GAS  C:\Users\CNous\AppData\Local\Temp\ccZZVbMp.s 			page 18


 664 020d 00000000 		.4byte	.LLST0
 665 0211 01       		.byte	0x1
 666 0212 35020000 		.4byte	0x235
 667 0216 12       		.uleb128 0x12
 668 0217 E5000000 		.4byte	.LASF36
 669 021b 01       		.byte	0x1
 670 021c 77       		.byte	0x77
 671 021d 35020000 		.4byte	0x235
 672 0221 20000000 		.4byte	.LLST1
 673 0225 13       		.uleb128 0x13
 674 0226 746D7000 		.ascii	"tmp\000"
 675 022a 01       		.byte	0x1
 676 022b 79       		.byte	0x79
 677 022c 57000000 		.4byte	0x57
 678 0230 5A000000 		.4byte	.LLST2
 679 0234 00       		.byte	0
 680 0235 14       		.uleb128 0x14
 681 0236 04       		.byte	0x4
 682 0237 DC010000 		.4byte	0x1dc
 683 023b 15       		.uleb128 0x15
 684 023c 01       		.byte	0x1
 685 023d 69020000 		.4byte	.LASF35
 686 0241 01       		.byte	0x1
 687 0242 AF       		.byte	0xaf
 688 0243 01       		.byte	0x1
 689 0244 00000000 		.4byte	.LFB112
 690 0248 0E000000 		.4byte	.LFE112
 691 024c 02       		.byte	0x2
 692 024d 7D       		.byte	0x7d
 693 024e 00       		.sleb128 0
 694 024f 01       		.byte	0x1
 695 0250 62020000 		.4byte	0x262
 696 0254 16       		.uleb128 0x16
 697 0255 E5000000 		.4byte	.LASF36
 698 0259 01       		.byte	0x1
 699 025a AF       		.byte	0xaf
 700 025b 35020000 		.4byte	0x235
 701 025f 01       		.byte	0x1
 702 0260 50       		.byte	0x50
 703 0261 00       		.byte	0
 704 0262 15       		.uleb128 0x15
 705 0263 01       		.byte	0x1
 706 0264 BB000000 		.4byte	.LASF37
 707 0268 01       		.byte	0x1
 708 0269 BE       		.byte	0xbe
 709 026a 01       		.byte	0x1
 710 026b 00000000 		.4byte	.LFB113
 711 026f 10000000 		.4byte	.LFE113
 712 0273 02       		.byte	0x2
 713 0274 7D       		.byte	0x7d
 714 0275 00       		.sleb128 0
 715 0276 01       		.byte	0x1
 716 0277 8B020000 		.4byte	0x28b
 717 027b 12       		.uleb128 0x12
 718 027c 00000000 		.4byte	.LASF29
 719 0280 01       		.byte	0x1
 720 0281 BE       		.byte	0xbe
ARM GAS  C:\Users\CNous\AppData\Local\Temp\ccZZVbMp.s 			page 19


 721 0282 57000000 		.4byte	0x57
 722 0286 3D010000 		.4byte	.LLST3
 723 028a 00       		.byte	0
 724 028b 17       		.uleb128 0x17
 725 028c 01       		.byte	0x1
 726 028d 56020000 		.4byte	.LASF40
 727 0291 01       		.byte	0x1
 728 0292 DC       		.byte	0xdc
 729 0293 01       		.byte	0x1
 730 0294 AC000000 		.4byte	0xac
 731 0298 00000000 		.4byte	.LFB114
 732 029c 14000000 		.4byte	.LFE114
 733 02a0 02       		.byte	0x2
 734 02a1 7D       		.byte	0x7d
 735 02a2 00       		.sleb128 0
 736 02a3 01       		.byte	0x1
 737 02a4 C7020000 		.4byte	0x2c7
 738 02a8 12       		.uleb128 0x12
 739 02a9 00000000 		.4byte	.LASF29
 740 02ad 01       		.byte	0x1
 741 02ae DC       		.byte	0xdc
 742 02af 57000000 		.4byte	0x57
 743 02b3 5E010000 		.4byte	.LLST4
 744 02b7 18       		.uleb128 0x18
 745 02b8 B1000000 		.4byte	.LASF38
 746 02bc 01       		.byte	0x1
 747 02bd DE       		.byte	0xde
 748 02be AC000000 		.4byte	0xac
 749 02c2 7F010000 		.4byte	.LLST5
 750 02c6 00       		.byte	0
 751 02c7 15       		.uleb128 0x15
 752 02c8 01       		.byte	0x1
 753 02c9 29010000 		.4byte	.LASF39
 754 02cd 01       		.byte	0x1
 755 02ce F3       		.byte	0xf3
 756 02cf 01       		.byte	0x1
 757 02d0 00000000 		.4byte	.LFB115
 758 02d4 0C000000 		.4byte	.LFE115
 759 02d8 02       		.byte	0x2
 760 02d9 7D       		.byte	0x7d
 761 02da 00       		.sleb128 0
 762 02db 01       		.byte	0x1
 763 02dc EE020000 		.4byte	0x2ee
 764 02e0 16       		.uleb128 0x16
 765 02e1 00000000 		.4byte	.LASF29
 766 02e5 01       		.byte	0x1
 767 02e6 F3       		.byte	0xf3
 768 02e7 57000000 		.4byte	0x57
 769 02eb 01       		.byte	0x1
 770 02ec 50       		.byte	0x50
 771 02ed 00       		.byte	0
 772 02ee 19       		.uleb128 0x19
 773 02ef 01       		.byte	0x1
 774 02f0 98020000 		.4byte	.LASF41
 775 02f4 01       		.byte	0x1
 776 02f5 0101     		.2byte	0x101
 777 02f7 01       		.byte	0x1
ARM GAS  C:\Users\CNous\AppData\Local\Temp\ccZZVbMp.s 			page 20


 778 02f8 B8000000 		.4byte	0xb8
 779 02fc 00000000 		.4byte	.LFB116
 780 0300 20000000 		.4byte	.LFE116
 781 0304 02       		.byte	0x2
 782 0305 7D       		.byte	0x7d
 783 0306 00       		.sleb128 0
 784 0307 01       		.byte	0x1
 785 0308 3D030000 		.4byte	0x33d
 786 030c 1A       		.uleb128 0x1a
 787 030d 00000000 		.4byte	.LASF29
 788 0311 01       		.byte	0x1
 789 0312 0101     		.2byte	0x101
 790 0314 57000000 		.4byte	0x57
 791 0318 B8010000 		.4byte	.LLST6
 792 031c 1B       		.uleb128 0x1b
 793 031d B1000000 		.4byte	.LASF38
 794 0321 01       		.byte	0x1
 795 0322 0301     		.2byte	0x103
 796 0324 B8000000 		.4byte	0xb8
 797 0328 F2010000 		.4byte	.LLST7
 798 032c 1B       		.uleb128 0x1b
 799 032d 42000000 		.4byte	.LASF42
 800 0331 01       		.byte	0x1
 801 0332 0401     		.2byte	0x104
 802 0334 57000000 		.4byte	0x57
 803 0338 11020000 		.4byte	.LLST8
 804 033c 00       		.byte	0
 805 033d 1C       		.uleb128 0x1c
 806 033e 01       		.byte	0x1
 807 033f A9020000 		.4byte	.LASF43
 808 0343 01       		.byte	0x1
 809 0344 1A01     		.2byte	0x11a
 810 0346 01       		.byte	0x1
 811 0347 00000000 		.4byte	.LFB117
 812 034b 0C000000 		.4byte	.LFE117
 813 034f 02       		.byte	0x2
 814 0350 7D       		.byte	0x7d
 815 0351 00       		.sleb128 0
 816 0352 01       		.byte	0x1
 817 0353 66030000 		.4byte	0x366
 818 0357 1D       		.uleb128 0x1d
 819 0358 00000000 		.4byte	.LASF29
 820 035c 01       		.byte	0x1
 821 035d 1A01     		.2byte	0x11a
 822 035f 57000000 		.4byte	0x57
 823 0363 01       		.byte	0x1
 824 0364 50       		.byte	0x50
 825 0365 00       		.byte	0
 826 0366 1E       		.uleb128 0x1e
 827 0367 76010000 		.4byte	.LASF48
 828 036b 05       		.byte	0x5
 829 036c 1A05     		.2byte	0x51a
 830 036e 91000000 		.4byte	0x91
 831 0372 01       		.byte	0x1
 832 0373 01       		.byte	0x1
 833 0374 00       		.byte	0
 834              		.section	.debug_abbrev,"",%progbits
ARM GAS  C:\Users\CNous\AppData\Local\Temp\ccZZVbMp.s 			page 21


 835              	.Ldebug_abbrev0:
 836 0000 01       		.uleb128 0x1
 837 0001 11       		.uleb128 0x11
 838 0002 01       		.byte	0x1
 839 0003 25       		.uleb128 0x25
 840 0004 0E       		.uleb128 0xe
 841 0005 13       		.uleb128 0x13
 842 0006 0B       		.uleb128 0xb
 843 0007 03       		.uleb128 0x3
 844 0008 0E       		.uleb128 0xe
 845 0009 1B       		.uleb128 0x1b
 846 000a 0E       		.uleb128 0xe
 847 000b 55       		.uleb128 0x55
 848 000c 06       		.uleb128 0x6
 849 000d 11       		.uleb128 0x11
 850 000e 01       		.uleb128 0x1
 851 000f 52       		.uleb128 0x52
 852 0010 01       		.uleb128 0x1
 853 0011 10       		.uleb128 0x10
 854 0012 06       		.uleb128 0x6
 855 0013 00       		.byte	0
 856 0014 00       		.byte	0
 857 0015 02       		.uleb128 0x2
 858 0016 24       		.uleb128 0x24
 859 0017 00       		.byte	0
 860 0018 0B       		.uleb128 0xb
 861 0019 0B       		.uleb128 0xb
 862 001a 3E       		.uleb128 0x3e
 863 001b 0B       		.uleb128 0xb
 864 001c 03       		.uleb128 0x3
 865 001d 0E       		.uleb128 0xe
 866 001e 00       		.byte	0
 867 001f 00       		.byte	0
 868 0020 03       		.uleb128 0x3
 869 0021 16       		.uleb128 0x16
 870 0022 00       		.byte	0
 871 0023 03       		.uleb128 0x3
 872 0024 0E       		.uleb128 0xe
 873 0025 3A       		.uleb128 0x3a
 874 0026 0B       		.uleb128 0xb
 875 0027 3B       		.uleb128 0x3b
 876 0028 0B       		.uleb128 0xb
 877 0029 49       		.uleb128 0x49
 878 002a 13       		.uleb128 0x13
 879 002b 00       		.byte	0
 880 002c 00       		.byte	0
 881 002d 04       		.uleb128 0x4
 882 002e 24       		.uleb128 0x24
 883 002f 00       		.byte	0
 884 0030 0B       		.uleb128 0xb
 885 0031 0B       		.uleb128 0xb
 886 0032 3E       		.uleb128 0x3e
 887 0033 0B       		.uleb128 0xb
 888 0034 03       		.uleb128 0x3
 889 0035 08       		.uleb128 0x8
 890 0036 00       		.byte	0
 891 0037 00       		.byte	0
ARM GAS  C:\Users\CNous\AppData\Local\Temp\ccZZVbMp.s 			page 22


 892 0038 05       		.uleb128 0x5
 893 0039 35       		.uleb128 0x35
 894 003a 00       		.byte	0
 895 003b 49       		.uleb128 0x49
 896 003c 13       		.uleb128 0x13
 897 003d 00       		.byte	0
 898 003e 00       		.byte	0
 899 003f 06       		.uleb128 0x6
 900 0040 04       		.uleb128 0x4
 901 0041 01       		.byte	0x1
 902 0042 0B       		.uleb128 0xb
 903 0043 0B       		.uleb128 0xb
 904 0044 3A       		.uleb128 0x3a
 905 0045 0B       		.uleb128 0xb
 906 0046 3B       		.uleb128 0x3b
 907 0047 05       		.uleb128 0x5
 908 0048 01       		.uleb128 0x1
 909 0049 13       		.uleb128 0x13
 910 004a 00       		.byte	0
 911 004b 00       		.byte	0
 912 004c 07       		.uleb128 0x7
 913 004d 28       		.uleb128 0x28
 914 004e 00       		.byte	0
 915 004f 03       		.uleb128 0x3
 916 0050 0E       		.uleb128 0xe
 917 0051 1C       		.uleb128 0x1c
 918 0052 0D       		.uleb128 0xd
 919 0053 00       		.byte	0
 920 0054 00       		.byte	0
 921 0055 08       		.uleb128 0x8
 922 0056 28       		.uleb128 0x28
 923 0057 00       		.byte	0
 924 0058 03       		.uleb128 0x3
 925 0059 08       		.uleb128 0x8
 926 005a 1C       		.uleb128 0x1c
 927 005b 0D       		.uleb128 0xd
 928 005c 00       		.byte	0
 929 005d 00       		.byte	0
 930 005e 09       		.uleb128 0x9
 931 005f 16       		.uleb128 0x16
 932 0060 00       		.byte	0
 933 0061 03       		.uleb128 0x3
 934 0062 0E       		.uleb128 0xe
 935 0063 3A       		.uleb128 0x3a
 936 0064 0B       		.uleb128 0xb
 937 0065 3B       		.uleb128 0x3b
 938 0066 05       		.uleb128 0x5
 939 0067 49       		.uleb128 0x49
 940 0068 13       		.uleb128 0x13
 941 0069 00       		.byte	0
 942 006a 00       		.byte	0
 943 006b 0A       		.uleb128 0xa
 944 006c 13       		.uleb128 0x13
 945 006d 01       		.byte	0x1
 946 006e 0B       		.uleb128 0xb
 947 006f 0B       		.uleb128 0xb
 948 0070 3A       		.uleb128 0x3a
ARM GAS  C:\Users\CNous\AppData\Local\Temp\ccZZVbMp.s 			page 23


 949 0071 0B       		.uleb128 0xb
 950 0072 3B       		.uleb128 0x3b
 951 0073 05       		.uleb128 0x5
 952 0074 01       		.uleb128 0x1
 953 0075 13       		.uleb128 0x13
 954 0076 00       		.byte	0
 955 0077 00       		.byte	0
 956 0078 0B       		.uleb128 0xb
 957 0079 0D       		.uleb128 0xd
 958 007a 00       		.byte	0
 959 007b 03       		.uleb128 0x3
 960 007c 08       		.uleb128 0x8
 961 007d 3A       		.uleb128 0x3a
 962 007e 0B       		.uleb128 0xb
 963 007f 3B       		.uleb128 0x3b
 964 0080 05       		.uleb128 0x5
 965 0081 49       		.uleb128 0x49
 966 0082 13       		.uleb128 0x13
 967 0083 38       		.uleb128 0x38
 968 0084 0A       		.uleb128 0xa
 969 0085 00       		.byte	0
 970 0086 00       		.byte	0
 971 0087 0C       		.uleb128 0xc
 972 0088 0D       		.uleb128 0xd
 973 0089 00       		.byte	0
 974 008a 03       		.uleb128 0x3
 975 008b 0E       		.uleb128 0xe
 976 008c 3A       		.uleb128 0x3a
 977 008d 0B       		.uleb128 0xb
 978 008e 3B       		.uleb128 0x3b
 979 008f 05       		.uleb128 0x5
 980 0090 49       		.uleb128 0x49
 981 0091 13       		.uleb128 0x13
 982 0092 38       		.uleb128 0x38
 983 0093 0A       		.uleb128 0xa
 984 0094 00       		.byte	0
 985 0095 00       		.byte	0
 986 0096 0D       		.uleb128 0xd
 987 0097 04       		.uleb128 0x4
 988 0098 01       		.byte	0x1
 989 0099 0B       		.uleb128 0xb
 990 009a 0B       		.uleb128 0xb
 991 009b 3A       		.uleb128 0x3a
 992 009c 0B       		.uleb128 0xb
 993 009d 3B       		.uleb128 0x3b
 994 009e 0B       		.uleb128 0xb
 995 009f 01       		.uleb128 0x1
 996 00a0 13       		.uleb128 0x13
 997 00a1 00       		.byte	0
 998 00a2 00       		.byte	0
 999 00a3 0E       		.uleb128 0xe
 1000 00a4 13       		.uleb128 0x13
 1001 00a5 01       		.byte	0x1
 1002 00a6 0B       		.uleb128 0xb
 1003 00a7 0B       		.uleb128 0xb
 1004 00a8 3A       		.uleb128 0x3a
 1005 00a9 0B       		.uleb128 0xb
ARM GAS  C:\Users\CNous\AppData\Local\Temp\ccZZVbMp.s 			page 24


 1006 00aa 3B       		.uleb128 0x3b
 1007 00ab 0B       		.uleb128 0xb
 1008 00ac 01       		.uleb128 0x1
 1009 00ad 13       		.uleb128 0x13
 1010 00ae 00       		.byte	0
 1011 00af 00       		.byte	0
 1012 00b0 0F       		.uleb128 0xf
 1013 00b1 0D       		.uleb128 0xd
 1014 00b2 00       		.byte	0
 1015 00b3 03       		.uleb128 0x3
 1016 00b4 0E       		.uleb128 0xe
 1017 00b5 3A       		.uleb128 0x3a
 1018 00b6 0B       		.uleb128 0xb
 1019 00b7 3B       		.uleb128 0x3b
 1020 00b8 0B       		.uleb128 0xb
 1021 00b9 49       		.uleb128 0x49
 1022 00ba 13       		.uleb128 0x13
 1023 00bb 38       		.uleb128 0x38
 1024 00bc 0A       		.uleb128 0xa
 1025 00bd 00       		.byte	0
 1026 00be 00       		.byte	0
 1027 00bf 10       		.uleb128 0x10
 1028 00c0 2E       		.uleb128 0x2e
 1029 00c1 00       		.byte	0
 1030 00c2 3F       		.uleb128 0x3f
 1031 00c3 0C       		.uleb128 0xc
 1032 00c4 03       		.uleb128 0x3
 1033 00c5 0E       		.uleb128 0xe
 1034 00c6 3A       		.uleb128 0x3a
 1035 00c7 0B       		.uleb128 0xb
 1036 00c8 3B       		.uleb128 0x3b
 1037 00c9 0B       		.uleb128 0xb
 1038 00ca 27       		.uleb128 0x27
 1039 00cb 0C       		.uleb128 0xc
 1040 00cc 11       		.uleb128 0x11
 1041 00cd 01       		.uleb128 0x1
 1042 00ce 12       		.uleb128 0x12
 1043 00cf 01       		.uleb128 0x1
 1044 00d0 40       		.uleb128 0x40
 1045 00d1 0A       		.uleb128 0xa
 1046 00d2 9742     		.uleb128 0x2117
 1047 00d4 0C       		.uleb128 0xc
 1048 00d5 00       		.byte	0
 1049 00d6 00       		.byte	0
 1050 00d7 11       		.uleb128 0x11
 1051 00d8 2E       		.uleb128 0x2e
 1052 00d9 01       		.byte	0x1
 1053 00da 3F       		.uleb128 0x3f
 1054 00db 0C       		.uleb128 0xc
 1055 00dc 03       		.uleb128 0x3
 1056 00dd 0E       		.uleb128 0xe
 1057 00de 3A       		.uleb128 0x3a
 1058 00df 0B       		.uleb128 0xb
 1059 00e0 3B       		.uleb128 0x3b
 1060 00e1 0B       		.uleb128 0xb
 1061 00e2 27       		.uleb128 0x27
 1062 00e3 0C       		.uleb128 0xc
ARM GAS  C:\Users\CNous\AppData\Local\Temp\ccZZVbMp.s 			page 25


 1063 00e4 11       		.uleb128 0x11
 1064 00e5 01       		.uleb128 0x1
 1065 00e6 12       		.uleb128 0x12
 1066 00e7 01       		.uleb128 0x1
 1067 00e8 40       		.uleb128 0x40
 1068 00e9 06       		.uleb128 0x6
 1069 00ea 9742     		.uleb128 0x2117
 1070 00ec 0C       		.uleb128 0xc
 1071 00ed 01       		.uleb128 0x1
 1072 00ee 13       		.uleb128 0x13
 1073 00ef 00       		.byte	0
 1074 00f0 00       		.byte	0
 1075 00f1 12       		.uleb128 0x12
 1076 00f2 05       		.uleb128 0x5
 1077 00f3 00       		.byte	0
 1078 00f4 03       		.uleb128 0x3
 1079 00f5 0E       		.uleb128 0xe
 1080 00f6 3A       		.uleb128 0x3a
 1081 00f7 0B       		.uleb128 0xb
 1082 00f8 3B       		.uleb128 0x3b
 1083 00f9 0B       		.uleb128 0xb
 1084 00fa 49       		.uleb128 0x49
 1085 00fb 13       		.uleb128 0x13
 1086 00fc 02       		.uleb128 0x2
 1087 00fd 06       		.uleb128 0x6
 1088 00fe 00       		.byte	0
 1089 00ff 00       		.byte	0
 1090 0100 13       		.uleb128 0x13
 1091 0101 34       		.uleb128 0x34
 1092 0102 00       		.byte	0
 1093 0103 03       		.uleb128 0x3
 1094 0104 08       		.uleb128 0x8
 1095 0105 3A       		.uleb128 0x3a
 1096 0106 0B       		.uleb128 0xb
 1097 0107 3B       		.uleb128 0x3b
 1098 0108 0B       		.uleb128 0xb
 1099 0109 49       		.uleb128 0x49
 1100 010a 13       		.uleb128 0x13
 1101 010b 02       		.uleb128 0x2
 1102 010c 06       		.uleb128 0x6
 1103 010d 00       		.byte	0
 1104 010e 00       		.byte	0
 1105 010f 14       		.uleb128 0x14
 1106 0110 0F       		.uleb128 0xf
 1107 0111 00       		.byte	0
 1108 0112 0B       		.uleb128 0xb
 1109 0113 0B       		.uleb128 0xb
 1110 0114 49       		.uleb128 0x49
 1111 0115 13       		.uleb128 0x13
 1112 0116 00       		.byte	0
 1113 0117 00       		.byte	0
 1114 0118 15       		.uleb128 0x15
 1115 0119 2E       		.uleb128 0x2e
 1116 011a 01       		.byte	0x1
 1117 011b 3F       		.uleb128 0x3f
 1118 011c 0C       		.uleb128 0xc
 1119 011d 03       		.uleb128 0x3
ARM GAS  C:\Users\CNous\AppData\Local\Temp\ccZZVbMp.s 			page 26


 1120 011e 0E       		.uleb128 0xe
 1121 011f 3A       		.uleb128 0x3a
 1122 0120 0B       		.uleb128 0xb
 1123 0121 3B       		.uleb128 0x3b
 1124 0122 0B       		.uleb128 0xb
 1125 0123 27       		.uleb128 0x27
 1126 0124 0C       		.uleb128 0xc
 1127 0125 11       		.uleb128 0x11
 1128 0126 01       		.uleb128 0x1
 1129 0127 12       		.uleb128 0x12
 1130 0128 01       		.uleb128 0x1
 1131 0129 40       		.uleb128 0x40
 1132 012a 0A       		.uleb128 0xa
 1133 012b 9742     		.uleb128 0x2117
 1134 012d 0C       		.uleb128 0xc
 1135 012e 01       		.uleb128 0x1
 1136 012f 13       		.uleb128 0x13
 1137 0130 00       		.byte	0
 1138 0131 00       		.byte	0
 1139 0132 16       		.uleb128 0x16
 1140 0133 05       		.uleb128 0x5
 1141 0134 00       		.byte	0
 1142 0135 03       		.uleb128 0x3
 1143 0136 0E       		.uleb128 0xe
 1144 0137 3A       		.uleb128 0x3a
 1145 0138 0B       		.uleb128 0xb
 1146 0139 3B       		.uleb128 0x3b
 1147 013a 0B       		.uleb128 0xb
 1148 013b 49       		.uleb128 0x49
 1149 013c 13       		.uleb128 0x13
 1150 013d 02       		.uleb128 0x2
 1151 013e 0A       		.uleb128 0xa
 1152 013f 00       		.byte	0
 1153 0140 00       		.byte	0
 1154 0141 17       		.uleb128 0x17
 1155 0142 2E       		.uleb128 0x2e
 1156 0143 01       		.byte	0x1
 1157 0144 3F       		.uleb128 0x3f
 1158 0145 0C       		.uleb128 0xc
 1159 0146 03       		.uleb128 0x3
 1160 0147 0E       		.uleb128 0xe
 1161 0148 3A       		.uleb128 0x3a
 1162 0149 0B       		.uleb128 0xb
 1163 014a 3B       		.uleb128 0x3b
 1164 014b 0B       		.uleb128 0xb
 1165 014c 27       		.uleb128 0x27
 1166 014d 0C       		.uleb128 0xc
 1167 014e 49       		.uleb128 0x49
 1168 014f 13       		.uleb128 0x13
 1169 0150 11       		.uleb128 0x11
 1170 0151 01       		.uleb128 0x1
 1171 0152 12       		.uleb128 0x12
 1172 0153 01       		.uleb128 0x1
 1173 0154 40       		.uleb128 0x40
 1174 0155 0A       		.uleb128 0xa
 1175 0156 9742     		.uleb128 0x2117
 1176 0158 0C       		.uleb128 0xc
ARM GAS  C:\Users\CNous\AppData\Local\Temp\ccZZVbMp.s 			page 27


 1177 0159 01       		.uleb128 0x1
 1178 015a 13       		.uleb128 0x13
 1179 015b 00       		.byte	0
 1180 015c 00       		.byte	0
 1181 015d 18       		.uleb128 0x18
 1182 015e 34       		.uleb128 0x34
 1183 015f 00       		.byte	0
 1184 0160 03       		.uleb128 0x3
 1185 0161 0E       		.uleb128 0xe
 1186 0162 3A       		.uleb128 0x3a
 1187 0163 0B       		.uleb128 0xb
 1188 0164 3B       		.uleb128 0x3b
 1189 0165 0B       		.uleb128 0xb
 1190 0166 49       		.uleb128 0x49
 1191 0167 13       		.uleb128 0x13
 1192 0168 02       		.uleb128 0x2
 1193 0169 06       		.uleb128 0x6
 1194 016a 00       		.byte	0
 1195 016b 00       		.byte	0
 1196 016c 19       		.uleb128 0x19
 1197 016d 2E       		.uleb128 0x2e
 1198 016e 01       		.byte	0x1
 1199 016f 3F       		.uleb128 0x3f
 1200 0170 0C       		.uleb128 0xc
 1201 0171 03       		.uleb128 0x3
 1202 0172 0E       		.uleb128 0xe
 1203 0173 3A       		.uleb128 0x3a
 1204 0174 0B       		.uleb128 0xb
 1205 0175 3B       		.uleb128 0x3b
 1206 0176 05       		.uleb128 0x5
 1207 0177 27       		.uleb128 0x27
 1208 0178 0C       		.uleb128 0xc
 1209 0179 49       		.uleb128 0x49
 1210 017a 13       		.uleb128 0x13
 1211 017b 11       		.uleb128 0x11
 1212 017c 01       		.uleb128 0x1
 1213 017d 12       		.uleb128 0x12
 1214 017e 01       		.uleb128 0x1
 1215 017f 40       		.uleb128 0x40
 1216 0180 0A       		.uleb128 0xa
 1217 0181 9742     		.uleb128 0x2117
 1218 0183 0C       		.uleb128 0xc
 1219 0184 01       		.uleb128 0x1
 1220 0185 13       		.uleb128 0x13
 1221 0186 00       		.byte	0
 1222 0187 00       		.byte	0
 1223 0188 1A       		.uleb128 0x1a
 1224 0189 05       		.uleb128 0x5
 1225 018a 00       		.byte	0
 1226 018b 03       		.uleb128 0x3
 1227 018c 0E       		.uleb128 0xe
 1228 018d 3A       		.uleb128 0x3a
 1229 018e 0B       		.uleb128 0xb
 1230 018f 3B       		.uleb128 0x3b
 1231 0190 05       		.uleb128 0x5
 1232 0191 49       		.uleb128 0x49
 1233 0192 13       		.uleb128 0x13
ARM GAS  C:\Users\CNous\AppData\Local\Temp\ccZZVbMp.s 			page 28


 1234 0193 02       		.uleb128 0x2
 1235 0194 06       		.uleb128 0x6
 1236 0195 00       		.byte	0
 1237 0196 00       		.byte	0
 1238 0197 1B       		.uleb128 0x1b
 1239 0198 34       		.uleb128 0x34
 1240 0199 00       		.byte	0
 1241 019a 03       		.uleb128 0x3
 1242 019b 0E       		.uleb128 0xe
 1243 019c 3A       		.uleb128 0x3a
 1244 019d 0B       		.uleb128 0xb
 1245 019e 3B       		.uleb128 0x3b
 1246 019f 05       		.uleb128 0x5
 1247 01a0 49       		.uleb128 0x49
 1248 01a1 13       		.uleb128 0x13
 1249 01a2 02       		.uleb128 0x2
 1250 01a3 06       		.uleb128 0x6
 1251 01a4 00       		.byte	0
 1252 01a5 00       		.byte	0
 1253 01a6 1C       		.uleb128 0x1c
 1254 01a7 2E       		.uleb128 0x2e
 1255 01a8 01       		.byte	0x1
 1256 01a9 3F       		.uleb128 0x3f
 1257 01aa 0C       		.uleb128 0xc
 1258 01ab 03       		.uleb128 0x3
 1259 01ac 0E       		.uleb128 0xe
 1260 01ad 3A       		.uleb128 0x3a
 1261 01ae 0B       		.uleb128 0xb
 1262 01af 3B       		.uleb128 0x3b
 1263 01b0 05       		.uleb128 0x5
 1264 01b1 27       		.uleb128 0x27
 1265 01b2 0C       		.uleb128 0xc
 1266 01b3 11       		.uleb128 0x11
 1267 01b4 01       		.uleb128 0x1
 1268 01b5 12       		.uleb128 0x12
 1269 01b6 01       		.uleb128 0x1
 1270 01b7 40       		.uleb128 0x40
 1271 01b8 0A       		.uleb128 0xa
 1272 01b9 9742     		.uleb128 0x2117
 1273 01bb 0C       		.uleb128 0xc
 1274 01bc 01       		.uleb128 0x1
 1275 01bd 13       		.uleb128 0x13
 1276 01be 00       		.byte	0
 1277 01bf 00       		.byte	0
 1278 01c0 1D       		.uleb128 0x1d
 1279 01c1 05       		.uleb128 0x5
 1280 01c2 00       		.byte	0
 1281 01c3 03       		.uleb128 0x3
 1282 01c4 0E       		.uleb128 0xe
 1283 01c5 3A       		.uleb128 0x3a
 1284 01c6 0B       		.uleb128 0xb
 1285 01c7 3B       		.uleb128 0x3b
 1286 01c8 05       		.uleb128 0x5
 1287 01c9 49       		.uleb128 0x49
 1288 01ca 13       		.uleb128 0x13
 1289 01cb 02       		.uleb128 0x2
 1290 01cc 0A       		.uleb128 0xa
ARM GAS  C:\Users\CNous\AppData\Local\Temp\ccZZVbMp.s 			page 29


 1291 01cd 00       		.byte	0
 1292 01ce 00       		.byte	0
 1293 01cf 1E       		.uleb128 0x1e
 1294 01d0 34       		.uleb128 0x34
 1295 01d1 00       		.byte	0
 1296 01d2 03       		.uleb128 0x3
 1297 01d3 0E       		.uleb128 0xe
 1298 01d4 3A       		.uleb128 0x3a
 1299 01d5 0B       		.uleb128 0xb
 1300 01d6 3B       		.uleb128 0x3b
 1301 01d7 05       		.uleb128 0x5
 1302 01d8 49       		.uleb128 0x49
 1303 01d9 13       		.uleb128 0x13
 1304 01da 3F       		.uleb128 0x3f
 1305 01db 0C       		.uleb128 0xc
 1306 01dc 3C       		.uleb128 0x3c
 1307 01dd 0C       		.uleb128 0xc
 1308 01de 00       		.byte	0
 1309 01df 00       		.byte	0
 1310 01e0 00       		.byte	0
 1311              		.section	.debug_loc,"",%progbits
 1312              	.Ldebug_loc0:
 1313              	.LLST0:
 1314 0000 00000000 		.4byte	.LFB111
 1315 0004 04000000 		.4byte	.LCFI0
 1316 0008 0200     		.2byte	0x2
 1317 000a 7D       		.byte	0x7d
 1318 000b 00       		.sleb128 0
 1319 000c 04000000 		.4byte	.LCFI0
 1320 0010 7C000000 		.4byte	.LFE111
 1321 0014 0200     		.2byte	0x2
 1322 0016 7D       		.byte	0x7d
 1323 0017 0C       		.sleb128 12
 1324 0018 00000000 		.4byte	0
 1325 001c 00000000 		.4byte	0
 1326              	.LLST1:
 1327 0020 00000000 		.4byte	.LVL0
 1328 0024 34000000 		.4byte	.LVL2
 1329 0028 0100     		.2byte	0x1
 1330 002a 50       		.byte	0x50
 1331 002b 34000000 		.4byte	.LVL2
 1332 002f 56000000 		.4byte	.LVL6
 1333 0033 0400     		.2byte	0x4
 1334 0035 F3       		.byte	0xf3
 1335 0036 01       		.uleb128 0x1
 1336 0037 50       		.byte	0x50
 1337 0038 9F       		.byte	0x9f
 1338 0039 56000000 		.4byte	.LVL6
 1339 003d 5E000000 		.4byte	.LVL7
 1340 0041 0100     		.2byte	0x1
 1341 0043 50       		.byte	0x50
 1342 0044 5E000000 		.4byte	.LVL7
 1343 0048 7C000000 		.4byte	.LFE111
 1344 004c 0400     		.2byte	0x4
 1345 004e F3       		.byte	0xf3
 1346 004f 01       		.uleb128 0x1
 1347 0050 50       		.byte	0x50
ARM GAS  C:\Users\CNous\AppData\Local\Temp\ccZZVbMp.s 			page 30


 1348 0051 9F       		.byte	0x9f
 1349 0052 00000000 		.4byte	0
 1350 0056 00000000 		.4byte	0
 1351              	.LLST2:
 1352 005a 00000000 		.4byte	.LVL0
 1353 005e 2A000000 		.4byte	.LVL1
 1354 0062 0600     		.2byte	0x6
 1355 0064 0C       		.byte	0xc
 1356 0065 003C0140 		.4byte	0x40013c00
 1357 0069 9F       		.byte	0x9f
 1358 006a 2A000000 		.4byte	.LVL1
 1359 006e 34000000 		.4byte	.LVL2
 1360 0072 0E00     		.2byte	0xe
 1361 0074 70       		.byte	0x70
 1362 0075 04       		.sleb128 4
 1363 0076 94       		.byte	0x94
 1364 0077 01       		.byte	0x1
 1365 0078 08       		.byte	0x8
 1366 0079 FF       		.byte	0xff
 1367 007a 1A       		.byte	0x1a
 1368 007b 23       		.byte	0x23
 1369 007c 80F88480 		.uleb128 0x40013c00
 1369      04
 1370 0081 9F       		.byte	0x9f
 1371 0082 34000000 		.4byte	.LVL2
 1372 0086 46000000 		.4byte	.LVL3
 1373 008a 1100     		.2byte	0x11
 1374 008c F3       		.byte	0xf3
 1375 008d 01       		.uleb128 0x1
 1376 008e 50       		.byte	0x50
 1377 008f 23       		.byte	0x23
 1378 0090 04       		.uleb128 0x4
 1379 0091 94       		.byte	0x94
 1380 0092 01       		.byte	0x1
 1381 0093 08       		.byte	0x8
 1382 0094 FF       		.byte	0xff
 1383 0095 1A       		.byte	0x1a
 1384 0096 23       		.byte	0x23
 1385 0097 80F88480 		.uleb128 0x40013c00
 1385      04
 1386 009c 9F       		.byte	0x9f
 1387 009d 46000000 		.4byte	.LVL3
 1388 00a1 4A000000 		.4byte	.LVL4
 1389 00a5 0C00     		.2byte	0xc
 1390 00a7 75       		.byte	0x75
 1391 00a8 00       		.sleb128 0
 1392 00a9 08       		.byte	0x8
 1393 00aa FF       		.byte	0xff
 1394 00ab 1A       		.byte	0x1a
 1395 00ac 23       		.byte	0x23
 1396 00ad 80F88480 		.uleb128 0x40013c00
 1396      04
 1397 00b2 9F       		.byte	0x9f
 1398 00b3 4A000000 		.4byte	.LVL4
 1399 00b7 4E000000 		.4byte	.LVL5
 1400 00bb 1000     		.2byte	0x10
 1401 00bd 75       		.byte	0x75
ARM GAS  C:\Users\CNous\AppData\Local\Temp\ccZZVbMp.s 			page 31


 1402 00be 80808080 		.sleb128 -1073741824
 1402      7C
 1403 00c3 08       		.byte	0x8
 1404 00c4 FF       		.byte	0xff
 1405 00c5 1A       		.byte	0x1a
 1406 00c6 23       		.byte	0x23
 1407 00c7 80F88480 		.uleb128 0x40013c00
 1407      04
 1408 00cc 9F       		.byte	0x9f
 1409 00cd 4E000000 		.4byte	.LVL5
 1410 00d1 56000000 		.4byte	.LVL6
 1411 00d5 1000     		.2byte	0x10
 1412 00d7 75       		.byte	0x75
 1413 00d8 8088FBFF 		.sleb128 -1073822720
 1413      7B
 1414 00dd 08       		.byte	0x8
 1415 00de FF       		.byte	0xff
 1416 00df 1A       		.byte	0x1a
 1417 00e0 23       		.byte	0x23
 1418 00e1 80F88480 		.uleb128 0x40013c00
 1418      04
 1419 00e6 9F       		.byte	0x9f
 1420 00e7 56000000 		.4byte	.LVL6
 1421 00eb 5E000000 		.4byte	.LVL7
 1422 00ef 0E00     		.2byte	0xe
 1423 00f1 70       		.byte	0x70
 1424 00f2 04       		.sleb128 4
 1425 00f3 94       		.byte	0x94
 1426 00f4 01       		.byte	0x1
 1427 00f5 08       		.byte	0x8
 1428 00f6 FF       		.byte	0xff
 1429 00f7 1A       		.byte	0x1a
 1430 00f8 23       		.byte	0x23
 1431 00f9 80F88480 		.uleb128 0x40013c00
 1431      04
 1432 00fe 9F       		.byte	0x9f
 1433 00ff 5E000000 		.4byte	.LVL7
 1434 0103 6A000000 		.4byte	.LVL8
 1435 0107 1100     		.2byte	0x11
 1436 0109 F3       		.byte	0xf3
 1437 010a 01       		.uleb128 0x1
 1438 010b 50       		.byte	0x50
 1439 010c 23       		.byte	0x23
 1440 010d 04       		.uleb128 0x4
 1441 010e 94       		.byte	0x94
 1442 010f 01       		.byte	0x1
 1443 0110 08       		.byte	0x8
 1444 0111 FF       		.byte	0xff
 1445 0112 1A       		.byte	0x1a
 1446 0113 23       		.byte	0x23
 1447 0114 80F88480 		.uleb128 0x40013c00
 1447      04
 1448 0119 9F       		.byte	0x9f
 1449 011a 6E000000 		.4byte	.LVL9
 1450 011e 7C000000 		.4byte	.LFE111
 1451 0122 1100     		.2byte	0x11
 1452 0124 F3       		.byte	0xf3
ARM GAS  C:\Users\CNous\AppData\Local\Temp\ccZZVbMp.s 			page 32


 1453 0125 01       		.uleb128 0x1
 1454 0126 50       		.byte	0x50
 1455 0127 23       		.byte	0x23
 1456 0128 04       		.uleb128 0x4
 1457 0129 94       		.byte	0x94
 1458 012a 01       		.byte	0x1
 1459 012b 08       		.byte	0x8
 1460 012c FF       		.byte	0xff
 1461 012d 1A       		.byte	0x1a
 1462 012e 23       		.byte	0x23
 1463 012f 80F88480 		.uleb128 0x40013c00
 1463      04
 1464 0134 9F       		.byte	0x9f
 1465 0135 00000000 		.4byte	0
 1466 0139 00000000 		.4byte	0
 1467              	.LLST3:
 1468 013d 00000000 		.4byte	.LVL11
 1469 0141 0C000000 		.4byte	.LVL12
 1470 0145 0100     		.2byte	0x1
 1471 0147 50       		.byte	0x50
 1472 0148 0C000000 		.4byte	.LVL12
 1473 014c 10000000 		.4byte	.LFE113
 1474 0150 0400     		.2byte	0x4
 1475 0152 F3       		.byte	0xf3
 1476 0153 01       		.uleb128 0x1
 1477 0154 50       		.byte	0x50
 1478 0155 9F       		.byte	0x9f
 1479 0156 00000000 		.4byte	0
 1480 015a 00000000 		.4byte	0
 1481              	.LLST4:
 1482 015e 00000000 		.4byte	.LVL13
 1483 0162 12000000 		.4byte	.LVL15
 1484 0166 0100     		.2byte	0x1
 1485 0168 50       		.byte	0x50
 1486 0169 12000000 		.4byte	.LVL15
 1487 016d 14000000 		.4byte	.LFE114
 1488 0171 0400     		.2byte	0x4
 1489 0173 F3       		.byte	0xf3
 1490 0174 01       		.uleb128 0x1
 1491 0175 50       		.byte	0x50
 1492 0176 9F       		.byte	0x9f
 1493 0177 00000000 		.4byte	0
 1494 017b 00000000 		.4byte	0
 1495              	.LLST5:
 1496 017f 00000000 		.4byte	.LVL13
 1497 0183 0A000000 		.4byte	.LVL14
 1498 0187 0200     		.2byte	0x2
 1499 0189 30       		.byte	0x30
 1500 018a 9F       		.byte	0x9f
 1501 018b 0A000000 		.4byte	.LVL14
 1502 018f 12000000 		.4byte	.LVL15
 1503 0193 0800     		.2byte	0x8
 1504 0195 70       		.byte	0x70
 1505 0196 00       		.sleb128 0
 1506 0197 71       		.byte	0x71
 1507 0198 00       		.sleb128 0
 1508 0199 1A       		.byte	0x1a
ARM GAS  C:\Users\CNous\AppData\Local\Temp\ccZZVbMp.s 			page 33


 1509 019a 30       		.byte	0x30
 1510 019b 2E       		.byte	0x2e
 1511 019c 9F       		.byte	0x9f
 1512 019d 12000000 		.4byte	.LVL15
 1513 01a1 14000000 		.4byte	.LFE114
 1514 01a5 0900     		.2byte	0x9
 1515 01a7 F3       		.byte	0xf3
 1516 01a8 01       		.uleb128 0x1
 1517 01a9 50       		.byte	0x50
 1518 01aa 71       		.byte	0x71
 1519 01ab 00       		.sleb128 0
 1520 01ac 1A       		.byte	0x1a
 1521 01ad 30       		.byte	0x30
 1522 01ae 2E       		.byte	0x2e
 1523 01af 9F       		.byte	0x9f
 1524 01b0 00000000 		.4byte	0
 1525 01b4 00000000 		.4byte	0
 1526              	.LLST6:
 1527 01b8 00000000 		.4byte	.LVL17
 1528 01bc 1A000000 		.4byte	.LVL19
 1529 01c0 0100     		.2byte	0x1
 1530 01c2 50       		.byte	0x50
 1531 01c3 1A000000 		.4byte	.LVL19
 1532 01c7 1C000000 		.4byte	.LVL20
 1533 01cb 0400     		.2byte	0x4
 1534 01cd F3       		.byte	0xf3
 1535 01ce 01       		.uleb128 0x1
 1536 01cf 50       		.byte	0x50
 1537 01d0 9F       		.byte	0x9f
 1538 01d1 1C000000 		.4byte	.LVL20
 1539 01d5 1E000000 		.4byte	.LVL21
 1540 01d9 0100     		.2byte	0x1
 1541 01db 50       		.byte	0x50
 1542 01dc 1E000000 		.4byte	.LVL21
 1543 01e0 20000000 		.4byte	.LFE116
 1544 01e4 0400     		.2byte	0x4
 1545 01e6 F3       		.byte	0xf3
 1546 01e7 01       		.uleb128 0x1
 1547 01e8 50       		.byte	0x50
 1548 01e9 9F       		.byte	0x9f
 1549 01ea 00000000 		.4byte	0
 1550 01ee 00000000 		.4byte	0
 1551              	.LLST7:
 1552 01f2 00000000 		.4byte	.LVL17
 1553 01f6 1E000000 		.4byte	.LVL21
 1554 01fa 0200     		.2byte	0x2
 1555 01fc 30       		.byte	0x30
 1556 01fd 9F       		.byte	0x9f
 1557 01fe 1E000000 		.4byte	.LVL21
 1558 0202 20000000 		.4byte	.LFE116
 1559 0206 0100     		.2byte	0x1
 1560 0208 50       		.byte	0x50
 1561 0209 00000000 		.4byte	0
 1562 020d 00000000 		.4byte	0
 1563              	.LLST8:
 1564 0211 00000000 		.4byte	.LVL17
 1565 0215 0A000000 		.4byte	.LVL18
ARM GAS  C:\Users\CNous\AppData\Local\Temp\ccZZVbMp.s 			page 34


 1566 0219 0200     		.2byte	0x2
 1567 021b 30       		.byte	0x30
 1568 021c 9F       		.byte	0x9f
 1569 021d 0A000000 		.4byte	.LVL18
 1570 0221 1A000000 		.4byte	.LVL19
 1571 0225 0600     		.2byte	0x6
 1572 0227 70       		.byte	0x70
 1573 0228 00       		.sleb128 0
 1574 0229 72       		.byte	0x72
 1575 022a 00       		.sleb128 0
 1576 022b 1A       		.byte	0x1a
 1577 022c 9F       		.byte	0x9f
 1578 022d 1A000000 		.4byte	.LVL19
 1579 0231 1C000000 		.4byte	.LVL20
 1580 0235 0700     		.2byte	0x7
 1581 0237 F3       		.byte	0xf3
 1582 0238 01       		.uleb128 0x1
 1583 0239 50       		.byte	0x50
 1584 023a 72       		.byte	0x72
 1585 023b 00       		.sleb128 0
 1586 023c 1A       		.byte	0x1a
 1587 023d 9F       		.byte	0x9f
 1588 023e 1C000000 		.4byte	.LVL20
 1589 0242 1E000000 		.4byte	.LVL21
 1590 0246 0600     		.2byte	0x6
 1591 0248 70       		.byte	0x70
 1592 0249 00       		.sleb128 0
 1593 024a 72       		.byte	0x72
 1594 024b 00       		.sleb128 0
 1595 024c 1A       		.byte	0x1a
 1596 024d 9F       		.byte	0x9f
 1597 024e 1E000000 		.4byte	.LVL21
 1598 0252 20000000 		.4byte	.LFE116
 1599 0256 0700     		.2byte	0x7
 1600 0258 F3       		.byte	0xf3
 1601 0259 01       		.uleb128 0x1
 1602 025a 50       		.byte	0x50
 1603 025b 72       		.byte	0x72
 1604 025c 00       		.sleb128 0
 1605 025d 1A       		.byte	0x1a
 1606 025e 9F       		.byte	0x9f
 1607 025f 00000000 		.4byte	0
 1608 0263 00000000 		.4byte	0
 1609              		.section	.debug_aranges,"",%progbits
 1610 0000 54000000 		.4byte	0x54
 1611 0004 0200     		.2byte	0x2
 1612 0006 00000000 		.4byte	.Ldebug_info0
 1613 000a 04       		.byte	0x4
 1614 000b 00       		.byte	0
 1615 000c 0000     		.2byte	0
 1616 000e 0000     		.2byte	0
 1617 0010 00000000 		.4byte	.LFB110
 1618 0014 1E000000 		.4byte	.LFE110-.LFB110
 1619 0018 00000000 		.4byte	.LFB111
 1620 001c 7C000000 		.4byte	.LFE111-.LFB111
 1621 0020 00000000 		.4byte	.LFB112
 1622 0024 0E000000 		.4byte	.LFE112-.LFB112
ARM GAS  C:\Users\CNous\AppData\Local\Temp\ccZZVbMp.s 			page 35


 1623 0028 00000000 		.4byte	.LFB113
 1624 002c 10000000 		.4byte	.LFE113-.LFB113
 1625 0030 00000000 		.4byte	.LFB114
 1626 0034 14000000 		.4byte	.LFE114-.LFB114
 1627 0038 00000000 		.4byte	.LFB115
 1628 003c 0C000000 		.4byte	.LFE115-.LFB115
 1629 0040 00000000 		.4byte	.LFB116
 1630 0044 20000000 		.4byte	.LFE116-.LFB116
 1631 0048 00000000 		.4byte	.LFB117
 1632 004c 0C000000 		.4byte	.LFE117-.LFB117
 1633 0050 00000000 		.4byte	0
 1634 0054 00000000 		.4byte	0
 1635              		.section	.debug_ranges,"",%progbits
 1636              	.Ldebug_ranges0:
 1637 0000 00000000 		.4byte	.LFB110
 1638 0004 1E000000 		.4byte	.LFE110
 1639 0008 00000000 		.4byte	.LFB111
 1640 000c 7C000000 		.4byte	.LFE111
 1641 0010 00000000 		.4byte	.LFB112
 1642 0014 0E000000 		.4byte	.LFE112
 1643 0018 00000000 		.4byte	.LFB113
 1644 001c 10000000 		.4byte	.LFE113
 1645 0020 00000000 		.4byte	.LFB114
 1646 0024 14000000 		.4byte	.LFE114
 1647 0028 00000000 		.4byte	.LFB115
 1648 002c 0C000000 		.4byte	.LFE115
 1649 0030 00000000 		.4byte	.LFB116
 1650 0034 20000000 		.4byte	.LFE116
 1651 0038 00000000 		.4byte	.LFB117
 1652 003c 0C000000 		.4byte	.LFE117
 1653 0040 00000000 		.4byte	0
 1654 0044 00000000 		.4byte	0
 1655              		.section	.debug_line,"",%progbits
 1656              	.Ldebug_line0:
 1657 0000 B8010000 		.section	.debug_str,"MS",%progbits,1
 1657      0200E500 
 1657      00000201 
 1657      FB0E0D00 
 1657      01010101 
 1658              	.LASF29:
 1659 0000 45585449 		.ascii	"EXTI_Line\000"
 1659      5F4C696E 
 1659      6500
 1660              	.LASF30:
 1661 000a 45585449 		.ascii	"EXTI_Mode\000"
 1661      5F4D6F64 
 1661      6500
 1662              	.LASF46:
 1663 0014 433A5C78 		.ascii	"C:\\xav_dev\\eclipse\\ambiantiseur-make\000"
 1663      61765F64 
 1663      65765C65 
 1663      636C6970 
 1663      73655C61 
 1664              	.LASF14:
 1665 0039 49545374 		.ascii	"ITStatus\000"
 1665      61747573 
 1665      00
ARM GAS  C:\Users\CNous\AppData\Local\Temp\ccZZVbMp.s 			page 36


 1666              	.LASF42:
 1667 0042 656E6162 		.ascii	"enablestatus\000"
 1667      6C657374 
 1667      61747573 
 1667      00
 1668              	.LASF32:
 1669 004f 45585449 		.ascii	"EXTI_LineCmd\000"
 1669      5F4C696E 
 1669      65436D64 
 1669      00
 1670              	.LASF31:
 1671 005c 45585449 		.ascii	"EXTI_Trigger\000"
 1671      5F547269 
 1671      67676572 
 1671      00
 1672              	.LASF26:
 1673 0069 45585449 		.ascii	"EXTI_Trigger_Falling\000"
 1673      5F547269 
 1673      67676572 
 1673      5F46616C 
 1673      6C696E67 
 1674              	.LASF23:
 1675 007e 45585449 		.ascii	"EXTI_Mode_Event\000"
 1675      5F4D6F64 
 1675      655F4576 
 1675      656E7400 
 1676              	.LASF3:
 1677 008e 73686F72 		.ascii	"short unsigned int\000"
 1677      7420756E 
 1677      7369676E 
 1677      65642069 
 1677      6E7400
 1678              	.LASF17:
 1679 00a1 46756E63 		.ascii	"FunctionalState\000"
 1679      74696F6E 
 1679      616C5374 
 1679      61746500 
 1680              	.LASF38:
 1681 00b1 62697473 		.ascii	"bitstatus\000"
 1681      74617475 
 1681      7300
 1682              	.LASF37:
 1683 00bb 45585449 		.ascii	"EXTI_GenerateSWInterrupt\000"
 1683      5F47656E 
 1683      65726174 
 1683      65535749 
 1683      6E746572 
 1684              	.LASF33:
 1685 00d4 45585449 		.ascii	"EXTI_InitTypeDef\000"
 1685      5F496E69 
 1685      74547970 
 1685      65446566 
 1685      00
 1686              	.LASF36:
 1687 00e5 45585449 		.ascii	"EXTI_InitStruct\000"
 1687      5F496E69 
 1687      74537472 
ARM GAS  C:\Users\CNous\AppData\Local\Temp\ccZZVbMp.s 			page 37


 1687      75637400 
 1688              	.LASF16:
 1689 00f5 454E4142 		.ascii	"ENABLE\000"
 1689      4C4500
 1690              	.LASF22:
 1691 00fc 45585449 		.ascii	"EXTI_Mode_Interrupt\000"
 1691      5F4D6F64 
 1691      655F496E 
 1691      74657272 
 1691      75707400 
 1692              	.LASF1:
 1693 0110 756E7369 		.ascii	"unsigned char\000"
 1693      676E6564 
 1693      20636861 
 1693      7200
 1694              	.LASF13:
 1695 011e 466C6167 		.ascii	"FlagStatus\000"
 1695      53746174 
 1695      757300
 1696              	.LASF39:
 1697 0129 45585449 		.ascii	"EXTI_ClearFlag\000"
 1697      5F436C65 
 1697      6172466C 
 1697      616700
 1698              	.LASF7:
 1699 0138 6C6F6E67 		.ascii	"long unsigned int\000"
 1699      20756E73 
 1699      69676E65 
 1699      6420696E 
 1699      7400
 1700              	.LASF12:
 1701 014a 52455345 		.ascii	"RESET\000"
 1701      5400
 1702              	.LASF24:
 1703 0150 45585449 		.ascii	"EXTIMode_TypeDef\000"
 1703      4D6F6465 
 1703      5F547970 
 1703      65446566 
 1703      00
 1704              	.LASF21:
 1705 0161 45585449 		.ascii	"EXTI_TypeDef\000"
 1705      5F547970 
 1705      65446566 
 1705      00
 1706              	.LASF15:
 1707 016e 44495341 		.ascii	"DISABLE\000"
 1707      424C4500 
 1708              	.LASF48:
 1709 0176 49544D5F 		.ascii	"ITM_RxBuffer\000"
 1709      52784275 
 1709      66666572 
 1709      00
 1710              	.LASF18:
 1711 0183 52545352 		.ascii	"RTSR\000"
 1711      00
 1712              	.LASF44:
 1713 0188 474E5520 		.ascii	"GNU C 4.7.3 20121207 (release) [ARM/embedded-4_7-br"
ARM GAS  C:\Users\CNous\AppData\Local\Temp\ccZZVbMp.s 			page 38


 1713      4320342E 
 1713      372E3320 
 1713      32303132 
 1713      31323037 
 1714 01bb 616E6368 		.ascii	"anch revision 194305]\000"
 1714      20726576 
 1714      6973696F 
 1714      6E203139 
 1714      34333035 
 1715              	.LASF6:
 1716 01d1 75696E74 		.ascii	"uint32_t\000"
 1716      33325F74 
 1716      00
 1717              	.LASF25:
 1718 01da 45585449 		.ascii	"EXTI_Trigger_Rising\000"
 1718      5F547269 
 1718      67676572 
 1718      5F526973 
 1718      696E6700 
 1719              	.LASF27:
 1720 01ee 45585449 		.ascii	"EXTI_Trigger_Rising_Falling\000"
 1720      5F547269 
 1720      67676572 
 1720      5F526973 
 1720      696E675F 
 1721              	.LASF10:
 1722 020a 756E7369 		.ascii	"unsigned int\000"
 1722      676E6564 
 1722      20696E74 
 1722      00
 1723              	.LASF34:
 1724 0217 45585449 		.ascii	"EXTI_Init\000"
 1724      5F496E69 
 1724      7400
 1725              	.LASF45:
 1726 0221 636D7369 		.ascii	"cmsis/device/stm32f4xx_exti.c\000"
 1726      732F6465 
 1726      76696365 
 1726      2F73746D 
 1726      33326634 
 1727              	.LASF9:
 1728 023f 6C6F6E67 		.ascii	"long long unsigned int\000"
 1728      206C6F6E 
 1728      6720756E 
 1728      7369676E 
 1728      65642069 
 1729              	.LASF40:
 1730 0256 45585449 		.ascii	"EXTI_GetFlagStatus\000"
 1730      5F476574 
 1730      466C6167 
 1730      53746174 
 1730      757300
 1731              	.LASF35:
 1732 0269 45585449 		.ascii	"EXTI_StructInit\000"
 1732      5F537472 
 1732      75637449 
 1732      6E697400 
ARM GAS  C:\Users\CNous\AppData\Local\Temp\ccZZVbMp.s 			page 39


 1733              	.LASF5:
 1734 0279 696E7433 		.ascii	"int32_t\000"
 1734      325F7400 
 1735              	.LASF11:
 1736 0281 73697A65 		.ascii	"sizetype\000"
 1736      74797065 
 1736      00
 1737              	.LASF8:
 1738 028a 6C6F6E67 		.ascii	"long long int\000"
 1738      206C6F6E 
 1738      6720696E 
 1738      7400
 1739              	.LASF41:
 1740 0298 45585449 		.ascii	"EXTI_GetITStatus\000"
 1740      5F476574 
 1740      49545374 
 1740      61747573 
 1740      00
 1741              	.LASF43:
 1742 02a9 45585449 		.ascii	"EXTI_ClearITPendingBit\000"
 1742      5F436C65 
 1742      61724954 
 1742      50656E64 
 1742      696E6742 
 1743              	.LASF2:
 1744 02c0 73686F72 		.ascii	"short int\000"
 1744      7420696E 
 1744      7400
 1745              	.LASF19:
 1746 02ca 46545352 		.ascii	"FTSR\000"
 1746      00
 1747              	.LASF4:
 1748 02cf 6C6F6E67 		.ascii	"long int\000"
 1748      20696E74 
 1748      00
 1749              	.LASF0:
 1750 02d8 7369676E 		.ascii	"signed char\000"
 1750      65642063 
 1750      68617200 
 1751              	.LASF28:
 1752 02e4 45585449 		.ascii	"EXTITrigger_TypeDef\000"
 1752      54726967 
 1752      6765725F 
 1752      54797065 
 1752      44656600 
 1753              	.LASF20:
 1754 02f8 53574945 		.ascii	"SWIER\000"
 1754      5200
 1755              	.LASF47:
 1756 02fe 45585449 		.ascii	"EXTI_DeInit\000"
 1756      5F446549 
 1756      6E697400 
 1757              		.ident	"GCC: (GNU Tools for ARM Embedded Processors) 4.7.3 20121207 (release) [ARM/embedded-4_7-br
ARM GAS  C:\Users\CNous\AppData\Local\Temp\ccZZVbMp.s 			page 40


DEFINED SYMBOLS
                            *ABS*:00000000 stm32f4xx_exti.c
C:\Users\CNous\AppData\Local\Temp\ccZZVbMp.s:71     .text.EXTI_DeInit:00000000 $t
C:\Users\CNous\AppData\Local\Temp\ccZZVbMp.s:76     .text.EXTI_DeInit:00000000 EXTI_DeInit
C:\Users\CNous\AppData\Local\Temp\ccZZVbMp.s:108    .text.EXTI_Init:00000000 $t
C:\Users\CNous\AppData\Local\Temp\ccZZVbMp.s:113    .text.EXTI_Init:00000000 EXTI_Init
C:\Users\CNous\AppData\Local\Temp\ccZZVbMp.s:219    .text.EXTI_StructInit:00000000 $t
C:\Users\CNous\AppData\Local\Temp\ccZZVbMp.s:224    .text.EXTI_StructInit:00000000 EXTI_StructInit
C:\Users\CNous\AppData\Local\Temp\ccZZVbMp.s:249    .text.EXTI_GenerateSWInterrupt:00000000 $t
C:\Users\CNous\AppData\Local\Temp\ccZZVbMp.s:254    .text.EXTI_GenerateSWInterrupt:00000000 EXTI_GenerateSWInterrupt
C:\Users\CNous\AppData\Local\Temp\ccZZVbMp.s:274    .text.EXTI_GetFlagStatus:00000000 $t
C:\Users\CNous\AppData\Local\Temp\ccZZVbMp.s:279    .text.EXTI_GetFlagStatus:00000000 EXTI_GetFlagStatus
C:\Users\CNous\AppData\Local\Temp\ccZZVbMp.s:303    .text.EXTI_ClearFlag:00000000 $t
C:\Users\CNous\AppData\Local\Temp\ccZZVbMp.s:308    .text.EXTI_ClearFlag:00000000 EXTI_ClearFlag
C:\Users\CNous\AppData\Local\Temp\ccZZVbMp.s:325    .text.EXTI_GetITStatus:00000000 $t
C:\Users\CNous\AppData\Local\Temp\ccZZVbMp.s:330    .text.EXTI_GetITStatus:00000000 EXTI_GetITStatus
C:\Users\CNous\AppData\Local\Temp\ccZZVbMp.s:366    .text.EXTI_ClearITPendingBit:00000000 $t
C:\Users\CNous\AppData\Local\Temp\ccZZVbMp.s:371    .text.EXTI_ClearITPendingBit:00000000 EXTI_ClearITPendingBit
                     .debug_frame:00000010 $d

NO UNDEFINED SYMBOLS
