ARM GAS  C:\Users\CNous\AppData\Local\Temp\ccLV38g2.s 			page 1


   1              		.syntax unified
   2              		.cpu cortex-m4
   3              		.eabi_attribute 27, 3	@ Tag_ABI_HardFP_use
   4              		.eabi_attribute 28, 1	@ Tag_ABI_VFP_args
   5              		.fpu fpv4-sp-d16
   6              		.eabi_attribute 20, 1	@ Tag_ABI_FP_denormal
   7              		.eabi_attribute 21, 1	@ Tag_ABI_FP_exceptions
   8              		.eabi_attribute 23, 3	@ Tag_ABI_FP_number_model
   9              		.eabi_attribute 24, 1	@ Tag_ABI_align8_needed
  10              		.eabi_attribute 25, 1	@ Tag_ABI_align8_preserved
  11              		.eabi_attribute 26, 1	@ Tag_ABI_enum_size
  12              		.eabi_attribute 30, 2	@ Tag_ABI_optimization_goals
  13              		.eabi_attribute 34, 1	@ Tag_CPU_unaligned_access
  14              		.eabi_attribute 18, 4	@ Tag_ABI_PCS_wchar_t
  15              		.file	"system_stm32f4xx.c"
  16              	@ GNU C (GNU Tools for ARM Embedded Processors) version 4.7.3 20121207 (release) [ARM/embedded-4_7-
  17              	@	compiled by GNU C version 4.2.1-sjlj (mingw32-2), GMP version 4.3.2, MPFR version 2.4.2, MPC vers
  18              	@ GGC heuristics: --param ggc-min-expand=100 --param ggc-min-heapsize=131072
  19              	@ options passed:  -I . -I ./inc -I ./cmsis/core -I ./cmsis/device
  20              	@ -imultilib armv7e-m/fpu
  21              	@ -iprefix c:\gnutoolsarmembedded\4.7-2012q4\bin\../lib/gcc/arm-none-eabi/4.7.3/
  22              	@ -isysroot c:\gnutoolsarmembedded\4.7-2012q4\bin\../arm-none-eabi
  23              	@ -MD cmsis/device/system_stm32f4xx.d -MF .dep/system_stm32f4xx.o.d -MP
  24              	@ -MQ cmsis/device/system_stm32f4xx.o -D__USES_INITFINI__ -D __FPU_USED=1
  25              	@ -D __arm__ -D __ASSEMBLY__ -D USE_STDPERIPH_DRIVER -D STM32F4XX
  26              	@ -D HSE_VALUE=8000000 -D __FPU_PRESENT=1 -D STM32F407VG
  27              	@ -D RUN_FROM_FLASH=1 cmsis/device/system_stm32f4xx.c -mthumb
  28              	@ -mcpu=cortex-m4 -mfloat-abi=hard -mfpu=fpv4-sp-d16
  29              	@ -auxbase-strip cmsis/device/system_stm32f4xx.o -gdwarf-2 -O2 -Wall
  30              	@ -Wstrict-prototypes -fverbose-asm -ffunction-sections -fdata-sections
  31              	@ options enabled:  -fauto-inc-dec -fbranch-count-reg -fcaller-saves
  32              	@ -fcombine-stack-adjustments -fcommon -fcompare-elim -fcprop-registers
  33              	@ -fcrossjumping -fcse-follow-jumps -fdata-sections -fdebug-types-section
  34              	@ -fdefer-pop -fdelete-null-pointer-checks -fdevirtualize -fdwarf2-cfi-asm
  35              	@ -fearly-inlining -feliminate-unused-debug-types -fexpensive-optimizations
  36              	@ -fforward-propagate -ffunction-cse -ffunction-sections -fgcse -fgcse-lm
  37              	@ -fgnu-runtime -fguess-branch-probability -fident -fif-conversion
  38              	@ -fif-conversion2 -findirect-inlining -finline -finline-atomics
  39              	@ -finline-functions-called-once -finline-small-functions -fipa-cp
  40              	@ -fipa-profile -fipa-pure-const -fipa-reference -fipa-sra
  41              	@ -fira-share-save-slots -fira-share-spill-slots -fivopts
  42              	@ -fkeep-static-consts -fleading-underscore -fmath-errno -fmerge-constants
  43              	@ -fmerge-debug-strings -fmove-loop-invariants -fomit-frame-pointer
  44              	@ -foptimize-register-move -foptimize-sibling-calls -foptimize-strlen
  45              	@ -fpartial-inlining -fpeephole -fpeephole2 -fprefetch-loop-arrays
  46              	@ -freg-struct-return -fregmove -frename-registers -freorder-blocks
  47              	@ -freorder-functions -frerun-cse-after-loop
  48              	@ -fsched-critical-path-heuristic -fsched-dep-count-heuristic
  49              	@ -fsched-group-heuristic -fsched-interblock -fsched-last-insn-heuristic
  50              	@ -fsched-rank-heuristic -fsched-spec -fsched-spec-insn-heuristic
  51              	@ -fsched-stalled-insns-dep -fschedule-insns -fschedule-insns2
  52              	@ -fsection-anchors -fshow-column -fshrink-wrap -fsigned-zeros
  53              	@ -fsplit-ivs-in-unroller -fsplit-wide-types -fstrict-aliasing
  54              	@ -fstrict-overflow -fstrict-volatile-bitfields -fthread-jumps
  55              	@ -ftoplevel-reorder -ftrapping-math -ftree-bit-ccp -ftree-builtin-call-dce
  56              	@ -ftree-ccp -ftree-ch -ftree-copy-prop -ftree-copyrename -ftree-cselim
  57              	@ -ftree-dce -ftree-dominator-opts -ftree-dse -ftree-forwprop -ftree-fre
ARM GAS  C:\Users\CNous\AppData\Local\Temp\ccLV38g2.s 			page 2


  58              	@ -ftree-loop-if-convert -ftree-loop-im -ftree-loop-ivcanon
  59              	@ -ftree-loop-optimize -ftree-parallelize-loops= -ftree-phiprop -ftree-pre
  60              	@ -ftree-pta -ftree-reassoc -ftree-scev-cprop -ftree-sink
  61              	@ -ftree-slp-vectorize -ftree-sra -ftree-switch-conversion
  62              	@ -ftree-tail-merge -ftree-ter -ftree-vect-loop-version -ftree-vrp
  63              	@ -funit-at-a-time -funroll-loops -fvar-tracking -fvar-tracking-assignments
  64              	@ -fverbose-asm -fweb -fzero-initialized-in-bss -mlittle-endian
  65              	@ -msched-prolog -mthumb -munaligned-access -mvectorize-with-neon-quad
  66              	
  67              		.text
  68              	.Ltext0:
  69              		.cfi_sections	.debug_frame
  70              		.section	.text.SystemInit,"ax",%progbits
  71              		.align	2
  72              		.global	SystemInit
  73              		.thumb
  74              		.thumb_func
  75              		.type	SystemInit, %function
  76              	SystemInit:
  77              	.LFB110:
  78              		.file 1 "cmsis/device/system_stm32f4xx.c"
   1:cmsis/device/system_stm32f4xx.c **** /**
   2:cmsis/device/system_stm32f4xx.c ****   ******************************************************************************
   3:cmsis/device/system_stm32f4xx.c ****   * @file    system_stm32f4xx.c
   4:cmsis/device/system_stm32f4xx.c ****   * @author  MCD Application Team
   5:cmsis/device/system_stm32f4xx.c ****   * @version V1.0.1
   6:cmsis/device/system_stm32f4xx.c ****   * @date    19-November-2012
   7:cmsis/device/system_stm32f4xx.c ****   * @brief   CMSIS Cortex-M4 Device Peripheral Access Layer System Source File.
   8:cmsis/device/system_stm32f4xx.c ****   *          This file contains the system clock configuration for STM32F4xx devices,
   9:cmsis/device/system_stm32f4xx.c ****   *          and is generated by the clock configuration tool
  10:cmsis/device/system_stm32f4xx.c ****   *          stm32f4xx_Clock_Configuration_V1.0.1.xls
  11:cmsis/device/system_stm32f4xx.c ****   *             
  12:cmsis/device/system_stm32f4xx.c ****   * 1.  This file provides two functions and one global variable to be called from 
  13:cmsis/device/system_stm32f4xx.c ****   *     user application:
  14:cmsis/device/system_stm32f4xx.c ****   *      - SystemInit(): Setups the system clock (System clock source, PLL Multiplier
  15:cmsis/device/system_stm32f4xx.c ****   *                      and Divider factors, AHB/APBx prescalers and Flash settings),
  16:cmsis/device/system_stm32f4xx.c ****   *                      depending on the configuration made in the clock xls tool. 
  17:cmsis/device/system_stm32f4xx.c ****   *                      This function is called at startup just after reset and 
  18:cmsis/device/system_stm32f4xx.c ****   *                      before branch to main program. This call is made inside
  19:cmsis/device/system_stm32f4xx.c ****   *                      the "startup_stm32f4xx.s" file.
  20:cmsis/device/system_stm32f4xx.c ****   *
  21:cmsis/device/system_stm32f4xx.c ****   *      - SystemCoreClock variable: Contains the core clock (HCLK), it can be used
  22:cmsis/device/system_stm32f4xx.c ****   *                                  by the user application to setup the SysTick 
  23:cmsis/device/system_stm32f4xx.c ****   *                                  timer or configure other parameters.
  24:cmsis/device/system_stm32f4xx.c ****   *                                     
  25:cmsis/device/system_stm32f4xx.c ****   *      - SystemCoreClockUpdate(): Updates the variable SystemCoreClock and must
  26:cmsis/device/system_stm32f4xx.c ****   *                                 be called whenever the core clock is changed
  27:cmsis/device/system_stm32f4xx.c ****   *                                 during program execution.
  28:cmsis/device/system_stm32f4xx.c ****   *
  29:cmsis/device/system_stm32f4xx.c ****   * 2. After each device reset the HSI (16 MHz) is used as system clock source.
  30:cmsis/device/system_stm32f4xx.c ****   *    Then SystemInit() function is called, in "startup_stm32f4xx.s" file, to
  31:cmsis/device/system_stm32f4xx.c ****   *    configure the system clock before to branch to main program.
  32:cmsis/device/system_stm32f4xx.c ****   *
  33:cmsis/device/system_stm32f4xx.c ****   * 3. If the system clock source selected by user fails to startup, the SystemInit()
  34:cmsis/device/system_stm32f4xx.c ****   *    function will do nothing and HSI still used as system clock source. User can 
  35:cmsis/device/system_stm32f4xx.c ****   *    add some code to deal with this issue inside the SetSysClock() function.
  36:cmsis/device/system_stm32f4xx.c ****   *
ARM GAS  C:\Users\CNous\AppData\Local\Temp\ccLV38g2.s 			page 3


  37:cmsis/device/system_stm32f4xx.c ****   * 4. The default value of HSE crystal is set to 25MHz, refer to "HSE_VALUE" define
  38:cmsis/device/system_stm32f4xx.c ****   *    in "stm32f4xx.h" file. When HSE is used as system clock source, directly or
  39:cmsis/device/system_stm32f4xx.c ****   *    through PLL, and you are using different crystal you have to adapt the HSE
  40:cmsis/device/system_stm32f4xx.c ****   *    value to your own configuration.
  41:cmsis/device/system_stm32f4xx.c ****   *
  42:cmsis/device/system_stm32f4xx.c ****   * 5. This file configures the system clock as follows:
  43:cmsis/device/system_stm32f4xx.c ****   *=============================================================================
  44:cmsis/device/system_stm32f4xx.c ****   *=============================================================================
  45:cmsis/device/system_stm32f4xx.c ****   *        Supported STM32F4xx device revision    | Rev A
  46:cmsis/device/system_stm32f4xx.c ****   *-----------------------------------------------------------------------------
  47:cmsis/device/system_stm32f4xx.c ****   *        System Clock source                    | PLL (HSE)
  48:cmsis/device/system_stm32f4xx.c ****   *-----------------------------------------------------------------------------
  49:cmsis/device/system_stm32f4xx.c ****   *        SYSCLK(Hz)                             | 168000000
  50:cmsis/device/system_stm32f4xx.c ****   *-----------------------------------------------------------------------------
  51:cmsis/device/system_stm32f4xx.c ****   *        HCLK(Hz)                               | 168000000
  52:cmsis/device/system_stm32f4xx.c ****   *-----------------------------------------------------------------------------
  53:cmsis/device/system_stm32f4xx.c ****   *        AHB Prescaler                          | 1
  54:cmsis/device/system_stm32f4xx.c ****   *-----------------------------------------------------------------------------
  55:cmsis/device/system_stm32f4xx.c ****   *        APB1 Prescaler                         | 16
  56:cmsis/device/system_stm32f4xx.c ****   *-----------------------------------------------------------------------------
  57:cmsis/device/system_stm32f4xx.c ****   *        APB2 Prescaler                         | 16
  58:cmsis/device/system_stm32f4xx.c ****   *-----------------------------------------------------------------------------
  59:cmsis/device/system_stm32f4xx.c ****   *        HSE Frequency(Hz)                      | 8000000
  60:cmsis/device/system_stm32f4xx.c ****   *-----------------------------------------------------------------------------
  61:cmsis/device/system_stm32f4xx.c ****   *        PLL_M                                  | 8
  62:cmsis/device/system_stm32f4xx.c ****   *-----------------------------------------------------------------------------
  63:cmsis/device/system_stm32f4xx.c ****   *        PLL_N                                  | 336
  64:cmsis/device/system_stm32f4xx.c ****   *-----------------------------------------------------------------------------
  65:cmsis/device/system_stm32f4xx.c ****   *        PLL_P                                  | 2
  66:cmsis/device/system_stm32f4xx.c ****   *-----------------------------------------------------------------------------
  67:cmsis/device/system_stm32f4xx.c ****   *        PLL_Q                                  | 7
  68:cmsis/device/system_stm32f4xx.c ****   *-----------------------------------------------------------------------------
  69:cmsis/device/system_stm32f4xx.c ****   *        PLLI2S_N                               | 258
  70:cmsis/device/system_stm32f4xx.c ****   *-----------------------------------------------------------------------------
  71:cmsis/device/system_stm32f4xx.c ****   *        PLLI2S_R                               | 3
  72:cmsis/device/system_stm32f4xx.c ****   *-----------------------------------------------------------------------------
  73:cmsis/device/system_stm32f4xx.c ****   *        I2S input clock(Hz)                    | 86000000
  74:cmsis/device/system_stm32f4xx.c ****   *                                               |
  75:cmsis/device/system_stm32f4xx.c ****   *        To achieve the following I2S config:   |
  76:cmsis/device/system_stm32f4xx.c ****   *         - Master clock output (MCKO): ON      |
  77:cmsis/device/system_stm32f4xx.c ****   *         - Frame wide                : 16bit   |
  78:cmsis/device/system_stm32f4xx.c ****   *         - Audio sampling freq (KHz) : 48      |
  79:cmsis/device/system_stm32f4xx.c ****   *         - Error %                   : 0,0000  |
  80:cmsis/device/system_stm32f4xx.c ****   *         - Prescaler Odd factor (ODD): 0       |
  81:cmsis/device/system_stm32f4xx.c ****   *         - Linear prescaler (DIV)    : 2       |
  82:cmsis/device/system_stm32f4xx.c ****   *-----------------------------------------------------------------------------
  83:cmsis/device/system_stm32f4xx.c ****   *        VDD(V)                                 | 3
  84:cmsis/device/system_stm32f4xx.c ****   *-----------------------------------------------------------------------------
  85:cmsis/device/system_stm32f4xx.c ****   *        Main regulator output voltage          | Scale1 mode
  86:cmsis/device/system_stm32f4xx.c ****   *-----------------------------------------------------------------------------
  87:cmsis/device/system_stm32f4xx.c ****   *        Flash Latency(WS)                      | 5
  88:cmsis/device/system_stm32f4xx.c ****   *-----------------------------------------------------------------------------
  89:cmsis/device/system_stm32f4xx.c ****   *        Prefetch Buffer                        | OFF
  90:cmsis/device/system_stm32f4xx.c ****   *-----------------------------------------------------------------------------
  91:cmsis/device/system_stm32f4xx.c ****   *        Instruction cache                      | ON
  92:cmsis/device/system_stm32f4xx.c ****   *-----------------------------------------------------------------------------
  93:cmsis/device/system_stm32f4xx.c ****   *        Data cache                             | ON
ARM GAS  C:\Users\CNous\AppData\Local\Temp\ccLV38g2.s 			page 4


  94:cmsis/device/system_stm32f4xx.c ****   *-----------------------------------------------------------------------------
  95:cmsis/device/system_stm32f4xx.c ****   *        Require 48MHz for USB OTG FS,          | Enabled
  96:cmsis/device/system_stm32f4xx.c ****   *        SDIO and RNG clock                     |
  97:cmsis/device/system_stm32f4xx.c ****   *-----------------------------------------------------------------------------
  98:cmsis/device/system_stm32f4xx.c ****   *=============================================================================
  99:cmsis/device/system_stm32f4xx.c ****   ****************************************************************************** 
 100:cmsis/device/system_stm32f4xx.c ****   * @attention
 101:cmsis/device/system_stm32f4xx.c ****   *
 102:cmsis/device/system_stm32f4xx.c ****   * THE PRESENT FIRMWARE WHICH IS FOR GUIDANCE ONLY AIMS AT PROVIDING CUSTOMERS
 103:cmsis/device/system_stm32f4xx.c ****   * WITH CODING INFORMATION REGARDING THEIR PRODUCTS IN ORDER FOR THEM TO SAVE
 104:cmsis/device/system_stm32f4xx.c ****   * TIME. AS A RESULT, STMICROELECTRONICS SHALL NOT BE HELD LIABLE FOR ANY
 105:cmsis/device/system_stm32f4xx.c ****   * DIRECT, INDIRECT OR CONSEQUENTIAL DAMAGES WITH RESPECT TO ANY CLAIMS ARISING
 106:cmsis/device/system_stm32f4xx.c ****   * FROM THE CONTENT OF SUCH FIRMWARE AND/OR THE USE MADE BY CUSTOMERS OF THE
 107:cmsis/device/system_stm32f4xx.c ****   * CODING INFORMATION CONTAINED HEREIN IN CONNECTION WITH THEIR PRODUCTS.
 108:cmsis/device/system_stm32f4xx.c ****   *
 109:cmsis/device/system_stm32f4xx.c ****   * <h2><center>&copy; COPYRIGHT 2011 STMicroelectronics</center></h2>
 110:cmsis/device/system_stm32f4xx.c ****   ******************************************************************************
 111:cmsis/device/system_stm32f4xx.c ****   */
 112:cmsis/device/system_stm32f4xx.c **** 
 113:cmsis/device/system_stm32f4xx.c **** /** @addtogroup CMSIS
 114:cmsis/device/system_stm32f4xx.c ****   * @{
 115:cmsis/device/system_stm32f4xx.c ****   */
 116:cmsis/device/system_stm32f4xx.c **** 
 117:cmsis/device/system_stm32f4xx.c **** /** @addtogroup stm32f4xx_system
 118:cmsis/device/system_stm32f4xx.c ****   * @{
 119:cmsis/device/system_stm32f4xx.c ****   */  
 120:cmsis/device/system_stm32f4xx.c ****   
 121:cmsis/device/system_stm32f4xx.c **** /** @addtogroup STM32F4xx_System_Private_Includes
 122:cmsis/device/system_stm32f4xx.c ****   * @{
 123:cmsis/device/system_stm32f4xx.c ****   */
 124:cmsis/device/system_stm32f4xx.c **** 
 125:cmsis/device/system_stm32f4xx.c **** #include "stm32f4xx.h"
 126:cmsis/device/system_stm32f4xx.c **** 
 127:cmsis/device/system_stm32f4xx.c **** /**
 128:cmsis/device/system_stm32f4xx.c ****   * @}
 129:cmsis/device/system_stm32f4xx.c ****   */
 130:cmsis/device/system_stm32f4xx.c **** 
 131:cmsis/device/system_stm32f4xx.c **** /** @addtogroup STM32F4xx_System_Private_TypesDefinitions
 132:cmsis/device/system_stm32f4xx.c ****   * @{
 133:cmsis/device/system_stm32f4xx.c ****   */
 134:cmsis/device/system_stm32f4xx.c **** 
 135:cmsis/device/system_stm32f4xx.c **** /**
 136:cmsis/device/system_stm32f4xx.c ****   * @}
 137:cmsis/device/system_stm32f4xx.c ****   */
 138:cmsis/device/system_stm32f4xx.c **** 
 139:cmsis/device/system_stm32f4xx.c **** /** @addtogroup STM32F4xx_System_Private_Defines
 140:cmsis/device/system_stm32f4xx.c ****   * @{
 141:cmsis/device/system_stm32f4xx.c ****   */
 142:cmsis/device/system_stm32f4xx.c **** 
 143:cmsis/device/system_stm32f4xx.c **** /************************* Miscellaneous Configuration ************************/
 144:cmsis/device/system_stm32f4xx.c **** /*!< Uncomment the following line if you need to use external SRAM mounted
 145:cmsis/device/system_stm32f4xx.c ****      on STM324xG_EVAL board as data memory  */
 146:cmsis/device/system_stm32f4xx.c **** /* #define DATA_IN_ExtSRAM */
 147:cmsis/device/system_stm32f4xx.c **** 
 148:cmsis/device/system_stm32f4xx.c **** /*!< Uncomment the following line if you need to relocate your vector Table in
 149:cmsis/device/system_stm32f4xx.c ****      Internal SRAM. */
 150:cmsis/device/system_stm32f4xx.c **** /* #define VECT_TAB_SRAM */
ARM GAS  C:\Users\CNous\AppData\Local\Temp\ccLV38g2.s 			page 5


 151:cmsis/device/system_stm32f4xx.c **** #define VECT_TAB_OFFSET  0x00 /*!< Vector Table base offset field. 
 152:cmsis/device/system_stm32f4xx.c ****                                    This value must be a multiple of 0x200. */
 153:cmsis/device/system_stm32f4xx.c **** /******************************************************************************/
 154:cmsis/device/system_stm32f4xx.c **** 
 155:cmsis/device/system_stm32f4xx.c **** /************************* PLL Parameters *************************************/
 156:cmsis/device/system_stm32f4xx.c **** /* PLL_VCO = (HSE_VALUE or HSI_VALUE / PLL_M) * PLL_N */
 157:cmsis/device/system_stm32f4xx.c **** #define PLL_M      8
 158:cmsis/device/system_stm32f4xx.c **** #define PLL_N      336
 159:cmsis/device/system_stm32f4xx.c **** 
 160:cmsis/device/system_stm32f4xx.c **** /* SYSCLK = PLL_VCO / PLL_P */
 161:cmsis/device/system_stm32f4xx.c **** #define PLL_P      2
 162:cmsis/device/system_stm32f4xx.c **** 
 163:cmsis/device/system_stm32f4xx.c **** /* USB OTG FS, SDIO and RNG Clock =  PLL_VCO / PLLQ */
 164:cmsis/device/system_stm32f4xx.c **** #define PLL_Q      7
 165:cmsis/device/system_stm32f4xx.c **** 
 166:cmsis/device/system_stm32f4xx.c **** /* PLLI2S_VCO = (HSE_VALUE Or HSI_VALUE / PLL_M) * PLLI2S_N
 167:cmsis/device/system_stm32f4xx.c ****    I2SCLK = PLLI2S_VCO / PLLI2S_R */
 168:cmsis/device/system_stm32f4xx.c **** #define PLLI2S_N   258
 169:cmsis/device/system_stm32f4xx.c **** #define PLLI2S_R   3
 170:cmsis/device/system_stm32f4xx.c **** 
 171:cmsis/device/system_stm32f4xx.c **** /******************************************************************************/
 172:cmsis/device/system_stm32f4xx.c **** 
 173:cmsis/device/system_stm32f4xx.c **** /**
 174:cmsis/device/system_stm32f4xx.c ****   * @}
 175:cmsis/device/system_stm32f4xx.c ****   */
 176:cmsis/device/system_stm32f4xx.c **** 
 177:cmsis/device/system_stm32f4xx.c **** /** @addtogroup STM32F4xx_System_Private_Macros
 178:cmsis/device/system_stm32f4xx.c ****   * @{
 179:cmsis/device/system_stm32f4xx.c ****   */
 180:cmsis/device/system_stm32f4xx.c **** 
 181:cmsis/device/system_stm32f4xx.c **** /**
 182:cmsis/device/system_stm32f4xx.c ****   * @}
 183:cmsis/device/system_stm32f4xx.c ****   */
 184:cmsis/device/system_stm32f4xx.c **** 
 185:cmsis/device/system_stm32f4xx.c **** /** @addtogroup STM32F4xx_System_Private_Variables
 186:cmsis/device/system_stm32f4xx.c ****   * @{
 187:cmsis/device/system_stm32f4xx.c ****   */
 188:cmsis/device/system_stm32f4xx.c **** 
 189:cmsis/device/system_stm32f4xx.c ****   uint32_t SystemCoreClock = 168000000;
 190:cmsis/device/system_stm32f4xx.c **** 
 191:cmsis/device/system_stm32f4xx.c ****   __I uint8_t AHBPrescTable[16] = {0, 0, 0, 0, 0, 0, 0, 0, 1, 2, 3, 4, 6, 7, 8, 9};
 192:cmsis/device/system_stm32f4xx.c **** 
 193:cmsis/device/system_stm32f4xx.c **** /**
 194:cmsis/device/system_stm32f4xx.c ****   * @}
 195:cmsis/device/system_stm32f4xx.c ****   */
 196:cmsis/device/system_stm32f4xx.c **** 
 197:cmsis/device/system_stm32f4xx.c **** /** @addtogroup STM32F4xx_System_Private_FunctionPrototypes
 198:cmsis/device/system_stm32f4xx.c ****   * @{
 199:cmsis/device/system_stm32f4xx.c ****   */
 200:cmsis/device/system_stm32f4xx.c **** 
 201:cmsis/device/system_stm32f4xx.c **** static void SetSysClock(void);
 202:cmsis/device/system_stm32f4xx.c **** #ifdef DATA_IN_ExtSRAM
 203:cmsis/device/system_stm32f4xx.c ****   static void SystemInit_ExtMemCtl(void); 
 204:cmsis/device/system_stm32f4xx.c **** #endif /* DATA_IN_ExtSRAM */
 205:cmsis/device/system_stm32f4xx.c **** 
 206:cmsis/device/system_stm32f4xx.c **** /**
 207:cmsis/device/system_stm32f4xx.c ****   * @}
ARM GAS  C:\Users\CNous\AppData\Local\Temp\ccLV38g2.s 			page 6


 208:cmsis/device/system_stm32f4xx.c ****   */
 209:cmsis/device/system_stm32f4xx.c **** 
 210:cmsis/device/system_stm32f4xx.c **** /** @addtogroup STM32F4xx_System_Private_Functions
 211:cmsis/device/system_stm32f4xx.c ****   * @{
 212:cmsis/device/system_stm32f4xx.c ****   */
 213:cmsis/device/system_stm32f4xx.c **** 
 214:cmsis/device/system_stm32f4xx.c **** /**
 215:cmsis/device/system_stm32f4xx.c ****   * @brief  Setup the microcontroller system
 216:cmsis/device/system_stm32f4xx.c ****   *         Initialize the Embedded Flash Interface, the PLL and update the 
 217:cmsis/device/system_stm32f4xx.c ****   *         SystemFrequency variable.
 218:cmsis/device/system_stm32f4xx.c ****   * @param  None
 219:cmsis/device/system_stm32f4xx.c ****   * @retval None
 220:cmsis/device/system_stm32f4xx.c ****   */
 221:cmsis/device/system_stm32f4xx.c **** void SystemInit(void)
 222:cmsis/device/system_stm32f4xx.c **** {
  79              		.loc 1 222 0
  80              		.cfi_startproc
  81              		@ args = 0, pretend = 0, frame = 8
  82              		@ frame_needed = 0, uses_anonymous_args = 0
  83              		@ link register save eliminated.
 223:cmsis/device/system_stm32f4xx.c ****   /* FPU settings ------------------------------------------------------------*/
 224:cmsis/device/system_stm32f4xx.c ****   //#if (__FPU_PRESENT == 1) && (__FPU_USED == 1)
 225:cmsis/device/system_stm32f4xx.c ****     SCB->CPACR |= ((3UL << 10*2)|(3UL << 11*2));  /* set CP10 and CP11 Full Access */
  84              		.loc 1 225 0
  85 0000 4FF46D42 		mov	r2, #60672	@ tmp178,
  86 0004 CEF20002 		movt	r2, 57344	@ tmp178,
 226:cmsis/device/system_stm32f4xx.c ****   //#endif
 227:cmsis/device/system_stm32f4xx.c ****   /* Reset the RCC clock configuration to the default reset state ------------*/
 228:cmsis/device/system_stm32f4xx.c ****   /* Set HSION bit */
 229:cmsis/device/system_stm32f4xx.c ****   RCC->CR |= (uint32_t)0x00000001;
  87              		.loc 1 229 0
  88 0008 4FF46053 		mov	r3, #14336	@ tmp180,
 225:cmsis/device/system_stm32f4xx.c ****     SCB->CPACR |= ((3UL << 10*2)|(3UL << 11*2));  /* set CP10 and CP11 Full Access */
  89              		.loc 1 225 0
  90 000c D2F88810 		ldr	r1, [r2, #136]	@ D.6572, MEM[(struct SCB_Type *)3758157056B].CPACR
  91              		.loc 1 229 0
  92 0010 C4F20203 		movt	r3, 16386	@ tmp180,
 225:cmsis/device/system_stm32f4xx.c ****     SCB->CPACR |= ((3UL << 10*2)|(3UL << 11*2));  /* set CP10 and CP11 Full Access */
  93              		.loc 1 225 0
  94 0014 41F47000 		orr	r0, r1, #15728640	@ D.6573, D.6572,
  95 0018 C2F88800 		str	r0, [r2, #136]	@ D.6573, MEM[(struct SCB_Type *)3758157056B].CPACR
  96              		.loc 1 229 0
  97 001c 1968     		ldr	r1, [r3, #0]	@ D.6575, MEM[(struct RCC_TypeDef *)1073887232B].CR
 230:cmsis/device/system_stm32f4xx.c **** 
 231:cmsis/device/system_stm32f4xx.c ****   /* Reset CFGR register */
 232:cmsis/device/system_stm32f4xx.c ****   RCC->CFGR = 0x00000000;
  98              		.loc 1 232 0
  99 001e 0022     		movs	r2, #0	@ tmp183,
 229:cmsis/device/system_stm32f4xx.c ****   RCC->CR |= (uint32_t)0x00000001;
 100              		.loc 1 229 0
 101 0020 41F00100 		orr	r0, r1, #1	@ D.6576, D.6575,
 102 0024 1860     		str	r0, [r3, #0]	@ D.6576, MEM[(struct RCC_TypeDef *)1073887232B].CR
 103              		.loc 1 232 0
 104 0026 9A60     		str	r2, [r3, #8]	@ tmp183, MEM[(struct RCC_TypeDef *)1073887232B].CFGR
 233:cmsis/device/system_stm32f4xx.c **** 
 234:cmsis/device/system_stm32f4xx.c ****   /* Reset HSEON, CSSON and PLLON bits */
 235:cmsis/device/system_stm32f4xx.c ****   RCC->CR &= (uint32_t)0xFEF6FFFF;
ARM GAS  C:\Users\CNous\AppData\Local\Temp\ccLV38g2.s 			page 7


 105              		.loc 1 235 0
 106 0028 1868     		ldr	r0, [r3, #0]	@ D.6577, MEM[(struct RCC_TypeDef *)1073887232B].CR
 236:cmsis/device/system_stm32f4xx.c **** 
 237:cmsis/device/system_stm32f4xx.c ****   /* Reset PLLCFGR register */
 238:cmsis/device/system_stm32f4xx.c ****   RCC->PLLCFGR = 0x24003010;
 107              		.loc 1 238 0
 108 002a 43F21001 		movw	r1, #12304	@ tmp188,
 235:cmsis/device/system_stm32f4xx.c ****   RCC->CR &= (uint32_t)0xFEF6FFFF;
 109              		.loc 1 235 0
 110 002e 20F08470 		bic	r0, r0, #17301504	@ tmp185, D.6577,
 111 0032 20F48030 		bic	r0, r0, #65536	@ D.6578, tmp185,
 112              		.loc 1 238 0
 113 0036 C2F20041 		movt	r1, 9216	@ tmp188,
 235:cmsis/device/system_stm32f4xx.c ****   RCC->CR &= (uint32_t)0xFEF6FFFF;
 114              		.loc 1 235 0
 115 003a 1860     		str	r0, [r3, #0]	@ D.6578, MEM[(struct RCC_TypeDef *)1073887232B].CR
 116              		.loc 1 238 0
 117 003c 5960     		str	r1, [r3, #4]	@ tmp188, MEM[(struct RCC_TypeDef *)1073887232B].PLLCFGR
 239:cmsis/device/system_stm32f4xx.c **** 
 240:cmsis/device/system_stm32f4xx.c ****   /* Reset HSEBYP bit */
 241:cmsis/device/system_stm32f4xx.c ****   RCC->CR &= (uint32_t)0xFFFBFFFF;
 118              		.loc 1 241 0
 119 003e 1968     		ldr	r1, [r3, #0]	@ D.6579, MEM[(struct RCC_TypeDef *)1073887232B].CR
 222:cmsis/device/system_stm32f4xx.c **** {
 120              		.loc 1 222 0
 121 0040 82B0     		sub	sp, sp, #8	@,,
 122              	.LCFI0:
 123              		.cfi_def_cfa_offset 8
 124              		.loc 1 241 0
 125 0042 21F48020 		bic	r0, r1, #262144	@ D.6580, D.6579,
 126 0046 1860     		str	r0, [r3, #0]	@ D.6580, MEM[(struct RCC_TypeDef *)1073887232B].CR
 242:cmsis/device/system_stm32f4xx.c **** 
 243:cmsis/device/system_stm32f4xx.c ****   /* Disable all interrupts */
 244:cmsis/device/system_stm32f4xx.c ****   RCC->CIR = 0x00000000;
 127              		.loc 1 244 0
 128 0048 DA60     		str	r2, [r3, #12]	@ tmp183, MEM[(struct RCC_TypeDef *)1073887232B].CIR
 129              	.LBB4:
 130              	.LBB5:
 245:cmsis/device/system_stm32f4xx.c **** 
 246:cmsis/device/system_stm32f4xx.c **** #ifdef DATA_IN_ExtSRAM
 247:cmsis/device/system_stm32f4xx.c ****   SystemInit_ExtMemCtl(); 
 248:cmsis/device/system_stm32f4xx.c **** #endif /* DATA_IN_ExtSRAM */
 249:cmsis/device/system_stm32f4xx.c ****          
 250:cmsis/device/system_stm32f4xx.c ****   /* Configure the System clock source, PLL Multiplier and Divider factors, 
 251:cmsis/device/system_stm32f4xx.c ****      AHB/APBx prescalers and Flash settings ----------------------------------*/
 252:cmsis/device/system_stm32f4xx.c ****   SetSysClock();
 253:cmsis/device/system_stm32f4xx.c **** 
 254:cmsis/device/system_stm32f4xx.c ****   /* Configure the Vector Table location add offset address ------------------*/
 255:cmsis/device/system_stm32f4xx.c **** #ifdef VECT_TAB_SRAM
 256:cmsis/device/system_stm32f4xx.c ****   SCB->VTOR = SRAM_BASE | VECT_TAB_OFFSET; /* Vector Table Relocation in Internal SRAM */
 257:cmsis/device/system_stm32f4xx.c **** #else
 258:cmsis/device/system_stm32f4xx.c ****   SCB->VTOR = FLASH_BASE | VECT_TAB_OFFSET; /* Vector Table Relocation in Internal FLASH */
 259:cmsis/device/system_stm32f4xx.c **** #endif
 260:cmsis/device/system_stm32f4xx.c **** }
 261:cmsis/device/system_stm32f4xx.c **** 
 262:cmsis/device/system_stm32f4xx.c **** /**
 263:cmsis/device/system_stm32f4xx.c ****    * @brief  Update SystemCoreClock variable according to Clock Register Values.
ARM GAS  C:\Users\CNous\AppData\Local\Temp\ccLV38g2.s 			page 8


 264:cmsis/device/system_stm32f4xx.c ****   *         The SystemCoreClock variable contains the core clock (HCLK), it can
 265:cmsis/device/system_stm32f4xx.c ****   *         be used by the user application to setup the SysTick timer or configure
 266:cmsis/device/system_stm32f4xx.c ****   *         other parameters.
 267:cmsis/device/system_stm32f4xx.c ****   *           
 268:cmsis/device/system_stm32f4xx.c ****   * @note   Each time the core clock (HCLK) changes, this function must be called
 269:cmsis/device/system_stm32f4xx.c ****   *         to update SystemCoreClock variable value. Otherwise, any configuration
 270:cmsis/device/system_stm32f4xx.c ****   *         based on this variable will be incorrect.         
 271:cmsis/device/system_stm32f4xx.c ****   *     
 272:cmsis/device/system_stm32f4xx.c ****   * @note   - The system frequency computed by this function is not the real 
 273:cmsis/device/system_stm32f4xx.c ****   *           frequency in the chip. It is calculated based on the predefined 
 274:cmsis/device/system_stm32f4xx.c ****   *           constant and the selected clock source:
 275:cmsis/device/system_stm32f4xx.c ****   *             
 276:cmsis/device/system_stm32f4xx.c ****   *           - If SYSCLK source is HSI, SystemCoreClock will contain the HSI_VALUE(*)
 277:cmsis/device/system_stm32f4xx.c ****   *                                              
 278:cmsis/device/system_stm32f4xx.c ****   *           - If SYSCLK source is HSE, SystemCoreClock will contain the HSE_VALUE(**)
 279:cmsis/device/system_stm32f4xx.c ****   *                          
 280:cmsis/device/system_stm32f4xx.c ****   *           - If SYSCLK source is PLL, SystemCoreClock will contain the HSE_VALUE(**) 
 281:cmsis/device/system_stm32f4xx.c ****   *             or HSI_VALUE(*) multiplied/divided by the PLL factors.
 282:cmsis/device/system_stm32f4xx.c ****   *         
 283:cmsis/device/system_stm32f4xx.c ****   *         (*) HSI_VALUE is a constant defined in stm32f4xx.h file (default value
 284:cmsis/device/system_stm32f4xx.c ****   *             16 MHz) but the real value may vary depending on the variations
 285:cmsis/device/system_stm32f4xx.c ****   *             in voltage and temperature.   
 286:cmsis/device/system_stm32f4xx.c ****   *    
 287:cmsis/device/system_stm32f4xx.c ****   *         (**) HSE_VALUE is a constant defined in stm32f4xx.h file (default value
 288:cmsis/device/system_stm32f4xx.c ****   *              25 MHz), user has to ensure that HSE_VALUE is same as the real
 289:cmsis/device/system_stm32f4xx.c ****   *              frequency of the crystal used. Otherwise, this function may
 290:cmsis/device/system_stm32f4xx.c ****   *              have wrong result.
 291:cmsis/device/system_stm32f4xx.c ****   *                
 292:cmsis/device/system_stm32f4xx.c ****   *         - The result of this function could be not correct when using fractional
 293:cmsis/device/system_stm32f4xx.c ****   *           value for HSE crystal.
 294:cmsis/device/system_stm32f4xx.c ****   *     
 295:cmsis/device/system_stm32f4xx.c ****   * @param  None
 296:cmsis/device/system_stm32f4xx.c ****   * @retval None
 297:cmsis/device/system_stm32f4xx.c ****   */
 298:cmsis/device/system_stm32f4xx.c **** void SystemCoreClockUpdate(void)
 299:cmsis/device/system_stm32f4xx.c **** {
 300:cmsis/device/system_stm32f4xx.c ****   uint32_t tmp = 0, pllvco = 0, pllp = 2, pllsource = 0, pllm = 2;
 301:cmsis/device/system_stm32f4xx.c ****   
 302:cmsis/device/system_stm32f4xx.c ****   /* Get SYSCLK source -------------------------------------------------------*/
 303:cmsis/device/system_stm32f4xx.c ****   tmp = RCC->CFGR & RCC_CFGR_SWS;
 304:cmsis/device/system_stm32f4xx.c **** 
 305:cmsis/device/system_stm32f4xx.c ****   switch (tmp)
 306:cmsis/device/system_stm32f4xx.c ****   {
 307:cmsis/device/system_stm32f4xx.c ****     case 0x00:  /* HSI used as system clock source */
 308:cmsis/device/system_stm32f4xx.c ****       SystemCoreClock = HSI_VALUE;
 309:cmsis/device/system_stm32f4xx.c ****       break;
 310:cmsis/device/system_stm32f4xx.c ****     case 0x04:  /* HSE used as system clock source */
 311:cmsis/device/system_stm32f4xx.c ****       SystemCoreClock = HSE_VALUE;
 312:cmsis/device/system_stm32f4xx.c ****       break;
 313:cmsis/device/system_stm32f4xx.c ****     case 0x08:  /* PLL used as system clock source */
 314:cmsis/device/system_stm32f4xx.c **** 
 315:cmsis/device/system_stm32f4xx.c ****       /* PLL_VCO = (HSE_VALUE or HSI_VALUE / PLL_M) * PLL_N
 316:cmsis/device/system_stm32f4xx.c ****          SYSCLK = PLL_VCO / PLL_P
 317:cmsis/device/system_stm32f4xx.c ****          */    
 318:cmsis/device/system_stm32f4xx.c ****       pllsource = (RCC->PLLCFGR & RCC_PLLCFGR_PLLSRC) >> 22;
 319:cmsis/device/system_stm32f4xx.c ****       pllm = RCC->PLLCFGR & RCC_PLLCFGR_PLLM;
 320:cmsis/device/system_stm32f4xx.c ****       
ARM GAS  C:\Users\CNous\AppData\Local\Temp\ccLV38g2.s 			page 9


 321:cmsis/device/system_stm32f4xx.c ****       if (pllsource != 0)
 322:cmsis/device/system_stm32f4xx.c ****       {
 323:cmsis/device/system_stm32f4xx.c ****         /* HSE used as PLL clock source */
 324:cmsis/device/system_stm32f4xx.c ****         pllvco = (HSE_VALUE / pllm) * ((RCC->PLLCFGR & RCC_PLLCFGR_PLLN) >> 6);
 325:cmsis/device/system_stm32f4xx.c ****       }
 326:cmsis/device/system_stm32f4xx.c ****       else
 327:cmsis/device/system_stm32f4xx.c ****       {
 328:cmsis/device/system_stm32f4xx.c ****         /* HSI used as PLL clock source */
 329:cmsis/device/system_stm32f4xx.c ****         pllvco = (HSI_VALUE / pllm) * ((RCC->PLLCFGR & RCC_PLLCFGR_PLLN) >> 6);      
 330:cmsis/device/system_stm32f4xx.c ****       }
 331:cmsis/device/system_stm32f4xx.c **** 
 332:cmsis/device/system_stm32f4xx.c ****       pllp = (((RCC->PLLCFGR & RCC_PLLCFGR_PLLP) >>16) + 1 ) *2;
 333:cmsis/device/system_stm32f4xx.c ****       SystemCoreClock = pllvco/pllp;
 334:cmsis/device/system_stm32f4xx.c ****       break;
 335:cmsis/device/system_stm32f4xx.c ****     default:
 336:cmsis/device/system_stm32f4xx.c ****       SystemCoreClock = HSI_VALUE;
 337:cmsis/device/system_stm32f4xx.c ****       break;
 338:cmsis/device/system_stm32f4xx.c ****   }
 339:cmsis/device/system_stm32f4xx.c ****   /* Compute HCLK frequency --------------------------------------------------*/
 340:cmsis/device/system_stm32f4xx.c ****   /* Get HCLK prescaler */
 341:cmsis/device/system_stm32f4xx.c ****   tmp = AHBPrescTable[((RCC->CFGR & RCC_CFGR_HPRE) >> 4)];
 342:cmsis/device/system_stm32f4xx.c ****   /* HCLK frequency */
 343:cmsis/device/system_stm32f4xx.c ****   SystemCoreClock >>= tmp;
 344:cmsis/device/system_stm32f4xx.c **** }
 345:cmsis/device/system_stm32f4xx.c **** 
 346:cmsis/device/system_stm32f4xx.c **** /**
 347:cmsis/device/system_stm32f4xx.c ****   * @brief  Configures the System clock source, PLL Multiplier and Divider factors, 
 348:cmsis/device/system_stm32f4xx.c ****   *         AHB/APBx prescalers and Flash settings
 349:cmsis/device/system_stm32f4xx.c ****   * @Note   This function should be called only once the RCC clock configuration  
 350:cmsis/device/system_stm32f4xx.c ****   *         is reset to the default reset state (done in SystemInit() function).   
 351:cmsis/device/system_stm32f4xx.c ****   * @param  None
 352:cmsis/device/system_stm32f4xx.c ****   * @retval None
 353:cmsis/device/system_stm32f4xx.c ****   */
 354:cmsis/device/system_stm32f4xx.c **** static void SetSysClock(void)
 355:cmsis/device/system_stm32f4xx.c **** {
 356:cmsis/device/system_stm32f4xx.c **** /******************************************************************************/
 357:cmsis/device/system_stm32f4xx.c **** /*            PLL (clocked by HSE) used as System clock source                */
 358:cmsis/device/system_stm32f4xx.c **** /******************************************************************************/
 359:cmsis/device/system_stm32f4xx.c ****   __IO uint32_t StartUpCounter = 0, HSEStatus = 0;
 131              		.loc 1 359 0
 132 004a 0092     		str	r2, [sp, #0]	@ tmp183, StartUpCounter
 133              	.LVL0:
 134 004c 0192     		str	r2, [sp, #4]	@ tmp183, HSEStatus
 135              	.LVL1:
 360:cmsis/device/system_stm32f4xx.c ****   
 361:cmsis/device/system_stm32f4xx.c ****   /* Enable HSE */
 362:cmsis/device/system_stm32f4xx.c ****   RCC->CR |= ((uint32_t)RCC_CR_HSEON);
 136              		.loc 1 362 0
 137 004e 1A68     		ldr	r2, [r3, #0]	@ D.6670, MEM[(struct RCC_TypeDef *)1073887232B].CR
 138 0050 42F48031 		orr	r1, r2, #65536	@ D.6669, D.6670,
 139 0054 1960     		str	r1, [r3, #0]	@ D.6669, MEM[(struct RCC_TypeDef *)1073887232B].CR
 363:cmsis/device/system_stm32f4xx.c ****  
 364:cmsis/device/system_stm32f4xx.c ****   /* Wait till HSE is ready and if Time out is reached exit */
 365:cmsis/device/system_stm32f4xx.c ****   do
 366:cmsis/device/system_stm32f4xx.c ****   {
 367:cmsis/device/system_stm32f4xx.c ****     HSEStatus = RCC->CR & RCC_CR_HSERDY;
 140              		.loc 1 367 0
ARM GAS  C:\Users\CNous\AppData\Local\Temp\ccLV38g2.s 			page 10


 141 0056 1846     		mov	r0, r3	@ tmp239, tmp180
 142 0058 03E0     		b	.L3	@
 143              	.L22:
 368:cmsis/device/system_stm32f4xx.c ****     StartUpCounter++;
 369:cmsis/device/system_stm32f4xx.c ****   } while((HSEStatus == 0) && (StartUpCounter != HSE_STARTUP_TIMEOUT));
 144              		.loc 1 369 0
 145 005a 0099     		ldr	r1, [sp, #0]	@ StartUpCounter.8, StartUpCounter
 146 005c B1F5A06F 		cmp	r1, #1280	@ StartUpCounter.8,
 147 0060 09D0     		beq	.L2	@,
 148              	.L3:
 367:cmsis/device/system_stm32f4xx.c ****     HSEStatus = RCC->CR & RCC_CR_HSERDY;
 149              		.loc 1 367 0
 150 0062 0368     		ldr	r3, [r0, #0]	@ D.6668, MEM[(struct RCC_TypeDef *)1073887232B].CR
 151 0064 03F40032 		and	r2, r3, #131072	@ HSEStatus.4, D.6668,
 152              	.LVL2:
 153 0068 0192     		str	r2, [sp, #4]	@ HSEStatus.4, HSEStatus
 154              	.LVL3:
 368:cmsis/device/system_stm32f4xx.c ****     StartUpCounter++;
 155              		.loc 1 368 0
 156 006a 0099     		ldr	r1, [sp, #0]	@ StartUpCounter.5, StartUpCounter
 157 006c 4B1C     		adds	r3, r1, #1	@ StartUpCounter.6, StartUpCounter.5,
 158              	.LVL4:
 159 006e 0093     		str	r3, [sp, #0]	@ StartUpCounter.6, StartUpCounter
 160              	.LVL5:
 161              		.loc 1 369 0
 162 0070 019A     		ldr	r2, [sp, #4]	@ HSEStatus.7, HSEStatus
 163              	.LVL6:
 164 0072 002A     		cmp	r2, #0	@ HSEStatus.7
 165 0074 F1D0     		beq	.L22	@
 166              	.L2:
 370:cmsis/device/system_stm32f4xx.c **** 
 371:cmsis/device/system_stm32f4xx.c ****   if ((RCC->CR & RCC_CR_HSERDY) != RESET)
 167              		.loc 1 371 0
 168 0076 4FF46050 		mov	r0, #14336	@ tmp198,
 169 007a C4F20200 		movt	r0, 16386	@ tmp198,
 170 007e 0368     		ldr	r3, [r0, #0]	@ D.6662, MEM[(struct RCC_TypeDef *)1073887232B].CR
 171 0080 13F40032 		ands	r2, r3, #131072	@ tmp199, D.6662,
 172 0084 22D0     		beq	.L4	@,
 372:cmsis/device/system_stm32f4xx.c ****   {
 373:cmsis/device/system_stm32f4xx.c ****     HSEStatus = (uint32_t)0x01;
 173              		.loc 1 373 0
 174 0086 0121     		movs	r1, #1	@ tmp200,
 175 0088 0191     		str	r1, [sp, #4]	@ tmp200, HSEStatus
 374:cmsis/device/system_stm32f4xx.c ****   }
 375:cmsis/device/system_stm32f4xx.c ****   else
 376:cmsis/device/system_stm32f4xx.c ****   {
 377:cmsis/device/system_stm32f4xx.c ****     HSEStatus = (uint32_t)0x00;
 378:cmsis/device/system_stm32f4xx.c ****   }
 379:cmsis/device/system_stm32f4xx.c **** 
 380:cmsis/device/system_stm32f4xx.c ****   if (HSEStatus == (uint32_t)0x01)
 176              		.loc 1 380 0
 177 008a 0198     		ldr	r0, [sp, #4]	@ HSEStatus.9, HSEStatus
 178 008c 0128     		cmp	r0, #1	@ HSEStatus.9,
 179 008e 21D0     		beq	.L6	@,
 180              	.L10:
 381:cmsis/device/system_stm32f4xx.c ****   {
 382:cmsis/device/system_stm32f4xx.c ****     /* Select regulator voltage output Scale 1 mode, System frequency up to 168 MHz */
ARM GAS  C:\Users\CNous\AppData\Local\Temp\ccLV38g2.s 			page 11


 383:cmsis/device/system_stm32f4xx.c ****     RCC->APB1ENR |= RCC_APB1ENR_PWREN;
 384:cmsis/device/system_stm32f4xx.c ****     PWR->CR |= PWR_CR_VOS;
 385:cmsis/device/system_stm32f4xx.c **** 
 386:cmsis/device/system_stm32f4xx.c ****     /* HCLK = SYSCLK / 1*/
 387:cmsis/device/system_stm32f4xx.c ****     RCC->CFGR |= RCC_CFGR_HPRE_DIV1;
 388:cmsis/device/system_stm32f4xx.c ****       
 389:cmsis/device/system_stm32f4xx.c ****     /* PCLK2 = HCLK / 16*/
 390:cmsis/device/system_stm32f4xx.c ****     RCC->CFGR |= RCC_CFGR_PPRE2_DIV16;
 391:cmsis/device/system_stm32f4xx.c ****     
 392:cmsis/device/system_stm32f4xx.c ****     /* PCLK1 = HCLK / 16*/
 393:cmsis/device/system_stm32f4xx.c ****     RCC->CFGR |= RCC_CFGR_PPRE1_DIV16;
 394:cmsis/device/system_stm32f4xx.c **** 
 395:cmsis/device/system_stm32f4xx.c ****     /* Configure the main PLL */
 396:cmsis/device/system_stm32f4xx.c ****     RCC->PLLCFGR = PLL_M | (PLL_N << 6) | (((PLL_P >> 1) -1) << 16) |
 397:cmsis/device/system_stm32f4xx.c ****                    (RCC_PLLCFGR_PLLSRC_HSE) | (PLL_Q << 24);
 398:cmsis/device/system_stm32f4xx.c **** 
 399:cmsis/device/system_stm32f4xx.c ****     /* Enable the main PLL */
 400:cmsis/device/system_stm32f4xx.c ****     RCC->CR |= RCC_CR_PLLON;
 401:cmsis/device/system_stm32f4xx.c **** 
 402:cmsis/device/system_stm32f4xx.c ****     /* Wait till the main PLL is ready */
 403:cmsis/device/system_stm32f4xx.c ****     while((RCC->CR & RCC_CR_PLLRDY) == 0)
 404:cmsis/device/system_stm32f4xx.c ****     {
 405:cmsis/device/system_stm32f4xx.c ****     }
 406:cmsis/device/system_stm32f4xx.c ****    
 407:cmsis/device/system_stm32f4xx.c ****     /* Configure Flash prefetch, Instruction cache, Data cache and wait state */
 408:cmsis/device/system_stm32f4xx.c ****     FLASH->ACR = FLASH_ACR_ICEN |FLASH_ACR_DCEN |FLASH_ACR_LATENCY_5WS;
 409:cmsis/device/system_stm32f4xx.c **** 
 410:cmsis/device/system_stm32f4xx.c ****     /* Select the main PLL as system clock source */
 411:cmsis/device/system_stm32f4xx.c ****     RCC->CFGR &= (uint32_t)((uint32_t)~(RCC_CFGR_SW));
 412:cmsis/device/system_stm32f4xx.c ****     RCC->CFGR |= RCC_CFGR_SW_PLL;
 413:cmsis/device/system_stm32f4xx.c **** 
 414:cmsis/device/system_stm32f4xx.c ****     /* Wait till the main PLL is used as system clock source */
 415:cmsis/device/system_stm32f4xx.c ****     while ((RCC->CFGR & (uint32_t)RCC_CFGR_SWS ) != RCC_CFGR_SWS_PLL);
 416:cmsis/device/system_stm32f4xx.c ****     {
 417:cmsis/device/system_stm32f4xx.c ****     }
 418:cmsis/device/system_stm32f4xx.c ****   }
 419:cmsis/device/system_stm32f4xx.c ****   else
 420:cmsis/device/system_stm32f4xx.c ****   { /* If HSE fails to start-up, the application will have wrong clock
 421:cmsis/device/system_stm32f4xx.c ****          configuration. User can add here some code to deal with this error */
 422:cmsis/device/system_stm32f4xx.c ****   }
 423:cmsis/device/system_stm32f4xx.c **** 
 424:cmsis/device/system_stm32f4xx.c **** 
 425:cmsis/device/system_stm32f4xx.c **** /******************************************************************************/
 426:cmsis/device/system_stm32f4xx.c **** /*                          I2S clock configuration                           */
 427:cmsis/device/system_stm32f4xx.c **** /******************************************************************************/
 428:cmsis/device/system_stm32f4xx.c ****   /* PLLI2S clock used as I2S clock source */
 429:cmsis/device/system_stm32f4xx.c ****   RCC->CFGR &= ~RCC_CFGR_I2SSRC;
 181              		.loc 1 429 0
 182 0090 4FF46052 		mov	r2, #14336	@ tmp202,
 183 0094 C4F20202 		movt	r2, 16386	@ tmp202,
 430:cmsis/device/system_stm32f4xx.c **** 
 431:cmsis/device/system_stm32f4xx.c ****   /* Configure PLLI2S */
 432:cmsis/device/system_stm32f4xx.c ****   RCC->PLLI2SCFGR = (PLLI2S_N << 6) | (PLLI2S_R << 28);
 184              		.loc 1 432 0
 185 0098 4FF48143 		mov	r3, #16512	@ tmp205,
 429:cmsis/device/system_stm32f4xx.c ****   RCC->CFGR &= ~RCC_CFGR_I2SSRC;
 186              		.loc 1 429 0
ARM GAS  C:\Users\CNous\AppData\Local\Temp\ccLV38g2.s 			page 12


 187 009c 9168     		ldr	r1, [r2, #8]	@ D.6640, MEM[(struct RCC_TypeDef *)1073887232B].CFGR
 188              		.loc 1 432 0
 189 009e C3F20003 		movt	r3, 12288	@ tmp205,
 429:cmsis/device/system_stm32f4xx.c ****   RCC->CFGR &= ~RCC_CFGR_I2SSRC;
 190              		.loc 1 429 0
 191 00a2 21F40000 		bic	r0, r1, #8388608	@ D.6639, D.6640,
 192 00a6 9060     		str	r0, [r2, #8]	@ D.6639, MEM[(struct RCC_TypeDef *)1073887232B].CFGR
 193              		.loc 1 432 0
 194 00a8 C2F88430 		str	r3, [r2, #132]	@ tmp205, MEM[(struct RCC_TypeDef *)1073887232B].PLLI2SCFGR
 433:cmsis/device/system_stm32f4xx.c **** 
 434:cmsis/device/system_stm32f4xx.c ****   /* Enable PLLI2S */
 435:cmsis/device/system_stm32f4xx.c ****   RCC->CR |= ((uint32_t)RCC_CR_PLLI2SON);
 195              		.loc 1 435 0
 196 00ac 1368     		ldr	r3, [r2, #0]	@ D.6638, MEM[(struct RCC_TypeDef *)1073887232B].CR
 197 00ae 43F08061 		orr	r1, r3, #67108864	@ D.6637, D.6638,
 198 00b2 1160     		str	r1, [r2, #0]	@ D.6637, MEM[(struct RCC_TypeDef *)1073887232B].CR
 199              	.L7:
 436:cmsis/device/system_stm32f4xx.c **** 
 437:cmsis/device/system_stm32f4xx.c ****   /* Wait till PLLI2S is ready */
 438:cmsis/device/system_stm32f4xx.c ****   while((RCC->CR & RCC_CR_PLLI2SRDY) == 0)
 200              		.loc 1 438 0
 201 00b4 1068     		ldr	r0, [r2, #0]	@ D.6636, MEM[(struct RCC_TypeDef *)1073887232B].CR
 202 00b6 0301     		lsls	r3, r0, #4	@, D.6636,
 203 00b8 FCD5     		bpl	.L7	@,
 204              	.LBE5:
 205              	.LBE4:
 258:cmsis/device/system_stm32f4xx.c ****   SCB->VTOR = FLASH_BASE | VECT_TAB_OFFSET; /* Vector Table Relocation in Internal FLASH */
 206              		.loc 1 258 0
 207 00ba 4FF46D43 		mov	r3, #60672	@ tmp234,
 208 00be CEF20003 		movt	r3, 57344	@ tmp234,
 209 00c2 4FF00062 		mov	r2, #134217728	@ tmp235,
 210 00c6 9A60     		str	r2, [r3, #8]	@ tmp235, MEM[(struct SCB_Type *)3758157056B].VTOR
 260:cmsis/device/system_stm32f4xx.c **** }
 211              		.loc 1 260 0
 212 00c8 02B0     		add	sp, sp, #8	@,,
 213 00ca 7047     		bx	lr
 214              	.L4:
 215              	.LBB7:
 216              	.LBB6:
 377:cmsis/device/system_stm32f4xx.c ****     HSEStatus = (uint32_t)0x00;
 217              		.loc 1 377 0
 218 00cc 0192     		str	r2, [sp, #4]	@ tmp199, HSEStatus
 380:cmsis/device/system_stm32f4xx.c ****   if (HSEStatus == (uint32_t)0x01)
 219              		.loc 1 380 0
 220 00ce 0198     		ldr	r0, [sp, #4]	@ HSEStatus.9, HSEStatus
 221 00d0 0128     		cmp	r0, #1	@ HSEStatus.9,
 222 00d2 DDD1     		bne	.L10	@,
 223              	.L6:
 383:cmsis/device/system_stm32f4xx.c ****     RCC->APB1ENR |= RCC_APB1ENR_PWREN;
 224              		.loc 1 383 0
 225 00d4 4FF46053 		mov	r3, #14336	@ tmp208,
 226 00d8 C4F20203 		movt	r3, 16386	@ tmp208,
 384:cmsis/device/system_stm32f4xx.c ****     PWR->CR |= PWR_CR_VOS;
 227              		.loc 1 384 0
 228 00dc 4FF4E042 		mov	r2, #28672	@ tmp210,
 383:cmsis/device/system_stm32f4xx.c ****     RCC->APB1ENR |= RCC_APB1ENR_PWREN;
 229              		.loc 1 383 0
ARM GAS  C:\Users\CNous\AppData\Local\Temp\ccLV38g2.s 			page 13


 230 00e0 196C     		ldr	r1, [r3, #64]	@ D.6659, MEM[(struct RCC_TypeDef *)1073887232B].APB1ENR
 384:cmsis/device/system_stm32f4xx.c ****     PWR->CR |= PWR_CR_VOS;
 231              		.loc 1 384 0
 232 00e2 C4F20002 		movt	r2, 16384	@ tmp210,
 383:cmsis/device/system_stm32f4xx.c ****     RCC->APB1ENR |= RCC_APB1ENR_PWREN;
 233              		.loc 1 383 0
 234 00e6 41F08050 		orr	r0, r1, #268435456	@ D.6658, D.6659,
 235 00ea 1864     		str	r0, [r3, #64]	@ D.6658, MEM[(struct RCC_TypeDef *)1073887232B].APB1ENR
 384:cmsis/device/system_stm32f4xx.c ****     PWR->CR |= PWR_CR_VOS;
 236              		.loc 1 384 0
 237 00ec 1168     		ldr	r1, [r2, #0]	@ D.6657, MEM[(struct PWR_TypeDef *)1073770496B].CR
 238 00ee 41F48040 		orr	r0, r1, #16384	@ D.6656, D.6657,
 239 00f2 1060     		str	r0, [r2, #0]	@ D.6656, MEM[(struct PWR_TypeDef *)1073770496B].CR
 387:cmsis/device/system_stm32f4xx.c ****     RCC->CFGR |= RCC_CFGR_HPRE_DIV1;
 240              		.loc 1 387 0
 241 00f4 9A68     		ldr	r2, [r3, #8]	@ D.6655, MEM[(struct RCC_TypeDef *)1073887232B].CFGR
 242 00f6 9A60     		str	r2, [r3, #8]	@ D.6655, MEM[(struct RCC_TypeDef *)1073887232B].CFGR
 390:cmsis/device/system_stm32f4xx.c ****     RCC->CFGR |= RCC_CFGR_PPRE2_DIV16;
 243              		.loc 1 390 0
 244 00f8 9968     		ldr	r1, [r3, #8]	@ D.6654, MEM[(struct RCC_TypeDef *)1073887232B].CFGR
 245 00fa 41F46040 		orr	r0, r1, #57344	@ D.6653, D.6654,
 246 00fe 9860     		str	r0, [r3, #8]	@ D.6653, MEM[(struct RCC_TypeDef *)1073887232B].CFGR
 393:cmsis/device/system_stm32f4xx.c ****     RCC->CFGR |= RCC_CFGR_PPRE1_DIV16;
 247              		.loc 1 393 0
 248 0100 9968     		ldr	r1, [r3, #8]	@ D.6652, MEM[(struct RCC_TypeDef *)1073887232B].CFGR
 396:cmsis/device/system_stm32f4xx.c ****     RCC->PLLCFGR = PLL_M | (PLL_N << 6) | (((PLL_P >> 1) -1) << 16) |
 249              		.loc 1 396 0
 250 0102 45F20842 		movw	r2, #21512	@ tmp219,
 393:cmsis/device/system_stm32f4xx.c ****     RCC->CFGR |= RCC_CFGR_PPRE1_DIV16;
 251              		.loc 1 393 0
 252 0106 41F4E050 		orr	r0, r1, #7168	@ D.6651, D.6652,
 396:cmsis/device/system_stm32f4xx.c ****     RCC->PLLCFGR = PLL_M | (PLL_N << 6) | (((PLL_P >> 1) -1) << 16) |
 253              		.loc 1 396 0
 254 010a C0F24072 		movt	r2, 1856	@ tmp219,
 393:cmsis/device/system_stm32f4xx.c ****     RCC->CFGR |= RCC_CFGR_PPRE1_DIV16;
 255              		.loc 1 393 0
 256 010e 9860     		str	r0, [r3, #8]	@ D.6651, MEM[(struct RCC_TypeDef *)1073887232B].CFGR
 396:cmsis/device/system_stm32f4xx.c ****     RCC->PLLCFGR = PLL_M | (PLL_N << 6) | (((PLL_P >> 1) -1) << 16) |
 257              		.loc 1 396 0
 258 0110 5A60     		str	r2, [r3, #4]	@ tmp219, MEM[(struct RCC_TypeDef *)1073887232B].PLLCFGR
 400:cmsis/device/system_stm32f4xx.c ****     RCC->CR |= RCC_CR_PLLON;
 259              		.loc 1 400 0
 260 0112 1968     		ldr	r1, [r3, #0]	@ D.6650, MEM[(struct RCC_TypeDef *)1073887232B].CR
 261 0114 41F08072 		orr	r2, r1, #16777216	@ D.6649, D.6650,
 262 0118 1A60     		str	r2, [r3, #0]	@ D.6649, MEM[(struct RCC_TypeDef *)1073887232B].CR
 403:cmsis/device/system_stm32f4xx.c ****     while((RCC->CR & RCC_CR_PLLRDY) == 0)
 263              		.loc 1 403 0
 264 011a 1846     		mov	r0, r3	@ tmp238, tmp208
 265              	.L8:
 266 011c 0168     		ldr	r1, [r0, #0]	@ D.6648, MEM[(struct RCC_TypeDef *)1073887232B].CR
 267 011e 4FF46053 		mov	r3, #14336	@ tmp222,
 268 0122 8A01     		lsls	r2, r1, #6	@, D.6648,
 269 0124 C4F20203 		movt	r3, 16386	@ tmp222,
 270 0128 F8D5     		bpl	.L8	@,
 408:cmsis/device/system_stm32f4xx.c ****     FLASH->ACR = FLASH_ACR_ICEN |FLASH_ACR_DCEN |FLASH_ACR_LATENCY_5WS;
 271              		.loc 1 408 0
 272 012a 4FF47052 		mov	r2, #15360	@ tmp224,
ARM GAS  C:\Users\CNous\AppData\Local\Temp\ccLV38g2.s 			page 14


 273 012e C4F20202 		movt	r2, 16386	@ tmp224,
 274 0132 40F20560 		movw	r0, #1541	@ tmp225,
 275 0136 1060     		str	r0, [r2, #0]	@ tmp225, MEM[(struct FLASH_TypeDef *)1073888256B].ACR
 411:cmsis/device/system_stm32f4xx.c ****     RCC->CFGR &= (uint32_t)((uint32_t)~(RCC_CFGR_SW));
 276              		.loc 1 411 0
 277 0138 9968     		ldr	r1, [r3, #8]	@ D.6646, MEM[(struct RCC_TypeDef *)1073887232B].CFGR
 278 013a 21F00302 		bic	r2, r1, #3	@ D.6645, D.6646,
 279 013e 9A60     		str	r2, [r3, #8]	@ D.6645, MEM[(struct RCC_TypeDef *)1073887232B].CFGR
 412:cmsis/device/system_stm32f4xx.c ****     RCC->CFGR |= RCC_CFGR_SW_PLL;
 280              		.loc 1 412 0
 281 0140 9868     		ldr	r0, [r3, #8]	@ D.6644, MEM[(struct RCC_TypeDef *)1073887232B].CFGR
 282 0142 40F00201 		orr	r1, r0, #2	@ D.6643, D.6644,
 283 0146 9960     		str	r1, [r3, #8]	@ D.6643, MEM[(struct RCC_TypeDef *)1073887232B].CFGR
 284              	.L9:
 415:cmsis/device/system_stm32f4xx.c ****     while ((RCC->CFGR & (uint32_t)RCC_CFGR_SWS ) != RCC_CFGR_SWS_PLL);
 285              		.loc 1 415 0
 286 0148 9A68     		ldr	r2, [r3, #8]	@ D.6642, MEM[(struct RCC_TypeDef *)1073887232B].CFGR
 287 014a 02F00C00 		and	r0, r2, #12	@ tmp231, D.6642,
 288 014e 0828     		cmp	r0, #8	@ tmp231,
 289 0150 FAD1     		bne	.L9	@,
 290 0152 9DE7     		b	.L10	@
 291              	.LBE6:
 292              	.LBE7:
 293              		.cfi_endproc
 294              	.LFE110:
 295              		.size	SystemInit, .-SystemInit
 296              		.section	.text.SystemCoreClockUpdate,"ax",%progbits
 297              		.align	2
 298              		.global	SystemCoreClockUpdate
 299              		.thumb
 300              		.thumb_func
 301              		.type	SystemCoreClockUpdate, %function
 302              	SystemCoreClockUpdate:
 303              	.LFB111:
 299:cmsis/device/system_stm32f4xx.c **** {
 304              		.loc 1 299 0
 305              		.cfi_startproc
 306              		@ args = 0, pretend = 0, frame = 0
 307              		@ frame_needed = 0, uses_anonymous_args = 0
 308              		@ link register save eliminated.
 309              	.LVL7:
 303:cmsis/device/system_stm32f4xx.c ****   tmp = RCC->CFGR & RCC_CFGR_SWS;
 310              		.loc 1 303 0
 311 0000 4FF46053 		mov	r3, #14336	@ tmp162,
 312 0004 C4F20203 		movt	r3, 16386	@ tmp162,
 313 0008 9A68     		ldr	r2, [r3, #8]	@ D.6544, MEM[(struct RCC_TypeDef *)1073887232B].CFGR
 314              	.LVL8:
 315 000a 02F00C00 		and	r0, r2, #12	@ tmp163, D.6544,
 316              	.LVL9:
 305:cmsis/device/system_stm32f4xx.c ****   switch (tmp)
 317              		.loc 1 305 0
 318 000e 0428     		cmp	r0, #4	@ tmp163,
 319 0010 13D0     		beq	.L25	@,
 320 0012 0828     		cmp	r0, #8	@ tmp163,
 321 0014 16D0     		beq	.L31	@,
 322 0016 4FF41052 		mov	r2, #9216	@ prephitmp.17,
 323 001a C0F2F402 		movt	r2, 244	@ prephitmp.17,
ARM GAS  C:\Users\CNous\AppData\Local\Temp\ccLV38g2.s 			page 15


 324              	.LVL10:
 325              	.L24:
 341:cmsis/device/system_stm32f4xx.c ****   tmp = AHBPrescTable[((RCC->CFGR & RCC_CFGR_HPRE) >> 4)];
 326              		.loc 1 341 0
 327 001e 4FF46053 		mov	r3, #14336	@ tmp187,
 328 0022 C4F20203 		movt	r3, 16386	@ tmp187,
 329 0026 1949     		ldr	r1, .L32	@ tmp189,
 330 0028 9868     		ldr	r0, [r3, #8]	@ D.6564, MEM[(struct RCC_TypeDef *)1073887232B].CFGR
 331 002a C0F30313 		ubfx	r3, r0, #4, #4	@ D.6566, D.6564,,
 332 002e C85C     		ldrb	r0, [r1, r3]	@ zero_extendqisi2	@ tmp192, AHBPrescTable
 333              	.LVL11:
 343:cmsis/device/system_stm32f4xx.c ****   SystemCoreClock >>= tmp;
 334              		.loc 1 343 0
 335 0030 174B     		ldr	r3, .L32+4	@ tmp193,
 336 0032 22FA00F2 		lsr	r2, r2, r0	@ tmp194, prephitmp.17, tmp192
 337 0036 1A60     		str	r2, [r3, #0]	@ tmp194, SystemCoreClock
 338 0038 7047     		bx	lr	@
 339              	.LVL12:
 340              	.L25:
 312:cmsis/device/system_stm32f4xx.c ****       break;
 341              		.loc 1 312 0
 342 003a 4FF49052 		mov	r2, #4608	@ prephitmp.17,
 343 003e C0F27A02 		movt	r2, 122	@ prephitmp.17,
 344 0042 ECE7     		b	.L24	@
 345              	.L31:
 318:cmsis/device/system_stm32f4xx.c ****       pllsource = (RCC->PLLCFGR & RCC_PLLCFGR_PLLSRC) >> 22;
 346              		.loc 1 318 0
 347 0044 5868     		ldr	r0, [r3, #4]	@ D.6545, MEM[(struct RCC_TypeDef *)1073887232B].PLLCFGR
 348              	.LVL13:
 319:cmsis/device/system_stm32f4xx.c ****       pllm = RCC->PLLCFGR & RCC_PLLCFGR_PLLM;
 349              		.loc 1 319 0
 350 0046 5968     		ldr	r1, [r3, #4]	@ D.6547, MEM[(struct RCC_TypeDef *)1073887232B].PLLCFGR
 321:cmsis/device/system_stm32f4xx.c ****       if (pllsource != 0)
 351              		.loc 1 321 0
 352 0048 10F4800F 		tst	r0, #4194304	@ D.6545,
 324:cmsis/device/system_stm32f4xx.c ****         pllvco = (HSE_VALUE / pllm) * ((RCC->PLLCFGR & RCC_PLLCFGR_PLLN) >> 6);
 353              		.loc 1 324 0
 354 004c 5868     		ldr	r0, [r3, #4]	@ D.6551,
 355              	.LVL14:
 319:cmsis/device/system_stm32f4xx.c ****       pllm = RCC->PLLCFGR & RCC_PLLCFGR_PLLM;
 356              		.loc 1 319 0
 357 004e 01F03F02 		and	r2, r1, #63	@ pllm, D.6547,
 358              	.LVL15:
 324:cmsis/device/system_stm32f4xx.c ****         pllvco = (HSE_VALUE / pllm) * ((RCC->PLLCFGR & RCC_PLLCFGR_PLLN) >> 6);
 359              		.loc 1 324 0
 360 0052 14BF     		ite	ne
 361 0054 4FF49053 		movne	r3, #4608	@ tmp174,
 329:cmsis/device/system_stm32f4xx.c ****         pllvco = (HSI_VALUE / pllm) * ((RCC->PLLCFGR & RCC_PLLCFGR_PLLN) >> 6);      
 362              		.loc 1 329 0
 363 0058 4FF41053 		moveq	r3, #9216	@ tmp181,
 364 005c C0F38811 		ubfx	r1, r0, #6, #9	@ tmp178, D.6556,,
 332:cmsis/device/system_stm32f4xx.c ****       pllp = (((RCC->PLLCFGR & RCC_PLLCFGR_PLLP) >>16) + 1 ) *2;
 365              		.loc 1 332 0
 366 0060 4FF46050 		mov	r0, #14336	@ tmp182,
 324:cmsis/device/system_stm32f4xx.c ****         pllvco = (HSE_VALUE / pllm) * ((RCC->PLLCFGR & RCC_PLLCFGR_PLLN) >> 6);
 367              		.loc 1 324 0
 368 0064 14BF     		ite	ne
ARM GAS  C:\Users\CNous\AppData\Local\Temp\ccLV38g2.s 			page 16


 369 0066 C0F27A03 		movtne	r3, 122	@ tmp174,
 329:cmsis/device/system_stm32f4xx.c ****         pllvco = (HSI_VALUE / pllm) * ((RCC->PLLCFGR & RCC_PLLCFGR_PLLN) >> 6);      
 370              		.loc 1 329 0
 371 006a C0F2F403 		movteq	r3, 244	@ tmp181,
 332:cmsis/device/system_stm32f4xx.c ****       pllp = (((RCC->PLLCFGR & RCC_PLLCFGR_PLLP) >>16) + 1 ) *2;
 372              		.loc 1 332 0
 373 006e C4F20200 		movt	r0, 16386	@ tmp182,
 329:cmsis/device/system_stm32f4xx.c ****         pllvco = (HSI_VALUE / pllm) * ((RCC->PLLCFGR & RCC_PLLCFGR_PLLN) >> 6);      
 374              		.loc 1 329 0
 375 0072 B3FBF2F3 		udiv	r3, r3, r2	@ tmp180, tmp181, pllm
 376 0076 03FB01F2 		mul	r2, r3, r1	@ pllvco, tmp180, tmp178
 377              	.LVL16:
 332:cmsis/device/system_stm32f4xx.c ****       pllp = (((RCC->PLLCFGR & RCC_PLLCFGR_PLLP) >>16) + 1 ) *2;
 378              		.loc 1 332 0
 379 007a 4168     		ldr	r1, [r0, #4]	@ D.6559, MEM[(struct RCC_TypeDef *)1073887232B].PLLCFGR
 380              	.LVL17:
 381 007c C1F30143 		ubfx	r3, r1, #16, #2	@ tmp184, D.6559,,
 382 0080 581C     		adds	r0, r3, #1	@ tmp185, tmp184,
 383 0082 4100     		lsls	r1, r0, #1	@ tmp186, tmp185,
 384              	.LVL18:
 333:cmsis/device/system_stm32f4xx.c ****       SystemCoreClock = pllvco/pllp;
 385              		.loc 1 333 0
 386 0084 B2FBF1F2 		udiv	r2, r2, r1	@ prephitmp.17, pllvco, tmp186
 387              	.LVL19:
 334:cmsis/device/system_stm32f4xx.c ****       break;
 388              		.loc 1 334 0
 389 0088 C9E7     		b	.L24	@
 390              	.L33:
 391 008a 00BF     		.align	2
 392              	.L32:
 393 008c 00000000 		.word	.LANCHOR0
 394 0090 00000000 		.word	.LANCHOR1
 395              		.cfi_endproc
 396              	.LFE111:
 397              		.size	SystemCoreClockUpdate, .-SystemCoreClockUpdate
 398              		.global	AHBPrescTable
 399              		.global	SystemCoreClock
 400              		.section	.data.AHBPrescTable,"aw",%progbits
 401              		.align	2
 402              		.set	.LANCHOR0,. + 0
 403              		.type	AHBPrescTable, %object
 404              		.size	AHBPrescTable, 16
 405              	AHBPrescTable:
 406 0000 00       		.byte	0
 407 0001 00       		.byte	0
 408 0002 00       		.byte	0
 409 0003 00       		.byte	0
 410 0004 00       		.byte	0
 411 0005 00       		.byte	0
 412 0006 00       		.byte	0
 413 0007 00       		.byte	0
 414 0008 01       		.byte	1
 415 0009 02       		.byte	2
 416 000a 03       		.byte	3
 417 000b 04       		.byte	4
 418 000c 06       		.byte	6
 419 000d 07       		.byte	7
ARM GAS  C:\Users\CNous\AppData\Local\Temp\ccLV38g2.s 			page 17


 420 000e 08       		.byte	8
 421 000f 09       		.byte	9
 422              		.section	.data.SystemCoreClock,"aw",%progbits
 423              		.align	2
 424              		.set	.LANCHOR1,. + 0
 425              		.type	SystemCoreClock, %object
 426              		.size	SystemCoreClock, 4
 427              	SystemCoreClock:
 428 0000 007A030A 		.word	168000000
 429              		.text
 430              	.Letext0:
 431              		.file 2 "c:\\gnutoolsarmembedded\\4.7-2012q4\\bin\\../lib/gcc/arm-none-eabi/4.7.3/../../../../arm-
 432              		.file 3 "./cmsis/core/core_cm4.h"
 433              		.file 4 "cmsis/device/stm32f4xx.h"
 434              		.section	.debug_info,"",%progbits
 435              	.Ldebug_info0:
 436 0000 14060000 		.4byte	0x614
 437 0004 0200     		.2byte	0x2
 438 0006 00000000 		.4byte	.Ldebug_abbrev0
 439 000a 04       		.byte	0x4
 440 000b 01       		.uleb128 0x1
 441 000c 6D000000 		.4byte	.LASF74
 442 0010 01       		.byte	0x1
 443 0011 2F020000 		.4byte	.LASF75
 444 0015 FF010000 		.4byte	.LASF76
 445 0019 30000000 		.4byte	.Ldebug_ranges0+0x30
 446 001d 00000000 		.4byte	0
 447 0021 00000000 		.4byte	0
 448 0025 00000000 		.4byte	.Ldebug_line0
 449 0029 02       		.uleb128 0x2
 450 002a 01       		.byte	0x1
 451 002b 06       		.byte	0x6
 452 002c 92010000 		.4byte	.LASF0
 453 0030 03       		.uleb128 0x3
 454 0031 C0000000 		.4byte	.LASF3
 455 0035 02       		.byte	0x2
 456 0036 2A       		.byte	0x2a
 457 0037 3B000000 		.4byte	0x3b
 458 003b 02       		.uleb128 0x2
 459 003c 01       		.byte	0x1
 460 003d 08       		.byte	0x8
 461 003e 6D010000 		.4byte	.LASF1
 462 0042 02       		.uleb128 0x2
 463 0043 02       		.byte	0x2
 464 0044 05       		.byte	0x5
 465 0045 F0000000 		.4byte	.LASF2
 466 0049 03       		.uleb128 0x3
 467 004a C8010000 		.4byte	.LASF4
 468 004e 02       		.byte	0x2
 469 004f 36       		.byte	0x36
 470 0050 54000000 		.4byte	0x54
 471 0054 02       		.uleb128 0x2
 472 0055 02       		.byte	0x2
 473 0056 07       		.byte	0x7
 474 0057 4F020000 		.4byte	.LASF5
 475 005b 03       		.uleb128 0x3
 476 005c 78020000 		.4byte	.LASF6
ARM GAS  C:\Users\CNous\AppData\Local\Temp\ccLV38g2.s 			page 18


 477 0060 02       		.byte	0x2
 478 0061 4F       		.byte	0x4f
 479 0062 66000000 		.4byte	0x66
 480 0066 02       		.uleb128 0x2
 481 0067 04       		.byte	0x4
 482 0068 05       		.byte	0x5
 483 0069 1A010000 		.4byte	.LASF7
 484 006d 03       		.uleb128 0x3
 485 006e E7000000 		.4byte	.LASF8
 486 0072 02       		.byte	0x2
 487 0073 50       		.byte	0x50
 488 0074 78000000 		.4byte	0x78
 489 0078 02       		.uleb128 0x2
 490 0079 04       		.byte	0x4
 491 007a 07       		.byte	0x7
 492 007b D1010000 		.4byte	.LASF9
 493 007f 02       		.uleb128 0x2
 494 0080 08       		.byte	0x8
 495 0081 05       		.byte	0x5
 496 0082 07010000 		.4byte	.LASF10
 497 0086 02       		.uleb128 0x2
 498 0087 08       		.byte	0x8
 499 0088 07       		.byte	0x7
 500 0089 9E010000 		.4byte	.LASF11
 501 008d 04       		.uleb128 0x4
 502 008e 04       		.byte	0x4
 503 008f 05       		.byte	0x5
 504 0090 696E7400 		.ascii	"int\000"
 505 0094 02       		.uleb128 0x2
 506 0095 04       		.byte	0x4
 507 0096 07       		.byte	0x7
 508 0097 BB010000 		.4byte	.LASF12
 509 009b 02       		.uleb128 0x2
 510 009c 04       		.byte	0x4
 511 009d 07       		.byte	0x7
 512 009e 23000000 		.4byte	.LASF13
 513 00a2 05       		.uleb128 0x5
 514 00a3 6D000000 		.4byte	0x6d
 515 00a7 06       		.uleb128 0x6
 516 00a8 8C       		.byte	0x8c
 517 00a9 03       		.byte	0x3
 518 00aa 4F01     		.2byte	0x14f
 519 00ac ED010000 		.4byte	0x1ed
 520 00b0 07       		.uleb128 0x7
 521 00b1 58000000 		.4byte	.LASF14
 522 00b5 03       		.byte	0x3
 523 00b6 5101     		.2byte	0x151
 524 00b8 ED010000 		.4byte	0x1ed
 525 00bc 02       		.byte	0x2
 526 00bd 23       		.byte	0x23
 527 00be 00       		.uleb128 0
 528 00bf 07       		.uleb128 0x7
 529 00c0 FA000000 		.4byte	.LASF15
 530 00c4 03       		.byte	0x3
 531 00c5 5201     		.2byte	0x152
 532 00c7 A2000000 		.4byte	0xa2
 533 00cb 02       		.byte	0x2
ARM GAS  C:\Users\CNous\AppData\Local\Temp\ccLV38g2.s 			page 19


 534 00cc 23       		.byte	0x23
 535 00cd 04       		.uleb128 0x4
 536 00ce 07       		.uleb128 0x7
 537 00cf 73020000 		.4byte	.LASF16
 538 00d3 03       		.byte	0x3
 539 00d4 5301     		.2byte	0x153
 540 00d6 A2000000 		.4byte	0xa2
 541 00da 02       		.byte	0x2
 542 00db 23       		.byte	0x23
 543 00dc 08       		.uleb128 0x8
 544 00dd 07       		.uleb128 0x7
 545 00de 67010000 		.4byte	.LASF17
 546 00e2 03       		.byte	0x3
 547 00e3 5401     		.2byte	0x154
 548 00e5 A2000000 		.4byte	0xa2
 549 00e9 02       		.byte	0x2
 550 00ea 23       		.byte	0x23
 551 00eb 0C       		.uleb128 0xc
 552 00ec 08       		.uleb128 0x8
 553 00ed 53435200 		.ascii	"SCR\000"
 554 00f1 03       		.byte	0x3
 555 00f2 5501     		.2byte	0x155
 556 00f4 A2000000 		.4byte	0xa2
 557 00f8 02       		.byte	0x2
 558 00f9 23       		.byte	0x23
 559 00fa 10       		.uleb128 0x10
 560 00fb 08       		.uleb128 0x8
 561 00fc 43435200 		.ascii	"CCR\000"
 562 0100 03       		.byte	0x3
 563 0101 5601     		.2byte	0x156
 564 0103 A2000000 		.4byte	0xa2
 565 0107 02       		.byte	0x2
 566 0108 23       		.byte	0x23
 567 0109 14       		.uleb128 0x14
 568 010a 08       		.uleb128 0x8
 569 010b 53485000 		.ascii	"SHP\000"
 570 010f 03       		.byte	0x3
 571 0110 5701     		.2byte	0x157
 572 0112 02020000 		.4byte	0x202
 573 0116 02       		.byte	0x2
 574 0117 23       		.byte	0x23
 575 0118 18       		.uleb128 0x18
 576 0119 07       		.uleb128 0x7
 577 011a B5010000 		.4byte	.LASF18
 578 011e 03       		.byte	0x3
 579 011f 5801     		.2byte	0x158
 580 0121 A2000000 		.4byte	0xa2
 581 0125 02       		.byte	0x2
 582 0126 23       		.byte	0x23
 583 0127 24       		.uleb128 0x24
 584 0128 07       		.uleb128 0x7
 585 0129 38010000 		.4byte	.LASF19
 586 012d 03       		.byte	0x3
 587 012e 5901     		.2byte	0x159
 588 0130 A2000000 		.4byte	0xa2
 589 0134 02       		.byte	0x2
 590 0135 23       		.byte	0x23
ARM GAS  C:\Users\CNous\AppData\Local\Temp\ccLV38g2.s 			page 20


 591 0136 28       		.uleb128 0x28
 592 0137 07       		.uleb128 0x7
 593 0138 9A020000 		.4byte	.LASF20
 594 013c 03       		.byte	0x3
 595 013d 5A01     		.2byte	0x15a
 596 013f A2000000 		.4byte	0xa2
 597 0143 02       		.byte	0x2
 598 0144 23       		.byte	0x23
 599 0145 2C       		.uleb128 0x2c
 600 0146 07       		.uleb128 0x7
 601 0147 85020000 		.4byte	.LASF21
 602 014b 03       		.byte	0x3
 603 014c 5B01     		.2byte	0x15b
 604 014e A2000000 		.4byte	0xa2
 605 0152 02       		.byte	0x2
 606 0153 23       		.byte	0x23
 607 0154 30       		.uleb128 0x30
 608 0155 07       		.uleb128 0x7
 609 0156 F9010000 		.4byte	.LASF22
 610 015a 03       		.byte	0x3
 611 015b 5C01     		.2byte	0x15c
 612 015d A2000000 		.4byte	0xa2
 613 0161 02       		.byte	0x2
 614 0162 23       		.byte	0x23
 615 0163 34       		.uleb128 0x34
 616 0164 07       		.uleb128 0x7
 617 0165 15010000 		.4byte	.LASF23
 618 0169 03       		.byte	0x3
 619 016a 5D01     		.2byte	0x15d
 620 016c A2000000 		.4byte	0xa2
 621 0170 02       		.byte	0x2
 622 0171 23       		.byte	0x23
 623 0172 38       		.uleb128 0x38
 624 0173 07       		.uleb128 0x7
 625 0174 0D030000 		.4byte	.LASF24
 626 0178 03       		.byte	0x3
 627 0179 5E01     		.2byte	0x15e
 628 017b A2000000 		.4byte	0xa2
 629 017f 02       		.byte	0x2
 630 0180 23       		.byte	0x23
 631 0181 3C       		.uleb128 0x3c
 632 0182 08       		.uleb128 0x8
 633 0183 50465200 		.ascii	"PFR\000"
 634 0187 03       		.byte	0x3
 635 0188 5F01     		.2byte	0x15f
 636 018a 17020000 		.4byte	0x217
 637 018e 02       		.byte	0x2
 638 018f 23       		.byte	0x23
 639 0190 40       		.uleb128 0x40
 640 0191 08       		.uleb128 0x8
 641 0192 44465200 		.ascii	"DFR\000"
 642 0196 03       		.byte	0x3
 643 0197 6001     		.2byte	0x160
 644 0199 ED010000 		.4byte	0x1ed
 645 019d 02       		.byte	0x2
 646 019e 23       		.byte	0x23
 647 019f 48       		.uleb128 0x48
ARM GAS  C:\Users\CNous\AppData\Local\Temp\ccLV38g2.s 			page 21


 648 01a0 08       		.uleb128 0x8
 649 01a1 41445200 		.ascii	"ADR\000"
 650 01a5 03       		.byte	0x3
 651 01a6 6101     		.2byte	0x161
 652 01a8 ED010000 		.4byte	0x1ed
 653 01ac 02       		.byte	0x2
 654 01ad 23       		.byte	0x23
 655 01ae 4C       		.uleb128 0x4c
 656 01af 07       		.uleb128 0x7
 657 01b0 A9020000 		.4byte	.LASF25
 658 01b4 03       		.byte	0x3
 659 01b5 6201     		.2byte	0x162
 660 01b7 31020000 		.4byte	0x231
 661 01bb 02       		.byte	0x2
 662 01bc 23       		.byte	0x23
 663 01bd 50       		.uleb128 0x50
 664 01be 07       		.uleb128 0x7
 665 01bf 80020000 		.4byte	.LASF26
 666 01c3 03       		.byte	0x3
 667 01c4 6301     		.2byte	0x163
 668 01c6 4B020000 		.4byte	0x24b
 669 01ca 02       		.byte	0x2
 670 01cb 23       		.byte	0x23
 671 01cc 60       		.uleb128 0x60
 672 01cd 07       		.uleb128 0x7
 673 01ce AE020000 		.4byte	.LASF27
 674 01d2 03       		.byte	0x3
 675 01d3 6401     		.2byte	0x164
 676 01d5 3B020000 		.4byte	0x23b
 677 01d9 02       		.byte	0x2
 678 01da 23       		.byte	0x23
 679 01db 74       		.uleb128 0x74
 680 01dc 07       		.uleb128 0x7
 681 01dd 36030000 		.4byte	.LASF28
 682 01e1 03       		.byte	0x3
 683 01e2 6501     		.2byte	0x165
 684 01e4 A2000000 		.4byte	0xa2
 685 01e8 03       		.byte	0x3
 686 01e9 23       		.byte	0x23
 687 01ea 8801     		.uleb128 0x88
 688 01ec 00       		.byte	0
 689 01ed 09       		.uleb128 0x9
 690 01ee A2000000 		.4byte	0xa2
 691 01f2 0A       		.uleb128 0xa
 692 01f3 30000000 		.4byte	0x30
 693 01f7 02020000 		.4byte	0x202
 694 01fb 0B       		.uleb128 0xb
 695 01fc 9B000000 		.4byte	0x9b
 696 0200 0B       		.byte	0xb
 697 0201 00       		.byte	0
 698 0202 05       		.uleb128 0x5
 699 0203 F2010000 		.4byte	0x1f2
 700 0207 0A       		.uleb128 0xa
 701 0208 6D000000 		.4byte	0x6d
 702 020c 17020000 		.4byte	0x217
 703 0210 0B       		.uleb128 0xb
 704 0211 9B000000 		.4byte	0x9b
ARM GAS  C:\Users\CNous\AppData\Local\Temp\ccLV38g2.s 			page 22


 705 0215 01       		.byte	0x1
 706 0216 00       		.byte	0
 707 0217 09       		.uleb128 0x9
 708 0218 1C020000 		.4byte	0x21c
 709 021c 05       		.uleb128 0x5
 710 021d 07020000 		.4byte	0x207
 711 0221 0A       		.uleb128 0xa
 712 0222 6D000000 		.4byte	0x6d
 713 0226 31020000 		.4byte	0x231
 714 022a 0B       		.uleb128 0xb
 715 022b 9B000000 		.4byte	0x9b
 716 022f 03       		.byte	0x3
 717 0230 00       		.byte	0
 718 0231 09       		.uleb128 0x9
 719 0232 36020000 		.4byte	0x236
 720 0236 05       		.uleb128 0x5
 721 0237 21020000 		.4byte	0x221
 722 023b 0A       		.uleb128 0xa
 723 023c 6D000000 		.4byte	0x6d
 724 0240 4B020000 		.4byte	0x24b
 725 0244 0B       		.uleb128 0xb
 726 0245 9B000000 		.4byte	0x9b
 727 0249 04       		.byte	0x4
 728 024a 00       		.byte	0
 729 024b 09       		.uleb128 0x9
 730 024c 50020000 		.4byte	0x250
 731 0250 05       		.uleb128 0x5
 732 0251 3B020000 		.4byte	0x23b
 733 0255 0C       		.uleb128 0xc
 734 0256 C8000000 		.4byte	.LASF29
 735 025a 03       		.byte	0x3
 736 025b 6601     		.2byte	0x166
 737 025d A7000000 		.4byte	0xa7
 738 0261 05       		.uleb128 0x5
 739 0262 5B000000 		.4byte	0x5b
 740 0266 0D       		.uleb128 0xd
 741 0267 01       		.byte	0x1
 742 0268 04       		.byte	0x4
 743 0269 1801     		.2byte	0x118
 744 026b 7C020000 		.4byte	0x27c
 745 026f 0E       		.uleb128 0xe
 746 0270 FE020000 		.4byte	.LASF30
 747 0274 00       		.sleb128 0
 748 0275 0F       		.uleb128 0xf
 749 0276 53455400 		.ascii	"SET\000"
 750 027a 01       		.sleb128 1
 751 027b 00       		.byte	0
 752 027c 06       		.uleb128 0x6
 753 027d 18       		.byte	0x18
 754 027e 04       		.byte	0x4
 755 027f 4002     		.2byte	0x240
 756 0281 DE020000 		.4byte	0x2de
 757 0285 08       		.uleb128 0x8
 758 0286 41435200 		.ascii	"ACR\000"
 759 028a 04       		.byte	0x4
 760 028b 4202     		.2byte	0x242
 761 028d A2000000 		.4byte	0xa2
ARM GAS  C:\Users\CNous\AppData\Local\Temp\ccLV38g2.s 			page 23


 762 0291 02       		.byte	0x2
 763 0292 23       		.byte	0x23
 764 0293 00       		.uleb128 0
 765 0294 07       		.uleb128 0x7
 766 0295 58010000 		.4byte	.LASF31
 767 0299 04       		.byte	0x4
 768 029a 4302     		.2byte	0x243
 769 029c A2000000 		.4byte	0xa2
 770 02a0 02       		.byte	0x2
 771 02a1 23       		.byte	0x23
 772 02a2 04       		.uleb128 0x4
 773 02a3 07       		.uleb128 0x7
 774 02a4 FF000000 		.4byte	.LASF32
 775 02a8 04       		.byte	0x4
 776 02a9 4402     		.2byte	0x244
 777 02ab A2000000 		.4byte	0xa2
 778 02af 02       		.byte	0x2
 779 02b0 23       		.byte	0x23
 780 02b1 08       		.uleb128 0x8
 781 02b2 08       		.uleb128 0x8
 782 02b3 535200   		.ascii	"SR\000"
 783 02b6 04       		.byte	0x4
 784 02b7 4502     		.2byte	0x245
 785 02b9 A2000000 		.4byte	0xa2
 786 02bd 02       		.byte	0x2
 787 02be 23       		.byte	0x23
 788 02bf 0C       		.uleb128 0xc
 789 02c0 08       		.uleb128 0x8
 790 02c1 435200   		.ascii	"CR\000"
 791 02c4 04       		.byte	0x4
 792 02c5 4602     		.2byte	0x246
 793 02c7 A2000000 		.4byte	0xa2
 794 02cb 02       		.byte	0x2
 795 02cc 23       		.byte	0x23
 796 02cd 10       		.uleb128 0x10
 797 02ce 07       		.uleb128 0x7
 798 02cf 46030000 		.4byte	.LASF33
 799 02d3 04       		.byte	0x4
 800 02d4 4702     		.2byte	0x247
 801 02d6 A2000000 		.4byte	0xa2
 802 02da 02       		.byte	0x2
 803 02db 23       		.byte	0x23
 804 02dc 14       		.uleb128 0x14
 805 02dd 00       		.byte	0
 806 02de 0C       		.uleb128 0xc
 807 02df 1B030000 		.4byte	.LASF34
 808 02e3 04       		.byte	0x4
 809 02e4 4802     		.2byte	0x248
 810 02e6 7C020000 		.4byte	0x27c
 811 02ea 06       		.uleb128 0x6
 812 02eb 08       		.byte	0x8
 813 02ec 04       		.byte	0x4
 814 02ed CE02     		.2byte	0x2ce
 815 02ef 11030000 		.4byte	0x311
 816 02f3 08       		.uleb128 0x8
 817 02f4 435200   		.ascii	"CR\000"
 818 02f7 04       		.byte	0x4
ARM GAS  C:\Users\CNous\AppData\Local\Temp\ccLV38g2.s 			page 24


 819 02f8 D002     		.2byte	0x2d0
 820 02fa A2000000 		.4byte	0xa2
 821 02fe 02       		.byte	0x2
 822 02ff 23       		.byte	0x23
 823 0300 00       		.uleb128 0
 824 0301 08       		.uleb128 0x8
 825 0302 43535200 		.ascii	"CSR\000"
 826 0306 04       		.byte	0x4
 827 0307 D102     		.2byte	0x2d1
 828 0309 A2000000 		.4byte	0xa2
 829 030d 02       		.byte	0x2
 830 030e 23       		.byte	0x23
 831 030f 04       		.uleb128 0x4
 832 0310 00       		.byte	0
 833 0311 0C       		.uleb128 0xc
 834 0312 3C000000 		.4byte	.LASF35
 835 0316 04       		.byte	0x4
 836 0317 D202     		.2byte	0x2d2
 837 0319 EA020000 		.4byte	0x2ea
 838 031d 06       		.uleb128 0x6
 839 031e 88       		.byte	0x88
 840 031f 04       		.byte	0x4
 841 0320 D802     		.2byte	0x2d8
 842 0322 EA040000 		.4byte	0x4ea
 843 0326 08       		.uleb128 0x8
 844 0327 435200   		.ascii	"CR\000"
 845 032a 04       		.byte	0x4
 846 032b DA02     		.2byte	0x2da
 847 032d A2000000 		.4byte	0xa2
 848 0331 02       		.byte	0x2
 849 0332 23       		.byte	0x23
 850 0333 00       		.uleb128 0
 851 0334 07       		.uleb128 0x7
 852 0335 0A000000 		.4byte	.LASF36
 853 0339 04       		.byte	0x4
 854 033a DB02     		.2byte	0x2db
 855 033c A2000000 		.4byte	0xa2
 856 0340 02       		.byte	0x2
 857 0341 23       		.byte	0x23
 858 0342 04       		.uleb128 0x4
 859 0343 07       		.uleb128 0x7
 860 0344 68000000 		.4byte	.LASF37
 861 0348 04       		.byte	0x4
 862 0349 DC02     		.2byte	0x2dc
 863 034b A2000000 		.4byte	0xa2
 864 034f 02       		.byte	0x2
 865 0350 23       		.byte	0x23
 866 0351 08       		.uleb128 0x8
 867 0352 08       		.uleb128 0x8
 868 0353 43495200 		.ascii	"CIR\000"
 869 0357 04       		.byte	0x4
 870 0358 DD02     		.2byte	0x2dd
 871 035a A2000000 		.4byte	0xa2
 872 035e 02       		.byte	0x2
 873 035f 23       		.byte	0x23
 874 0360 0C       		.uleb128 0xc
 875 0361 07       		.uleb128 0x7
ARM GAS  C:\Users\CNous\AppData\Local\Temp\ccLV38g2.s 			page 25


 876 0362 04030000 		.4byte	.LASF38
 877 0366 04       		.byte	0x4
 878 0367 DE02     		.2byte	0x2de
 879 0369 A2000000 		.4byte	0xa2
 880 036d 02       		.byte	0x2
 881 036e 23       		.byte	0x23
 882 036f 10       		.uleb128 0x10
 883 0370 07       		.uleb128 0x7
 884 0371 3D010000 		.4byte	.LASF39
 885 0375 04       		.byte	0x4
 886 0376 DF02     		.2byte	0x2df
 887 0378 A2000000 		.4byte	0xa2
 888 037c 02       		.byte	0x2
 889 037d 23       		.byte	0x23
 890 037e 14       		.uleb128 0x14
 891 037f 07       		.uleb128 0x7
 892 0380 12030000 		.4byte	.LASF40
 893 0384 04       		.byte	0x4
 894 0385 E002     		.2byte	0x2e0
 895 0387 A2000000 		.4byte	0xa2
 896 038b 02       		.byte	0x2
 897 038c 23       		.byte	0x23
 898 038d 18       		.uleb128 0x18
 899 038e 07       		.uleb128 0x7
 900 038f AE020000 		.4byte	.LASF27
 901 0393 04       		.byte	0x4
 902 0394 E102     		.2byte	0x2e1
 903 0396 6D000000 		.4byte	0x6d
 904 039a 02       		.byte	0x2
 905 039b 23       		.byte	0x23
 906 039c 1C       		.uleb128 0x1c
 907 039d 07       		.uleb128 0x7
 908 039e 12000000 		.4byte	.LASF41
 909 03a2 04       		.byte	0x4
 910 03a3 E202     		.2byte	0x2e2
 911 03a5 A2000000 		.4byte	0xa2
 912 03a9 02       		.byte	0x2
 913 03aa 23       		.byte	0x23
 914 03ab 20       		.uleb128 0x20
 915 03ac 07       		.uleb128 0x7
 916 03ad 2F010000 		.4byte	.LASF42
 917 03b1 04       		.byte	0x4
 918 03b2 E302     		.2byte	0x2e3
 919 03b4 A2000000 		.4byte	0xa2
 920 03b8 02       		.byte	0x2
 921 03b9 23       		.byte	0x23
 922 03ba 24       		.uleb128 0x24
 923 03bb 07       		.uleb128 0x7
 924 03bc B8020000 		.4byte	.LASF43
 925 03c0 04       		.byte	0x4
 926 03c1 E402     		.2byte	0x2e4
 927 03c3 07020000 		.4byte	0x207
 928 03c7 02       		.byte	0x2
 929 03c8 23       		.byte	0x23
 930 03c9 28       		.uleb128 0x28
 931 03ca 07       		.uleb128 0x7
 932 03cb F6020000 		.4byte	.LASF44
ARM GAS  C:\Users\CNous\AppData\Local\Temp\ccLV38g2.s 			page 26


 933 03cf 04       		.byte	0x4
 934 03d0 E502     		.2byte	0x2e5
 935 03d2 A2000000 		.4byte	0xa2
 936 03d6 02       		.byte	0x2
 937 03d7 23       		.byte	0x23
 938 03d8 30       		.uleb128 0x30
 939 03d9 07       		.uleb128 0x7
 940 03da 1B000000 		.4byte	.LASF45
 941 03de 04       		.byte	0x4
 942 03df E602     		.2byte	0x2e6
 943 03e1 A2000000 		.4byte	0xa2
 944 03e5 02       		.byte	0x2
 945 03e6 23       		.byte	0x23
 946 03e7 34       		.uleb128 0x34
 947 03e8 07       		.uleb128 0x7
 948 03e9 50010000 		.4byte	.LASF46
 949 03ed 04       		.byte	0x4
 950 03ee E702     		.2byte	0x2e7
 951 03f0 A2000000 		.4byte	0xa2
 952 03f4 02       		.byte	0x2
 953 03f5 23       		.byte	0x23
 954 03f6 38       		.uleb128 0x38
 955 03f7 07       		.uleb128 0x7
 956 03f8 C2020000 		.4byte	.LASF47
 957 03fc 04       		.byte	0x4
 958 03fd E802     		.2byte	0x2e8
 959 03ff 6D000000 		.4byte	0x6d
 960 0403 02       		.byte	0x2
 961 0404 23       		.byte	0x23
 962 0405 3C       		.uleb128 0x3c
 963 0406 07       		.uleb128 0x7
 964 0407 D1000000 		.4byte	.LASF48
 965 040b 04       		.byte	0x4
 966 040c E902     		.2byte	0x2e9
 967 040e A2000000 		.4byte	0xa2
 968 0412 02       		.byte	0x2
 969 0413 23       		.byte	0x23
 970 0414 40       		.uleb128 0x40
 971 0415 07       		.uleb128 0x7
 972 0416 7B010000 		.4byte	.LASF49
 973 041a 04       		.byte	0x4
 974 041b EA02     		.2byte	0x2ea
 975 041d A2000000 		.4byte	0xa2
 976 0421 02       		.byte	0x2
 977 0422 23       		.byte	0x23
 978 0423 44       		.uleb128 0x44
 979 0424 07       		.uleb128 0x7
 980 0425 B6000000 		.4byte	.LASF50
 981 0429 04       		.byte	0x4
 982 042a EB02     		.2byte	0x2eb
 983 042c 07020000 		.4byte	0x207
 984 0430 02       		.byte	0x2
 985 0431 23       		.byte	0x23
 986 0432 48       		.uleb128 0x48
 987 0433 07       		.uleb128 0x7
 988 0434 00000000 		.4byte	.LASF51
 989 0438 04       		.byte	0x4
ARM GAS  C:\Users\CNous\AppData\Local\Temp\ccLV38g2.s 			page 27


 990 0439 EC02     		.2byte	0x2ec
 991 043b A2000000 		.4byte	0xa2
 992 043f 02       		.byte	0x2
 993 0440 23       		.byte	0x23
 994 0441 50       		.uleb128 0x50
 995 0442 07       		.uleb128 0x7
 996 0443 9F020000 		.4byte	.LASF52
 997 0447 04       		.byte	0x4
 998 0448 ED02     		.2byte	0x2ed
 999 044a A2000000 		.4byte	0xa2
 1000 044e 02       		.byte	0x2
 1001 044f 23       		.byte	0x23
 1002 0450 54       		.uleb128 0x54
 1003 0451 07       		.uleb128 0x7
 1004 0452 5E000000 		.4byte	.LASF53
 1005 0456 04       		.byte	0x4
 1006 0457 EE02     		.2byte	0x2ee
 1007 0459 A2000000 		.4byte	0xa2
 1008 045d 02       		.byte	0x2
 1009 045e 23       		.byte	0x23
 1010 045f 58       		.uleb128 0x58
 1011 0460 07       		.uleb128 0x7
 1012 0461 D8020000 		.4byte	.LASF54
 1013 0465 04       		.byte	0x4
 1014 0466 EF02     		.2byte	0x2ef
 1015 0468 6D000000 		.4byte	0x6d
 1016 046c 02       		.byte	0x2
 1017 046d 23       		.byte	0x23
 1018 046e 5C       		.uleb128 0x5c
 1019 046f 07       		.uleb128 0x7
 1020 0470 62020000 		.4byte	.LASF55
 1021 0474 04       		.byte	0x4
 1022 0475 F002     		.2byte	0x2f0
 1023 0477 A2000000 		.4byte	0xa2
 1024 047b 02       		.byte	0x2
 1025 047c 23       		.byte	0x23
 1026 047d 60       		.uleb128 0x60
 1027 047e 07       		.uleb128 0x7
 1028 047f 3C030000 		.4byte	.LASF56
 1029 0483 04       		.byte	0x4
 1030 0484 F102     		.2byte	0x2f1
 1031 0486 A2000000 		.4byte	0xa2
 1032 048a 02       		.byte	0x2
 1033 048b 23       		.byte	0x23
 1034 048c 64       		.uleb128 0x64
 1035 048d 07       		.uleb128 0x7
 1036 048e E2020000 		.4byte	.LASF57
 1037 0492 04       		.byte	0x4
 1038 0493 F202     		.2byte	0x2f2
 1039 0495 07020000 		.4byte	0x207
 1040 0499 02       		.byte	0x2
 1041 049a 23       		.byte	0x23
 1042 049b 68       		.uleb128 0x68
 1043 049c 07       		.uleb128 0x7
 1044 049d 2C000000 		.4byte	.LASF58
 1045 04a1 04       		.byte	0x4
 1046 04a2 F302     		.2byte	0x2f3
ARM GAS  C:\Users\CNous\AppData\Local\Temp\ccLV38g2.s 			page 28


 1047 04a4 A2000000 		.4byte	0xa2
 1048 04a8 02       		.byte	0x2
 1049 04a9 23       		.byte	0x23
 1050 04aa 70       		.uleb128 0x70
 1051 04ab 08       		.uleb128 0x8
 1052 04ac 43535200 		.ascii	"CSR\000"
 1053 04b0 04       		.byte	0x4
 1054 04b1 F402     		.2byte	0x2f4
 1055 04b3 A2000000 		.4byte	0xa2
 1056 04b7 02       		.byte	0x2
 1057 04b8 23       		.byte	0x23
 1058 04b9 74       		.uleb128 0x74
 1059 04ba 07       		.uleb128 0x7
 1060 04bb EC020000 		.4byte	.LASF59
 1061 04bf 04       		.byte	0x4
 1062 04c0 F502     		.2byte	0x2f5
 1063 04c2 07020000 		.4byte	0x207
 1064 04c6 02       		.byte	0x2
 1065 04c7 23       		.byte	0x23
 1066 04c8 78       		.uleb128 0x78
 1067 04c9 07       		.uleb128 0x7
 1068 04ca 48000000 		.4byte	.LASF60
 1069 04ce 04       		.byte	0x4
 1070 04cf F602     		.2byte	0x2f6
 1071 04d1 A2000000 		.4byte	0xa2
 1072 04d5 03       		.byte	0x3
 1073 04d6 23       		.byte	0x23
 1074 04d7 8001     		.uleb128 0x80
 1075 04d9 07       		.uleb128 0x7
 1076 04da 31000000 		.4byte	.LASF61
 1077 04de 04       		.byte	0x4
 1078 04df F702     		.2byte	0x2f7
 1079 04e1 A2000000 		.4byte	0xa2
 1080 04e5 03       		.byte	0x3
 1081 04e6 23       		.byte	0x23
 1082 04e7 8401     		.uleb128 0x84
 1083 04e9 00       		.byte	0
 1084 04ea 0C       		.uleb128 0xc
 1085 04eb 23010000 		.4byte	.LASF62
 1086 04ef 04       		.byte	0x4
 1087 04f0 F802     		.2byte	0x2f8
 1088 04f2 1D030000 		.4byte	0x31d
 1089 04f6 10       		.uleb128 0x10
 1090 04f7 CC020000 		.4byte	.LASF77
 1091 04fb 01       		.byte	0x1
 1092 04fc 6201     		.2byte	0x162
 1093 04fe 01       		.byte	0x1
 1094 04ff 01       		.byte	0x1
 1095 0500 1D050000 		.4byte	0x51d
 1096 0504 11       		.uleb128 0x11
 1097 0505 83010000 		.4byte	.LASF63
 1098 0509 01       		.byte	0x1
 1099 050a 6701     		.2byte	0x167
 1100 050c A2000000 		.4byte	0xa2
 1101 0510 11       		.uleb128 0x11
 1102 0511 4E000000 		.4byte	.LASF64
 1103 0515 01       		.byte	0x1
ARM GAS  C:\Users\CNous\AppData\Local\Temp\ccLV38g2.s 			page 29


 1104 0516 6701     		.2byte	0x167
 1105 0518 A2000000 		.4byte	0xa2
 1106 051c 00       		.byte	0
 1107 051d 12       		.uleb128 0x12
 1108 051e 01       		.byte	0x1
 1109 051f 24020000 		.4byte	.LASF65
 1110 0523 01       		.byte	0x1
 1111 0524 DD       		.byte	0xdd
 1112 0525 01       		.byte	0x1
 1113 0526 00000000 		.4byte	.LFB110
 1114 052a 54010000 		.4byte	.LFE110
 1115 052e 00000000 		.4byte	.LLST0
 1116 0532 01       		.byte	0x1
 1117 0533 60050000 		.4byte	0x560
 1118 0537 13       		.uleb128 0x13
 1119 0538 F6040000 		.4byte	0x4f6
 1120 053c 4A000000 		.4byte	.LBB4
 1121 0540 00000000 		.4byte	.Ldebug_ranges0+0
 1122 0544 01       		.byte	0x1
 1123 0545 FC       		.byte	0xfc
 1124 0546 14       		.uleb128 0x14
 1125 0547 18000000 		.4byte	.Ldebug_ranges0+0x18
 1126 054b 15       		.uleb128 0x15
 1127 054c 04050000 		.4byte	0x504
 1128 0550 20000000 		.4byte	.LLST1
 1129 0554 15       		.uleb128 0x15
 1130 0555 10050000 		.4byte	0x510
 1131 0559 3F000000 		.4byte	.LLST2
 1132 055d 00       		.byte	0
 1133 055e 00       		.byte	0
 1134 055f 00       		.byte	0
 1135 0560 16       		.uleb128 0x16
 1136 0561 01       		.byte	0x1
 1137 0562 E3010000 		.4byte	.LASF66
 1138 0566 01       		.byte	0x1
 1139 0567 2A01     		.2byte	0x12a
 1140 0569 01       		.byte	0x1
 1141 056a 00000000 		.4byte	.LFB111
 1142 056e 94000000 		.4byte	.LFE111
 1143 0572 02       		.byte	0x2
 1144 0573 7D       		.byte	0x7d
 1145 0574 00       		.sleb128 0
 1146 0575 01       		.byte	0x1
 1147 0576 CB050000 		.4byte	0x5cb
 1148 057a 17       		.uleb128 0x17
 1149 057b 746D7000 		.ascii	"tmp\000"
 1150 057f 01       		.byte	0x1
 1151 0580 2C01     		.2byte	0x12c
 1152 0582 6D000000 		.4byte	0x6d
 1153 0586 6A000000 		.4byte	.LLST3
 1154 058a 18       		.uleb128 0x18
 1155 058b 6C020000 		.4byte	.LASF67
 1156 058f 01       		.byte	0x1
 1157 0590 2C01     		.2byte	0x12c
 1158 0592 6D000000 		.4byte	0x6d
 1159 0596 C2000000 		.4byte	.LLST4
 1160 059a 18       		.uleb128 0x18
ARM GAS  C:\Users\CNous\AppData\Local\Temp\ccLV38g2.s 			page 30


 1161 059b 62010000 		.4byte	.LASF68
 1162 059f 01       		.byte	0x1
 1163 05a0 2C01     		.2byte	0x12c
 1164 05a2 6D000000 		.4byte	0x6d
 1165 05a6 ED000000 		.4byte	.LLST5
 1166 05aa 18       		.uleb128 0x18
 1167 05ab 46010000 		.4byte	.LASF69
 1168 05af 01       		.byte	0x1
 1169 05b0 2C01     		.2byte	0x12c
 1170 05b2 6D000000 		.4byte	0x6d
 1171 05b6 24010000 		.4byte	.LLST6
 1172 05ba 18       		.uleb128 0x18
 1173 05bb 5D010000 		.4byte	.LASF70
 1174 05bf 01       		.byte	0x1
 1175 05c0 2C01     		.2byte	0x12c
 1176 05c2 6D000000 		.4byte	0x6d
 1177 05c6 57010000 		.4byte	.LLST7
 1178 05ca 00       		.byte	0
 1179 05cb 19       		.uleb128 0x19
 1180 05cc 29030000 		.4byte	.LASF71
 1181 05d0 03       		.byte	0x3
 1182 05d1 1A05     		.2byte	0x51a
 1183 05d3 61020000 		.4byte	0x261
 1184 05d7 01       		.byte	0x1
 1185 05d8 01       		.byte	0x1
 1186 05d9 1A       		.uleb128 0x1a
 1187 05da 8A020000 		.4byte	.LASF72
 1188 05de 01       		.byte	0x1
 1189 05df BD       		.byte	0xbd
 1190 05e0 6D000000 		.4byte	0x6d
 1191 05e4 01       		.byte	0x1
 1192 05e5 05       		.byte	0x5
 1193 05e6 03       		.byte	0x3
 1194 05e7 00000000 		.4byte	SystemCoreClock
 1195 05eb 0A       		.uleb128 0xa
 1196 05ec 30000000 		.4byte	0x30
 1197 05f0 FB050000 		.4byte	0x5fb
 1198 05f4 0B       		.uleb128 0xb
 1199 05f5 9B000000 		.4byte	0x9b
 1200 05f9 0F       		.byte	0xf
 1201 05fa 00       		.byte	0
 1202 05fb 1A       		.uleb128 0x1a
 1203 05fc D9000000 		.4byte	.LASF73
 1204 0600 01       		.byte	0x1
 1205 0601 BF       		.byte	0xbf
 1206 0602 0D060000 		.4byte	0x60d
 1207 0606 01       		.byte	0x1
 1208 0607 05       		.byte	0x5
 1209 0608 03       		.byte	0x3
 1210 0609 00000000 		.4byte	AHBPrescTable
 1211 060d 09       		.uleb128 0x9
 1212 060e 12060000 		.4byte	0x612
 1213 0612 05       		.uleb128 0x5
 1214 0613 EB050000 		.4byte	0x5eb
 1215 0617 00       		.byte	0
 1216              		.section	.debug_abbrev,"",%progbits
 1217              	.Ldebug_abbrev0:
ARM GAS  C:\Users\CNous\AppData\Local\Temp\ccLV38g2.s 			page 31


 1218 0000 01       		.uleb128 0x1
 1219 0001 11       		.uleb128 0x11
 1220 0002 01       		.byte	0x1
 1221 0003 25       		.uleb128 0x25
 1222 0004 0E       		.uleb128 0xe
 1223 0005 13       		.uleb128 0x13
 1224 0006 0B       		.uleb128 0xb
 1225 0007 03       		.uleb128 0x3
 1226 0008 0E       		.uleb128 0xe
 1227 0009 1B       		.uleb128 0x1b
 1228 000a 0E       		.uleb128 0xe
 1229 000b 55       		.uleb128 0x55
 1230 000c 06       		.uleb128 0x6
 1231 000d 11       		.uleb128 0x11
 1232 000e 01       		.uleb128 0x1
 1233 000f 52       		.uleb128 0x52
 1234 0010 01       		.uleb128 0x1
 1235 0011 10       		.uleb128 0x10
 1236 0012 06       		.uleb128 0x6
 1237 0013 00       		.byte	0
 1238 0014 00       		.byte	0
 1239 0015 02       		.uleb128 0x2
 1240 0016 24       		.uleb128 0x24
 1241 0017 00       		.byte	0
 1242 0018 0B       		.uleb128 0xb
 1243 0019 0B       		.uleb128 0xb
 1244 001a 3E       		.uleb128 0x3e
 1245 001b 0B       		.uleb128 0xb
 1246 001c 03       		.uleb128 0x3
 1247 001d 0E       		.uleb128 0xe
 1248 001e 00       		.byte	0
 1249 001f 00       		.byte	0
 1250 0020 03       		.uleb128 0x3
 1251 0021 16       		.uleb128 0x16
 1252 0022 00       		.byte	0
 1253 0023 03       		.uleb128 0x3
 1254 0024 0E       		.uleb128 0xe
 1255 0025 3A       		.uleb128 0x3a
 1256 0026 0B       		.uleb128 0xb
 1257 0027 3B       		.uleb128 0x3b
 1258 0028 0B       		.uleb128 0xb
 1259 0029 49       		.uleb128 0x49
 1260 002a 13       		.uleb128 0x13
 1261 002b 00       		.byte	0
 1262 002c 00       		.byte	0
 1263 002d 04       		.uleb128 0x4
 1264 002e 24       		.uleb128 0x24
 1265 002f 00       		.byte	0
 1266 0030 0B       		.uleb128 0xb
 1267 0031 0B       		.uleb128 0xb
 1268 0032 3E       		.uleb128 0x3e
 1269 0033 0B       		.uleb128 0xb
 1270 0034 03       		.uleb128 0x3
 1271 0035 08       		.uleb128 0x8
 1272 0036 00       		.byte	0
 1273 0037 00       		.byte	0
 1274 0038 05       		.uleb128 0x5
ARM GAS  C:\Users\CNous\AppData\Local\Temp\ccLV38g2.s 			page 32


 1275 0039 35       		.uleb128 0x35
 1276 003a 00       		.byte	0
 1277 003b 49       		.uleb128 0x49
 1278 003c 13       		.uleb128 0x13
 1279 003d 00       		.byte	0
 1280 003e 00       		.byte	0
 1281 003f 06       		.uleb128 0x6
 1282 0040 13       		.uleb128 0x13
 1283 0041 01       		.byte	0x1
 1284 0042 0B       		.uleb128 0xb
 1285 0043 0B       		.uleb128 0xb
 1286 0044 3A       		.uleb128 0x3a
 1287 0045 0B       		.uleb128 0xb
 1288 0046 3B       		.uleb128 0x3b
 1289 0047 05       		.uleb128 0x5
 1290 0048 01       		.uleb128 0x1
 1291 0049 13       		.uleb128 0x13
 1292 004a 00       		.byte	0
 1293 004b 00       		.byte	0
 1294 004c 07       		.uleb128 0x7
 1295 004d 0D       		.uleb128 0xd
 1296 004e 00       		.byte	0
 1297 004f 03       		.uleb128 0x3
 1298 0050 0E       		.uleb128 0xe
 1299 0051 3A       		.uleb128 0x3a
 1300 0052 0B       		.uleb128 0xb
 1301 0053 3B       		.uleb128 0x3b
 1302 0054 05       		.uleb128 0x5
 1303 0055 49       		.uleb128 0x49
 1304 0056 13       		.uleb128 0x13
 1305 0057 38       		.uleb128 0x38
 1306 0058 0A       		.uleb128 0xa
 1307 0059 00       		.byte	0
 1308 005a 00       		.byte	0
 1309 005b 08       		.uleb128 0x8
 1310 005c 0D       		.uleb128 0xd
 1311 005d 00       		.byte	0
 1312 005e 03       		.uleb128 0x3
 1313 005f 08       		.uleb128 0x8
 1314 0060 3A       		.uleb128 0x3a
 1315 0061 0B       		.uleb128 0xb
 1316 0062 3B       		.uleb128 0x3b
 1317 0063 05       		.uleb128 0x5
 1318 0064 49       		.uleb128 0x49
 1319 0065 13       		.uleb128 0x13
 1320 0066 38       		.uleb128 0x38
 1321 0067 0A       		.uleb128 0xa
 1322 0068 00       		.byte	0
 1323 0069 00       		.byte	0
 1324 006a 09       		.uleb128 0x9
 1325 006b 26       		.uleb128 0x26
 1326 006c 00       		.byte	0
 1327 006d 49       		.uleb128 0x49
 1328 006e 13       		.uleb128 0x13
 1329 006f 00       		.byte	0
 1330 0070 00       		.byte	0
 1331 0071 0A       		.uleb128 0xa
ARM GAS  C:\Users\CNous\AppData\Local\Temp\ccLV38g2.s 			page 33


 1332 0072 01       		.uleb128 0x1
 1333 0073 01       		.byte	0x1
 1334 0074 49       		.uleb128 0x49
 1335 0075 13       		.uleb128 0x13
 1336 0076 01       		.uleb128 0x1
 1337 0077 13       		.uleb128 0x13
 1338 0078 00       		.byte	0
 1339 0079 00       		.byte	0
 1340 007a 0B       		.uleb128 0xb
 1341 007b 21       		.uleb128 0x21
 1342 007c 00       		.byte	0
 1343 007d 49       		.uleb128 0x49
 1344 007e 13       		.uleb128 0x13
 1345 007f 2F       		.uleb128 0x2f
 1346 0080 0B       		.uleb128 0xb
 1347 0081 00       		.byte	0
 1348 0082 00       		.byte	0
 1349 0083 0C       		.uleb128 0xc
 1350 0084 16       		.uleb128 0x16
 1351 0085 00       		.byte	0
 1352 0086 03       		.uleb128 0x3
 1353 0087 0E       		.uleb128 0xe
 1354 0088 3A       		.uleb128 0x3a
 1355 0089 0B       		.uleb128 0xb
 1356 008a 3B       		.uleb128 0x3b
 1357 008b 05       		.uleb128 0x5
 1358 008c 49       		.uleb128 0x49
 1359 008d 13       		.uleb128 0x13
 1360 008e 00       		.byte	0
 1361 008f 00       		.byte	0
 1362 0090 0D       		.uleb128 0xd
 1363 0091 04       		.uleb128 0x4
 1364 0092 01       		.byte	0x1
 1365 0093 0B       		.uleb128 0xb
 1366 0094 0B       		.uleb128 0xb
 1367 0095 3A       		.uleb128 0x3a
 1368 0096 0B       		.uleb128 0xb
 1369 0097 3B       		.uleb128 0x3b
 1370 0098 05       		.uleb128 0x5
 1371 0099 01       		.uleb128 0x1
 1372 009a 13       		.uleb128 0x13
 1373 009b 00       		.byte	0
 1374 009c 00       		.byte	0
 1375 009d 0E       		.uleb128 0xe
 1376 009e 28       		.uleb128 0x28
 1377 009f 00       		.byte	0
 1378 00a0 03       		.uleb128 0x3
 1379 00a1 0E       		.uleb128 0xe
 1380 00a2 1C       		.uleb128 0x1c
 1381 00a3 0D       		.uleb128 0xd
 1382 00a4 00       		.byte	0
 1383 00a5 00       		.byte	0
 1384 00a6 0F       		.uleb128 0xf
 1385 00a7 28       		.uleb128 0x28
 1386 00a8 00       		.byte	0
 1387 00a9 03       		.uleb128 0x3
 1388 00aa 08       		.uleb128 0x8
ARM GAS  C:\Users\CNous\AppData\Local\Temp\ccLV38g2.s 			page 34


 1389 00ab 1C       		.uleb128 0x1c
 1390 00ac 0D       		.uleb128 0xd
 1391 00ad 00       		.byte	0
 1392 00ae 00       		.byte	0
 1393 00af 10       		.uleb128 0x10
 1394 00b0 2E       		.uleb128 0x2e
 1395 00b1 01       		.byte	0x1
 1396 00b2 03       		.uleb128 0x3
 1397 00b3 0E       		.uleb128 0xe
 1398 00b4 3A       		.uleb128 0x3a
 1399 00b5 0B       		.uleb128 0xb
 1400 00b6 3B       		.uleb128 0x3b
 1401 00b7 05       		.uleb128 0x5
 1402 00b8 27       		.uleb128 0x27
 1403 00b9 0C       		.uleb128 0xc
 1404 00ba 20       		.uleb128 0x20
 1405 00bb 0B       		.uleb128 0xb
 1406 00bc 01       		.uleb128 0x1
 1407 00bd 13       		.uleb128 0x13
 1408 00be 00       		.byte	0
 1409 00bf 00       		.byte	0
 1410 00c0 11       		.uleb128 0x11
 1411 00c1 34       		.uleb128 0x34
 1412 00c2 00       		.byte	0
 1413 00c3 03       		.uleb128 0x3
 1414 00c4 0E       		.uleb128 0xe
 1415 00c5 3A       		.uleb128 0x3a
 1416 00c6 0B       		.uleb128 0xb
 1417 00c7 3B       		.uleb128 0x3b
 1418 00c8 05       		.uleb128 0x5
 1419 00c9 49       		.uleb128 0x49
 1420 00ca 13       		.uleb128 0x13
 1421 00cb 00       		.byte	0
 1422 00cc 00       		.byte	0
 1423 00cd 12       		.uleb128 0x12
 1424 00ce 2E       		.uleb128 0x2e
 1425 00cf 01       		.byte	0x1
 1426 00d0 3F       		.uleb128 0x3f
 1427 00d1 0C       		.uleb128 0xc
 1428 00d2 03       		.uleb128 0x3
 1429 00d3 0E       		.uleb128 0xe
 1430 00d4 3A       		.uleb128 0x3a
 1431 00d5 0B       		.uleb128 0xb
 1432 00d6 3B       		.uleb128 0x3b
 1433 00d7 0B       		.uleb128 0xb
 1434 00d8 27       		.uleb128 0x27
 1435 00d9 0C       		.uleb128 0xc
 1436 00da 11       		.uleb128 0x11
 1437 00db 01       		.uleb128 0x1
 1438 00dc 12       		.uleb128 0x12
 1439 00dd 01       		.uleb128 0x1
 1440 00de 40       		.uleb128 0x40
 1441 00df 06       		.uleb128 0x6
 1442 00e0 9742     		.uleb128 0x2117
 1443 00e2 0C       		.uleb128 0xc
 1444 00e3 01       		.uleb128 0x1
 1445 00e4 13       		.uleb128 0x13
ARM GAS  C:\Users\CNous\AppData\Local\Temp\ccLV38g2.s 			page 35


 1446 00e5 00       		.byte	0
 1447 00e6 00       		.byte	0
 1448 00e7 13       		.uleb128 0x13
 1449 00e8 1D       		.uleb128 0x1d
 1450 00e9 01       		.byte	0x1
 1451 00ea 31       		.uleb128 0x31
 1452 00eb 13       		.uleb128 0x13
 1453 00ec 52       		.uleb128 0x52
 1454 00ed 01       		.uleb128 0x1
 1455 00ee 55       		.uleb128 0x55
 1456 00ef 06       		.uleb128 0x6
 1457 00f0 58       		.uleb128 0x58
 1458 00f1 0B       		.uleb128 0xb
 1459 00f2 59       		.uleb128 0x59
 1460 00f3 0B       		.uleb128 0xb
 1461 00f4 00       		.byte	0
 1462 00f5 00       		.byte	0
 1463 00f6 14       		.uleb128 0x14
 1464 00f7 0B       		.uleb128 0xb
 1465 00f8 01       		.byte	0x1
 1466 00f9 55       		.uleb128 0x55
 1467 00fa 06       		.uleb128 0x6
 1468 00fb 00       		.byte	0
 1469 00fc 00       		.byte	0
 1470 00fd 15       		.uleb128 0x15
 1471 00fe 34       		.uleb128 0x34
 1472 00ff 00       		.byte	0
 1473 0100 31       		.uleb128 0x31
 1474 0101 13       		.uleb128 0x13
 1475 0102 02       		.uleb128 0x2
 1476 0103 06       		.uleb128 0x6
 1477 0104 00       		.byte	0
 1478 0105 00       		.byte	0
 1479 0106 16       		.uleb128 0x16
 1480 0107 2E       		.uleb128 0x2e
 1481 0108 01       		.byte	0x1
 1482 0109 3F       		.uleb128 0x3f
 1483 010a 0C       		.uleb128 0xc
 1484 010b 03       		.uleb128 0x3
 1485 010c 0E       		.uleb128 0xe
 1486 010d 3A       		.uleb128 0x3a
 1487 010e 0B       		.uleb128 0xb
 1488 010f 3B       		.uleb128 0x3b
 1489 0110 05       		.uleb128 0x5
 1490 0111 27       		.uleb128 0x27
 1491 0112 0C       		.uleb128 0xc
 1492 0113 11       		.uleb128 0x11
 1493 0114 01       		.uleb128 0x1
 1494 0115 12       		.uleb128 0x12
 1495 0116 01       		.uleb128 0x1
 1496 0117 40       		.uleb128 0x40
 1497 0118 0A       		.uleb128 0xa
 1498 0119 9742     		.uleb128 0x2117
 1499 011b 0C       		.uleb128 0xc
 1500 011c 01       		.uleb128 0x1
 1501 011d 13       		.uleb128 0x13
 1502 011e 00       		.byte	0
ARM GAS  C:\Users\CNous\AppData\Local\Temp\ccLV38g2.s 			page 36


 1503 011f 00       		.byte	0
 1504 0120 17       		.uleb128 0x17
 1505 0121 34       		.uleb128 0x34
 1506 0122 00       		.byte	0
 1507 0123 03       		.uleb128 0x3
 1508 0124 08       		.uleb128 0x8
 1509 0125 3A       		.uleb128 0x3a
 1510 0126 0B       		.uleb128 0xb
 1511 0127 3B       		.uleb128 0x3b
 1512 0128 05       		.uleb128 0x5
 1513 0129 49       		.uleb128 0x49
 1514 012a 13       		.uleb128 0x13
 1515 012b 02       		.uleb128 0x2
 1516 012c 06       		.uleb128 0x6
 1517 012d 00       		.byte	0
 1518 012e 00       		.byte	0
 1519 012f 18       		.uleb128 0x18
 1520 0130 34       		.uleb128 0x34
 1521 0131 00       		.byte	0
 1522 0132 03       		.uleb128 0x3
 1523 0133 0E       		.uleb128 0xe
 1524 0134 3A       		.uleb128 0x3a
 1525 0135 0B       		.uleb128 0xb
 1526 0136 3B       		.uleb128 0x3b
 1527 0137 05       		.uleb128 0x5
 1528 0138 49       		.uleb128 0x49
 1529 0139 13       		.uleb128 0x13
 1530 013a 02       		.uleb128 0x2
 1531 013b 06       		.uleb128 0x6
 1532 013c 00       		.byte	0
 1533 013d 00       		.byte	0
 1534 013e 19       		.uleb128 0x19
 1535 013f 34       		.uleb128 0x34
 1536 0140 00       		.byte	0
 1537 0141 03       		.uleb128 0x3
 1538 0142 0E       		.uleb128 0xe
 1539 0143 3A       		.uleb128 0x3a
 1540 0144 0B       		.uleb128 0xb
 1541 0145 3B       		.uleb128 0x3b
 1542 0146 05       		.uleb128 0x5
 1543 0147 49       		.uleb128 0x49
 1544 0148 13       		.uleb128 0x13
 1545 0149 3F       		.uleb128 0x3f
 1546 014a 0C       		.uleb128 0xc
 1547 014b 3C       		.uleb128 0x3c
 1548 014c 0C       		.uleb128 0xc
 1549 014d 00       		.byte	0
 1550 014e 00       		.byte	0
 1551 014f 1A       		.uleb128 0x1a
 1552 0150 34       		.uleb128 0x34
 1553 0151 00       		.byte	0
 1554 0152 03       		.uleb128 0x3
 1555 0153 0E       		.uleb128 0xe
 1556 0154 3A       		.uleb128 0x3a
 1557 0155 0B       		.uleb128 0xb
 1558 0156 3B       		.uleb128 0x3b
 1559 0157 0B       		.uleb128 0xb
ARM GAS  C:\Users\CNous\AppData\Local\Temp\ccLV38g2.s 			page 37


 1560 0158 49       		.uleb128 0x49
 1561 0159 13       		.uleb128 0x13
 1562 015a 3F       		.uleb128 0x3f
 1563 015b 0C       		.uleb128 0xc
 1564 015c 02       		.uleb128 0x2
 1565 015d 0A       		.uleb128 0xa
 1566 015e 00       		.byte	0
 1567 015f 00       		.byte	0
 1568 0160 00       		.byte	0
 1569              		.section	.debug_loc,"",%progbits
 1570              	.Ldebug_loc0:
 1571              	.LLST0:
 1572 0000 00000000 		.4byte	.LFB110
 1573 0004 42000000 		.4byte	.LCFI0
 1574 0008 0200     		.2byte	0x2
 1575 000a 7D       		.byte	0x7d
 1576 000b 00       		.sleb128 0
 1577 000c 42000000 		.4byte	.LCFI0
 1578 0010 54010000 		.4byte	.LFE110
 1579 0014 0200     		.2byte	0x2
 1580 0016 7D       		.byte	0x7d
 1581 0017 08       		.sleb128 8
 1582 0018 00000000 		.4byte	0
 1583 001c 00000000 		.4byte	0
 1584              	.LLST1:
 1585 0020 4C000000 		.4byte	.LVL0
 1586 0024 6E000000 		.4byte	.LVL4
 1587 0028 0200     		.2byte	0x2
 1588 002a 91       		.byte	0x91
 1589 002b 78       		.sleb128 -8
 1590 002c 70000000 		.4byte	.LVL5
 1591 0030 54010000 		.4byte	.LFE110
 1592 0034 0100     		.2byte	0x1
 1593 0036 53       		.byte	0x53
 1594 0037 00000000 		.4byte	0
 1595 003b 00000000 		.4byte	0
 1596              	.LLST2:
 1597 003f 4E000000 		.4byte	.LVL1
 1598 0043 68000000 		.4byte	.LVL2
 1599 0047 0200     		.2byte	0x2
 1600 0049 91       		.byte	0x91
 1601 004a 7C       		.sleb128 -4
 1602 004b 6A000000 		.4byte	.LVL3
 1603 004f 72000000 		.4byte	.LVL6
 1604 0053 0100     		.2byte	0x1
 1605 0055 52       		.byte	0x52
 1606 0056 72000000 		.4byte	.LVL6
 1607 005a 54010000 		.4byte	.LFE110
 1608 005e 0200     		.2byte	0x2
 1609 0060 91       		.byte	0x91
 1610 0061 7C       		.sleb128 -4
 1611 0062 00000000 		.4byte	0
 1612 0066 00000000 		.4byte	0
 1613              	.LLST3:
 1614 006a 00000000 		.4byte	.LVL7
 1615 006e 0A000000 		.4byte	.LVL8
 1616 0072 0200     		.2byte	0x2
ARM GAS  C:\Users\CNous\AppData\Local\Temp\ccLV38g2.s 			page 38


 1617 0074 30       		.byte	0x30
 1618 0075 9F       		.byte	0x9f
 1619 0076 0A000000 		.4byte	.LVL8
 1620 007a 0E000000 		.4byte	.LVL9
 1621 007e 0500     		.2byte	0x5
 1622 0080 72       		.byte	0x72
 1623 0081 00       		.sleb128 0
 1624 0082 3C       		.byte	0x3c
 1625 0083 1A       		.byte	0x1a
 1626 0084 9F       		.byte	0x9f
 1627 0085 0E000000 		.4byte	.LVL9
 1628 0089 1E000000 		.4byte	.LVL10
 1629 008d 0100     		.2byte	0x1
 1630 008f 50       		.byte	0x50
 1631 0090 30000000 		.4byte	.LVL11
 1632 0094 3A000000 		.4byte	.LVL12
 1633 0098 0600     		.2byte	0x6
 1634 009a 70       		.byte	0x70
 1635 009b 00       		.sleb128 0
 1636 009c 08       		.byte	0x8
 1637 009d FF       		.byte	0xff
 1638 009e 1A       		.byte	0x1a
 1639 009f 9F       		.byte	0x9f
 1640 00a0 3A000000 		.4byte	.LVL12
 1641 00a4 46000000 		.4byte	.LVL13
 1642 00a8 0100     		.2byte	0x1
 1643 00aa 50       		.byte	0x50
 1644 00ab 46000000 		.4byte	.LVL13
 1645 00af 52000000 		.4byte	.LVL15
 1646 00b3 0500     		.2byte	0x5
 1647 00b5 72       		.byte	0x72
 1648 00b6 00       		.sleb128 0
 1649 00b7 3C       		.byte	0x3c
 1650 00b8 1A       		.byte	0x1a
 1651 00b9 9F       		.byte	0x9f
 1652 00ba 00000000 		.4byte	0
 1653 00be 00000000 		.4byte	0
 1654              	.LLST4:
 1655 00c2 00000000 		.4byte	.LVL7
 1656 00c6 1E000000 		.4byte	.LVL10
 1657 00ca 0200     		.2byte	0x2
 1658 00cc 30       		.byte	0x30
 1659 00cd 9F       		.byte	0x9f
 1660 00ce 3A000000 		.4byte	.LVL12
 1661 00d2 7A000000 		.4byte	.LVL16
 1662 00d6 0200     		.2byte	0x2
 1663 00d8 30       		.byte	0x30
 1664 00d9 9F       		.byte	0x9f
 1665 00da 7A000000 		.4byte	.LVL16
 1666 00de 88000000 		.4byte	.LVL19
 1667 00e2 0100     		.2byte	0x1
 1668 00e4 52       		.byte	0x52
 1669 00e5 00000000 		.4byte	0
 1670 00e9 00000000 		.4byte	0
 1671              	.LLST5:
 1672 00ed 00000000 		.4byte	.LVL7
 1673 00f1 1E000000 		.4byte	.LVL10
ARM GAS  C:\Users\CNous\AppData\Local\Temp\ccLV38g2.s 			page 39


 1674 00f5 0200     		.2byte	0x2
 1675 00f7 32       		.byte	0x32
 1676 00f8 9F       		.byte	0x9f
 1677 00f9 3A000000 		.4byte	.LVL12
 1678 00fd 7C000000 		.4byte	.LVL17
 1679 0101 0200     		.2byte	0x2
 1680 0103 32       		.byte	0x32
 1681 0104 9F       		.byte	0x9f
 1682 0105 7C000000 		.4byte	.LVL17
 1683 0109 84000000 		.4byte	.LVL18
 1684 010d 0D00     		.2byte	0xd
 1685 010f 71       		.byte	0x71
 1686 0110 00       		.sleb128 0
 1687 0111 48       		.byte	0x48
 1688 0112 3D       		.byte	0x3d
 1689 0113 24       		.byte	0x24
 1690 0114 1A       		.byte	0x1a
 1691 0115 40       		.byte	0x40
 1692 0116 25       		.byte	0x25
 1693 0117 23       		.byte	0x23
 1694 0118 01       		.uleb128 0x1
 1695 0119 31       		.byte	0x31
 1696 011a 24       		.byte	0x24
 1697 011b 9F       		.byte	0x9f
 1698 011c 00000000 		.4byte	0
 1699 0120 00000000 		.4byte	0
 1700              	.LLST6:
 1701 0124 00000000 		.4byte	.LVL7
 1702 0128 1E000000 		.4byte	.LVL10
 1703 012c 0200     		.2byte	0x2
 1704 012e 30       		.byte	0x30
 1705 012f 9F       		.byte	0x9f
 1706 0130 3A000000 		.4byte	.LVL12
 1707 0134 46000000 		.4byte	.LVL13
 1708 0138 0200     		.2byte	0x2
 1709 013a 30       		.byte	0x30
 1710 013b 9F       		.byte	0x9f
 1711 013c 46000000 		.4byte	.LVL13
 1712 0140 4E000000 		.4byte	.LVL14
 1713 0144 0900     		.2byte	0x9
 1714 0146 70       		.byte	0x70
 1715 0147 00       		.sleb128 0
 1716 0148 40       		.byte	0x40
 1717 0149 42       		.byte	0x42
 1718 014a 24       		.byte	0x24
 1719 014b 1A       		.byte	0x1a
 1720 014c 46       		.byte	0x46
 1721 014d 25       		.byte	0x25
 1722 014e 9F       		.byte	0x9f
 1723 014f 00000000 		.4byte	0
 1724 0153 00000000 		.4byte	0
 1725              	.LLST7:
 1726 0157 00000000 		.4byte	.LVL7
 1727 015b 1E000000 		.4byte	.LVL10
 1728 015f 0200     		.2byte	0x2
 1729 0161 32       		.byte	0x32
 1730 0162 9F       		.byte	0x9f
ARM GAS  C:\Users\CNous\AppData\Local\Temp\ccLV38g2.s 			page 40


 1731 0163 3A000000 		.4byte	.LVL12
 1732 0167 52000000 		.4byte	.LVL15
 1733 016b 0200     		.2byte	0x2
 1734 016d 32       		.byte	0x32
 1735 016e 9F       		.byte	0x9f
 1736 016f 52000000 		.4byte	.LVL15
 1737 0173 7A000000 		.4byte	.LVL16
 1738 0177 0100     		.2byte	0x1
 1739 0179 52       		.byte	0x52
 1740 017a 00000000 		.4byte	0
 1741 017e 00000000 		.4byte	0
 1742              		.section	.debug_aranges,"",%progbits
 1743 0000 24000000 		.4byte	0x24
 1744 0004 0200     		.2byte	0x2
 1745 0006 00000000 		.4byte	.Ldebug_info0
 1746 000a 04       		.byte	0x4
 1747 000b 00       		.byte	0
 1748 000c 0000     		.2byte	0
 1749 000e 0000     		.2byte	0
 1750 0010 00000000 		.4byte	.LFB110
 1751 0014 54010000 		.4byte	.LFE110-.LFB110
 1752 0018 00000000 		.4byte	.LFB111
 1753 001c 94000000 		.4byte	.LFE111-.LFB111
 1754 0020 00000000 		.4byte	0
 1755 0024 00000000 		.4byte	0
 1756              		.section	.debug_ranges,"",%progbits
 1757              	.Ldebug_ranges0:
 1758 0000 4A000000 		.4byte	.LBB4
 1759 0004 BA000000 		.4byte	.LBE4
 1760 0008 CC000000 		.4byte	.LBB7
 1761 000c 54010000 		.4byte	.LBE7
 1762 0010 00000000 		.4byte	0
 1763 0014 00000000 		.4byte	0
 1764 0018 4A000000 		.4byte	.LBB5
 1765 001c BA000000 		.4byte	.LBE5
 1766 0020 CC000000 		.4byte	.LBB6
 1767 0024 54010000 		.4byte	.LBE6
 1768 0028 00000000 		.4byte	0
 1769 002c 00000000 		.4byte	0
 1770 0030 00000000 		.4byte	.LFB110
 1771 0034 54010000 		.4byte	.LFE110
 1772 0038 00000000 		.4byte	.LFB111
 1773 003c 94000000 		.4byte	.LFE111
 1774 0040 00000000 		.4byte	0
 1775 0044 00000000 		.4byte	0
 1776              		.section	.debug_line,"",%progbits
 1777              	.Ldebug_line0:
 1778 0000 5F010000 		.section	.debug_str,"MS",%progbits,1
 1778      0200D300 
 1778      00000201 
 1778      FB0E0D00 
 1778      01010101 
 1779              	.LASF51:
 1780 0000 41484231 		.ascii	"AHB1LPENR\000"
 1780      4C50454E 
 1780      5200
 1781              	.LASF36:
ARM GAS  C:\Users\CNous\AppData\Local\Temp\ccLV38g2.s 			page 41


 1782 000a 504C4C43 		.ascii	"PLLCFGR\000"
 1782      46475200 
 1783              	.LASF41:
 1784 0012 41504231 		.ascii	"APB1RSTR\000"
 1784      52535452 
 1784      00
 1785              	.LASF45:
 1786 001b 41484232 		.ascii	"AHB2ENR\000"
 1786      454E5200 
 1787              	.LASF13:
 1788 0023 73697A65 		.ascii	"sizetype\000"
 1788      74797065 
 1788      00
 1789              	.LASF58:
 1790 002c 42444352 		.ascii	"BDCR\000"
 1790      00
 1791              	.LASF61:
 1792 0031 504C4C49 		.ascii	"PLLI2SCFGR\000"
 1792      32534346 
 1792      475200
 1793              	.LASF35:
 1794 003c 5057525F 		.ascii	"PWR_TypeDef\000"
 1794      54797065 
 1794      44656600 
 1795              	.LASF60:
 1796 0048 53534347 		.ascii	"SSCGR\000"
 1796      5200
 1797              	.LASF64:
 1798 004e 48534553 		.ascii	"HSEStatus\000"
 1798      74617475 
 1798      7300
 1799              	.LASF14:
 1800 0058 43505549 		.ascii	"CPUID\000"
 1800      4400
 1801              	.LASF53:
 1802 005e 41484233 		.ascii	"AHB3LPENR\000"
 1802      4C50454E 
 1802      5200
 1803              	.LASF37:
 1804 0068 43464752 		.ascii	"CFGR\000"
 1804      00
 1805              	.LASF74:
 1806 006d 474E5520 		.ascii	"GNU C 4.7.3 20121207 (release) [ARM/embedded-4_7-br"
 1806      4320342E 
 1806      372E3320 
 1806      32303132 
 1806      31323037 
 1807 00a0 616E6368 		.ascii	"anch revision 194305]\000"
 1807      20726576 
 1807      6973696F 
 1807      6E203139 
 1807      34333035 
 1808              	.LASF50:
 1809 00b6 52455345 		.ascii	"RESERVED3\000"
 1809      52564544 
 1809      3300
 1810              	.LASF3:
ARM GAS  C:\Users\CNous\AppData\Local\Temp\ccLV38g2.s 			page 42


 1811 00c0 75696E74 		.ascii	"uint8_t\000"
 1811      385F7400 
 1812              	.LASF29:
 1813 00c8 5343425F 		.ascii	"SCB_Type\000"
 1813      54797065 
 1813      00
 1814              	.LASF48:
 1815 00d1 41504231 		.ascii	"APB1ENR\000"
 1815      454E5200 
 1816              	.LASF73:
 1817 00d9 41484250 		.ascii	"AHBPrescTable\000"
 1817      72657363 
 1817      5461626C 
 1817      6500
 1818              	.LASF8:
 1819 00e7 75696E74 		.ascii	"uint32_t\000"
 1819      33325F74 
 1819      00
 1820              	.LASF2:
 1821 00f0 73686F72 		.ascii	"short int\000"
 1821      7420696E 
 1821      7400
 1822              	.LASF15:
 1823 00fa 49435352 		.ascii	"ICSR\000"
 1823      00
 1824              	.LASF32:
 1825 00ff 4F50544B 		.ascii	"OPTKEYR\000"
 1825      45595200 
 1826              	.LASF10:
 1827 0107 6C6F6E67 		.ascii	"long long int\000"
 1827      206C6F6E 
 1827      6720696E 
 1827      7400
 1828              	.LASF23:
 1829 0115 42464152 		.ascii	"BFAR\000"
 1829      00
 1830              	.LASF7:
 1831 011a 6C6F6E67 		.ascii	"long int\000"
 1831      20696E74 
 1831      00
 1832              	.LASF62:
 1833 0123 5243435F 		.ascii	"RCC_TypeDef\000"
 1833      54797065 
 1833      44656600 
 1834              	.LASF42:
 1835 012f 41504232 		.ascii	"APB2RSTR\000"
 1835      52535452 
 1835      00
 1836              	.LASF19:
 1837 0138 43465352 		.ascii	"CFSR\000"
 1837      00
 1838              	.LASF39:
 1839 013d 41484232 		.ascii	"AHB2RSTR\000"
 1839      52535452 
 1839      00
 1840              	.LASF69:
 1841 0146 706C6C73 		.ascii	"pllsource\000"
ARM GAS  C:\Users\CNous\AppData\Local\Temp\ccLV38g2.s 			page 43


 1841      6F757263 
 1841      6500
 1842              	.LASF46:
 1843 0150 41484233 		.ascii	"AHB3ENR\000"
 1843      454E5200 
 1844              	.LASF31:
 1845 0158 4B455952 		.ascii	"KEYR\000"
 1845      00
 1846              	.LASF70:
 1847 015d 706C6C6D 		.ascii	"pllm\000"
 1847      00
 1848              	.LASF68:
 1849 0162 706C6C70 		.ascii	"pllp\000"
 1849      00
 1850              	.LASF17:
 1851 0167 41495243 		.ascii	"AIRCR\000"
 1851      5200
 1852              	.LASF1:
 1853 016d 756E7369 		.ascii	"unsigned char\000"
 1853      676E6564 
 1853      20636861 
 1853      7200
 1854              	.LASF49:
 1855 017b 41504232 		.ascii	"APB2ENR\000"
 1855      454E5200 
 1856              	.LASF63:
 1857 0183 53746172 		.ascii	"StartUpCounter\000"
 1857      74557043 
 1857      6F756E74 
 1857      657200
 1858              	.LASF0:
 1859 0192 7369676E 		.ascii	"signed char\000"
 1859      65642063 
 1859      68617200 
 1860              	.LASF11:
 1861 019e 6C6F6E67 		.ascii	"long long unsigned int\000"
 1861      206C6F6E 
 1861      6720756E 
 1861      7369676E 
 1861      65642069 
 1862              	.LASF18:
 1863 01b5 53484353 		.ascii	"SHCSR\000"
 1863      5200
 1864              	.LASF12:
 1865 01bb 756E7369 		.ascii	"unsigned int\000"
 1865      676E6564 
 1865      20696E74 
 1865      00
 1866              	.LASF4:
 1867 01c8 75696E74 		.ascii	"uint16_t\000"
 1867      31365F74 
 1867      00
 1868              	.LASF9:
 1869 01d1 6C6F6E67 		.ascii	"long unsigned int\000"
 1869      20756E73 
 1869      69676E65 
 1869      6420696E 
ARM GAS  C:\Users\CNous\AppData\Local\Temp\ccLV38g2.s 			page 44


 1869      7400
 1870              	.LASF66:
 1871 01e3 53797374 		.ascii	"SystemCoreClockUpdate\000"
 1871      656D436F 
 1871      7265436C 
 1871      6F636B55 
 1871      70646174 
 1872              	.LASF22:
 1873 01f9 4D4D4641 		.ascii	"MMFAR\000"
 1873      5200
 1874              	.LASF76:
 1875 01ff 433A5C78 		.ascii	"C:\\xav_dev\\eclipse\\ambiantiseur-make\000"
 1875      61765F64 
 1875      65765C65 
 1875      636C6970 
 1875      73655C61 
 1876              	.LASF65:
 1877 0224 53797374 		.ascii	"SystemInit\000"
 1877      656D496E 
 1877      697400
 1878              	.LASF75:
 1879 022f 636D7369 		.ascii	"cmsis/device/system_stm32f4xx.c\000"
 1879      732F6465 
 1879      76696365 
 1879      2F737973 
 1879      74656D5F 
 1880              	.LASF5:
 1881 024f 73686F72 		.ascii	"short unsigned int\000"
 1881      7420756E 
 1881      7369676E 
 1881      65642069 
 1881      6E7400
 1882              	.LASF55:
 1883 0262 41504231 		.ascii	"APB1LPENR\000"
 1883      4C50454E 
 1883      5200
 1884              	.LASF67:
 1885 026c 706C6C76 		.ascii	"pllvco\000"
 1885      636F00
 1886              	.LASF16:
 1887 0273 56544F52 		.ascii	"VTOR\000"
 1887      00
 1888              	.LASF6:
 1889 0278 696E7433 		.ascii	"int32_t\000"
 1889      325F7400 
 1890              	.LASF26:
 1891 0280 49534152 		.ascii	"ISAR\000"
 1891      00
 1892              	.LASF21:
 1893 0285 44465352 		.ascii	"DFSR\000"
 1893      00
 1894              	.LASF72:
 1895 028a 53797374 		.ascii	"SystemCoreClock\000"
 1895      656D436F 
 1895      7265436C 
 1895      6F636B00 
 1896              	.LASF20:
ARM GAS  C:\Users\CNous\AppData\Local\Temp\ccLV38g2.s 			page 45


 1897 029a 48465352 		.ascii	"HFSR\000"
 1897      00
 1898              	.LASF52:
 1899 029f 41484232 		.ascii	"AHB2LPENR\000"
 1899      4C50454E 
 1899      5200
 1900              	.LASF25:
 1901 02a9 4D4D4652 		.ascii	"MMFR\000"
 1901      00
 1902              	.LASF27:
 1903 02ae 52455345 		.ascii	"RESERVED0\000"
 1903      52564544 
 1903      3000
 1904              	.LASF43:
 1905 02b8 52455345 		.ascii	"RESERVED1\000"
 1905      52564544 
 1905      3100
 1906              	.LASF47:
 1907 02c2 52455345 		.ascii	"RESERVED2\000"
 1907      52564544 
 1907      3200
 1908              	.LASF77:
 1909 02cc 53657453 		.ascii	"SetSysClock\000"
 1909      7973436C 
 1909      6F636B00 
 1910              	.LASF54:
 1911 02d8 52455345 		.ascii	"RESERVED4\000"
 1911      52564544 
 1911      3400
 1912              	.LASF57:
 1913 02e2 52455345 		.ascii	"RESERVED5\000"
 1913      52564544 
 1913      3500
 1914              	.LASF59:
 1915 02ec 52455345 		.ascii	"RESERVED6\000"
 1915      52564544 
 1915      3600
 1916              	.LASF44:
 1917 02f6 41484231 		.ascii	"AHB1ENR\000"
 1917      454E5200 
 1918              	.LASF30:
 1919 02fe 52455345 		.ascii	"RESET\000"
 1919      5400
 1920              	.LASF38:
 1921 0304 41484231 		.ascii	"AHB1RSTR\000"
 1921      52535452 
 1921      00
 1922              	.LASF24:
 1923 030d 41465352 		.ascii	"AFSR\000"
 1923      00
 1924              	.LASF40:
 1925 0312 41484233 		.ascii	"AHB3RSTR\000"
 1925      52535452 
 1925      00
 1926              	.LASF34:
 1927 031b 464C4153 		.ascii	"FLASH_TypeDef\000"
 1927      485F5479 
ARM GAS  C:\Users\CNous\AppData\Local\Temp\ccLV38g2.s 			page 46


 1927      70654465 
 1927      6600
 1928              	.LASF71:
 1929 0329 49544D5F 		.ascii	"ITM_RxBuffer\000"
 1929      52784275 
 1929      66666572 
 1929      00
 1930              	.LASF28:
 1931 0336 43504143 		.ascii	"CPACR\000"
 1931      5200
 1932              	.LASF56:
 1933 033c 41504232 		.ascii	"APB2LPENR\000"
 1933      4C50454E 
 1933      5200
 1934              	.LASF33:
 1935 0346 4F505443 		.ascii	"OPTCR\000"
 1935      5200
 1936              		.ident	"GCC: (GNU Tools for ARM Embedded Processors) 4.7.3 20121207 (release) [ARM/embedded-4_7-br
ARM GAS  C:\Users\CNous\AppData\Local\Temp\ccLV38g2.s 			page 47


DEFINED SYMBOLS
                            *ABS*:00000000 system_stm32f4xx.c
C:\Users\CNous\AppData\Local\Temp\ccLV38g2.s:71     .text.SystemInit:00000000 $t
C:\Users\CNous\AppData\Local\Temp\ccLV38g2.s:76     .text.SystemInit:00000000 SystemInit
C:\Users\CNous\AppData\Local\Temp\ccLV38g2.s:297    .text.SystemCoreClockUpdate:00000000 $t
C:\Users\CNous\AppData\Local\Temp\ccLV38g2.s:302    .text.SystemCoreClockUpdate:00000000 SystemCoreClockUpdate
C:\Users\CNous\AppData\Local\Temp\ccLV38g2.s:393    .text.SystemCoreClockUpdate:0000008c $d
C:\Users\CNous\AppData\Local\Temp\ccLV38g2.s:405    .data.AHBPrescTable:00000000 AHBPrescTable
C:\Users\CNous\AppData\Local\Temp\ccLV38g2.s:427    .data.SystemCoreClock:00000000 SystemCoreClock
C:\Users\CNous\AppData\Local\Temp\ccLV38g2.s:401    .data.AHBPrescTable:00000000 $d
C:\Users\CNous\AppData\Local\Temp\ccLV38g2.s:423    .data.SystemCoreClock:00000000 $d
                     .debug_frame:00000010 $d

NO UNDEFINED SYMBOLS
