ARM GAS  C:\Users\CNous\AppData\Local\Temp\ccmZfnu5.s 			page 1


   1              		.syntax unified
   2              		.cpu cortex-m4
   3              		.eabi_attribute 27, 3	@ Tag_ABI_HardFP_use
   4              		.eabi_attribute 28, 1	@ Tag_ABI_VFP_args
   5              		.fpu fpv4-sp-d16
   6              		.eabi_attribute 20, 1	@ Tag_ABI_FP_denormal
   7              		.eabi_attribute 21, 1	@ Tag_ABI_FP_exceptions
   8              		.eabi_attribute 23, 3	@ Tag_ABI_FP_number_model
   9              		.eabi_attribute 24, 1	@ Tag_ABI_align8_needed
  10              		.eabi_attribute 25, 1	@ Tag_ABI_align8_preserved
  11              		.eabi_attribute 26, 1	@ Tag_ABI_enum_size
  12              		.eabi_attribute 30, 2	@ Tag_ABI_optimization_goals
  13              		.eabi_attribute 34, 1	@ Tag_CPU_unaligned_access
  14              		.eabi_attribute 18, 4	@ Tag_ABI_PCS_wchar_t
  15              		.file	"main.c"
  16              	@ GNU C (GNU Tools for ARM Embedded Processors) version 4.7.3 20121207 (release) [ARM/embedded-4_7-
  17              	@	compiled by GNU C version 4.2.1-sjlj (mingw32-2), GMP version 4.3.2, MPFR version 2.4.2, MPC vers
  18              	@ GGC heuristics: --param ggc-min-expand=100 --param ggc-min-heapsize=131072
  19              	@ options passed:  -I . -I ./inc -I ./cmsis/core -I ./cmsis/device
  20              	@ -imultilib armv7e-m/fpu
  21              	@ -iprefix c:\gnutoolsarmembedded\4.7-2012q4\bin\../lib/gcc/arm-none-eabi/4.7.3/
  22              	@ -isysroot c:\gnutoolsarmembedded\4.7-2012q4\bin\../arm-none-eabi
  23              	@ -MD src/main.d -MF .dep/main.o.d -MP -MQ src/main.o -D__USES_INITFINI__
  24              	@ -D __FPU_USED=1 -D __arm__ -D __ASSEMBLY__ -D USE_STDPERIPH_DRIVER
  25              	@ -D STM32F4XX -D HSE_VALUE=8000000 -D __FPU_PRESENT=1 -D STM32F407VG
  26              	@ -D RUN_FROM_FLASH=1 src/main.c -mthumb -mcpu=cortex-m4 -mfloat-abi=hard
  27              	@ -mfpu=fpv4-sp-d16 -auxbase-strip src/main.o -gdwarf-2 -O2 -Wall
  28              	@ -Wstrict-prototypes -fverbose-asm -ffunction-sections -fdata-sections
  29              	@ options enabled:  -fauto-inc-dec -fbranch-count-reg -fcaller-saves
  30              	@ -fcombine-stack-adjustments -fcommon -fcompare-elim -fcprop-registers
  31              	@ -fcrossjumping -fcse-follow-jumps -fdata-sections -fdebug-types-section
  32              	@ -fdefer-pop -fdelete-null-pointer-checks -fdevirtualize -fdwarf2-cfi-asm
  33              	@ -fearly-inlining -feliminate-unused-debug-types -fexpensive-optimizations
  34              	@ -fforward-propagate -ffunction-cse -ffunction-sections -fgcse -fgcse-lm
  35              	@ -fgnu-runtime -fguess-branch-probability -fident -fif-conversion
  36              	@ -fif-conversion2 -findirect-inlining -finline -finline-atomics
  37              	@ -finline-functions-called-once -finline-small-functions -fipa-cp
  38              	@ -fipa-profile -fipa-pure-const -fipa-reference -fipa-sra
  39              	@ -fira-share-save-slots -fira-share-spill-slots -fivopts
  40              	@ -fkeep-static-consts -fleading-underscore -fmath-errno -fmerge-constants
  41              	@ -fmerge-debug-strings -fmove-loop-invariants -fomit-frame-pointer
  42              	@ -foptimize-register-move -foptimize-sibling-calls -foptimize-strlen
  43              	@ -fpartial-inlining -fpeephole -fpeephole2 -fprefetch-loop-arrays
  44              	@ -freg-struct-return -fregmove -frename-registers -freorder-blocks
  45              	@ -freorder-functions -frerun-cse-after-loop
  46              	@ -fsched-critical-path-heuristic -fsched-dep-count-heuristic
  47              	@ -fsched-group-heuristic -fsched-interblock -fsched-last-insn-heuristic
  48              	@ -fsched-rank-heuristic -fsched-spec -fsched-spec-insn-heuristic
  49              	@ -fsched-stalled-insns-dep -fschedule-insns -fschedule-insns2
  50              	@ -fsection-anchors -fshow-column -fshrink-wrap -fsigned-zeros
  51              	@ -fsplit-ivs-in-unroller -fsplit-wide-types -fstrict-aliasing
  52              	@ -fstrict-overflow -fstrict-volatile-bitfields -fthread-jumps
  53              	@ -ftoplevel-reorder -ftrapping-math -ftree-bit-ccp -ftree-builtin-call-dce
  54              	@ -ftree-ccp -ftree-ch -ftree-copy-prop -ftree-copyrename -ftree-cselim
  55              	@ -ftree-dce -ftree-dominator-opts -ftree-dse -ftree-forwprop -ftree-fre
  56              	@ -ftree-loop-if-convert -ftree-loop-im -ftree-loop-ivcanon
  57              	@ -ftree-loop-optimize -ftree-parallelize-loops= -ftree-phiprop -ftree-pre
ARM GAS  C:\Users\CNous\AppData\Local\Temp\ccmZfnu5.s 			page 2


  58              	@ -ftree-pta -ftree-reassoc -ftree-scev-cprop -ftree-sink
  59              	@ -ftree-slp-vectorize -ftree-sra -ftree-switch-conversion
  60              	@ -ftree-tail-merge -ftree-ter -ftree-vect-loop-version -ftree-vrp
  61              	@ -funit-at-a-time -funroll-loops -fvar-tracking -fvar-tracking-assignments
  62              	@ -fverbose-asm -fweb -fzero-initialized-in-bss -mlittle-endian
  63              	@ -msched-prolog -mthumb -munaligned-access -mvectorize-with-neon-quad
  64              	
  65              		.text
  66              	.Ltext0:
  67              		.cfi_sections	.debug_frame
  68              		.section	.text.Delay,"ax",%progbits
  69              		.align	2
  70              		.global	Delay
  71              		.thumb
  72              		.thumb_func
  73              		.type	Delay, %function
  74              	Delay:
  75              	.LFB111:
  76              		.file 1 "src/main.c"
   1:src/main.c    **** /**
   2:src/main.c    ****  ******************************************************************************
   3:src/main.c    ****  * @file     main.c
   4:src/main.c    ****  * @author  Xavier Halgand
   5:src/main.c    ****  * @version
   6:src/main.c    ****  * @date    december 2012
   7:src/main.c    ****  * @brief
   8:src/main.c    ****  *
   9:src/main.c    ****  STM32F4 Discovery board open source project.
  10:src/main.c    **** 
  11:src/main.c    **** "Ambiantiseur" ( Ambientizer in english) is a very basic synthesizer
  12:src/main.c    **** which can produce semi-randomly generated musical sequences with a few effects (delay and phaser).
  13:src/main.c    **** Demo here : http://www.youtube.com/watch?v=fMWcXrCg1iw
  14:src/main.c    **** 
  15:src/main.c    **** Four potentiometers and one switch allow the user to control the machine.
  16:src/main.c    **** The two position switch allow you to modify 2 x 4 = 8 parameters :
  17:src/main.c    **** Switch = 0 ->
  18:src/main.c    **** 	pot1 : tempo
  19:src/main.c    **** 	pot2 : notes scales
  20:src/main.c    **** 	pot3 : delay time
  21:src/main.c    **** 	pot4 : delay feedback
  22:src/main.c    **** Switch = 1 ->
  23:src/main.c    **** 	pot1 : note duration (decay time)
  24:src/main.c    **** 	pot2 : phaser rate
  25:src/main.c    **** 	pot3 : phaser feedback
  26:src/main.c    **** 	pot4 : master volume
  27:src/main.c    **** 
  28:src/main.c    **** When switch is toggled, parameter will be adjusted only when the potentiometer is moved and reaches
  29:src/main.c    **** The LEDS light on when the pot is at real position.
  30:src/main.c    **** That is done for avoiding brutal value jumps. (Could be improved)
  31:src/main.c    **** 
  32:src/main.c    **** The tone generator is an anti-aliased minBLEP sawtooth oscillator with light vibrato.
  33:src/main.c    **** 
  34:src/main.c    **** Wirings :
  35:src/main.c    **** Switch and pots are 3V board powered.
  36:src/main.c    **** 	switch : PA1
  37:src/main.c    **** 	pot1   : PB1
  38:src/main.c    **** 	pot2   : PC1
ARM GAS  C:\Users\CNous\AppData\Local\Temp\ccmZfnu5.s 			page 3


  39:src/main.c    **** 	pot3   : PC2
  40:src/main.c    **** 	pot4   : PC4
  41:src/main.c    **** Three additional pots or switches can be wired on PA2, PA3, PB0. Their values appear in ADC1Convert
  42:src/main.c    **** 
  43:src/main.c    ****  ******************************************************************************
  44:src/main.c    ****  * This program is free software; you can redistribute it and/or
  45:src/main.c    ****  * modify it under the terms of the GNU General Public License as
  46:src/main.c    ****  * published by the Free Software Foundation; either version 2 of
  47:src/main.c    ****  * the License, or (at your option) any later version.
  48:src/main.c    ****  *
  49:src/main.c    ****  * This program is distributed in the hope that it will be
  50:src/main.c    ****  * useful, but WITHOUT ANY WARRANTY; without even the implied
  51:src/main.c    ****  * warranty of MERCHANTABILITY or FITNESS FOR A PARTICULAR
  52:src/main.c    ****  * PURPOSE.  See the GNU General Public License for more details.
  53:src/main.c    ****  *
  54:src/main.c    ****  * You should have received a copy of the GNU General Public
  55:src/main.c    ****  * License along with this program; if not, write to the Free
  56:src/main.c    ****  * Software Foundation, Inc., 59 Temple Place, Suite 330, Boston,
  57:src/main.c    ****  * MA 02111-1307, USA.
  58:src/main.c    ****  */
  59:src/main.c    **** 
  60:src/main.c    **** /*----------------------------- Includes --------------------------------------*/
  61:src/main.c    **** 
  62:src/main.c    **** #include "main.h"
  63:src/main.c    **** #include "minblep_tables.h"
  64:src/main.c    **** #include "synth.h"
  65:src/main.c    **** #include "phaser2.h"
  66:src/main.c    **** 
  67:src/main.c    **** /*******************************************************************************/
  68:src/main.c    **** /* ADC CDR register base address */
  69:src/main.c    **** #define ADC1_DR_ADDRESS               ((uint32_t)0x4001204C)
  70:src/main.c    **** 
  71:src/main.c    **** 
  72:src/main.c    **** /*------------------------------------------------------------------------------*/
  73:src/main.c    **** 
  74:src/main.c    **** extern void sawtooth_active (void);
  75:src/main.c    **** extern void sawtooth_runproc (uint16_t offset, unsigned long len);
  76:src/main.c    **** 
  77:src/main.c    **** 
  78:src/main.c    **** /* -------------Global variables ---------------------------------------------*/
  79:src/main.c    **** 
  80:src/main.c    **** uint16_t        audiobuff[BUFF_LEN];  // The circular audio buffer
  81:src/main.c    **** float           sampleT;
  82:src/main.c    **** 
  83:src/main.c    **** /* Delay effect variables  */
  84:src/main.c    **** float           delayline[DELAYLINE_LEN + 2 ];
  85:src/main.c    **** float           delayVol = DELAY_VOLUME;
  86:src/main.c    **** float           *readpos; // output pointer of delay line
  87:src/main.c    **** float           *writepos; // input pointer of delay line
  88:src/main.c    **** float			coeff_a1 = 0.6f; // coeff for the one pole low-pass filter in the feedback loop
  89:src/main.c    **** // coeff_a1 is between 0 and 1, 0 : no filtering, 1 : heavy filtering
  90:src/main.c    **** float			old_dy; //previous delayed sample
  91:src/main.c    **** float           fdb = FEEDB;
  92:src/main.c    **** 
  93:src/main.c    **** /* Envelope variables  */
  94:src/main.c    **** uint8_t			envTrigger, envAmp;
  95:src/main.c    **** float			envPhase;
ARM GAS  C:\Users\CNous\AppData\Local\Temp\ccmZfnu5.s 			page 4


  96:src/main.c    **** float			envTime = ENV_TIME;
  97:src/main.c    **** 
  98:src/main.c    **** /*  Sequencer variables  */
  99:src/main.c    **** uint32_t 		seqIndex;
 100:src/main.c    **** uint32_t		seq1Number = 6;
 101:src/main.c    **** 
 102:src/main.c    **** /*   tempo generator (timer 6) variables   */
 103:src/main.c    **** TIM_TimeBaseInitTypeDef  	TIM_TimeBaseStructure;
 104:src/main.c    **** uint16_t 					PrescalerValue = 349;  /* 21000000 / 60000  - 1  */
 105:src/main.c    **** uint16_t 					reloadValue = 60000;
 106:src/main.c    **** 
 107:src/main.c    **** /*   Oscillator variables  */
 108:src/main.c    **** float    pass = 0.8f;
 109:src/main.c    **** float    phase2 = 0.0f , phase2Step;
 110:src/main.c    **** float   f1 = FREQ1 , f2 = FREQ2 , freq;
 111:src/main.c    **** float   _p, _w, _z;
 112:src/main.c    **** float   _f [FILLEN + STEP_DD_PULSE_LENGTH];
 113:src/main.c    **** int     _j, _init;
 114:src/main.c    **** 
 115:src/main.c    **** uint16_t		delay1 = DELAY_1;
 116:src/main.c    **** 
 117:src/main.c    **** /* panel (switch and pots) variables */
 118:src/main.c    **** uint16_t 		ADC1ConvertedValues[8] ;
 119:src/main.c    **** uint16_t		param1=PARAMDEF, param2=PARAMDEF, param3=PARAMDEF, param4=PARAMDEF;
 120:src/main.c    **** uint16_t		param1b=PARAMDEF, param2b=PARAMDEF, param3b=PARAMDEF, param4b=PARAMDEF;
 121:src/main.c    **** uint8_t			potSet;
 122:src/main.c    **** uint8_t			accroche1 = 0, accroche2 = 0, accroche3 = 0, accroche4 = 0;
 123:src/main.c    **** 
 124:src/main.c    **** RCC_ClocksTypeDef   RCC_Clocks;
 125:src/main.c    **** GPIO_InitTypeDef    GPIO_InitStructure;
 126:src/main.c    **** 
 127:src/main.c    **** __IO uint32_t 		TimingDelay = 50;
 128:src/main.c    **** 
 129:src/main.c    **** /* ----- function prototypes -----------------------------------------------*/
 130:src/main.c    **** 
 131:src/main.c    **** //float sawtooth(float phi);
 132:src/main.c    **** //void UpdateOsc(void);
 133:src/main.c    **** void ADC1_start(void);
 134:src/main.c    **** void Delay(__IO uint32_t nTime);
 135:src/main.c    **** void TIM6_Config_and_start(void);
 136:src/main.c    **** 
 137:src/main.c    **** /*=============================== MAIN ======================================
 138:src/main.c    **** ==============================================================================*/
 139:src/main.c    **** /**
 140:src/main.c    ****  * @brief  Main program.
 141:src/main.c    ****  * @param  None
 142:src/main.c    ****  * @retval None
 143:src/main.c    ****  */
 144:src/main.c    **** int main(void)
 145:src/main.c    **** {
 146:src/main.c    **** 	/* Initialize LEDS */
 147:src/main.c    **** 	STM_EVAL_LEDInit(LED3); // orange LED
 148:src/main.c    **** 	STM_EVAL_LEDInit(LED4); // green LED
 149:src/main.c    **** 	STM_EVAL_LEDInit(LED5); // red LED
 150:src/main.c    **** 	STM_EVAL_LEDInit(LED6); // blue LED
 151:src/main.c    **** 
 152:src/main.c    **** 
ARM GAS  C:\Users\CNous\AppData\Local\Temp\ccmZfnu5.s 			page 5


 153:src/main.c    **** 	/* Initialize User Button */
 154:src/main.c    **** 	STM_EVAL_PBInit(BUTTON_USER, BUTTON_MODE_GPIO);
 155:src/main.c    **** 
 156:src/main.c    **** 	/* Initialise the onboard random number generator ! */
 157:src/main.c    **** 	RCC_AHB2PeriphClockCmd(RCC_AHB2Periph_RNG, ENABLE);
 158:src/main.c    **** 	RNG_Cmd(ENABLE);
 159:src/main.c    **** 
 160:src/main.c    **** 	sampleT = 1.f / SAMPLERATE;
 161:src/main.c    **** 	envPhase = 0.0f;
 162:src/main.c    **** 
 163:src/main.c    **** 	ADC1_start();
 164:src/main.c    **** 
 165:src/main.c    **** 	if (ADC1ConvertedValues[0] < 31 ) potSet = 0; else potSet = 1;
 166:src/main.c    **** 
 167:src/main.c    **** 	TIM6_Config_and_start();
 168:src/main.c    **** 
 169:src/main.c    **** 	if (SysTick_Config(SystemCoreClock / 50))  // 20 ms tick (50Hz)
 170:src/main.c    **** 	{
 171:src/main.c    **** 		/* Capture error */
 172:src/main.c    **** 		while (1);
 173:src/main.c    **** 	}
 174:src/main.c    **** 
 175:src/main.c    **** 	/* initialize pointers positions for delay effect */
 176:src/main.c    **** 	readpos = delayline;
 177:src/main.c    **** 	writepos = delayline + DELAY;
 178:src/main.c    **** 
 179:src/main.c    **** 	sawtooth_active();
 180:src/main.c    **** 
 181:src/main.c    **** 	PhaserInit();
 182:src/main.c    **** 
 183:src/main.c    **** 	EVAL_AUDIO_Init( OUTPUT_DEVICE_AUTO, VOL, SAMPLERATE);
 184:src/main.c    **** 	EVAL_AUDIO_Play((uint16_t*)audiobuff, BUFF_LEN);
 185:src/main.c    **** 
 186:src/main.c    **** 
 187:src/main.c    **** 	while (1)
 188:src/main.c    **** 	{
 189:src/main.c    **** 		//Interrupts handlers are doing their job...;
 190:src/main.c    **** 
 191:src/main.c    **** 	}
 192:src/main.c    **** }
 193:src/main.c    **** /*============================== End of main ===================================
 194:src/main.c    **** ==============================================================================*/
 195:src/main.c    **** 
 196:src/main.c    **** /**
 197:src/main.c    ****  * @brief  Inserts a delay time.
 198:src/main.c    ****  * @param  nTime: specifies the delay time length.
 199:src/main.c    ****  * @retval None
 200:src/main.c    ****  */
 201:src/main.c    **** void Delay(__IO uint32_t nTime)
 202:src/main.c    **** {
  77              		.loc 1 202 0
  78              		.cfi_startproc
  79              		@ args = 0, pretend = 0, frame = 8
  80              		@ frame_needed = 0, uses_anonymous_args = 0
  81              		@ link register save eliminated.
  82              	.LVL0:
  83 0000 82B0     		sub	sp, sp, #8	@,,
ARM GAS  C:\Users\CNous\AppData\Local\Temp\ccmZfnu5.s 			page 6


  84              	.LCFI0:
  85              		.cfi_def_cfa_offset 8
 203:src/main.c    **** 	TimingDelay = nTime;
  86              		.loc 1 203 0
  87 0002 044A     		ldr	r2, .L5	@ tmp138,
 202:src/main.c    **** {
  88              		.loc 1 202 0
  89 0004 0190     		str	r0, [sp, #4]	@ nTime, nTime
  90              		.loc 1 203 0
  91 0006 019B     		ldr	r3, [sp, #4]	@ nTime.6, nTime
  92 0008 1360     		str	r3, [r2, #0]	@ nTime.6, TimingDelay
  93              	.L2:
 204:src/main.c    **** 	while(TimingDelay != 0);
  94              		.loc 1 204 0 discriminator 1
  95 000a 1068     		ldr	r0, [r2, #0]	@ TimingDelay.7, TimingDelay
  96 000c 0028     		cmp	r0, #0	@ TimingDelay.7
  97 000e FCD1     		bne	.L2	@
 205:src/main.c    **** }
  98              		.loc 1 205 0
  99 0010 02B0     		add	sp, sp, #8	@,,
 100 0012 7047     		bx	lr
 101              	.L6:
 102              		.align	2
 103              	.L5:
 104 0014 00000000 		.word	.LANCHOR0
 105              		.cfi_endproc
 106              	.LFE111:
 107              		.size	Delay, .-Delay
 108              		.section	.text.TimingDelay_Decrement,"ax",%progbits
 109              		.align	2
 110              		.global	TimingDelay_Decrement
 111              		.thumb
 112              		.thumb_func
 113              		.type	TimingDelay_Decrement, %function
 114              	TimingDelay_Decrement:
 115              	.LFB112:
 206:src/main.c    **** //---------------------------------------------------------------------------
 207:src/main.c    **** /**
 208:src/main.c    ****  * @brief  Decrements the TimingDelay variable.
 209:src/main.c    ****  * @param  None
 210:src/main.c    ****  * @retval None
 211:src/main.c    ****  */
 212:src/main.c    **** void TimingDelay_Decrement(void)
 213:src/main.c    **** {
 116              		.loc 1 213 0
 117              		.cfi_startproc
 118              		@ args = 0, pretend = 0, frame = 0
 119              		@ frame_needed = 0, uses_anonymous_args = 0
 120              		@ link register save eliminated.
 214:src/main.c    **** 	if (TimingDelay != 0x00)
 121              		.loc 1 214 0
 122 0000 034B     		ldr	r3, .L12	@ tmp137,
 123 0002 1A68     		ldr	r2, [r3, #0]	@ TimingDelay.3, TimingDelay
 124 0004 12B1     		cbz	r2, .L7	@ TimingDelay.3,
 215:src/main.c    **** 	{
 216:src/main.c    **** 		TimingDelay--;
 125              		.loc 1 216 0
ARM GAS  C:\Users\CNous\AppData\Local\Temp\ccmZfnu5.s 			page 7


 126 0006 1868     		ldr	r0, [r3, #0]	@ TimingDelay.4, TimingDelay
 127 0008 411E     		subs	r1, r0, #1	@ TimingDelay.5, TimingDelay.4,
 128 000a 1960     		str	r1, [r3, #0]	@ TimingDelay.5, TimingDelay
 129              	.L7:
 130 000c 7047     		bx	lr	@
 131              	.L13:
 132 000e 00BF     		.align	2
 133              	.L12:
 134 0010 00000000 		.word	.LANCHOR0
 135              		.cfi_endproc
 136              	.LFE112:
 137              		.size	TimingDelay_Decrement, .-TimingDelay_Decrement
 138              		.section	.text.Codec_TIMEOUT_UserCallback,"ax",%progbits
 139              		.align	2
 140              		.global	Codec_TIMEOUT_UserCallback
 141              		.thumb
 142              		.thumb_func
 143              		.type	Codec_TIMEOUT_UserCallback, %function
 144              	Codec_TIMEOUT_UserCallback:
 145              	.LFB113:
 217:src/main.c    **** 	}
 218:src/main.c    **** }
 219:src/main.c    **** //---------------------------------------------------------------------------
 220:src/main.c    **** 
 221:src/main.c    **** /**
 222:src/main.c    ****  * @brief  Basic management of the timeout situation.
 223:src/main.c    ****  * @param  None
 224:src/main.c    ****  * @retval None
 225:src/main.c    ****  */
 226:src/main.c    **** uint32_t Codec_TIMEOUT_UserCallback(void)
 227:src/main.c    **** {
 146              		.loc 1 227 0
 147              		.cfi_startproc
 148              		@ args = 0, pretend = 0, frame = 0
 149              		@ frame_needed = 0, uses_anonymous_args = 0
 150              		@ link register save eliminated.
 228:src/main.c    **** 	//STM_EVAL_LEDOn(LED5); /*  alert : red LED !  */
 229:src/main.c    **** 	return (0);
 230:src/main.c    **** }
 151              		.loc 1 230 0
 152 0000 0020     		movs	r0, #0	@,
 153 0002 7047     		bx	lr	@
 154              		.cfi_endproc
 155              	.LFE113:
 156              		.size	Codec_TIMEOUT_UserCallback, .-Codec_TIMEOUT_UserCallback
 157              		.section	.text.EVAL_AUDIO_HalfTransfer_CallBack,"ax",%progbits
 158              		.align	2
 159              		.global	EVAL_AUDIO_HalfTransfer_CallBack
 160              		.thumb
 161              		.thumb_func
 162              		.type	EVAL_AUDIO_HalfTransfer_CallBack, %function
 163              	EVAL_AUDIO_HalfTransfer_CallBack:
 164              	.LFB114:
 231:src/main.c    **** //---------------------------------------------------------------------------
 232:src/main.c    **** /**
 233:src/main.c    ****  * @brief  Manages the DMA Half Transfer complete interrupt.
 234:src/main.c    ****  * @param  None
ARM GAS  C:\Users\CNous\AppData\Local\Temp\ccmZfnu5.s 			page 8


 235:src/main.c    ****  * @retval None
 236:src/main.c    ****  */
 237:src/main.c    **** void EVAL_AUDIO_HalfTransfer_CallBack(uint32_t pBuffer, uint32_t Size)
 238:src/main.c    **** {
 165              		.loc 1 238 0
 166              		.cfi_startproc
 167              		@ args = 0, pretend = 0, frame = 0
 168              		@ frame_needed = 0, uses_anonymous_args = 0
 169              		@ link register save eliminated.
 170              	.LVL1:
 239:src/main.c    **** 	/* Generally this interrupt routine is used to load the buffer when
 240:src/main.c    ****   a streaming scheme is used: When first Half buffer is already transferred load
 241:src/main.c    ****   the new data to the first half of buffer while DMA is transferring data from
 242:src/main.c    ****   the second half. And when Transfer complete occurs, load the second half of
 243:src/main.c    ****   the buffer while the DMA is transferring from the first half ... */
 244:src/main.c    **** 
 245:src/main.c    **** 	//STM_EVAL_LEDToggle(LED6);
 246:src/main.c    **** 	sawtooth_runproc(0, BUFF_LEN_DIV4);
 171              		.loc 1 246 0
 172 0000 0020     		movs	r0, #0	@,
 173              	.LVL2:
 174 0002 A021     		movs	r1, #160	@,
 175              	.LVL3:
 247:src/main.c    **** 	//STM_EVAL_LEDToggle(LED6);
 248:src/main.c    **** 
 249:src/main.c    **** }
 176              		.loc 1 249 0
 246:src/main.c    **** 	sawtooth_runproc(0, BUFF_LEN_DIV4);
 177              		.loc 1 246 0
 178 0004 FFF7FEBF 		b	sawtooth_runproc	@
 179              	.LVL4:
 180              		.cfi_endproc
 181              	.LFE114:
 182              		.size	EVAL_AUDIO_HalfTransfer_CallBack, .-EVAL_AUDIO_HalfTransfer_CallBack
 183              		.section	.text.EVAL_AUDIO_TransferComplete_CallBack,"ax",%progbits
 184              		.align	2
 185              		.global	EVAL_AUDIO_TransferComplete_CallBack
 186              		.thumb
 187              		.thumb_func
 188              		.type	EVAL_AUDIO_TransferComplete_CallBack, %function
 189              	EVAL_AUDIO_TransferComplete_CallBack:
 190              	.LFB115:
 250:src/main.c    **** 
 251:src/main.c    **** 
 252:src/main.c    **** //---------------------------------------------------------------------------
 253:src/main.c    **** /**
 254:src/main.c    ****  * @brief  Manages the DMA Complete Transfer complete interrupt.
 255:src/main.c    ****  * @param  None
 256:src/main.c    ****  * @retval None
 257:src/main.c    ****  */
 258:src/main.c    **** void EVAL_AUDIO_TransferComplete_CallBack(uint32_t pBuffer, uint32_t Size)
 259:src/main.c    **** {
 191              		.loc 1 259 0
 192              		.cfi_startproc
 193              		@ args = 0, pretend = 0, frame = 0
 194              		@ frame_needed = 0, uses_anonymous_args = 0
 195              		@ link register save eliminated.
ARM GAS  C:\Users\CNous\AppData\Local\Temp\ccmZfnu5.s 			page 9


 196              	.LVL5:
 260:src/main.c    **** 
 261:src/main.c    **** 	//STM_EVAL_LEDToggle(LED6);
 262:src/main.c    **** 	sawtooth_runproc(BUFF_LEN_DIV2, BUFF_LEN_DIV4);
 197              		.loc 1 262 0
 198 0000 4FF4A070 		mov	r0, #320	@,
 199              	.LVL6:
 200 0004 A021     		movs	r1, #160	@,
 201              	.LVL7:
 263:src/main.c    **** 	//STM_EVAL_LEDToggle(LED6);
 264:src/main.c    **** }
 202              		.loc 1 264 0
 262:src/main.c    **** 	sawtooth_runproc(BUFF_LEN_DIV2, BUFF_LEN_DIV4);
 203              		.loc 1 262 0
 204 0006 FFF7FEBF 		b	sawtooth_runproc	@
 205              	.LVL8:
 206              		.cfi_endproc
 207              	.LFE115:
 208              		.size	EVAL_AUDIO_TransferComplete_CallBack, .-EVAL_AUDIO_TransferComplete_CallBack
 209 000a 00BF     		.section	.text.EVAL_AUDIO_GetSampleCallBack,"ax",%progbits
 210              		.align	2
 211              		.global	EVAL_AUDIO_GetSampleCallBack
 212              		.thumb
 213              		.thumb_func
 214              		.type	EVAL_AUDIO_GetSampleCallBack, %function
 215              	EVAL_AUDIO_GetSampleCallBack:
 216              	.LFB116:
 265:src/main.c    **** 
 266:src/main.c    **** 
 267:src/main.c    **** //---------------------------------------------------------------------------
 268:src/main.c    **** /** NOT USED !
 269:src/main.c    ****  * @brief  Get next data sample callback
 270:src/main.c    ****  * @param  None
 271:src/main.c    ****  * @retval Next data sample to be sent
 272:src/main.c    ****  */
 273:src/main.c    **** uint16_t EVAL_AUDIO_GetSampleCallBack(void)
 274:src/main.c    **** {
 217              		.loc 1 274 0
 218              		.cfi_startproc
 219              		@ args = 0, pretend = 0, frame = 0
 220              		@ frame_needed = 0, uses_anonymous_args = 0
 221              		@ link register save eliminated.
 275:src/main.c    **** 	return 0;
 276:src/main.c    **** }
 222              		.loc 1 276 0
 223 0000 0020     		movs	r0, #0	@,
 224 0002 7047     		bx	lr	@
 225              		.cfi_endproc
 226              	.LFE116:
 227              		.size	EVAL_AUDIO_GetSampleCallBack, .-EVAL_AUDIO_GetSampleCallBack
 228              		.section	.text.randomNum,"ax",%progbits
 229              		.align	2
 230              		.global	randomNum
 231              		.thumb
 232              		.thumb_func
 233              		.type	randomNum, %function
 234              	randomNum:
ARM GAS  C:\Users\CNous\AppData\Local\Temp\ccmZfnu5.s 			page 10


 235              	.LFB117:
 277:src/main.c    **** 
 278:src/main.c    **** 
 279:src/main.c    **** //---------------------------------------------------------------------------
 280:src/main.c    **** /**************
 281:src/main.c    ****  * returns a random float between 0 and 1
 282:src/main.c    ****  *****************/
 283:src/main.c    **** float randomNum(void)
 284:src/main.c    **** {
 236              		.loc 1 284 0
 237              		.cfi_startproc
 238              		@ args = 0, pretend = 0, frame = 0
 239              		@ frame_needed = 0, uses_anonymous_args = 0
 240              	.LVL9:
 285:src/main.c    **** 	float random = 1.0f;
 286:src/main.c    **** 	if (RNG_GetFlagStatus(RNG_FLAG_DRDY) == SET)
 241              		.loc 1 286 0
 242 0000 0120     		movs	r0, #1	@,
 284:src/main.c    **** {
 243              		.loc 1 284 0
 244 0002 08B5     		push	{r3, lr}	@
 245              	.LCFI1:
 246              		.cfi_def_cfa_offset 8
 247              		.cfi_offset 3, -8
 248              		.cfi_offset 14, -4
 249              		.loc 1 286 0
 250 0004 FFF7FEFF 		bl	RNG_GetFlagStatus	@
 251              	.LVL10:
 252 0008 0128     		cmp	r0, #1	@,
 253 000a 02D0     		beq	.L21	@,
 285:src/main.c    **** 	float random = 1.0f;
 254              		.loc 1 285 0
 255 000c B7EE000A 		fconsts	s0, #112	@ random,
 256              	.LVL11:
 287:src/main.c    **** 	{
 288:src/main.c    **** 		random = (float)(RNG_GetRandomNumber()/4294967294.0f);
 289:src/main.c    **** 	}
 290:src/main.c    **** 	return random;
 291:src/main.c    **** }
 257              		.loc 1 291 0
 258 0010 08BD     		pop	{r3, pc}	@
 259              	.LVL12:
 260              	.L21:
 288:src/main.c    **** 		random = (float)(RNG_GetRandomNumber()/4294967294.0f);
 261              		.loc 1 288 0
 262 0012 FFF7FEFF 		bl	RNG_GetRandomNumber	@
 263              	.LVL13:
 264 0016 07EE900A 		fmsr	s15, r0	@ int	@,
 265 001a DFED030A 		flds	s1, .L22	@ tmp141,
 266 001e B8EE670A 		fuitos	s0, s15	@ tmp140,
 267 0022 20EE200A 		fmuls	s0, s0, s1	@ random, tmp140, tmp141
 268              	.LVL14:
 269 0026 08BD     		pop	{r3, pc}	@
 270              	.L23:
 271              		.align	2
 272              	.L22:
 273 0028 0000802F 		.word	796917760
ARM GAS  C:\Users\CNous\AppData\Local\Temp\ccmZfnu5.s 			page 11


 274              		.cfi_endproc
 275              	.LFE117:
 276              		.size	randomNum, .-randomNum
 277              		.section	.text.ADC1_start,"ax",%progbits
 278              		.align	2
 279              		.global	ADC1_start
 280              		.thumb
 281              		.thumb_func
 282              		.type	ADC1_start, %function
 283              	ADC1_start:
 284              	.LFB118:
 292:src/main.c    **** 
 293:src/main.c    **** 
 294:src/main.c    **** //---------------------------------------------------------------------------
 295:src/main.c    **** /**
 296:src/main.c    ****  * @brief  Configure and start ADC1.
 297:src/main.c    ****  * @param  None
 298:src/main.c    ****  * @retval None
 299:src/main.c    ****  */
 300:src/main.c    **** void ADC1_start(void)
 301:src/main.c    **** {
 285              		.loc 1 301 0
 286              		.cfi_startproc
 287              		@ args = 0, pretend = 0, frame = 128
 288              		@ frame_needed = 0, uses_anonymous_args = 0
 289 0000 2DE9F043 		push	{r4, r5, r6, r7, r8, r9, lr}	@
 290              	.LCFI2:
 291              		.cfi_def_cfa_offset 28
 292              		.cfi_offset 4, -28
 293              		.cfi_offset 5, -24
 294              		.cfi_offset 6, -20
 295              		.cfi_offset 7, -16
 296              		.cfi_offset 8, -12
 297              		.cfi_offset 9, -8
 298              		.cfi_offset 14, -4
 299 0004 A1B0     		sub	sp, sp, #132	@,,
 300              	.LCFI3:
 301              		.cfi_def_cfa_offset 160
 302:src/main.c    **** 	ADC_InitTypeDef       ADC_InitStructure;
 303:src/main.c    **** 	ADC_CommonInitTypeDef ADC_CommonInitStructure;
 304:src/main.c    **** 	DMA_InitTypeDef       DMA_InitStructure;
 305:src/main.c    **** 	GPIO_InitTypeDef      GPIO_A_InitStructure;
 306:src/main.c    **** 	GPIO_InitTypeDef      GPIO_B_InitStructure;
 307:src/main.c    **** 	GPIO_InitTypeDef      GPIO_C_InitStructure;
 308:src/main.c    **** 
 309:src/main.c    **** 	/* Deinitializes the ADC peripheral registers */
 310:src/main.c    **** 	ADC_DeInit();
 302              		.loc 1 310 0
 303 0006 FFF7FEFF 		bl	ADC_DeInit	@
 304              	.LVL15:
 311:src/main.c    **** 
 312:src/main.c    **** 	/* Enable the GPIOs' Clock , ADC1 Periph Clock and DMA1 clock   */
 313:src/main.c    **** 	RCC_AHB1PeriphClockCmd(RCC_AHB1Periph_DMA2 | RCC_AHB1Periph_GPIOA | RCC_AHB1Periph_GPIOB | RCC_AHB
 305              		.loc 1 313 0
 306 000a 0720     		movs	r0, #7	@,
 307 000c 0121     		movs	r1, #1	@,
 308 000e C0F24000 		movt	r0, 64	@,
ARM GAS  C:\Users\CNous\AppData\Local\Temp\ccmZfnu5.s 			page 12


 309 0012 FFF7FEFF 		bl	RCC_AHB1PeriphClockCmd	@
 310              	.LVL16:
 314:src/main.c    **** 	RCC_APB2PeriphClockCmd(RCC_APB2Periph_ADC1, ENABLE);
 311              		.loc 1 314 0
 312 0016 0121     		movs	r1, #1	@,
 313 0018 4FF48070 		mov	r0, #256	@,
 314 001c FFF7FEFF 		bl	RCC_APB2PeriphClockCmd	@
 315              	.LVL17:
 315:src/main.c    **** 
 316:src/main.c    **** 
 317:src/main.c    **** 	/* DMA1 Stream0 channel0 configuration  */
 318:src/main.c    **** 	DMA_InitStructure.DMA_Channel = DMA_Channel_0;
 319:src/main.c    **** 	DMA_InitStructure.DMA_PeripheralBaseAddr = ADC1_DR_ADDRESS;
 316              		.loc 1 319 0
 317 0020 42F24C03 		movw	r3, #8268	@ tmp137,
 318 0024 C4F20103 		movt	r3, 16385	@ tmp137,
 320:src/main.c    **** 	DMA_InitStructure.DMA_Memory0BaseAddr = (uint32_t)&ADC1ConvertedValues;
 321:src/main.c    **** 	DMA_InitStructure.DMA_DIR = DMA_DIR_PeripheralToMemory;
 322:src/main.c    **** 	DMA_InitStructure.DMA_BufferSize = 8;
 323:src/main.c    **** 	DMA_InitStructure.DMA_PeripheralInc = DMA_PeripheralInc_Disable;
 324:src/main.c    **** 	DMA_InitStructure.DMA_MemoryInc = DMA_MemoryInc_Enable;
 325:src/main.c    **** 	DMA_InitStructure.DMA_PeripheralDataSize = DMA_PeripheralDataSize_HalfWord;
 326:src/main.c    **** 	DMA_InitStructure.DMA_MemoryDataSize = DMA_MemoryDataSize_HalfWord;
 327:src/main.c    **** 	DMA_InitStructure.DMA_Mode = DMA_Mode_Circular;
 328:src/main.c    **** 	DMA_InitStructure.DMA_Priority = DMA_Priority_Medium;
 329:src/main.c    **** 	DMA_InitStructure.DMA_FIFOMode = DMA_FIFOMode_Disable;
 330:src/main.c    **** 	DMA_InitStructure.DMA_FIFOThreshold = DMA_FIFOThreshold_HalfFull;
 331:src/main.c    **** 	DMA_InitStructure.DMA_MemoryBurst = DMA_MemoryBurst_Single;
 332:src/main.c    **** 	DMA_InitStructure.DMA_PeripheralBurst = DMA_PeripheralBurst_Single;
 333:src/main.c    **** 	DMA_Init(DMA2_Stream0, &DMA_InitStructure);
 319              		.loc 1 333 0
 320 0028 46F21045 		movw	r5, #25616	@ tmp151,
 320:src/main.c    **** 	DMA_InitStructure.DMA_Memory0BaseAddr = (uint32_t)&ADC1ConvertedValues;
 321              		.loc 1 320 0
 322 002c 40F20002 		movw	r2, #:lower16:ADC1ConvertedValues	@ tmp138,
 323              		.loc 1 333 0
 324 0030 C4F20205 		movt	r5, 16386	@ tmp151,
 319:src/main.c    **** 	DMA_InitStructure.DMA_PeripheralBaseAddr = ADC1_DR_ADDRESS;
 325              		.loc 1 319 0
 326 0034 1293     		str	r3, [sp, #72]	@ tmp137, DMA_InitStructure.DMA_PeripheralBaseAddr
 320:src/main.c    **** 	DMA_InitStructure.DMA_Memory0BaseAddr = (uint32_t)&ADC1ConvertedValues;
 327              		.loc 1 320 0
 328 0036 C0F20002 		movt	r2, #:upper16:ADC1ConvertedValues	@ tmp138,
 324:src/main.c    **** 	DMA_InitStructure.DMA_MemoryInc = DMA_MemoryInc_Enable;
 329              		.loc 1 324 0
 330 003a 4FF48067 		mov	r7, #1024	@ tmp142,
 325:src/main.c    **** 	DMA_InitStructure.DMA_PeripheralDataSize = DMA_PeripheralDataSize_HalfWord;
 331              		.loc 1 325 0
 332 003e 4FF40063 		mov	r3, #2048	@ tmp143,
 330:src/main.c    **** 	DMA_InitStructure.DMA_FIFOThreshold = DMA_FIFOThreshold_HalfFull;
 333              		.loc 1 330 0
 334 0042 0124     		movs	r4, #1	@ tmp148,
 318:src/main.c    **** 	DMA_InitStructure.DMA_Channel = DMA_Channel_0;
 335              		.loc 1 318 0
 336 0044 0026     		movs	r6, #0	@ tmp136,
 322:src/main.c    **** 	DMA_InitStructure.DMA_BufferSize = 8;
 337              		.loc 1 322 0
ARM GAS  C:\Users\CNous\AppData\Local\Temp\ccmZfnu5.s 			page 13


 338 0046 4FF00808 		mov	r8, #8	@ tmp140,
 339              		.loc 1 333 0
 340 004a 2846     		mov	r0, r5	@, tmp151
 341 004c 11A9     		add	r1, sp, #68	@,,
 320:src/main.c    **** 	DMA_InitStructure.DMA_Memory0BaseAddr = (uint32_t)&ADC1ConvertedValues;
 342              		.loc 1 320 0
 343 004e 1392     		str	r2, [sp, #76]	@ tmp138, DMA_InitStructure.DMA_Memory0BaseAddr
 324:src/main.c    **** 	DMA_InitStructure.DMA_MemoryInc = DMA_MemoryInc_Enable;
 344              		.loc 1 324 0
 345 0050 1797     		str	r7, [sp, #92]	@ tmp142, DMA_InitStructure.DMA_MemoryInc
 326:src/main.c    **** 	DMA_InitStructure.DMA_MemoryDataSize = DMA_MemoryDataSize_HalfWord;
 346              		.loc 1 326 0
 347 0052 4FF40052 		mov	r2, #8192	@ tmp144,
 325:src/main.c    **** 	DMA_InitStructure.DMA_PeripheralDataSize = DMA_PeripheralDataSize_HalfWord;
 348              		.loc 1 325 0
 349 0056 1893     		str	r3, [sp, #96]	@ tmp143, DMA_InitStructure.DMA_PeripheralDataSize
 327:src/main.c    **** 	DMA_InitStructure.DMA_Mode = DMA_Mode_Circular;
 350              		.loc 1 327 0
 351 0058 4FF48077 		mov	r7, #256	@ tmp145,
 328:src/main.c    **** 	DMA_InitStructure.DMA_Priority = DMA_Priority_Medium;
 352              		.loc 1 328 0
 353 005c 4FF48033 		mov	r3, #65536	@ tmp146,
 354 0060 1B93     		str	r3, [sp, #108]	@ tmp146, DMA_InitStructure.DMA_Priority
 326:src/main.c    **** 	DMA_InitStructure.DMA_MemoryDataSize = DMA_MemoryDataSize_HalfWord;
 355              		.loc 1 326 0
 356 0062 1992     		str	r2, [sp, #100]	@ tmp144, DMA_InitStructure.DMA_MemoryDataSize
 327:src/main.c    **** 	DMA_InitStructure.DMA_Mode = DMA_Mode_Circular;
 357              		.loc 1 327 0
 358 0064 1A97     		str	r7, [sp, #104]	@ tmp145, DMA_InitStructure.DMA_Mode
 318:src/main.c    **** 	DMA_InitStructure.DMA_Channel = DMA_Channel_0;
 359              		.loc 1 318 0
 360 0066 1196     		str	r6, [sp, #68]	@ tmp136, DMA_InitStructure.DMA_Channel
 321:src/main.c    **** 	DMA_InitStructure.DMA_DIR = DMA_DIR_PeripheralToMemory;
 361              		.loc 1 321 0
 362 0068 1496     		str	r6, [sp, #80]	@ tmp136, DMA_InitStructure.DMA_DIR
 322:src/main.c    **** 	DMA_InitStructure.DMA_BufferSize = 8;
 363              		.loc 1 322 0
 364 006a CDF85480 		str	r8, [sp, #84]	@ tmp140, DMA_InitStructure.DMA_BufferSize
 323:src/main.c    **** 	DMA_InitStructure.DMA_PeripheralInc = DMA_PeripheralInc_Disable;
 365              		.loc 1 323 0
 366 006e 1696     		str	r6, [sp, #88]	@ tmp136, DMA_InitStructure.DMA_PeripheralInc
 329:src/main.c    **** 	DMA_InitStructure.DMA_FIFOMode = DMA_FIFOMode_Disable;
 367              		.loc 1 329 0
 368 0070 1C96     		str	r6, [sp, #112]	@ tmp136, DMA_InitStructure.DMA_FIFOMode
 330:src/main.c    **** 	DMA_InitStructure.DMA_FIFOThreshold = DMA_FIFOThreshold_HalfFull;
 369              		.loc 1 330 0
 370 0072 1D94     		str	r4, [sp, #116]	@ tmp148, DMA_InitStructure.DMA_FIFOThreshold
 331:src/main.c    **** 	DMA_InitStructure.DMA_MemoryBurst = DMA_MemoryBurst_Single;
 371              		.loc 1 331 0
 372 0074 1E96     		str	r6, [sp, #120]	@ tmp136, DMA_InitStructure.DMA_MemoryBurst
 332:src/main.c    **** 	DMA_InitStructure.DMA_PeripheralBurst = DMA_PeripheralBurst_Single;
 373              		.loc 1 332 0
 374 0076 1F96     		str	r6, [sp, #124]	@ tmp136, DMA_InitStructure.DMA_PeripheralBurst
 375              		.loc 1 333 0
 376 0078 FFF7FEFF 		bl	DMA_Init	@
 377              	.LVL18:
 334:src/main.c    **** 	DMA_Cmd(DMA2_Stream0, ENABLE);
ARM GAS  C:\Users\CNous\AppData\Local\Temp\ccmZfnu5.s 			page 14


 378              		.loc 1 334 0
 379 007c 2846     		mov	r0, r5	@, tmp151
 380 007e 2146     		mov	r1, r4	@, tmp148
 381 0080 FFF7FEFF 		bl	DMA_Cmd	@
 382              	.LVL19:
 335:src/main.c    **** 
 336:src/main.c    **** 	/* Configure ADC1 Channels 1, 2, 3 pins as analog input : PA1, PA2, PA3 ***********************/
 337:src/main.c    **** 	GPIO_A_InitStructure.GPIO_Pin = GPIO_Pin_1 | GPIO_Pin_2 | GPIO_Pin_3;
 338:src/main.c    **** 	GPIO_A_InitStructure.GPIO_Mode = GPIO_Mode_AN;
 339:src/main.c    **** 	GPIO_A_InitStructure.GPIO_PuPd = GPIO_PuPd_NOPULL ;
 340:src/main.c    **** 	GPIO_Init(GPIOA, &GPIO_A_InitStructure);
 383              		.loc 1 340 0
 384 0084 3046     		mov	r0, r6	@, tmp136
 338:src/main.c    **** 	GPIO_A_InitStructure.GPIO_Mode = GPIO_Mode_AN;
 385              		.loc 1 338 0
 386 0086 0327     		movs	r7, #3	@ tmp155,
 337:src/main.c    **** 	GPIO_A_InitStructure.GPIO_Pin = GPIO_Pin_1 | GPIO_Pin_2 | GPIO_Pin_3;
 387              		.loc 1 337 0
 388 0088 4FF00E09 		mov	r9, #14	@ tmp154,
 389              		.loc 1 340 0
 390 008c 01A9     		add	r1, sp, #4	@,,
 391 008e C4F20200 		movt	r0, 16386	@,
 337:src/main.c    **** 	GPIO_A_InitStructure.GPIO_Pin = GPIO_Pin_1 | GPIO_Pin_2 | GPIO_Pin_3;
 392              		.loc 1 337 0
 393 0092 CDF80490 		str	r9, [sp, #4]	@ tmp154, GPIO_A_InitStructure.GPIO_Pin
 338:src/main.c    **** 	GPIO_A_InitStructure.GPIO_Mode = GPIO_Mode_AN;
 394              		.loc 1 338 0
 395 0096 8DF80870 		strb	r7, [sp, #8]	@ tmp155, GPIO_A_InitStructure.GPIO_Mode
 339:src/main.c    **** 	GPIO_A_InitStructure.GPIO_PuPd = GPIO_PuPd_NOPULL ;
 396              		.loc 1 339 0
 397 009a 8DF80B60 		strb	r6, [sp, #11]	@ tmp136, GPIO_A_InitStructure.GPIO_PuPd
 398              		.loc 1 340 0
 399 009e FFF7FEFF 		bl	GPIO_Init	@
 400              	.LVL20:
 341:src/main.c    **** 
 342:src/main.c    **** 	/* Configure ADC1 Channels 8, 9 pins as analog input : PB0, PB1 ***********************/
 343:src/main.c    **** 	GPIO_B_InitStructure.GPIO_Pin = GPIO_Pin_0 | GPIO_Pin_1;
 344:src/main.c    **** 	GPIO_B_InitStructure.GPIO_Mode = GPIO_Mode_AN;
 345:src/main.c    **** 	GPIO_B_InitStructure.GPIO_PuPd = GPIO_PuPd_NOPULL ;
 346:src/main.c    **** 	GPIO_Init(GPIOB, &GPIO_B_InitStructure);
 401              		.loc 1 346 0
 402 00a2 4FF48060 		mov	r0, #1024	@,
 403 00a6 03A9     		add	r1, sp, #12	@,,
 404 00a8 C4F20200 		movt	r0, 16386	@,
 343:src/main.c    **** 	GPIO_B_InitStructure.GPIO_Pin = GPIO_Pin_0 | GPIO_Pin_1;
 405              		.loc 1 343 0
 406 00ac 0397     		str	r7, [sp, #12]	@ tmp155, GPIO_B_InitStructure.GPIO_Pin
 344:src/main.c    **** 	GPIO_B_InitStructure.GPIO_Mode = GPIO_Mode_AN;
 407              		.loc 1 344 0
 408 00ae 8DF81070 		strb	r7, [sp, #16]	@ tmp155, GPIO_B_InitStructure.GPIO_Mode
 345:src/main.c    **** 	GPIO_B_InitStructure.GPIO_PuPd = GPIO_PuPd_NOPULL ;
 409              		.loc 1 345 0
 410 00b2 8DF81360 		strb	r6, [sp, #19]	@ tmp136, GPIO_B_InitStructure.GPIO_PuPd
 411              		.loc 1 346 0
 412 00b6 FFF7FEFF 		bl	GPIO_Init	@
 413              	.LVL21:
 347:src/main.c    **** 
ARM GAS  C:\Users\CNous\AppData\Local\Temp\ccmZfnu5.s 			page 15


 348:src/main.c    **** 	/* Configure ADC1 Channels 11, 12, 14 pins as analog input : PC1, PC2, PC4 ***********************
 349:src/main.c    **** 	GPIO_C_InitStructure.GPIO_Pin = GPIO_Pin_1 | GPIO_Pin_2 | GPIO_Pin_4;
 350:src/main.c    **** 	GPIO_C_InitStructure.GPIO_Mode = GPIO_Mode_AN;
 351:src/main.c    **** 	GPIO_C_InitStructure.GPIO_PuPd = GPIO_PuPd_NOPULL ;
 352:src/main.c    **** 	GPIO_Init(GPIOC, &GPIO_C_InitStructure);
 414              		.loc 1 352 0
 415 00ba 4FF40060 		mov	r0, #2048	@,
 349:src/main.c    **** 	GPIO_C_InitStructure.GPIO_Pin = GPIO_Pin_1 | GPIO_Pin_2 | GPIO_Pin_4;
 416              		.loc 1 349 0
 417 00be 1622     		movs	r2, #22	@ tmp168,
 418              		.loc 1 352 0
 419 00c0 05A9     		add	r1, sp, #20	@,,
 420 00c2 C4F20200 		movt	r0, 16386	@,
 353:src/main.c    **** 
 354:src/main.c    **** 	/* ADC Common Init **********************************************************/
 355:src/main.c    **** 	ADC_CommonInitStructure.ADC_Mode = ADC_Mode_Independent;
 356:src/main.c    **** 	ADC_CommonInitStructure.ADC_Prescaler = ADC_Prescaler_Div2;
 357:src/main.c    **** 	ADC_CommonInitStructure.ADC_DMAAccessMode = ADC_DMAAccessMode_Disabled;
 358:src/main.c    **** 	ADC_CommonInitStructure.ADC_TwoSamplingDelay = ADC_TwoSamplingDelay_20Cycles;
 359:src/main.c    **** 	ADC_CommonInit(&ADC_CommonInitStructure);
 360:src/main.c    **** 
 361:src/main.c    **** 	/* ADC1 Init ****************************************************************/
 362:src/main.c    **** 	ADC_InitStructure.ADC_Resolution = ADC_Resolution_6b;
 363:src/main.c    **** 	ADC_InitStructure.ADC_ScanConvMode = ENABLE;
 364:src/main.c    **** 	ADC_InitStructure.ADC_ContinuousConvMode = ENABLE;
 365:src/main.c    **** 	ADC_InitStructure.ADC_ExternalTrigConvEdge = ADC_ExternalTrigConvEdge_None;
 366:src/main.c    **** 	ADC_InitStructure.ADC_DataAlign = ADC_DataAlign_Right;
 367:src/main.c    **** 	ADC_InitStructure.ADC_NbrOfConversion = 8;
 368:src/main.c    **** 
 369:src/main.c    **** 	ADC_InitStructure.ADC_ExternalTrigConv = 0;
 370:src/main.c    **** 
 371:src/main.c    **** 	ADC_Init(ADC1, &ADC_InitStructure);
 421              		.loc 1 371 0
 422 00c6 4FF40055 		mov	r5, #8192	@ tmp190,
 423 00ca C4F20105 		movt	r5, 16385	@ tmp190,
 349:src/main.c    **** 	GPIO_C_InitStructure.GPIO_Pin = GPIO_Pin_1 | GPIO_Pin_2 | GPIO_Pin_4;
 424              		.loc 1 349 0
 425 00ce 0592     		str	r2, [sp, #20]	@ tmp168, GPIO_C_InitStructure.GPIO_Pin
 350:src/main.c    **** 	GPIO_C_InitStructure.GPIO_Mode = GPIO_Mode_AN;
 426              		.loc 1 350 0
 427 00d0 8DF81870 		strb	r7, [sp, #24]	@ tmp155, GPIO_C_InitStructure.GPIO_Mode
 351:src/main.c    **** 	GPIO_C_InitStructure.GPIO_PuPd = GPIO_PuPd_NOPULL ;
 428              		.loc 1 351 0
 429 00d4 8DF81B60 		strb	r6, [sp, #27]	@ tmp136, GPIO_C_InitStructure.GPIO_PuPd
 352:src/main.c    **** 	GPIO_Init(GPIOC, &GPIO_C_InitStructure);
 430              		.loc 1 352 0
 431 00d8 FFF7FEFF 		bl	GPIO_Init	@
 432              	.LVL22:
 359:src/main.c    **** 	ADC_CommonInit(&ADC_CommonInitStructure);
 433              		.loc 1 359 0
 434 00dc 07A8     		add	r0, sp, #28	@,,
 358:src/main.c    **** 	ADC_CommonInitStructure.ADC_TwoSamplingDelay = ADC_TwoSamplingDelay_20Cycles;
 435              		.loc 1 358 0
 436 00de 4FF47061 		mov	r1, #3840	@ tmp178,
 437 00e2 0A91     		str	r1, [sp, #40]	@ tmp178, ADC_CommonInitStructure.ADC_TwoSamplingDelay
 355:src/main.c    **** 	ADC_CommonInitStructure.ADC_Mode = ADC_Mode_Independent;
 438              		.loc 1 355 0
ARM GAS  C:\Users\CNous\AppData\Local\Temp\ccmZfnu5.s 			page 16


 439 00e4 0796     		str	r6, [sp, #28]	@ tmp136, ADC_CommonInitStructure.ADC_Mode
 356:src/main.c    **** 	ADC_CommonInitStructure.ADC_Prescaler = ADC_Prescaler_Div2;
 440              		.loc 1 356 0
 441 00e6 0896     		str	r6, [sp, #32]	@ tmp136, ADC_CommonInitStructure.ADC_Prescaler
 357:src/main.c    **** 	ADC_CommonInitStructure.ADC_DMAAccessMode = ADC_DMAAccessMode_Disabled;
 442              		.loc 1 357 0
 443 00e8 0996     		str	r6, [sp, #36]	@ tmp136, ADC_CommonInitStructure.ADC_DMAAccessMode
 359:src/main.c    **** 	ADC_CommonInit(&ADC_CommonInitStructure);
 444              		.loc 1 359 0
 445 00ea FFF7FEFF 		bl	ADC_CommonInit	@
 446              	.LVL23:
 447              		.loc 1 371 0
 448 00ee 2846     		mov	r0, r5	@, tmp190
 449 00f0 0BA9     		add	r1, sp, #44	@,,
 362:src/main.c    **** 	ADC_InitStructure.ADC_Resolution = ADC_Resolution_6b;
 450              		.loc 1 362 0
 451 00f2 4FF04073 		mov	r3, #50331648	@ tmp180,
 452 00f6 0B93     		str	r3, [sp, #44]	@ tmp180, ADC_InitStructure.ADC_Resolution
 363:src/main.c    **** 	ADC_InitStructure.ADC_ScanConvMode = ENABLE;
 453              		.loc 1 363 0
 454 00f8 8DF83040 		strb	r4, [sp, #48]	@ tmp148, ADC_InitStructure.ADC_ScanConvMode
 364:src/main.c    **** 	ADC_InitStructure.ADC_ContinuousConvMode = ENABLE;
 455              		.loc 1 364 0
 456 00fc 8DF83140 		strb	r4, [sp, #49]	@ tmp148, ADC_InitStructure.ADC_ContinuousConvMode
 365:src/main.c    **** 	ADC_InitStructure.ADC_ExternalTrigConvEdge = ADC_ExternalTrigConvEdge_None;
 457              		.loc 1 365 0
 458 0100 0D96     		str	r6, [sp, #52]	@ tmp136, ADC_InitStructure.ADC_ExternalTrigConvEdge
 366:src/main.c    **** 	ADC_InitStructure.ADC_DataAlign = ADC_DataAlign_Right;
 459              		.loc 1 366 0
 460 0102 0F96     		str	r6, [sp, #60]	@ tmp136, ADC_InitStructure.ADC_DataAlign
 367:src/main.c    **** 	ADC_InitStructure.ADC_NbrOfConversion = 8;
 461              		.loc 1 367 0
 462 0104 8DF84080 		strb	r8, [sp, #64]	@ tmp140, ADC_InitStructure.ADC_NbrOfConversion
 369:src/main.c    **** 	ADC_InitStructure.ADC_ExternalTrigConv = 0;
 463              		.loc 1 369 0
 464 0108 0E96     		str	r6, [sp, #56]	@ tmp136, ADC_InitStructure.ADC_ExternalTrigConv
 465              		.loc 1 371 0
 466 010a FFF7FEFF 		bl	ADC_Init	@
 467              	.LVL24:
 372:src/main.c    **** 
 373:src/main.c    **** 	/* ADC1 regular channels configuration -- ADCx->SMPR1,SMPR2 et ADCx->SQR1,SQR2,SQR3*/
 374:src/main.c    **** 
 375:src/main.c    **** 	ADC_RegularChannelConfig(ADC1, ADC_Channel_1, 1, ADC_SampleTime_15Cycles );
 468              		.loc 1 375 0
 469 010e 2846     		mov	r0, r5	@, tmp190
 470 0110 2146     		mov	r1, r4	@, tmp148
 471 0112 2246     		mov	r2, r4	@, tmp148
 472 0114 2346     		mov	r3, r4	@, tmp148
 473 0116 FFF7FEFF 		bl	ADC_RegularChannelConfig	@
 474              	.LVL25:
 376:src/main.c    **** 	ADC_RegularChannelConfig(ADC1, ADC_Channel_2, 2, ADC_SampleTime_15Cycles );
 475              		.loc 1 376 0
 476 011a 0221     		movs	r1, #2	@,
 477 011c 2846     		mov	r0, r5	@, tmp190
 478 011e 0A46     		mov	r2, r1	@,
 479 0120 2346     		mov	r3, r4	@, tmp148
 480 0122 FFF7FEFF 		bl	ADC_RegularChannelConfig	@
ARM GAS  C:\Users\CNous\AppData\Local\Temp\ccmZfnu5.s 			page 17


 481              	.LVL26:
 377:src/main.c    **** 	ADC_RegularChannelConfig(ADC1, ADC_Channel_3, 3, ADC_SampleTime_15Cycles );
 482              		.loc 1 377 0
 483 0126 2846     		mov	r0, r5	@, tmp190
 484 0128 3946     		mov	r1, r7	@, tmp155
 485 012a 3A46     		mov	r2, r7	@, tmp1
 486 012c 2346     		mov	r3, r4	@, tmp148
 487 012e FFF7FEFF 		bl	ADC_RegularChannelConfig	@
 488              	.LVL27:
 378:src/main.c    **** 	ADC_RegularChannelConfig(ADC1, ADC_Channel_8, 4, ADC_SampleTime_15Cycles );
 489              		.loc 1 378 0
 490 0132 2846     		mov	r0, r5	@, tmp190
 491 0134 4146     		mov	r1, r8	@, tmp140
 492 0136 0422     		movs	r2, #4	@,
 493 0138 2346     		mov	r3, r4	@, tmp148
 494 013a FFF7FEFF 		bl	ADC_RegularChannelConfig	@
 495              	.LVL28:
 379:src/main.c    **** 	ADC_RegularChannelConfig(ADC1, ADC_Channel_9, 5, ADC_SampleTime_15Cycles );
 496              		.loc 1 379 0
 497 013e 2846     		mov	r0, r5	@, tmp190
 498 0140 0921     		movs	r1, #9	@,
 499 0142 0522     		movs	r2, #5	@,
 500 0144 2346     		mov	r3, r4	@, tmp148
 501 0146 FFF7FEFF 		bl	ADC_RegularChannelConfig	@
 502              	.LVL29:
 380:src/main.c    **** 	ADC_RegularChannelConfig(ADC1, ADC_Channel_11, 6, ADC_SampleTime_15Cycles );
 503              		.loc 1 380 0
 504 014a 2846     		mov	r0, r5	@, tmp190
 505 014c 0B21     		movs	r1, #11	@,
 506 014e 0622     		movs	r2, #6	@,
 507 0150 2346     		mov	r3, r4	@, tmp148
 508 0152 FFF7FEFF 		bl	ADC_RegularChannelConfig	@
 509              	.LVL30:
 381:src/main.c    **** 	ADC_RegularChannelConfig(ADC1, ADC_Channel_12, 7, ADC_SampleTime_15Cycles );
 510              		.loc 1 381 0
 511 0156 2846     		mov	r0, r5	@, tmp190
 512 0158 0C21     		movs	r1, #12	@,
 513 015a 0722     		movs	r2, #7	@,
 514 015c 2346     		mov	r3, r4	@, tmp148
 515 015e FFF7FEFF 		bl	ADC_RegularChannelConfig	@
 516              	.LVL31:
 382:src/main.c    **** 	ADC_RegularChannelConfig(ADC1, ADC_Channel_14, 8, ADC_SampleTime_15Cycles );
 517              		.loc 1 382 0
 518 0162 4246     		mov	r2, r8	@, tmp140
 519 0164 2346     		mov	r3, r4	@, tmp148
 520 0166 2846     		mov	r0, r5	@, tmp190
 521 0168 4946     		mov	r1, r9	@, tmp154
 522 016a FFF7FEFF 		bl	ADC_RegularChannelConfig	@
 523              	.LVL32:
 383:src/main.c    **** 
 384:src/main.c    **** 	/* Enable DMA request after last transfer (Single-ADC mode) */
 385:src/main.c    **** 	ADC_DMARequestAfterLastTransferCmd(ADC1, ENABLE);
 524              		.loc 1 385 0
 525 016e 2846     		mov	r0, r5	@, tmp190
 526 0170 2146     		mov	r1, r4	@, tmp148
 527 0172 FFF7FEFF 		bl	ADC_DMARequestAfterLastTransferCmd	@
 528              	.LVL33:
ARM GAS  C:\Users\CNous\AppData\Local\Temp\ccmZfnu5.s 			page 18


 386:src/main.c    **** 
 387:src/main.c    **** 	/* Enable ADC1 DMA */
 388:src/main.c    **** 	ADC_DMACmd(ADC1, ENABLE);
 529              		.loc 1 388 0
 530 0176 2846     		mov	r0, r5	@, tmp190
 531 0178 2146     		mov	r1, r4	@, tmp148
 532 017a FFF7FEFF 		bl	ADC_DMACmd	@
 533              	.LVL34:
 389:src/main.c    **** 
 390:src/main.c    **** 	/* Enable ADC1 */
 391:src/main.c    **** 	ADC_Cmd(ADC1, ENABLE);
 534              		.loc 1 391 0
 535 017e 2846     		mov	r0, r5	@, tmp190
 536 0180 2146     		mov	r1, r4	@, tmp148
 537 0182 FFF7FEFF 		bl	ADC_Cmd	@
 538              	.LVL35:
 392:src/main.c    **** 
 393:src/main.c    **** 	ADC_ContinuousModeCmd(ADC1, ENABLE);
 539              		.loc 1 393 0
 540 0186 2846     		mov	r0, r5	@, tmp190
 541 0188 2146     		mov	r1, r4	@, tmp148
 542 018a FFF7FEFF 		bl	ADC_ContinuousModeCmd	@
 543              	.LVL36:
 394:src/main.c    **** 	/* Start ADC1 Software Conversion */
 395:src/main.c    **** 	ADC_SoftwareStartConv(ADC1);
 544              		.loc 1 395 0
 545 018e 2846     		mov	r0, r5	@, tmp190
 546 0190 FFF7FEFF 		bl	ADC_SoftwareStartConv	@
 547              	.LVL37:
 396:src/main.c    **** }
 548              		.loc 1 396 0
 549 0194 21B0     		add	sp, sp, #132	@,,
 550 0196 BDE8F083 		pop	{r4, r5, r6, r7, r8, r9, pc}
 551              		.cfi_endproc
 552              	.LFE118:
 553              		.size	ADC1_start, .-ADC1_start
 554 019a 00BF     		.section	.text.TIM6_Config_and_start,"ax",%progbits
 555              		.align	2
 556              		.global	TIM6_Config_and_start
 557              		.thumb
 558              		.thumb_func
 559              		.type	TIM6_Config_and_start, %function
 560              	TIM6_Config_and_start:
 561              	.LFB119:
 397:src/main.c    **** /*****************************************************************************************/
 398:src/main.c    **** 
 399:src/main.c    **** /**
 400:src/main.c    ****  * @brief  Configure and start the TIMER 6.
 401:src/main.c    ****  * @param  None
 402:src/main.c    ****  * @retval None
 403:src/main.c    ****  */
 404:src/main.c    **** void TIM6_Config_and_start(void)
 405:src/main.c    **** {
 562              		.loc 1 405 0
 563              		.cfi_startproc
 564              		@ args = 0, pretend = 0, frame = 8
 565              		@ frame_needed = 0, uses_anonymous_args = 0
ARM GAS  C:\Users\CNous\AppData\Local\Temp\ccmZfnu5.s 			page 19


 566 0000 70B5     		push	{r4, r5, r6, lr}	@
 567              	.LCFI4:
 568              		.cfi_def_cfa_offset 16
 569              		.cfi_offset 4, -16
 570              		.cfi_offset 5, -12
 571              		.cfi_offset 6, -8
 572              		.cfi_offset 14, -4
 406:src/main.c    **** 	NVIC_InitTypeDef NVIC_InitStructure;
 407:src/main.c    **** 
 408:src/main.c    **** 	/* TIM6 clock enable */
 409:src/main.c    **** 	RCC_APB1PeriphClockCmd(RCC_APB1Periph_TIM6, ENABLE);
 410:src/main.c    **** 
 411:src/main.c    **** 	TIM_DeInit(TIM6);
 573              		.loc 1 411 0
 574 0002 4FF48054 		mov	r4, #4096	@ tmp137,
 405:src/main.c    **** {
 575              		.loc 1 405 0
 576 0006 82B0     		sub	sp, sp, #8	@,,
 577              	.LCFI5:
 578              		.cfi_def_cfa_offset 24
 579              		.loc 1 411 0
 580 0008 C4F20004 		movt	r4, 16384	@ tmp137,
 409:src/main.c    **** 	RCC_APB1PeriphClockCmd(RCC_APB1Periph_TIM6, ENABLE);
 581              		.loc 1 409 0
 582 000c 0121     		movs	r1, #1	@,
 583 000e 1020     		movs	r0, #16	@,
 584 0010 FFF7FEFF 		bl	RCC_APB1PeriphClockCmd	@
 585              	.LVL38:
 586              		.loc 1 411 0
 587 0014 2046     		mov	r0, r4	@, tmp137
 588 0016 FFF7FEFF 		bl	TIM_DeInit	@
 589              	.LVL39:
 412:src/main.c    **** 
 413:src/main.c    **** 	/* Enable the TIM6 global Interrupt */
 414:src/main.c    **** 	NVIC_InitStructure.NVIC_IRQChannel = TIM6_DAC_IRQn;
 415:src/main.c    **** 	NVIC_InitStructure.NVIC_IRQChannelPreemptionPriority = 0;
 416:src/main.c    **** 	NVIC_InitStructure.NVIC_IRQChannelSubPriority = 1;
 590              		.loc 1 416 0
 591 001a 0125     		movs	r5, #1	@ tmp142,
 415:src/main.c    **** 	NVIC_InitStructure.NVIC_IRQChannelPreemptionPriority = 0;
 592              		.loc 1 415 0
 593 001c 0026     		movs	r6, #0	@ tmp140,
 414:src/main.c    **** 	NVIC_InitStructure.NVIC_IRQChannel = TIM6_DAC_IRQn;
 594              		.loc 1 414 0
 595 001e 3623     		movs	r3, #54	@ tmp138,
 417:src/main.c    **** 	NVIC_InitStructure.NVIC_IRQChannelCmd = ENABLE;
 418:src/main.c    **** 	NVIC_Init(&NVIC_InitStructure);
 596              		.loc 1 418 0
 597 0020 01A8     		add	r0, sp, #4	@,,
 414:src/main.c    **** 	NVIC_InitStructure.NVIC_IRQChannel = TIM6_DAC_IRQn;
 598              		.loc 1 414 0
 599 0022 8DF80430 		strb	r3, [sp, #4]	@ tmp138, NVIC_InitStructure.NVIC_IRQChannel
 415:src/main.c    **** 	NVIC_InitStructure.NVIC_IRQChannelPreemptionPriority = 0;
 600              		.loc 1 415 0
 601 0026 8DF80560 		strb	r6, [sp, #5]	@ tmp140, NVIC_InitStructure.NVIC_IRQChannelPreemptionPriority
 416:src/main.c    **** 	NVIC_InitStructure.NVIC_IRQChannelSubPriority = 1;
 602              		.loc 1 416 0
ARM GAS  C:\Users\CNous\AppData\Local\Temp\ccmZfnu5.s 			page 20


 603 002a 8DF80650 		strb	r5, [sp, #6]	@ tmp142, NVIC_InitStructure.NVIC_IRQChannelSubPriority
 417:src/main.c    **** 	NVIC_InitStructure.NVIC_IRQChannelCmd = ENABLE;
 604              		.loc 1 417 0
 605 002e 8DF80750 		strb	r5, [sp, #7]	@ tmp142, NVIC_InitStructure.NVIC_IRQChannelCmd
 606              		.loc 1 418 0
 607 0032 FFF7FEFF 		bl	NVIC_Init	@
 608              	.LVL40:
 419:src/main.c    **** 
 420:src/main.c    **** 	/* Time base configuration */
 421:src/main.c    **** 	TIM_TimeBaseStructure.TIM_Period = 65535;
 609              		.loc 1 421 0
 610 0036 40F20003 		movw	r3, #:lower16:TIM_TimeBaseStructure	@ tmp172,
 611 003a C0F20003 		movt	r3, #:upper16:TIM_TimeBaseStructure	@ tmp172,
 422:src/main.c    **** 	TIM_TimeBaseStructure.TIM_Prescaler = 0;
 423:src/main.c    **** 	TIM_TimeBaseStructure.TIM_ClockDivision = 0; // NA
 424:src/main.c    **** 	TIM_TimeBaseStructure.TIM_CounterMode = TIM_CounterMode_Up;
 425:src/main.c    **** 
 426:src/main.c    **** 	TIM_TimeBaseInit(TIM6, &TIM_TimeBaseStructure);
 612              		.loc 1 426 0
 613 003e 1946     		mov	r1, r3	@, tmp172
 614 0040 2046     		mov	r0, r4	@, tmp137
 421:src/main.c    **** 	TIM_TimeBaseStructure.TIM_Period = 65535;
 615              		.loc 1 421 0
 616 0042 4FF6FF72 		movw	r2, #65535	@ tmp148,
 617 0046 5A60     		str	r2, [r3, #4]	@ tmp148, TIM_TimeBaseStructure.TIM_Period
 422:src/main.c    **** 	TIM_TimeBaseStructure.TIM_Prescaler = 0;
 618              		.loc 1 422 0
 619 0048 1E80     		strh	r6, [r3, #0]	@ movhi	@ tmp140, TIM_TimeBaseStructure.TIM_Prescaler
 423:src/main.c    **** 	TIM_TimeBaseStructure.TIM_ClockDivision = 0; // NA
 620              		.loc 1 423 0
 621 004a 1E81     		strh	r6, [r3, #8]	@ movhi	@ tmp140, TIM_TimeBaseStructure.TIM_ClockDivision
 424:src/main.c    **** 	TIM_TimeBaseStructure.TIM_CounterMode = TIM_CounterMode_Up;
 622              		.loc 1 424 0
 623 004c 5E80     		strh	r6, [r3, #2]	@ movhi	@ tmp140, TIM_TimeBaseStructure.TIM_CounterMode
 624              		.loc 1 426 0
 625 004e FFF7FEFF 		bl	TIM_TimeBaseInit	@
 626              	.LVL41:
 427:src/main.c    **** 
 428:src/main.c    **** 	/* Prescaler configuration */
 429:src/main.c    **** 	TIM_PrescalerConfig(TIM6, PrescalerValue, TIM_PSCReloadMode_Immediate);
 627              		.loc 1 429 0
 628 0052 40F20001 		movw	r1, #:lower16:.LANCHOR1	@ tmp173,
 629 0056 C0F20001 		movt	r1, #:upper16:.LANCHOR1	@ tmp173,
 630 005a 2A46     		mov	r2, r5	@, tmp142
 631 005c 2046     		mov	r0, r4	@, tmp137
 632 005e 0988     		ldrh	r1, [r1, #0]	@, PrescalerValue
 633 0060 FFF7FEFF 		bl	TIM_PrescalerConfig	@
 634              	.LVL42:
 430:src/main.c    **** 
 431:src/main.c    **** 	TIM_SetAutoreload(TIM6, reloadValue);
 635              		.loc 1 431 0
 636 0064 40F20003 		movw	r3, #:lower16:.LANCHOR2	@ tmp174,
 637 0068 C0F20003 		movt	r3, #:upper16:.LANCHOR2	@ tmp174,
 638 006c 2046     		mov	r0, r4	@, tmp137
 639 006e 1988     		ldrh	r1, [r3, #0]	@, reloadValue
 640 0070 FFF7FEFF 		bl	TIM_SetAutoreload	@
 641              	.LVL43:
ARM GAS  C:\Users\CNous\AppData\Local\Temp\ccmZfnu5.s 			page 21


 432:src/main.c    **** 
 433:src/main.c    **** 	TIM_UpdateDisableConfig(TIM6, DISABLE);
 642              		.loc 1 433 0
 643 0074 2046     		mov	r0, r4	@, tmp137
 644 0076 3146     		mov	r1, r6	@, tmp140
 645 0078 FFF7FEFF 		bl	TIM_UpdateDisableConfig	@
 646              	.LVL44:
 434:src/main.c    **** 
 435:src/main.c    **** 	TIM_UpdateRequestConfig(TIM6, TIM_UpdateSource_Regular);
 647              		.loc 1 435 0
 648 007c 2046     		mov	r0, r4	@, tmp137
 649 007e 2946     		mov	r1, r5	@, tmp142
 650 0080 FFF7FEFF 		bl	TIM_UpdateRequestConfig	@
 651              	.LVL45:
 436:src/main.c    **** 
 437:src/main.c    **** 	TIM_ARRPreloadConfig(TIM6, ENABLE);
 652              		.loc 1 437 0
 653 0084 2046     		mov	r0, r4	@, tmp137
 654 0086 2946     		mov	r1, r5	@, tmp142
 655 0088 FFF7FEFF 		bl	TIM_ARRPreloadConfig	@
 656              	.LVL46:
 438:src/main.c    **** 
 439:src/main.c    **** 	TIM_SelectOnePulseMode(TIM6, TIM_OPMode_Repetitive);
 657              		.loc 1 439 0
 658 008c 2046     		mov	r0, r4	@, tmp137
 659 008e 3146     		mov	r1, r6	@, tmp140
 660 0090 FFF7FEFF 		bl	TIM_SelectOnePulseMode	@
 661              	.LVL47:
 440:src/main.c    **** 
 441:src/main.c    **** 	/* TIM Interrupts enable */
 442:src/main.c    **** 	TIM_ITConfig(TIM6, TIM_IT_Update, ENABLE);
 662              		.loc 1 442 0
 663 0094 2046     		mov	r0, r4	@, tmp137
 664 0096 2946     		mov	r1, r5	@, tmp142
 665 0098 2A46     		mov	r2, r5	@, tmp142
 666 009a FFF7FEFF 		bl	TIM_ITConfig	@
 667              	.LVL48:
 443:src/main.c    **** 
 444:src/main.c    **** 	/* TIM6 enable counter */
 445:src/main.c    **** 	TIM_Cmd(TIM6, ENABLE);
 668              		.loc 1 445 0
 669 009e 2046     		mov	r0, r4	@, tmp137
 670 00a0 2946     		mov	r1, r5	@, tmp142
 671 00a2 FFF7FEFF 		bl	TIM_Cmd	@
 672              	.LVL49:
 446:src/main.c    **** }
 673              		.loc 1 446 0
 674 00a6 02B0     		add	sp, sp, #8	@,,
 675 00a8 70BD     		pop	{r4, r5, r6, pc}
 676              		.cfi_endproc
 677              	.LFE119:
 678              		.size	TIM6_Config_and_start, .-TIM6_Config_and_start
 679 00aa 00BF     		.section	.text.startup.main,"ax",%progbits
 680              		.align	2
 681              		.global	main
 682              		.thumb
 683              		.thumb_func
ARM GAS  C:\Users\CNous\AppData\Local\Temp\ccmZfnu5.s 			page 22


 684              		.type	main, %function
 685              	main:
 686              	.LFB110:
 145:src/main.c    **** {
 687              		.loc 1 145 0
 688              		.cfi_startproc
 689              		@ args = 0, pretend = 0, frame = 0
 690              		@ frame_needed = 0, uses_anonymous_args = 0
 691 0000 10B5     		push	{r4, lr}	@
 692              	.LCFI6:
 693              		.cfi_def_cfa_offset 8
 694              		.cfi_offset 4, -8
 695              		.cfi_offset 14, -4
 147:src/main.c    **** 	STM_EVAL_LEDInit(LED3); // orange LED
 696              		.loc 1 147 0
 697 0002 0120     		movs	r0, #1	@,
 698 0004 FFF7FEFF 		bl	STM_EVAL_LEDInit	@
 699              	.LVL50:
 148:src/main.c    **** 	STM_EVAL_LEDInit(LED4); // green LED
 700              		.loc 1 148 0
 701 0008 0020     		movs	r0, #0	@,
 702 000a FFF7FEFF 		bl	STM_EVAL_LEDInit	@
 703              	.LVL51:
 149:src/main.c    **** 	STM_EVAL_LEDInit(LED5); // red LED
 704              		.loc 1 149 0
 705 000e 0220     		movs	r0, #2	@,
 706 0010 FFF7FEFF 		bl	STM_EVAL_LEDInit	@
 707              	.LVL52:
 150:src/main.c    **** 	STM_EVAL_LEDInit(LED6); // blue LED
 708              		.loc 1 150 0
 709 0014 0320     		movs	r0, #3	@,
 710 0016 FFF7FEFF 		bl	STM_EVAL_LEDInit	@
 711              	.LVL53:
 154:src/main.c    **** 	STM_EVAL_PBInit(BUTTON_USER, BUTTON_MODE_GPIO);
 712              		.loc 1 154 0
 713 001a 0020     		movs	r0, #0	@,
 714 001c 0146     		mov	r1, r0	@,
 715 001e FFF7FEFF 		bl	STM_EVAL_PBInit	@
 716              	.LVL54:
 157:src/main.c    **** 	RCC_AHB2PeriphClockCmd(RCC_AHB2Periph_RNG, ENABLE);
 717              		.loc 1 157 0
 718 0022 0121     		movs	r1, #1	@,
 719 0024 4020     		movs	r0, #64	@,
 720 0026 FFF7FEFF 		bl	RCC_AHB2PeriphClockCmd	@
 721              	.LVL55:
 158:src/main.c    **** 	RNG_Cmd(ENABLE);
 722              		.loc 1 158 0
 723 002a 0120     		movs	r0, #1	@,
 724 002c FFF7FEFF 		bl	RNG_Cmd	@
 725              	.LVL56:
 165:src/main.c    **** 	if (ADC1ConvertedValues[0] < 31 ) potSet = 0; else potSet = 1;
 726              		.loc 1 165 0
 727 0030 264C     		ldr	r4, .L33	@ tmp143,
 160:src/main.c    **** 	sampleT = 1.f / SAMPLERATE;
 728              		.loc 1 160 0
 729 0032 274B     		ldr	r3, .L33+4	@ tmp139,
 161:src/main.c    **** 	envPhase = 0.0f;
ARM GAS  C:\Users\CNous\AppData\Local\Temp\ccmZfnu5.s 			page 23


 730              		.loc 1 161 0
 731 0034 2749     		ldr	r1, .L33+8	@ tmp141,
 160:src/main.c    **** 	sampleT = 1.f / SAMPLERATE;
 732              		.loc 1 160 0
 733 0036 4CF23E32 		movw	r2, #49982	@ tmp140,
 734 003a C3F2AE72 		movt	r2, 14254	@ tmp140,
 161:src/main.c    **** 	envPhase = 0.0f;
 735              		.loc 1 161 0
 736 003e 0020     		movs	r0, #0	@ tmp142,
 160:src/main.c    **** 	sampleT = 1.f / SAMPLERATE;
 737              		.loc 1 160 0
 738 0040 1A60     		str	r2, [r3, #0]	@ float	@ tmp140, sampleT
 161:src/main.c    **** 	envPhase = 0.0f;
 739              		.loc 1 161 0
 740 0042 0860     		str	r0, [r1, #0]	@ float	@ tmp142, envPhase
 163:src/main.c    **** 	ADC1_start();
 741              		.loc 1 163 0
 742 0044 FFF7FEFF 		bl	ADC1_start	@
 743              	.LVL57:
 165:src/main.c    **** 	if (ADC1ConvertedValues[0] < 31 ) potSet = 0; else potSet = 1;
 744              		.loc 1 165 0
 745 0048 2288     		ldrh	r2, [r4, #0]	@ ADC1ConvertedValues, ADC1ConvertedValues
 746 004a 1E2A     		cmp	r2, #30	@ ADC1ConvertedValues,
 747 004c 3AD8     		bhi	.L27	@,
 165:src/main.c    **** 	if (ADC1ConvertedValues[0] < 31 ) potSet = 0; else potSet = 1;
 748              		.loc 1 165 0 is_stmt 0 discriminator 1
 749 004e 224C     		ldr	r4, .L33+12	@ tmp145,
 750 0050 0021     		movs	r1, #0	@ tmp146,
 751 0052 2170     		strb	r1, [r4, #0]	@ tmp146, potSet
 752              	.L28:
 167:src/main.c    **** 	TIM6_Config_and_start();
 753              		.loc 1 167 0 is_stmt 1
 754 0054 FFF7FEFF 		bl	TIM6_Config_and_start	@
 755              	.LVL58:
 169:src/main.c    **** 	if (SysTick_Config(SystemCoreClock / 50))  // 20 ms tick (50Hz)
 756              		.loc 1 169 0
 757 0058 204A     		ldr	r2, .L33+16	@ tmp151,
 758 005a 48F21F50 		movw	r0, #34079	@ tmp154,
 759 005e 1368     		ldr	r3, [r2, #0]	@ SystemCoreClock, SystemCoreClock
 760 0060 C5F2EB10 		movt	r0, 20971	@ tmp154,
 761 0064 A0FB0314 		umull	r1, r4, r0, r3	@, tmp153, tmp154, SystemCoreClock
 762 0068 2209     		lsrs	r2, r4, #4	@ D.8619, tmp153,
 763              	.LVL59:
 764              	.LBB8:
 765              	.LBB9:
 766              		.file 2 "./cmsis/core/core_cm4.h"
   1:./cmsis/core/core_cm4.h **** /**************************************************************************//**
   2:./cmsis/core/core_cm4.h ****  * @file     core_cm4.h
   3:./cmsis/core/core_cm4.h ****  * @brief    CMSIS Cortex-M4 Core Peripheral Access Layer Header File
   4:./cmsis/core/core_cm4.h ****  * @version  V2.10
   5:./cmsis/core/core_cm4.h ****  * @date     19. July 2011
   6:./cmsis/core/core_cm4.h ****  *
   7:./cmsis/core/core_cm4.h ****  * @note
   8:./cmsis/core/core_cm4.h ****  * Copyright (C) 2009-2011 ARM Limited. All rights reserved.
   9:./cmsis/core/core_cm4.h ****  *
  10:./cmsis/core/core_cm4.h ****  * @par
  11:./cmsis/core/core_cm4.h ****  * ARM Limited (ARM) is supplying this software for use with Cortex-M
ARM GAS  C:\Users\CNous\AppData\Local\Temp\ccmZfnu5.s 			page 24


  12:./cmsis/core/core_cm4.h ****  * processor based microcontrollers.  This file can be freely distributed
  13:./cmsis/core/core_cm4.h ****  * within development tools that are supporting such ARM based processors.
  14:./cmsis/core/core_cm4.h ****  *
  15:./cmsis/core/core_cm4.h ****  * @par
  16:./cmsis/core/core_cm4.h ****  * THIS SOFTWARE IS PROVIDED "AS IS".  NO WARRANTIES, WHETHER EXPRESS, IMPLIED
  17:./cmsis/core/core_cm4.h ****  * OR STATUTORY, INCLUDING, BUT NOT LIMITED TO, IMPLIED WARRANTIES OF
  18:./cmsis/core/core_cm4.h ****  * MERCHANTABILITY AND FITNESS FOR A PARTICULAR PURPOSE APPLY TO THIS SOFTWARE.
  19:./cmsis/core/core_cm4.h ****  * ARM SHALL NOT, IN ANY CIRCUMSTANCES, BE LIABLE FOR SPECIAL, INCIDENTAL, OR
  20:./cmsis/core/core_cm4.h ****  * CONSEQUENTIAL DAMAGES, FOR ANY REASON WHATSOEVER.
  21:./cmsis/core/core_cm4.h ****  *
  22:./cmsis/core/core_cm4.h ****  ******************************************************************************/
  23:./cmsis/core/core_cm4.h **** #if defined ( __ICCARM__ )
  24:./cmsis/core/core_cm4.h ****  #pragma system_include  /* treat file as system include file for MISRA check */
  25:./cmsis/core/core_cm4.h **** #endif
  26:./cmsis/core/core_cm4.h **** 
  27:./cmsis/core/core_cm4.h **** #ifdef __cplusplus
  28:./cmsis/core/core_cm4.h ****  extern "C" {
  29:./cmsis/core/core_cm4.h **** #endif
  30:./cmsis/core/core_cm4.h **** 
  31:./cmsis/core/core_cm4.h **** #ifndef __CORE_CM4_H_GENERIC
  32:./cmsis/core/core_cm4.h **** #define __CORE_CM4_H_GENERIC
  33:./cmsis/core/core_cm4.h **** 
  34:./cmsis/core/core_cm4.h **** 
  35:./cmsis/core/core_cm4.h **** /** \mainpage CMSIS Cortex-M4
  36:./cmsis/core/core_cm4.h **** 
  37:./cmsis/core/core_cm4.h ****   This documentation describes the CMSIS Cortex-M Core Peripheral Access Layer.
  38:./cmsis/core/core_cm4.h ****   It consists of:
  39:./cmsis/core/core_cm4.h **** 
  40:./cmsis/core/core_cm4.h ****      - Cortex-M Core Register Definitions
  41:./cmsis/core/core_cm4.h ****      - Cortex-M functions
  42:./cmsis/core/core_cm4.h ****      - Cortex-M instructions
  43:./cmsis/core/core_cm4.h ****      - Cortex-M SIMD instructions
  44:./cmsis/core/core_cm4.h **** 
  45:./cmsis/core/core_cm4.h ****   The CMSIS Cortex-M4 Core Peripheral Access Layer contains C and assembly functions that ease
  46:./cmsis/core/core_cm4.h ****   access to the Cortex-M Core
  47:./cmsis/core/core_cm4.h ****  */
  48:./cmsis/core/core_cm4.h **** 
  49:./cmsis/core/core_cm4.h **** /** \defgroup CMSIS_MISRA_Exceptions  CMSIS MISRA-C:2004 Compliance Exceptions
  50:./cmsis/core/core_cm4.h ****   CMSIS violates following MISRA-C2004 Rules:
  51:./cmsis/core/core_cm4.h ****   
  52:./cmsis/core/core_cm4.h ****    - Violates MISRA 2004 Required Rule 8.5, object/function definition in header file.<br>
  53:./cmsis/core/core_cm4.h ****      Function definitions in header files are used to allow 'inlining'. 
  54:./cmsis/core/core_cm4.h **** 
  55:./cmsis/core/core_cm4.h ****    - Violates MISRA 2004 Required Rule 18.4, declaration of union type or object of union type: '{.
  56:./cmsis/core/core_cm4.h ****      Unions are used for effective representation of core registers.
  57:./cmsis/core/core_cm4.h ****    
  58:./cmsis/core/core_cm4.h ****    - Violates MISRA 2004 Advisory Rule 19.7, Function-like macro defined.<br>
  59:./cmsis/core/core_cm4.h ****      Function-like macros are used to allow more efficient code. 
  60:./cmsis/core/core_cm4.h **** 
  61:./cmsis/core/core_cm4.h ****  */
  62:./cmsis/core/core_cm4.h **** 
  63:./cmsis/core/core_cm4.h **** 
  64:./cmsis/core/core_cm4.h **** /*******************************************************************************
  65:./cmsis/core/core_cm4.h ****  *                 CMSIS definitions
  66:./cmsis/core/core_cm4.h ****  ******************************************************************************/
  67:./cmsis/core/core_cm4.h **** /** \defgroup CMSIS_core_definitions CMSIS Core Definitions
  68:./cmsis/core/core_cm4.h ****   This file defines all structures and symbols for CMSIS core:
ARM GAS  C:\Users\CNous\AppData\Local\Temp\ccmZfnu5.s 			page 25


  69:./cmsis/core/core_cm4.h ****    - CMSIS version number
  70:./cmsis/core/core_cm4.h ****    - Cortex-M core
  71:./cmsis/core/core_cm4.h ****    - Cortex-M core Revision Number
  72:./cmsis/core/core_cm4.h ****   @{
  73:./cmsis/core/core_cm4.h ****  */
  74:./cmsis/core/core_cm4.h **** 
  75:./cmsis/core/core_cm4.h **** /*  CMSIS CM4 definitions */
  76:./cmsis/core/core_cm4.h **** #define __CM4_CMSIS_VERSION_MAIN  (0x02)                                                       /*!<
  77:./cmsis/core/core_cm4.h **** #define __CM4_CMSIS_VERSION_SUB   (0x10)                                                       /*!<
  78:./cmsis/core/core_cm4.h **** #define __CM4_CMSIS_VERSION       ((__CM4_CMSIS_VERSION_MAIN << 16) | __CM4_CMSIS_VERSION_SUB) /*!<
  79:./cmsis/core/core_cm4.h **** 
  80:./cmsis/core/core_cm4.h **** #define __CORTEX_M                (0x04)                                                       /*!<
  81:./cmsis/core/core_cm4.h **** 
  82:./cmsis/core/core_cm4.h **** 
  83:./cmsis/core/core_cm4.h **** #if   defined ( __CC_ARM )
  84:./cmsis/core/core_cm4.h ****   #define __ASM            __asm                                      /*!< asm keyword for ARM Comp
  85:./cmsis/core/core_cm4.h ****   #define __INLINE         __inline                                   /*!< inline keyword for ARM C
  86:./cmsis/core/core_cm4.h **** 
  87:./cmsis/core/core_cm4.h **** #elif defined ( __ICCARM__ )
  88:./cmsis/core/core_cm4.h ****   #define __ASM           __asm                                       /*!< asm keyword for IAR Comp
  89:./cmsis/core/core_cm4.h ****   #define __INLINE        inline                                      /*!< inline keyword for IAR C
  90:./cmsis/core/core_cm4.h **** 
  91:./cmsis/core/core_cm4.h **** #elif defined ( __GNUC__ )
  92:./cmsis/core/core_cm4.h ****   #define __ASM            __asm                                      /*!< asm keyword for GNU Comp
  93:./cmsis/core/core_cm4.h ****   #define __INLINE         inline                                     /*!< inline keyword for GNU C
  94:./cmsis/core/core_cm4.h **** 
  95:./cmsis/core/core_cm4.h **** #elif defined ( __TASKING__ )
  96:./cmsis/core/core_cm4.h ****   #define __ASM            __asm                                      /*!< asm keyword for TASKING 
  97:./cmsis/core/core_cm4.h ****   #define __INLINE         inline                                     /*!< inline keyword for TASKI
  98:./cmsis/core/core_cm4.h **** 
  99:./cmsis/core/core_cm4.h **** #endif
 100:./cmsis/core/core_cm4.h **** 
 101:./cmsis/core/core_cm4.h **** /*!< __FPU_USED to be checked prior to making use of FPU specific registers and functions */
 102:./cmsis/core/core_cm4.h **** #if defined ( __CC_ARM )
 103:./cmsis/core/core_cm4.h ****   #if defined __TARGET_FPU_VFP
 104:./cmsis/core/core_cm4.h ****     #if (__FPU_PRESENT == 1)
 105:./cmsis/core/core_cm4.h ****       #define __FPU_USED       1
 106:./cmsis/core/core_cm4.h ****     #else
 107:./cmsis/core/core_cm4.h ****       #warning "Compiler generates FPU instructions for a device without an FPU (check __FPU_PRESEN
 108:./cmsis/core/core_cm4.h ****       #define __FPU_USED       0
 109:./cmsis/core/core_cm4.h ****     #endif
 110:./cmsis/core/core_cm4.h ****   #else
 111:./cmsis/core/core_cm4.h ****     #define __FPU_USED         0
 112:./cmsis/core/core_cm4.h ****   #endif
 113:./cmsis/core/core_cm4.h **** 
 114:./cmsis/core/core_cm4.h **** #elif defined ( __ICCARM__ )
 115:./cmsis/core/core_cm4.h ****   #if defined __ARMVFP__
 116:./cmsis/core/core_cm4.h ****     #if (__FPU_PRESENT == 1)
 117:./cmsis/core/core_cm4.h ****       #define __FPU_USED       1
 118:./cmsis/core/core_cm4.h ****     #else
 119:./cmsis/core/core_cm4.h ****       #warning "Compiler generates FPU instructions for a device without an FPU (check __FPU_PRESEN
 120:./cmsis/core/core_cm4.h ****       #define __FPU_USED       0
 121:./cmsis/core/core_cm4.h ****     #endif
 122:./cmsis/core/core_cm4.h ****   #else
 123:./cmsis/core/core_cm4.h ****     #define __FPU_USED         0
 124:./cmsis/core/core_cm4.h ****   #endif
 125:./cmsis/core/core_cm4.h **** 
ARM GAS  C:\Users\CNous\AppData\Local\Temp\ccmZfnu5.s 			page 26


 126:./cmsis/core/core_cm4.h **** #elif defined ( __GNUC__ )
 127:./cmsis/core/core_cm4.h ****   #if defined (__VFP_FP__) && !defined(__SOFTFP__)
 128:./cmsis/core/core_cm4.h ****     #if (__FPU_PRESENT == 1)
 129:./cmsis/core/core_cm4.h ****       #define __FPU_USED       1
 130:./cmsis/core/core_cm4.h ****     #else
 131:./cmsis/core/core_cm4.h ****       #warning "Compiler generates FPU instructions for a device without an FPU (check __FPU_PRESEN
 132:./cmsis/core/core_cm4.h ****       #define __FPU_USED       0
 133:./cmsis/core/core_cm4.h ****     #endif
 134:./cmsis/core/core_cm4.h ****   #else
 135:./cmsis/core/core_cm4.h ****     #define __FPU_USED         0
 136:./cmsis/core/core_cm4.h ****   #endif
 137:./cmsis/core/core_cm4.h **** 
 138:./cmsis/core/core_cm4.h **** #elif defined ( __TASKING__ )
 139:./cmsis/core/core_cm4.h ****     /* add preprocessor checks to define __FPU_USED */
 140:./cmsis/core/core_cm4.h ****     #define __FPU_USED         0
 141:./cmsis/core/core_cm4.h **** #endif
 142:./cmsis/core/core_cm4.h **** 
 143:./cmsis/core/core_cm4.h **** #include <stdint.h>                      /*!< standard types definitions                      */
 144:./cmsis/core/core_cm4.h **** #include <core_cmInstr.h>                /*!< Core Instruction Access                         */
 145:./cmsis/core/core_cm4.h **** #include <core_cmFunc.h>                 /*!< Core Function Access                            */
 146:./cmsis/core/core_cm4.h **** #include <core_cm4_simd.h>               /*!< Compiler specific SIMD Intrinsics               */
 147:./cmsis/core/core_cm4.h **** 
 148:./cmsis/core/core_cm4.h **** #endif /* __CORE_CM4_H_GENERIC */
 149:./cmsis/core/core_cm4.h **** 
 150:./cmsis/core/core_cm4.h **** #ifndef __CMSIS_GENERIC
 151:./cmsis/core/core_cm4.h **** 
 152:./cmsis/core/core_cm4.h **** #ifndef __CORE_CM4_H_DEPENDANT
 153:./cmsis/core/core_cm4.h **** #define __CORE_CM4_H_DEPENDANT
 154:./cmsis/core/core_cm4.h **** 
 155:./cmsis/core/core_cm4.h **** /* check device defines and use defaults */
 156:./cmsis/core/core_cm4.h **** #if defined __CHECK_DEVICE_DEFINES
 157:./cmsis/core/core_cm4.h ****   #ifndef __CM4_REV
 158:./cmsis/core/core_cm4.h ****     #define __CM4_REV               0x0000
 159:./cmsis/core/core_cm4.h ****     #warning "__CM4_REV not defined in device header file; using default!"
 160:./cmsis/core/core_cm4.h ****   #endif
 161:./cmsis/core/core_cm4.h **** 
 162:./cmsis/core/core_cm4.h ****   #ifndef __FPU_PRESENT
 163:./cmsis/core/core_cm4.h ****     #define __FPU_PRESENT             0
 164:./cmsis/core/core_cm4.h ****     #warning "__FPU_PRESENT not defined in device header file; using default!"
 165:./cmsis/core/core_cm4.h ****   #endif
 166:./cmsis/core/core_cm4.h **** 
 167:./cmsis/core/core_cm4.h ****   #ifndef __MPU_PRESENT
 168:./cmsis/core/core_cm4.h ****     #define __MPU_PRESENT             0
 169:./cmsis/core/core_cm4.h ****     #warning "__MPU_PRESENT not defined in device header file; using default!"
 170:./cmsis/core/core_cm4.h ****   #endif
 171:./cmsis/core/core_cm4.h **** 
 172:./cmsis/core/core_cm4.h ****   #ifndef __NVIC_PRIO_BITS
 173:./cmsis/core/core_cm4.h ****     #define __NVIC_PRIO_BITS          4
 174:./cmsis/core/core_cm4.h ****     #warning "__NVIC_PRIO_BITS not defined in device header file; using default!"
 175:./cmsis/core/core_cm4.h ****   #endif
 176:./cmsis/core/core_cm4.h **** 
 177:./cmsis/core/core_cm4.h ****   #ifndef __Vendor_SysTickConfig
 178:./cmsis/core/core_cm4.h ****     #define __Vendor_SysTickConfig    0
 179:./cmsis/core/core_cm4.h ****     #warning "__Vendor_SysTickConfig not defined in device header file; using default!"
 180:./cmsis/core/core_cm4.h ****   #endif
 181:./cmsis/core/core_cm4.h **** #endif
 182:./cmsis/core/core_cm4.h **** 
ARM GAS  C:\Users\CNous\AppData\Local\Temp\ccmZfnu5.s 			page 27


 183:./cmsis/core/core_cm4.h **** /* IO definitions (access restrictions to peripheral registers) */
 184:./cmsis/core/core_cm4.h **** #ifdef __cplusplus
 185:./cmsis/core/core_cm4.h ****   #define   __I     volatile             /*!< defines 'read only' permissions                 */
 186:./cmsis/core/core_cm4.h **** #else
 187:./cmsis/core/core_cm4.h ****   #define   __I     volatile const       /*!< defines 'read only' permissions                 */
 188:./cmsis/core/core_cm4.h **** #endif
 189:./cmsis/core/core_cm4.h **** #define     __O     volatile             /*!< defines 'write only' permissions                */
 190:./cmsis/core/core_cm4.h **** #define     __IO    volatile             /*!< defines 'read / write' permissions              */
 191:./cmsis/core/core_cm4.h **** 
 192:./cmsis/core/core_cm4.h **** /*@} end of group CMSIS_core_definitions */
 193:./cmsis/core/core_cm4.h **** 
 194:./cmsis/core/core_cm4.h **** 
 195:./cmsis/core/core_cm4.h **** 
 196:./cmsis/core/core_cm4.h **** /*******************************************************************************
 197:./cmsis/core/core_cm4.h ****  *                 Register Abstraction
 198:./cmsis/core/core_cm4.h ****  ******************************************************************************/
 199:./cmsis/core/core_cm4.h **** /** \defgroup CMSIS_core_register CMSIS Core Register
 200:./cmsis/core/core_cm4.h ****   Core Register contain:
 201:./cmsis/core/core_cm4.h ****   - Core Register
 202:./cmsis/core/core_cm4.h ****   - Core NVIC Register
 203:./cmsis/core/core_cm4.h ****   - Core SCB Register
 204:./cmsis/core/core_cm4.h ****   - Core SysTick Register
 205:./cmsis/core/core_cm4.h ****   - Core Debug Register
 206:./cmsis/core/core_cm4.h ****   - Core MPU Register
 207:./cmsis/core/core_cm4.h ****   - Core FPU Register
 208:./cmsis/core/core_cm4.h **** */
 209:./cmsis/core/core_cm4.h **** 
 210:./cmsis/core/core_cm4.h **** /** \ingroup  CMSIS_core_register
 211:./cmsis/core/core_cm4.h ****     \defgroup CMSIS_CORE CMSIS Core
 212:./cmsis/core/core_cm4.h ****   Type definitions for the Cortex-M Core Registers
 213:./cmsis/core/core_cm4.h ****   @{
 214:./cmsis/core/core_cm4.h ****  */
 215:./cmsis/core/core_cm4.h **** 
 216:./cmsis/core/core_cm4.h **** /** \brief  Union type to access the Application Program Status Register (APSR).
 217:./cmsis/core/core_cm4.h ****  */
 218:./cmsis/core/core_cm4.h **** typedef union
 219:./cmsis/core/core_cm4.h **** {
 220:./cmsis/core/core_cm4.h ****   struct
 221:./cmsis/core/core_cm4.h ****   {
 222:./cmsis/core/core_cm4.h **** #if (__CORTEX_M != 0x04)
 223:./cmsis/core/core_cm4.h ****     uint32_t _reserved0:27;              /*!< bit:  0..26  Reserved                           */
 224:./cmsis/core/core_cm4.h **** #else
 225:./cmsis/core/core_cm4.h ****     uint32_t _reserved0:16;              /*!< bit:  0..15  Reserved                           */
 226:./cmsis/core/core_cm4.h ****     uint32_t GE:4;                       /*!< bit: 16..19  Greater than or Equal flags        */
 227:./cmsis/core/core_cm4.h ****     uint32_t _reserved1:7;               /*!< bit: 20..26  Reserved                           */
 228:./cmsis/core/core_cm4.h **** #endif
 229:./cmsis/core/core_cm4.h ****     uint32_t Q:1;                        /*!< bit:     27  Saturation condition flag          */
 230:./cmsis/core/core_cm4.h ****     uint32_t V:1;                        /*!< bit:     28  Overflow condition code flag       */
 231:./cmsis/core/core_cm4.h ****     uint32_t C:1;                        /*!< bit:     29  Carry condition code flag          */
 232:./cmsis/core/core_cm4.h ****     uint32_t Z:1;                        /*!< bit:     30  Zero condition code flag           */
 233:./cmsis/core/core_cm4.h ****     uint32_t N:1;                        /*!< bit:     31  Negative condition code flag       */
 234:./cmsis/core/core_cm4.h ****   } b;                                   /*!< Structure used for bit  access                  */
 235:./cmsis/core/core_cm4.h ****   uint32_t w;                            /*!< Type      used for word access                  */
 236:./cmsis/core/core_cm4.h **** } APSR_Type;
 237:./cmsis/core/core_cm4.h **** 
 238:./cmsis/core/core_cm4.h **** 
 239:./cmsis/core/core_cm4.h **** /** \brief  Union type to access the Interrupt Program Status Register (IPSR).
ARM GAS  C:\Users\CNous\AppData\Local\Temp\ccmZfnu5.s 			page 28


 240:./cmsis/core/core_cm4.h ****  */
 241:./cmsis/core/core_cm4.h **** typedef union
 242:./cmsis/core/core_cm4.h **** {
 243:./cmsis/core/core_cm4.h ****   struct
 244:./cmsis/core/core_cm4.h ****   {
 245:./cmsis/core/core_cm4.h ****     uint32_t ISR:9;                      /*!< bit:  0.. 8  Exception number                   */
 246:./cmsis/core/core_cm4.h ****     uint32_t _reserved0:23;              /*!< bit:  9..31  Reserved                           */
 247:./cmsis/core/core_cm4.h ****   } b;                                   /*!< Structure used for bit  access                  */
 248:./cmsis/core/core_cm4.h ****   uint32_t w;                            /*!< Type      used for word access                  */
 249:./cmsis/core/core_cm4.h **** } IPSR_Type;
 250:./cmsis/core/core_cm4.h **** 
 251:./cmsis/core/core_cm4.h **** 
 252:./cmsis/core/core_cm4.h **** /** \brief  Union type to access the Special-Purpose Program Status Registers (xPSR).
 253:./cmsis/core/core_cm4.h ****  */
 254:./cmsis/core/core_cm4.h **** typedef union
 255:./cmsis/core/core_cm4.h **** {
 256:./cmsis/core/core_cm4.h ****   struct
 257:./cmsis/core/core_cm4.h ****   {
 258:./cmsis/core/core_cm4.h ****     uint32_t ISR:9;                      /*!< bit:  0.. 8  Exception number                   */
 259:./cmsis/core/core_cm4.h **** #if (__CORTEX_M != 0x04)
 260:./cmsis/core/core_cm4.h ****     uint32_t _reserved0:15;              /*!< bit:  9..23  Reserved                           */
 261:./cmsis/core/core_cm4.h **** #else
 262:./cmsis/core/core_cm4.h ****     uint32_t _reserved0:7;               /*!< bit:  9..15  Reserved                           */
 263:./cmsis/core/core_cm4.h ****     uint32_t GE:4;                       /*!< bit: 16..19  Greater than or Equal flags        */
 264:./cmsis/core/core_cm4.h ****     uint32_t _reserved1:4;               /*!< bit: 20..23  Reserved                           */
 265:./cmsis/core/core_cm4.h **** #endif
 266:./cmsis/core/core_cm4.h ****     uint32_t T:1;                        /*!< bit:     24  Thumb bit        (read 0)          */
 267:./cmsis/core/core_cm4.h ****     uint32_t IT:2;                       /*!< bit: 25..26  saved IT state   (read 0)          */
 268:./cmsis/core/core_cm4.h ****     uint32_t Q:1;                        /*!< bit:     27  Saturation condition flag          */
 269:./cmsis/core/core_cm4.h ****     uint32_t V:1;                        /*!< bit:     28  Overflow condition code flag       */
 270:./cmsis/core/core_cm4.h ****     uint32_t C:1;                        /*!< bit:     29  Carry condition code flag          */
 271:./cmsis/core/core_cm4.h ****     uint32_t Z:1;                        /*!< bit:     30  Zero condition code flag           */
 272:./cmsis/core/core_cm4.h ****     uint32_t N:1;                        /*!< bit:     31  Negative condition code flag       */
 273:./cmsis/core/core_cm4.h ****   } b;                                   /*!< Structure used for bit  access                  */
 274:./cmsis/core/core_cm4.h ****   uint32_t w;                            /*!< Type      used for word access                  */
 275:./cmsis/core/core_cm4.h **** } xPSR_Type;
 276:./cmsis/core/core_cm4.h **** 
 277:./cmsis/core/core_cm4.h **** 
 278:./cmsis/core/core_cm4.h **** /** \brief  Union type to access the Control Registers (CONTROL).
 279:./cmsis/core/core_cm4.h ****  */
 280:./cmsis/core/core_cm4.h **** typedef union
 281:./cmsis/core/core_cm4.h **** {
 282:./cmsis/core/core_cm4.h ****   struct
 283:./cmsis/core/core_cm4.h ****   {
 284:./cmsis/core/core_cm4.h ****     uint32_t nPRIV:1;                    /*!< bit:      0  Execution privilege in Thread mode */
 285:./cmsis/core/core_cm4.h ****     uint32_t SPSEL:1;                    /*!< bit:      1  Stack to be used                   */
 286:./cmsis/core/core_cm4.h ****     uint32_t FPCA:1;                     /*!< bit:      2  FP extension active flag           */
 287:./cmsis/core/core_cm4.h ****     uint32_t _reserved0:29;              /*!< bit:  3..31  Reserved                           */
 288:./cmsis/core/core_cm4.h ****   } b;                                   /*!< Structure used for bit  access                  */
 289:./cmsis/core/core_cm4.h ****   uint32_t w;                            /*!< Type      used for word access                  */
 290:./cmsis/core/core_cm4.h **** } CONTROL_Type;
 291:./cmsis/core/core_cm4.h **** 
 292:./cmsis/core/core_cm4.h **** /*@} end of group CMSIS_CORE */
 293:./cmsis/core/core_cm4.h **** 
 294:./cmsis/core/core_cm4.h **** 
 295:./cmsis/core/core_cm4.h **** /** \ingroup  CMSIS_core_register
 296:./cmsis/core/core_cm4.h ****     \defgroup CMSIS_NVIC CMSIS NVIC
ARM GAS  C:\Users\CNous\AppData\Local\Temp\ccmZfnu5.s 			page 29


 297:./cmsis/core/core_cm4.h ****   Type definitions for the Cortex-M NVIC Registers
 298:./cmsis/core/core_cm4.h ****   @{
 299:./cmsis/core/core_cm4.h ****  */
 300:./cmsis/core/core_cm4.h **** 
 301:./cmsis/core/core_cm4.h **** /** \brief  Structure type to access the Nested Vectored Interrupt Controller (NVIC).
 302:./cmsis/core/core_cm4.h ****  */
 303:./cmsis/core/core_cm4.h **** typedef struct
 304:./cmsis/core/core_cm4.h **** {
 305:./cmsis/core/core_cm4.h ****   __IO uint32_t ISER[8];                 /*!< Offset: 0x000 (R/W)  Interrupt Set Enable Register   
 306:./cmsis/core/core_cm4.h ****        uint32_t RESERVED0[24];
 307:./cmsis/core/core_cm4.h ****   __IO uint32_t ICER[8];                 /*!< Offset: 0x080 (R/W)  Interrupt Clear Enable Register 
 308:./cmsis/core/core_cm4.h ****        uint32_t RSERVED1[24];
 309:./cmsis/core/core_cm4.h ****   __IO uint32_t ISPR[8];                 /*!< Offset: 0x100 (R/W)  Interrupt Set Pending Register  
 310:./cmsis/core/core_cm4.h ****        uint32_t RESERVED2[24];
 311:./cmsis/core/core_cm4.h ****   __IO uint32_t ICPR[8];                 /*!< Offset: 0x180 (R/W)  Interrupt Clear Pending Register
 312:./cmsis/core/core_cm4.h ****        uint32_t RESERVED3[24];
 313:./cmsis/core/core_cm4.h ****   __IO uint32_t IABR[8];                 /*!< Offset: 0x200 (R/W)  Interrupt Active bit Register   
 314:./cmsis/core/core_cm4.h ****        uint32_t RESERVED4[56];
 315:./cmsis/core/core_cm4.h ****   __IO uint8_t  IP[240];                 /*!< Offset: 0x300 (R/W)  Interrupt Priority Register (8Bi
 316:./cmsis/core/core_cm4.h ****        uint32_t RESERVED5[644];
 317:./cmsis/core/core_cm4.h ****   __O  uint32_t STIR;                    /*!< Offset: 0xE00 ( /W)  Software Trigger Interrupt Regis
 318:./cmsis/core/core_cm4.h **** }  NVIC_Type;
 319:./cmsis/core/core_cm4.h **** 
 320:./cmsis/core/core_cm4.h **** /* Software Triggered Interrupt Register Definitions */
 321:./cmsis/core/core_cm4.h **** #define NVIC_STIR_INTID_Pos                 0                                          /*!< STIR: I
 322:./cmsis/core/core_cm4.h **** #define NVIC_STIR_INTID_Msk                (0x1FFUL << NVIC_STIR_INTID_Pos)            /*!< STIR: I
 323:./cmsis/core/core_cm4.h **** 
 324:./cmsis/core/core_cm4.h **** /*@} end of group CMSIS_NVIC */
 325:./cmsis/core/core_cm4.h **** 
 326:./cmsis/core/core_cm4.h **** 
 327:./cmsis/core/core_cm4.h **** /** \ingroup  CMSIS_core_register
 328:./cmsis/core/core_cm4.h ****     \defgroup CMSIS_SCB CMSIS SCB
 329:./cmsis/core/core_cm4.h ****   Type definitions for the Cortex-M System Control Block Registers
 330:./cmsis/core/core_cm4.h ****   @{
 331:./cmsis/core/core_cm4.h ****  */
 332:./cmsis/core/core_cm4.h **** 
 333:./cmsis/core/core_cm4.h **** /** \brief  Structure type to access the System Control Block (SCB).
 334:./cmsis/core/core_cm4.h ****  */
 335:./cmsis/core/core_cm4.h **** typedef struct
 336:./cmsis/core/core_cm4.h **** {
 337:./cmsis/core/core_cm4.h ****   __I  uint32_t CPUID;                   /*!< Offset: 0x000 (R/ )  CPUID Base Register             
 338:./cmsis/core/core_cm4.h ****   __IO uint32_t ICSR;                    /*!< Offset: 0x004 (R/W)  Interrupt Control and State Regi
 339:./cmsis/core/core_cm4.h ****   __IO uint32_t VTOR;                    /*!< Offset: 0x008 (R/W)  Vector Table Offset Register    
 340:./cmsis/core/core_cm4.h ****   __IO uint32_t AIRCR;                   /*!< Offset: 0x00C (R/W)  Application Interrupt and Reset 
 341:./cmsis/core/core_cm4.h ****   __IO uint32_t SCR;                     /*!< Offset: 0x010 (R/W)  System Control Register         
 342:./cmsis/core/core_cm4.h ****   __IO uint32_t CCR;                     /*!< Offset: 0x014 (R/W)  Configuration Control Register  
 343:./cmsis/core/core_cm4.h ****   __IO uint8_t  SHP[12];                 /*!< Offset: 0x018 (R/W)  System Handlers Priority Registe
 344:./cmsis/core/core_cm4.h ****   __IO uint32_t SHCSR;                   /*!< Offset: 0x024 (R/W)  System Handler Control and State
 345:./cmsis/core/core_cm4.h ****   __IO uint32_t CFSR;                    /*!< Offset: 0x028 (R/W)  Configurable Fault Status Regist
 346:./cmsis/core/core_cm4.h ****   __IO uint32_t HFSR;                    /*!< Offset: 0x02C (R/W)  HardFault Status Register       
 347:./cmsis/core/core_cm4.h ****   __IO uint32_t DFSR;                    /*!< Offset: 0x030 (R/W)  Debug Fault Status Register     
 348:./cmsis/core/core_cm4.h ****   __IO uint32_t MMFAR;                   /*!< Offset: 0x034 (R/W)  MemManage Fault Address Register
 349:./cmsis/core/core_cm4.h ****   __IO uint32_t BFAR;                    /*!< Offset: 0x038 (R/W)  BusFault Address Register       
 350:./cmsis/core/core_cm4.h ****   __IO uint32_t AFSR;                    /*!< Offset: 0x03C (R/W)  Auxiliary Fault Status Register 
 351:./cmsis/core/core_cm4.h ****   __I  uint32_t PFR[2];                  /*!< Offset: 0x040 (R/ )  Processor Feature Register      
 352:./cmsis/core/core_cm4.h ****   __I  uint32_t DFR;                     /*!< Offset: 0x048 (R/ )  Debug Feature Register          
 353:./cmsis/core/core_cm4.h ****   __I  uint32_t ADR;                     /*!< Offset: 0x04C (R/ )  Auxiliary Feature Register      
ARM GAS  C:\Users\CNous\AppData\Local\Temp\ccmZfnu5.s 			page 30


 354:./cmsis/core/core_cm4.h ****   __I  uint32_t MMFR[4];                 /*!< Offset: 0x050 (R/ )  Memory Model Feature Register   
 355:./cmsis/core/core_cm4.h ****   __I  uint32_t ISAR[5];                 /*!< Offset: 0x060 (R/ )  Instruction Set Attributes Regis
 356:./cmsis/core/core_cm4.h ****        uint32_t RESERVED0[5];
 357:./cmsis/core/core_cm4.h ****   __IO uint32_t CPACR;                   /*!< Offset: 0x088 (R/W)  Coprocessor Access Control Regis
 358:./cmsis/core/core_cm4.h **** } SCB_Type;
 359:./cmsis/core/core_cm4.h **** 
 360:./cmsis/core/core_cm4.h **** /* SCB CPUID Register Definitions */
 361:./cmsis/core/core_cm4.h **** #define SCB_CPUID_IMPLEMENTER_Pos          24                                             /*!< SCB 
 362:./cmsis/core/core_cm4.h **** #define SCB_CPUID_IMPLEMENTER_Msk          (0xFFUL << SCB_CPUID_IMPLEMENTER_Pos)          /*!< SCB 
 363:./cmsis/core/core_cm4.h **** 
 364:./cmsis/core/core_cm4.h **** #define SCB_CPUID_VARIANT_Pos              20                                             /*!< SCB 
 365:./cmsis/core/core_cm4.h **** #define SCB_CPUID_VARIANT_Msk              (0xFUL << SCB_CPUID_VARIANT_Pos)               /*!< SCB 
 366:./cmsis/core/core_cm4.h **** 
 367:./cmsis/core/core_cm4.h **** #define SCB_CPUID_ARCHITECTURE_Pos         16                                             /*!< SCB 
 368:./cmsis/core/core_cm4.h **** #define SCB_CPUID_ARCHITECTURE_Msk         (0xFUL << SCB_CPUID_ARCHITECTURE_Pos)          /*!< SCB 
 369:./cmsis/core/core_cm4.h **** 
 370:./cmsis/core/core_cm4.h **** #define SCB_CPUID_PARTNO_Pos                4                                             /*!< SCB 
 371:./cmsis/core/core_cm4.h **** #define SCB_CPUID_PARTNO_Msk               (0xFFFUL << SCB_CPUID_PARTNO_Pos)              /*!< SCB 
 372:./cmsis/core/core_cm4.h **** 
 373:./cmsis/core/core_cm4.h **** #define SCB_CPUID_REVISION_Pos              0                                             /*!< SCB 
 374:./cmsis/core/core_cm4.h **** #define SCB_CPUID_REVISION_Msk             (0xFUL << SCB_CPUID_REVISION_Pos)              /*!< SCB 
 375:./cmsis/core/core_cm4.h **** 
 376:./cmsis/core/core_cm4.h **** /* SCB Interrupt Control State Register Definitions */
 377:./cmsis/core/core_cm4.h **** #define SCB_ICSR_NMIPENDSET_Pos            31                                             /*!< SCB 
 378:./cmsis/core/core_cm4.h **** #define SCB_ICSR_NMIPENDSET_Msk            (1UL << SCB_ICSR_NMIPENDSET_Pos)               /*!< SCB 
 379:./cmsis/core/core_cm4.h **** 
 380:./cmsis/core/core_cm4.h **** #define SCB_ICSR_PENDSVSET_Pos             28                                             /*!< SCB 
 381:./cmsis/core/core_cm4.h **** #define SCB_ICSR_PENDSVSET_Msk             (1UL << SCB_ICSR_PENDSVSET_Pos)                /*!< SCB 
 382:./cmsis/core/core_cm4.h **** 
 383:./cmsis/core/core_cm4.h **** #define SCB_ICSR_PENDSVCLR_Pos             27                                             /*!< SCB 
 384:./cmsis/core/core_cm4.h **** #define SCB_ICSR_PENDSVCLR_Msk             (1UL << SCB_ICSR_PENDSVCLR_Pos)                /*!< SCB 
 385:./cmsis/core/core_cm4.h **** 
 386:./cmsis/core/core_cm4.h **** #define SCB_ICSR_PENDSTSET_Pos             26                                             /*!< SCB 
 387:./cmsis/core/core_cm4.h **** #define SCB_ICSR_PENDSTSET_Msk             (1UL << SCB_ICSR_PENDSTSET_Pos)                /*!< SCB 
 388:./cmsis/core/core_cm4.h **** 
 389:./cmsis/core/core_cm4.h **** #define SCB_ICSR_PENDSTCLR_Pos             25                                             /*!< SCB 
 390:./cmsis/core/core_cm4.h **** #define SCB_ICSR_PENDSTCLR_Msk             (1UL << SCB_ICSR_PENDSTCLR_Pos)                /*!< SCB 
 391:./cmsis/core/core_cm4.h **** 
 392:./cmsis/core/core_cm4.h **** #define SCB_ICSR_ISRPREEMPT_Pos            23                                             /*!< SCB 
 393:./cmsis/core/core_cm4.h **** #define SCB_ICSR_ISRPREEMPT_Msk            (1UL << SCB_ICSR_ISRPREEMPT_Pos)               /*!< SCB 
 394:./cmsis/core/core_cm4.h **** 
 395:./cmsis/core/core_cm4.h **** #define SCB_ICSR_ISRPENDING_Pos            22                                             /*!< SCB 
 396:./cmsis/core/core_cm4.h **** #define SCB_ICSR_ISRPENDING_Msk            (1UL << SCB_ICSR_ISRPENDING_Pos)               /*!< SCB 
 397:./cmsis/core/core_cm4.h **** 
 398:./cmsis/core/core_cm4.h **** #define SCB_ICSR_VECTPENDING_Pos           12                                             /*!< SCB 
 399:./cmsis/core/core_cm4.h **** #define SCB_ICSR_VECTPENDING_Msk           (0x1FFUL << SCB_ICSR_VECTPENDING_Pos)          /*!< SCB 
 400:./cmsis/core/core_cm4.h **** 
 401:./cmsis/core/core_cm4.h **** #define SCB_ICSR_RETTOBASE_Pos             11                                             /*!< SCB 
 402:./cmsis/core/core_cm4.h **** #define SCB_ICSR_RETTOBASE_Msk             (1UL << SCB_ICSR_RETTOBASE_Pos)                /*!< SCB 
 403:./cmsis/core/core_cm4.h **** 
 404:./cmsis/core/core_cm4.h **** #define SCB_ICSR_VECTACTIVE_Pos             0                                             /*!< SCB 
 405:./cmsis/core/core_cm4.h **** #define SCB_ICSR_VECTACTIVE_Msk            (0x1FFUL << SCB_ICSR_VECTACTIVE_Pos)           /*!< SCB 
 406:./cmsis/core/core_cm4.h **** 
 407:./cmsis/core/core_cm4.h **** /* SCB Vector Table Offset Register Definitions */
 408:./cmsis/core/core_cm4.h **** #define SCB_VTOR_TBLOFF_Pos                 7                                             /*!< SCB 
 409:./cmsis/core/core_cm4.h **** #define SCB_VTOR_TBLOFF_Msk                (0x1FFFFFFUL << SCB_VTOR_TBLOFF_Pos)           /*!< SCB 
 410:./cmsis/core/core_cm4.h **** 
ARM GAS  C:\Users\CNous\AppData\Local\Temp\ccmZfnu5.s 			page 31


 411:./cmsis/core/core_cm4.h **** /* SCB Application Interrupt and Reset Control Register Definitions */
 412:./cmsis/core/core_cm4.h **** #define SCB_AIRCR_VECTKEY_Pos              16                                             /*!< SCB 
 413:./cmsis/core/core_cm4.h **** #define SCB_AIRCR_VECTKEY_Msk              (0xFFFFUL << SCB_AIRCR_VECTKEY_Pos)            /*!< SCB 
 414:./cmsis/core/core_cm4.h **** 
 415:./cmsis/core/core_cm4.h **** #define SCB_AIRCR_VECTKEYSTAT_Pos          16                                             /*!< SCB 
 416:./cmsis/core/core_cm4.h **** #define SCB_AIRCR_VECTKEYSTAT_Msk          (0xFFFFUL << SCB_AIRCR_VECTKEYSTAT_Pos)        /*!< SCB 
 417:./cmsis/core/core_cm4.h **** 
 418:./cmsis/core/core_cm4.h **** #define SCB_AIRCR_ENDIANESS_Pos            15                                             /*!< SCB 
 419:./cmsis/core/core_cm4.h **** #define SCB_AIRCR_ENDIANESS_Msk            (1UL << SCB_AIRCR_ENDIANESS_Pos)               /*!< SCB 
 420:./cmsis/core/core_cm4.h **** 
 421:./cmsis/core/core_cm4.h **** #define SCB_AIRCR_PRIGROUP_Pos              8                                             /*!< SCB 
 422:./cmsis/core/core_cm4.h **** #define SCB_AIRCR_PRIGROUP_Msk             (7UL << SCB_AIRCR_PRIGROUP_Pos)                /*!< SCB 
 423:./cmsis/core/core_cm4.h **** 
 424:./cmsis/core/core_cm4.h **** #define SCB_AIRCR_SYSRESETREQ_Pos           2                                             /*!< SCB 
 425:./cmsis/core/core_cm4.h **** #define SCB_AIRCR_SYSRESETREQ_Msk          (1UL << SCB_AIRCR_SYSRESETREQ_Pos)             /*!< SCB 
 426:./cmsis/core/core_cm4.h **** 
 427:./cmsis/core/core_cm4.h **** #define SCB_AIRCR_VECTCLRACTIVE_Pos         1                                             /*!< SCB 
 428:./cmsis/core/core_cm4.h **** #define SCB_AIRCR_VECTCLRACTIVE_Msk        (1UL << SCB_AIRCR_VECTCLRACTIVE_Pos)           /*!< SCB 
 429:./cmsis/core/core_cm4.h **** 
 430:./cmsis/core/core_cm4.h **** #define SCB_AIRCR_VECTRESET_Pos             0                                             /*!< SCB 
 431:./cmsis/core/core_cm4.h **** #define SCB_AIRCR_VECTRESET_Msk            (1UL << SCB_AIRCR_VECTRESET_Pos)               /*!< SCB 
 432:./cmsis/core/core_cm4.h **** 
 433:./cmsis/core/core_cm4.h **** /* SCB System Control Register Definitions */
 434:./cmsis/core/core_cm4.h **** #define SCB_SCR_SEVONPEND_Pos               4                                             /*!< SCB 
 435:./cmsis/core/core_cm4.h **** #define SCB_SCR_SEVONPEND_Msk              (1UL << SCB_SCR_SEVONPEND_Pos)                 /*!< SCB 
 436:./cmsis/core/core_cm4.h **** 
 437:./cmsis/core/core_cm4.h **** #define SCB_SCR_SLEEPDEEP_Pos               2                                             /*!< SCB 
 438:./cmsis/core/core_cm4.h **** #define SCB_SCR_SLEEPDEEP_Msk              (1UL << SCB_SCR_SLEEPDEEP_Pos)                 /*!< SCB 
 439:./cmsis/core/core_cm4.h **** 
 440:./cmsis/core/core_cm4.h **** #define SCB_SCR_SLEEPONEXIT_Pos             1                                             /*!< SCB 
 441:./cmsis/core/core_cm4.h **** #define SCB_SCR_SLEEPONEXIT_Msk            (1UL << SCB_SCR_SLEEPONEXIT_Pos)               /*!< SCB 
 442:./cmsis/core/core_cm4.h **** 
 443:./cmsis/core/core_cm4.h **** /* SCB Configuration Control Register Definitions */
 444:./cmsis/core/core_cm4.h **** #define SCB_CCR_STKALIGN_Pos                9                                             /*!< SCB 
 445:./cmsis/core/core_cm4.h **** #define SCB_CCR_STKALIGN_Msk               (1UL << SCB_CCR_STKALIGN_Pos)                  /*!< SCB 
 446:./cmsis/core/core_cm4.h **** 
 447:./cmsis/core/core_cm4.h **** #define SCB_CCR_BFHFNMIGN_Pos               8                                             /*!< SCB 
 448:./cmsis/core/core_cm4.h **** #define SCB_CCR_BFHFNMIGN_Msk              (1UL << SCB_CCR_BFHFNMIGN_Pos)                 /*!< SCB 
 449:./cmsis/core/core_cm4.h **** 
 450:./cmsis/core/core_cm4.h **** #define SCB_CCR_DIV_0_TRP_Pos               4                                             /*!< SCB 
 451:./cmsis/core/core_cm4.h **** #define SCB_CCR_DIV_0_TRP_Msk              (1UL << SCB_CCR_DIV_0_TRP_Pos)                 /*!< SCB 
 452:./cmsis/core/core_cm4.h **** 
 453:./cmsis/core/core_cm4.h **** #define SCB_CCR_UNALIGN_TRP_Pos             3                                             /*!< SCB 
 454:./cmsis/core/core_cm4.h **** #define SCB_CCR_UNALIGN_TRP_Msk            (1UL << SCB_CCR_UNALIGN_TRP_Pos)               /*!< SCB 
 455:./cmsis/core/core_cm4.h **** 
 456:./cmsis/core/core_cm4.h **** #define SCB_CCR_USERSETMPEND_Pos            1                                             /*!< SCB 
 457:./cmsis/core/core_cm4.h **** #define SCB_CCR_USERSETMPEND_Msk           (1UL << SCB_CCR_USERSETMPEND_Pos)              /*!< SCB 
 458:./cmsis/core/core_cm4.h **** 
 459:./cmsis/core/core_cm4.h **** #define SCB_CCR_NONBASETHRDENA_Pos          0                                             /*!< SCB 
 460:./cmsis/core/core_cm4.h **** #define SCB_CCR_NONBASETHRDENA_Msk         (1UL << SCB_CCR_NONBASETHRDENA_Pos)            /*!< SCB 
 461:./cmsis/core/core_cm4.h **** 
 462:./cmsis/core/core_cm4.h **** /* SCB System Handler Control and State Register Definitions */
 463:./cmsis/core/core_cm4.h **** #define SCB_SHCSR_USGFAULTENA_Pos          18                                             /*!< SCB 
 464:./cmsis/core/core_cm4.h **** #define SCB_SHCSR_USGFAULTENA_Msk          (1UL << SCB_SHCSR_USGFAULTENA_Pos)             /*!< SCB 
 465:./cmsis/core/core_cm4.h **** 
 466:./cmsis/core/core_cm4.h **** #define SCB_SHCSR_BUSFAULTENA_Pos          17                                             /*!< SCB 
 467:./cmsis/core/core_cm4.h **** #define SCB_SHCSR_BUSFAULTENA_Msk          (1UL << SCB_SHCSR_BUSFAULTENA_Pos)             /*!< SCB 
ARM GAS  C:\Users\CNous\AppData\Local\Temp\ccmZfnu5.s 			page 32


 468:./cmsis/core/core_cm4.h **** 
 469:./cmsis/core/core_cm4.h **** #define SCB_SHCSR_MEMFAULTENA_Pos          16                                             /*!< SCB 
 470:./cmsis/core/core_cm4.h **** #define SCB_SHCSR_MEMFAULTENA_Msk          (1UL << SCB_SHCSR_MEMFAULTENA_Pos)             /*!< SCB 
 471:./cmsis/core/core_cm4.h **** 
 472:./cmsis/core/core_cm4.h **** #define SCB_SHCSR_SVCALLPENDED_Pos         15                                             /*!< SCB 
 473:./cmsis/core/core_cm4.h **** #define SCB_SHCSR_SVCALLPENDED_Msk         (1UL << SCB_SHCSR_SVCALLPENDED_Pos)            /*!< SCB 
 474:./cmsis/core/core_cm4.h **** 
 475:./cmsis/core/core_cm4.h **** #define SCB_SHCSR_BUSFAULTPENDED_Pos       14                                             /*!< SCB 
 476:./cmsis/core/core_cm4.h **** #define SCB_SHCSR_BUSFAULTPENDED_Msk       (1UL << SCB_SHCSR_BUSFAULTPENDED_Pos)          /*!< SCB 
 477:./cmsis/core/core_cm4.h **** 
 478:./cmsis/core/core_cm4.h **** #define SCB_SHCSR_MEMFAULTPENDED_Pos       13                                             /*!< SCB 
 479:./cmsis/core/core_cm4.h **** #define SCB_SHCSR_MEMFAULTPENDED_Msk       (1UL << SCB_SHCSR_MEMFAULTPENDED_Pos)          /*!< SCB 
 480:./cmsis/core/core_cm4.h **** 
 481:./cmsis/core/core_cm4.h **** #define SCB_SHCSR_USGFAULTPENDED_Pos       12                                             /*!< SCB 
 482:./cmsis/core/core_cm4.h **** #define SCB_SHCSR_USGFAULTPENDED_Msk       (1UL << SCB_SHCSR_USGFAULTPENDED_Pos)          /*!< SCB 
 483:./cmsis/core/core_cm4.h **** 
 484:./cmsis/core/core_cm4.h **** #define SCB_SHCSR_SYSTICKACT_Pos           11                                             /*!< SCB 
 485:./cmsis/core/core_cm4.h **** #define SCB_SHCSR_SYSTICKACT_Msk           (1UL << SCB_SHCSR_SYSTICKACT_Pos)              /*!< SCB 
 486:./cmsis/core/core_cm4.h **** 
 487:./cmsis/core/core_cm4.h **** #define SCB_SHCSR_PENDSVACT_Pos            10                                             /*!< SCB 
 488:./cmsis/core/core_cm4.h **** #define SCB_SHCSR_PENDSVACT_Msk            (1UL << SCB_SHCSR_PENDSVACT_Pos)               /*!< SCB 
 489:./cmsis/core/core_cm4.h **** 
 490:./cmsis/core/core_cm4.h **** #define SCB_SHCSR_MONITORACT_Pos            8                                             /*!< SCB 
 491:./cmsis/core/core_cm4.h **** #define SCB_SHCSR_MONITORACT_Msk           (1UL << SCB_SHCSR_MONITORACT_Pos)              /*!< SCB 
 492:./cmsis/core/core_cm4.h **** 
 493:./cmsis/core/core_cm4.h **** #define SCB_SHCSR_SVCALLACT_Pos             7                                             /*!< SCB 
 494:./cmsis/core/core_cm4.h **** #define SCB_SHCSR_SVCALLACT_Msk            (1UL << SCB_SHCSR_SVCALLACT_Pos)               /*!< SCB 
 495:./cmsis/core/core_cm4.h **** 
 496:./cmsis/core/core_cm4.h **** #define SCB_SHCSR_USGFAULTACT_Pos           3                                             /*!< SCB 
 497:./cmsis/core/core_cm4.h **** #define SCB_SHCSR_USGFAULTACT_Msk          (1UL << SCB_SHCSR_USGFAULTACT_Pos)             /*!< SCB 
 498:./cmsis/core/core_cm4.h **** 
 499:./cmsis/core/core_cm4.h **** #define SCB_SHCSR_BUSFAULTACT_Pos           1                                             /*!< SCB 
 500:./cmsis/core/core_cm4.h **** #define SCB_SHCSR_BUSFAULTACT_Msk          (1UL << SCB_SHCSR_BUSFAULTACT_Pos)             /*!< SCB 
 501:./cmsis/core/core_cm4.h **** 
 502:./cmsis/core/core_cm4.h **** #define SCB_SHCSR_MEMFAULTACT_Pos           0                                             /*!< SCB 
 503:./cmsis/core/core_cm4.h **** #define SCB_SHCSR_MEMFAULTACT_Msk          (1UL << SCB_SHCSR_MEMFAULTACT_Pos)             /*!< SCB 
 504:./cmsis/core/core_cm4.h **** 
 505:./cmsis/core/core_cm4.h **** /* SCB Configurable Fault Status Registers Definitions */
 506:./cmsis/core/core_cm4.h **** #define SCB_CFSR_USGFAULTSR_Pos            16                                             /*!< SCB 
 507:./cmsis/core/core_cm4.h **** #define SCB_CFSR_USGFAULTSR_Msk            (0xFFFFUL << SCB_CFSR_USGFAULTSR_Pos)          /*!< SCB 
 508:./cmsis/core/core_cm4.h **** 
 509:./cmsis/core/core_cm4.h **** #define SCB_CFSR_BUSFAULTSR_Pos             8                                             /*!< SCB 
 510:./cmsis/core/core_cm4.h **** #define SCB_CFSR_BUSFAULTSR_Msk            (0xFFUL << SCB_CFSR_BUSFAULTSR_Pos)            /*!< SCB 
 511:./cmsis/core/core_cm4.h **** 
 512:./cmsis/core/core_cm4.h **** #define SCB_CFSR_MEMFAULTSR_Pos             0                                             /*!< SCB 
 513:./cmsis/core/core_cm4.h **** #define SCB_CFSR_MEMFAULTSR_Msk            (0xFFUL << SCB_CFSR_MEMFAULTSR_Pos)            /*!< SCB 
 514:./cmsis/core/core_cm4.h **** 
 515:./cmsis/core/core_cm4.h **** /* SCB Hard Fault Status Registers Definitions */
 516:./cmsis/core/core_cm4.h **** #define SCB_HFSR_DEBUGEVT_Pos              31                                             /*!< SCB 
 517:./cmsis/core/core_cm4.h **** #define SCB_HFSR_DEBUGEVT_Msk              (1UL << SCB_HFSR_DEBUGEVT_Pos)                 /*!< SCB 
 518:./cmsis/core/core_cm4.h **** 
 519:./cmsis/core/core_cm4.h **** #define SCB_HFSR_FORCED_Pos                30                                             /*!< SCB 
 520:./cmsis/core/core_cm4.h **** #define SCB_HFSR_FORCED_Msk                (1UL << SCB_HFSR_FORCED_Pos)                   /*!< SCB 
 521:./cmsis/core/core_cm4.h **** 
 522:./cmsis/core/core_cm4.h **** #define SCB_HFSR_VECTTBL_Pos                1                                             /*!< SCB 
 523:./cmsis/core/core_cm4.h **** #define SCB_HFSR_VECTTBL_Msk               (1UL << SCB_HFSR_VECTTBL_Pos)                  /*!< SCB 
 524:./cmsis/core/core_cm4.h **** 
ARM GAS  C:\Users\CNous\AppData\Local\Temp\ccmZfnu5.s 			page 33


 525:./cmsis/core/core_cm4.h **** /* SCB Debug Fault Status Register Definitions */
 526:./cmsis/core/core_cm4.h **** #define SCB_DFSR_EXTERNAL_Pos               4                                             /*!< SCB 
 527:./cmsis/core/core_cm4.h **** #define SCB_DFSR_EXTERNAL_Msk              (1UL << SCB_DFSR_EXTERNAL_Pos)                 /*!< SCB 
 528:./cmsis/core/core_cm4.h **** 
 529:./cmsis/core/core_cm4.h **** #define SCB_DFSR_VCATCH_Pos                 3                                             /*!< SCB 
 530:./cmsis/core/core_cm4.h **** #define SCB_DFSR_VCATCH_Msk                (1UL << SCB_DFSR_VCATCH_Pos)                   /*!< SCB 
 531:./cmsis/core/core_cm4.h **** 
 532:./cmsis/core/core_cm4.h **** #define SCB_DFSR_DWTTRAP_Pos                2                                             /*!< SCB 
 533:./cmsis/core/core_cm4.h **** #define SCB_DFSR_DWTTRAP_Msk               (1UL << SCB_DFSR_DWTTRAP_Pos)                  /*!< SCB 
 534:./cmsis/core/core_cm4.h **** 
 535:./cmsis/core/core_cm4.h **** #define SCB_DFSR_BKPT_Pos                   1                                             /*!< SCB 
 536:./cmsis/core/core_cm4.h **** #define SCB_DFSR_BKPT_Msk                  (1UL << SCB_DFSR_BKPT_Pos)                     /*!< SCB 
 537:./cmsis/core/core_cm4.h **** 
 538:./cmsis/core/core_cm4.h **** #define SCB_DFSR_HALTED_Pos                 0                                             /*!< SCB 
 539:./cmsis/core/core_cm4.h **** #define SCB_DFSR_HALTED_Msk                (1UL << SCB_DFSR_HALTED_Pos)                   /*!< SCB 
 540:./cmsis/core/core_cm4.h **** 
 541:./cmsis/core/core_cm4.h **** /*@} end of group CMSIS_SCB */
 542:./cmsis/core/core_cm4.h **** 
 543:./cmsis/core/core_cm4.h **** 
 544:./cmsis/core/core_cm4.h **** /** \ingroup  CMSIS_core_register
 545:./cmsis/core/core_cm4.h ****     \defgroup CMSIS_SCnSCB CMSIS System Control and ID Register not in the SCB
 546:./cmsis/core/core_cm4.h ****   Type definitions for the Cortex-M System Control and ID Register not in the SCB
 547:./cmsis/core/core_cm4.h ****   @{
 548:./cmsis/core/core_cm4.h ****  */
 549:./cmsis/core/core_cm4.h **** 
 550:./cmsis/core/core_cm4.h **** /** \brief  Structure type to access the System Control and ID Register not in the SCB.
 551:./cmsis/core/core_cm4.h ****  */
 552:./cmsis/core/core_cm4.h **** typedef struct
 553:./cmsis/core/core_cm4.h **** {
 554:./cmsis/core/core_cm4.h ****        uint32_t RESERVED0[1];
 555:./cmsis/core/core_cm4.h ****   __I  uint32_t ICTR;                    /*!< Offset: 0x004 (R/ )  Interrupt Controller Type Regist
 556:./cmsis/core/core_cm4.h ****   __IO uint32_t ACTLR;                   /*!< Offset: 0x008 (R/W)  Auxiliary Control Register      
 557:./cmsis/core/core_cm4.h **** } SCnSCB_Type;
 558:./cmsis/core/core_cm4.h **** 
 559:./cmsis/core/core_cm4.h **** /* Interrupt Controller Type Register Definitions */
 560:./cmsis/core/core_cm4.h **** #define SCnSCB_ICTR_INTLINESNUM_Pos         0                                          /*!< ICTR: I
 561:./cmsis/core/core_cm4.h **** #define SCnSCB_ICTR_INTLINESNUM_Msk        (0xFUL << SCnSCB_ICTR_INTLINESNUM_Pos)      /*!< ICTR: I
 562:./cmsis/core/core_cm4.h **** 
 563:./cmsis/core/core_cm4.h **** /* Auxiliary Control Register Definitions */
 564:./cmsis/core/core_cm4.h **** #define SCnSCB_ACTLR_DISOOFP_Pos            9                                          /*!< ACTLR: 
 565:./cmsis/core/core_cm4.h **** #define SCnSCB_ACTLR_DISOOFP_Msk           (1UL << SCnSCB_ACTLR_DISOOFP_Pos)           /*!< ACTLR: 
 566:./cmsis/core/core_cm4.h **** 
 567:./cmsis/core/core_cm4.h **** #define SCnSCB_ACTLR_DISFPCA_Pos            8                                          /*!< ACTLR: 
 568:./cmsis/core/core_cm4.h **** #define SCnSCB_ACTLR_DISFPCA_Msk           (1UL << SCnSCB_ACTLR_DISFPCA_Pos)           /*!< ACTLR: 
 569:./cmsis/core/core_cm4.h **** 
 570:./cmsis/core/core_cm4.h **** #define SCnSCB_ACTLR_DISFOLD_Pos            2                                          /*!< ACTLR: 
 571:./cmsis/core/core_cm4.h **** #define SCnSCB_ACTLR_DISFOLD_Msk           (1UL << SCnSCB_ACTLR_DISFOLD_Pos)           /*!< ACTLR: 
 572:./cmsis/core/core_cm4.h **** 
 573:./cmsis/core/core_cm4.h **** #define SCnSCB_ACTLR_DISDEFWBUF_Pos         1                                          /*!< ACTLR: 
 574:./cmsis/core/core_cm4.h **** #define SCnSCB_ACTLR_DISDEFWBUF_Msk        (1UL << SCnSCB_ACTLR_DISDEFWBUF_Pos)        /*!< ACTLR: 
 575:./cmsis/core/core_cm4.h **** 
 576:./cmsis/core/core_cm4.h **** #define SCnSCB_ACTLR_DISMCYCINT_Pos         0                                          /*!< ACTLR: 
 577:./cmsis/core/core_cm4.h **** #define SCnSCB_ACTLR_DISMCYCINT_Msk        (1UL << SCnSCB_ACTLR_DISMCYCINT_Pos)        /*!< ACTLR: 
 578:./cmsis/core/core_cm4.h **** 
 579:./cmsis/core/core_cm4.h **** /*@} end of group CMSIS_SCnotSCB */
 580:./cmsis/core/core_cm4.h **** 
 581:./cmsis/core/core_cm4.h **** 
ARM GAS  C:\Users\CNous\AppData\Local\Temp\ccmZfnu5.s 			page 34


 582:./cmsis/core/core_cm4.h **** /** \ingroup  CMSIS_core_register
 583:./cmsis/core/core_cm4.h ****     \defgroup CMSIS_SysTick CMSIS SysTick
 584:./cmsis/core/core_cm4.h ****   Type definitions for the Cortex-M System Timer Registers
 585:./cmsis/core/core_cm4.h ****   @{
 586:./cmsis/core/core_cm4.h ****  */
 587:./cmsis/core/core_cm4.h **** 
 588:./cmsis/core/core_cm4.h **** /** \brief  Structure type to access the System Timer (SysTick).
 589:./cmsis/core/core_cm4.h ****  */
 590:./cmsis/core/core_cm4.h **** typedef struct
 591:./cmsis/core/core_cm4.h **** {
 592:./cmsis/core/core_cm4.h ****   __IO uint32_t CTRL;                    /*!< Offset: 0x000 (R/W)  SysTick Control and Status Regis
 593:./cmsis/core/core_cm4.h ****   __IO uint32_t LOAD;                    /*!< Offset: 0x004 (R/W)  SysTick Reload Value Register   
 594:./cmsis/core/core_cm4.h ****   __IO uint32_t VAL;                     /*!< Offset: 0x008 (R/W)  SysTick Current Value Register  
 595:./cmsis/core/core_cm4.h ****   __I  uint32_t CALIB;                   /*!< Offset: 0x00C (R/ )  SysTick Calibration Register    
 596:./cmsis/core/core_cm4.h **** } SysTick_Type;
 597:./cmsis/core/core_cm4.h **** 
 598:./cmsis/core/core_cm4.h **** /* SysTick Control / Status Register Definitions */
 599:./cmsis/core/core_cm4.h **** #define SysTick_CTRL_COUNTFLAG_Pos         16                                             /*!< SysT
 600:./cmsis/core/core_cm4.h **** #define SysTick_CTRL_COUNTFLAG_Msk         (1UL << SysTick_CTRL_COUNTFLAG_Pos)            /*!< SysT
 601:./cmsis/core/core_cm4.h **** 
 602:./cmsis/core/core_cm4.h **** #define SysTick_CTRL_CLKSOURCE_Pos          2                                             /*!< SysT
 603:./cmsis/core/core_cm4.h **** #define SysTick_CTRL_CLKSOURCE_Msk         (1UL << SysTick_CTRL_CLKSOURCE_Pos)            /*!< SysT
 604:./cmsis/core/core_cm4.h **** 
 605:./cmsis/core/core_cm4.h **** #define SysTick_CTRL_TICKINT_Pos            1                                             /*!< SysT
 606:./cmsis/core/core_cm4.h **** #define SysTick_CTRL_TICKINT_Msk           (1UL << SysTick_CTRL_TICKINT_Pos)              /*!< SysT
 607:./cmsis/core/core_cm4.h **** 
 608:./cmsis/core/core_cm4.h **** #define SysTick_CTRL_ENABLE_Pos             0                                             /*!< SysT
 609:./cmsis/core/core_cm4.h **** #define SysTick_CTRL_ENABLE_Msk            (1UL << SysTick_CTRL_ENABLE_Pos)               /*!< SysT
 610:./cmsis/core/core_cm4.h **** 
 611:./cmsis/core/core_cm4.h **** /* SysTick Reload Register Definitions */
 612:./cmsis/core/core_cm4.h **** #define SysTick_LOAD_RELOAD_Pos             0                                             /*!< SysT
 613:./cmsis/core/core_cm4.h **** #define SysTick_LOAD_RELOAD_Msk            (0xFFFFFFUL << SysTick_LOAD_RELOAD_Pos)        /*!< SysT
 614:./cmsis/core/core_cm4.h **** 
 615:./cmsis/core/core_cm4.h **** /* SysTick Current Register Definitions */
 616:./cmsis/core/core_cm4.h **** #define SysTick_VAL_CURRENT_Pos             0                                             /*!< SysT
 617:./cmsis/core/core_cm4.h **** #define SysTick_VAL_CURRENT_Msk            (0xFFFFFFUL << SysTick_VAL_CURRENT_Pos)        /*!< SysT
 618:./cmsis/core/core_cm4.h **** 
 619:./cmsis/core/core_cm4.h **** /* SysTick Calibration Register Definitions */
 620:./cmsis/core/core_cm4.h **** #define SysTick_CALIB_NOREF_Pos            31                                             /*!< SysT
 621:./cmsis/core/core_cm4.h **** #define SysTick_CALIB_NOREF_Msk            (1UL << SysTick_CALIB_NOREF_Pos)               /*!< SysT
 622:./cmsis/core/core_cm4.h **** 
 623:./cmsis/core/core_cm4.h **** #define SysTick_CALIB_SKEW_Pos             30                                             /*!< SysT
 624:./cmsis/core/core_cm4.h **** #define SysTick_CALIB_SKEW_Msk             (1UL << SysTick_CALIB_SKEW_Pos)                /*!< SysT
 625:./cmsis/core/core_cm4.h **** 
 626:./cmsis/core/core_cm4.h **** #define SysTick_CALIB_TENMS_Pos             0                                             /*!< SysT
 627:./cmsis/core/core_cm4.h **** #define SysTick_CALIB_TENMS_Msk            (0xFFFFFFUL << SysTick_VAL_CURRENT_Pos)        /*!< SysT
 628:./cmsis/core/core_cm4.h **** 
 629:./cmsis/core/core_cm4.h **** /*@} end of group CMSIS_SysTick */
 630:./cmsis/core/core_cm4.h **** 
 631:./cmsis/core/core_cm4.h **** 
 632:./cmsis/core/core_cm4.h **** /** \ingroup  CMSIS_core_register
 633:./cmsis/core/core_cm4.h ****     \defgroup CMSIS_ITM CMSIS ITM
 634:./cmsis/core/core_cm4.h ****   Type definitions for the Cortex-M Instrumentation Trace Macrocell (ITM)
 635:./cmsis/core/core_cm4.h ****   @{
 636:./cmsis/core/core_cm4.h ****  */
 637:./cmsis/core/core_cm4.h **** 
 638:./cmsis/core/core_cm4.h **** /** \brief  Structure type to access the Instrumentation Trace Macrocell Register (ITM).
ARM GAS  C:\Users\CNous\AppData\Local\Temp\ccmZfnu5.s 			page 35


 639:./cmsis/core/core_cm4.h ****  */
 640:./cmsis/core/core_cm4.h **** typedef struct
 641:./cmsis/core/core_cm4.h **** {
 642:./cmsis/core/core_cm4.h ****   __O  union
 643:./cmsis/core/core_cm4.h ****   {
 644:./cmsis/core/core_cm4.h ****     __O  uint8_t    u8;                  /*!< Offset: 0x000 ( /W)  ITM Stimulus Port 8-bit         
 645:./cmsis/core/core_cm4.h ****     __O  uint16_t   u16;                 /*!< Offset: 0x000 ( /W)  ITM Stimulus Port 16-bit        
 646:./cmsis/core/core_cm4.h ****     __O  uint32_t   u32;                 /*!< Offset: 0x000 ( /W)  ITM Stimulus Port 32-bit        
 647:./cmsis/core/core_cm4.h ****   }  PORT [32];                          /*!< Offset: 0x000 ( /W)  ITM Stimulus Port Registers     
 648:./cmsis/core/core_cm4.h ****        uint32_t RESERVED0[864];
 649:./cmsis/core/core_cm4.h ****   __IO uint32_t TER;                     /*!< Offset: 0xE00 (R/W)  ITM Trace Enable Register       
 650:./cmsis/core/core_cm4.h ****        uint32_t RESERVED1[15];
 651:./cmsis/core/core_cm4.h ****   __IO uint32_t TPR;                     /*!< Offset: 0xE40 (R/W)  ITM Trace Privilege Register    
 652:./cmsis/core/core_cm4.h ****        uint32_t RESERVED2[15];
 653:./cmsis/core/core_cm4.h ****   __IO uint32_t TCR;                     /*!< Offset: 0xE80 (R/W)  ITM Trace Control Register      
 654:./cmsis/core/core_cm4.h **** } ITM_Type;
 655:./cmsis/core/core_cm4.h **** 
 656:./cmsis/core/core_cm4.h **** /* ITM Trace Privilege Register Definitions */
 657:./cmsis/core/core_cm4.h **** #define ITM_TPR_PRIVMASK_Pos                0                                          /*!< ITM TPR
 658:./cmsis/core/core_cm4.h **** #define ITM_TPR_PRIVMASK_Msk               (0xFUL << ITM_TPR_PRIVMASK_Pos)             /*!< ITM TPR
 659:./cmsis/core/core_cm4.h **** 
 660:./cmsis/core/core_cm4.h **** /* ITM Trace Control Register Definitions */
 661:./cmsis/core/core_cm4.h **** #define ITM_TCR_BUSY_Pos                   23                                          /*!< ITM TCR
 662:./cmsis/core/core_cm4.h **** #define ITM_TCR_BUSY_Msk                   (1UL << ITM_TCR_BUSY_Pos)                   /*!< ITM TCR
 663:./cmsis/core/core_cm4.h **** 
 664:./cmsis/core/core_cm4.h **** #define ITM_TCR_TraceBusID_Pos             16                                          /*!< ITM TCR
 665:./cmsis/core/core_cm4.h **** #define ITM_TCR_TraceBusID_Msk             (0x7FUL << ITM_TCR_TraceBusID_Pos)          /*!< ITM TCR
 666:./cmsis/core/core_cm4.h **** 
 667:./cmsis/core/core_cm4.h **** #define ITM_TCR_GTSFREQ_Pos                10                                          /*!< ITM TCR
 668:./cmsis/core/core_cm4.h **** #define ITM_TCR_GTSFREQ_Msk                (3UL << ITM_TCR_GTSFREQ_Pos)                /*!< ITM TCR
 669:./cmsis/core/core_cm4.h **** 
 670:./cmsis/core/core_cm4.h **** #define ITM_TCR_TSPrescale_Pos              8                                          /*!< ITM TCR
 671:./cmsis/core/core_cm4.h **** #define ITM_TCR_TSPrescale_Msk             (3UL << ITM_TCR_TSPrescale_Pos)             /*!< ITM TCR
 672:./cmsis/core/core_cm4.h **** 
 673:./cmsis/core/core_cm4.h **** #define ITM_TCR_SWOENA_Pos                  4                                          /*!< ITM TCR
 674:./cmsis/core/core_cm4.h **** #define ITM_TCR_SWOENA_Msk                 (1UL << ITM_TCR_SWOENA_Pos)                 /*!< ITM TCR
 675:./cmsis/core/core_cm4.h **** 
 676:./cmsis/core/core_cm4.h **** #define ITM_TCR_TXENA_Pos                   3                                          /*!< ITM TCR
 677:./cmsis/core/core_cm4.h **** #define ITM_TCR_TXENA_Msk                  (1UL << ITM_TCR_TXENA_Pos)                  /*!< ITM TCR
 678:./cmsis/core/core_cm4.h **** 
 679:./cmsis/core/core_cm4.h **** #define ITM_TCR_SYNCENA_Pos                 2                                          /*!< ITM TCR
 680:./cmsis/core/core_cm4.h **** #define ITM_TCR_SYNCENA_Msk                (1UL << ITM_TCR_SYNCENA_Pos)                /*!< ITM TCR
 681:./cmsis/core/core_cm4.h **** 
 682:./cmsis/core/core_cm4.h **** #define ITM_TCR_TSENA_Pos                   1                                          /*!< ITM TCR
 683:./cmsis/core/core_cm4.h **** #define ITM_TCR_TSENA_Msk                  (1UL << ITM_TCR_TSENA_Pos)                  /*!< ITM TCR
 684:./cmsis/core/core_cm4.h **** 
 685:./cmsis/core/core_cm4.h **** #define ITM_TCR_ITMENA_Pos                  0                                          /*!< ITM TCR
 686:./cmsis/core/core_cm4.h **** #define ITM_TCR_ITMENA_Msk                 (1UL << ITM_TCR_ITMENA_Pos)                 /*!< ITM TCR
 687:./cmsis/core/core_cm4.h **** 
 688:./cmsis/core/core_cm4.h **** /*@}*/ /* end of group CMSIS_ITM */
 689:./cmsis/core/core_cm4.h **** 
 690:./cmsis/core/core_cm4.h **** 
 691:./cmsis/core/core_cm4.h **** #if (__MPU_PRESENT == 1)
 692:./cmsis/core/core_cm4.h **** /** \ingroup  CMSIS_core_register
 693:./cmsis/core/core_cm4.h ****     \defgroup CMSIS_MPU CMSIS MPU
 694:./cmsis/core/core_cm4.h ****   Type definitions for the Cortex-M Memory Protection Unit (MPU)
 695:./cmsis/core/core_cm4.h ****   @{
ARM GAS  C:\Users\CNous\AppData\Local\Temp\ccmZfnu5.s 			page 36


 696:./cmsis/core/core_cm4.h ****  */
 697:./cmsis/core/core_cm4.h **** 
 698:./cmsis/core/core_cm4.h **** /** \brief  Structure type to access the Memory Protection Unit (MPU).
 699:./cmsis/core/core_cm4.h ****  */
 700:./cmsis/core/core_cm4.h **** typedef struct
 701:./cmsis/core/core_cm4.h **** {
 702:./cmsis/core/core_cm4.h ****   __I  uint32_t TYPE;                    /*!< Offset: 0x000 (R/ )  MPU Type Register               
 703:./cmsis/core/core_cm4.h ****   __IO uint32_t CTRL;                    /*!< Offset: 0x004 (R/W)  MPU Control Register            
 704:./cmsis/core/core_cm4.h ****   __IO uint32_t RNR;                     /*!< Offset: 0x008 (R/W)  MPU Region RNRber Register      
 705:./cmsis/core/core_cm4.h ****   __IO uint32_t RBAR;                    /*!< Offset: 0x00C (R/W)  MPU Region Base Address Register
 706:./cmsis/core/core_cm4.h ****   __IO uint32_t RASR;                    /*!< Offset: 0x010 (R/W)  MPU Region Attribute and Size Re
 707:./cmsis/core/core_cm4.h ****   __IO uint32_t RBAR_A1;                 /*!< Offset: 0x014 (R/W)  MPU Alias 1 Region Base Address 
 708:./cmsis/core/core_cm4.h ****   __IO uint32_t RASR_A1;                 /*!< Offset: 0x018 (R/W)  MPU Alias 1 Region Attribute and
 709:./cmsis/core/core_cm4.h ****   __IO uint32_t RBAR_A2;                 /*!< Offset: 0x01C (R/W)  MPU Alias 2 Region Base Address 
 710:./cmsis/core/core_cm4.h ****   __IO uint32_t RASR_A2;                 /*!< Offset: 0x020 (R/W)  MPU Alias 2 Region Attribute and
 711:./cmsis/core/core_cm4.h ****   __IO uint32_t RBAR_A3;                 /*!< Offset: 0x024 (R/W)  MPU Alias 3 Region Base Address 
 712:./cmsis/core/core_cm4.h ****   __IO uint32_t RASR_A3;                 /*!< Offset: 0x028 (R/W)  MPU Alias 3 Region Attribute and
 713:./cmsis/core/core_cm4.h **** } MPU_Type;
 714:./cmsis/core/core_cm4.h **** 
 715:./cmsis/core/core_cm4.h **** /* MPU Type Register */
 716:./cmsis/core/core_cm4.h **** #define MPU_TYPE_IREGION_Pos               16                                             /*!< MPU 
 717:./cmsis/core/core_cm4.h **** #define MPU_TYPE_IREGION_Msk               (0xFFUL << MPU_TYPE_IREGION_Pos)               /*!< MPU 
 718:./cmsis/core/core_cm4.h **** 
 719:./cmsis/core/core_cm4.h **** #define MPU_TYPE_DREGION_Pos                8                                             /*!< MPU 
 720:./cmsis/core/core_cm4.h **** #define MPU_TYPE_DREGION_Msk               (0xFFUL << MPU_TYPE_DREGION_Pos)               /*!< MPU 
 721:./cmsis/core/core_cm4.h **** 
 722:./cmsis/core/core_cm4.h **** #define MPU_TYPE_SEPARATE_Pos               0                                             /*!< MPU 
 723:./cmsis/core/core_cm4.h **** #define MPU_TYPE_SEPARATE_Msk              (1UL << MPU_TYPE_SEPARATE_Pos)                 /*!< MPU 
 724:./cmsis/core/core_cm4.h **** 
 725:./cmsis/core/core_cm4.h **** /* MPU Control Register */
 726:./cmsis/core/core_cm4.h **** #define MPU_CTRL_PRIVDEFENA_Pos             2                                             /*!< MPU 
 727:./cmsis/core/core_cm4.h **** #define MPU_CTRL_PRIVDEFENA_Msk            (1UL << MPU_CTRL_PRIVDEFENA_Pos)               /*!< MPU 
 728:./cmsis/core/core_cm4.h **** 
 729:./cmsis/core/core_cm4.h **** #define MPU_CTRL_HFNMIENA_Pos               1                                             /*!< MPU 
 730:./cmsis/core/core_cm4.h **** #define MPU_CTRL_HFNMIENA_Msk              (1UL << MPU_CTRL_HFNMIENA_Pos)                 /*!< MPU 
 731:./cmsis/core/core_cm4.h **** 
 732:./cmsis/core/core_cm4.h **** #define MPU_CTRL_ENABLE_Pos                 0                                             /*!< MPU 
 733:./cmsis/core/core_cm4.h **** #define MPU_CTRL_ENABLE_Msk                (1UL << MPU_CTRL_ENABLE_Pos)                   /*!< MPU 
 734:./cmsis/core/core_cm4.h **** 
 735:./cmsis/core/core_cm4.h **** /* MPU Region Number Register */
 736:./cmsis/core/core_cm4.h **** #define MPU_RNR_REGION_Pos                  0                                             /*!< MPU 
 737:./cmsis/core/core_cm4.h **** #define MPU_RNR_REGION_Msk                 (0xFFUL << MPU_RNR_REGION_Pos)                 /*!< MPU 
 738:./cmsis/core/core_cm4.h **** 
 739:./cmsis/core/core_cm4.h **** /* MPU Region Base Address Register */
 740:./cmsis/core/core_cm4.h **** #define MPU_RBAR_ADDR_Pos                   5                                             /*!< MPU 
 741:./cmsis/core/core_cm4.h **** #define MPU_RBAR_ADDR_Msk                  (0x7FFFFFFUL << MPU_RBAR_ADDR_Pos)             /*!< MPU 
 742:./cmsis/core/core_cm4.h **** 
 743:./cmsis/core/core_cm4.h **** #define MPU_RBAR_VALID_Pos                  4                                             /*!< MPU 
 744:./cmsis/core/core_cm4.h **** #define MPU_RBAR_VALID_Msk                 (1UL << MPU_RBAR_VALID_Pos)                    /*!< MPU 
 745:./cmsis/core/core_cm4.h **** 
 746:./cmsis/core/core_cm4.h **** #define MPU_RBAR_REGION_Pos                 0                                             /*!< MPU 
 747:./cmsis/core/core_cm4.h **** #define MPU_RBAR_REGION_Msk                (0xFUL << MPU_RBAR_REGION_Pos)                 /*!< MPU 
 748:./cmsis/core/core_cm4.h **** 
 749:./cmsis/core/core_cm4.h **** /* MPU Region Attribute and Size Register */
 750:./cmsis/core/core_cm4.h **** #define MPU_RASR_ATTRS_Pos                 16                                             /*!< MPU 
 751:./cmsis/core/core_cm4.h **** #define MPU_RASR_ATTRS_Msk                 (0xFFFFUL << MPU_RASR_ATTRS_Pos)               /*!< MPU 
 752:./cmsis/core/core_cm4.h **** 
ARM GAS  C:\Users\CNous\AppData\Local\Temp\ccmZfnu5.s 			page 37


 753:./cmsis/core/core_cm4.h **** #define MPU_RASR_SRD_Pos                    8                                             /*!< MPU 
 754:./cmsis/core/core_cm4.h **** #define MPU_RASR_SRD_Msk                   (0xFFUL << MPU_RASR_SRD_Pos)                   /*!< MPU 
 755:./cmsis/core/core_cm4.h **** 
 756:./cmsis/core/core_cm4.h **** #define MPU_RASR_SIZE_Pos                   1                                             /*!< MPU 
 757:./cmsis/core/core_cm4.h **** #define MPU_RASR_SIZE_Msk                  (0x1FUL << MPU_RASR_SIZE_Pos)                  /*!< MPU 
 758:./cmsis/core/core_cm4.h **** 
 759:./cmsis/core/core_cm4.h **** #define MPU_RASR_ENABLE_Pos                 0                                             /*!< MPU 
 760:./cmsis/core/core_cm4.h **** #define MPU_RASR_ENABLE_Msk                (1UL << MPU_RASR_ENABLE_Pos)                   /*!< MPU 
 761:./cmsis/core/core_cm4.h **** 
 762:./cmsis/core/core_cm4.h **** /*@} end of group CMSIS_MPU */
 763:./cmsis/core/core_cm4.h **** #endif
 764:./cmsis/core/core_cm4.h **** 
 765:./cmsis/core/core_cm4.h **** 
 766:./cmsis/core/core_cm4.h **** #if (__FPU_PRESENT == 1)
 767:./cmsis/core/core_cm4.h **** /** \ingroup  CMSIS_core_register
 768:./cmsis/core/core_cm4.h ****     \defgroup CMSIS_FPU CMSIS FPU
 769:./cmsis/core/core_cm4.h ****   Type definitions for the Cortex-M Floating Point Unit (FPU)
 770:./cmsis/core/core_cm4.h ****   @{
 771:./cmsis/core/core_cm4.h ****  */
 772:./cmsis/core/core_cm4.h **** 
 773:./cmsis/core/core_cm4.h **** /** \brief  Structure type to access the Floating Point Unit (FPU).
 774:./cmsis/core/core_cm4.h ****  */
 775:./cmsis/core/core_cm4.h **** typedef struct
 776:./cmsis/core/core_cm4.h **** {
 777:./cmsis/core/core_cm4.h ****        uint32_t RESERVED0[1];
 778:./cmsis/core/core_cm4.h ****   __IO uint32_t FPCCR;                   /*!< Offset: 0x004 (R/W)  Floating-Point Context Control R
 779:./cmsis/core/core_cm4.h ****   __IO uint32_t FPCAR;                   /*!< Offset: 0x008 (R/W)  Floating-Point Context Address R
 780:./cmsis/core/core_cm4.h ****   __IO uint32_t FPDSCR;                  /*!< Offset: 0x00C (R/W)  Floating-Point Default Status Co
 781:./cmsis/core/core_cm4.h ****   __I  uint32_t MVFR0;                   /*!< Offset: 0x010 (R/ )  Media and FP Feature Register 0 
 782:./cmsis/core/core_cm4.h ****   __I  uint32_t MVFR1;                   /*!< Offset: 0x014 (R/ )  Media and FP Feature Register 1 
 783:./cmsis/core/core_cm4.h **** } FPU_Type;
 784:./cmsis/core/core_cm4.h **** 
 785:./cmsis/core/core_cm4.h **** /* Floating-Point Context Control Register */
 786:./cmsis/core/core_cm4.h **** #define FPU_FPCCR_ASPEN_Pos                31                                             /*!< FPCC
 787:./cmsis/core/core_cm4.h **** #define FPU_FPCCR_ASPEN_Msk                (1UL << FPU_FPCCR_ASPEN_Pos)                   /*!< FPCC
 788:./cmsis/core/core_cm4.h **** 
 789:./cmsis/core/core_cm4.h **** #define FPU_FPCCR_LSPEN_Pos                30                                             /*!< FPCC
 790:./cmsis/core/core_cm4.h **** #define FPU_FPCCR_LSPEN_Msk                (1UL << FPU_FPCCR_LSPEN_Pos)                   /*!< FPCC
 791:./cmsis/core/core_cm4.h **** 
 792:./cmsis/core/core_cm4.h **** #define FPU_FPCCR_MONRDY_Pos                8                                             /*!< FPCC
 793:./cmsis/core/core_cm4.h **** #define FPU_FPCCR_MONRDY_Msk               (1UL << FPU_FPCCR_MONRDY_Pos)                  /*!< FPCC
 794:./cmsis/core/core_cm4.h **** 
 795:./cmsis/core/core_cm4.h **** #define FPU_FPCCR_BFRDY_Pos                 6                                             /*!< FPCC
 796:./cmsis/core/core_cm4.h **** #define FPU_FPCCR_BFRDY_Msk                (1UL << FPU_FPCCR_BFRDY_Pos)                   /*!< FPCC
 797:./cmsis/core/core_cm4.h **** 
 798:./cmsis/core/core_cm4.h **** #define FPU_FPCCR_MMRDY_Pos                 5                                             /*!< FPCC
 799:./cmsis/core/core_cm4.h **** #define FPU_FPCCR_MMRDY_Msk                (1UL << FPU_FPCCR_MMRDY_Pos)                   /*!< FPCC
 800:./cmsis/core/core_cm4.h **** 
 801:./cmsis/core/core_cm4.h **** #define FPU_FPCCR_HFRDY_Pos                 4                                             /*!< FPCC
 802:./cmsis/core/core_cm4.h **** #define FPU_FPCCR_HFRDY_Msk                (1UL << FPU_FPCCR_HFRDY_Pos)                   /*!< FPCC
 803:./cmsis/core/core_cm4.h **** 
 804:./cmsis/core/core_cm4.h **** #define FPU_FPCCR_THREAD_Pos                3                                             /*!< FPCC
 805:./cmsis/core/core_cm4.h **** #define FPU_FPCCR_THREAD_Msk               (1UL << FPU_FPCCR_THREAD_Pos)                  /*!< FPCC
 806:./cmsis/core/core_cm4.h **** 
 807:./cmsis/core/core_cm4.h **** #define FPU_FPCCR_USER_Pos                  1                                             /*!< FPCC
 808:./cmsis/core/core_cm4.h **** #define FPU_FPCCR_USER_Msk                 (1UL << FPU_FPCCR_USER_Pos)                    /*!< FPCC
 809:./cmsis/core/core_cm4.h **** 
ARM GAS  C:\Users\CNous\AppData\Local\Temp\ccmZfnu5.s 			page 38


 810:./cmsis/core/core_cm4.h **** #define FPU_FPCCR_LSPACT_Pos                0                                             /*!< FPCC
 811:./cmsis/core/core_cm4.h **** #define FPU_FPCCR_LSPACT_Msk               (1UL << FPU_FPCCR_LSPACT_Pos)                  /*!< FPCC
 812:./cmsis/core/core_cm4.h **** 
 813:./cmsis/core/core_cm4.h **** /* Floating-Point Context Address Register */
 814:./cmsis/core/core_cm4.h **** #define FPU_FPCAR_ADDRESS_Pos               3                                             /*!< FPCA
 815:./cmsis/core/core_cm4.h **** #define FPU_FPCAR_ADDRESS_Msk              (0x1FFFFFFFUL << FPU_FPCAR_ADDRESS_Pos)        /*!< FPCA
 816:./cmsis/core/core_cm4.h **** 
 817:./cmsis/core/core_cm4.h **** /* Floating-Point Default Status Control Register */
 818:./cmsis/core/core_cm4.h **** #define FPU_FPDSCR_AHP_Pos                 26                                             /*!< FPDS
 819:./cmsis/core/core_cm4.h **** #define FPU_FPDSCR_AHP_Msk                 (1UL << FPU_FPDSCR_AHP_Pos)                    /*!< FPDS
 820:./cmsis/core/core_cm4.h **** 
 821:./cmsis/core/core_cm4.h **** #define FPU_FPDSCR_DN_Pos                  25                                             /*!< FPDS
 822:./cmsis/core/core_cm4.h **** #define FPU_FPDSCR_DN_Msk                  (1UL << FPU_FPDSCR_DN_Pos)                     /*!< FPDS
 823:./cmsis/core/core_cm4.h **** 
 824:./cmsis/core/core_cm4.h **** #define FPU_FPDSCR_FZ_Pos                  24                                             /*!< FPDS
 825:./cmsis/core/core_cm4.h **** #define FPU_FPDSCR_FZ_Msk                  (1UL << FPU_FPDSCR_FZ_Pos)                     /*!< FPDS
 826:./cmsis/core/core_cm4.h **** 
 827:./cmsis/core/core_cm4.h **** #define FPU_FPDSCR_RMode_Pos               22                                             /*!< FPDS
 828:./cmsis/core/core_cm4.h **** #define FPU_FPDSCR_RMode_Msk               (3UL << FPU_FPDSCR_RMode_Pos)                  /*!< FPDS
 829:./cmsis/core/core_cm4.h **** 
 830:./cmsis/core/core_cm4.h **** /* Media and FP Feature Register 0 */
 831:./cmsis/core/core_cm4.h **** #define FPU_MVFR0_FP_rounding_modes_Pos    28                                             /*!< MVFR
 832:./cmsis/core/core_cm4.h **** #define FPU_MVFR0_FP_rounding_modes_Msk    (0xFUL << FPU_MVFR0_FP_rounding_modes_Pos)     /*!< MVFR
 833:./cmsis/core/core_cm4.h **** 
 834:./cmsis/core/core_cm4.h **** #define FPU_MVFR0_Short_vectors_Pos        24                                             /*!< MVFR
 835:./cmsis/core/core_cm4.h **** #define FPU_MVFR0_Short_vectors_Msk        (0xFUL << FPU_MVFR0_Short_vectors_Pos)         /*!< MVFR
 836:./cmsis/core/core_cm4.h **** 
 837:./cmsis/core/core_cm4.h **** #define FPU_MVFR0_Square_root_Pos          20                                             /*!< MVFR
 838:./cmsis/core/core_cm4.h **** #define FPU_MVFR0_Square_root_Msk          (0xFUL << FPU_MVFR0_Square_root_Pos)           /*!< MVFR
 839:./cmsis/core/core_cm4.h **** 
 840:./cmsis/core/core_cm4.h **** #define FPU_MVFR0_Divide_Pos               16                                             /*!< MVFR
 841:./cmsis/core/core_cm4.h **** #define FPU_MVFR0_Divide_Msk               (0xFUL << FPU_MVFR0_Divide_Pos)                /*!< MVFR
 842:./cmsis/core/core_cm4.h **** 
 843:./cmsis/core/core_cm4.h **** #define FPU_MVFR0_FP_excep_trapping_Pos    12                                             /*!< MVFR
 844:./cmsis/core/core_cm4.h **** #define FPU_MVFR0_FP_excep_trapping_Msk    (0xFUL << FPU_MVFR0_FP_excep_trapping_Pos)     /*!< MVFR
 845:./cmsis/core/core_cm4.h **** 
 846:./cmsis/core/core_cm4.h **** #define FPU_MVFR0_Double_precision_Pos      8                                             /*!< MVFR
 847:./cmsis/core/core_cm4.h **** #define FPU_MVFR0_Double_precision_Msk     (0xFUL << FPU_MVFR0_Double_precision_Pos)      /*!< MVFR
 848:./cmsis/core/core_cm4.h **** 
 849:./cmsis/core/core_cm4.h **** #define FPU_MVFR0_Single_precision_Pos      4                                             /*!< MVFR
 850:./cmsis/core/core_cm4.h **** #define FPU_MVFR0_Single_precision_Msk     (0xFUL << FPU_MVFR0_Single_precision_Pos)      /*!< MVFR
 851:./cmsis/core/core_cm4.h **** 
 852:./cmsis/core/core_cm4.h **** #define FPU_MVFR0_A_SIMD_registers_Pos      0                                             /*!< MVFR
 853:./cmsis/core/core_cm4.h **** #define FPU_MVFR0_A_SIMD_registers_Msk     (0xFUL << FPU_MVFR0_A_SIMD_registers_Pos)      /*!< MVFR
 854:./cmsis/core/core_cm4.h **** 
 855:./cmsis/core/core_cm4.h **** /* Media and FP Feature Register 1 */
 856:./cmsis/core/core_cm4.h **** #define FPU_MVFR1_FP_fused_MAC_Pos         28                                             /*!< MVFR
 857:./cmsis/core/core_cm4.h **** #define FPU_MVFR1_FP_fused_MAC_Msk         (0xFUL << FPU_MVFR1_FP_fused_MAC_Pos)          /*!< MVFR
 858:./cmsis/core/core_cm4.h **** 
 859:./cmsis/core/core_cm4.h **** #define FPU_MVFR1_FP_HPFP_Pos              24                                             /*!< MVFR
 860:./cmsis/core/core_cm4.h **** #define FPU_MVFR1_FP_HPFP_Msk              (0xFUL << FPU_MVFR1_FP_HPFP_Pos)               /*!< MVFR
 861:./cmsis/core/core_cm4.h **** 
 862:./cmsis/core/core_cm4.h **** #define FPU_MVFR1_D_NaN_mode_Pos            4                                             /*!< MVFR
 863:./cmsis/core/core_cm4.h **** #define FPU_MVFR1_D_NaN_mode_Msk           (0xFUL << FPU_MVFR1_D_NaN_mode_Pos)            /*!< MVFR
 864:./cmsis/core/core_cm4.h **** 
 865:./cmsis/core/core_cm4.h **** #define FPU_MVFR1_FtZ_mode_Pos              0                                             /*!< MVFR
 866:./cmsis/core/core_cm4.h **** #define FPU_MVFR1_FtZ_mode_Msk             (0xFUL << FPU_MVFR1_FtZ_mode_Pos)              /*!< MVFR
ARM GAS  C:\Users\CNous\AppData\Local\Temp\ccmZfnu5.s 			page 39


 867:./cmsis/core/core_cm4.h **** 
 868:./cmsis/core/core_cm4.h **** /*@} end of group CMSIS_FPU */
 869:./cmsis/core/core_cm4.h **** #endif
 870:./cmsis/core/core_cm4.h **** 
 871:./cmsis/core/core_cm4.h **** 
 872:./cmsis/core/core_cm4.h **** /** \ingroup  CMSIS_core_register
 873:./cmsis/core/core_cm4.h ****     \defgroup CMSIS_CoreDebug CMSIS Core Debug
 874:./cmsis/core/core_cm4.h ****   Type definitions for the Cortex-M Core Debug Registers
 875:./cmsis/core/core_cm4.h ****   @{
 876:./cmsis/core/core_cm4.h ****  */
 877:./cmsis/core/core_cm4.h **** 
 878:./cmsis/core/core_cm4.h **** /** \brief  Structure type to access the Core Debug Register (CoreDebug).
 879:./cmsis/core/core_cm4.h ****  */
 880:./cmsis/core/core_cm4.h **** typedef struct
 881:./cmsis/core/core_cm4.h **** {
 882:./cmsis/core/core_cm4.h ****   __IO uint32_t DHCSR;                   /*!< Offset: 0x000 (R/W)  Debug Halting Control and Status
 883:./cmsis/core/core_cm4.h ****   __O  uint32_t DCRSR;                   /*!< Offset: 0x004 ( /W)  Debug Core Register Selector Reg
 884:./cmsis/core/core_cm4.h ****   __IO uint32_t DCRDR;                   /*!< Offset: 0x008 (R/W)  Debug Core Register Data Registe
 885:./cmsis/core/core_cm4.h ****   __IO uint32_t DEMCR;                   /*!< Offset: 0x00C (R/W)  Debug Exception and Monitor Cont
 886:./cmsis/core/core_cm4.h **** } CoreDebug_Type;
 887:./cmsis/core/core_cm4.h **** 
 888:./cmsis/core/core_cm4.h **** /* Debug Halting Control and Status Register */
 889:./cmsis/core/core_cm4.h **** #define CoreDebug_DHCSR_DBGKEY_Pos         16                                             /*!< Core
 890:./cmsis/core/core_cm4.h **** #define CoreDebug_DHCSR_DBGKEY_Msk         (0xFFFFUL << CoreDebug_DHCSR_DBGKEY_Pos)       /*!< Core
 891:./cmsis/core/core_cm4.h **** 
 892:./cmsis/core/core_cm4.h **** #define CoreDebug_DHCSR_S_RESET_ST_Pos     25                                             /*!< Core
 893:./cmsis/core/core_cm4.h **** #define CoreDebug_DHCSR_S_RESET_ST_Msk     (1UL << CoreDebug_DHCSR_S_RESET_ST_Pos)        /*!< Core
 894:./cmsis/core/core_cm4.h **** 
 895:./cmsis/core/core_cm4.h **** #define CoreDebug_DHCSR_S_RETIRE_ST_Pos    24                                             /*!< Core
 896:./cmsis/core/core_cm4.h **** #define CoreDebug_DHCSR_S_RETIRE_ST_Msk    (1UL << CoreDebug_DHCSR_S_RETIRE_ST_Pos)       /*!< Core
 897:./cmsis/core/core_cm4.h **** 
 898:./cmsis/core/core_cm4.h **** #define CoreDebug_DHCSR_S_LOCKUP_Pos       19                                             /*!< Core
 899:./cmsis/core/core_cm4.h **** #define CoreDebug_DHCSR_S_LOCKUP_Msk       (1UL << CoreDebug_DHCSR_S_LOCKUP_Pos)          /*!< Core
 900:./cmsis/core/core_cm4.h **** 
 901:./cmsis/core/core_cm4.h **** #define CoreDebug_DHCSR_S_SLEEP_Pos        18                                             /*!< Core
 902:./cmsis/core/core_cm4.h **** #define CoreDebug_DHCSR_S_SLEEP_Msk        (1UL << CoreDebug_DHCSR_S_SLEEP_Pos)           /*!< Core
 903:./cmsis/core/core_cm4.h **** 
 904:./cmsis/core/core_cm4.h **** #define CoreDebug_DHCSR_S_HALT_Pos         17                                             /*!< Core
 905:./cmsis/core/core_cm4.h **** #define CoreDebug_DHCSR_S_HALT_Msk         (1UL << CoreDebug_DHCSR_S_HALT_Pos)            /*!< Core
 906:./cmsis/core/core_cm4.h **** 
 907:./cmsis/core/core_cm4.h **** #define CoreDebug_DHCSR_S_REGRDY_Pos       16                                             /*!< Core
 908:./cmsis/core/core_cm4.h **** #define CoreDebug_DHCSR_S_REGRDY_Msk       (1UL << CoreDebug_DHCSR_S_REGRDY_Pos)          /*!< Core
 909:./cmsis/core/core_cm4.h **** 
 910:./cmsis/core/core_cm4.h **** #define CoreDebug_DHCSR_C_SNAPSTALL_Pos     5                                             /*!< Core
 911:./cmsis/core/core_cm4.h **** #define CoreDebug_DHCSR_C_SNAPSTALL_Msk    (1UL << CoreDebug_DHCSR_C_SNAPSTALL_Pos)       /*!< Core
 912:./cmsis/core/core_cm4.h **** 
 913:./cmsis/core/core_cm4.h **** #define CoreDebug_DHCSR_C_MASKINTS_Pos      3                                             /*!< Core
 914:./cmsis/core/core_cm4.h **** #define CoreDebug_DHCSR_C_MASKINTS_Msk     (1UL << CoreDebug_DHCSR_C_MASKINTS_Pos)        /*!< Core
 915:./cmsis/core/core_cm4.h **** 
 916:./cmsis/core/core_cm4.h **** #define CoreDebug_DHCSR_C_STEP_Pos          2                                             /*!< Core
 917:./cmsis/core/core_cm4.h **** #define CoreDebug_DHCSR_C_STEP_Msk         (1UL << CoreDebug_DHCSR_C_STEP_Pos)            /*!< Core
 918:./cmsis/core/core_cm4.h **** 
 919:./cmsis/core/core_cm4.h **** #define CoreDebug_DHCSR_C_HALT_Pos          1                                             /*!< Core
 920:./cmsis/core/core_cm4.h **** #define CoreDebug_DHCSR_C_HALT_Msk         (1UL << CoreDebug_DHCSR_C_HALT_Pos)            /*!< Core
 921:./cmsis/core/core_cm4.h **** 
 922:./cmsis/core/core_cm4.h **** #define CoreDebug_DHCSR_C_DEBUGEN_Pos       0                                             /*!< Core
 923:./cmsis/core/core_cm4.h **** #define CoreDebug_DHCSR_C_DEBUGEN_Msk      (1UL << CoreDebug_DHCSR_C_DEBUGEN_Pos)         /*!< Core
ARM GAS  C:\Users\CNous\AppData\Local\Temp\ccmZfnu5.s 			page 40


 924:./cmsis/core/core_cm4.h **** 
 925:./cmsis/core/core_cm4.h **** /* Debug Core Register Selector Register */
 926:./cmsis/core/core_cm4.h **** #define CoreDebug_DCRSR_REGWnR_Pos         16                                             /*!< Core
 927:./cmsis/core/core_cm4.h **** #define CoreDebug_DCRSR_REGWnR_Msk         (1UL << CoreDebug_DCRSR_REGWnR_Pos)            /*!< Core
 928:./cmsis/core/core_cm4.h **** 
 929:./cmsis/core/core_cm4.h **** #define CoreDebug_DCRSR_REGSEL_Pos          0                                             /*!< Core
 930:./cmsis/core/core_cm4.h **** #define CoreDebug_DCRSR_REGSEL_Msk         (0x1FUL << CoreDebug_DCRSR_REGSEL_Pos)         /*!< Core
 931:./cmsis/core/core_cm4.h **** 
 932:./cmsis/core/core_cm4.h **** /* Debug Exception and Monitor Control Register */
 933:./cmsis/core/core_cm4.h **** #define CoreDebug_DEMCR_TRCENA_Pos         24                                             /*!< Core
 934:./cmsis/core/core_cm4.h **** #define CoreDebug_DEMCR_TRCENA_Msk         (1UL << CoreDebug_DEMCR_TRCENA_Pos)            /*!< Core
 935:./cmsis/core/core_cm4.h **** 
 936:./cmsis/core/core_cm4.h **** #define CoreDebug_DEMCR_MON_REQ_Pos        19                                             /*!< Core
 937:./cmsis/core/core_cm4.h **** #define CoreDebug_DEMCR_MON_REQ_Msk        (1UL << CoreDebug_DEMCR_MON_REQ_Pos)           /*!< Core
 938:./cmsis/core/core_cm4.h **** 
 939:./cmsis/core/core_cm4.h **** #define CoreDebug_DEMCR_MON_STEP_Pos       18                                             /*!< Core
 940:./cmsis/core/core_cm4.h **** #define CoreDebug_DEMCR_MON_STEP_Msk       (1UL << CoreDebug_DEMCR_MON_STEP_Pos)          /*!< Core
 941:./cmsis/core/core_cm4.h **** 
 942:./cmsis/core/core_cm4.h **** #define CoreDebug_DEMCR_MON_PEND_Pos       17                                             /*!< Core
 943:./cmsis/core/core_cm4.h **** #define CoreDebug_DEMCR_MON_PEND_Msk       (1UL << CoreDebug_DEMCR_MON_PEND_Pos)          /*!< Core
 944:./cmsis/core/core_cm4.h **** 
 945:./cmsis/core/core_cm4.h **** #define CoreDebug_DEMCR_MON_EN_Pos         16                                             /*!< Core
 946:./cmsis/core/core_cm4.h **** #define CoreDebug_DEMCR_MON_EN_Msk         (1UL << CoreDebug_DEMCR_MON_EN_Pos)            /*!< Core
 947:./cmsis/core/core_cm4.h **** 
 948:./cmsis/core/core_cm4.h **** #define CoreDebug_DEMCR_VC_HARDERR_Pos     10                                             /*!< Core
 949:./cmsis/core/core_cm4.h **** #define CoreDebug_DEMCR_VC_HARDERR_Msk     (1UL << CoreDebug_DEMCR_VC_HARDERR_Pos)        /*!< Core
 950:./cmsis/core/core_cm4.h **** 
 951:./cmsis/core/core_cm4.h **** #define CoreDebug_DEMCR_VC_INTERR_Pos       9                                             /*!< Core
 952:./cmsis/core/core_cm4.h **** #define CoreDebug_DEMCR_VC_INTERR_Msk      (1UL << CoreDebug_DEMCR_VC_INTERR_Pos)         /*!< Core
 953:./cmsis/core/core_cm4.h **** 
 954:./cmsis/core/core_cm4.h **** #define CoreDebug_DEMCR_VC_BUSERR_Pos       8                                             /*!< Core
 955:./cmsis/core/core_cm4.h **** #define CoreDebug_DEMCR_VC_BUSERR_Msk      (1UL << CoreDebug_DEMCR_VC_BUSERR_Pos)         /*!< Core
 956:./cmsis/core/core_cm4.h **** 
 957:./cmsis/core/core_cm4.h **** #define CoreDebug_DEMCR_VC_STATERR_Pos      7                                             /*!< Core
 958:./cmsis/core/core_cm4.h **** #define CoreDebug_DEMCR_VC_STATERR_Msk     (1UL << CoreDebug_DEMCR_VC_STATERR_Pos)        /*!< Core
 959:./cmsis/core/core_cm4.h **** 
 960:./cmsis/core/core_cm4.h **** #define CoreDebug_DEMCR_VC_CHKERR_Pos       6                                             /*!< Core
 961:./cmsis/core/core_cm4.h **** #define CoreDebug_DEMCR_VC_CHKERR_Msk      (1UL << CoreDebug_DEMCR_VC_CHKERR_Pos)         /*!< Core
 962:./cmsis/core/core_cm4.h **** 
 963:./cmsis/core/core_cm4.h **** #define CoreDebug_DEMCR_VC_NOCPERR_Pos      5                                             /*!< Core
 964:./cmsis/core/core_cm4.h **** #define CoreDebug_DEMCR_VC_NOCPERR_Msk     (1UL << CoreDebug_DEMCR_VC_NOCPERR_Pos)        /*!< Core
 965:./cmsis/core/core_cm4.h **** 
 966:./cmsis/core/core_cm4.h **** #define CoreDebug_DEMCR_VC_MMERR_Pos        4                                             /*!< Core
 967:./cmsis/core/core_cm4.h **** #define CoreDebug_DEMCR_VC_MMERR_Msk       (1UL << CoreDebug_DEMCR_VC_MMERR_Pos)          /*!< Core
 968:./cmsis/core/core_cm4.h **** 
 969:./cmsis/core/core_cm4.h **** #define CoreDebug_DEMCR_VC_CORERESET_Pos    0                                             /*!< Core
 970:./cmsis/core/core_cm4.h **** #define CoreDebug_DEMCR_VC_CORERESET_Msk   (1UL << CoreDebug_DEMCR_VC_CORERESET_Pos)      /*!< Core
 971:./cmsis/core/core_cm4.h **** 
 972:./cmsis/core/core_cm4.h **** /*@} end of group CMSIS_CoreDebug */
 973:./cmsis/core/core_cm4.h **** 
 974:./cmsis/core/core_cm4.h **** 
 975:./cmsis/core/core_cm4.h **** /** \ingroup  CMSIS_core_register
 976:./cmsis/core/core_cm4.h ****   @{
 977:./cmsis/core/core_cm4.h ****  */
 978:./cmsis/core/core_cm4.h **** 
 979:./cmsis/core/core_cm4.h **** /* Memory mapping of Cortex-M4 Hardware */
 980:./cmsis/core/core_cm4.h **** #define SCS_BASE            (0xE000E000UL)                            /*!< System Control Space Bas
ARM GAS  C:\Users\CNous\AppData\Local\Temp\ccmZfnu5.s 			page 41


 981:./cmsis/core/core_cm4.h **** #define ITM_BASE            (0xE0000000UL)                            /*!< ITM Base Address        
 982:./cmsis/core/core_cm4.h **** #define CoreDebug_BASE      (0xE000EDF0UL)                            /*!< Core Debug Base Address 
 983:./cmsis/core/core_cm4.h **** #define SysTick_BASE        (SCS_BASE +  0x0010UL)                    /*!< SysTick Base Address    
 984:./cmsis/core/core_cm4.h **** #define NVIC_BASE           (SCS_BASE +  0x0100UL)                    /*!< NVIC Base Address       
 985:./cmsis/core/core_cm4.h **** #define SCB_BASE            (SCS_BASE +  0x0D00UL)                    /*!< System Control Block Bas
 986:./cmsis/core/core_cm4.h **** 
 987:./cmsis/core/core_cm4.h **** #define SCnSCB              ((SCnSCB_Type    *)     SCS_BASE      )   /*!< System control Register 
 988:./cmsis/core/core_cm4.h **** #define SCB                 ((SCB_Type       *)     SCB_BASE      )   /*!< SCB configuration struct
 989:./cmsis/core/core_cm4.h **** #define SysTick             ((SysTick_Type   *)     SysTick_BASE  )   /*!< SysTick configuration st
 990:./cmsis/core/core_cm4.h **** #define NVIC                ((NVIC_Type      *)     NVIC_BASE     )   /*!< NVIC configuration struc
 991:./cmsis/core/core_cm4.h **** #define ITM                 ((ITM_Type       *)     ITM_BASE      )   /*!< ITM configuration struct
 992:./cmsis/core/core_cm4.h **** #define CoreDebug           ((CoreDebug_Type *)     CoreDebug_BASE)   /*!< Core Debug configuration
 993:./cmsis/core/core_cm4.h **** 
 994:./cmsis/core/core_cm4.h **** #if (__MPU_PRESENT == 1)
 995:./cmsis/core/core_cm4.h ****   #define MPU_BASE          (SCS_BASE +  0x0D90UL)                    /*!< Memory Protection Unit  
 996:./cmsis/core/core_cm4.h ****   #define MPU               ((MPU_Type       *)     MPU_BASE      )   /*!< Memory Protection Unit  
 997:./cmsis/core/core_cm4.h **** #endif
 998:./cmsis/core/core_cm4.h **** 
 999:./cmsis/core/core_cm4.h **** #if (__FPU_PRESENT == 1)
1000:./cmsis/core/core_cm4.h ****   #define FPU_BASE          (SCS_BASE +  0x0F30UL)                    /*!< Floating Point Unit     
1001:./cmsis/core/core_cm4.h ****   #define FPU               ((FPU_Type       *)     FPU_BASE      )   /*!< Floating Point Unit     
1002:./cmsis/core/core_cm4.h **** #endif
1003:./cmsis/core/core_cm4.h **** 
1004:./cmsis/core/core_cm4.h **** /*@} */
1005:./cmsis/core/core_cm4.h **** 
1006:./cmsis/core/core_cm4.h **** 
1007:./cmsis/core/core_cm4.h **** 
1008:./cmsis/core/core_cm4.h **** /*******************************************************************************
1009:./cmsis/core/core_cm4.h ****  *                Hardware Abstraction Layer
1010:./cmsis/core/core_cm4.h ****  ******************************************************************************/
1011:./cmsis/core/core_cm4.h **** /** \defgroup CMSIS_Core_FunctionInterface CMSIS Core Function Interface
1012:./cmsis/core/core_cm4.h ****   Core Function Interface contains:
1013:./cmsis/core/core_cm4.h ****   - Core NVIC Functions
1014:./cmsis/core/core_cm4.h ****   - Core SysTick Functions
1015:./cmsis/core/core_cm4.h ****   - Core Debug Functions
1016:./cmsis/core/core_cm4.h ****   - Core Register Access Functions
1017:./cmsis/core/core_cm4.h **** */
1018:./cmsis/core/core_cm4.h **** 
1019:./cmsis/core/core_cm4.h **** 
1020:./cmsis/core/core_cm4.h **** 
1021:./cmsis/core/core_cm4.h **** /* ##########################   NVIC functions  #################################### */
1022:./cmsis/core/core_cm4.h **** /** \ingroup  CMSIS_Core_FunctionInterface
1023:./cmsis/core/core_cm4.h ****     \defgroup CMSIS_Core_NVICFunctions CMSIS Core NVIC Functions
1024:./cmsis/core/core_cm4.h ****   @{
1025:./cmsis/core/core_cm4.h ****  */
1026:./cmsis/core/core_cm4.h **** 
1027:./cmsis/core/core_cm4.h **** /** \brief  Set Priority Grouping
1028:./cmsis/core/core_cm4.h **** 
1029:./cmsis/core/core_cm4.h ****   This function sets the priority grouping field using the required unlock sequence.
1030:./cmsis/core/core_cm4.h ****   The parameter PriorityGroup is assigned to the field SCB->AIRCR [10:8] PRIGROUP field.
1031:./cmsis/core/core_cm4.h ****   Only values from 0..7 are used.
1032:./cmsis/core/core_cm4.h ****   In case of a conflict between priority grouping and available
1033:./cmsis/core/core_cm4.h ****   priority bits (__NVIC_PRIO_BITS) the smallest possible priority group is set.
1034:./cmsis/core/core_cm4.h **** 
1035:./cmsis/core/core_cm4.h ****     \param [in]      PriorityGroup  Priority grouping field
1036:./cmsis/core/core_cm4.h ****  */
1037:./cmsis/core/core_cm4.h **** static __INLINE void NVIC_SetPriorityGrouping(uint32_t PriorityGroup)
ARM GAS  C:\Users\CNous\AppData\Local\Temp\ccmZfnu5.s 			page 42


1038:./cmsis/core/core_cm4.h **** {
1039:./cmsis/core/core_cm4.h ****   uint32_t reg_value;
1040:./cmsis/core/core_cm4.h ****   uint32_t PriorityGroupTmp = (PriorityGroup & (uint32_t)0x07);               /* only values 0..7 a
1041:./cmsis/core/core_cm4.h **** 
1042:./cmsis/core/core_cm4.h ****   reg_value  =  SCB->AIRCR;                                                   /* read old register 
1043:./cmsis/core/core_cm4.h ****   reg_value &= ~(SCB_AIRCR_VECTKEY_Msk | SCB_AIRCR_PRIGROUP_Msk);             /* clear bits to chan
1044:./cmsis/core/core_cm4.h ****   reg_value  =  (reg_value                                 |
1045:./cmsis/core/core_cm4.h ****                 ((uint32_t)0x5FA << SCB_AIRCR_VECTKEY_Pos) |
1046:./cmsis/core/core_cm4.h ****                 (PriorityGroupTmp << 8));                                     /* Insert write key a
1047:./cmsis/core/core_cm4.h ****   SCB->AIRCR =  reg_value;
1048:./cmsis/core/core_cm4.h **** }
1049:./cmsis/core/core_cm4.h **** 
1050:./cmsis/core/core_cm4.h **** 
1051:./cmsis/core/core_cm4.h **** /** \brief  Get Priority Grouping
1052:./cmsis/core/core_cm4.h **** 
1053:./cmsis/core/core_cm4.h ****   This function gets the priority grouping from NVIC Interrupt Controller.
1054:./cmsis/core/core_cm4.h ****   Priority grouping is SCB->AIRCR [10:8] PRIGROUP field.
1055:./cmsis/core/core_cm4.h **** 
1056:./cmsis/core/core_cm4.h ****     \return                Priority grouping field
1057:./cmsis/core/core_cm4.h ****  */
1058:./cmsis/core/core_cm4.h **** static __INLINE uint32_t NVIC_GetPriorityGrouping(void)
1059:./cmsis/core/core_cm4.h **** {
1060:./cmsis/core/core_cm4.h ****   return ((SCB->AIRCR & SCB_AIRCR_PRIGROUP_Msk) >> SCB_AIRCR_PRIGROUP_Pos);   /* read priority grou
1061:./cmsis/core/core_cm4.h **** }
1062:./cmsis/core/core_cm4.h **** 
1063:./cmsis/core/core_cm4.h **** 
1064:./cmsis/core/core_cm4.h **** /** \brief  Enable External Interrupt
1065:./cmsis/core/core_cm4.h **** 
1066:./cmsis/core/core_cm4.h ****     This function enables a device specific interrupt in the NVIC interrupt controller.
1067:./cmsis/core/core_cm4.h ****     The interrupt number cannot be a negative value.
1068:./cmsis/core/core_cm4.h **** 
1069:./cmsis/core/core_cm4.h ****     \param [in]      IRQn  Number of the external interrupt to enable
1070:./cmsis/core/core_cm4.h ****  */
1071:./cmsis/core/core_cm4.h **** static __INLINE void NVIC_EnableIRQ(IRQn_Type IRQn)
1072:./cmsis/core/core_cm4.h **** {
1073:./cmsis/core/core_cm4.h **** /*  NVIC->ISER[((uint32_t)(IRQn) >> 5)] = (1 << ((uint32_t)(IRQn) & 0x1F));  enable interrupt */
1074:./cmsis/core/core_cm4.h ****   NVIC->ISER[(uint32_t)((int32_t)IRQn) >> 5] = (uint32_t)(1 << ((uint32_t)((int32_t)IRQn) & (uint32
1075:./cmsis/core/core_cm4.h **** }
1076:./cmsis/core/core_cm4.h **** 
1077:./cmsis/core/core_cm4.h **** 
1078:./cmsis/core/core_cm4.h **** /** \brief  Disable External Interrupt
1079:./cmsis/core/core_cm4.h **** 
1080:./cmsis/core/core_cm4.h ****     This function disables a device specific interrupt in the NVIC interrupt controller.
1081:./cmsis/core/core_cm4.h ****     The interrupt number cannot be a negative value.
1082:./cmsis/core/core_cm4.h **** 
1083:./cmsis/core/core_cm4.h ****     \param [in]      IRQn  Number of the external interrupt to disable
1084:./cmsis/core/core_cm4.h ****  */
1085:./cmsis/core/core_cm4.h **** static __INLINE void NVIC_DisableIRQ(IRQn_Type IRQn)
1086:./cmsis/core/core_cm4.h **** {
1087:./cmsis/core/core_cm4.h ****   NVIC->ICER[((uint32_t)(IRQn) >> 5)] = (1 << ((uint32_t)(IRQn) & 0x1F)); /* disable interrupt */
1088:./cmsis/core/core_cm4.h **** }
1089:./cmsis/core/core_cm4.h **** 
1090:./cmsis/core/core_cm4.h **** 
1091:./cmsis/core/core_cm4.h **** /** \brief  Get Pending Interrupt
1092:./cmsis/core/core_cm4.h **** 
1093:./cmsis/core/core_cm4.h ****     This function reads the pending register in the NVIC and returns the pending bit
1094:./cmsis/core/core_cm4.h ****     for the specified interrupt.
ARM GAS  C:\Users\CNous\AppData\Local\Temp\ccmZfnu5.s 			page 43


1095:./cmsis/core/core_cm4.h **** 
1096:./cmsis/core/core_cm4.h ****     \param [in]      IRQn  Number of the interrupt for get pending
1097:./cmsis/core/core_cm4.h ****     \return             0  Interrupt status is not pending
1098:./cmsis/core/core_cm4.h ****     \return             1  Interrupt status is pending
1099:./cmsis/core/core_cm4.h ****  */
1100:./cmsis/core/core_cm4.h **** static __INLINE uint32_t NVIC_GetPendingIRQ(IRQn_Type IRQn)
1101:./cmsis/core/core_cm4.h **** {
1102:./cmsis/core/core_cm4.h ****   return((uint32_t) ((NVIC->ISPR[(uint32_t)(IRQn) >> 5] & (1 << ((uint32_t)(IRQn) & 0x1F)))?1:0)); 
1103:./cmsis/core/core_cm4.h **** }
1104:./cmsis/core/core_cm4.h **** 
1105:./cmsis/core/core_cm4.h **** 
1106:./cmsis/core/core_cm4.h **** /** \brief  Set Pending Interrupt
1107:./cmsis/core/core_cm4.h **** 
1108:./cmsis/core/core_cm4.h ****     This function sets the pending bit for the specified interrupt.
1109:./cmsis/core/core_cm4.h ****     The interrupt number cannot be a negative value.
1110:./cmsis/core/core_cm4.h **** 
1111:./cmsis/core/core_cm4.h ****     \param [in]      IRQn  Number of the interrupt for set pending
1112:./cmsis/core/core_cm4.h ****  */
1113:./cmsis/core/core_cm4.h **** static __INLINE void NVIC_SetPendingIRQ(IRQn_Type IRQn)
1114:./cmsis/core/core_cm4.h **** {
1115:./cmsis/core/core_cm4.h ****   NVIC->ISPR[((uint32_t)(IRQn) >> 5)] = (1 << ((uint32_t)(IRQn) & 0x1F)); /* set interrupt pending 
1116:./cmsis/core/core_cm4.h **** }
1117:./cmsis/core/core_cm4.h **** 
1118:./cmsis/core/core_cm4.h **** 
1119:./cmsis/core/core_cm4.h **** /** \brief  Clear Pending Interrupt
1120:./cmsis/core/core_cm4.h **** 
1121:./cmsis/core/core_cm4.h ****     This function clears the pending bit for the specified interrupt.
1122:./cmsis/core/core_cm4.h ****     The interrupt number cannot be a negative value.
1123:./cmsis/core/core_cm4.h **** 
1124:./cmsis/core/core_cm4.h ****     \param [in]      IRQn  Number of the interrupt for clear pending
1125:./cmsis/core/core_cm4.h ****  */
1126:./cmsis/core/core_cm4.h **** static __INLINE void NVIC_ClearPendingIRQ(IRQn_Type IRQn)
1127:./cmsis/core/core_cm4.h **** {
1128:./cmsis/core/core_cm4.h ****   NVIC->ICPR[((uint32_t)(IRQn) >> 5)] = (1 << ((uint32_t)(IRQn) & 0x1F)); /* Clear pending interrup
1129:./cmsis/core/core_cm4.h **** }
1130:./cmsis/core/core_cm4.h **** 
1131:./cmsis/core/core_cm4.h **** 
1132:./cmsis/core/core_cm4.h **** /** \brief  Get Active Interrupt
1133:./cmsis/core/core_cm4.h **** 
1134:./cmsis/core/core_cm4.h ****     This function reads the active register in NVIC and returns the active bit.
1135:./cmsis/core/core_cm4.h ****     \param [in]      IRQn  Number of the interrupt for get active
1136:./cmsis/core/core_cm4.h ****     \return             0  Interrupt status is not active
1137:./cmsis/core/core_cm4.h ****     \return             1  Interrupt status is active
1138:./cmsis/core/core_cm4.h ****  */
1139:./cmsis/core/core_cm4.h **** static __INLINE uint32_t NVIC_GetActive(IRQn_Type IRQn)
1140:./cmsis/core/core_cm4.h **** {
1141:./cmsis/core/core_cm4.h ****   return((uint32_t)((NVIC->IABR[(uint32_t)(IRQn) >> 5] & (1 << ((uint32_t)(IRQn) & 0x1F)))?1:0)); /
1142:./cmsis/core/core_cm4.h **** }
1143:./cmsis/core/core_cm4.h **** 
1144:./cmsis/core/core_cm4.h **** 
1145:./cmsis/core/core_cm4.h **** /** \brief  Set Interrupt Priority
1146:./cmsis/core/core_cm4.h **** 
1147:./cmsis/core/core_cm4.h ****     This function sets the priority for the specified interrupt. The interrupt
1148:./cmsis/core/core_cm4.h ****     number can be positive to specify an external (device specific)
1149:./cmsis/core/core_cm4.h ****     interrupt, or negative to specify an internal (core) interrupt.
1150:./cmsis/core/core_cm4.h **** 
1151:./cmsis/core/core_cm4.h ****     Note: The priority cannot be set for every core interrupt.
ARM GAS  C:\Users\CNous\AppData\Local\Temp\ccmZfnu5.s 			page 44


1152:./cmsis/core/core_cm4.h **** 
1153:./cmsis/core/core_cm4.h ****     \param [in]      IRQn  Number of the interrupt for set priority
1154:./cmsis/core/core_cm4.h ****     \param [in]  priority  Priority to set
1155:./cmsis/core/core_cm4.h ****  */
1156:./cmsis/core/core_cm4.h **** static __INLINE void NVIC_SetPriority(IRQn_Type IRQn, uint32_t priority)
1157:./cmsis/core/core_cm4.h **** {
1158:./cmsis/core/core_cm4.h ****   if(IRQn < 0) {
1159:./cmsis/core/core_cm4.h ****     SCB->SHP[((uint32_t)(IRQn) & 0xF)-4] = ((priority << (8 - __NVIC_PRIO_BITS)) & 0xff); } /* set 
1160:./cmsis/core/core_cm4.h ****   else {
1161:./cmsis/core/core_cm4.h ****     NVIC->IP[(uint32_t)(IRQn)] = ((priority << (8 - __NVIC_PRIO_BITS)) & 0xff);    }        /* set 
1162:./cmsis/core/core_cm4.h **** }
1163:./cmsis/core/core_cm4.h **** 
1164:./cmsis/core/core_cm4.h **** 
1165:./cmsis/core/core_cm4.h **** /** \brief  Get Interrupt Priority
1166:./cmsis/core/core_cm4.h **** 
1167:./cmsis/core/core_cm4.h ****     This function reads the priority for the specified interrupt. The interrupt
1168:./cmsis/core/core_cm4.h ****     number can be positive to specify an external (device specific)
1169:./cmsis/core/core_cm4.h ****     interrupt, or negative to specify an internal (core) interrupt.
1170:./cmsis/core/core_cm4.h **** 
1171:./cmsis/core/core_cm4.h ****     The returned priority value is automatically aligned to the implemented
1172:./cmsis/core/core_cm4.h ****     priority bits of the microcontroller.
1173:./cmsis/core/core_cm4.h **** 
1174:./cmsis/core/core_cm4.h ****     \param [in]   IRQn  Number of the interrupt for get priority
1175:./cmsis/core/core_cm4.h ****     \return             Interrupt Priority
1176:./cmsis/core/core_cm4.h ****  */
1177:./cmsis/core/core_cm4.h **** static __INLINE uint32_t NVIC_GetPriority(IRQn_Type IRQn)
1178:./cmsis/core/core_cm4.h **** {
1179:./cmsis/core/core_cm4.h **** 
1180:./cmsis/core/core_cm4.h ****   if(IRQn < 0) {
1181:./cmsis/core/core_cm4.h ****     return((uint32_t)(SCB->SHP[((uint32_t)(IRQn) & 0xF)-4] >> (8 - __NVIC_PRIO_BITS)));  } /* get p
1182:./cmsis/core/core_cm4.h ****   else {
1183:./cmsis/core/core_cm4.h ****     return((uint32_t)(NVIC->IP[(uint32_t)(IRQn)]           >> (8 - __NVIC_PRIO_BITS)));  } /* get p
1184:./cmsis/core/core_cm4.h **** }
1185:./cmsis/core/core_cm4.h **** 
1186:./cmsis/core/core_cm4.h **** 
1187:./cmsis/core/core_cm4.h **** /** \brief  Encode Priority
1188:./cmsis/core/core_cm4.h **** 
1189:./cmsis/core/core_cm4.h ****     This function encodes the priority for an interrupt with the given priority group,
1190:./cmsis/core/core_cm4.h ****     preemptive priority value and sub priority value.
1191:./cmsis/core/core_cm4.h ****     In case of a conflict between priority grouping and available
1192:./cmsis/core/core_cm4.h ****     priority bits (__NVIC_PRIO_BITS) the samllest possible priority group is set.
1193:./cmsis/core/core_cm4.h **** 
1194:./cmsis/core/core_cm4.h ****     The returned priority value can be used for NVIC_SetPriority(...) function
1195:./cmsis/core/core_cm4.h **** 
1196:./cmsis/core/core_cm4.h ****     \param [in]     PriorityGroup  Used priority group
1197:./cmsis/core/core_cm4.h ****     \param [in]   PreemptPriority  Preemptive priority value (starting from 0)
1198:./cmsis/core/core_cm4.h ****     \param [in]       SubPriority  Sub priority value (starting from 0)
1199:./cmsis/core/core_cm4.h ****     \return                        Encoded priority for the interrupt
1200:./cmsis/core/core_cm4.h ****  */
1201:./cmsis/core/core_cm4.h **** static __INLINE uint32_t NVIC_EncodePriority (uint32_t PriorityGroup, uint32_t PreemptPriority, uin
1202:./cmsis/core/core_cm4.h **** {
1203:./cmsis/core/core_cm4.h ****   uint32_t PriorityGroupTmp = (PriorityGroup & 0x07);          /* only values 0..7 are used        
1204:./cmsis/core/core_cm4.h ****   uint32_t PreemptPriorityBits;
1205:./cmsis/core/core_cm4.h ****   uint32_t SubPriorityBits;
1206:./cmsis/core/core_cm4.h **** 
1207:./cmsis/core/core_cm4.h ****   PreemptPriorityBits = ((7 - PriorityGroupTmp) > __NVIC_PRIO_BITS) ? __NVIC_PRIO_BITS : 7 - Priori
1208:./cmsis/core/core_cm4.h ****   SubPriorityBits     = ((PriorityGroupTmp + __NVIC_PRIO_BITS) < 7) ? 0 : PriorityGroupTmp - 7 + __
ARM GAS  C:\Users\CNous\AppData\Local\Temp\ccmZfnu5.s 			page 45


1209:./cmsis/core/core_cm4.h **** 
1210:./cmsis/core/core_cm4.h ****   return (
1211:./cmsis/core/core_cm4.h ****            ((PreemptPriority & ((1 << (PreemptPriorityBits)) - 1)) << SubPriorityBits) |
1212:./cmsis/core/core_cm4.h ****            ((SubPriority     & ((1 << (SubPriorityBits    )) - 1)))
1213:./cmsis/core/core_cm4.h ****          );
1214:./cmsis/core/core_cm4.h **** }
1215:./cmsis/core/core_cm4.h **** 
1216:./cmsis/core/core_cm4.h **** 
1217:./cmsis/core/core_cm4.h **** /** \brief  Decode Priority
1218:./cmsis/core/core_cm4.h **** 
1219:./cmsis/core/core_cm4.h ****     This function decodes an interrupt priority value with the given priority group to
1220:./cmsis/core/core_cm4.h ****     preemptive priority value and sub priority value.
1221:./cmsis/core/core_cm4.h ****     In case of a conflict between priority grouping and available
1222:./cmsis/core/core_cm4.h ****     priority bits (__NVIC_PRIO_BITS) the samllest possible priority group is set.
1223:./cmsis/core/core_cm4.h **** 
1224:./cmsis/core/core_cm4.h ****     The priority value can be retrieved with NVIC_GetPriority(...) function
1225:./cmsis/core/core_cm4.h **** 
1226:./cmsis/core/core_cm4.h ****     \param [in]         Priority   Priority value
1227:./cmsis/core/core_cm4.h ****     \param [in]     PriorityGroup  Used priority group
1228:./cmsis/core/core_cm4.h ****     \param [out] pPreemptPriority  Preemptive priority value (starting from 0)
1229:./cmsis/core/core_cm4.h ****     \param [out]     pSubPriority  Sub priority value (starting from 0)
1230:./cmsis/core/core_cm4.h ****  */
1231:./cmsis/core/core_cm4.h **** static __INLINE void NVIC_DecodePriority (uint32_t Priority, uint32_t PriorityGroup, uint32_t* pPre
1232:./cmsis/core/core_cm4.h **** {
1233:./cmsis/core/core_cm4.h ****   uint32_t PriorityGroupTmp = (PriorityGroup & 0x07);          /* only values 0..7 are used        
1234:./cmsis/core/core_cm4.h ****   uint32_t PreemptPriorityBits;
1235:./cmsis/core/core_cm4.h ****   uint32_t SubPriorityBits;
1236:./cmsis/core/core_cm4.h **** 
1237:./cmsis/core/core_cm4.h ****   PreemptPriorityBits = ((7 - PriorityGroupTmp) > __NVIC_PRIO_BITS) ? __NVIC_PRIO_BITS : 7 - Priori
1238:./cmsis/core/core_cm4.h ****   SubPriorityBits     = ((PriorityGroupTmp + __NVIC_PRIO_BITS) < 7) ? 0 : PriorityGroupTmp - 7 + __
1239:./cmsis/core/core_cm4.h **** 
1240:./cmsis/core/core_cm4.h ****   *pPreemptPriority = (Priority >> SubPriorityBits) & ((1 << (PreemptPriorityBits)) - 1);
1241:./cmsis/core/core_cm4.h ****   *pSubPriority     = (Priority                   ) & ((1 << (SubPriorityBits    )) - 1);
1242:./cmsis/core/core_cm4.h **** }
1243:./cmsis/core/core_cm4.h **** 
1244:./cmsis/core/core_cm4.h **** 
1245:./cmsis/core/core_cm4.h **** /** \brief  System Reset
1246:./cmsis/core/core_cm4.h **** 
1247:./cmsis/core/core_cm4.h ****     This function initiate a system reset request to reset the MCU.
1248:./cmsis/core/core_cm4.h ****  */
1249:./cmsis/core/core_cm4.h **** static __INLINE void NVIC_SystemReset(void)
1250:./cmsis/core/core_cm4.h **** {
1251:./cmsis/core/core_cm4.h ****   __DSB();                                                     /* Ensure all outstanding memory acc
1252:./cmsis/core/core_cm4.h ****                                                                   buffered write are completed befo
1253:./cmsis/core/core_cm4.h ****   SCB->AIRCR  = ((0x5FA << SCB_AIRCR_VECTKEY_Pos)      |
1254:./cmsis/core/core_cm4.h ****                  (SCB->AIRCR & SCB_AIRCR_PRIGROUP_Msk) |
1255:./cmsis/core/core_cm4.h ****                  SCB_AIRCR_SYSRESETREQ_Msk);                   /* Keep priority group unchanged */
1256:./cmsis/core/core_cm4.h ****   __DSB();                                                     /* Ensure completion of memory acces
1257:./cmsis/core/core_cm4.h ****   while(1);                                                    /* wait until reset */
1258:./cmsis/core/core_cm4.h **** }
1259:./cmsis/core/core_cm4.h **** 
1260:./cmsis/core/core_cm4.h **** /*@} end of CMSIS_Core_NVICFunctions */
1261:./cmsis/core/core_cm4.h **** 
1262:./cmsis/core/core_cm4.h **** 
1263:./cmsis/core/core_cm4.h **** 
1264:./cmsis/core/core_cm4.h **** /* ##################################    SysTick function  ########################################
1265:./cmsis/core/core_cm4.h **** /** \ingroup  CMSIS_Core_FunctionInterface
ARM GAS  C:\Users\CNous\AppData\Local\Temp\ccmZfnu5.s 			page 46


1266:./cmsis/core/core_cm4.h ****     \defgroup CMSIS_Core_SysTickFunctions CMSIS Core SysTick Functions
1267:./cmsis/core/core_cm4.h ****   @{
1268:./cmsis/core/core_cm4.h ****  */
1269:./cmsis/core/core_cm4.h **** 
1270:./cmsis/core/core_cm4.h **** #if (__Vendor_SysTickConfig == 0)
1271:./cmsis/core/core_cm4.h **** 
1272:./cmsis/core/core_cm4.h **** /** \brief  System Tick Configuration
1273:./cmsis/core/core_cm4.h **** 
1274:./cmsis/core/core_cm4.h ****     This function initialises the system tick timer and its interrupt and start the system tick tim
1275:./cmsis/core/core_cm4.h ****     Counter is in free running mode to generate periodical interrupts.
1276:./cmsis/core/core_cm4.h **** 
1277:./cmsis/core/core_cm4.h ****     \param [in]  ticks  Number of ticks between two interrupts
1278:./cmsis/core/core_cm4.h ****     \return          0  Function succeeded
1279:./cmsis/core/core_cm4.h ****     \return          1  Function failed
1280:./cmsis/core/core_cm4.h ****  */
1281:./cmsis/core/core_cm4.h **** static __INLINE uint32_t SysTick_Config(uint32_t ticks)
1282:./cmsis/core/core_cm4.h **** {
1283:./cmsis/core/core_cm4.h ****   if (ticks > SysTick_LOAD_RELOAD_Msk)  return (1);            /* Reload value impossible */
 767              		.loc 2 1283 0
 768 006a B2F1807F 		cmp	r2, #16777216	@ D.8619,
 769 006e 00D3     		bcc	.L32	@,
 770              	.L31:
 771 0070 FEE7     		b	.L31	@
 772              	.L32:
1284:./cmsis/core/core_cm4.h **** 
1285:./cmsis/core/core_cm4.h ****   SysTick->LOAD  = (ticks & SysTick_LOAD_RELOAD_Msk) - 1;      /* set reload register */
 773              		.loc 2 1285 0
 774 0072 4EF21003 		movw	r3, #57360	@ tmp156,
 775 0076 CEF20003 		movt	r3, 57344	@ tmp156,
 776              	.LBB10:
 777              	.LBB11:
1159:./cmsis/core/core_cm4.h ****     SCB->SHP[((uint32_t)(IRQn) & 0xF)-4] = ((priority << (8 - __NVIC_PRIO_BITS)) & 0xff); } /* set 
 778              		.loc 2 1159 0
 779 007a 4FF46D40 		mov	r0, #60672	@ tmp157,
 780              	.LBE11:
 781              	.LBE10:
 782              		.loc 2 1285 0
 783 007e 541E     		subs	r4, r2, #1	@ D.8618, D.8619,
 784              	.LBB14:
 785              	.LBB12:
1159:./cmsis/core/core_cm4.h ****     SCB->SHP[((uint32_t)(IRQn) & 0xF)-4] = ((priority << (8 - __NVIC_PRIO_BITS)) & 0xff); } /* set 
 786              		.loc 2 1159 0
 787 0080 CEF20000 		movt	r0, 57344	@ tmp157,
 788              	.LBE12:
 789              	.LBE14:
 790              		.loc 2 1285 0
 791 0084 5C60     		str	r4, [r3, #4]	@ D.8618, MEM[(struct SysTick_Type *)3758153744B].LOAD
 792              	.LVL60:
 793              	.LBB15:
 794              	.LBB13:
1159:./cmsis/core/core_cm4.h ****     SCB->SHP[((uint32_t)(IRQn) & 0xF)-4] = ((priority << (8 - __NVIC_PRIO_BITS)) & 0xff); } /* set 
 795              		.loc 2 1159 0
 796 0086 F024     		movs	r4, #240	@ tmp158,
 797 0088 80F82340 		strb	r4, [r0, #35]	@ tmp158, MEM[(struct SCB_Type *)3758157056B].SHP
 798              	.LBE13:
 799              	.LBE15:
1286:./cmsis/core/core_cm4.h ****   NVIC_SetPriority (SysTick_IRQn, (1<<__NVIC_PRIO_BITS) - 1);  /* set Priority for Cortex-M0 System
ARM GAS  C:\Users\CNous\AppData\Local\Temp\ccmZfnu5.s 			page 47


1287:./cmsis/core/core_cm4.h ****   SysTick->VAL   = 0;                                          /* Load the SysTick Counter Value */
 800              		.loc 2 1287 0
 801 008c 0020     		movs	r0, #0	@ tmp161,
1288:./cmsis/core/core_cm4.h ****   SysTick->CTRL  = SysTick_CTRL_CLKSOURCE_Msk |
 802              		.loc 2 1288 0
 803 008e 0724     		movs	r4, #7	@ tmp163,
1287:./cmsis/core/core_cm4.h ****   SysTick->VAL   = 0;                                          /* Load the SysTick Counter Value */
 804              		.loc 2 1287 0
 805 0090 9860     		str	r0, [r3, #8]	@ tmp161, MEM[(struct SysTick_Type *)3758153744B].VAL
 806              	.LBE9:
 807              	.LBE8:
 176:src/main.c    **** 	readpos = delayline;
 808              		.loc 1 176 0
 809 0092 1349     		ldr	r1, .L33+20	@ tmp165,
 810              	.LBB17:
 811              	.LBB16:
 812              		.loc 2 1288 0
 813 0094 1C60     		str	r4, [r3, #0]	@ tmp163, MEM[(struct SysTick_Type *)3758153744B].CTRL
 814              	.LBE16:
 815              	.LBE17:
 176:src/main.c    **** 	readpos = delayline;
 816              		.loc 1 176 0
 817 0096 134B     		ldr	r3, .L33+24	@ tmp164,
 177:src/main.c    **** 	writepos = delayline + DELAY;
 818              		.loc 1 177 0
 819 0098 01F54B42 		add	r2, r1, #51968	@ tmp167, tmp165,
 820              	.LVL61:
 176:src/main.c    **** 	readpos = delayline;
 821              		.loc 1 176 0
 822 009c 1960     		str	r1, [r3, #0]	@ tmp165, readpos
 177:src/main.c    **** 	writepos = delayline + DELAY;
 823              		.loc 1 177 0
 824 009e 1249     		ldr	r1, .L33+28	@ tmp166,
 825 00a0 2032     		adds	r2, r2, #32	@ tmp167, tmp167,
 826 00a2 0A60     		str	r2, [r1, #0]	@ tmp167, writepos
 179:src/main.c    **** 	sawtooth_active();
 827              		.loc 1 179 0
 828 00a4 FFF7FEFF 		bl	sawtooth_active	@
 829              	.LVL62:
 181:src/main.c    **** 	PhaserInit();
 830              		.loc 1 181 0
 831 00a8 FFF7FEFF 		bl	PhaserInit	@
 832              	.LVL63:
 183:src/main.c    **** 	EVAL_AUDIO_Init( OUTPUT_DEVICE_AUTO, VOL, SAMPLERATE);
 833              		.loc 1 183 0
 834 00ac 4621     		movs	r1, #70	@,
 835 00ae 4BF68032 		movw	r2, #48000	@,
 836 00b2 0420     		movs	r0, #4	@,
 837 00b4 FFF7FEFF 		bl	EVAL_AUDIO_Init	@
 838              	.LVL64:
 184:src/main.c    **** 	EVAL_AUDIO_Play((uint16_t*)audiobuff, BUFF_LEN);
 839              		.loc 1 184 0
 840 00b8 4FF42071 		mov	r1, #640	@,
 841 00bc 0B48     		ldr	r0, .L33+32	@,
 842 00be FFF7FEFF 		bl	EVAL_AUDIO_Play	@
 843              	.LVL65:
 844              	.L30:
ARM GAS  C:\Users\CNous\AppData\Local\Temp\ccmZfnu5.s 			page 48


 845 00c2 FEE7     		b	.L30	@
 846              	.LVL66:
 847              	.L27:
 165:src/main.c    **** 	if (ADC1ConvertedValues[0] < 31 ) potSet = 0; else potSet = 1;
 848              		.loc 1 165 0 discriminator 2
 849 00c4 044B     		ldr	r3, .L33+12	@ tmp148,
 850 00c6 0120     		movs	r0, #1	@ tmp149,
 851 00c8 1870     		strb	r0, [r3, #0]	@ tmp149, potSet
 852 00ca C3E7     		b	.L28	@
 853              	.L34:
 854              		.align	2
 855              	.L33:
 856 00cc 00000000 		.word	ADC1ConvertedValues
 857 00d0 00000000 		.word	sampleT
 858 00d4 00000000 		.word	envPhase
 859 00d8 00000000 		.word	potSet
 860 00dc 00000000 		.word	SystemCoreClock
 861 00e0 00000000 		.word	delayline
 862 00e4 00000000 		.word	readpos
 863 00e8 00000000 		.word	writepos
 864 00ec 00000000 		.word	audiobuff
 865              		.cfi_endproc
 866              	.LFE110:
 867              		.size	main, .-main
 868              		.global	TimingDelay
 869              		.comm	GPIO_InitStructure,8,4
 870              		.comm	RCC_Clocks,16,4
 871              		.global	accroche4
 872              		.global	accroche3
 873              		.global	accroche2
 874              		.global	accroche1
 875              		.comm	potSet,1,1
 876              		.global	param4b
 877              		.global	param3b
 878              		.global	param2b
 879              		.global	param1b
 880              		.global	param4
 881              		.global	param3
 882              		.global	param2
 883              		.global	param1
 884              		.comm	ADC1ConvertedValues,16,4
 885              		.global	delay1
 886              		.comm	_init,4,4
 887              		.comm	_j,4,4
 888              		.comm	_f,1312,4
 889              		.comm	_z,4,4
 890              		.comm	_w,4,4
 891              		.comm	_p,4,4
 892              		.comm	freq,4,4
 893              		.global	f2
 894              		.global	f1
 895              		.comm	phase2Step,4,4
 896              		.global	phase2
 897              		.global	pass
 898              		.global	reloadValue
 899              		.global	PrescalerValue
 900              		.comm	TIM_TimeBaseStructure,12,4
ARM GAS  C:\Users\CNous\AppData\Local\Temp\ccmZfnu5.s 			page 49


 901              		.global	seq1Number
 902              		.comm	seqIndex,4,4
 903              		.global	envTime
 904              		.comm	envPhase,4,4
 905              		.comm	envAmp,1,1
 906              		.comm	envTrigger,1,1
 907              		.global	fdb
 908              		.comm	old_dy,4,4
 909              		.global	coeff_a1
 910              		.comm	writepos,4,4
 911              		.comm	readpos,4,4
 912              		.global	delayVol
 913              		.comm	delayline,96008,4
 914              		.comm	sampleT,4,4
 915              		.comm	audiobuff,1280,4
 916              		.section	.data.f1,"aw",%progbits
 917              		.align	2
 918              		.type	f1, %object
 919              		.size	f1, 4
 920              	f1:
 921 0000 0000DC43 		.word	1138491392
 922              		.section	.data.f2,"aw",%progbits
 923              		.align	2
 924              		.type	f2, %object
 925              		.size	f2, 4
 926              	f2:
 927 0000 0000C040 		.word	1086324736
 928              		.section	.data.delay1,"aw",%progbits
 929              		.align	1
 930              		.type	delay1, %object
 931              		.size	delay1, 2
 932              	delay1:
 933 0000 0300     		.short	3
 934              		.section	.bss.accroche1,"aw",%nobits
 935              		.type	accroche1, %object
 936              		.size	accroche1, 1
 937              	accroche1:
 938 0000 00       		.space	1
 939              		.section	.bss.accroche2,"aw",%nobits
 940              		.type	accroche2, %object
 941              		.size	accroche2, 1
 942              	accroche2:
 943 0000 00       		.space	1
 944              		.section	.bss.accroche3,"aw",%nobits
 945              		.type	accroche3, %object
 946              		.size	accroche3, 1
 947              	accroche3:
 948 0000 00       		.space	1
 949              		.section	.bss.accroche4,"aw",%nobits
 950              		.type	accroche4, %object
 951              		.size	accroche4, 1
 952              	accroche4:
 953 0000 00       		.space	1
 954              		.section	.data.param3,"aw",%progbits
 955              		.align	1
 956              		.type	param3, %object
 957              		.size	param3, 2
ARM GAS  C:\Users\CNous\AppData\Local\Temp\ccmZfnu5.s 			page 50


 958              	param3:
 959 0000 3200     		.short	50
 960              		.section	.data.param4,"aw",%progbits
 961              		.align	1
 962              		.type	param4, %object
 963              		.size	param4, 2
 964              	param4:
 965 0000 3200     		.short	50
 966              		.section	.data.reloadValue,"aw",%progbits
 967              		.align	1
 968              		.set	.LANCHOR2,. + 0
 969              		.type	reloadValue, %object
 970              		.size	reloadValue, 2
 971              	reloadValue:
 972 0000 60EA     		.short	-5536
 973              		.section	.data.param2b,"aw",%progbits
 974              		.align	1
 975              		.type	param2b, %object
 976              		.size	param2b, 2
 977              	param2b:
 978 0000 3200     		.short	50
 979              		.section	.data.delayVol,"aw",%progbits
 980              		.align	2
 981              		.type	delayVol, %object
 982              		.size	delayVol, 4
 983              	delayVol:
 984 0000 CDCCCC3D 		.word	1036831949
 985              		.section	.data.param3b,"aw",%progbits
 986              		.align	1
 987              		.type	param3b, %object
 988              		.size	param3b, 2
 989              	param3b:
 990 0000 3200     		.short	50
 991              		.section	.data.param2,"aw",%progbits
 992              		.align	1
 993              		.type	param2, %object
 994              		.size	param2, 2
 995              	param2:
 996 0000 3200     		.short	50
 997              		.section	.data.coeff_a1,"aw",%progbits
 998              		.align	2
 999              		.type	coeff_a1, %object
 1000              		.size	coeff_a1, 4
 1001              	coeff_a1:
 1002 0000 9A99193F 		.word	1058642330
 1003              		.section	.data.param1b,"aw",%progbits
 1004              		.align	1
 1005              		.type	param1b, %object
 1006              		.size	param1b, 2
 1007              	param1b:
 1008 0000 3200     		.short	50
 1009              		.section	.data.param4b,"aw",%progbits
 1010              		.align	1
 1011              		.type	param4b, %object
 1012              		.size	param4b, 2
 1013              	param4b:
 1014 0000 3200     		.short	50
ARM GAS  C:\Users\CNous\AppData\Local\Temp\ccmZfnu5.s 			page 51


 1015              		.section	.data.PrescalerValue,"aw",%progbits
 1016              		.align	1
 1017              		.set	.LANCHOR1,. + 0
 1018              		.type	PrescalerValue, %object
 1019              		.size	PrescalerValue, 2
 1020              	PrescalerValue:
 1021 0000 5D01     		.short	349
 1022              		.section	.data.seq1Number,"aw",%progbits
 1023              		.align	2
 1024              		.type	seq1Number, %object
 1025              		.size	seq1Number, 4
 1026              	seq1Number:
 1027 0000 06000000 		.word	6
 1028              		.section	.data.envTime,"aw",%progbits
 1029              		.align	2
 1030              		.type	envTime, %object
 1031              		.size	envTime, 4
 1032              	envTime:
 1033 0000 9A99993E 		.word	1050253722
 1034              		.section	.data.param1,"aw",%progbits
 1035              		.align	1
 1036              		.type	param1, %object
 1037              		.size	param1, 2
 1038              	param1:
 1039 0000 3200     		.short	50
 1040              		.section	.bss.phase2,"aw",%nobits
 1041              		.align	2
 1042              		.type	phase2, %object
 1043              		.size	phase2, 4
 1044              	phase2:
 1045 0000 00000000 		.space	4
 1046              		.section	.data.TimingDelay,"aw",%progbits
 1047              		.align	2
 1048              		.set	.LANCHOR0,. + 0
 1049              		.type	TimingDelay, %object
 1050              		.size	TimingDelay, 4
 1051              	TimingDelay:
 1052 0000 32000000 		.word	50
 1053              		.section	.data.pass,"aw",%progbits
 1054              		.align	2
 1055              		.type	pass, %object
 1056              		.size	pass, 4
 1057              	pass:
 1058 0000 CDCC4C3F 		.word	1061997773
 1059              		.section	.data.fdb,"aw",%progbits
 1060              		.align	2
 1061              		.type	fdb, %object
 1062              		.size	fdb, 4
 1063              	fdb:
 1064 0000 CDCCCC3E 		.word	1053609165
 1065              		.text
 1066              	.Letext0:
 1067              		.file 3 "./cmsis/device/stm32f4xx.h"
 1068              		.file 4 "c:\\gnutoolsarmembedded\\4.7-2012q4\\bin\\../lib/gcc/arm-none-eabi/4.7.3/../../../../arm-
 1069              		.file 5 "./cmsis/device/stm32f4xx_adc.h"
 1070              		.file 6 "./cmsis/device/stm32f4xx_dma.h"
 1071              		.file 7 "./cmsis/device/stm32f4xx_gpio.h"
ARM GAS  C:\Users\CNous\AppData\Local\Temp\ccmZfnu5.s 			page 52


 1072              		.file 8 "./cmsis/device/stm32f4xx_rcc.h"
 1073              		.file 9 "./cmsis/device/stm32f4xx_tim.h"
 1074              		.file 10 "./cmsis/device/misc.h"
 1075              		.file 11 "./inc/stm32f4_discovery.h"
 1076              		.file 12 "./cmsis/device/system_stm32f4xx.h"
 1077              		.file 13 "./cmsis/device/stm32f4xx_rng.h"
 1078              		.file 14 "./inc/phaser2.h"
 1079              		.file 15 "./inc/stm32f4_discovery_audio_codec.h"