ARM GAS  C:\Users\CNous\AppData\Local\Temp\ccmZfnu5.s 			page 1


   1              		.syntax unified
   2              		.cpu cortex-m4
   3              		.eabi_attribute 27, 3	@ Tag_ABI_HardFP_use
   4              		.eabi_attribute 28, 1	@ Tag_ABI_VFP_args
   5              		.fpu fpv4-sp-d16
   6              		.eabi_attribute 20, 1	@ Tag_ABI_FP_denormal
   7              		.eabi_attribute 21, 1	@ Tag_ABI_FP_exceptions
   8              		.eabi_attribute 23, 3	@ Tag_ABI_FP_number_model
   9              		.eabi_attribute 24, 1	@ Tag_ABI_align8_needed
  10              		.eabi_attribute 25, 1	@ Tag_ABI_align8_preserved
  11              		.eabi_attribute 26, 1	@ Tag_ABI_enum_size
  12              		.eabi_attribute 30, 2	@ Tag_ABI_optimization_goals
  13              		.eabi_attribute 34, 1	@ Tag_CPU_unaligned_access
  14              		.eabi_attribute 18, 4	@ Tag_ABI_PCS_wchar_t
  15              		.file	"main.c"
  16              	@ GNU C (GNU Tools for ARM Embedded Processors) version 4.7.3 20121207 (release) [ARM/embedded-4_7-
  17              	@	compiled by GNU C version 4.2.1-sjlj (mingw32-2), GMP version 4.3.2, MPFR version 2.4.2, MPC vers
  18              	@ GGC heuristics: --param ggc-min-expand=100 --param ggc-min-heapsize=131072
  19              	@ options passed:  -I . -I ./inc -I ./cmsis/core -I ./cmsis/device
  20              	@ -imultilib armv7e-m/fpu
  21              	@ -iprefix c:\gnutoolsarmembedded\4.7-2012q4\bin\../lib/gcc/arm-none-eabi/4.7.3/
  22              	@ -isysroot c:\gnutoolsarmembedded\4.7-2012q4\bin\../arm-none-eabi
  23              	@ -MD src/main.d -MF .dep/main.o.d -MP -MQ src/main.o -D__USES_INITFINI__
  24              	@ -D __FPU_USED=1 -D __arm__ -D __ASSEMBLY__ -D USE_STDPERIPH_DRIVER
  25              	@ -D STM32F4XX -D HSE_VALUE=8000000 -D __FPU_PRESENT=1 -D STM32F407VG
  26              	@ -D RUN_FROM_FLASH=1 src/main.c -mthumb -mcpu=cortex-m4 -mfloat-abi=hard
  27              	@ -mfpu=fpv4-sp-d16 -auxbase-strip src/main.o -gdwarf-2 -O2 -Wall
  28              	@ -Wstrict-prototypes -fverbose-asm -ffunction-sections -fdata-sections
  29              	@ options enabled:  -fauto-inc-dec -fbranch-count-reg -fcaller-saves
  30              	@ -fcombine-stack-adjustments -fcommon -fcompare-elim -fcprop-registers
  31              	@ -fcrossjumping -fcse-follow-jumps -fdata-sections -fdebug-types-section
  32              	@ -fdefer-pop -fdelete-null-pointer-checks -fdevirtualize -fdwarf2-cfi-asm
  33              	@ -fearly-inlining -feliminate-unused-debug-types -fexpensive-optimizations
  34              	@ -fforward-propagate -ffunction-cse -ffunction-sections -fgcse -fgcse-lm
  35              	@ -fgnu-runtime -fguess-branch-probability -fident -fif-conversion
  36              	@ -fif-conversion2 -findirect-inlining -finline -finline-atomics
  37              	@ -finline-functions-called-once -finline-small-functions -fipa-cp
  38              	@ -fipa-profile -fipa-pure-const -fipa-reference -fipa-sra
  39              	@ -fira-share-save-slots -fira-share-spill-slots -fivopts
  40              	@ -fkeep-static-consts -fleading-underscore -fmath-errno -fmerge-constants
  41              	@ -fmerge-debug-strings -fmove-loop-invariants -fomit-frame-pointer
  42              	@ -foptimize-register-move -foptimize-sibling-calls -foptimize-strlen
  43              	@ -fpartial-inlining -fpeephole -fpeephole2 -fprefetch-loop-arrays
  44              	@ -freg-struct-return -fregmove -frename-registers -freorder-blocks
  45              	@ -freorder-functions -frerun-cse-after-loop
  46              	@ -fsched-critical-path-heuristic -fsched-dep-count-heuristic
  47              	@ -fsched-group-heuristic -fsched-interblock -fsched-last-insn-heuristic
  48              	@ -fsched-rank-heuristic -fsched-spec -fsched-spec-insn-heuristic
  49              	@ -fsched-stalled-insns-dep -fschedule-insns -fschedule-insns2
  50              	@ -fsection-anchors -fshow-column -fshrink-wrap -fsigned-zeros
  51              	@ -fsplit-ivs-in-unroller -fsplit-wide-types -fstrict-aliasing
  52              	@ -fstrict-overflow -fstrict-volatile-bitfields -fthread-jumps
  53              	@ -ftoplevel-reorder -ftrapping-math -ftree-bit-ccp -ftree-builtin-call-dce
  54              	@ -ftree-ccp -ftree-ch -ftree-copy-prop -ftree-copyrename -ftree-cselim
  55              	@ -ftree-dce -ftree-dominator-opts -ftree-dse -ftree-forwprop -ftree-fre
  56              	@ -ftree-loop-if-convert -ftree-loop-im -ftree-loop-ivcanon
  57              	@ -ftree-loop-optimize -ftree-parallelize-loops= -ftree-phiprop -ftree-pre
ARM GAS  C:\Users\CNous\AppData\Local\Temp\ccmZfnu5.s 			page 2


  58              	@ -ftree-pta -ftree-reassoc -ftree-scev-cprop -ftree-sink
  59              	@ -ftree-slp-vectorize -ftree-sra -ftree-switch-conversion
  60              	@ -ftree-tail-merge -ftree-ter -ftree-vect-loop-version -ftree-vrp
  61              	@ -funit-at-a-time -funroll-loops -fvar-tracking -fvar-tracking-assignments
  62              	@ -fverbose-asm -fweb -fzero-initialized-in-bss -mlittle-endian
  63              	@ -msched-prolog -mthumb -munaligned-access -mvectorize-with-neon-quad
  64              	
  65              		.text
  66              	.Ltext0:
  67              		.cfi_sections	.debug_frame
  68              		.section	.text.Delay,"ax",%progbits
  69              		.align	2
  70              		.global	Delay
  71              		.thumb
  72              		.thumb_func
  73              		.type	Delay, %function
  74              	Delay:
  75              	.LFB111:
  76              		.file 1 "src/main.c"
   1:src/main.c    **** /**
   2:src/main.c    ****  ******************************************************************************
   3:src/main.c    ****  * @file     main.c
   4:src/main.c    ****  * @author  Xavier Halgand
   5:src/main.c    ****  * @version
   6:src/main.c    ****  * @date    december 2012
   7:src/main.c    ****  * @brief
   8:src/main.c    ****  *
   9:src/main.c    ****  STM32F4 Discovery board open source project.
  10:src/main.c    **** 
  11:src/main.c    **** "Ambiantiseur" ( Ambientizer in english) is a very basic synthesizer
  12:src/main.c    **** which can produce semi-randomly generated musical sequences with a few effects (delay and phaser).
  13:src/main.c    **** Demo here : http://www.youtube.com/watch?v=fMWcXrCg1iw
  14:src/main.c    **** 
  15:src/main.c    **** Four potentiometers and one switch allow the user to control the machine.
  16:src/main.c    **** The two position switch allow you to modify 2 x 4 = 8 parameters :
  17:src/main.c    **** Switch = 0 ->
  18:src/main.c    **** 	pot1 : tempo
  19:src/main.c    **** 	pot2 : notes scales
  20:src/main.c    **** 	pot3 : delay time
  21:src/main.c    **** 	pot4 : delay feedback
  22:src/main.c    **** Switch = 1 ->
  23:src/main.c    **** 	pot1 : note duration (decay time)
  24:src/main.c    **** 	pot2 : phaser rate
  25:src/main.c    **** 	pot3 : phaser feedback
  26:src/main.c    **** 	pot4 : master volume
  27:src/main.c    **** 
  28:src/main.c    **** When switch is toggled, parameter will be adjusted only when the potentiometer is moved and reaches
  29:src/main.c    **** The LEDS light on when the pot is at real position.
  30:src/main.c    **** That is done for avoiding brutal value jumps. (Could be improved)
  31:src/main.c    **** 
  32:src/main.c    **** The tone generator is an anti-aliased minBLEP sawtooth oscillator with light vibrato.
  33:src/main.c    **** 
  34:src/main.c    **** Wirings :
  35:src/main.c    **** Switch and pots are 3V board powered.
  36:src/main.c    **** 	switch : PA1
  37:src/main.c    **** 	pot1   : PB1
  38:src/main.c    **** 	pot2   : PC1
ARM GAS  C:\Users\CNous\AppData\Local\Temp\ccmZfnu5.s 			page 3


  39:src/main.c    **** 	pot3   : PC2
  40:src/main.c    **** 	pot4   : PC4
  41:src/main.c    **** Three additional pots or switches can be wired on PA2, PA3, PB0. Their values appear in ADC1Convert
  42:src/main.c    **** 
  43:src/main.c    ****  ******************************************************************************
  44:src/main.c    ****  * This program is free software; you can redistribute it and/or
  45:src/main.c    ****  * modify it under the terms of the GNU General Public License as
  46:src/main.c    ****  * published by the Free Software Foundation; either version 2 of
  47:src/main.c    ****  * the License, or (at your option) any later version.
  48:src/main.c    ****  *
  49:src/main.c    ****  * This program is distributed in the hope that it will be
  50:src/main.c    ****  * useful, but WITHOUT ANY WARRANTY; without even the implied
  51:src/main.c    ****  * warranty of MERCHANTABILITY or FITNESS FOR A PARTICULAR
  52:src/main.c    ****  * PURPOSE.  See the GNU General Public License for more details.
  53:src/main.c    ****  *
  54:src/main.c    ****  * You should have received a copy of the GNU General Public
  55:src/main.c    ****  * License along with this program; if not, write to the Free
  56:src/main.c    ****  * Software Foundation, Inc., 59 Temple Place, Suite 330, Boston,
  57:src/main.c    ****  * MA 02111-1307, USA.
  58:src/main.c    ****  */
  59:src/main.c    **** 
  60:src/main.c    **** /*----------------------------- Includes --------------------------------------*/
  61:src/main.c    **** 
  62:src/main.c    **** #include "main.h"
  63:src/main.c    **** #include "minblep_tables.h"
  64:src/main.c    **** #include "synth.h"
  65:src/main.c    **** #include "phaser2.h"
  66:src/main.c    **** 
  67:src/main.c    **** /*******************************************************************************/
  68:src/main.c    **** /* ADC CDR register base address */
  69:src/main.c    **** #define ADC1_DR_ADDRESS               ((uint32_t)0x4001204C)
  70:src/main.c    **** 
  71:src/main.c    **** 
  72:src/main.c    **** /*------------------------------------------------------------------------------*/
  73:src/main.c    **** 
  74:src/main.c    **** extern void sawtooth_active (void);
  75:src/main.c    **** extern void sawtooth_runproc (uint16_t offset, unsigned long len);
  76:src/main.c    **** 
  77:src/main.c    **** 
  78:src/main.c    **** /* -------------Global variables ---------------------------------------------*/
  79:src/main.c    **** 
  80:src/main.c    **** uint16_t        audiobuff[BUFF_LEN];  // The circular audio buffer
  81:src/main.c    **** float           sampleT;
  82:src/main.c    **** 
  83:src/main.c    **** /* Delay effect variables  */
  84:src/main.c    **** float           delayline[DELAYLINE_LEN + 2 ];
  85:src/main.c    **** float           delayVol = DELAY_VOLUME;
  86:src/main.c    **** float           *readpos; // output pointer of delay line
  87:src/main.c    **** float           *writepos; // input pointer of delay line
  88:src/main.c    **** float			coeff_a1 = 0.6f; // coeff for the one pole low-pass filter in the feedback loop
  89:src/main.c    **** // coeff_a1 is between 0 and 1, 0 : no filtering, 1 : heavy filtering
  90:src/main.c    **** float			old_dy; //previous delayed sample
  91:src/main.c    **** float           fdb = FEEDB;
  92:src/main.c    **** 
  93:src/main.c    **** /* Envelope variables  */
  94:src/main.c    **** uint8_t			envTrigger, envAmp;
  95:src/main.c    **** float			envPhase;
ARM GAS  C:\Users\CNous\AppData\Local\Temp\ccmZfnu5.s 			page 4


  96:src/main.c    **** float			envTime = ENV_TIME;
  97:src/main.c    **** 
  98:src/main.c    **** /*  Sequencer variables  */
  99:src/main.c    **** uint32_t 		seqIndex;
 100:src/main.c    **** uint32_t		seq1Number = 6;
 101:src/main.c    **** 
 102:src/main.c    **** /*   tempo generator (timer 6) variables   */
 103:src/main.c    **** TIM_TimeBaseInitTypeDef  	TIM_TimeBaseStructure;
 104:src/main.c    **** uint16_t 					PrescalerValue = 349;  /* 21000000 / 60000  - 1  */
 105:src/main.c    **** uint16_t 					reloadValue = 60000;
 106:src/main.c    **** 
 107:src/main.c    **** /*   Oscillator variables  */
 108:src/main.c    **** float    pass = 0.8f;
 109:src/main.c    **** float    phase2 = 0.0f , phase2Step;
 110:src/main.c    **** float   f1 = FREQ1 , f2 = FREQ2 , freq;
 111:src/main.c    **** float   _p, _w, _z;
 112:src/main.c    **** float   _f [FILLEN + STEP_DD_PULSE_LENGTH];
 113:src/main.c    **** int     _j, _init;
 114:src/main.c    **** 
 115:src/main.c    **** uint16_t		delay1 = DELAY_1;
 116:src/main.c    **** 
 117:src/main.c    **** /* panel (switch and pots) variables */
 118:src/main.c    **** uint16_t 		ADC1ConvertedValues[8] ;
 119:src/main.c    **** uint16_t		param1=PARAMDEF, param2=PARAMDEF, param3=PARAMDEF, param4=PARAMDEF;
 120:src/main.c    **** uint16_t		param1b=PARAMDEF, param2b=PARAMDEF, param3b=PARAMDEF, param4b=PARAMDEF;
 121:src/main.c    **** uint8_t			potSet;
 122:src/main.c    **** uint8_t			accroche1 = 0, accroche2 = 0, accroche3 = 0, accroche4 = 0;
 123:src/main.c    **** 
 124:src/main.c    **** RCC_ClocksTypeDef   RCC_Clocks;
 125:src/main.c    **** GPIO_InitTypeDef    GPIO_InitStructure;
 126:src/main.c    **** 
 127:src/main.c    **** __IO uint32_t 		TimingDelay = 50;
 128:src/main.c    **** 
 129:src/main.c    **** /* ----- function prototypes -----------------------------------------------*/
 130:src/main.c    **** 
 131:src/main.c    **** //float sawtooth(float phi);
 132:src/main.c    **** //void UpdateOsc(void);
 133:src/main.c    **** void ADC1_start(void);
 134:src/main.c    **** void Delay(__IO uint32_t nTime);
 135:src/main.c    **** void TIM6_Config_and_start(void);
 136:src/main.c    **** 
 137:src/main.c    **** /*=============================== MAIN ======================================
 138:src/main.c    **** ==============================================================================*/
 139:src/main.c    **** /**
 140:src/main.c    ****  * @brief  Main program.
 141:src/main.c    ****  * @param  None
 142:src/main.c    ****  * @retval None
 143:src/main.c    ****  */
 144:src/main.c    **** int main(void)
 145:src/main.c    **** {
 146:src/main.c    **** 	/* Initialize LEDS */
 147:src/main.c    **** 	STM_EVAL_LEDInit(LED3); // orange LED
 148:src/main.c    **** 	STM_EVAL_LEDInit(LED4); // green LED
 149:src/main.c    **** 	STM_EVAL_LEDInit(LED5); // red LED
 150:src/main.c    **** 	STM_EVAL_LEDInit(LED6); // blue LED
 151:src/main.c    **** 
 152:src/main.c    **** 
ARM GAS  C:\Users\CNous\AppData\Local\Temp\ccmZfnu5.s 			page 5


 153:src/main.c    **** 	/* Initialize User Button */
 154:src/main.c    **** 	STM_EVAL_PBInit(BUTTON_USER, BUTTON_MODE_GPIO);
 155:src/main.c    **** 
 156:src/main.c    **** 	/* Initialise the onboard random number generator ! */
 157:src/main.c    **** 	RCC_AHB2PeriphClockCmd(RCC_AHB2Periph_RNG, ENABLE);
 158:src/main.c    **** 	RNG_Cmd(ENABLE);
 159:src/main.c    **** 
 160:src/main.c    **** 	sampleT = 1.f / SAMPLERATE;
 161:src/main.c    **** 	envPhase = 0.0f;
 162:src/main.c    **** 
 163:src/main.c    **** 	ADC1_start();
 164:src/main.c    **** 
 165:src/main.c    **** 	if (ADC1ConvertedValues[0] < 31 ) potSet = 0; else potSet = 1;
 166:src/main.c    **** 
 167:src/main.c    **** 	TIM6_Config_and_start();
 168:src/main.c    **** 
 169:src/main.c    **** 	if (SysTick_Config(SystemCoreClock / 50))  // 20 ms tick (50Hz)
 170:src/main.c    **** 	{
 171:src/main.c    **** 		/* Capture error */
 172:src/main.c    **** 		while (1);
 173:src/main.c    **** 	}
 174:src/main.c    **** 
 175:src/main.c    **** 	/* initialize pointers positions for delay effect */
 176:src/main.c    **** 	readpos = delayline;
 177:src/main.c    **** 	writepos = delayline + DELAY;
 178:src/main.c    **** 
 179:src/main.c    **** 	sawtooth_active();
 180:src/main.c    **** 
 181:src/main.c    **** 	PhaserInit();
 182:src/main.c    **** 
 183:src/main.c    **** 	EVAL_AUDIO_Init( OUTPUT_DEVICE_AUTO, VOL, SAMPLERATE);
 184:src/main.c    **** 	EVAL_AUDIO_Play((uint16_t*)audiobuff, BUFF_LEN);
 185:src/main.c    **** 
 186:src/main.c    **** 
 187:src/main.c    **** 	while (1)
 188:src/main.c    **** 	{
 189:src/main.c    **** 		//Interrupts handlers are doing their job...;
 190:src/main.c    **** 
 191:src/main.c    **** 	}
 192:src/main.c    **** }
 193:src/main.c    **** /*============================== End of main ===================================
 194:src/main.c    **** ==============================================================================*/
 195:src/main.c    **** 
 196:src/main.c    **** /**
 197:src/main.c    ****  * @brief  Inserts a delay time.
 198:src/main.c    ****  * @param  nTime: specifies the delay time length.
 199:src/main.c    ****  * @retval None
 200:src/main.c    ****  */
 201:src/main.c    **** void Delay(__IO uint32_t nTime)
 202:src/main.c    **** {
  77              		.loc 1 202 0
  78              		.cfi_startproc
  79              		@ args = 0, pretend = 0, frame = 8
  80              		@ frame_needed = 0, uses_anonymous_args = 0
  81              		@ link register save eliminated.
  82              	.LVL0:
  83 0000 82B0     		sub	sp, sp, #8	@,,
ARM GAS  C:\Users\CNous\AppData\Local\Temp\ccmZfnu5.s 			page 6


  84              	.LCFI0:
  85              		.cfi_def_cfa_offset 8
 203:src/main.c    **** 	TimingDelay = nTime;
  86              		.loc 1 203 0
  87 0002 044A     		ldr	r2, .L5	@ tmp138,
 202:src/main.c    **** {
  88              		.loc 1 202 0
  89 0004 0190     		str	r0, [sp, #4]	@ nTime, nTime
  90              		.loc 1 203 0
  91 0006 019B     		ldr	r3, [sp, #4]	@ nTime.6, nTime
  92 0008 1360     		str	r3, [r2, #0]	@ nTime.6, TimingDelay
  93              	.L2:
 204:src/main.c    **** 	while(TimingDelay != 0);
  94              		.loc 1 204 0 discriminator 1
  95 000a 1068     		ldr	r0, [r2, #0]	@ TimingDelay.7, TimingDelay
  96 000c 0028     		cmp	r0, #0	@ TimingDelay.7
  97 000e FCD1     		bne	.L2	@
 205:src/main.c    **** }
  98              		.loc 1 205 0
  99 0010 02B0     		add	sp, sp, #8	@,,
 100 0012 7047     		bx	lr
 101              	.L6:
 102              		.align	2
 103              	.L5:
 104 0014 00000000 		.word	.LANCHOR0
 105              		.cfi_endproc
 106              	.LFE111:
 107              		.size	Delay, .-Delay
 108              		.section	.text.TimingDelay_Decrement,"ax",%progbits
 109              		.align	2
 110              		.global	TimingDelay_Decrement
 111              		.thumb
 112              		.thumb_func
 113              		.type	TimingDelay_Decrement, %function
 114              	TimingDelay_Decrement:
 115              	.LFB112:
 206:src/main.c    **** //---------------------------------------------------------------------------
 207:src/main.c    **** /**
 208:src/main.c    ****  * @brief  Decrements the TimingDelay variable.
 209:src/main.c    ****  * @param  None
 210:src/main.c    ****  * @retval None
 211:src/main.c    ****  */
 212:src/main.c    **** void TimingDelay_Decrement(void)
 213:src/main.c    **** {
 116              		.loc 1 213 0
 117              		.cfi_startproc
 118              		@ args = 0, pretend = 0, frame = 0
 119              		@ frame_needed = 0, uses_anonymous_args = 0
 120              		@ link register save eliminated.
 214:src/main.c    **** 	if (TimingDelay != 0x00)
 121              		.loc 1 214 0
 122 0000 034B     		ldr	r3, .L12	@ tmp137,
 123 0002 1A68     		ldr	r2, [r3, #0]	@ TimingDelay.3, TimingDelay
 124 0004 12B1     		cbz	r2, .L7	@ TimingDelay.3,
 215:src/main.c    **** 	{
 216:src/main.c    **** 		TimingDelay--;
 125              		.loc 1 216 0
ARM GAS  C:\Users\CNous\AppData\Local\Temp\ccmZfnu5.s 			page 7


 126 0006 1868     		ldr	r0, [r3, #0]	@ TimingDelay.4, TimingDelay
 127 0008 411E     		subs	r1, r0, #1	@ TimingDelay.5, TimingDelay.4,
 128 000a 1960     		str	r1, [r3, #0]	@ TimingDelay.5, TimingDelay
 129              	.L7:
 130 000c 7047     		bx	lr	@
 131              	.L13:
 132 000e 00BF     		.align	2
 133              	.L12:
 134 0010 00000000 		.word	.LANCHOR0
 135              		.cfi_endproc
 136              	.LFE112:
 137              		.size	TimingDelay_Decrement, .-TimingDelay_Decrement
 138              		.section	.text.Codec_TIMEOUT_UserCallback,"ax",%progbits
 139              		.align	2
 140              		.global	Codec_TIMEOUT_UserCallback
 141              		.thumb
 142              		.thumb_func
 143              		.type	Codec_TIMEOUT_UserCallback, %function
 144              	Codec_TIMEOUT_UserCallback:
 145              	.LFB113:
 217:src/main.c    **** 	}
 218:src/main.c    **** }
 219:src/main.c    **** //---------------------------------------------------------------------------
 220:src/main.c    **** 
 221:src/main.c    **** /**
 222:src/main.c    ****  * @brief  Basic management of the timeout situation.
 223:src/main.c    ****  * @param  None
 224:src/main.c    ****  * @retval None
 225:src/main.c    ****  */
 226:src/main.c    **** uint32_t Codec_TIMEOUT_UserCallback(void)
 227:src/main.c    **** {
 146              		.loc 1 227 0
 147              		.cfi_startproc
 148              		@ args = 0, pretend = 0, frame = 0
 149              		@ frame_needed = 0, uses_anonymous_args = 0
 150              		@ link register save eliminated.
 228:src/main.c    **** 	//STM_EVAL_LEDOn(LED5); /*  alert : red LED !  */
 229:src/main.c    **** 	return (0);
 230:src/main.c    **** }
 151              		.loc 1 230 0
 152 0000 0020     		movs	r0, #0	@,
 153 0002 7047     		bx	lr	@
 154              		.cfi_endproc
 155              	.LFE113:
 156              		.size	Codec_TIMEOUT_UserCallback, .-Codec_TIMEOUT_UserCallback
 157              		.section	.text.EVAL_AUDIO_HalfTransfer_CallBack,"ax",%progbits
 158              		.align	2
 159              		.global	EVAL_AUDIO_HalfTransfer_CallBack
 160              		.thumb
 161              		.thumb_func
 162              		.type	EVAL_AUDIO_HalfTransfer_CallBack, %function
 163              	EVAL_AUDIO_HalfTransfer_CallBack:
 164              	.LFB114:
 231:src/main.c    **** //---------------------------------------------------------------------------
 232:src/main.c    **** /**
 233:src/main.c    ****  * @brief  Manages the DMA Half Transfer complete interrupt.
 234:src/main.c    ****  * @param  None
ARM GAS  C:\Users\CNous\AppData\Local\Temp\ccmZfnu5.s 			page 8


 235:src/main.c    ****  * @retval None
 236:src/main.c    ****  */
 237:src/main.c    **** void EVAL_AUDIO_HalfTransfer_CallBack(uint32_t pBuffer, uint32_t Size)
 238:src/main.c    **** {
 165              		.loc 1 238 0
 166              		.cfi_startproc
 167              		@ args = 0, pretend = 0, frame = 0
 168              		@ frame_needed = 0, uses_anonymous_args = 0
 169              		@ link register save eliminated.
 170              	.LVL1:
 239:src/main.c    **** 	/* Generally this interrupt routine is used to load the buffer when
 240:src/main.c    ****   a streaming scheme is used: When first Half buffer is already transferred load
 241:src/main.c    ****   the new data to the first half of buffer while DMA is transferring data from
 242:src/main.c    ****   the second half. And when Transfer complete occurs, load the second half of
 243:src/main.c    ****   the buffer while the DMA is transferring from the first half ... */
 244:src/main.c    **** 
 245:src/main.c    **** 	//STM_EVAL_LEDToggle(LED6);
 246:src/main.c    **** 	sawtooth_runproc(0, BUFF_LEN_DIV4);
 171              		.loc 1 246 0
 172 0000 0020     		movs	r0, #0	@,
 173              	.LVL2:
 174 0002 A021     		movs	r1, #160	@,
 175              	.LVL3:
 247:src/main.c    **** 	//STM_EVAL_LEDToggle(LED6);
 248:src/main.c    **** 
 249:src/main.c    **** }
 176              		.loc 1 249 0
 246:src/main.c    **** 	sawtooth_runproc(0, BUFF_LEN_DIV4);
 177              		.loc 1 246 0
 178 0004 FFF7FEBF 		b	sawtooth_runproc	@
 179              	.LVL4:
 180              		.cfi_endproc
 181              	.LFE114:
 182              		.size	EVAL_AUDIO_HalfTransfer_CallBack, .-EVAL_AUDIO_HalfTransfer_CallBack
 183              		.section	.text.EVAL_AUDIO_TransferComplete_CallBack,"ax",%progbits
 184              		.align	2
 185              		.global	EVAL_AUDIO_TransferComplete_CallBack
 186              		.thumb
 187              		.thumb_func
 188              		.type	EVAL_AUDIO_TransferComplete_CallBack, %function
 189              	EVAL_AUDIO_TransferComplete_CallBack:
 190              	.LFB115:
 250:src/main.c    **** 
 251:src/main.c    **** 
 252:src/main.c    **** //---------------------------------------------------------------------------
 253:src/main.c    **** /**
 254:src/main.c    ****  * @brief  Manages the DMA Complete Transfer complete interrupt.
 255:src/main.c    ****  * @param  None
 256:src/main.c    ****  * @retval None
 257:src/main.c    ****  */
 258:src/main.c    **** void EVAL_AUDIO_TransferComplete_CallBack(uint32_t pBuffer, uint32_t Size)
 259:src/main.c    **** {
 191              		.loc 1 259 0
 192              		.cfi_startproc
 193              		@ args = 0, pretend = 0, frame = 0
 194              		@ frame_needed = 0, uses_anonymous_args = 0
 195              		@ link register save eliminated.
ARM GAS  C:\Users\CNous\AppData\Local\Temp\ccmZfnu5.s 			page 9


 196              	.LVL5:
 260:src/main.c    **** 
 261:src/main.c    **** 	//STM_EVAL_LEDToggle(LED6);
 262:src/main.c    **** 	sawtooth_runproc(BUFF_LEN_DIV2, BUFF_LEN_DIV4);
 197              		.loc 1 262 0
 198 0000 4FF4A070 		mov	r0, #320	@,
 199              	.LVL6:
 200 0004 A021     		movs	r1, #160	@,
 201              	.LVL7:
 263:src/main.c    **** 	//STM_EVAL_LEDToggle(LED6);
 264:src/main.c    **** }
 202              		.loc 1 264 0
 262:src/main.c    **** 	sawtooth_runproc(BUFF_LEN_DIV2, BUFF_LEN_DIV4);
 203              		.loc 1 262 0
 204 0006 FFF7FEBF 		b	sawtooth_runproc	@
 205              	.LVL8:
 206              		.cfi_endproc
 207              	.LFE115:
 208              		.size	EVAL_AUDIO_TransferComplete_CallBack, .-EVAL_AUDIO_TransferComplete_CallBack
 209 000a 00BF     		.section	.text.EVAL_AUDIO_GetSampleCallBack,"ax",%progbits
 210              		.align	2
 211              		.global	EVAL_AUDIO_GetSampleCallBack
 212              		.thumb
 213              		.thumb_func
 214              		.type	EVAL_AUDIO_GetSampleCallBack, %function
 215              	EVAL_AUDIO_GetSampleCallBack:
 216              	.LFB116:
 265:src/main.c    **** 
 266:src/main.c    **** 
 267:src/main.c    **** //---------------------------------------------------------------------------
 268:src/main.c    **** /** NOT USED !
 269:src/main.c    ****  * @brief  Get next data sample callback
 270:src/main.c    ****  * @param  None
 271:src/main.c    ****  * @retval Next data sample to be sent
 272:src/main.c    ****  */
 273:src/main.c    **** uint16_t EVAL_AUDIO_GetSampleCallBack(void)
 274:src/main.c    **** {
 217              		.loc 1 274 0
 218              		.cfi_startproc
 219              		@ args = 0, pretend = 0, frame = 0
 220              		@ frame_needed = 0, uses_anonymous_args = 0
 221              		@ link register save eliminated.
 275:src/main.c    **** 	return 0;
 276:src/main.c    **** }
 222              		.loc 1 276 0
 223 0000 0020     		movs	r0, #0	@,
 224 0002 7047     		bx	lr	@
 225              		.cfi_endproc
 226              	.LFE116:
 227              		.size	EVAL_AUDIO_GetSampleCallBack, .-EVAL_AUDIO_GetSampleCallBack
 228              		.section	.text.randomNum,"ax",%progbits
 229              		.align	2
 230              		.global	randomNum
 231              		.thumb
 232              		.thumb_func
 233              		.type	randomNum, %function
 234              	randomNum:
ARM GAS  C:\Users\CNous\AppData\Local\Temp\ccmZfnu5.s 			page 10


 235              	.LFB117:
 277:src/main.c    **** 
 278:src/main.c    **** 
 279:src/main.c    **** //---------------------------------------------------------------------------
 280:src/main.c    **** /**************
 281:src/main.c    ****  * returns a random float between 0 and 1
 282:src/main.c    ****  *****************/
 283:src/main.c    **** float randomNum(void)
 284:src/main.c    **** {
 236              		.loc 1 284 0
 237              		.cfi_startproc
 238              		@ args = 0, pretend = 0, frame = 0
 239              		@ frame_needed = 0, uses_anonymous_args = 0
 240              	.LVL9:
 285:src/main.c    **** 	float random = 1.0f;
 286:src/main.c    **** 	if (RNG_GetFlagStatus(RNG_FLAG_DRDY) == SET)
 241              		.loc 1 286 0
 242 0000 0120     		movs	r0, #1	@,
 284:src/main.c    **** {
 243              		.loc 1 284 0
 244 0002 08B5     		push	{r3, lr}	@
 245              	.LCFI1:
 246              		.cfi_def_cfa_offset 8
 247              		.cfi_offset 3, -8
 248              		.cfi_offset 14, -4
 249              		.loc 1 286 0
 250 0004 FFF7FEFF 		bl	RNG_GetFlagStatus	@
 251              	.LVL10:
 252 0008 0128     		cmp	r0, #1	@,
 253 000a 02D0     		beq	.L21	@,
 285:src/main.c    **** 	float random = 1.0f;
 254              		.loc 1 285 0
 255 000c B7EE000A 		fconsts	s0, #112	@ random,
 256              	.LVL11:
 287:src/main.c    **** 	{
 288:src/main.c    **** 		random = (float)(RNG_GetRandomNumber()/4294967294.0f);
 289:src/main.c    **** 	}
 290:src/main.c    **** 	return random;
 291:src/main.c    **** }
 257              		.loc 1 291 0
 258 0010 08BD     		pop	{r3, pc}	@
 259              	.LVL12:
 260              	.L21:
 288:src/main.c    **** 		random = (float)(RNG_GetRandomNumber()/4294967294.0f);
 261              		.loc 1 288 0
 262 0012 FFF7FEFF 		bl	RNG_GetRandomNumber	@
 263              	.LVL13:
 264 0016 07EE900A 		fmsr	s15, r0	@ int	@,
 265 001a DFED030A 		flds	s1, .L22	@ tmp141,
 266 001e B8EE670A 		fuitos	s0, s15	@ tmp140,
 267 0022 20EE200A 		fmuls	s0, s0, s1	@ random, tmp140, tmp141
 268              	.LVL14:
 269 0026 08BD     		pop	{r3, pc}	@
 270              	.L23:
 271              		.align	2
 272              	.L22:
 273 0028 0000802F 		.word	796917760
ARM GAS  C:\Users\CNous\AppData\Local\Temp\ccmZfnu5.s 			page 11


 274              		.cfi_endproc
 275              	.LFE117:
 276              		.size	randomNum, .-randomNum
 277              		.section	.text.ADC1_start,"ax",%progbits
 278              		.align	2
 279              		.global	ADC1_start
 280              		.thumb
 281              		.thumb_func
 282              		.type	ADC1_start, %function
 283              	ADC1_start:
 284              	.LFB118:
 292:src/main.c    **** 
 293:src/main.c    **** 
 294:src/main.c    **** //---------------------------------------------------------------------------
 295:src/main.c    **** /**
 296:src/main.c    ****  * @brief  Configure and start ADC1.
 297:src/main.c    ****  * @param  None
 298:src/main.c    ****  * @retval None
 299:src/main.c    ****  */
 300:src/main.c    **** void ADC1_start(void)
 301:src/main.c    **** {
 285              		.loc 1 301 0
 286              		.cfi_startproc
 287              		@ args = 0, pretend = 0, frame = 128
 288              		@ frame_needed = 0, uses_anonymous_args = 0
 289 0000 2DE9F043 		push	{r4, r5, r6, r7, r8, r9, lr}	@
 290              	.LCFI2:
 291              		.cfi_def_cfa_offset 28
 292              		.cfi_offset 4, -28
 293              		.cfi_offset 5, -24
 294              		.cfi_offset 6, -20
 295              		.cfi_offset 7, -16
 296              		.cfi_offset 8, -12
 297              		.cfi_offset 9, -8
 298              		.cfi_offset 14, -4
 299 0004 A1B0     		sub	sp, sp, #132	@,,
 300              	.LCFI3:
 301              		.cfi_def_cfa_offset 160
 302:src/main.c    **** 	ADC_InitTypeDef       ADC_InitStructure;
 303:src/main.c    **** 	ADC_CommonInitTypeDef ADC_CommonInitStructure;
 304:src/main.c    **** 	DMA_InitTypeDef       DMA_InitStructure;
 305:src/main.c    **** 	GPIO_InitTypeDef      GPIO_A_InitStructure;
 306:src/main.c    **** 	GPIO_InitTypeDef      GPIO_B_InitStructure;
 307:src/main.c    **** 	GPIO_InitTypeDef      GPIO_C_InitStructure;
 308:src/main.c    **** 
 309:src/main.c    **** 	/* Deinitializes the ADC peripheral registers */
 310:src/main.c    **** 	ADC_DeInit();
 302              		.loc 1 310 0
 303 0006 FFF7FEFF 		bl	ADC_DeInit	@
 304              	.LVL15:
 311:src/main.c    **** 
 312:src/main.c    **** 	/* Enable the GPIOs' Clock , ADC1 Periph Clock and DMA1 clock   */
 313:src/main.c    **** 	RCC_AHB1PeriphClockCmd(RCC_AHB1Periph_DMA2 | RCC_AHB1Periph_GPIOA | RCC_AHB1Periph_GPIOB | RCC_AHB
 305              		.loc 1 313 0
 306 000a 0720     		movs	r0, #7	@,
 307 000c 0121     		movs	r1, #1	@,
 308 000e C0F24000 		movt	r0, 64	@,
ARM GAS  C:\Users\CNous\AppData\Local\Temp\ccmZfnu5.s 			page 12


 309 0012 FFF7FEFF 		bl	RCC_AHB1PeriphClockCmd	@
 310              	.LVL16:
 314:src/main.c    **** 	RCC_APB2PeriphClockCmd(RCC_APB2Periph_ADC1, ENABLE);
 311              		.loc 1 314 0
 312 0016 0121     		movs	r1, #1	@,
 313 0018 4FF48070 		mov	r0, #256	@,
 314 001c FFF7FEFF 		bl	RCC_APB2PeriphClockCmd	@
 315              	.LVL17:
 315:src/main.c    **** 
 316:src/main.c    **** 
 317:src/main.c    **** 	/* DMA1 Stream0 channel0 configuration  */
 318:src/main.c    **** 	DMA_InitStructure.DMA_Channel = DMA_Channel_0;
 319:src/main.c    **** 	DMA_InitStructure.DMA_PeripheralBaseAddr = ADC1_DR_ADDRESS;
 316              		.loc 1 319 0
 317 0020 42F24C03 		movw	r3, #8268	@ tmp137,
 318 0024 C4F20103 		movt	r3, 16385	@ tmp137,
 320:src/main.c    **** 	DMA_InitStructure.DMA_Memory0BaseAddr = (uint32_t)&ADC1ConvertedValues;
 321:src/main.c    **** 	DMA_InitStructure.DMA_DIR = DMA_DIR_PeripheralToMemory;
 322:src/main.c    **** 	DMA_InitStructure.DMA_BufferSize = 8;
 323:src/main.c    **** 	DMA_InitStructure.DMA_PeripheralInc = DMA_PeripheralInc_Disable;
 324:src/main.c    **** 	DMA_InitStructure.DMA_MemoryInc = DMA_MemoryInc_Enable;
 325:src/main.c    **** 	DMA_InitStructure.DMA_PeripheralDataSize = DMA_PeripheralDataSize_HalfWord;
 326:src/main.c    **** 	DMA_InitStructure.DMA_MemoryDataSize = DMA_MemoryDataSize_HalfWord;
 327:src/main.c    **** 	DMA_InitStructure.DMA_Mode = DMA_Mode_Circular;
 328:src/main.c    **** 	DMA_InitStructure.DMA_Priority = DMA_Priority_Medium;
 329:src/main.c    **** 	DMA_InitStructure.DMA_FIFOMode = DMA_FIFOMode_Disable;
 330:src/main.c    **** 	DMA_InitStructure.DMA_FIFOThreshold = DMA_FIFOThreshold_HalfFull;
 331:src/main.c    **** 	DMA_InitStructure.DMA_MemoryBurst = DMA_MemoryBurst_Single;
 332:src/main.c    **** 	DMA_InitStructure.DMA_PeripheralBurst = DMA_PeripheralBurst_Single;
 333:src/main.c    **** 	DMA_Init(DMA2_Stream0, &DMA_InitStructure);
 319              		.loc 1 333 0
 320 0028 46F21045 		movw	r5, #25616	@ tmp151,
 320:src/main.c    **** 	DMA_InitStructure.DMA_Memory0BaseAddr = (uint32_t)&ADC1ConvertedValues;
 321              		.loc 1 320 0
 322 002c 40F20002 		movw	r2, #:lower16:ADC1ConvertedValues	@ tmp138,
 323              		.loc 1 333 0
 324 0030 C4F20205 		movt	r5, 16386	@ tmp151,
 319:src/main.c    **** 	DMA_InitStructure.DMA_PeripheralBaseAddr = ADC1_DR_ADDRESS;
 325              		.loc 1 319 0
 326 0034 1293     		str	r3, [sp, #72]	@ tmp137, DMA_InitStructure.DMA_PeripheralBaseAddr
 320:src/main.c    **** 	DMA_InitStructure.DMA_Memory0BaseAddr = (uint32_t)&ADC1ConvertedValues;
 327              		.loc 1 320 0
 328 0036 C0F20002 		movt	r2, #:upper16:ADC1ConvertedValues	@ tmp138,
 324:src/main.c    **** 	DMA_InitStructure.DMA_MemoryInc = DMA_MemoryInc_Enable;
 329              		.loc 1 324 0
 330 003a 4FF48067 		mov	r7, #1024	@ tmp142,
 325:src/main.c    **** 	DMA_InitStructure.DMA_PeripheralDataSize = DMA_PeripheralDataSize_HalfWord;
 331              		.loc 1 325 0
 332 003e 4FF40063 		mov	r3, #2048	@ tmp143,
 330:src/main.c    **** 	DMA_InitStructure.DMA_FIFOThreshold = DMA_FIFOThreshold_HalfFull;
 333              		.loc 1 330 0
 334 0042 0124     		movs	r4, #1	@ tmp148,
 318:src/main.c    **** 	DMA_InitStructure.DMA_Channel = DMA_Channel_0;
 335              		.loc 1 318 0
 336 0044 0026     		movs	r6, #0	@ tmp136,
 322:src/main.c    **** 	DMA_InitStructure.DMA_BufferSize = 8;
 337              		.loc 1 322 0
ARM GAS  C:\Users\CNous\AppData\Local\Temp\ccmZfnu5.s 			page 13


 338 0046 4FF00808 		mov	r8, #8	@ tmp140,
 339              		.loc 1 333 0
 340 004a 2846     		mov	r0, r5	@, tmp151
 341 004c 11A9     		add	r1, sp, #68	@,,
 320:src/main.c    **** 	DMA_InitStructure.DMA_Memory0BaseAddr = (uint32_t)&ADC1ConvertedValues;
 342              		.loc 1 320 0
 343 004e 1392     		str	r2, [sp, #76]	@ tmp138, DMA_InitStructure.DMA_Memory0BaseAddr
 324:src/main.c    **** 	DMA_InitStructure.DMA_MemoryInc = DMA_MemoryInc_Enable;
 344              		.loc 1 324 0
 345 0050 1797     		str	r7, [sp, #92]	@ tmp142, DMA_InitStructure.DMA_MemoryInc
 326:src/main.c    **** 	DMA_InitStructure.DMA_MemoryDataSize = DMA_MemoryDataSize_HalfWord;
 346              		.loc 1 326 0
 347 0052 4FF40052 		mov	r2, #8192	@ tmp144,
 325:src/main.c    **** 	DMA_InitStructure.DMA_PeripheralDataSize = DMA_PeripheralDataSize_HalfWord;
 348              		.loc 1 325 0
 349 0056 1893     		str	r3, [sp, #96]	@ tmp143, DMA_InitStructure.DMA_PeripheralDataSize
 327:src/main.c    **** 	DMA_InitStructure.DMA_Mode = DMA_Mode_Circular;
 350              		.loc 1 327 0
 351 0058 4FF48077 		mov	r7, #256	@ tmp145,
 328:src/main.c    **** 	DMA_InitStructure.DMA_Priority = DMA_Priority_Medium;
 352              		.loc 1 328 0
 353 005c 4FF48033 		mov	r3, #65536	@ tmp146,
 354 0060 1B93     		str	r3, [sp, #108]	@ tmp146, DMA_InitStructure.DMA_Priority
 326:src/main.c    **** 	DMA_InitStructure.DMA_MemoryDataSize = DMA_MemoryDataSize_HalfWord;
 355              		.loc 1 326 0
 356 0062 1992     		str	r2, [sp, #100]	@ tmp144, DMA_InitStructure.DMA_MemoryDataSize
 327:src/main.c    **** 	DMA_InitStructure.DMA_Mode = DMA_Mode_Circular;
 357              		.loc 1 327 0
 358 0064 1A97     		str	r7, [sp, #104]	@ tmp145, DMA_InitStructure.DMA_Mode
 318:src/main.c    **** 	DMA_InitStructure.DMA_Channel = DMA_Channel_0;
 359              		.loc 1 318 0
 360 0066 1196     		str	r6, [sp, #68]	@ tmp136, DMA_InitStructure.DMA_Channel
 321:src/main.c    **** 	DMA_InitStructure.DMA_DIR = DMA_DIR_PeripheralToMemory;
 361              		.loc 1 321 0
 362 0068 1496     		str	r6, [sp, #80]	@ tmp136, DMA_InitStructure.DMA_DIR
 322:src/main.c    **** 	DMA_InitStructure.DMA_BufferSize = 8;
 363              		.loc 1 322 0
 364 006a CDF85480 		str	r8, [sp, #84]	@ tmp140, DMA_InitStructure.DMA_BufferSize
 323:src/main.c    **** 	DMA_InitStructure.DMA_PeripheralInc = DMA_PeripheralInc_Disable;
 365              		.loc 1 323 0
 366 006e 1696     		str	r6, [sp, #88]	@ tmp136, DMA_InitStructure.DMA_PeripheralInc
 329:src/main.c    **** 	DMA_InitStructure.DMA_FIFOMode = DMA_FIFOMode_Disable;
 367              		.loc 1 329 0
 368 0070 1C96     		str	r6, [sp, #112]	@ tmp136, DMA_InitStructure.DMA_FIFOMode
 330:src/main.c    **** 	DMA_InitStructure.DMA_FIFOThreshold = DMA_FIFOThreshold_HalfFull;
 369              		.loc 1 330 0
 370 0072 1D94     		str	r4, [sp, #116]	@ tmp148, DMA_InitStructure.DMA_FIFOThreshold
 331:src/main.c    **** 	DMA_InitStructure.DMA_MemoryBurst = DMA_MemoryBurst_Single;
 371              		.loc 1 331 0
 372 0074 1E96     		str	r6, [sp, #120]	@ tmp136, DMA_InitStructure.DMA_MemoryBurst
 332:src/main.c    **** 	DMA_InitStructure.DMA_PeripheralBurst = DMA_PeripheralBurst_Single;
 373              		.loc 1 332 0
 374 0076 1F96     		str	r6, [sp, #124]	@ tmp136, DMA_InitStructure.DMA_PeripheralBurst
 375              		.loc 1 333 0
 376 0078 FFF7FEFF 		bl	DMA_Init	@
 377              	.LVL18:
 334:src/main.c    **** 	DMA_Cmd(DMA2_Stream0, ENABLE);
ARM GAS  C:\Users\CNous\AppData\Local\Temp\ccmZfnu5.s 			page 14


 378              		.loc 1 334 0
 379 007c 2846     		mov	r0, r5	@, tmp151
 380 007e 2146     		mov	r1, r4	@, tmp148
 381 0080 FFF7FEFF 		bl	DMA_Cmd	@
 382              	.LVL19:
 335:src/main.c    **** 
 336:src/main.c    **** 	/* Configure ADC1 Channels 1, 2, 3 pins as analog input : PA1, PA2, PA3 ***********************/
 337:src/main.c    **** 	GPIO_A_InitStructure.GPIO_Pin = GPIO_Pin_1 | GPIO_Pin_2 | GPIO_Pin_3;
 338:src/main.c    **** 	GPIO_A_InitStructure.GPIO_Mode = GPIO_Mode_AN;
 339:src/main.c    **** 	GPIO_A_InitStructure.GPIO_PuPd = GPIO_PuPd_NOPULL ;
 340:src/main.c    **** 	GPIO_Init(GPIOA, &GPIO_A_InitStructure);
 383              		.loc 1 340 0
 384 0084 3046     		mov	r0, r6	@, tmp136
 338:src/main.c    **** 	GPIO_A_InitStructure.GPIO_Mode = GPIO_Mode_AN;
 385              		.loc 1 338 0
 386 0086 0327     		movs	r7, #3	@ tmp155,
 337:src/main.c    **** 	GPIO_A_InitStructure.GPIO_Pin = GPIO_Pin_1 | GPIO_Pin_2 | GPIO_Pin_3;
 387              		.loc 1 337 0
 388 0088 4FF00E09 		mov	r9, #14	@ tmp154,
 389              		.loc 1 340 0
 390 008c 01A9     		add	r1, sp, #4	@,,
 391 008e C4F20200 		movt	r0, 16386	@,
 337:src/main.c    **** 	GPIO_A_InitStructure.GPIO_Pin = GPIO_Pin_1 | GPIO_Pin_2 | GPIO_Pin_3;
 392              		.loc 1 337 0
 393 0092 CDF80490 		str	r9, [sp, #4]	@ tmp154, GPIO_A_InitStructure.GPIO_Pin
 338:src/main.c    **** 	GPIO_A_InitStructure.GPIO_Mode = GPIO_Mode_AN;
 394              		.loc 1 338 0
 395 0096 8DF80870 		strb	r7, [sp, #8]	@ tmp155, GPIO_A_InitStructure.GPIO_Mode
 339:src/main.c    **** 	GPIO_A_InitStructure.GPIO_PuPd = GPIO_PuPd_NOPULL ;
 396              		.loc 1 339 0
 397 009a 8DF80B60 		strb	r6, [sp, #11]	@ tmp136, GPIO_A_InitStructure.GPIO_PuPd
 398              		.loc 1 340 0
 399 009e FFF7FEFF 		bl	GPIO_Init	@
 400              	.LVL20:
 341:src/main.c    **** 
 342:src/main.c    **** 	/* Configure ADC1 Channels 8, 9 pins as analog input : PB0, PB1 ***********************/
 343:src/main.c    **** 	GPIO_B_InitStructure.GPIO_Pin = GPIO_Pin_0 | GPIO_Pin_1;
 344:src/main.c    **** 	GPIO_B_InitStructure.GPIO_Mode = GPIO_Mode_AN;
 345:src/main.c    **** 	GPIO_B_InitStructure.GPIO_PuPd = GPIO_PuPd_NOPULL ;
 346:src/main.c    **** 	GPIO_Init(GPIOB, &GPIO_B_InitStructure);
 401              		.loc 1 346 0
 402 00a2 4FF48060 		mov	r0, #1024	@,
 403 00a6 03A9     		add	r1, sp, #12	@,,
 404 00a8 C4F20200 		movt	r0, 16386	@,
 343:src/main.c    **** 	GPIO_B_InitStructure.GPIO_Pin = GPIO_Pin_0 | GPIO_Pin_1;
 405              		.loc 1 343 0
 406 00ac 0397     		str	r7, [sp, #12]	@ tmp155, GPIO_B_InitStructure.GPIO_Pin
 344:src/main.c    **** 	GPIO_B_InitStructure.GPIO_Mode = GPIO_Mode_AN;
 407              		.loc 1 344 0
 408 00ae 8DF81070 		strb	r7, [sp, #16]	@ tmp155, GPIO_B_InitStructure.GPIO_Mode
 345:src/main.c    **** 	GPIO_B_InitStructure.GPIO_PuPd = GPIO_PuPd_NOPULL ;
 409              		.loc 1 345 0
 410 00b2 8DF81360 		strb	r6, [sp, #19]	@ tmp136, GPIO_B_InitStructure.GPIO_PuPd
 411              		.loc 1 346 0
 412 00b6 FFF7FEFF 		bl	GPIO_Init	@
 413              	.LVL21:
 347:src/main.c    **** 
ARM GAS  C:\Users\CNous\AppData\Local\Temp\ccmZfnu5.s 			page 15


 348:src/main.c    **** 	/* Configure ADC1 Channels 11, 12, 14 pins as analog input : PC1, PC2, PC4 ***********************
 349:src/main.c    **** 	GPIO_C_InitStructure.GPIO_Pin = GPIO_Pin_1 | GPIO_Pin_2 | GPIO_Pin_4;
 350:src/main.c    **** 	GPIO_C_InitStructure.GPIO_Mode = GPIO_Mode_AN;
 351:src/main.c    **** 	GPIO_C_InitStructure.GPIO_PuPd = GPIO_PuPd_NOPULL ;
 352:src/main.c    **** 	GPIO_Init(GPIOC, &GPIO_C_InitStructure);
 414              		.loc 1 352 0
 415 00ba 4FF40060 		mov	r0, #2048	@,
 349:src/main.c    **** 	GPIO_C_InitStructure.GPIO_Pin = GPIO_Pin_1 | GPIO_Pin_2 | GPIO_Pin_4;
 416              		.loc 1 349 0
 417 00be 1622     		movs	r2, #22	@ tmp168,
 418              		.loc 1 352 0
 419 00c0 05A9     		add	r1, sp, #20	@,,
 420 00c2 C4F20200 		movt	r0, 16386	@,
 353:src/main.c    **** 
 354:src/main.c    **** 	/* ADC Common Init **********************************************************/
 355:src/main.c    **** 	ADC_CommonInitStructure.ADC_Mode = ADC_Mode_Independent;
 356:src/main.c    **** 	ADC_CommonInitStructure.ADC_Prescaler = ADC_Prescaler_Div2;
 357:src/main.c    **** 	ADC_CommonInitStructure.ADC_DMAAccessMode = ADC_DMAAccessMode_Disabled;
 358:src/main.c    **** 	ADC_CommonInitStructure.ADC_TwoSamplingDelay = ADC_TwoSamplingDelay_20Cycles;
 359:src/main.c    **** 	ADC_CommonInit(&ADC_CommonInitStructure);
 360:src/main.c    **** 
 361:src/main.c    **** 	/* ADC1 Init ****************************************************************/
 362:src/main.c    **** 	ADC_InitStructure.ADC_Resolution = ADC_Resolution_6b;
 363:src/main.c    **** 	ADC_InitStructure.ADC_ScanConvMode = ENABLE;
 364:src/main.c    **** 	ADC_InitStructure.ADC_ContinuousConvMode = ENABLE;
 365:src/main.c    **** 	ADC_InitStructure.ADC_ExternalTrigConvEdge = ADC_ExternalTrigConvEdge_None;
 366:src/main.c    **** 	ADC_InitStructure.ADC_DataAlign = ADC_DataAlign_Right;
 367:src/main.c    **** 	ADC_InitStructure.ADC_NbrOfConversion = 8;
 368:src/main.c    **** 
 369:src/main.c    **** 	ADC_InitStructure.ADC_ExternalTrigConv = 0;
 370:src/main.c    **** 
 371:src/main.c    **** 	ADC_Init(ADC1, &ADC_InitStructure);
 421              		.loc 1 371 0
 422 00c6 4FF40055 		mov	r5, #8192	@ tmp190,
 423 00ca C4F20105 		movt	r5, 16385	@ tmp190,
 349:src/main.c    **** 	GPIO_C_InitStructure.GPIO_Pin = GPIO_Pin_1 | GPIO_Pin_2 | GPIO_Pin_4;
 424              		.loc 1 349 0
 425 00ce 0592     		str	r2, [sp, #20]	@ tmp168, GPIO_C_InitStructure.GPIO_Pin
 350:src/main.c    **** 	GPIO_C_InitStructure.GPIO_Mode = GPIO_Mode_AN;
 426              		.loc 1 350 0
 427 00d0 8DF81870 		strb	r7, [sp, #24]	@ tmp155, GPIO_C_InitStructure.GPIO_Mode
 351:src/main.c    **** 	GPIO_C_InitStructure.GPIO_PuPd = GPIO_PuPd_NOPULL ;
 428              		.loc 1 351 0
 429 00d4 8DF81B60 		strb	r6, [sp, #27]	@ tmp136, GPIO_C_InitStructure.GPIO_PuPd
 352:src/main.c    **** 	GPIO_Init(GPIOC, &GPIO_C_InitStructure);
 430              		.loc 1 352 0
 431 00d8 FFF7FEFF 		bl	GPIO_Init	@
 432              	.LVL22:
 359:src/main.c    **** 	ADC_CommonInit(&ADC_CommonInitStructure);
 433              		.loc 1 359 0
 434 00dc 07A8     		add	r0, sp, #28	@,,
 358:src/main.c    **** 	ADC_CommonInitStructure.ADC_TwoSamplingDelay = ADC_TwoSamplingDelay_20Cycles;
 435              		.loc 1 358 0
 436 00de 4FF47061 		mov	r1, #3840	@ tmp178,
 437 00e2 0A91     		str	r1, [sp, #40]	@ tmp178, ADC_CommonInitStructure.ADC_TwoSamplingDelay
 355:src/main.c    **** 	ADC_CommonInitStructure.ADC_Mode = ADC_Mode_Independent;
 438              		.loc 1 355 0
ARM GAS  C:\Users\CNous\AppData\Local\Temp\ccmZfnu5.s 			page 16


 439 00e4 0796     		str	r6, [sp, #28]	@ tmp136, ADC_CommonInitStructure.ADC_Mode
 356:src/main.c    **** 	ADC_CommonInitStructure.ADC_Prescaler = ADC_Prescaler_Div2;
 440              		.loc 1 356 0
 441 00e6 0896     		str	r6, [sp, #32]	@ tmp136, ADC_CommonInitStructure.ADC_Prescaler
 357:src/main.c    **** 	ADC_CommonInitStructure.ADC_DMAAccessMode = ADC_DMAAccessMode_Disabled;
 442              		.loc 1 357 0
 443 00e8 0996     		str	r6, [sp, #36]	@ tmp136, ADC_CommonInitStructure.ADC_DMAAccessMode
 359:src/main.c    **** 	ADC_CommonInit(&ADC_CommonInitStructure);
 444              		.loc 1 359 0
 445 00ea FFF7FEFF 		bl	ADC_CommonInit	@
 446              	.LVL23:
 447              		.loc 1 371 0
 448 00ee 2846     		mov	r0, r5	@, tmp190
 449 00f0 0BA9     		add	r1, sp, #44	@,,
 362:src/main.c    **** 	ADC_InitStructure.ADC_Resolution = ADC_Resolution_6b;
 450              		.loc 1 362 0
 451 00f2 4FF04073 		mov	r3, #50331648	@ tmp180,
 452 00f6 0B93     		str	r3, [sp, #44]	@ tmp180, ADC_InitStructure.ADC_Resolution
 363:src/main.c    **** 	ADC_InitStructure.ADC_ScanConvMode = ENABLE;
 453              		.loc 1 363 0
 454 00f8 8DF83040 		strb	r4, [sp, #48]	@ tmp148, ADC_InitStructure.ADC_ScanConvMode
 364:src/main.c    **** 	ADC_InitStructure.ADC_ContinuousConvMode = ENABLE;
 455              		.loc 1 364 0
 456 00fc 8DF83140 		strb	r4, [sp, #49]	@ tmp148, ADC_InitStructure.ADC_ContinuousConvMode
 365:src/main.c    **** 	ADC_InitStructure.ADC_ExternalTrigConvEdge = ADC_ExternalTrigConvEdge_None;
 457              		.loc 1 365 0
 458 0100 0D96     		str	r6, [sp, #52]	@ tmp136, ADC_InitStructure.ADC_ExternalTrigConvEdge
 366:src/main.c    **** 	ADC_InitStructure.ADC_DataAlign = ADC_DataAlign_Right;
 459              		.loc 1 366 0
 460 0102 0F96     		str	r6, [sp, #60]	@ tmp136, ADC_InitStructure.ADC_DataAlign
 367:src/main.c    **** 	ADC_InitStructure.ADC_NbrOfConversion = 8;
 461              		.loc 1 367 0
 462 0104 8DF84080 		strb	r8, [sp, #64]	@ tmp140, ADC_InitStructure.ADC_NbrOfConversion
 369:src/main.c    **** 	ADC_InitStructure.ADC_ExternalTrigConv = 0;
 463              		.loc 1 369 0
 464 0108 0E96     		str	r6, [sp, #56]	@ tmp136, ADC_InitStructure.ADC_ExternalTrigConv
 465              		.loc 1 371 0
 466 010a FFF7FEFF 		bl	ADC_Init	@
 467              	.LVL24:
 372:src/main.c    **** 
 373:src/main.c    **** 	/* ADC1 regular channels configuration -- ADCx->SMPR1,SMPR2 et ADCx->SQR1,SQR2,SQR3*/
 374:src/main.c    **** 
 375:src/main.c    **** 	ADC_RegularChannelConfig(ADC1, ADC_Channel_1, 1, ADC_SampleTime_15Cycles );
 468              		.loc 1 375 0
 469 010e 2846     		mov	r0, r5	@, tmp190
 470 0110 2146     		mov	r1, r4	@, tmp148
 471 0112 2246     		mov	r2, r4	@, tmp148
 472 0114 2346     		mov	r3, r4	@, tmp148
 473 0116 FFF7FEFF 		bl	ADC_RegularChannelConfig	@
 474              	.LVL25:
 376:src/main.c    **** 	ADC_RegularChannelConfig(ADC1, ADC_Channel_2, 2, ADC_SampleTime_15Cycles );
 475              		.loc 1 376 0
 476 011a 0221     		movs	r1, #2	@,
 477 011c 2846     		mov	r0, r5	@, tmp190
 478 011e 0A46     		mov	r2, r1	@,
 479 0120 2346     		mov	r3, r4	@, tmp148
 480 0122 FFF7FEFF 		bl	ADC_RegularChannelConfig	@
ARM GAS  C:\Users\CNous\AppData\Local\Temp\ccmZfnu5.s 			page 17


 481              	.LVL26:
 377:src/main.c    **** 	ADC_RegularChannelConfig(ADC1, ADC_Channel_3, 3, ADC_SampleTime_15Cycles );
 482              		.loc 1 377 0
 483 0126 2846     		mov	r0, r5	@, tmp190
 484 0128 3946     		mov	r1, r7	@, tmp155
 485 012a 3A46     		mov	r2, r7	@, tmp1
 486 012c 2346     		mov	r3, r4	@, tmp148
 487 012e FFF7FEFF 		bl	ADC_RegularChannelConfig	@
 488              	.LVL27:
 378:src/main.c    **** 	ADC_RegularChannelConfig(ADC1, ADC_Channel_8, 4, ADC_SampleTime_15Cycles );
 489              		.loc 1 378 0
 490 0132 2846     		mov	r0, r5	@, tmp190
 491 0134 4146     		mov	r1, r8	@, tmp140
 492 0136 0422     		movs	r2, #4	@,
 493 0138 2346     		mov	r3, r4	@, tmp148
 494 013a FFF7FEFF 		bl	ADC_RegularChannelConfig	@
 495              	.LVL28:
 379:src/main.c    **** 	ADC_RegularChannelConfig(ADC1, ADC_Channel_9, 5, ADC_SampleTime_15Cycles );
 496              		.loc 1 379 0
 497 013e 2846     		mov	r0, r5	@, tmp190
 498 0140 0921     		movs	r1, #9	@,
 499 0142 0522     		movs	r2, #5	@,
 500 0144 2346     		mov	r3, r4	@, tmp148
 501 0146 FFF7FEFF 		bl	ADC_RegularChannelConfig	@
 502              	.LVL29:
 380:src/main.c    **** 	ADC_RegularChannelConfig(ADC1, ADC_Channel_11, 6, ADC_SampleTime_15Cycles );
 503              		.loc 1 380 0
 504 014a 2846     		mov	r0, r5	@, tmp190
 505 014c 0B21     		movs	r1, #11	@,
 506 014e 0622     		movs	r2, #6	@,
 507 0150 2346     		mov	r3, r4	@, tmp148
 508 0152 FFF7FEFF 		bl	ADC_RegularChannelConfig	@
 509              	.LVL30:
 381:src/main.c    **** 	ADC_RegularChannelConfig(ADC1, ADC_Channel_12, 7, ADC_SampleTime_15Cycles );
 510              		.loc 1 381 0
 511 0156 2846     		mov	r0, r5	@, tmp190
 512 0158 0C21     		movs	r1, #12	@,
 513 015a 0722     		movs	r2, #7	@,
 514 015c 2346     		mov	r3, r4	@, tmp148
 515 015e FFF7FEFF 		bl	ADC_RegularChannelConfig	@
 516              	.LVL31:
 382:src/main.c    **** 	ADC_RegularChannelConfig(ADC1, ADC_Channel_14, 8, ADC_SampleTime_15Cycles );
 517              		.loc 1 382 0
 518 0162 4246     		mov	r2, r8	@, tmp140
 519 0164 2346     		mov	r3, r4	@, tmp148
 520 0166 2846     		mov	r0, r5	@, tmp190
 521 0168 4946     		mov	r1, r9	@, tmp154
 522 016a FFF7FEFF 		bl	ADC_RegularChannelConfig	@
 523              	.LVL32:
 383:src/main.c    **** 
 384:src/main.c    **** 	/* Enable DMA request after last transfer (Single-ADC mode) */
 385:src/main.c    **** 	ADC_DMARequestAfterLastTransferCmd(ADC1, ENABLE);
 524              		.loc 1 385 0
 525 016e 2846     		mov	r0, r5	@, tmp190
 526 0170 2146     		mov	r1, r4	@, tmp148
 527 0172 FFF7FEFF 		bl	ADC_DMARequestAfterLastTransferCmd	@
 528              	.LVL33:
ARM GAS  C:\Users\CNous\AppData\Local\Temp\ccmZfnu5.s 			page 18


 386:src/main.c    **** 
 387:src/main.c    **** 	/* Enable ADC1 DMA */
 388:src/main.c    **** 	ADC_DMACmd(ADC1, ENABLE);
 529              		.loc 1 388 0
 530 0176 2846     		mov	r0, r5	@, tmp190
 531 0178 2146     		mov	r1, r4	@, tmp148
 532 017a FFF7FEFF 		bl	ADC_DMACmd	@
 533              	.LVL34:
 389:src/main.c    **** 
 390:src/main.c    **** 	/* Enable ADC1 */
 391:src/main.c    **** 	ADC_Cmd(ADC1, ENABLE);
 534              		.loc 1 391 0
 535 017e 2846     		mov	r0, r5	@, tmp190
 536 0180 2146     		mov	r1, r4	@, tmp148
 537 0182 FFF7FEFF 		bl	ADC_Cmd	@
 538              	.LVL35:
 392:src/main.c    **** 
 393:src/main.c    **** 	ADC_ContinuousModeCmd(ADC1, ENABLE);
 539              		.loc 1 393 0
 540 0186 2846     		mov	r0, r5	@, tmp190
 541 0188 2146     		mov	r1, r4	@, tmp148
 542 018a FFF7FEFF 		bl	ADC_ContinuousModeCmd	@
 543              	.LVL36:
 394:src/main.c    **** 	/* Start ADC1 Software Conversion */
 395:src/main.c    **** 	ADC_SoftwareStartConv(ADC1);
 544              		.loc 1 395 0
 545 018e 2846     		mov	r0, r5	@, tmp190
 546 0190 FFF7FEFF 		bl	ADC_SoftwareStartConv	@
 547              	.LVL37:
 396:src/main.c    **** }
 548              		.loc 1 396 0
 549 0194 21B0     		add	sp, sp, #132	@,,
 550 0196 BDE8F083 		pop	{r4, r5, r6, r7, r8, r9, pc}
 551              		.cfi_endproc
 552              	.LFE118:
 553              		.size	ADC1_start, .-ADC1_start
 554 019a 00BF     		.section	.text.TIM6_Config_and_start,"ax",%progbits
 555              		.align	2
 556              		.global	TIM6_Config_and_start
 557              		.thumb
 558              		.thumb_func
 559              		.type	TIM6_Config_and_start, %function
 560              	TIM6_Config_and_start:
 561              	.LFB119:
 397:src/main.c    **** /*****************************************************************************************/
 398:src/main.c    **** 
 399:src/main.c    **** /**
 400:src/main.c    ****  * @brief  Configure and start the TIMER 6.
 401:src/main.c    ****  * @param  None
 402:src/main.c    ****  * @retval None
 403:src/main.c    ****  */
 404:src/main.c    **** void TIM6_Config_and_start(void)
 405:src/main.c    **** {
 562              		.loc 1 405 0
 563              		.cfi_startproc
 564              		@ args = 0, pretend = 0, frame = 8
 565              		@ frame_needed = 0, uses_anonymous_args = 0
ARM GAS  C:\Users\CNous\AppData\Local\Temp\ccmZfnu5.s 			page 19


 566 0000 70B5     		push	{r4, r5, r6, lr}	@
 567              	.LCFI4:
 568              		.cfi_def_cfa_offset 16
 569              		.cfi_offset 4, -16
 570              		.cfi_offset 5, -12
 571              		.cfi_offset 6, -8
 572              		.cfi_offset 14, -4
 406:src/main.c    **** 	NVIC_InitTypeDef NVIC_InitStructure;
 407:src/main.c    **** 
 408:src/main.c    **** 	/* TIM6 clock enable */
 409:src/main.c    **** 	RCC_APB1PeriphClockCmd(RCC_APB1Periph_TIM6, ENABLE);
 410:src/main.c    **** 
 411:src/main.c    **** 	TIM_DeInit(TIM6);
 573              		.loc 1 411 0
 574 0002 4FF48054 		mov	r4, #4096	@ tmp137,
 405:src/main.c    **** {
 575              		.loc 1 405 0
 576 0006 82B0     		sub	sp, sp, #8	@,,
 577              	.LCFI5:
 578              		.cfi_def_cfa_offset 24
 579              		.loc 1 411 0
 580 0008 C4F20004 		movt	r4, 16384	@ tmp137,
 409:src/main.c    **** 	RCC_APB1PeriphClockCmd(RCC_APB1Periph_TIM6, ENABLE);
 581              		.loc 1 409 0
 582 000c 0121     		movs	r1, #1	@,
 583 000e 1020     		movs	r0, #16	@,
 584 0010 FFF7FEFF 		bl	RCC_APB1PeriphClockCmd	@
 585              	.LVL38:
 586              		.loc 1 411 0
 587 0014 2046     		mov	r0, r4	@, tmp137
 588 0016 FFF7FEFF 		bl	TIM_DeInit	@
 589              	.LVL39:
 412:src/main.c    **** 
 413:src/main.c    **** 	/* Enable the TIM6 global Interrupt */
 414:src/main.c    **** 	NVIC_InitStructure.NVIC_IRQChannel = TIM6_DAC_IRQn;
 415:src/main.c    **** 	NVIC_InitStructure.NVIC_IRQChannelPreemptionPriority = 0;
 416:src/main.c    **** 	NVIC_InitStructure.NVIC_IRQChannelSubPriority = 1;
 590              		.loc 1 416 0
 591 001a 0125     		movs	r5, #1	@ tmp142,
 415:src/main.c    **** 	NVIC_InitStructure.NVIC_IRQChannelPreemptionPriority = 0;
 592              		.loc 1 415 0
 593 001c 0026     		movs	r6, #0	@ tmp140,
 414:src/main.c    **** 	NVIC_InitStructure.NVIC_IRQChannel = TIM6_DAC_IRQn;
 594              		.loc 1 414 0
 595 001e 3623     		movs	r3, #54	@ tmp138,
 417:src/main.c    **** 	NVIC_InitStructure.NVIC_IRQChannelCmd = ENABLE;
 418:src/main.c    **** 	NVIC_Init(&NVIC_InitStructure);
 596              		.loc 1 418 0
 597 0020 01A8     		add	r0, sp, #4	@,,
 414:src/main.c    **** 	NVIC_InitStructure.NVIC_IRQChannel = TIM6_DAC_IRQn;
 598              		.loc 1 414 0
 599 0022 8DF80430 		strb	r3, [sp, #4]	@ tmp138, NVIC_InitStructure.NVIC_IRQChannel
 415:src/main.c    **** 	NVIC_InitStructure.NVIC_IRQChannelPreemptionPriority = 0;
 600              		.loc 1 415 0
 601 0026 8DF80560 		strb	r6, [sp, #5]	@ tmp140, NVIC_InitStructure.NVIC_IRQChannelPreemptionPriority
 416:src/main.c    **** 	NVIC_InitStructure.NVIC_IRQChannelSubPriority = 1;
 602              		.loc 1 416 0
ARM GAS  C:\Users\CNous\AppData\Local\Temp\ccmZfnu5.s 			page 20


 603 002a 8DF80650 		strb	r5, [sp, #6]	@ tmp142, NVIC_InitStructure.NVIC_IRQChannelSubPriority
 417:src/main.c    **** 	NVIC_InitStructure.NVIC_IRQChannelCmd = ENABLE;
 604              		.loc 1 417 0
 605 002e 8DF80750 		strb	r5, [sp, #7]	@ tmp142, NVIC_InitStructure.NVIC_IRQChannelCmd
 606              		.loc 1 418 0
 607 0032 FFF7FEFF 		bl	NVIC_Init	@
 608              	.LVL40:
 419:src/main.c    **** 
 420:src/main.c    **** 	/* Time base configuration */
 421:src/main.c    **** 	TIM_TimeBaseStructure.TIM_Period = 65535;
 609              		.loc 1 421 0
 610 0036 40F20003 		movw	r3, #:lower16:TIM_TimeBaseStructure	@ tmp172,
 611 003a C0F20003 		movt	r3, #:upper16:TIM_TimeBaseStructure	@ tmp172,
 422:src/main.c    **** 	TIM_TimeBaseStructure.TIM_Prescaler = 0;
 423:src/main.c    **** 	TIM_TimeBaseStructure.TIM_ClockDivision = 0; // NA
 424:src/main.c    **** 	TIM_TimeBaseStructure.TIM_CounterMode = TIM_CounterMode_Up;
 425:src/main.c    **** 
 426:src/main.c    **** 	TIM_TimeBaseInit(TIM6, &TIM_TimeBaseStructure);
 612              		.loc 1 426 0
 613 003e 1946     		mov	r1, r3	@, tmp172
 614 0040 2046     		mov	r0, r4	@, tmp137
 421:src/main.c    **** 	TIM_TimeBaseStructure.TIM_Period = 65535;
 615              		.loc 1 421 0
 616 0042 4FF6FF72 		movw	r2, #65535	@ tmp148,
 617 0046 5A60     		str	r2, [r3, #4]	@ tmp148, TIM_TimeBaseStructure.TIM_Period
 422:src/main.c    **** 	TIM_TimeBaseStructure.TIM_Prescaler = 0;
 618              		.loc 1 422 0
 619 0048 1E80     		strh	r6, [r3, #0]	@ movhi	@ tmp140, TIM_TimeBaseStructure.TIM_Prescaler
 423:src/main.c    **** 	TIM_TimeBaseStructure.TIM_ClockDivision = 0; // NA
 620              		.loc 1 423 0
 621 004a 1E81     		strh	r6, [r3, #8]	@ movhi	@ tmp140, TIM_TimeBaseStructure.TIM_ClockDivision
 424:src/main.c    **** 	TIM_TimeBaseStructure.TIM_CounterMode = TIM_CounterMode_Up;
 622              		.loc 1 424 0
 623 004c 5E80     		strh	r6, [r3, #2]	@ movhi	@ tmp140, TIM_TimeBaseStructure.TIM_CounterMode
 624              		.loc 1 426 0
 625 004e FFF7FEFF 		bl	TIM_TimeBaseInit	@
 626              	.LVL41:
 427:src/main.c    **** 
 428:src/main.c    **** 	/* Prescaler configuration */
 429:src/main.c    **** 	TIM_PrescalerConfig(TIM6, PrescalerValue, TIM_PSCReloadMode_Immediate);
 627              		.loc 1 429 0
 628 0052 40F20001 		movw	r1, #:lower16:.LANCHOR1	@ tmp173,
 629 0056 C0F20001 		movt	r1, #:upper16:.LANCHOR1	@ tmp173,
 630 005a 2A46     		mov	r2, r5	@, tmp142
 631 005c 2046     		mov	r0, r4	@, tmp137
 632 005e 0988     		ldrh	r1, [r1, #0]	@, PrescalerValue
 633 0060 FFF7FEFF 		bl	TIM_PrescalerConfig	@
 634              	.LVL42:
 430:src/main.c    **** 
 431:src/main.c    **** 	TIM_SetAutoreload(TIM6, reloadValue);
 635              		.loc 1 431 0
 636 0064 40F20003 		movw	r3, #:lower16:.LANCHOR2	@ tmp174,
 637 0068 C0F20003 		movt	r3, #:upper16:.LANCHOR2	@ tmp174,
 638 006c 2046     		mov	r0, r4	@, tmp137
 639 006e 1988     		ldrh	r1, [r3, #0]	@, reloadValue
 640 0070 FFF7FEFF 		bl	TIM_SetAutoreload	@
 641              	.LVL43:
ARM GAS  C:\Users\CNous\AppData\Local\Temp\ccmZfnu5.s 			page 21


 432:src/main.c    **** 
 433:src/main.c    **** 	TIM_UpdateDisableConfig(TIM6, DISABLE);
 642              		.loc 1 433 0
 643 0074 2046     		mov	r0, r4	@, tmp137
 644 0076 3146     		mov	r1, r6	@, tmp140
 645 0078 FFF7FEFF 		bl	TIM_UpdateDisableConfig	@
 646              	.LVL44:
 434:src/main.c    **** 
 435:src/main.c    **** 	TIM_UpdateRequestConfig(TIM6, TIM_UpdateSource_Regular);
 647              		.loc 1 435 0
 648 007c 2046     		mov	r0, r4	@, tmp137
 649 007e 2946     		mov	r1, r5	@, tmp142
 650 0080 FFF7FEFF 		bl	TIM_UpdateRequestConfig	@
 651              	.LVL45:
 436:src/main.c    **** 
 437:src/main.c    **** 	TIM_ARRPreloadConfig(TIM6, ENABLE);
 652              		.loc 1 437 0
 653 0084 2046     		mov	r0, r4	@, tmp137
 654 0086 2946     		mov	r1, r5	@, tmp142
 655 0088 FFF7FEFF 		bl	TIM_ARRPreloadConfig	@
 656              	.LVL46:
 438:src/main.c    **** 
 439:src/main.c    **** 	TIM_SelectOnePulseMode(TIM6, TIM_OPMode_Repetitive);
 657              		.loc 1 439 0
 658 008c 2046     		mov	r0, r4	@, tmp137
 659 008e 3146     		mov	r1, r6	@, tmp140
 660 0090 FFF7FEFF 		bl	TIM_SelectOnePulseMode	@
 661              	.LVL47:
 440:src/main.c    **** 
 441:src/main.c    **** 	/* TIM Interrupts enable */
 442:src/main.c    **** 	TIM_ITConfig(TIM6, TIM_IT_Update, ENABLE);
 662              		.loc 1 442 0
 663 0094 2046     		mov	r0, r4	@, tmp137
 664 0096 2946     		mov	r1, r5	@, tmp142
 665 0098 2A46     		mov	r2, r5	@, tmp142
 666 009a FFF7FEFF 		bl	TIM_ITConfig	@
 667              	.LVL48:
 443:src/main.c    **** 
 444:src/main.c    **** 	/* TIM6 enable counter */
 445:src/main.c    **** 	TIM_Cmd(TIM6, ENABLE);
 668              		.loc 1 445 0
 669 009e 2046     		mov	r0, r4	@, tmp137
 670 00a0 2946     		mov	r1, r5	@, tmp142
 671 00a2 FFF7FEFF 		bl	TIM_Cmd	@
 672              	.LVL49:
 446:src/main.c    **** }
 673              		.loc 1 446 0
 674 00a6 02B0     		add	sp, sp, #8	@,,
 675 00a8 70BD     		pop	{r4, r5, r6, pc}
 676              		.cfi_endproc
 677              	.LFE119:
 678              		.size	TIM6_Config_and_start, .-TIM6_Config_and_start
 679 00aa 00BF     		.section	.text.startup.main,"ax",%progbits
 680              		.align	2
 681              		.global	main
 682              		.thumb
 683              		.thumb_func
ARM GAS  C:\Users\CNous\AppData\Local\Temp\ccmZfnu5.s 			page 22


 684              		.type	main, %function
 685              	main:
 686              	.LFB110:
 145:src/main.c    **** {
 687              		.loc 1 145 0
 688              		.cfi_startproc
 689              		@ args = 0, pretend = 0, frame = 0
 690              		@ frame_needed = 0, uses_anonymous_args = 0
 691 0000 10B5     		push	{r4, lr}	@
 692              	.LCFI6:
 693              		.cfi_def_cfa_offset 8
 694              		.cfi_offset 4, -8
 695              		.cfi_offset 14, -4
 147:src/main.c    **** 	STM_EVAL_LEDInit(LED3); // orange LED
 696              		.loc 1 147 0
 697 0002 0120     		movs	r0, #1	@,
 698 0004 FFF7FEFF 		bl	STM_EVAL_LEDInit	@
 699              	.LVL50:
 148:src/main.c    **** 	STM_EVAL_LEDInit(LED4); // green LED
 700              		.loc 1 148 0
 701 0008 0020     		movs	r0, #0	@,
 702 000a FFF7FEFF 		bl	STM_EVAL_LEDInit	@
 703              	.LVL51:
 149:src/main.c    **** 	STM_EVAL_LEDInit(LED5); // red LED
 704              		.loc 1 149 0
 705 000e 0220     		movs	r0, #2	@,
 706 0010 FFF7FEFF 		bl	STM_EVAL_LEDInit	@
 707              	.LVL52:
 150:src/main.c    **** 	STM_EVAL_LEDInit(LED6); // blue LED
 708              		.loc 1 150 0
 709 0014 0320     		movs	r0, #3	@,
 710 0016 FFF7FEFF 		bl	STM_EVAL_LEDInit	@
 711              	.LVL53:
 154:src/main.c    **** 	STM_EVAL_PBInit(BUTTON_USER, BUTTON_MODE_GPIO);
 712              		.loc 1 154 0
 713 001a 0020     		movs	r0, #0	@,
 714 001c 0146     		mov	r1, r0	@,
 715 001e FFF7FEFF 		bl	STM_EVAL_PBInit	@
 716              	.LVL54:
 157:src/main.c    **** 	RCC_AHB2PeriphClockCmd(RCC_AHB2Periph_RNG, ENABLE);
 717              		.loc 1 157 0
 718 0022 0121     		movs	r1, #1	@,
 719 0024 4020     		movs	r0, #64	@,
 720 0026 FFF7FEFF 		bl	RCC_AHB2PeriphClockCmd	@
 721              	.LVL55:
 158:src/main.c    **** 	RNG_Cmd(ENABLE);
 722              		.loc 1 158 0
 723 002a 0120     		movs	r0, #1	@,
 724 002c FFF7FEFF 		bl	RNG_Cmd	@
 725              	.LVL56:
 165:src/main.c    **** 	if (ADC1ConvertedValues[0] < 31 ) potSet = 0; else potSet = 1;
 726              		.loc 1 165 0
 727 0030 264C     		ldr	r4, .L33	@ tmp143,
 160:src/main.c    **** 	sampleT = 1.f / SAMPLERATE;
 728              		.loc 1 160 0
 729 0032 274B     		ldr	r3, .L33+4	@ tmp139,
 161:src/main.c    **** 	envPhase = 0.0f;
ARM GAS  C:\Users\CNous\AppData\Local\Temp\ccmZfnu5.s 			page 23


 730              		.loc 1 161 0
 731 0034 2749     		ldr	r1, .L33+8	@ tmp141,
 160:src/main.c    **** 	sampleT = 1.f / SAMPLERATE;
 732              		.loc 1 160 0
 733 0036 4CF23E32 		movw	r2, #49982	@ tmp140,
 734 003a C3F2AE72 		movt	r2, 14254	@ tmp140,
 161:src/main.c    **** 	envPhase = 0.0f;
 735              		.loc 1 161 0
 736 003e 0020     		movs	r0, #0	@ tmp142,
 160:src/main.c    **** 	sampleT = 1.f / SAMPLERATE;
 737              		.loc 1 160 0
 738 0040 1A60     		str	r2, [r3, #0]	@ float	@ tmp140, sampleT
 161:src/main.c    **** 	envPhase = 0.0f;
 739              		.loc 1 161 0
 740 0042 0860     		str	r0, [r1, #0]	@ float	@ tmp142, envPhase
 163:src/main.c    **** 	ADC1_start();
 741              		.loc 1 163 0
 742 0044 FFF7FEFF 		bl	ADC1_start	@
 743              	.LVL57:
 165:src/main.c    **** 	if (ADC1ConvertedValues[0] < 31 ) potSet = 0; else potSet = 1;
 744              		.loc 1 165 0
 745 0048 2288     		ldrh	r2, [r4, #0]	@ ADC1ConvertedValues, ADC1ConvertedValues
 746 004a 1E2A     		cmp	r2, #30	@ ADC1ConvertedValues,
 747 004c 3AD8     		bhi	.L27	@,
 165:src/main.c    **** 	if (ADC1ConvertedValues[0] < 31 ) potSet = 0; else potSet = 1;
 748              		.loc 1 165 0 is_stmt 0 discriminator 1
 749 004e 224C     		ldr	r4, .L33+12	@ tmp145,
 750 0050 0021     		movs	r1, #0	@ tmp146,
 751 0052 2170     		strb	r1, [r4, #0]	@ tmp146, potSet
 752              	.L28:
 167:src/main.c    **** 	TIM6_Config_and_start();
 753              		.loc 1 167 0 is_stmt 1
 754 0054 FFF7FEFF 		bl	TIM6_Config_and_start	@
 755              	.LVL58:
 169:src/main.c    **** 	if (SysTick_Config(SystemCoreClock / 50))  // 20 ms tick (50Hz)
 756              		.loc 1 169 0
 757 0058 204A     		ldr	r2, .L33+16	@ tmp151,
 758 005a 48F21F50 		movw	r0, #34079	@ tmp154,
 759 005e 1368     		ldr	r3, [r2, #0]	@ SystemCoreClock, SystemCoreClock
 760 0060 C5F2EB10 		movt	r0, 20971	@ tmp154,
 761 0064 A0FB0314 		umull	r1, r4, r0, r3	@, tmp153, tmp154, SystemCoreClock
 762 0068 2209     		lsrs	r2, r4, #4	@ D.8619, tmp153,
 763              	.LVL59:
 764              	.LBB8:
 765              	.LBB9:
 766              		.file 2 "./cmsis/core/core_cm4.h"
   1:./cmsis/core/core_cm4.h **** /**************************************************************************//**
   2:./cmsis/core/core_cm4.h ****  * @file     core_cm4.h
   3:./cmsis/core/core_cm4.h ****  * @brief    CMSIS Cortex-M4 Core Peripheral Access Layer Header File
   4:./cmsis/core/core_cm4.h ****  * @version  V2.10
   5:./cmsis/core/core_cm4.h ****  * @date     19. July 2011
   6:./cmsis/core/core_cm4.h ****  *
   7:./cmsis/core/core_cm4.h ****  * @note
   8:./cmsis/core/core_cm4.h ****  * Copyright (C) 2009-2011 ARM Limited. All rights reserved.
   9:./cmsis/core/core_cm4.h ****  *
  10:./cmsis/core/core_cm4.h ****  * @par
  11:./cmsis/core/core_cm4.h ****  * ARM Limited (ARM) is supplying this software for use with Cortex-M
ARM GAS  C:\Users\CNous\AppData\Local\Temp\ccmZfnu5.s 			page 24


  12:./cmsis/core/core_cm4.h ****  * processor based microcontrollers.  This file can be freely distributed
  13:./cmsis/core/core_cm4.h ****  * within development tools that are supporting such ARM based processors.
  14:./cmsis/core/core_cm4.h ****  *
  15:./cmsis/core/core_cm4.h ****  * @par
  16:./cmsis/core/core_cm4.h ****  * THIS SOFTWARE IS PROVIDED "AS IS".  NO WARRANTIES, WHETHER EXPRESS, IMPLIED
  17:./cmsis/core/core_cm4.h ****  * OR STATUTORY, INCLUDING, BUT NOT LIMITED TO, IMPLIED WARRANTIES OF
  18:./cmsis/core/core_cm4.h ****  * MERCHANTABILITY AND FITNESS FOR A PARTICULAR PURPOSE APPLY TO THIS SOFTWARE.
  19:./cmsis/core/core_cm4.h ****  * ARM SHALL NOT, IN ANY CIRCUMSTANCES, BE LIABLE FOR SPECIAL, INCIDENTAL, OR
  20:./cmsis/core/core_cm4.h ****  * CONSEQUENTIAL DAMAGES, FOR ANY REASON WHATSOEVER.
  21:./cmsis/core/core_cm4.h ****  *
  22:./cmsis/core/core_cm4.h ****  ******************************************************************************/
  23:./cmsis/core/core_cm4.h **** #if defined ( __ICCARM__ )
  24:./cmsis/core/core_cm4.h ****  #pragma system_include  /* treat file as system include file for MISRA check */
  25:./cmsis/core/core_cm4.h **** #endif
  26:./cmsis/core/core_cm4.h **** 
  27:./cmsis/core/core_cm4.h **** #ifdef __cplusplus
  28:./cmsis/core/core_cm4.h ****  extern "C" {
  29:./cmsis/core/core_cm4.h **** #endif
  30:./cmsis/core/core_cm4.h **** 
  31:./cmsis/core/core_cm4.h **** #ifndef __CORE_CM4_H_GENERIC
  32:./cmsis/core/core_cm4.h **** #define __CORE_CM4_H_GENERIC
  33:./cmsis/core/core_cm4.h **** 
  34:./cmsis/core/core_cm4.h **** 
  35:./cmsis/core/core_cm4.h **** /** \mainpage CMSIS Cortex-M4
  36:./cmsis/core/core_cm4.h **** 
  37:./cmsis/core/core_cm4.h ****   This documentation describes the CMSIS Cortex-M Core Peripheral Access Layer.
  38:./cmsis/core/core_cm4.h ****   It consists of:
  39:./cmsis/core/core_cm4.h **** 
  40:./cmsis/core/core_cm4.h ****      - Cortex-M Core Register Definitions
  41:./cmsis/core/core_cm4.h ****      - Cortex-M functions
  42:./cmsis/core/core_cm4.h ****      - Cortex-M instructions
  43:./cmsis/core/core_cm4.h ****      - Cortex-M SIMD instructions
  44:./cmsis/core/core_cm4.h **** 
  45:./cmsis/core/core_cm4.h ****   The CMSIS Cortex-M4 Core Peripheral Access Layer contains C and assembly functions that ease
  46:./cmsis/core/core_cm4.h ****   access to the Cortex-M Core
  47:./cmsis/core/core_cm4.h ****  */
  48:./cmsis/core/core_cm4.h **** 
  49:./cmsis/core/core_cm4.h **** /** \defgroup CMSIS_MISRA_Exceptions  CMSIS MISRA-C:2004 Compliance Exceptions
  50:./cmsis/core/core_cm4.h ****   CMSIS violates following MISRA-C2004 Rules:
  51:./cmsis/core/core_cm4.h ****   
  52:./cmsis/core/core_cm4.h ****    - Violates MISRA 2004 Required Rule 8.5, object/function definition in header file.<br>
  53:./cmsis/core/core_cm4.h ****      Function definitions in header files are used to allow 'inlining'. 
  54:./cmsis/core/core_cm4.h **** 
  55:./cmsis/core/core_cm4.h ****    - Violates MISRA 2004 Required Rule 18.4, declaration of union type or object of union type: '{.
  56:./cmsis/core/core_cm4.h ****      Unions are used for effective representation of core registers.
  57:./cmsis/core/core_cm4.h ****    
  58:./cmsis/core/core_cm4.h ****    - Violates MISRA 2004 Advisory Rule 19.7, Function-like macro defined.<br>
  59:./cmsis/core/core_cm4.h ****      Function-like macros are used to allow more efficient code. 
  60:./cmsis/core/core_cm4.h **** 
  61:./cmsis/core/core_cm4.h ****  */
  62:./cmsis/core/core_cm4.h **** 
  63:./cmsis/core/core_cm4.h **** 
  64:./cmsis/core/core_cm4.h **** /*******************************************************************************
  65:./cmsis/core/core_cm4.h ****  *                 CMSIS definitions
  66:./cmsis/core/core_cm4.h ****  ******************************************************************************/
  67:./cmsis/core/core_cm4.h **** /** \defgroup CMSIS_core_definitions CMSIS Core Definitions
  68:./cmsis/core/core_cm4.h ****   This file defines all structures and symbols for CMSIS core:
ARM GAS  C:\Users\CNous\AppData\Local\Temp\ccmZfnu5.s 			page 25


  69:./cmsis/core/core_cm4.h ****    - CMSIS version number
  70:./cmsis/core/core_cm4.h ****    - Cortex-M core
  71:./cmsis/core/core_cm4.h ****    - Cortex-M core Revision Number
  72:./cmsis/core/core_cm4.h ****   @{
  73:./cmsis/core/core_cm4.h ****  */
  74:./cmsis/core/core_cm4.h **** 
  75:./cmsis/core/core_cm4.h **** /*  CMSIS CM4 definitions */
  76:./cmsis/core/core_cm4.h **** #define __CM4_CMSIS_VERSION_MAIN  (0x02)                                                       /*!<
  77:./cmsis/core/core_cm4.h **** #define __CM4_CMSIS_VERSION_SUB   (0x10)                                                       /*!<
  78:./cmsis/core/core_cm4.h **** #define __CM4_CMSIS_VERSION       ((__CM4_CMSIS_VERSION_MAIN << 16) | __CM4_CMSIS_VERSION_SUB) /*!<
  79:./cmsis/core/core_cm4.h **** 
  80:./cmsis/core/core_cm4.h **** #define __CORTEX_M                (0x04)                                                       /*!<
  81:./cmsis/core/core_cm4.h **** 
  82:./cmsis/core/core_cm4.h **** 
  83:./cmsis/core/core_cm4.h **** #if   defined ( __CC_ARM )
  84:./cmsis/core/core_cm4.h ****   #define __ASM            __asm                                      /*!< asm keyword for ARM Comp
  85:./cmsis/core/core_cm4.h ****   #define __INLINE         __inline                                   /*!< inline keyword for ARM C
  86:./cmsis/core/core_cm4.h **** 
  87:./cmsis/core/core_cm4.h **** #elif defined ( __ICCARM__ )
  88:./cmsis/core/core_cm4.h ****   #define __ASM           __asm                                       /*!< asm keyword for IAR Comp
  89:./cmsis/core/core_cm4.h ****   #define __INLINE        inline                                      /*!< inline keyword for IAR C
  90:./cmsis/core/core_cm4.h **** 
  91:./cmsis/core/core_cm4.h **** #elif defined ( __GNUC__ )
  92:./cmsis/core/core_cm4.h ****   #define __ASM            __asm                                      /*!< asm keyword for GNU Comp
  93:./cmsis/core/core_cm4.h ****   #define __INLINE         inline                                     /*!< inline keyword for GNU C
  94:./cmsis/core/core_cm4.h **** 
  95:./cmsis/core/core_cm4.h **** #elif defined ( __TASKING__ )
  96:./cmsis/core/core_cm4.h ****   #define __ASM            __asm                                      /*!< asm keyword for TASKING 
  97:./cmsis/core/core_cm4.h ****   #define __INLINE         inline                                     /*!< inline keyword for TASKI
  98:./cmsis/core/core_cm4.h **** 
  99:./cmsis/core/core_cm4.h **** #endif
 100:./cmsis/core/core_cm4.h **** 
 101:./cmsis/core/core_cm4.h **** /*!< __FPU_USED to be checked prior to making use of FPU specific registers and functions */
 102:./cmsis/core/core_cm4.h **** #if defined ( __CC_ARM )
 103:./cmsis/core/core_cm4.h ****   #if defined __TARGET_FPU_VFP
 104:./cmsis/core/core_cm4.h ****     #if (__FPU_PRESENT == 1)
 105:./cmsis/core/core_cm4.h ****       #define __FPU_USED       1
 106:./cmsis/core/core_cm4.h ****     #else
 107:./cmsis/core/core_cm4.h ****       #warning "Compiler generates FPU instructions for a device without an FPU (check __FPU_PRESEN
 108:./cmsis/core/core_cm4.h ****       #define __FPU_USED       0
 109:./cmsis/core/core_cm4.h ****     #endif
 110:./cmsis/core/core_cm4.h ****   #else
 111:./cmsis/core/core_cm4.h ****     #define __FPU_USED         0
 112:./cmsis/core/core_cm4.h ****   #endif
 113:./cmsis/core/core_cm4.h **** 
 114:./cmsis/core/core_cm4.h **** #elif defined ( __ICCARM__ )
 115:./cmsis/core/core_cm4.h ****   #if defined __ARMVFP__
 116:./cmsis/core/core_cm4.h ****     #if (__FPU_PRESENT == 1)
 117:./cmsis/core/core_cm4.h ****       #define __FPU_USED       1
 118:./cmsis/core/core_cm4.h ****     #else
 119:./cmsis/core/core_cm4.h ****       #warning "Compiler generates FPU instructions for a device without an FPU (check __FPU_PRESEN
 120:./cmsis/core/core_cm4.h ****       #define __FPU_USED       0
 121:./cmsis/core/core_cm4.h ****     #endif
 122:./cmsis/core/core_cm4.h ****   #else
 123:./cmsis/core/core_cm4.h ****     #define __FPU_USED         0
 124:./cmsis/core/core_cm4.h ****   #endif
 125:./cmsis/core/core_cm4.h **** 
ARM GAS  C:\Users\CNous\AppData\Local\Temp\ccmZfnu5.s 			page 26


 126:./cmsis/core/core_cm4.h **** #elif defined ( __GNUC__ )
 127:./cmsis/core/core_cm4.h ****   #if defined (__VFP_FP__) && !defined(__SOFTFP__)
 128:./cmsis/core/core_cm4.h ****     #if (__FPU_PRESENT == 1)
 129:./cmsis/core/core_cm4.h ****       #define __FPU_USED       1
 130:./cmsis/core/core_cm4.h ****     #else
 131:./cmsis/core/core_cm4.h ****       #warning "Compiler generates FPU instructions for a device without an FPU (check __FPU_PRESEN
 132:./cmsis/core/core_cm4.h ****       #define __FPU_USED       0
 133:./cmsis/core/core_cm4.h ****     #endif
 134:./cmsis/core/core_cm4.h ****   #else
 135:./cmsis/core/core_cm4.h ****     #define __FPU_USED         0
 136:./cmsis/core/core_cm4.h ****   #endif
 137:./cmsis/core/core_cm4.h **** 
 138:./cmsis/core/core_cm4.h **** #elif defined ( __TASKING__ )
 139:./cmsis/core/core_cm4.h ****     /* add preprocessor checks to define __FPU_USED */
 140:./cmsis/core/core_cm4.h ****     #define __FPU_USED         0
 141:./cmsis/core/core_cm4.h **** #endif
 142:./cmsis/core/core_cm4.h **** 
 143:./cmsis/core/core_cm4.h **** #include <stdint.h>                      /*!< standard types definitions                      */
 144:./cmsis/core/core_cm4.h **** #include <core_cmInstr.h>                /*!< Core Instruction Access                         */
 145:./cmsis/core/core_cm4.h **** #include <core_cmFunc.h>                 /*!< Core Function Access                            */
 146:./cmsis/core/core_cm4.h **** #include <core_cm4_simd.h>               /*!< Compiler specific SIMD Intrinsics               */
 147:./cmsis/core/core_cm4.h **** 
 148:./cmsis/core/core_cm4.h **** #endif /* __CORE_CM4_H_GENERIC */
 149:./cmsis/core/core_cm4.h **** 
 150:./cmsis/core/core_cm4.h **** #ifndef __CMSIS_GENERIC
 151:./cmsis/core/core_cm4.h **** 
 152:./cmsis/core/core_cm4.h **** #ifndef __CORE_CM4_H_DEPENDANT
 153:./cmsis/core/core_cm4.h **** #define __CORE_CM4_H_DEPENDANT
 154:./cmsis/core/core_cm4.h **** 
 155:./cmsis/core/core_cm4.h **** /* check device defines and use defaults */
 156:./cmsis/core/core_cm4.h **** #if defined __CHECK_DEVICE_DEFINES
 157:./cmsis/core/core_cm4.h ****   #ifndef __CM4_REV
 158:./cmsis/core/core_cm4.h ****     #define __CM4_REV               0x0000
 159:./cmsis/core/core_cm4.h ****     #warning "__CM4_REV not defined in device header file; using default!"
 160:./cmsis/core/core_cm4.h ****   #endif
 161:./cmsis/core/core_cm4.h **** 
 162:./cmsis/core/core_cm4.h ****   #ifndef __FPU_PRESENT
 163:./cmsis/core/core_cm4.h ****     #define __FPU_PRESENT             0
 164:./cmsis/core/core_cm4.h ****     #warning "__FPU_PRESENT not defined in device header file; using default!"
 165:./cmsis/core/core_cm4.h ****   #endif
 166:./cmsis/core/core_cm4.h **** 
 167:./cmsis/core/core_cm4.h ****   #ifndef __MPU_PRESENT
 168:./cmsis/core/core_cm4.h ****     #define __MPU_PRESENT             0
 169:./cmsis/core/core_cm4.h ****     #warning "__MPU_PRESENT not defined in device header file; using default!"
 170:./cmsis/core/core_cm4.h ****   #endif
 171:./cmsis/core/core_cm4.h **** 
 172:./cmsis/core/core_cm4.h ****   #ifndef __NVIC_PRIO_BITS
 173:./cmsis/core/core_cm4.h ****     #define __NVIC_PRIO_BITS          4
 174:./cmsis/core/core_cm4.h ****     #warning "__NVIC_PRIO_BITS not defined in device header file; using default!"
 175:./cmsis/core/core_cm4.h ****   #endif
 176:./cmsis/core/core_cm4.h **** 
 177:./cmsis/core/core_cm4.h ****   #ifndef __Vendor_SysTickConfig
 178:./cmsis/core/core_cm4.h ****     #define __Vendor_SysTickConfig    0
 179:./cmsis/core/core_cm4.h ****     #warning "__Vendor_SysTickConfig not defined in device header file; using default!"
 180:./cmsis/core/core_cm4.h ****   #endif
 181:./cmsis/core/core_cm4.h **** #endif
 182:./cmsis/core/core_cm4.h **** 
ARM GAS  C:\Users\CNous\AppData\Local\Temp\ccmZfnu5.s 			page 27


 183:./cmsis/core/core_cm4.h **** /* IO definitions (access restrictions to peripheral registers) */
 184:./cmsis/core/core_cm4.h **** #ifdef __cplusplus
 185:./cmsis/core/core_cm4.h ****   #define   __I     volatile             /*!< defines 'read only' permissions                 */
 186:./cmsis/core/core_cm4.h **** #else
 187:./cmsis/core/core_cm4.h ****   #define   __I     volatile const       /*!< defines 'read only' permissions                 */
 188:./cmsis/core/core_cm4.h **** #endif
 189:./cmsis/core/core_cm4.h **** #define     __O     volatile             /*!< defines 'write only' permissions                */
 190:./cmsis/core/core_cm4.h **** #define     __IO    volatile             /*!< defines 'read / write' permissions              */
 191:./cmsis/core/core_cm4.h **** 
 192:./cmsis/core/core_cm4.h **** /*@} end of group CMSIS_core_definitions */
 193:./cmsis/core/core_cm4.h **** 
 194:./cmsis/core/core_cm4.h **** 
 195:./cmsis/core/core_cm4.h **** 
 196:./cmsis/core/core_cm4.h **** /*******************************************************************************
 197:./cmsis/core/core_cm4.h ****  *                 Register Abstraction
 198:./cmsis/core/core_cm4.h ****  ******************************************************************************/
 199:./cmsis/core/core_cm4.h **** /** \defgroup CMSIS_core_register CMSIS Core Register
 200:./cmsis/core/core_cm4.h ****   Core Register contain:
 201:./cmsis/core/core_cm4.h ****   - Core Register
 202:./cmsis/core/core_cm4.h ****   - Core NVIC Register
 203:./cmsis/core/core_cm4.h ****   - Core SCB Register
 204:./cmsis/core/core_cm4.h ****   - Core SysTick Register
 205:./cmsis/core/core_cm4.h ****   - Core Debug Register
 206:./cmsis/core/core_cm4.h ****   - Core MPU Register
 207:./cmsis/core/core_cm4.h ****   - Core FPU Register
 208:./cmsis/core/core_cm4.h **** */
 209:./cmsis/core/core_cm4.h **** 
 210:./cmsis/core/core_cm4.h **** /** \ingroup  CMSIS_core_register
 211:./cmsis/core/core_cm4.h ****     \defgroup CMSIS_CORE CMSIS Core
 212:./cmsis/core/core_cm4.h ****   Type definitions for the Cortex-M Core Registers
 213:./cmsis/core/core_cm4.h ****   @{
 214:./cmsis/core/core_cm4.h ****  */
 215:./cmsis/core/core_cm4.h **** 
 216:./cmsis/core/core_cm4.h **** /** \brief  Union type to access the Application Program Status Register (APSR).
 217:./cmsis/core/core_cm4.h ****  */
 218:./cmsis/core/core_cm4.h **** typedef union
 219:./cmsis/core/core_cm4.h **** {
 220:./cmsis/core/core_cm4.h ****   struct
 221:./cmsis/core/core_cm4.h ****   {
 222:./cmsis/core/core_cm4.h **** #if (__CORTEX_M != 0x04)
 223:./cmsis/core/core_cm4.h ****     uint32_t _reserved0:27;              /*!< bit:  0..26  Reserved                           */
 224:./cmsis/core/core_cm4.h **** #else
 225:./cmsis/core/core_cm4.h ****     uint32_t _reserved0:16;              /*!< bit:  0..15  Reserved                           */
 226:./cmsis/core/core_cm4.h ****     uint32_t GE:4;                       /*!< bit: 16..19  Greater than or Equal flags        */
 227:./cmsis/core/core_cm4.h ****     uint32_t _reserved1:7;               /*!< bit: 20..26  Reserved                           */
 228:./cmsis/core/core_cm4.h **** #endif
 229:./cmsis/core/core_cm4.h ****     uint32_t Q:1;                        /*!< bit:     27  Saturation condition flag          */
 230:./cmsis/core/core_cm4.h ****     uint32_t V:1;                        /*!< bit:     28  Overflow condition code flag       */
 231:./cmsis/core/core_cm4.h ****     uint32_t C:1;                        /*!< bit:     29  Carry condition code flag          */
 232:./cmsis/core/core_cm4.h ****     uint32_t Z:1;                        /*!< bit:     30  Zero condition code flag           */
 233:./cmsis/core/core_cm4.h ****     uint32_t N:1;                        /*!< bit:     31  Negative condition code flag       */
 234:./cmsis/core/core_cm4.h ****   } b;                                   /*!< Structure used for bit  access                  */
 235:./cmsis/core/core_cm4.h ****   uint32_t w;                            /*!< Type      used for word access                  */
 236:./cmsis/core/core_cm4.h **** } APSR_Type;
 237:./cmsis/core/core_cm4.h **** 
 238:./cmsis/core/core_cm4.h **** 
 239:./cmsis/core/core_cm4.h **** /** \brief  Union type to access the Interrupt Program Status Register (IPSR).
ARM GAS  C:\Users\CNous\AppData\Local\Temp\ccmZfnu5.s 			page 28


 240:./cmsis/core/core_cm4.h ****  */
 241:./cmsis/core/core_cm4.h **** typedef union
 242:./cmsis/core/core_cm4.h **** {
 243:./cmsis/core/core_cm4.h ****   struct
 244:./cmsis/core/core_cm4.h ****   {
 245:./cmsis/core/core_cm4.h ****     uint32_t ISR:9;                      /*!< bit:  0.. 8  Exception number                   */
 246:./cmsis/core/core_cm4.h ****     uint32_t _reserved0:23;              /*!< bit:  9..31  Reserved                           */
 247:./cmsis/core/core_cm4.h ****   } b;                                   /*!< Structure used for bit  access                  */
 248:./cmsis/core/core_cm4.h ****   uint32_t w;                            /*!< Type      used for word access                  */
 249:./cmsis/core/core_cm4.h **** } IPSR_Type;
 250:./cmsis/core/core_cm4.h **** 
 251:./cmsis/core/core_cm4.h **** 
 252:./cmsis/core/core_cm4.h **** /** \brief  Union type to access the Special-Purpose Program Status Registers (xPSR).
 253:./cmsis/core/core_cm4.h ****  */
 254:./cmsis/core/core_cm4.h **** typedef union
 255:./cmsis/core/core_cm4.h **** {
 256:./cmsis/core/core_cm4.h ****   struct
 257:./cmsis/core/core_cm4.h ****   {
 258:./cmsis/core/core_cm4.h ****     uint32_t ISR:9;                      /*!< bit:  0.. 8  Exception number                   */
 259:./cmsis/core/core_cm4.h **** #if (__CORTEX_M != 0x04)
 260:./cmsis/core/core_cm4.h ****     uint32_t _reserved0:15;              /*!< bit:  9..23  Reserved                           */
 261:./cmsis/core/core_cm4.h **** #else
 262:./cmsis/core/core_cm4.h ****     uint32_t _reserved0:7;               /*!< bit:  9..15  Reserved                           */
 263:./cmsis/core/core_cm4.h ****     uint32_t GE:4;                       /*!< bit: 16..19  Greater than or Equal flags        */
 264:./cmsis/core/core_cm4.h ****     uint32_t _reserved1:4;               /*!< bit: 20..23  Reserved                           */
 265:./cmsis/core/core_cm4.h **** #endif
 266:./cmsis/core/core_cm4.h ****     uint32_t T:1;                        /*!< bit:     24  Thumb bit        (read 0)          */
 267:./cmsis/core/core_cm4.h ****     uint32_t IT:2;                       /*!< bit: 25..26  saved IT state   (read 0)          */
 268:./cmsis/core/core_cm4.h ****     uint32_t Q:1;                        /*!< bit:     27  Saturation condition flag          */
 269:./cmsis/core/core_cm4.h ****     uint32_t V:1;                        /*!< bit:     28  Overflow condition code flag       */
 270:./cmsis/core/core_cm4.h ****     uint32_t C:1;                        /*!< bit:     29  Carry condition code flag          */
 271:./cmsis/core/core_cm4.h ****     uint32_t Z:1;                        /*!< bit:     30  Zero condition code flag           */
 272:./cmsis/core/core_cm4.h ****     uint32_t N:1;                        /*!< bit:     31  Negative condition code flag       */
 273:./cmsis/core/core_cm4.h ****   } b;                                   /*!< Structure used for bit  access                  */
 274:./cmsis/core/core_cm4.h ****   uint32_t w;                            /*!< Type      used for word access                  */
 275:./cmsis/core/core_cm4.h **** } xPSR_Type;
 276:./cmsis/core/core_cm4.h **** 
 277:./cmsis/core/core_cm4.h **** 
 278:./cmsis/core/core_cm4.h **** /** \brief  Union type to access the Control Registers (CONTROL).
 279:./cmsis/core/core_cm4.h ****  */
 280:./cmsis/core/core_cm4.h **** typedef union
 281:./cmsis/core/core_cm4.h **** {
 282:./cmsis/core/core_cm4.h ****   struct
 283:./cmsis/core/core_cm4.h ****   {
 284:./cmsis/core/core_cm4.h ****     uint32_t nPRIV:1;                    /*!< bit:      0  Execution privilege in Thread mode */
 285:./cmsis/core/core_cm4.h ****     uint32_t SPSEL:1;                    /*!< bit:      1  Stack to be used                   */
 286:./cmsis/core/core_cm4.h ****     uint32_t FPCA:1;                     /*!< bit:      2  FP extension active flag           */
 287:./cmsis/core/core_cm4.h ****     uint32_t _reserved0:29;              /*!< bit:  3..31  Reserved                           */
 288:./cmsis/core/core_cm4.h ****   } b;                                   /*!< Structure used for bit  access                  */
 289:./cmsis/core/core_cm4.h ****   uint32_t w;                            /*!< Type      used for word access                  */
 290:./cmsis/core/core_cm4.h **** } CONTROL_Type;
 291:./cmsis/core/core_cm4.h **** 
 292:./cmsis/core/core_cm4.h **** /*@} end of group CMSIS_CORE */
 293:./cmsis/core/core_cm4.h **** 
 294:./cmsis/core/core_cm4.h **** 
 295:./cmsis/core/core_cm4.h **** /** \ingroup  CMSIS_core_register
 296:./cmsis/core/core_cm4.h ****     \defgroup CMSIS_NVIC CMSIS NVIC
ARM GAS  C:\Users\CNous\AppData\Local\Temp\ccmZfnu5.s 			page 29


 297:./cmsis/core/core_cm4.h ****   Type definitions for the Cortex-M NVIC Registers
 298:./cmsis/core/core_cm4.h ****   @{
 299:./cmsis/core/core_cm4.h ****  */
 300:./cmsis/core/core_cm4.h **** 
 301:./cmsis/core/core_cm4.h **** /** \brief  Structure type to access the Nested Vectored Interrupt Controller (NVIC).
 302:./cmsis/core/core_cm4.h ****  */
 303:./cmsis/core/core_cm4.h **** typedef struct
 304:./cmsis/core/core_cm4.h **** {
 305:./cmsis/core/core_cm4.h ****   __IO uint32_t ISER[8];                 /*!< Offset: 0x000 (R/W)  Interrupt Set Enable Register   
 306:./cmsis/core/core_cm4.h ****        uint32_t RESERVED0[24];
 307:./cmsis/core/core_cm4.h ****   __IO uint32_t ICER[8];                 /*!< Offset: 0x080 (R/W)  Interrupt Clear Enable Register 
 308:./cmsis/core/core_cm4.h ****        uint32_t RSERVED1[24];
 309:./cmsis/core/core_cm4.h ****   __IO uint32_t ISPR[8];                 /*!< Offset: 0x100 (R/W)  Interrupt Set Pending Register  
 310:./cmsis/core/core_cm4.h ****        uint32_t RESERVED2[24];
 311:./cmsis/core/core_cm4.h ****   __IO uint32_t ICPR[8];                 /*!< Offset: 0x180 (R/W)  Interrupt Clear Pending Register
 312:./cmsis/core/core_cm4.h ****        uint32_t RESERVED3[24];
 313:./cmsis/core/core_cm4.h ****   __IO uint32_t IABR[8];                 /*!< Offset: 0x200 (R/W)  Interrupt Active bit Register   
 314:./cmsis/core/core_cm4.h ****        uint32_t RESERVED4[56];
 315:./cmsis/core/core_cm4.h ****   __IO uint8_t  IP[240];                 /*!< Offset: 0x300 (R/W)  Interrupt Priority Register (8Bi
 316:./cmsis/core/core_cm4.h ****        uint32_t RESERVED5[644];
 317:./cmsis/core/core_cm4.h ****   __O  uint32_t STIR;                    /*!< Offset: 0xE00 ( /W)  Software Trigger Interrupt Regis
 318:./cmsis/core/core_cm4.h **** }  NVIC_Type;
 319:./cmsis/core/core_cm4.h **** 
 320:./cmsis/core/core_cm4.h **** /* Software Triggered Interrupt Register Definitions */
 321:./cmsis/core/core_cm4.h **** #define NVIC_STIR_INTID_Pos                 0                                          /*!< STIR: I
 322:./cmsis/core/core_cm4.h **** #define NVIC_STIR_INTID_Msk                (0x1FFUL << NVIC_STIR_INTID_Pos)            /*!< STIR: I
 323:./cmsis/core/core_cm4.h **** 
 324:./cmsis/core/core_cm4.h **** /*@} end of group CMSIS_NVIC */
 325:./cmsis/core/core_cm4.h **** 
 326:./cmsis/core/core_cm4.h **** 
 327:./cmsis/core/core_cm4.h **** /** \ingroup  CMSIS_core_register
 328:./cmsis/core/core_cm4.h ****     \defgroup CMSIS_SCB CMSIS SCB
 329:./cmsis/core/core_cm4.h ****   Type definitions for the Cortex-M System Control Block Registers
 330:./cmsis/core/core_cm4.h ****   @{
 331:./cmsis/core/core_cm4.h ****  */
 332:./cmsis/core/core_cm4.h **** 
 333:./cmsis/core/core_cm4.h **** /** \brief  Structure type to access the System Control Block (SCB).
 334:./cmsis/core/core_cm4.h ****  */
 335:./cmsis/core/core_cm4.h **** typedef struct
 336:./cmsis/core/core_cm4.h **** {
 337:./cmsis/core/core_cm4.h ****   __I  uint32_t CPUID;                   /*!< Offset: 0x000 (R/ )  CPUID Base Register             
 338:./cmsis/core/core_cm4.h ****   __IO uint32_t ICSR;                    /*!< Offset: 0x004 (R/W)  Interrupt Control and State Regi
 339:./cmsis/core/core_cm4.h ****   __IO uint32_t VTOR;                    /*!< Offset: 0x008 (R/W)  Vector Table Offset Register    
 340:./cmsis/core/core_cm4.h ****   __IO uint32_t AIRCR;                   /*!< Offset: 0x00C (R/W)  Application Interrupt and Reset 
 341:./cmsis/core/core_cm4.h ****   __IO uint32_t SCR;                     /*!< Offset: 0x010 (R/W)  System Control Register         
 342:./cmsis/core/core_cm4.h ****   __IO uint32_t CCR;                     /*!< Offset: 0x014 (R/W)  Configuration Control Register  
 343:./cmsis/core/core_cm4.h ****   __IO uint8_t  SHP[12];                 /*!< Offset: 0x018 (R/W)  System Handlers Priority Registe
 344:./cmsis/core/core_cm4.h ****   __IO uint32_t SHCSR;                   /*!< Offset: 0x024 (R/W)  System Handler Control and State
 345:./cmsis/core/core_cm4.h ****   __IO uint32_t CFSR;                    /*!< Offset: 0x028 (R/W)  Configurable Fault Status Regist
 346:./cmsis/core/core_cm4.h ****   __IO uint32_t HFSR;                    /*!< Offset: 0x02C (R/W)  HardFault Status Register       
 347:./cmsis/core/core_cm4.h ****   __IO uint32_t DFSR;                    /*!< Offset: 0x030 (R/W)  Debug Fault Status Register     
 348:./cmsis/core/core_cm4.h ****   __IO uint32_t MMFAR;                   /*!< Offset: 0x034 (R/W)  MemManage Fault Address Register
 349:./cmsis/core/core_cm4.h ****   __IO uint32_t BFAR;                    /*!< Offset: 0x038 (R/W)  BusFault Address Register       
 350:./cmsis/core/core_cm4.h ****   __IO uint32_t AFSR;                    /*!< Offset: 0x03C (R/W)  Auxiliary Fault Status Register 
 351:./cmsis/core/core_cm4.h ****   __I  uint32_t PFR[2];                  /*!< Offset: 0x040 (R/ )  Processor Feature Register      
 352:./cmsis/core/core_cm4.h ****   __I  uint32_t DFR;                     /*!< Offset: 0x048 (R/ )  Debug Feature Register          
 353:./cmsis/core/core_cm4.h ****   __I  uint32_t ADR;                     /*!< Offset: 0x04C (R/ )  Auxiliary Feature Register      
ARM GAS  C:\Users\CNous\AppData\Local\Temp\ccmZfnu5.s 			page 30


 354:./cmsis/core/core_cm4.h ****   __I  uint32_t MMFR[4];                 /*!< Offset: 0x050 (R/ )  Memory Model Feature Register   
 355:./cmsis/core/core_cm4.h ****   __I  uint32_t ISAR[5];                 /*!< Offset: 0x060 (R/ )  Instruction Set Attributes Regis
 356:./cmsis/core/core_cm4.h ****        uint32_t RESERVED0[5];
 357:./cmsis/core/core_cm4.h ****   __IO uint32_t CPACR;                   /*!< Offset: 0x088 (R/W)  Coprocessor Access Control Regis
 358:./cmsis/core/core_cm4.h **** } SCB_Type;
 359:./cmsis/core/core_cm4.h **** 
 360:./cmsis/core/core_cm4.h **** /* SCB CPUID Register Definitions */
 361:./cmsis/core/core_cm4.h **** #define SCB_CPUID_IMPLEMENTER_Pos          24                                             /*!< SCB 
 362:./cmsis/core/core_cm4.h **** #define SCB_CPUID_IMPLEMENTER_Msk          (0xFFUL << SCB_CPUID_IMPLEMENTER_Pos)          /*!< SCB 
 363:./cmsis/core/core_cm4.h **** 
 364:./cmsis/core/core_cm4.h **** #define SCB_CPUID_VARIANT_Pos              20                                             /*!< SCB 
 365:./cmsis/core/core_cm4.h **** #define SCB_CPUID_VARIANT_Msk              (0xFUL << SCB_CPUID_VARIANT_Pos)               /*!< SCB 
 366:./cmsis/core/core_cm4.h **** 
 367:./cmsis/core/core_cm4.h **** #define SCB_CPUID_ARCHITECTURE_Pos         16                                             /*!< SCB 
 368:./cmsis/core/core_cm4.h **** #define SCB_CPUID_ARCHITECTURE_Msk         (0xFUL << SCB_CPUID_ARCHITECTURE_Pos)          /*!< SCB 
 369:./cmsis/core/core_cm4.h **** 
 370:./cmsis/core/core_cm4.h **** #define SCB_CPUID_PARTNO_Pos                4                                             /*!< SCB 
 371:./cmsis/core/core_cm4.h **** #define SCB_CPUID_PARTNO_Msk               (0xFFFUL << SCB_CPUID_PARTNO_Pos)              /*!< SCB 
 372:./cmsis/core/core_cm4.h **** 
 373:./cmsis/core/core_cm4.h **** #define SCB_CPUID_REVISION_Pos              0                                             /*!< SCB 
 374:./cmsis/core/core_cm4.h **** #define SCB_CPUID_REVISION_Msk             (0xFUL << SCB_CPUID_REVISION_Pos)              /*!< SCB 
 375:./cmsis/core/core_cm4.h **** 
 376:./cmsis/core/core_cm4.h **** /* SCB Interrupt Control State Register Definitions */
 377:./cmsis/core/core_cm4.h **** #define SCB_ICSR_NMIPENDSET_Pos            31                                             /*!< SCB 
 378:./cmsis/core/core_cm4.h **** #define SCB_ICSR_NMIPENDSET_Msk            (1UL << SCB_ICSR_NMIPENDSET_Pos)               /*!< SCB 
 379:./cmsis/core/core_cm4.h **** 
 380:./cmsis/core/core_cm4.h **** #define SCB_ICSR_PENDSVSET_Pos             28                                             /*!< SCB 
 381:./cmsis/core/core_cm4.h **** #define SCB_ICSR_PENDSVSET_Msk             (1UL << SCB_ICSR_PENDSVSET_Pos)                /*!< SCB 
 382:./cmsis/core/core_cm4.h **** 
 383:./cmsis/core/core_cm4.h **** #define SCB_ICSR_PENDSVCLR_Pos             27                                             /*!< SCB 
 384:./cmsis/core/core_cm4.h **** #define SCB_ICSR_PENDSVCLR_Msk             (1UL << SCB_ICSR_PENDSVCLR_Pos)                /*!< SCB 
 385:./cmsis/core/core_cm4.h **** 
 386:./cmsis/core/core_cm4.h **** #define SCB_ICSR_PENDSTSET_Pos             26                                             /*!< SCB 
 387:./cmsis/core/core_cm4.h **** #define SCB_ICSR_PENDSTSET_Msk             (1UL << SCB_ICSR_PENDSTSET_Pos)                /*!< SCB 
 388:./cmsis/core/core_cm4.h **** 
 389:./cmsis/core/core_cm4.h **** #define SCB_ICSR_PENDSTCLR_Pos             25                                             /*!< SCB 
 390:./cmsis/core/core_cm4.h **** #define SCB_ICSR_PENDSTCLR_Msk             (1UL << SCB_ICSR_PENDSTCLR_Pos)                /*!< SCB 
 391:./cmsis/core/core_cm4.h **** 
 392:./cmsis/core/core_cm4.h **** #define SCB_ICSR_ISRPREEMPT_Pos            23                                             /*!< SCB 
 393:./cmsis/core/core_cm4.h **** #define SCB_ICSR_ISRPREEMPT_Msk            (1UL << SCB_ICSR_ISRPREEMPT_Pos)               /*!< SCB 
 394:./cmsis/core/core_cm4.h **** 
 395:./cmsis/core/core_cm4.h **** #define SCB_ICSR_ISRPENDING_Pos            22                                             /*!< SCB 
 396:./cmsis/core/core_cm4.h **** #define SCB_ICSR_ISRPENDING_Msk            (1UL << SCB_ICSR_ISRPENDING_Pos)               /*!< SCB 
 397:./cmsis/core/core_cm4.h **** 
 398:./cmsis/core/core_cm4.h **** #define SCB_ICSR_VECTPENDING_Pos           12                                             /*!< SCB 
 399:./cmsis/core/core_cm4.h **** #define SCB_ICSR_VECTPENDING_Msk           (0x1FFUL << SCB_ICSR_VECTPENDING_Pos)          /*!< SCB 
 400:./cmsis/core/core_cm4.h **** 
 401:./cmsis/core/core_cm4.h **** #define SCB_ICSR_RETTOBASE_Pos             11                                             /*!< SCB 
 402:./cmsis/core/core_cm4.h **** #define SCB_ICSR_RETTOBASE_Msk             (1UL << SCB_ICSR_RETTOBASE_Pos)                /*!< SCB 
 403:./cmsis/core/core_cm4.h **** 
 404:./cmsis/core/core_cm4.h **** #define SCB_ICSR_VECTACTIVE_Pos             0                                             /*!< SCB 
 405:./cmsis/core/core_cm4.h **** #define SCB_ICSR_VECTACTIVE_Msk            (0x1FFUL << SCB_ICSR_VECTACTIVE_Pos)           /*!< SCB 
 406:./cmsis/core/core_cm4.h **** 
 407:./cmsis/core/core_cm4.h **** /* SCB Vector Table Offset Register Definitions */
 408:./cmsis/core/core_cm4.h **** #define SCB_VTOR_TBLOFF_Pos                 7                                             /*!< SCB 
 409:./cmsis/core/core_cm4.h **** #define SCB_VTOR_TBLOFF_Msk                (0x1FFFFFFUL << SCB_VTOR_TBLOFF_Pos)           /*!< SCB 
 410:./cmsis/core/core_cm4.h **** 
ARM GAS  C:\Users\CNous\AppData\Local\Temp\ccmZfnu5.s 			page 31


 411:./cmsis/core/core_cm4.h **** /* SCB Application Interrupt and Reset Control Register Definitions */
 412:./cmsis/core/core_cm4.h **** #define SCB_AIRCR_VECTKEY_Pos              16                                             /*!< SCB 
 413:./cmsis/core/core_cm4.h **** #define SCB_AIRCR_VECTKEY_Msk              (0xFFFFUL << SCB_AIRCR_VECTKEY_Pos)            /*!< SCB 
 414:./cmsis/core/core_cm4.h **** 
 415:./cmsis/core/core_cm4.h **** #define SCB_AIRCR_VECTKEYSTAT_Pos          16                                             /*!< SCB 
 416:./cmsis/core/core_cm4.h **** #define SCB_AIRCR_VECTKEYSTAT_Msk          (0xFFFFUL << SCB_AIRCR_VECTKEYSTAT_Pos)        /*!< SCB 
 417:./cmsis/core/core_cm4.h **** 
 418:./cmsis/core/core_cm4.h **** #define SCB_AIRCR_ENDIANESS_Pos            15                                             /*!< SCB 
 419:./cmsis/core/core_cm4.h **** #define SCB_AIRCR_ENDIANESS_Msk            (1UL << SCB_AIRCR_ENDIANESS_Pos)               /*!< SCB 
 420:./cmsis/core/core_cm4.h **** 
 421:./cmsis/core/core_cm4.h **** #define SCB_AIRCR_PRIGROUP_Pos              8                                             /*!< SCB 
 422:./cmsis/core/core_cm4.h **** #define SCB_AIRCR_PRIGROUP_Msk             (7UL << SCB_AIRCR_PRIGROUP_Pos)                /*!< SCB 
 423:./cmsis/core/core_cm4.h **** 
 424:./cmsis/core/core_cm4.h **** #define SCB_AIRCR_SYSRESETREQ_Pos           2                                             /*!< SCB 
 425:./cmsis/core/core_cm4.h **** #define SCB_AIRCR_SYSRESETREQ_Msk          (1UL << SCB_AIRCR_SYSRESETREQ_Pos)             /*!< SCB 
 426:./cmsis/core/core_cm4.h **** 
 427:./cmsis/core/core_cm4.h **** #define SCB_AIRCR_VECTCLRACTIVE_Pos         1                                             /*!< SCB 
 428:./cmsis/core/core_cm4.h **** #define SCB_AIRCR_VECTCLRACTIVE_Msk        (1UL << SCB_AIRCR_VECTCLRACTIVE_Pos)           /*!< SCB 
 429:./cmsis/core/core_cm4.h **** 
 430:./cmsis/core/core_cm4.h **** #define SCB_AIRCR_VECTRESET_Pos             0                                             /*!< SCB 
 431:./cmsis/core/core_cm4.h **** #define SCB_AIRCR_VECTRESET_Msk            (1UL << SCB_AIRCR_VECTRESET_Pos)               /*!< SCB 
 432:./cmsis/core/core_cm4.h **** 
 433:./cmsis/core/core_cm4.h **** /* SCB System Control Register Definitions */
 434:./cmsis/core/core_cm4.h **** #define SCB_SCR_SEVONPEND_Pos               4                                             /*!< SCB 
 435:./cmsis/core/core_cm4.h **** #define SCB_SCR_SEVONPEND_Msk              (1UL << SCB_SCR_SEVONPEND_Pos)                 /*!< SCB 
 436:./cmsis/core/core_cm4.h **** 
 437:./cmsis/core/core_cm4.h **** #define SCB_SCR_SLEEPDEEP_Pos               2                                             /*!< SCB 
 438:./cmsis/core/core_cm4.h **** #define SCB_SCR_SLEEPDEEP_Msk              (1UL << SCB_SCR_SLEEPDEEP_Pos)                 /*!< SCB 
 439:./cmsis/core/core_cm4.h **** 
 440:./cmsis/core/core_cm4.h **** #define SCB_SCR_SLEEPONEXIT_Pos             1                                             /*!< SCB 
 441:./cmsis/core/core_cm4.h **** #define SCB_SCR_SLEEPONEXIT_Msk            (1UL << SCB_SCR_SLEEPONEXIT_Pos)               /*!< SCB 
 442:./cmsis/core/core_cm4.h **** 
 443:./cmsis/core/core_cm4.h **** /* SCB Configuration Control Register Definitions */
 444:./cmsis/core/core_cm4.h **** #define SCB_CCR_STKALIGN_Pos                9                                             /*!< SCB 
 445:./cmsis/core/core_cm4.h **** #define SCB_CCR_STKALIGN_Msk               (1UL << SCB_CCR_STKALIGN_Pos)                  /*!< SCB 
 446:./cmsis/core/core_cm4.h **** 
 447:./cmsis/core/core_cm4.h **** #define SCB_CCR_BFHFNMIGN_Pos               8                                             /*!< SCB 
 448:./cmsis/core/core_cm4.h **** #define SCB_CCR_BFHFNMIGN_Msk              (1UL << SCB_CCR_BFHFNMIGN_Pos)                 /*!< SCB 
 449:./cmsis/core/core_cm4.h **** 
 450:./cmsis/core/core_cm4.h **** #define SCB_CCR_DIV_0_TRP_Pos               4                                             /*!< SCB 
 451:./cmsis/core/core_cm4.h **** #define SCB_CCR_DIV_0_TRP_Msk              (1UL << SCB_CCR_DIV_0_TRP_Pos)                 /*!< SCB 
 452:./cmsis/core/core_cm4.h **** 
 453:./cmsis/core/core_cm4.h **** #define SCB_CCR_UNALIGN_TRP_Pos             3                                             /*!< SCB 
 454:./cmsis/core/core_cm4.h **** #define SCB_CCR_UNALIGN_TRP_Msk            (1UL << SCB_CCR_UNALIGN_TRP_Pos)               /*!< SCB 
 455:./cmsis/core/core_cm4.h **** 
 456:./cmsis/core/core_cm4.h **** #define SCB_CCR_USERSETMPEND_Pos            1                                             /*!< SCB 
 457:./cmsis/core/core_cm4.h **** #define SCB_CCR_USERSETMPEND_Msk           (1UL << SCB_CCR_USERSETMPEND_Pos)              /*!< SCB 
 458:./cmsis/core/core_cm4.h **** 
 459:./cmsis/core/core_cm4.h **** #define SCB_CCR_NONBASETHRDENA_Pos          0                                             /*!< SCB 
 460:./cmsis/core/core_cm4.h **** #define SCB_CCR_NONBASETHRDENA_Msk         (1UL << SCB_CCR_NONBASETHRDENA_Pos)            /*!< SCB 
 461:./cmsis/core/core_cm4.h **** 
 462:./cmsis/core/core_cm4.h **** /* SCB System Handler Control and State Register Definitions */
 463:./cmsis/core/core_cm4.h **** #define SCB_SHCSR_USGFAULTENA_Pos          18                                             /*!< SCB 
 464:./cmsis/core/core_cm4.h **** #define SCB_SHCSR_USGFAULTENA_Msk          (1UL << SCB_SHCSR_USGFAULTENA_Pos)             /*!< SCB 
 465:./cmsis/core/core_cm4.h **** 
 466:./cmsis/core/core_cm4.h **** #define SCB_SHCSR_BUSFAULTENA_Pos          17                                             /*!< SCB 
 467:./cmsis/core/core_cm4.h **** #define SCB_SHCSR_BUSFAULTENA_Msk          (1UL << SCB_SHCSR_BUSFAULTENA_Pos)             /*!< SCB 
ARM GAS  C:\Users\CNous\AppData\Local\Temp\ccmZfnu5.s 			page 32


 468:./cmsis/core/core_cm4.h **** 
 469:./cmsis/core/core_cm4.h **** #define SCB_SHCSR_MEMFAULTENA_Pos          16                                             /*!< SCB 
 470:./cmsis/core/core_cm4.h **** #define SCB_SHCSR_MEMFAULTENA_Msk          (1UL << SCB_SHCSR_MEMFAULTENA_Pos)             /*!< SCB 
 471:./cmsis/core/core_cm4.h **** 
 472:./cmsis/core/core_cm4.h **** #define SCB_SHCSR_SVCALLPENDED_Pos         15                                             /*!< SCB 
 473:./cmsis/core/core_cm4.h **** #define SCB_SHCSR_SVCALLPENDED_Msk         (1UL << SCB_SHCSR_SVCALLPENDED_Pos)            /*!< SCB 
 474:./cmsis/core/core_cm4.h **** 
 475:./cmsis/core/core_cm4.h **** #define SCB_SHCSR_BUSFAULTPENDED_Pos       14                                             /*!< SCB 
 476:./cmsis/core/core_cm4.h **** #define SCB_SHCSR_BUSFAULTPENDED_Msk       (1UL << SCB_SHCSR_BUSFAULTPENDED_Pos)          /*!< SCB 
 477:./cmsis/core/core_cm4.h **** 
 478:./cmsis/core/core_cm4.h **** #define SCB_SHCSR_MEMFAULTPENDED_Pos       13                                             /*!< SCB 
 479:./cmsis/core/core_cm4.h **** #define SCB_SHCSR_MEMFAULTPENDED_Msk       (1UL << SCB_SHCSR_MEMFAULTPENDED_Pos)          /*!< SCB 
 480:./cmsis/core/core_cm4.h **** 
 481:./cmsis/core/core_cm4.h **** #define SCB_SHCSR_USGFAULTPENDED_Pos       12                                             /*!< SCB 
 482:./cmsis/core/core_cm4.h **** #define SCB_SHCSR_USGFAULTPENDED_Msk       (1UL << SCB_SHCSR_USGFAULTPENDED_Pos)          /*!< SCB 
 483:./cmsis/core/core_cm4.h **** 
 484:./cmsis/core/core_cm4.h **** #define SCB_SHCSR_SYSTICKACT_Pos           11                                             /*!< SCB 
 485:./cmsis/core/core_cm4.h **** #define SCB_SHCSR_SYSTICKACT_Msk           (1UL << SCB_SHCSR_SYSTICKACT_Pos)              /*!< SCB 
 486:./cmsis/core/core_cm4.h **** 
 487:./cmsis/core/core_cm4.h **** #define SCB_SHCSR_PENDSVACT_Pos            10                                             /*!< SCB 
 488:./cmsis/core/core_cm4.h **** #define SCB_SHCSR_PENDSVACT_Msk            (1UL << SCB_SHCSR_PENDSVACT_Pos)               /*!< SCB 
 489:./cmsis/core/core_cm4.h **** 
 490:./cmsis/core/core_cm4.h **** #define SCB_SHCSR_MONITORACT_Pos            8                                             /*!< SCB 
 491:./cmsis/core/core_cm4.h **** #define SCB_SHCSR_MONITORACT_Msk           (1UL << SCB_SHCSR_MONITORACT_Pos)              /*!< SCB 
 492:./cmsis/core/core_cm4.h **** 
 493:./cmsis/core/core_cm4.h **** #define SCB_SHCSR_SVCALLACT_Pos             7                                             /*!< SCB 
 494:./cmsis/core/core_cm4.h **** #define SCB_SHCSR_SVCALLACT_Msk            (1UL << SCB_SHCSR_SVCALLACT_Pos)               /*!< SCB 
 495:./cmsis/core/core_cm4.h **** 
 496:./cmsis/core/core_cm4.h **** #define SCB_SHCSR_USGFAULTACT_Pos           3                                             /*!< SCB 
 497:./cmsis/core/core_cm4.h **** #define SCB_SHCSR_USGFAULTACT_Msk          (1UL << SCB_SHCSR_USGFAULTACT_Pos)             /*!< SCB 
 498:./cmsis/core/core_cm4.h **** 
 499:./cmsis/core/core_cm4.h **** #define SCB_SHCSR_BUSFAULTACT_Pos           1                                             /*!< SCB 
 500:./cmsis/core/core_cm4.h **** #define SCB_SHCSR_BUSFAULTACT_Msk          (1UL << SCB_SHCSR_BUSFAULTACT_Pos)             /*!< SCB 
 501:./cmsis/core/core_cm4.h **** 
 502:./cmsis/core/core_cm4.h **** #define SCB_SHCSR_MEMFAULTACT_Pos           0                                             /*!< SCB 
 503:./cmsis/core/core_cm4.h **** #define SCB_SHCSR_MEMFAULTACT_Msk          (1UL << SCB_SHCSR_MEMFAULTACT_Pos)             /*!< SCB 
 504:./cmsis/core/core_cm4.h **** 
 505:./cmsis/core/core_cm4.h **** /* SCB Configurable Fault Status Registers Definitions */
 506:./cmsis/core/core_cm4.h **** #define SCB_CFSR_USGFAULTSR_Pos            16                                             /*!< SCB 
 507:./cmsis/core/core_cm4.h **** #define SCB_CFSR_USGFAULTSR_Msk            (0xFFFFUL << SCB_CFSR_USGFAULTSR_Pos)          /*!< SCB 
 508:./cmsis/core/core_cm4.h **** 
 509:./cmsis/core/core_cm4.h **** #define SCB_CFSR_BUSFAULTSR_Pos             8                                             /*!< SCB 
 510:./cmsis/core/core_cm4.h **** #define SCB_CFSR_BUSFAULTSR_Msk            (0xFFUL << SCB_CFSR_BUSFAULTSR_Pos)            /*!< SCB 
 511:./cmsis/core/core_cm4.h **** 
 512:./cmsis/core/core_cm4.h **** #define SCB_CFSR_MEMFAULTSR_Pos             0                                             /*!< SCB 
 513:./cmsis/core/core_cm4.h **** #define SCB_CFSR_MEMFAULTSR_Msk            (0xFFUL << SCB_CFSR_MEMFAULTSR_Pos)            /*!< SCB 
 514:./cmsis/core/core_cm4.h **** 
 515:./cmsis/core/core_cm4.h **** /* SCB Hard Fault Status Registers Definitions */
 516:./cmsis/core/core_cm4.h **** #define SCB_HFSR_DEBUGEVT_Pos              31                                             /*!< SCB 
 517:./cmsis/core/core_cm4.h **** #define SCB_HFSR_DEBUGEVT_Msk              (1UL << SCB_HFSR_DEBUGEVT_Pos)                 /*!< SCB 
 518:./cmsis/core/core_cm4.h **** 
 519:./cmsis/core/core_cm4.h **** #define SCB_HFSR_FORCED_Pos                30                                             /*!< SCB 
 520:./cmsis/core/core_cm4.h **** #define SCB_HFSR_FORCED_Msk                (1UL << SCB_HFSR_FORCED_Pos)                   /*!< SCB 
 521:./cmsis/core/core_cm4.h **** 
 522:./cmsis/core/core_cm4.h **** #define SCB_HFSR_VECTTBL_Pos                1                                             /*!< SCB 
 523:./cmsis/core/core_cm4.h **** #define SCB_HFSR_VECTTBL_Msk               (1UL << SCB_HFSR_VECTTBL_Pos)                  /*!< SCB 
 524:./cmsis/core/core_cm4.h **** 
ARM GAS  C:\Users\CNous\AppData\Local\Temp\ccmZfnu5.s 			page 33


 525:./cmsis/core/core_cm4.h **** /* SCB Debug Fault Status Register Definitions */
 526:./cmsis/core/core_cm4.h **** #define SCB_DFSR_EXTERNAL_Pos               4                                             /*!< SCB 
 527:./cmsis/core/core_cm4.h **** #define SCB_DFSR_EXTERNAL_Msk              (1UL << SCB_DFSR_EXTERNAL_Pos)                 /*!< SCB 
 528:./cmsis/core/core_cm4.h **** 
 529:./cmsis/core/core_cm4.h **** #define SCB_DFSR_VCATCH_Pos                 3                                             /*!< SCB 
 530:./cmsis/core/core_cm4.h **** #define SCB_DFSR_VCATCH_Msk                (1UL << SCB_DFSR_VCATCH_Pos)                   /*!< SCB 
 531:./cmsis/core/core_cm4.h **** 
 532:./cmsis/core/core_cm4.h **** #define SCB_DFSR_DWTTRAP_Pos                2                                             /*!< SCB 
 533:./cmsis/core/core_cm4.h **** #define SCB_DFSR_DWTTRAP_Msk               (1UL << SCB_DFSR_DWTTRAP_Pos)                  /*!< SCB 
 534:./cmsis/core/core_cm4.h **** 
 535:./cmsis/core/core_cm4.h **** #define SCB_DFSR_BKPT_Pos                   1                                             /*!< SCB 
 536:./cmsis/core/core_cm4.h **** #define SCB_DFSR_BKPT_Msk                  (1UL << SCB_DFSR_BKPT_Pos)                     /*!< SCB 
 537:./cmsis/core/core_cm4.h **** 
 538:./cmsis/core/core_cm4.h **** #define SCB_DFSR_HALTED_Pos                 0                                             /*!< SCB 
 539:./cmsis/core/core_cm4.h **** #define SCB_DFSR_HALTED_Msk                (1UL << SCB_DFSR_HALTED_Pos)                   /*!< SCB 
 540:./cmsis/core/core_cm4.h **** 
 541:./cmsis/core/core_cm4.h **** /*@} end of group CMSIS_SCB */
 542:./cmsis/core/core_cm4.h **** 
 543:./cmsis/core/core_cm4.h **** 
 544:./cmsis/core/core_cm4.h **** /** \ingroup  CMSIS_core_register
 545:./cmsis/core/core_cm4.h ****     \defgroup CMSIS_SCnSCB CMSIS System Control and ID Register not in the SCB
 546:./cmsis/core/core_cm4.h ****   Type definitions for the Cortex-M System Control and ID Register not in the SCB
 547:./cmsis/core/core_cm4.h ****   @{
 548:./cmsis/core/core_cm4.h ****  */
 549:./cmsis/core/core_cm4.h **** 
 550:./cmsis/core/core_cm4.h **** /** \brief  Structure type to access the System Control and ID Register not in the SCB.
 551:./cmsis/core/core_cm4.h ****  */
 552:./cmsis/core/core_cm4.h **** typedef struct
 553:./cmsis/core/core_cm4.h **** {
 554:./cmsis/core/core_cm4.h ****        uint32_t RESERVED0[1];
 555:./cmsis/core/core_cm4.h ****   __I  uint32_t ICTR;                    /*!< Offset: 0x004 (R/ )  Interrupt Controller Type Regist
 556:./cmsis/core/core_cm4.h ****   __IO uint32_t ACTLR;                   /*!< Offset: 0x008 (R/W)  Auxiliary Control Register      
 557:./cmsis/core/core_cm4.h **** } SCnSCB_Type;
 558:./cmsis/core/core_cm4.h **** 
 559:./cmsis/core/core_cm4.h **** /* Interrupt Controller Type Register Definitions */
 560:./cmsis/core/core_cm4.h **** #define SCnSCB_ICTR_INTLINESNUM_Pos         0                                          /*!< ICTR: I
 561:./cmsis/core/core_cm4.h **** #define SCnSCB_ICTR_INTLINESNUM_Msk        (0xFUL << SCnSCB_ICTR_INTLINESNUM_Pos)      /*!< ICTR: I
 562:./cmsis/core/core_cm4.h **** 
 563:./cmsis/core/core_cm4.h **** /* Auxiliary Control Register Definitions */
 564:./cmsis/core/core_cm4.h **** #define SCnSCB_ACTLR_DISOOFP_Pos            9                                          /*!< ACTLR: 
 565:./cmsis/core/core_cm4.h **** #define SCnSCB_ACTLR_DISOOFP_Msk           (1UL << SCnSCB_ACTLR_DISOOFP_Pos)           /*!< ACTLR: 
 566:./cmsis/core/core_cm4.h **** 
 567:./cmsis/core/core_cm4.h **** #define SCnSCB_ACTLR_DISFPCA_Pos            8                                          /*!< ACTLR: 
 568:./cmsis/core/core_cm4.h **** #define SCnSCB_ACTLR_DISFPCA_Msk           (1UL << SCnSCB_ACTLR_DISFPCA_Pos)           /*!< ACTLR: 
 569:./cmsis/core/core_cm4.h **** 
 570:./cmsis/core/core_cm4.h **** #define SCnSCB_ACTLR_DISFOLD_Pos            2                                          /*!< ACTLR: 
 571:./cmsis/core/core_cm4.h **** #define SCnSCB_ACTLR_DISFOLD_Msk           (1UL << SCnSCB_ACTLR_DISFOLD_Pos)           /*!< ACTLR: 
 572:./cmsis/core/core_cm4.h **** 
 573:./cmsis/core/core_cm4.h **** #define SCnSCB_ACTLR_DISDEFWBUF_Pos         1                                          /*!< ACTLR: 
 574:./cmsis/core/core_cm4.h **** #define SCnSCB_ACTLR_DISDEFWBUF_Msk        (1UL << SCnSCB_ACTLR_DISDEFWBUF_Pos)        /*!< ACTLR: 
 575:./cmsis/core/core_cm4.h **** 
 576:./cmsis/core/core_cm4.h **** #define SCnSCB_ACTLR_DISMCYCINT_Pos         0                                          /*!< ACTLR: 
 577:./cmsis/core/core_cm4.h **** #define SCnSCB_ACTLR_DISMCYCINT_Msk        (1UL << SCnSCB_ACTLR_DISMCYCINT_Pos)        /*!< ACTLR: 
 578:./cmsis/core/core_cm4.h **** 
 579:./cmsis/core/core_cm4.h **** /*@} end of group CMSIS_SCnotSCB */
 580:./cmsis/core/core_cm4.h **** 
 581:./cmsis/core/core_cm4.h **** 
ARM GAS  C:\Users\CNous\AppData\Local\Temp\ccmZfnu5.s 			page 34


 582:./cmsis/core/core_cm4.h **** /** \ingroup  CMSIS_core_register
 583:./cmsis/core/core_cm4.h ****     \defgroup CMSIS_SysTick CMSIS SysTick
 584:./cmsis/core/core_cm4.h ****   Type definitions for the Cortex-M System Timer Registers
 585:./cmsis/core/core_cm4.h ****   @{
 586:./cmsis/core/core_cm4.h ****  */
 587:./cmsis/core/core_cm4.h **** 
 588:./cmsis/core/core_cm4.h **** /** \brief  Structure type to access the System Timer (SysTick).
 589:./cmsis/core/core_cm4.h ****  */
 590:./cmsis/core/core_cm4.h **** typedef struct
 591:./cmsis/core/core_cm4.h **** {
 592:./cmsis/core/core_cm4.h ****   __IO uint32_t CTRL;                    /*!< Offset: 0x000 (R/W)  SysTick Control and Status Regis
 593:./cmsis/core/core_cm4.h ****   __IO uint32_t LOAD;                    /*!< Offset: 0x004 (R/W)  SysTick Reload Value Register   
 594:./cmsis/core/core_cm4.h ****   __IO uint32_t VAL;                     /*!< Offset: 0x008 (R/W)  SysTick Current Value Register  
 595:./cmsis/core/core_cm4.h ****   __I  uint32_t CALIB;                   /*!< Offset: 0x00C (R/ )  SysTick Calibration Register    
 596:./cmsis/core/core_cm4.h **** } SysTick_Type;
 597:./cmsis/core/core_cm4.h **** 
 598:./cmsis/core/core_cm4.h **** /* SysTick Control / Status Register Definitions */
 599:./cmsis/core/core_cm4.h **** #define SysTick_CTRL_COUNTFLAG_Pos         16                                             /*!< SysT
 600:./cmsis/core/core_cm4.h **** #define SysTick_CTRL_COUNTFLAG_Msk         (1UL << SysTick_CTRL_COUNTFLAG_Pos)            /*!< SysT
 601:./cmsis/core/core_cm4.h **** 
 602:./cmsis/core/core_cm4.h **** #define SysTick_CTRL_CLKSOURCE_Pos          2                                             /*!< SysT
 603:./cmsis/core/core_cm4.h **** #define SysTick_CTRL_CLKSOURCE_Msk         (1UL << SysTick_CTRL_CLKSOURCE_Pos)            /*!< SysT
 604:./cmsis/core/core_cm4.h **** 
 605:./cmsis/core/core_cm4.h **** #define SysTick_CTRL_TICKINT_Pos            1                                             /*!< SysT
 606:./cmsis/core/core_cm4.h **** #define SysTick_CTRL_TICKINT_Msk           (1UL << SysTick_CTRL_TICKINT_Pos)              /*!< SysT
 607:./cmsis/core/core_cm4.h **** 
 608:./cmsis/core/core_cm4.h **** #define SysTick_CTRL_ENABLE_Pos             0                                             /*!< SysT
 609:./cmsis/core/core_cm4.h **** #define SysTick_CTRL_ENABLE_Msk            (1UL << SysTick_CTRL_ENABLE_Pos)               /*!< SysT
 610:./cmsis/core/core_cm4.h **** 
 611:./cmsis/core/core_cm4.h **** /* SysTick Reload Register Definitions */
 612:./cmsis/core/core_cm4.h **** #define SysTick_LOAD_RELOAD_Pos             0                                             /*!< SysT
 613:./cmsis/core/core_cm4.h **** #define SysTick_LOAD_RELOAD_Msk            (0xFFFFFFUL << SysTick_LOAD_RELOAD_Pos)        /*!< SysT
 614:./cmsis/core/core_cm4.h **** 
 615:./cmsis/core/core_cm4.h **** /* SysTick Current Register Definitions */
 616:./cmsis/core/core_cm4.h **** #define SysTick_VAL_CURRENT_Pos             0                                             /*!< SysT
 617:./cmsis/core/core_cm4.h **** #define SysTick_VAL_CURRENT_Msk            (0xFFFFFFUL << SysTick_VAL_CURRENT_Pos)        /*!< SysT
 618:./cmsis/core/core_cm4.h **** 
 619:./cmsis/core/core_cm4.h **** /* SysTick Calibration Register Definitions */
 620:./cmsis/core/core_cm4.h **** #define SysTick_CALIB_NOREF_Pos            31                                             /*!< SysT
 621:./cmsis/core/core_cm4.h **** #define SysTick_CALIB_NOREF_Msk            (1UL << SysTick_CALIB_NOREF_Pos)               /*!< SysT
 622:./cmsis/core/core_cm4.h **** 
 623:./cmsis/core/core_cm4.h **** #define SysTick_CALIB_SKEW_Pos             30                                             /*!< SysT
 624:./cmsis/core/core_cm4.h **** #define SysTick_CALIB_SKEW_Msk             (1UL << SysTick_CALIB_SKEW_Pos)                /*!< SysT
 625:./cmsis/core/core_cm4.h **** 
 626:./cmsis/core/core_cm4.h **** #define SysTick_CALIB_TENMS_Pos             0                                             /*!< SysT
 627:./cmsis/core/core_cm4.h **** #define SysTick_CALIB_TENMS_Msk            (0xFFFFFFUL << SysTick_VAL_CURRENT_Pos)        /*!< SysT
 628:./cmsis/core/core_cm4.h **** 
 629:./cmsis/core/core_cm4.h **** /*@} end of group CMSIS_SysTick */
 630:./cmsis/core/core_cm4.h **** 
 631:./cmsis/core/core_cm4.h **** 
 632:./cmsis/core/core_cm4.h **** /** \ingroup  CMSIS_core_register
 633:./cmsis/core/core_cm4.h ****     \defgroup CMSIS_ITM CMSIS ITM
 634:./cmsis/core/core_cm4.h ****   Type definitions for the Cortex-M Instrumentation Trace Macrocell (ITM)
 635:./cmsis/core/core_cm4.h ****   @{
 636:./cmsis/core/core_cm4.h ****  */
 637:./cmsis/core/core_cm4.h **** 
 638:./cmsis/core/core_cm4.h **** /** \brief  Structure type to access the Instrumentation Trace Macrocell Register (ITM).
ARM GAS  C:\Users\CNous\AppData\Local\Temp\ccmZfnu5.s 			page 35


 639:./cmsis/core/core_cm4.h ****  */
 640:./cmsis/core/core_cm4.h **** typedef struct
 641:./cmsis/core/core_cm4.h **** {
 642:./cmsis/core/core_cm4.h ****   __O  union
 643:./cmsis/core/core_cm4.h ****   {
 644:./cmsis/core/core_cm4.h ****     __O  uint8_t    u8;                  /*!< Offset: 0x000 ( /W)  ITM Stimulus Port 8-bit         
 645:./cmsis/core/core_cm4.h ****     __O  uint16_t   u16;                 /*!< Offset: 0x000 ( /W)  ITM Stimulus Port 16-bit        
 646:./cmsis/core/core_cm4.h ****     __O  uint32_t   u32;                 /*!< Offset: 0x000 ( /W)  ITM Stimulus Port 32-bit        
 647:./cmsis/core/core_cm4.h ****   }  PORT [32];                          /*!< Offset: 0x000 ( /W)  ITM Stimulus Port Registers     
 648:./cmsis/core/core_cm4.h ****        uint32_t RESERVED0[864];
 649:./cmsis/core/core_cm4.h ****   __IO uint32_t TER;                     /*!< Offset: 0xE00 (R/W)  ITM Trace Enable Register       
 650:./cmsis/core/core_cm4.h ****        uint32_t RESERVED1[15];
 651:./cmsis/core/core_cm4.h ****   __IO uint32_t TPR;                     /*!< Offset: 0xE40 (R/W)  ITM Trace Privilege Register    
 652:./cmsis/core/core_cm4.h ****        uint32_t RESERVED2[15];
 653:./cmsis/core/core_cm4.h ****   __IO uint32_t TCR;                     /*!< Offset: 0xE80 (R/W)  ITM Trace Control Register      
 654:./cmsis/core/core_cm4.h **** } ITM_Type;
 655:./cmsis/core/core_cm4.h **** 
 656:./cmsis/core/core_cm4.h **** /* ITM Trace Privilege Register Definitions */
 657:./cmsis/core/core_cm4.h **** #define ITM_TPR_PRIVMASK_Pos                0                                          /*!< ITM TPR
 658:./cmsis/core/core_cm4.h **** #define ITM_TPR_PRIVMASK_Msk               (0xFUL << ITM_TPR_PRIVMASK_Pos)             /*!< ITM TPR
 659:./cmsis/core/core_cm4.h **** 
 660:./cmsis/core/core_cm4.h **** /* ITM Trace Control Register Definitions */
 661:./cmsis/core/core_cm4.h **** #define ITM_TCR_BUSY_Pos                   23                                          /*!< ITM TCR
 662:./cmsis/core/core_cm4.h **** #define ITM_TCR_BUSY_Msk                   (1UL << ITM_TCR_BUSY_Pos)                   /*!< ITM TCR
 663:./cmsis/core/core_cm4.h **** 
 664:./cmsis/core/core_cm4.h **** #define ITM_TCR_TraceBusID_Pos             16                                          /*!< ITM TCR
 665:./cmsis/core/core_cm4.h **** #define ITM_TCR_TraceBusID_Msk             (0x7FUL << ITM_TCR_TraceBusID_Pos)          /*!< ITM TCR
 666:./cmsis/core/core_cm4.h **** 
 667:./cmsis/core/core_cm4.h **** #define ITM_TCR_GTSFREQ_Pos                10                                          /*!< ITM TCR
 668:./cmsis/core/core_cm4.h **** #define ITM_TCR_GTSFREQ_Msk                (3UL << ITM_TCR_GTSFREQ_Pos)                /*!< ITM TCR
 669:./cmsis/core/core_cm4.h **** 
 670:./cmsis/core/core_cm4.h **** #define ITM_TCR_TSPrescale_Pos              8                                          /*!< ITM TCR
 671:./cmsis/core/core_cm4.h **** #define ITM_TCR_TSPrescale_Msk             (3UL << ITM_TCR_TSPrescale_Pos)             /*!< ITM TCR
 672:./cmsis/core/core_cm4.h **** 
 673:./cmsis/core/core_cm4.h **** #define ITM_TCR_SWOENA_Pos                  4                                          /*!< ITM TCR
 674:./cmsis/core/core_cm4.h **** #define ITM_TCR_SWOENA_Msk                 (1UL << ITM_TCR_SWOENA_Pos)                 /*!< ITM TCR
 675:./cmsis/core/core_cm4.h **** 
 676:./cmsis/core/core_cm4.h **** #define ITM_TCR_TXENA_Pos                   3                                          /*!< ITM TCR
 677:./cmsis/core/core_cm4.h **** #define ITM_TCR_TXENA_Msk                  (1UL << ITM_TCR_TXENA_Pos)                  /*!< ITM TCR
 678:./cmsis/core/core_cm4.h **** 
 679:./cmsis/core/core_cm4.h **** #define ITM_TCR_SYNCENA_Pos                 2                                          /*!< ITM TCR
 680:./cmsis/core/core_cm4.h **** #define ITM_TCR_SYNCENA_Msk                (1UL << ITM_TCR_SYNCENA_Pos)                /*!< ITM TCR
 681:./cmsis/core/core_cm4.h **** 
 682:./cmsis/core/core_cm4.h **** #define ITM_TCR_TSENA_Pos                   1                                          /*!< ITM TCR
 683:./cmsis/core/core_cm4.h **** #define ITM_TCR_TSENA_Msk                  (1UL << ITM_TCR_TSENA_Pos)                  /*!< ITM TCR
 684:./cmsis/core/core_cm4.h **** 
 685:./cmsis/core/core_cm4.h **** #define ITM_TCR_ITMENA_Pos                  0                                          /*!< ITM TCR
 686:./cmsis/core/core_cm4.h **** #define ITM_TCR_ITMENA_Msk                 (1UL << ITM_TCR_ITMENA_Pos)                 /*!< ITM TCR
 687:./cmsis/core/core_cm4.h **** 
 688:./cmsis/core/core_cm4.h **** /*@}*/ /* end of group CMSIS_ITM */
 689:./cmsis/core/core_cm4.h **** 
 690:./cmsis/core/core_cm4.h **** 
 691:./cmsis/core/core_cm4.h **** #if (__MPU_PRESENT == 1)
 692:./cmsis/core/core_cm4.h **** /** \ingroup  CMSIS_core_register
 693:./cmsis/core/core_cm4.h ****     \defgroup CMSIS_MPU CMSIS MPU
 694:./cmsis/core/core_cm4.h ****   Type definitions for the Cortex-M Memory Protection Unit (MPU)
 695:./cmsis/core/core_cm4.h ****   @{
ARM GAS  C:\Users\CNous\AppData\Local\Temp\ccmZfnu5.s 			page 36


 696:./cmsis/core/core_cm4.h ****  */
 697:./cmsis/core/core_cm4.h **** 
 698:./cmsis/core/core_cm4.h **** /** \brief  Structure type to access the Memory Protection Unit (MPU).
 699:./cmsis/core/core_cm4.h ****  */
 700:./cmsis/core/core_cm4.h **** typedef struct
 701:./cmsis/core/core_cm4.h **** {
 702:./cmsis/core/core_cm4.h ****   __I  uint32_t TYPE;                    /*!< Offset: 0x000 (R/ )  MPU Type Register               
 703:./cmsis/core/core_cm4.h ****   __IO uint32_t CTRL;                    /*!< Offset: 0x004 (R/W)  MPU Control Register            
 704:./cmsis/core/core_cm4.h ****   __IO uint32_t RNR;                     /*!< Offset: 0x008 (R/W)  MPU Region RNRber Register      
 705:./cmsis/core/core_cm4.h ****   __IO uint32_t RBAR;                    /*!< Offset: 0x00C (R/W)  MPU Region Base Address Register
 706:./cmsis/core/core_cm4.h ****   __IO uint32_t RASR;                    /*!< Offset: 0x010 (R/W)  MPU Region Attribute and Size Re
 707:./cmsis/core/core_cm4.h ****   __IO uint32_t RBAR_A1;                 /*!< Offset: 0x014 (R/W)  MPU Alias 1 Region Base Address 
 708:./cmsis/core/core_cm4.h ****   __IO uint32_t RASR_A1;                 /*!< Offset: 0x018 (R/W)  MPU Alias 1 Region Attribute and
 709:./cmsis/core/core_cm4.h ****   __IO uint32_t RBAR_A2;                 /*!< Offset: 0x01C (R/W)  MPU Alias 2 Region Base Address 
 710:./cmsis/core/core_cm4.h ****   __IO uint32_t RASR_A2;                 /*!< Offset: 0x020 (R/W)  MPU Alias 2 Region Attribute and
 711:./cmsis/core/core_cm4.h ****   __IO uint32_t RBAR_A3;                 /*!< Offset: 0x024 (R/W)  MPU Alias 3 Region Base Address 
 712:./cmsis/core/core_cm4.h ****   __IO uint32_t RASR_A3;                 /*!< Offset: 0x028 (R/W)  MPU Alias 3 Region Attribute and
 713:./cmsis/core/core_cm4.h **** } MPU_Type;
 714:./cmsis/core/core_cm4.h **** 
 715:./cmsis/core/core_cm4.h **** /* MPU Type Register */
 716:./cmsis/core/core_cm4.h **** #define MPU_TYPE_IREGION_Pos               16                                             /*!< MPU 
 717:./cmsis/core/core_cm4.h **** #define MPU_TYPE_IREGION_Msk               (0xFFUL << MPU_TYPE_IREGION_Pos)               /*!< MPU 
 718:./cmsis/core/core_cm4.h **** 
 719:./cmsis/core/core_cm4.h **** #define MPU_TYPE_DREGION_Pos                8                                             /*!< MPU 
 720:./cmsis/core/core_cm4.h **** #define MPU_TYPE_DREGION_Msk               (0xFFUL << MPU_TYPE_DREGION_Pos)               /*!< MPU 
 721:./cmsis/core/core_cm4.h **** 
 722:./cmsis/core/core_cm4.h **** #define MPU_TYPE_SEPARATE_Pos               0                                             /*!< MPU 
 723:./cmsis/core/core_cm4.h **** #define MPU_TYPE_SEPARATE_Msk              (1UL << MPU_TYPE_SEPARATE_Pos)                 /*!< MPU 
 724:./cmsis/core/core_cm4.h **** 
 725:./cmsis/core/core_cm4.h **** /* MPU Control Register */
 726:./cmsis/core/core_cm4.h **** #define MPU_CTRL_PRIVDEFENA_Pos             2                                             /*!< MPU 
 727:./cmsis/core/core_cm4.h **** #define MPU_CTRL_PRIVDEFENA_Msk            (1UL << MPU_CTRL_PRIVDEFENA_Pos)               /*!< MPU 
 728:./cmsis/core/core_cm4.h **** 
 729:./cmsis/core/core_cm4.h **** #define MPU_CTRL_HFNMIENA_Pos               1                                             /*!< MPU 
 730:./cmsis/core/core_cm4.h **** #define MPU_CTRL_HFNMIENA_Msk              (1UL << MPU_CTRL_HFNMIENA_Pos)                 /*!< MPU 
 731:./cmsis/core/core_cm4.h **** 
 732:./cmsis/core/core_cm4.h **** #define MPU_CTRL_ENABLE_Pos                 0                                             /*!< MPU 
 733:./cmsis/core/core_cm4.h **** #define MPU_CTRL_ENABLE_Msk                (1UL << MPU_CTRL_ENABLE_Pos)                   /*!< MPU 
 734:./cmsis/core/core_cm4.h **** 
 735:./cmsis/core/core_cm4.h **** /* MPU Region Number Register */
 736:./cmsis/core/core_cm4.h **** #define MPU_RNR_REGION_Pos                  0                                             /*!< MPU 
 737:./cmsis/core/core_cm4.h **** #define MPU_RNR_REGION_Msk                 (0xFFUL << MPU_RNR_REGION_Pos)                 /*!< MPU 
 738:./cmsis/core/core_cm4.h **** 
 739:./cmsis/core/core_cm4.h **** /* MPU Region Base Address Register */
 740:./cmsis/core/core_cm4.h **** #define MPU_RBAR_ADDR_Pos                   5                                             /*!< MPU 
 741:./cmsis/core/core_cm4.h **** #define MPU_RBAR_ADDR_Msk                  (0x7FFFFFFUL << MPU_RBAR_ADDR_Pos)             /*!< MPU 
 742:./cmsis/core/core_cm4.h **** 
 743:./cmsis/core/core_cm4.h **** #define MPU_RBAR_VALID_Pos                  4                                             /*!< MPU 
 744:./cmsis/core/core_cm4.h **** #define MPU_RBAR_VALID_Msk                 (1UL << MPU_RBAR_VALID_Pos)                    /*!< MPU 
 745:./cmsis/core/core_cm4.h **** 
 746:./cmsis/core/core_cm4.h **** #define MPU_RBAR_REGION_Pos                 0                                             /*!< MPU 
 747:./cmsis/core/core_cm4.h **** #define MPU_RBAR_REGION_Msk                (0xFUL << MPU_RBAR_REGION_Pos)                 /*!< MPU 
 748:./cmsis/core/core_cm4.h **** 
 749:./cmsis/core/core_cm4.h **** /* MPU Region Attribute and Size Register */
 750:./cmsis/core/core_cm4.h **** #define MPU_RASR_ATTRS_Pos                 16                                             /*!< MPU 
 751:./cmsis/core/core_cm4.h **** #define MPU_RASR_ATTRS_Msk                 (0xFFFFUL << MPU_RASR_ATTRS_Pos)               /*!< MPU 
 752:./cmsis/core/core_cm4.h **** 
ARM GAS  C:\Users\CNous\AppData\Local\Temp\ccmZfnu5.s 			page 37


 753:./cmsis/core/core_cm4.h **** #define MPU_RASR_SRD_Pos                    8                                             /*!< MPU 
 754:./cmsis/core/core_cm4.h **** #define MPU_RASR_SRD_Msk                   (0xFFUL << MPU_RASR_SRD_Pos)                   /*!< MPU 
 755:./cmsis/core/core_cm4.h **** 
 756:./cmsis/core/core_cm4.h **** #define MPU_RASR_SIZE_Pos                   1                                             /*!< MPU 
 757:./cmsis/core/core_cm4.h **** #define MPU_RASR_SIZE_Msk                  (0x1FUL << MPU_RASR_SIZE_Pos)                  /*!< MPU 
 758:./cmsis/core/core_cm4.h **** 
 759:./cmsis/core/core_cm4.h **** #define MPU_RASR_ENABLE_Pos                 0                                             /*!< MPU 
 760:./cmsis/core/core_cm4.h **** #define MPU_RASR_ENABLE_Msk                (1UL << MPU_RASR_ENABLE_Pos)                   /*!< MPU 
 761:./cmsis/core/core_cm4.h **** 
 762:./cmsis/core/core_cm4.h **** /*@} end of group CMSIS_MPU */
 763:./cmsis/core/core_cm4.h **** #endif
 764:./cmsis/core/core_cm4.h **** 
 765:./cmsis/core/core_cm4.h **** 
 766:./cmsis/core/core_cm4.h **** #if (__FPU_PRESENT == 1)
 767:./cmsis/core/core_cm4.h **** /** \ingroup  CMSIS_core_register
 768:./cmsis/core/core_cm4.h ****     \defgroup CMSIS_FPU CMSIS FPU
 769:./cmsis/core/core_cm4.h ****   Type definitions for the Cortex-M Floating Point Unit (FPU)
 770:./cmsis/core/core_cm4.h ****   @{
 771:./cmsis/core/core_cm4.h ****  */
 772:./cmsis/core/core_cm4.h **** 
 773:./cmsis/core/core_cm4.h **** /** \brief  Structure type to access the Floating Point Unit (FPU).
 774:./cmsis/core/core_cm4.h ****  */
 775:./cmsis/core/core_cm4.h **** typedef struct
 776:./cmsis/core/core_cm4.h **** {
 777:./cmsis/core/core_cm4.h ****        uint32_t RESERVED0[1];
 778:./cmsis/core/core_cm4.h ****   __IO uint32_t FPCCR;                   /*!< Offset: 0x004 (R/W)  Floating-Point Context Control R
 779:./cmsis/core/core_cm4.h ****   __IO uint32_t FPCAR;                   /*!< Offset: 0x008 (R/W)  Floating-Point Context Address R
 780:./cmsis/core/core_cm4.h ****   __IO uint32_t FPDSCR;                  /*!< Offset: 0x00C (R/W)  Floating-Point Default Status Co
 781:./cmsis/core/core_cm4.h ****   __I  uint32_t MVFR0;                   /*!< Offset: 0x010 (R/ )  Media and FP Feature Register 0 
 782:./cmsis/core/core_cm4.h ****   __I  uint32_t MVFR1;                   /*!< Offset: 0x014 (R/ )  Media and FP Feature Register 1 
 783:./cmsis/core/core_cm4.h **** } FPU_Type;
 784:./cmsis/core/core_cm4.h **** 
 785:./cmsis/core/core_cm4.h **** /* Floating-Point Context Control Register */
 786:./cmsis/core/core_cm4.h **** #define FPU_FPCCR_ASPEN_Pos                31                                             /*!< FPCC
 787:./cmsis/core/core_cm4.h **** #define FPU_FPCCR_ASPEN_Msk                (1UL << FPU_FPCCR_ASPEN_Pos)                   /*!< FPCC
 788:./cmsis/core/core_cm4.h **** 
 789:./cmsis/core/core_cm4.h **** #define FPU_FPCCR_LSPEN_Pos                30                                             /*!< FPCC
 790:./cmsis/core/core_cm4.h **** #define FPU_FPCCR_LSPEN_Msk                (1UL << FPU_FPCCR_LSPEN_Pos)                   /*!< FPCC
 791:./cmsis/core/core_cm4.h **** 
 792:./cmsis/core/core_cm4.h **** #define FPU_FPCCR_MONRDY_Pos                8                                             /*!< FPCC
 793:./cmsis/core/core_cm4.h **** #define FPU_FPCCR_MONRDY_Msk               (1UL << FPU_FPCCR_MONRDY_Pos)                  /*!< FPCC
 794:./cmsis/core/core_cm4.h **** 
 795:./cmsis/core/core_cm4.h **** #define FPU_FPCCR_BFRDY_Pos                 6                                             /*!< FPCC
 796:./cmsis/core/core_cm4.h **** #define FPU_FPCCR_BFRDY_Msk                (1UL << FPU_FPCCR_BFRDY_Pos)                   /*!< FPCC
 797:./cmsis/core/core_cm4.h **** 
 798:./cmsis/core/core_cm4.h **** #define FPU_FPCCR_MMRDY_Pos                 5                                             /*!< FPCC
 799:./cmsis/core/core_cm4.h **** #define FPU_FPCCR_MMRDY_Msk                (1UL << FPU_FPCCR_MMRDY_Pos)                   /*!< FPCC
 800:./cmsis/core/core_cm4.h **** 
 801:./cmsis/core/core_cm4.h **** #define FPU_FPCCR_HFRDY_Pos                 4                                             /*!< FPCC
 802:./cmsis/core/core_cm4.h **** #define FPU_FPCCR_HFRDY_Msk                (1UL << FPU_FPCCR_HFRDY_Pos)                   /*!< FPCC
 803:./cmsis/core/core_cm4.h **** 
 804:./cmsis/core/core_cm4.h **** #define FPU_FPCCR_THREAD_Pos                3                                             /*!< FPCC
 805:./cmsis/core/core_cm4.h **** #define FPU_FPCCR_THREAD_Msk               (1UL << FPU_FPCCR_THREAD_Pos)                  /*!< FPCC
 806:./cmsis/core/core_cm4.h **** 
 807:./cmsis/core/core_cm4.h **** #define FPU_FPCCR_USER_Pos                  1                                             /*!< FPCC
 808:./cmsis/core/core_cm4.h **** #define FPU_FPCCR_USER_Msk                 (1UL << FPU_FPCCR_USER_Pos)                    /*!< FPCC
 809:./cmsis/core/core_cm4.h **** 
ARM GAS  C:\Users\CNous\AppData\Local\Temp\ccmZfnu5.s 			page 38


 810:./cmsis/core/core_cm4.h **** #define FPU_FPCCR_LSPACT_Pos                0                                             /*!< FPCC
 811:./cmsis/core/core_cm4.h **** #define FPU_FPCCR_LSPACT_Msk               (1UL << FPU_FPCCR_LSPACT_Pos)                  /*!< FPCC
 812:./cmsis/core/core_cm4.h **** 
 813:./cmsis/core/core_cm4.h **** /* Floating-Point Context Address Register */
 814:./cmsis/core/core_cm4.h **** #define FPU_FPCAR_ADDRESS_Pos               3                                             /*!< FPCA
 815:./cmsis/core/core_cm4.h **** #define FPU_FPCAR_ADDRESS_Msk              (0x1FFFFFFFUL << FPU_FPCAR_ADDRESS_Pos)        /*!< FPCA
 816:./cmsis/core/core_cm4.h **** 
 817:./cmsis/core/core_cm4.h **** /* Floating-Point Default Status Control Register */
 818:./cmsis/core/core_cm4.h **** #define FPU_FPDSCR_AHP_Pos                 26                                             /*!< FPDS
 819:./cmsis/core/core_cm4.h **** #define FPU_FPDSCR_AHP_Msk                 (1UL << FPU_FPDSCR_AHP_Pos)                    /*!< FPDS
 820:./cmsis/core/core_cm4.h **** 
 821:./cmsis/core/core_cm4.h **** #define FPU_FPDSCR_DN_Pos                  25                                             /*!< FPDS
 822:./cmsis/core/core_cm4.h **** #define FPU_FPDSCR_DN_Msk                  (1UL << FPU_FPDSCR_DN_Pos)                     /*!< FPDS
 823:./cmsis/core/core_cm4.h **** 
 824:./cmsis/core/core_cm4.h **** #define FPU_FPDSCR_FZ_Pos                  24                                             /*!< FPDS
 825:./cmsis/core/core_cm4.h **** #define FPU_FPDSCR_FZ_Msk                  (1UL << FPU_FPDSCR_FZ_Pos)                     /*!< FPDS
 826:./cmsis/core/core_cm4.h **** 
 827:./cmsis/core/core_cm4.h **** #define FPU_FPDSCR_RMode_Pos               22                                             /*!< FPDS
 828:./cmsis/core/core_cm4.h **** #define FPU_FPDSCR_RMode_Msk               (3UL << FPU_FPDSCR_RMode_Pos)                  /*!< FPDS
 829:./cmsis/core/core_cm4.h **** 
 830:./cmsis/core/core_cm4.h **** /* Media and FP Feature Register 0 */
 831:./cmsis/core/core_cm4.h **** #define FPU_MVFR0_FP_rounding_modes_Pos    28                                             /*!< MVFR
 832:./cmsis/core/core_cm4.h **** #define FPU_MVFR0_FP_rounding_modes_Msk    (0xFUL << FPU_MVFR0_FP_rounding_modes_Pos)     /*!< MVFR
 833:./cmsis/core/core_cm4.h **** 
 834:./cmsis/core/core_cm4.h **** #define FPU_MVFR0_Short_vectors_Pos        24                                             /*!< MVFR
 835:./cmsis/core/core_cm4.h **** #define FPU_MVFR0_Short_vectors_Msk        (0xFUL << FPU_MVFR0_Short_vectors_Pos)         /*!< MVFR
 836:./cmsis/core/core_cm4.h **** 
 837:./cmsis/core/core_cm4.h **** #define FPU_MVFR0_Square_root_Pos          20                                             /*!< MVFR
 838:./cmsis/core/core_cm4.h **** #define FPU_MVFR0_Square_root_Msk          (0xFUL << FPU_MVFR0_Square_root_Pos)           /*!< MVFR
 839:./cmsis/core/core_cm4.h **** 
 840:./cmsis/core/core_cm4.h **** #define FPU_MVFR0_Divide_Pos               16                                             /*!< MVFR
 841:./cmsis/core/core_cm4.h **** #define FPU_MVFR0_Divide_Msk               (0xFUL << FPU_MVFR0_Divide_Pos)                /*!< MVFR
 842:./cmsis/core/core_cm4.h **** 
 843:./cmsis/core/core_cm4.h **** #define FPU_MVFR0_FP_excep_trapping_Pos    12                                             /*!< MVFR
 844:./cmsis/core/core_cm4.h **** #define FPU_MVFR0_FP_excep_trapping_Msk    (0xFUL << FPU_MVFR0_FP_excep_trapping_Pos)     /*!< MVFR
 845:./cmsis/core/core_cm4.h **** 
 846:./cmsis/core/core_cm4.h **** #define FPU_MVFR0_Double_precision_Pos      8                                             /*!< MVFR
 847:./cmsis/core/core_cm4.h **** #define FPU_MVFR0_Double_precision_Msk     (0xFUL << FPU_MVFR0_Double_precision_Pos)      /*!< MVFR
 848:./cmsis/core/core_cm4.h **** 
 849:./cmsis/core/core_cm4.h **** #define FPU_MVFR0_Single_precision_Pos      4                                             /*!< MVFR
 850:./cmsis/core/core_cm4.h **** #define FPU_MVFR0_Single_precision_Msk     (0xFUL << FPU_MVFR0_Single_precision_Pos)      /*!< MVFR
 851:./cmsis/core/core_cm4.h **** 
 852:./cmsis/core/core_cm4.h **** #define FPU_MVFR0_A_SIMD_registers_Pos      0                                             /*!< MVFR
 853:./cmsis/core/core_cm4.h **** #define FPU_MVFR0_A_SIMD_registers_Msk     (0xFUL << FPU_MVFR0_A_SIMD_registers_Pos)      /*!< MVFR
 854:./cmsis/core/core_cm4.h **** 
 855:./cmsis/core/core_cm4.h **** /* Media and FP Feature Register 1 */
 856:./cmsis/core/core_cm4.h **** #define FPU_MVFR1_FP_fused_MAC_Pos         28                                             /*!< MVFR
 857:./cmsis/core/core_cm4.h **** #define FPU_MVFR1_FP_fused_MAC_Msk         (0xFUL << FPU_MVFR1_FP_fused_MAC_Pos)          /*!< MVFR
 858:./cmsis/core/core_cm4.h **** 
 859:./cmsis/core/core_cm4.h **** #define FPU_MVFR1_FP_HPFP_Pos              24                                             /*!< MVFR
 860:./cmsis/core/core_cm4.h **** #define FPU_MVFR1_FP_HPFP_Msk              (0xFUL << FPU_MVFR1_FP_HPFP_Pos)               /*!< MVFR
 861:./cmsis/core/core_cm4.h **** 
 862:./cmsis/core/core_cm4.h **** #define FPU_MVFR1_D_NaN_mode_Pos            4                                             /*!< MVFR
 863:./cmsis/core/core_cm4.h **** #define FPU_MVFR1_D_NaN_mode_Msk           (0xFUL << FPU_MVFR1_D_NaN_mode_Pos)            /*!< MVFR
 864:./cmsis/core/core_cm4.h **** 
 865:./cmsis/core/core_cm4.h **** #define FPU_MVFR1_FtZ_mode_Pos              0                                             /*!< MVFR
 866:./cmsis/core/core_cm4.h **** #define FPU_MVFR1_FtZ_mode_Msk             (0xFUL << FPU_MVFR1_FtZ_mode_Pos)              /*!< MVFR
ARM GAS  C:\Users\CNous\AppData\Local\Temp\ccmZfnu5.s 			page 39


 867:./cmsis/core/core_cm4.h **** 
 868:./cmsis/core/core_cm4.h **** /*@} end of group CMSIS_FPU */
 869:./cmsis/core/core_cm4.h **** #endif
 870:./cmsis/core/core_cm4.h **** 
 871:./cmsis/core/core_cm4.h **** 
 872:./cmsis/core/core_cm4.h **** /** \ingroup  CMSIS_core_register
 873:./cmsis/core/core_cm4.h ****     \defgroup CMSIS_CoreDebug CMSIS Core Debug
 874:./cmsis/core/core_cm4.h ****   Type definitions for the Cortex-M Core Debug Registers
 875:./cmsis/core/core_cm4.h ****   @{
 876:./cmsis/core/core_cm4.h ****  */
 877:./cmsis/core/core_cm4.h **** 
 878:./cmsis/core/core_cm4.h **** /** \brief  Structure type to access the Core Debug Register (CoreDebug).
 879:./cmsis/core/core_cm4.h ****  */
 880:./cmsis/core/core_cm4.h **** typedef struct
 881:./cmsis/core/core_cm4.h **** {
 882:./cmsis/core/core_cm4.h ****   __IO uint32_t DHCSR;                   /*!< Offset: 0x000 (R/W)  Debug Halting Control and Status
 883:./cmsis/core/core_cm4.h ****   __O  uint32_t DCRSR;                   /*!< Offset: 0x004 ( /W)  Debug Core Register Selector Reg
 884:./cmsis/core/core_cm4.h ****   __IO uint32_t DCRDR;                   /*!< Offset: 0x008 (R/W)  Debug Core Register Data Registe
 885:./cmsis/core/core_cm4.h ****   __IO uint32_t DEMCR;                   /*!< Offset: 0x00C (R/W)  Debug Exception and Monitor Cont
 886:./cmsis/core/core_cm4.h **** } CoreDebug_Type;
 887:./cmsis/core/core_cm4.h **** 
 888:./cmsis/core/core_cm4.h **** /* Debug Halting Control and Status Register */
 889:./cmsis/core/core_cm4.h **** #define CoreDebug_DHCSR_DBGKEY_Pos         16                                             /*!< Core
 890:./cmsis/core/core_cm4.h **** #define CoreDebug_DHCSR_DBGKEY_Msk         (0xFFFFUL << CoreDebug_DHCSR_DBGKEY_Pos)       /*!< Core
 891:./cmsis/core/core_cm4.h **** 
 892:./cmsis/core/core_cm4.h **** #define CoreDebug_DHCSR_S_RESET_ST_Pos     25                                             /*!< Core
 893:./cmsis/core/core_cm4.h **** #define CoreDebug_DHCSR_S_RESET_ST_Msk     (1UL << CoreDebug_DHCSR_S_RESET_ST_Pos)        /*!< Core
 894:./cmsis/core/core_cm4.h **** 
 895:./cmsis/core/core_cm4.h **** #define CoreDebug_DHCSR_S_RETIRE_ST_Pos    24                                             /*!< Core
 896:./cmsis/core/core_cm4.h **** #define CoreDebug_DHCSR_S_RETIRE_ST_Msk    (1UL << CoreDebug_DHCSR_S_RETIRE_ST_Pos)       /*!< Core
 897:./cmsis/core/core_cm4.h **** 
 898:./cmsis/core/core_cm4.h **** #define CoreDebug_DHCSR_S_LOCKUP_Pos       19                                             /*!< Core
 899:./cmsis/core/core_cm4.h **** #define CoreDebug_DHCSR_S_LOCKUP_Msk       (1UL << CoreDebug_DHCSR_S_LOCKUP_Pos)          /*!< Core
 900:./cmsis/core/core_cm4.h **** 
 901:./cmsis/core/core_cm4.h **** #define CoreDebug_DHCSR_S_SLEEP_Pos        18                                             /*!< Core
 902:./cmsis/core/core_cm4.h **** #define CoreDebug_DHCSR_S_SLEEP_Msk        (1UL << CoreDebug_DHCSR_S_SLEEP_Pos)           /*!< Core
 903:./cmsis/core/core_cm4.h **** 
 904:./cmsis/core/core_cm4.h **** #define CoreDebug_DHCSR_S_HALT_Pos         17                                             /*!< Core
 905:./cmsis/core/core_cm4.h **** #define CoreDebug_DHCSR_S_HALT_Msk         (1UL << CoreDebug_DHCSR_S_HALT_Pos)            /*!< Core
 906:./cmsis/core/core_cm4.h **** 
 907:./cmsis/core/core_cm4.h **** #define CoreDebug_DHCSR_S_REGRDY_Pos       16                                             /*!< Core
 908:./cmsis/core/core_cm4.h **** #define CoreDebug_DHCSR_S_REGRDY_Msk       (1UL << CoreDebug_DHCSR_S_REGRDY_Pos)          /*!< Core
 909:./cmsis/core/core_cm4.h **** 
 910:./cmsis/core/core_cm4.h **** #define CoreDebug_DHCSR_C_SNAPSTALL_Pos     5                                             /*!< Core
 911:./cmsis/core/core_cm4.h **** #define CoreDebug_DHCSR_C_SNAPSTALL_Msk    (1UL << CoreDebug_DHCSR_C_SNAPSTALL_Pos)       /*!< Core
 912:./cmsis/core/core_cm4.h **** 
 913:./cmsis/core/core_cm4.h **** #define CoreDebug_DHCSR_C_MASKINTS_Pos      3                                             /*!< Core
 914:./cmsis/core/core_cm4.h **** #define CoreDebug_DHCSR_C_MASKINTS_Msk     (1UL << CoreDebug_DHCSR_C_MASKINTS_Pos)        /*!< Core
 915:./cmsis/core/core_cm4.h **** 
 916:./cmsis/core/core_cm4.h **** #define CoreDebug_DHCSR_C_STEP_Pos          2                                             /*!< Core
 917:./cmsis/core/core_cm4.h **** #define CoreDebug_DHCSR_C_STEP_Msk         (1UL << CoreDebug_DHCSR_C_STEP_Pos)            /*!< Core
 918:./cmsis/core/core_cm4.h **** 
 919:./cmsis/core/core_cm4.h **** #define CoreDebug_DHCSR_C_HALT_Pos          1                                             /*!< Core
 920:./cmsis/core/core_cm4.h **** #define CoreDebug_DHCSR_C_HALT_Msk         (1UL << CoreDebug_DHCSR_C_HALT_Pos)            /*!< Core
 921:./cmsis/core/core_cm4.h **** 
 922:./cmsis/core/core_cm4.h **** #define CoreDebug_DHCSR_C_DEBUGEN_Pos       0                                             /*!< Core
 923:./cmsis/core/core_cm4.h **** #define CoreDebug_DHCSR_C_DEBUGEN_Msk      (1UL << CoreDebug_DHCSR_C_DEBUGEN_Pos)         /*!< Core
ARM GAS  C:\Users\CNous\AppData\Local\Temp\ccmZfnu5.s 			page 40


 924:./cmsis/core/core_cm4.h **** 
 925:./cmsis/core/core_cm4.h **** /* Debug Core Register Selector Register */
 926:./cmsis/core/core_cm4.h **** #define CoreDebug_DCRSR_REGWnR_Pos         16                                             /*!< Core
 927:./cmsis/core/core_cm4.h **** #define CoreDebug_DCRSR_REGWnR_Msk         (1UL << CoreDebug_DCRSR_REGWnR_Pos)            /*!< Core
 928:./cmsis/core/core_cm4.h **** 
 929:./cmsis/core/core_cm4.h **** #define CoreDebug_DCRSR_REGSEL_Pos          0                                             /*!< Core
 930:./cmsis/core/core_cm4.h **** #define CoreDebug_DCRSR_REGSEL_Msk         (0x1FUL << CoreDebug_DCRSR_REGSEL_Pos)         /*!< Core
 931:./cmsis/core/core_cm4.h **** 
 932:./cmsis/core/core_cm4.h **** /* Debug Exception and Monitor Control Register */
 933:./cmsis/core/core_cm4.h **** #define CoreDebug_DEMCR_TRCENA_Pos         24                                             /*!< Core
 934:./cmsis/core/core_cm4.h **** #define CoreDebug_DEMCR_TRCENA_Msk         (1UL << CoreDebug_DEMCR_TRCENA_Pos)            /*!< Core
 935:./cmsis/core/core_cm4.h **** 
 936:./cmsis/core/core_cm4.h **** #define CoreDebug_DEMCR_MON_REQ_Pos        19                                             /*!< Core
 937:./cmsis/core/core_cm4.h **** #define CoreDebug_DEMCR_MON_REQ_Msk        (1UL << CoreDebug_DEMCR_MON_REQ_Pos)           /*!< Core
 938:./cmsis/core/core_cm4.h **** 
 939:./cmsis/core/core_cm4.h **** #define CoreDebug_DEMCR_MON_STEP_Pos       18                                             /*!< Core
 940:./cmsis/core/core_cm4.h **** #define CoreDebug_DEMCR_MON_STEP_Msk       (1UL << CoreDebug_DEMCR_MON_STEP_Pos)          /*!< Core
 941:./cmsis/core/core_cm4.h **** 
 942:./cmsis/core/core_cm4.h **** #define CoreDebug_DEMCR_MON_PEND_Pos       17                                             /*!< Core
 943:./cmsis/core/core_cm4.h **** #define CoreDebug_DEMCR_MON_PEND_Msk       (1UL << CoreDebug_DEMCR_MON_PEND_Pos)          /*!< Core
 944:./cmsis/core/core_cm4.h **** 
 945:./cmsis/core/core_cm4.h **** #define CoreDebug_DEMCR_MON_EN_Pos         16                                             /*!< Core
 946:./cmsis/core/core_cm4.h **** #define CoreDebug_DEMCR_MON_EN_Msk         (1UL << CoreDebug_DEMCR_MON_EN_Pos)            /*!< Core
 947:./cmsis/core/core_cm4.h **** 
 948:./cmsis/core/core_cm4.h **** #define CoreDebug_DEMCR_VC_HARDERR_Pos     10                                             /*!< Core
 949:./cmsis/core/core_cm4.h **** #define CoreDebug_DEMCR_VC_HARDERR_Msk     (1UL << CoreDebug_DEMCR_VC_HARDERR_Pos)        /*!< Core
 950:./cmsis/core/core_cm4.h **** 
 951:./cmsis/core/core_cm4.h **** #define CoreDebug_DEMCR_VC_INTERR_Pos       9                                             /*!< Core
 952:./cmsis/core/core_cm4.h **** #define CoreDebug_DEMCR_VC_INTERR_Msk      (1UL << CoreDebug_DEMCR_VC_INTERR_Pos)         /*!< Core
 953:./cmsis/core/core_cm4.h **** 
 954:./cmsis/core/core_cm4.h **** #define CoreDebug_DEMCR_VC_BUSERR_Pos       8                                             /*!< Core
 955:./cmsis/core/core_cm4.h **** #define CoreDebug_DEMCR_VC_BUSERR_Msk      (1UL << CoreDebug_DEMCR_VC_BUSERR_Pos)         /*!< Core
 956:./cmsis/core/core_cm4.h **** 
 957:./cmsis/core/core_cm4.h **** #define CoreDebug_DEMCR_VC_STATERR_Pos      7                                             /*!< Core
 958:./cmsis/core/core_cm4.h **** #define CoreDebug_DEMCR_VC_STATERR_Msk     (1UL << CoreDebug_DEMCR_VC_STATERR_Pos)        /*!< Core
 959:./cmsis/core/core_cm4.h **** 
 960:./cmsis/core/core_cm4.h **** #define CoreDebug_DEMCR_VC_CHKERR_Pos       6                                             /*!< Core
 961:./cmsis/core/core_cm4.h **** #define CoreDebug_DEMCR_VC_CHKERR_Msk      (1UL << CoreDebug_DEMCR_VC_CHKERR_Pos)         /*!< Core
 962:./cmsis/core/core_cm4.h **** 
 963:./cmsis/core/core_cm4.h **** #define CoreDebug_DEMCR_VC_NOCPERR_Pos      5                                             /*!< Core
 964:./cmsis/core/core_cm4.h **** #define CoreDebug_DEMCR_VC_NOCPERR_Msk     (1UL << CoreDebug_DEMCR_VC_NOCPERR_Pos)        /*!< Core
 965:./cmsis/core/core_cm4.h **** 
 966:./cmsis/core/core_cm4.h **** #define CoreDebug_DEMCR_VC_MMERR_Pos        4                                             /*!< Core
 967:./cmsis/core/core_cm4.h **** #define CoreDebug_DEMCR_VC_MMERR_Msk       (1UL << CoreDebug_DEMCR_VC_MMERR_Pos)          /*!< Core
 968:./cmsis/core/core_cm4.h **** 
 969:./cmsis/core/core_cm4.h **** #define CoreDebug_DEMCR_VC_CORERESET_Pos    0                                             /*!< Core
 970:./cmsis/core/core_cm4.h **** #define CoreDebug_DEMCR_VC_CORERESET_Msk   (1UL << CoreDebug_DEMCR_VC_CORERESET_Pos)      /*!< Core
 971:./cmsis/core/core_cm4.h **** 
 972:./cmsis/core/core_cm4.h **** /*@} end of group CMSIS_CoreDebug */
 973:./cmsis/core/core_cm4.h **** 
 974:./cmsis/core/core_cm4.h **** 
 975:./cmsis/core/core_cm4.h **** /** \ingroup  CMSIS_core_register
 976:./cmsis/core/core_cm4.h ****   @{
 977:./cmsis/core/core_cm4.h ****  */
 978:./cmsis/core/core_cm4.h **** 
 979:./cmsis/core/core_cm4.h **** /* Memory mapping of Cortex-M4 Hardware */
 980:./cmsis/core/core_cm4.h **** #define SCS_BASE            (0xE000E000UL)                            /*!< System Control Space Bas
ARM GAS  C:\Users\CNous\AppData\Local\Temp\ccmZfnu5.s 			page 41


 981:./cmsis/core/core_cm4.h **** #define ITM_BASE            (0xE0000000UL)                            /*!< ITM Base Address        
 982:./cmsis/core/core_cm4.h **** #define CoreDebug_BASE      (0xE000EDF0UL)                            /*!< Core Debug Base Address 
 983:./cmsis/core/core_cm4.h **** #define SysTick_BASE        (SCS_BASE +  0x0010UL)                    /*!< SysTick Base Address    
 984:./cmsis/core/core_cm4.h **** #define NVIC_BASE           (SCS_BASE +  0x0100UL)                    /*!< NVIC Base Address       
 985:./cmsis/core/core_cm4.h **** #define SCB_BASE            (SCS_BASE +  0x0D00UL)                    /*!< System Control Block Bas
 986:./cmsis/core/core_cm4.h **** 
 987:./cmsis/core/core_cm4.h **** #define SCnSCB              ((SCnSCB_Type    *)     SCS_BASE      )   /*!< System control Register 
 988:./cmsis/core/core_cm4.h **** #define SCB                 ((SCB_Type       *)     SCB_BASE      )   /*!< SCB configuration struct
 989:./cmsis/core/core_cm4.h **** #define SysTick             ((SysTick_Type   *)     SysTick_BASE  )   /*!< SysTick configuration st
 990:./cmsis/core/core_cm4.h **** #define NVIC                ((NVIC_Type      *)     NVIC_BASE     )   /*!< NVIC configuration struc
 991:./cmsis/core/core_cm4.h **** #define ITM                 ((ITM_Type       *)     ITM_BASE      )   /*!< ITM configuration struct
 992:./cmsis/core/core_cm4.h **** #define CoreDebug           ((CoreDebug_Type *)     CoreDebug_BASE)   /*!< Core Debug configuration
 993:./cmsis/core/core_cm4.h **** 
 994:./cmsis/core/core_cm4.h **** #if (__MPU_PRESENT == 1)
 995:./cmsis/core/core_cm4.h ****   #define MPU_BASE          (SCS_BASE +  0x0D90UL)                    /*!< Memory Protection Unit  
 996:./cmsis/core/core_cm4.h ****   #define MPU               ((MPU_Type       *)     MPU_BASE      )   /*!< Memory Protection Unit  
 997:./cmsis/core/core_cm4.h **** #endif
 998:./cmsis/core/core_cm4.h **** 
 999:./cmsis/core/core_cm4.h **** #if (__FPU_PRESENT == 1)
1000:./cmsis/core/core_cm4.h ****   #define FPU_BASE          (SCS_BASE +  0x0F30UL)                    /*!< Floating Point Unit     
1001:./cmsis/core/core_cm4.h ****   #define FPU               ((FPU_Type       *)     FPU_BASE      )   /*!< Floating Point Unit     
1002:./cmsis/core/core_cm4.h **** #endif
1003:./cmsis/core/core_cm4.h **** 
1004:./cmsis/core/core_cm4.h **** /*@} */
1005:./cmsis/core/core_cm4.h **** 
1006:./cmsis/core/core_cm4.h **** 
1007:./cmsis/core/core_cm4.h **** 
1008:./cmsis/core/core_cm4.h **** /*******************************************************************************
1009:./cmsis/core/core_cm4.h ****  *                Hardware Abstraction Layer
1010:./cmsis/core/core_cm4.h ****  ******************************************************************************/
1011:./cmsis/core/core_cm4.h **** /** \defgroup CMSIS_Core_FunctionInterface CMSIS Core Function Interface
1012:./cmsis/core/core_cm4.h ****   Core Function Interface contains:
1013:./cmsis/core/core_cm4.h ****   - Core NVIC Functions
1014:./cmsis/core/core_cm4.h ****   - Core SysTick Functions
1015:./cmsis/core/core_cm4.h ****   - Core Debug Functions
1016:./cmsis/core/core_cm4.h ****   - Core Register Access Functions
1017:./cmsis/core/core_cm4.h **** */
1018:./cmsis/core/core_cm4.h **** 
1019:./cmsis/core/core_cm4.h **** 
1020:./cmsis/core/core_cm4.h **** 
1021:./cmsis/core/core_cm4.h **** /* ##########################   NVIC functions  #################################### */
1022:./cmsis/core/core_cm4.h **** /** \ingroup  CMSIS_Core_FunctionInterface
1023:./cmsis/core/core_cm4.h ****     \defgroup CMSIS_Core_NVICFunctions CMSIS Core NVIC Functions
1024:./cmsis/core/core_cm4.h ****   @{
1025:./cmsis/core/core_cm4.h ****  */
1026:./cmsis/core/core_cm4.h **** 
1027:./cmsis/core/core_cm4.h **** /** \brief  Set Priority Grouping
1028:./cmsis/core/core_cm4.h **** 
1029:./cmsis/core/core_cm4.h ****   This function sets the priority grouping field using the required unlock sequence.
1030:./cmsis/core/core_cm4.h ****   The parameter PriorityGroup is assigned to the field SCB->AIRCR [10:8] PRIGROUP field.
1031:./cmsis/core/core_cm4.h ****   Only values from 0..7 are used.
1032:./cmsis/core/core_cm4.h ****   In case of a conflict between priority grouping and available
1033:./cmsis/core/core_cm4.h ****   priority bits (__NVIC_PRIO_BITS) the smallest possible priority group is set.
1034:./cmsis/core/core_cm4.h **** 
1035:./cmsis/core/core_cm4.h ****     \param [in]      PriorityGroup  Priority grouping field
1036:./cmsis/core/core_cm4.h ****  */
1037:./cmsis/core/core_cm4.h **** static __INLINE void NVIC_SetPriorityGrouping(uint32_t PriorityGroup)
ARM GAS  C:\Users\CNous\AppData\Local\Temp\ccmZfnu5.s 			page 42


1038:./cmsis/core/core_cm4.h **** {
1039:./cmsis/core/core_cm4.h ****   uint32_t reg_value;
1040:./cmsis/core/core_cm4.h ****   uint32_t PriorityGroupTmp = (PriorityGroup & (uint32_t)0x07);               /* only values 0..7 a
1041:./cmsis/core/core_cm4.h **** 
1042:./cmsis/core/core_cm4.h ****   reg_value  =  SCB->AIRCR;                                                   /* read old register 
1043:./cmsis/core/core_cm4.h ****   reg_value &= ~(SCB_AIRCR_VECTKEY_Msk | SCB_AIRCR_PRIGROUP_Msk);             /* clear bits to chan
1044:./cmsis/core/core_cm4.h ****   reg_value  =  (reg_value                                 |
1045:./cmsis/core/core_cm4.h ****                 ((uint32_t)0x5FA << SCB_AIRCR_VECTKEY_Pos) |
1046:./cmsis/core/core_cm4.h ****                 (PriorityGroupTmp << 8));                                     /* Insert write key a
1047:./cmsis/core/core_cm4.h ****   SCB->AIRCR =  reg_value;
1048:./cmsis/core/core_cm4.h **** }
1049:./cmsis/core/core_cm4.h **** 
1050:./cmsis/core/core_cm4.h **** 
1051:./cmsis/core/core_cm4.h **** /** \brief  Get Priority Grouping
1052:./cmsis/core/core_cm4.h **** 
1053:./cmsis/core/core_cm4.h ****   This function gets the priority grouping from NVIC Interrupt Controller.
1054:./cmsis/core/core_cm4.h ****   Priority grouping is SCB->AIRCR [10:8] PRIGROUP field.
1055:./cmsis/core/core_cm4.h **** 
1056:./cmsis/core/core_cm4.h ****     \return                Priority grouping field
1057:./cmsis/core/core_cm4.h ****  */
1058:./cmsis/core/core_cm4.h **** static __INLINE uint32_t NVIC_GetPriorityGrouping(void)
1059:./cmsis/core/core_cm4.h **** {
1060:./cmsis/core/core_cm4.h ****   return ((SCB->AIRCR & SCB_AIRCR_PRIGROUP_Msk) >> SCB_AIRCR_PRIGROUP_Pos);   /* read priority grou
1061:./cmsis/core/core_cm4.h **** }
1062:./cmsis/core/core_cm4.h **** 
1063:./cmsis/core/core_cm4.h **** 
1064:./cmsis/core/core_cm4.h **** /** \brief  Enable External Interrupt
1065:./cmsis/core/core_cm4.h **** 
1066:./cmsis/core/core_cm4.h ****     This function enables a device specific interrupt in the NVIC interrupt controller.
1067:./cmsis/core/core_cm4.h ****     The interrupt number cannot be a negative value.
1068:./cmsis/core/core_cm4.h **** 
1069:./cmsis/core/core_cm4.h ****     \param [in]      IRQn  Number of the external interrupt to enable
1070:./cmsis/core/core_cm4.h ****  */
1071:./cmsis/core/core_cm4.h **** static __INLINE void NVIC_EnableIRQ(IRQn_Type IRQn)
1072:./cmsis/core/core_cm4.h **** {
1073:./cmsis/core/core_cm4.h **** /*  NVIC->ISER[((uint32_t)(IRQn) >> 5)] = (1 << ((uint32_t)(IRQn) & 0x1F));  enable interrupt */
1074:./cmsis/core/core_cm4.h ****   NVIC->ISER[(uint32_t)((int32_t)IRQn) >> 5] = (uint32_t)(1 << ((uint32_t)((int32_t)IRQn) & (uint32
1075:./cmsis/core/core_cm4.h **** }
1076:./cmsis/core/core_cm4.h **** 
1077:./cmsis/core/core_cm4.h **** 
1078:./cmsis/core/core_cm4.h **** /** \brief  Disable External Interrupt
1079:./cmsis/core/core_cm4.h **** 
1080:./cmsis/core/core_cm4.h ****     This function disables a device specific interrupt in the NVIC interrupt controller.
1081:./cmsis/core/core_cm4.h ****     The interrupt number cannot be a negative value.
1082:./cmsis/core/core_cm4.h **** 
1083:./cmsis/core/core_cm4.h ****     \param [in]      IRQn  Number of the external interrupt to disable
1084:./cmsis/core/core_cm4.h ****  */
1085:./cmsis/core/core_cm4.h **** static __INLINE void NVIC_DisableIRQ(IRQn_Type IRQn)
1086:./cmsis/core/core_cm4.h **** {
1087:./cmsis/core/core_cm4.h ****   NVIC->ICER[((uint32_t)(IRQn) >> 5)] = (1 << ((uint32_t)(IRQn) & 0x1F)); /* disable interrupt */
1088:./cmsis/core/core_cm4.h **** }
1089:./cmsis/core/core_cm4.h **** 
1090:./cmsis/core/core_cm4.h **** 
1091:./cmsis/core/core_cm4.h **** /** \brief  Get Pending Interrupt
1092:./cmsis/core/core_cm4.h **** 
1093:./cmsis/core/core_cm4.h ****     This function reads the pending register in the NVIC and returns the pending bit
1094:./cmsis/core/core_cm4.h ****     for the specified interrupt.
ARM GAS  C:\Users\CNous\AppData\Local\Temp\ccmZfnu5.s 			page 43


1095:./cmsis/core/core_cm4.h **** 
1096:./cmsis/core/core_cm4.h ****     \param [in]      IRQn  Number of the interrupt for get pending
1097:./cmsis/core/core_cm4.h ****     \return             0  Interrupt status is not pending
1098:./cmsis/core/core_cm4.h ****     \return             1  Interrupt status is pending
1099:./cmsis/core/core_cm4.h ****  */
1100:./cmsis/core/core_cm4.h **** static __INLINE uint32_t NVIC_GetPendingIRQ(IRQn_Type IRQn)
1101:./cmsis/core/core_cm4.h **** {
1102:./cmsis/core/core_cm4.h ****   return((uint32_t) ((NVIC->ISPR[(uint32_t)(IRQn) >> 5] & (1 << ((uint32_t)(IRQn) & 0x1F)))?1:0)); 
1103:./cmsis/core/core_cm4.h **** }
1104:./cmsis/core/core_cm4.h **** 
1105:./cmsis/core/core_cm4.h **** 
1106:./cmsis/core/core_cm4.h **** /** \brief  Set Pending Interrupt
1107:./cmsis/core/core_cm4.h **** 
1108:./cmsis/core/core_cm4.h ****     This function sets the pending bit for the specified interrupt.
1109:./cmsis/core/core_cm4.h ****     The interrupt number cannot be a negative value.
1110:./cmsis/core/core_cm4.h **** 
1111:./cmsis/core/core_cm4.h ****     \param [in]      IRQn  Number of the interrupt for set pending
1112:./cmsis/core/core_cm4.h ****  */
1113:./cmsis/core/core_cm4.h **** static __INLINE void NVIC_SetPendingIRQ(IRQn_Type IRQn)
1114:./cmsis/core/core_cm4.h **** {
1115:./cmsis/core/core_cm4.h ****   NVIC->ISPR[((uint32_t)(IRQn) >> 5)] = (1 << ((uint32_t)(IRQn) & 0x1F)); /* set interrupt pending 
1116:./cmsis/core/core_cm4.h **** }
1117:./cmsis/core/core_cm4.h **** 
1118:./cmsis/core/core_cm4.h **** 
1119:./cmsis/core/core_cm4.h **** /** \brief  Clear Pending Interrupt
1120:./cmsis/core/core_cm4.h **** 
1121:./cmsis/core/core_cm4.h ****     This function clears the pending bit for the specified interrupt.
1122:./cmsis/core/core_cm4.h ****     The interrupt number cannot be a negative value.
1123:./cmsis/core/core_cm4.h **** 
1124:./cmsis/core/core_cm4.h ****     \param [in]      IRQn  Number of the interrupt for clear pending
1125:./cmsis/core/core_cm4.h ****  */
1126:./cmsis/core/core_cm4.h **** static __INLINE void NVIC_ClearPendingIRQ(IRQn_Type IRQn)
1127:./cmsis/core/core_cm4.h **** {
1128:./cmsis/core/core_cm4.h ****   NVIC->ICPR[((uint32_t)(IRQn) >> 5)] = (1 << ((uint32_t)(IRQn) & 0x1F)); /* Clear pending interrup
1129:./cmsis/core/core_cm4.h **** }
1130:./cmsis/core/core_cm4.h **** 
1131:./cmsis/core/core_cm4.h **** 
1132:./cmsis/core/core_cm4.h **** /** \brief  Get Active Interrupt
1133:./cmsis/core/core_cm4.h **** 
1134:./cmsis/core/core_cm4.h ****     This function reads the active register in NVIC and returns the active bit.
1135:./cmsis/core/core_cm4.h ****     \param [in]      IRQn  Number of the interrupt for get active
1136:./cmsis/core/core_cm4.h ****     \return             0  Interrupt status is not active
1137:./cmsis/core/core_cm4.h ****     \return             1  Interrupt status is active
1138:./cmsis/core/core_cm4.h ****  */
1139:./cmsis/core/core_cm4.h **** static __INLINE uint32_t NVIC_GetActive(IRQn_Type IRQn)
1140:./cmsis/core/core_cm4.h **** {
1141:./cmsis/core/core_cm4.h ****   return((uint32_t)((NVIC->IABR[(uint32_t)(IRQn) >> 5] & (1 << ((uint32_t)(IRQn) & 0x1F)))?1:0)); /
1142:./cmsis/core/core_cm4.h **** }
1143:./cmsis/core/core_cm4.h **** 
1144:./cmsis/core/core_cm4.h **** 
1145:./cmsis/core/core_cm4.h **** /** \brief  Set Interrupt Priority
1146:./cmsis/core/core_cm4.h **** 
1147:./cmsis/core/core_cm4.h ****     This function sets the priority for the specified interrupt. The interrupt
1148:./cmsis/core/core_cm4.h ****     number can be positive to specify an external (device specific)
1149:./cmsis/core/core_cm4.h ****     interrupt, or negative to specify an internal (core) interrupt.
1150:./cmsis/core/core_cm4.h **** 
1151:./cmsis/core/core_cm4.h ****     Note: The priority cannot be set for every core interrupt.
ARM GAS  C:\Users\CNous\AppData\Local\Temp\ccmZfnu5.s 			page 44


1152:./cmsis/core/core_cm4.h **** 
1153:./cmsis/core/core_cm4.h ****     \param [in]      IRQn  Number of the interrupt for set priority
1154:./cmsis/core/core_cm4.h ****     \param [in]  priority  Priority to set
1155:./cmsis/core/core_cm4.h ****  */
1156:./cmsis/core/core_cm4.h **** static __INLINE void NVIC_SetPriority(IRQn_Type IRQn, uint32_t priority)
1157:./cmsis/core/core_cm4.h **** {
1158:./cmsis/core/core_cm4.h ****   if(IRQn < 0) {
1159:./cmsis/core/core_cm4.h ****     SCB->SHP[((uint32_t)(IRQn) & 0xF)-4] = ((priority << (8 - __NVIC_PRIO_BITS)) & 0xff); } /* set 
1160:./cmsis/core/core_cm4.h ****   else {
1161:./cmsis/core/core_cm4.h ****     NVIC->IP[(uint32_t)(IRQn)] = ((priority << (8 - __NVIC_PRIO_BITS)) & 0xff);    }        /* set 
1162:./cmsis/core/core_cm4.h **** }
1163:./cmsis/core/core_cm4.h **** 
1164:./cmsis/core/core_cm4.h **** 
1165:./cmsis/core/core_cm4.h **** /** \brief  Get Interrupt Priority
1166:./cmsis/core/core_cm4.h **** 
1167:./cmsis/core/core_cm4.h ****     This function reads the priority for the specified interrupt. The interrupt
1168:./cmsis/core/core_cm4.h ****     number can be positive to specify an external (device specific)
1169:./cmsis/core/core_cm4.h ****     interrupt, or negative to specify an internal (core) interrupt.
1170:./cmsis/core/core_cm4.h **** 
1171:./cmsis/core/core_cm4.h ****     The returned priority value is automatically aligned to the implemented
1172:./cmsis/core/core_cm4.h ****     priority bits of the microcontroller.
1173:./cmsis/core/core_cm4.h **** 
1174:./cmsis/core/core_cm4.h ****     \param [in]   IRQn  Number of the interrupt for get priority
1175:./cmsis/core/core_cm4.h ****     \return             Interrupt Priority
1176:./cmsis/core/core_cm4.h ****  */
1177:./cmsis/core/core_cm4.h **** static __INLINE uint32_t NVIC_GetPriority(IRQn_Type IRQn)
1178:./cmsis/core/core_cm4.h **** {
1179:./cmsis/core/core_cm4.h **** 
1180:./cmsis/core/core_cm4.h ****   if(IRQn < 0) {
1181:./cmsis/core/core_cm4.h ****     return((uint32_t)(SCB->SHP[((uint32_t)(IRQn) & 0xF)-4] >> (8 - __NVIC_PRIO_BITS)));  } /* get p
1182:./cmsis/core/core_cm4.h ****   else {
1183:./cmsis/core/core_cm4.h ****     return((uint32_t)(NVIC->IP[(uint32_t)(IRQn)]           >> (8 - __NVIC_PRIO_BITS)));  } /* get p
1184:./cmsis/core/core_cm4.h **** }
1185:./cmsis/core/core_cm4.h **** 
1186:./cmsis/core/core_cm4.h **** 
1187:./cmsis/core/core_cm4.h **** /** \brief  Encode Priority
1188:./cmsis/core/core_cm4.h **** 
1189:./cmsis/core/core_cm4.h ****     This function encodes the priority for an interrupt with the given priority group,
1190:./cmsis/core/core_cm4.h ****     preemptive priority value and sub priority value.
1191:./cmsis/core/core_cm4.h ****     In case of a conflict between priority grouping and available
1192:./cmsis/core/core_cm4.h ****     priority bits (__NVIC_PRIO_BITS) the samllest possible priority group is set.
1193:./cmsis/core/core_cm4.h **** 
1194:./cmsis/core/core_cm4.h ****     The returned priority value can be used for NVIC_SetPriority(...) function
1195:./cmsis/core/core_cm4.h **** 
1196:./cmsis/core/core_cm4.h ****     \param [in]     PriorityGroup  Used priority group
1197:./cmsis/core/core_cm4.h ****     \param [in]   PreemptPriority  Preemptive priority value (starting from 0)
1198:./cmsis/core/core_cm4.h ****     \param [in]       SubPriority  Sub priority value (starting from 0)
1199:./cmsis/core/core_cm4.h ****     \return                        Encoded priority for the interrupt
1200:./cmsis/core/core_cm4.h ****  */
1201:./cmsis/core/core_cm4.h **** static __INLINE uint32_t NVIC_EncodePriority (uint32_t PriorityGroup, uint32_t PreemptPriority, uin
1202:./cmsis/core/core_cm4.h **** {
1203:./cmsis/core/core_cm4.h ****   uint32_t PriorityGroupTmp = (PriorityGroup & 0x07);          /* only values 0..7 are used        
1204:./cmsis/core/core_cm4.h ****   uint32_t PreemptPriorityBits;
1205:./cmsis/core/core_cm4.h ****   uint32_t SubPriorityBits;
1206:./cmsis/core/core_cm4.h **** 
1207:./cmsis/core/core_cm4.h ****   PreemptPriorityBits = ((7 - PriorityGroupTmp) > __NVIC_PRIO_BITS) ? __NVIC_PRIO_BITS : 7 - Priori
1208:./cmsis/core/core_cm4.h ****   SubPriorityBits     = ((PriorityGroupTmp + __NVIC_PRIO_BITS) < 7) ? 0 : PriorityGroupTmp - 7 + __
ARM GAS  C:\Users\CNous\AppData\Local\Temp\ccmZfnu5.s 			page 45


1209:./cmsis/core/core_cm4.h **** 
1210:./cmsis/core/core_cm4.h ****   return (
1211:./cmsis/core/core_cm4.h ****            ((PreemptPriority & ((1 << (PreemptPriorityBits)) - 1)) << SubPriorityBits) |
1212:./cmsis/core/core_cm4.h ****            ((SubPriority     & ((1 << (SubPriorityBits    )) - 1)))
1213:./cmsis/core/core_cm4.h ****          );
1214:./cmsis/core/core_cm4.h **** }
1215:./cmsis/core/core_cm4.h **** 
1216:./cmsis/core/core_cm4.h **** 
1217:./cmsis/core/core_cm4.h **** /** \brief  Decode Priority
1218:./cmsis/core/core_cm4.h **** 
1219:./cmsis/core/core_cm4.h ****     This function decodes an interrupt priority value with the given priority group to
1220:./cmsis/core/core_cm4.h ****     preemptive priority value and sub priority value.
1221:./cmsis/core/core_cm4.h ****     In case of a conflict between priority grouping and available
1222:./cmsis/core/core_cm4.h ****     priority bits (__NVIC_PRIO_BITS) the samllest possible priority group is set.
1223:./cmsis/core/core_cm4.h **** 
1224:./cmsis/core/core_cm4.h ****     The priority value can be retrieved with NVIC_GetPriority(...) function
1225:./cmsis/core/core_cm4.h **** 
1226:./cmsis/core/core_cm4.h ****     \param [in]         Priority   Priority value
1227:./cmsis/core/core_cm4.h ****     \param [in]     PriorityGroup  Used priority group
1228:./cmsis/core/core_cm4.h ****     \param [out] pPreemptPriority  Preemptive priority value (starting from 0)
1229:./cmsis/core/core_cm4.h ****     \param [out]     pSubPriority  Sub priority value (starting from 0)
1230:./cmsis/core/core_cm4.h ****  */
1231:./cmsis/core/core_cm4.h **** static __INLINE void NVIC_DecodePriority (uint32_t Priority, uint32_t PriorityGroup, uint32_t* pPre
1232:./cmsis/core/core_cm4.h **** {
1233:./cmsis/core/core_cm4.h ****   uint32_t PriorityGroupTmp = (PriorityGroup & 0x07);          /* only values 0..7 are used        
1234:./cmsis/core/core_cm4.h ****   uint32_t PreemptPriorityBits;
1235:./cmsis/core/core_cm4.h ****   uint32_t SubPriorityBits;
1236:./cmsis/core/core_cm4.h **** 
1237:./cmsis/core/core_cm4.h ****   PreemptPriorityBits = ((7 - PriorityGroupTmp) > __NVIC_PRIO_BITS) ? __NVIC_PRIO_BITS : 7 - Priori
1238:./cmsis/core/core_cm4.h ****   SubPriorityBits     = ((PriorityGroupTmp + __NVIC_PRIO_BITS) < 7) ? 0 : PriorityGroupTmp - 7 + __
1239:./cmsis/core/core_cm4.h **** 
1240:./cmsis/core/core_cm4.h ****   *pPreemptPriority = (Priority >> SubPriorityBits) & ((1 << (PreemptPriorityBits)) - 1);
1241:./cmsis/core/core_cm4.h ****   *pSubPriority     = (Priority                   ) & ((1 << (SubPriorityBits    )) - 1);
1242:./cmsis/core/core_cm4.h **** }
1243:./cmsis/core/core_cm4.h **** 
1244:./cmsis/core/core_cm4.h **** 
1245:./cmsis/core/core_cm4.h **** /** \brief  System Reset
1246:./cmsis/core/core_cm4.h **** 
1247:./cmsis/core/core_cm4.h ****     This function initiate a system reset request to reset the MCU.
1248:./cmsis/core/core_cm4.h ****  */
1249:./cmsis/core/core_cm4.h **** static __INLINE void NVIC_SystemReset(void)
1250:./cmsis/core/core_cm4.h **** {
1251:./cmsis/core/core_cm4.h ****   __DSB();                                                     /* Ensure all outstanding memory acc
1252:./cmsis/core/core_cm4.h ****                                                                   buffered write are completed befo
1253:./cmsis/core/core_cm4.h ****   SCB->AIRCR  = ((0x5FA << SCB_AIRCR_VECTKEY_Pos)      |
1254:./cmsis/core/core_cm4.h ****                  (SCB->AIRCR & SCB_AIRCR_PRIGROUP_Msk) |
1255:./cmsis/core/core_cm4.h ****                  SCB_AIRCR_SYSRESETREQ_Msk);                   /* Keep priority group unchanged */
1256:./cmsis/core/core_cm4.h ****   __DSB();                                                     /* Ensure completion of memory acces
1257:./cmsis/core/core_cm4.h ****   while(1);                                                    /* wait until reset */
1258:./cmsis/core/core_cm4.h **** }
1259:./cmsis/core/core_cm4.h **** 
1260:./cmsis/core/core_cm4.h **** /*@} end of CMSIS_Core_NVICFunctions */
1261:./cmsis/core/core_cm4.h **** 
1262:./cmsis/core/core_cm4.h **** 
1263:./cmsis/core/core_cm4.h **** 
1264:./cmsis/core/core_cm4.h **** /* ##################################    SysTick function  ########################################
1265:./cmsis/core/core_cm4.h **** /** \ingroup  CMSIS_Core_FunctionInterface
ARM GAS  C:\Users\CNous\AppData\Local\Temp\ccmZfnu5.s 			page 46


1266:./cmsis/core/core_cm4.h ****     \defgroup CMSIS_Core_SysTickFunctions CMSIS Core SysTick Functions
1267:./cmsis/core/core_cm4.h ****   @{
1268:./cmsis/core/core_cm4.h ****  */
1269:./cmsis/core/core_cm4.h **** 
1270:./cmsis/core/core_cm4.h **** #if (__Vendor_SysTickConfig == 0)
1271:./cmsis/core/core_cm4.h **** 
1272:./cmsis/core/core_cm4.h **** /** \brief  System Tick Configuration
1273:./cmsis/core/core_cm4.h **** 
1274:./cmsis/core/core_cm4.h ****     This function initialises the system tick timer and its interrupt and start the system tick tim
1275:./cmsis/core/core_cm4.h ****     Counter is in free running mode to generate periodical interrupts.
1276:./cmsis/core/core_cm4.h **** 
1277:./cmsis/core/core_cm4.h ****     \param [in]  ticks  Number of ticks between two interrupts
1278:./cmsis/core/core_cm4.h ****     \return          0  Function succeeded
1279:./cmsis/core/core_cm4.h ****     \return          1  Function failed
1280:./cmsis/core/core_cm4.h ****  */
1281:./cmsis/core/core_cm4.h **** static __INLINE uint32_t SysTick_Config(uint32_t ticks)
1282:./cmsis/core/core_cm4.h **** {
1283:./cmsis/core/core_cm4.h ****   if (ticks > SysTick_LOAD_RELOAD_Msk)  return (1);            /* Reload value impossible */
 767              		.loc 2 1283 0
 768 006a B2F1807F 		cmp	r2, #16777216	@ D.8619,
 769 006e 00D3     		bcc	.L32	@,
 770              	.L31:
 771 0070 FEE7     		b	.L31	@
 772              	.L32:
1284:./cmsis/core/core_cm4.h **** 
1285:./cmsis/core/core_cm4.h ****   SysTick->LOAD  = (ticks & SysTick_LOAD_RELOAD_Msk) - 1;      /* set reload register */
 773              		.loc 2 1285 0
 774 0072 4EF21003 		movw	r3, #57360	@ tmp156,
 775 0076 CEF20003 		movt	r3, 57344	@ tmp156,
 776              	.LBB10:
 777              	.LBB11:
1159:./cmsis/core/core_cm4.h ****     SCB->SHP[((uint32_t)(IRQn) & 0xF)-4] = ((priority << (8 - __NVIC_PRIO_BITS)) & 0xff); } /* set 
 778              		.loc 2 1159 0
 779 007a 4FF46D40 		mov	r0, #60672	@ tmp157,
 780              	.LBE11:
 781              	.LBE10:
 782              		.loc 2 1285 0
 783 007e 541E     		subs	r4, r2, #1	@ D.8618, D.8619,
 784              	.LBB14:
 785              	.LBB12:
1159:./cmsis/core/core_cm4.h ****     SCB->SHP[((uint32_t)(IRQn) & 0xF)-4] = ((priority << (8 - __NVIC_PRIO_BITS)) & 0xff); } /* set 
 786              		.loc 2 1159 0
 787 0080 CEF20000 		movt	r0, 57344	@ tmp157,
 788              	.LBE12:
 789              	.LBE14:
 790              		.loc 2 1285 0
 791 0084 5C60     		str	r4, [r3, #4]	@ D.8618, MEM[(struct SysTick_Type *)3758153744B].LOAD
 792              	.LVL60:
 793              	.LBB15:
 794              	.LBB13:
1159:./cmsis/core/core_cm4.h ****     SCB->SHP[((uint32_t)(IRQn) & 0xF)-4] = ((priority << (8 - __NVIC_PRIO_BITS)) & 0xff); } /* set 
 795              		.loc 2 1159 0
 796 0086 F024     		movs	r4, #240	@ tmp158,
 797 0088 80F82340 		strb	r4, [r0, #35]	@ tmp158, MEM[(struct SCB_Type *)3758157056B].SHP
 798              	.LBE13:
 799              	.LBE15:
1286:./cmsis/core/core_cm4.h ****   NVIC_SetPriority (SysTick_IRQn, (1<<__NVIC_PRIO_BITS) - 1);  /* set Priority for Cortex-M0 System
ARM GAS  C:\Users\CNous\AppData\Local\Temp\ccmZfnu5.s 			page 47


1287:./cmsis/core/core_cm4.h ****   SysTick->VAL   = 0;                                          /* Load the SysTick Counter Value */
 800              		.loc 2 1287 0
 801 008c 0020     		movs	r0, #0	@ tmp161,
1288:./cmsis/core/core_cm4.h ****   SysTick->CTRL  = SysTick_CTRL_CLKSOURCE_Msk |
 802              		.loc 2 1288 0
 803 008e 0724     		movs	r4, #7	@ tmp163,
1287:./cmsis/core/core_cm4.h ****   SysTick->VAL   = 0;                                          /* Load the SysTick Counter Value */
 804              		.loc 2 1287 0
 805 0090 9860     		str	r0, [r3, #8]	@ tmp161, MEM[(struct SysTick_Type *)3758153744B].VAL
 806              	.LBE9:
 807              	.LBE8:
 176:src/main.c    **** 	readpos = delayline;
 808              		.loc 1 176 0
 809 0092 1349     		ldr	r1, .L33+20	@ tmp165,
 810              	.LBB17:
 811              	.LBB16:
 812              		.loc 2 1288 0
 813 0094 1C60     		str	r4, [r3, #0]	@ tmp163, MEM[(struct SysTick_Type *)3758153744B].CTRL
 814              	.LBE16:
 815              	.LBE17:
 176:src/main.c    **** 	readpos = delayline;
 816              		.loc 1 176 0
 817 0096 134B     		ldr	r3, .L33+24	@ tmp164,
 177:src/main.c    **** 	writepos = delayline + DELAY;
 818              		.loc 1 177 0
 819 0098 01F54B42 		add	r2, r1, #51968	@ tmp167, tmp165,
 820              	.LVL61:
 176:src/main.c    **** 	readpos = delayline;
 821              		.loc 1 176 0
 822 009c 1960     		str	r1, [r3, #0]	@ tmp165, readpos
 177:src/main.c    **** 	writepos = delayline + DELAY;
 823              		.loc 1 177 0
 824 009e 1249     		ldr	r1, .L33+28	@ tmp166,
 825 00a0 2032     		adds	r2, r2, #32	@ tmp167, tmp167,
 826 00a2 0A60     		str	r2, [r1, #0]	@ tmp167, writepos
 179:src/main.c    **** 	sawtooth_active();
 827              		.loc 1 179 0
 828 00a4 FFF7FEFF 		bl	sawtooth_active	@
 829              	.LVL62:
 181:src/main.c    **** 	PhaserInit();
 830              		.loc 1 181 0
 831 00a8 FFF7FEFF 		bl	PhaserInit	@
 832              	.LVL63:
 183:src/main.c    **** 	EVAL_AUDIO_Init( OUTPUT_DEVICE_AUTO, VOL, SAMPLERATE);
 833              		.loc 1 183 0
 834 00ac 4621     		movs	r1, #70	@,
 835 00ae 4BF68032 		movw	r2, #48000	@,
 836 00b2 0420     		movs	r0, #4	@,
 837 00b4 FFF7FEFF 		bl	EVAL_AUDIO_Init	@
 838              	.LVL64:
 184:src/main.c    **** 	EVAL_AUDIO_Play((uint16_t*)audiobuff, BUFF_LEN);
 839              		.loc 1 184 0
 840 00b8 4FF42071 		mov	r1, #640	@,
 841 00bc 0B48     		ldr	r0, .L33+32	@,
 842 00be FFF7FEFF 		bl	EVAL_AUDIO_Play	@
 843              	.LVL65:
 844              	.L30:
ARM GAS  C:\Users\CNous\AppData\Local\Temp\ccmZfnu5.s 			page 48


 845 00c2 FEE7     		b	.L30	@
 846              	.LVL66:
 847              	.L27:
 165:src/main.c    **** 	if (ADC1ConvertedValues[0] < 31 ) potSet = 0; else potSet = 1;
 848              		.loc 1 165 0 discriminator 2
 849 00c4 044B     		ldr	r3, .L33+12	@ tmp148,
 850 00c6 0120     		movs	r0, #1	@ tmp149,
 851 00c8 1870     		strb	r0, [r3, #0]	@ tmp149, potSet
 852 00ca C3E7     		b	.L28	@
 853              	.L34:
 854              		.align	2
 855              	.L33:
 856 00cc 00000000 		.word	ADC1ConvertedValues
 857 00d0 00000000 		.word	sampleT
 858 00d4 00000000 		.word	envPhase
 859 00d8 00000000 		.word	potSet
 860 00dc 00000000 		.word	SystemCoreClock
 861 00e0 00000000 		.word	delayline
 862 00e4 00000000 		.word	readpos
 863 00e8 00000000 		.word	writepos
 864 00ec 00000000 		.word	audiobuff
 865              		.cfi_endproc
 866              	.LFE110:
 867              		.size	main, .-main
 868              		.global	TimingDelay
 869              		.comm	GPIO_InitStructure,8,4
 870              		.comm	RCC_Clocks,16,4
 871              		.global	accroche4
 872              		.global	accroche3
 873              		.global	accroche2
 874              		.global	accroche1
 875              		.comm	potSet,1,1
 876              		.global	param4b
 877              		.global	param3b
 878              		.global	param2b
 879              		.global	param1b
 880              		.global	param4
 881              		.global	param3
 882              		.global	param2
 883              		.global	param1
 884              		.comm	ADC1ConvertedValues,16,4
 885              		.global	delay1
 886              		.comm	_init,4,4
 887              		.comm	_j,4,4
 888              		.comm	_f,1312,4
 889              		.comm	_z,4,4
 890              		.comm	_w,4,4
 891              		.comm	_p,4,4
 892              		.comm	freq,4,4
 893              		.global	f2
 894              		.global	f1
 895              		.comm	phase2Step,4,4
 896              		.global	phase2
 897              		.global	pass
 898              		.global	reloadValue
 899              		.global	PrescalerValue
 900              		.comm	TIM_TimeBaseStructure,12,4
ARM GAS  C:\Users\CNous\AppData\Local\Temp\ccmZfnu5.s 			page 49


 901              		.global	seq1Number
 902              		.comm	seqIndex,4,4
 903              		.global	envTime
 904              		.comm	envPhase,4,4
 905              		.comm	envAmp,1,1
 906              		.comm	envTrigger,1,1
 907              		.global	fdb
 908              		.comm	old_dy,4,4
 909              		.global	coeff_a1
 910              		.comm	writepos,4,4
 911              		.comm	readpos,4,4
 912              		.global	delayVol
 913              		.comm	delayline,96008,4
 914              		.comm	sampleT,4,4
 915              		.comm	audiobuff,1280,4
 916              		.section	.data.f1,"aw",%progbits
 917              		.align	2
 918              		.type	f1, %object
 919              		.size	f1, 4
 920              	f1:
 921 0000 0000DC43 		.word	1138491392
 922              		.section	.data.f2,"aw",%progbits
 923              		.align	2
 924              		.type	f2, %object
 925              		.size	f2, 4
 926              	f2:
 927 0000 0000C040 		.word	1086324736
 928              		.section	.data.delay1,"aw",%progbits
 929              		.align	1
 930              		.type	delay1, %object
 931              		.size	delay1, 2
 932              	delay1:
 933 0000 0300     		.short	3
 934              		.section	.bss.accroche1,"aw",%nobits
 935              		.type	accroche1, %object
 936              		.size	accroche1, 1
 937              	accroche1:
 938 0000 00       		.space	1
 939              		.section	.bss.accroche2,"aw",%nobits
 940              		.type	accroche2, %object
 941              		.size	accroche2, 1
 942              	accroche2:
 943 0000 00       		.space	1
 944              		.section	.bss.accroche3,"aw",%nobits
 945              		.type	accroche3, %object
 946              		.size	accroche3, 1
 947              	accroche3:
 948 0000 00       		.space	1
 949              		.section	.bss.accroche4,"aw",%nobits
 950              		.type	accroche4, %object
 951              		.size	accroche4, 1
 952              	accroche4:
 953 0000 00       		.space	1
 954              		.section	.data.param3,"aw",%progbits
 955              		.align	1
 956              		.type	param3, %object
 957              		.size	param3, 2
ARM GAS  C:\Users\CNous\AppData\Local\Temp\ccmZfnu5.s 			page 50


 958              	param3:
 959 0000 3200     		.short	50
 960              		.section	.data.param4,"aw",%progbits
 961              		.align	1
 962              		.type	param4, %object
 963              		.size	param4, 2
 964              	param4:
 965 0000 3200     		.short	50
 966              		.section	.data.reloadValue,"aw",%progbits
 967              		.align	1
 968              		.set	.LANCHOR2,. + 0
 969              		.type	reloadValue, %object
 970              		.size	reloadValue, 2
 971              	reloadValue:
 972 0000 60EA     		.short	-5536
 973              		.section	.data.param2b,"aw",%progbits
 974              		.align	1
 975              		.type	param2b, %object
 976              		.size	param2b, 2
 977              	param2b:
 978 0000 3200     		.short	50
 979              		.section	.data.delayVol,"aw",%progbits
 980              		.align	2
 981              		.type	delayVol, %object
 982              		.size	delayVol, 4
 983              	delayVol:
 984 0000 CDCCCC3D 		.word	1036831949
 985              		.section	.data.param3b,"aw",%progbits
 986              		.align	1
 987              		.type	param3b, %object
 988              		.size	param3b, 2
 989              	param3b:
 990 0000 3200     		.short	50
 991              		.section	.data.param2,"aw",%progbits
 992              		.align	1
 993              		.type	param2, %object
 994              		.size	param2, 2
 995              	param2:
 996 0000 3200     		.short	50
 997              		.section	.data.coeff_a1,"aw",%progbits
 998              		.align	2
 999              		.type	coeff_a1, %object
 1000              		.size	coeff_a1, 4
 1001              	coeff_a1:
 1002 0000 9A99193F 		.word	1058642330
 1003              		.section	.data.param1b,"aw",%progbits
 1004              		.align	1
 1005              		.type	param1b, %object
 1006              		.size	param1b, 2
 1007              	param1b:
 1008 0000 3200     		.short	50
 1009              		.section	.data.param4b,"aw",%progbits
 1010              		.align	1
 1011              		.type	param4b, %object
 1012              		.size	param4b, 2
 1013              	param4b:
 1014 0000 3200     		.short	50
ARM GAS  C:\Users\CNous\AppData\Local\Temp\ccmZfnu5.s 			page 51


 1015              		.section	.data.PrescalerValue,"aw",%progbits
 1016              		.align	1
 1017              		.set	.LANCHOR1,. + 0
 1018              		.type	PrescalerValue, %object
 1019              		.size	PrescalerValue, 2
 1020              	PrescalerValue:
 1021 0000 5D01     		.short	349
 1022              		.section	.data.seq1Number,"aw",%progbits
 1023              		.align	2
 1024              		.type	seq1Number, %object
 1025              		.size	seq1Number, 4
 1026              	seq1Number:
 1027 0000 06000000 		.word	6
 1028              		.section	.data.envTime,"aw",%progbits
 1029              		.align	2
 1030              		.type	envTime, %object
 1031              		.size	envTime, 4
 1032              	envTime:
 1033 0000 9A99993E 		.word	1050253722
 1034              		.section	.data.param1,"aw",%progbits
 1035              		.align	1
 1036              		.type	param1, %object
 1037              		.size	param1, 2
 1038              	param1:
 1039 0000 3200     		.short	50
 1040              		.section	.bss.phase2,"aw",%nobits
 1041              		.align	2
 1042              		.type	phase2, %object
 1043              		.size	phase2, 4
 1044              	phase2:
 1045 0000 00000000 		.space	4
 1046              		.section	.data.TimingDelay,"aw",%progbits
 1047              		.align	2
 1048              		.set	.LANCHOR0,. + 0
 1049              		.type	TimingDelay, %object
 1050              		.size	TimingDelay, 4
 1051              	TimingDelay:
 1052 0000 32000000 		.word	50
 1053              		.section	.data.pass,"aw",%progbits
 1054              		.align	2
 1055              		.type	pass, %object
 1056              		.size	pass, 4
 1057              	pass:
 1058 0000 CDCC4C3F 		.word	1061997773
 1059              		.section	.data.fdb,"aw",%progbits
 1060              		.align	2
 1061              		.type	fdb, %object
 1062              		.size	fdb, 4
 1063              	fdb:
 1064 0000 CDCCCC3E 		.word	1053609165
 1065              		.text
 1066              	.Letext0:
 1067              		.file 3 "./cmsis/device/stm32f4xx.h"
 1068              		.file 4 "c:\\gnutoolsarmembedded\\4.7-2012q4\\bin\\../lib/gcc/arm-none-eabi/4.7.3/../../../../arm-
 1069              		.file 5 "./cmsis/device/stm32f4xx_adc.h"
 1070              		.file 6 "./cmsis/device/stm32f4xx_dma.h"
 1071              		.file 7 "./cmsis/device/stm32f4xx_gpio.h"
ARM GAS  C:\Users\CNous\AppData\Local\Temp\ccmZfnu5.s 			page 52


 1072              		.file 8 "./cmsis/device/stm32f4xx_rcc.h"
 1073              		.file 9 "./cmsis/device/stm32f4xx_tim.h"
 1074              		.file 10 "./cmsis/device/misc.h"
 1075              		.file 11 "./inc/stm32f4_discovery.h"
 1076              		.file 12 "./cmsis/device/system_stm32f4xx.h"
 1077              		.file 13 "./cmsis/device/stm32f4xx_rng.h"
 1078              		.file 14 "./inc/phaser2.h"
 1079              		.file 15 "./inc/stm32f4_discovery_audio_codec.h"
 1080              		.section	.debug_info,"",%progbits
 1081              	.Ldebug_info0:
 1082 0000 F41D0000 		.4byte	0x1df4
 1083 0004 0200     		.2byte	0x2
 1084 0006 00000000 		.4byte	.Ldebug_abbrev0
 1085 000a 04       		.byte	0x4
 1086 000b 01       		.uleb128 0x1
 1087 000c 13120000 		.4byte	.LASF374
 1088 0010 01       		.byte	0x1
 1089 0011 76040000 		.4byte	.LASF375
 1090 0015 D80C0000 		.4byte	.LASF376
 1091 0019 38000000 		.4byte	.Ldebug_ranges0+0x38
 1092 001d 00000000 		.4byte	0
 1093 0021 00000000 		.4byte	0
 1094 0025 00000000 		.4byte	.Ldebug_line0
 1095 0029 02       		.uleb128 0x2
 1096 002a 01       		.byte	0x1
 1097 002b 06       		.byte	0x6
 1098 002c 93030000 		.4byte	.LASF0
 1099 0030 02       		.uleb128 0x2
 1100 0031 01       		.byte	0x1
 1101 0032 08       		.byte	0x8
 1102 0033 1A040000 		.4byte	.LASF1
 1103 0037 02       		.uleb128 0x2
 1104 0038 02       		.byte	0x2
 1105 0039 05       		.byte	0x5
 1106 003a 660F0000 		.4byte	.LASF2
 1107 003e 02       		.uleb128 0x2
 1108 003f 02       		.byte	0x2
 1109 0040 07       		.byte	0x7
 1110 0041 B7110000 		.4byte	.LASF3
 1111 0045 03       		.uleb128 0x3
 1112 0046 04       		.byte	0x4
 1113 0047 05       		.byte	0x5
 1114 0048 696E7400 		.ascii	"int\000"
 1115 004c 02       		.uleb128 0x2
 1116 004d 04       		.byte	0x4
 1117 004e 07       		.byte	0x7
 1118 004f B30A0000 		.4byte	.LASF4
 1119 0053 02       		.uleb128 0x2
 1120 0054 08       		.byte	0x8
 1121 0055 05       		.byte	0x5
 1122 0056 77090000 		.4byte	.LASF5
 1123 005a 02       		.uleb128 0x2
 1124 005b 08       		.byte	0x8
 1125 005c 07       		.byte	0x7
 1126 005d 160D0000 		.4byte	.LASF6
 1127 0061 02       		.uleb128 0x2
 1128 0062 04       		.byte	0x4
ARM GAS  C:\Users\CNous\AppData\Local\Temp\ccmZfnu5.s 			page 53


 1129 0063 05       		.byte	0x5
 1130 0064 BA020000 		.4byte	.LASF7
 1131 0068 02       		.uleb128 0x2
 1132 0069 04       		.byte	0x4
 1133 006a 07       		.byte	0x7
 1134 006b 6F000000 		.4byte	.LASF8
 1135 006f 02       		.uleb128 0x2
 1136 0070 04       		.byte	0x4
 1137 0071 07       		.byte	0x7
 1138 0072 03080000 		.4byte	.LASF9
 1139 0076 02       		.uleb128 0x2
 1140 0077 01       		.byte	0x1
 1141 0078 08       		.byte	0x8
 1142 0079 17050000 		.4byte	.LASF10
 1143 007d 02       		.uleb128 0x2
 1144 007e 08       		.byte	0x8
 1145 007f 04       		.byte	0x4
 1146 0080 DE090000 		.4byte	.LASF11
 1147 0084 02       		.uleb128 0x2
 1148 0085 04       		.byte	0x4
 1149 0086 04       		.byte	0x4
 1150 0087 8B0A0000 		.4byte	.LASF12
 1151 008b 02       		.uleb128 0x2
 1152 008c 08       		.byte	0x8
 1153 008d 04       		.byte	0x4
 1154 008e 230C0000 		.4byte	.LASF13
 1155 0092 04       		.uleb128 0x4
 1156 0093 FE020000 		.4byte	.LASF273
 1157 0097 01       		.byte	0x1
 1158 0098 03       		.byte	0x3
 1159 0099 8C       		.byte	0x8c
 1160 009a CD020000 		.4byte	0x2cd
 1161 009e 05       		.uleb128 0x5
 1162 009f D0070000 		.4byte	.LASF14
 1163 00a3 72       		.sleb128 -14
 1164 00a4 05       		.uleb128 0x5
 1165 00a5 1A080000 		.4byte	.LASF15
 1166 00a9 74       		.sleb128 -12
 1167 00aa 05       		.uleb128 0x5
 1168 00ab 19090000 		.4byte	.LASF16
 1169 00af 75       		.sleb128 -11
 1170 00b0 05       		.uleb128 0x5
 1171 00b1 D8040000 		.4byte	.LASF17
 1172 00b5 76       		.sleb128 -10
 1173 00b6 05       		.uleb128 0x5
 1174 00b7 FB090000 		.4byte	.LASF18
 1175 00bb 7B       		.sleb128 -5
 1176 00bc 05       		.uleb128 0x5
 1177 00bd E00E0000 		.4byte	.LASF19
 1178 00c1 7C       		.sleb128 -4
 1179 00c2 05       		.uleb128 0x5
 1180 00c3 67120000 		.4byte	.LASF20
 1181 00c7 7E       		.sleb128 -2
 1182 00c8 05       		.uleb128 0x5
 1183 00c9 4E030000 		.4byte	.LASF21
 1184 00cd 7F       		.sleb128 -1
 1185 00ce 05       		.uleb128 0x5
ARM GAS  C:\Users\CNous\AppData\Local\Temp\ccmZfnu5.s 			page 54


 1186 00cf EF070000 		.4byte	.LASF22
 1187 00d3 00       		.sleb128 0
 1188 00d4 05       		.uleb128 0x5
 1189 00d5 220E0000 		.4byte	.LASF23
 1190 00d9 01       		.sleb128 1
 1191 00da 05       		.uleb128 0x5
 1192 00db 45080000 		.4byte	.LASF24
 1193 00df 02       		.sleb128 2
 1194 00e0 05       		.uleb128 0x5
 1195 00e1 1E000000 		.4byte	.LASF25
 1196 00e5 03       		.sleb128 3
 1197 00e6 05       		.uleb128 0x5
 1198 00e7 3C010000 		.4byte	.LASF26
 1199 00eb 04       		.sleb128 4
 1200 00ec 05       		.uleb128 0x5
 1201 00ed 860F0000 		.4byte	.LASF27
 1202 00f1 05       		.sleb128 5
 1203 00f2 05       		.uleb128 0x5
 1204 00f3 630E0000 		.4byte	.LASF28
 1205 00f7 06       		.sleb128 6
 1206 00f8 05       		.uleb128 0x5
 1207 00f9 41070000 		.4byte	.LASF29
 1208 00fd 07       		.sleb128 7
 1209 00fe 05       		.uleb128 0x5
 1210 00ff 2C000000 		.4byte	.LASF30
 1211 0103 08       		.sleb128 8
 1212 0104 05       		.uleb128 0x5
 1213 0105 5C120000 		.4byte	.LASF31
 1214 0109 09       		.sleb128 9
 1215 010a 05       		.uleb128 0x5
 1216 010b 9B110000 		.4byte	.LASF32
 1217 010f 0A       		.sleb128 10
 1218 0110 05       		.uleb128 0x5
 1219 0111 5D0C0000 		.4byte	.LASF33
 1220 0115 0B       		.sleb128 11
 1221 0116 05       		.uleb128 0x5
 1222 0117 260B0000 		.4byte	.LASF34
 1223 011b 0C       		.sleb128 12
 1224 011c 05       		.uleb128 0x5
 1225 011d DD030000 		.4byte	.LASF35
 1226 0121 0D       		.sleb128 13
 1227 0122 05       		.uleb128 0x5
 1228 0123 D40F0000 		.4byte	.LASF36
 1229 0127 0E       		.sleb128 14
 1230 0128 05       		.uleb128 0x5
 1231 0129 800E0000 		.4byte	.LASF37
 1232 012d 0F       		.sleb128 15
 1233 012e 05       		.uleb128 0x5
 1234 012f 59070000 		.4byte	.LASF38
 1235 0133 10       		.sleb128 16
 1236 0134 05       		.uleb128 0x5
 1237 0135 42000000 		.4byte	.LASF39
 1238 0139 11       		.sleb128 17
 1239 013a 05       		.uleb128 0x5
 1240 013b B10D0000 		.4byte	.LASF40
 1241 013f 12       		.sleb128 18
 1242 0140 05       		.uleb128 0x5
ARM GAS  C:\Users\CNous\AppData\Local\Temp\ccmZfnu5.s 			page 55


 1243 0141 4C070000 		.4byte	.LASF41
 1244 0145 13       		.sleb128 19
 1245 0146 05       		.uleb128 0x5
 1246 0147 B1050000 		.4byte	.LASF42
 1247 014b 14       		.sleb128 20
 1248 014c 05       		.uleb128 0x5
 1249 014d 4B110000 		.4byte	.LASF43
 1250 0151 15       		.sleb128 21
 1251 0152 05       		.uleb128 0x5
 1252 0153 55080000 		.4byte	.LASF44
 1253 0157 16       		.sleb128 22
 1254 0158 05       		.uleb128 0x5
 1255 0159 6B110000 		.4byte	.LASF45
 1256 015d 17       		.sleb128 23
 1257 015e 05       		.uleb128 0x5
 1258 015f 38090000 		.4byte	.LASF46
 1259 0163 18       		.sleb128 24
 1260 0164 05       		.uleb128 0x5
 1261 0165 41100000 		.4byte	.LASF47
 1262 0169 19       		.sleb128 25
 1263 016a 05       		.uleb128 0x5
 1264 016b 03030000 		.4byte	.LASF48
 1265 016f 1A       		.sleb128 26
 1266 0170 05       		.uleb128 0x5
 1267 0171 26070000 		.4byte	.LASF49
 1268 0175 1B       		.sleb128 27
 1269 0176 05       		.uleb128 0x5
 1270 0177 9E010000 		.4byte	.LASF50
 1271 017b 1C       		.sleb128 28
 1272 017c 05       		.uleb128 0x5
 1273 017d 3E0D0000 		.4byte	.LASF51
 1274 0181 1D       		.sleb128 29
 1275 0182 05       		.uleb128 0x5
 1276 0183 02060000 		.4byte	.LASF52
 1277 0187 1E       		.sleb128 30
 1278 0188 05       		.uleb128 0x5
 1279 0189 7E060000 		.4byte	.LASF53
 1280 018d 1F       		.sleb128 31
 1281 018e 05       		.uleb128 0x5
 1282 018f 94040000 		.4byte	.LASF54
 1283 0193 20       		.sleb128 32
 1284 0194 05       		.uleb128 0x5
 1285 0195 F00A0000 		.4byte	.LASF55
 1286 0199 21       		.sleb128 33
 1287 019a 05       		.uleb128 0x5
 1288 019b F3080000 		.4byte	.LASF56
 1289 019f 22       		.sleb128 34
 1290 01a0 05       		.uleb128 0x5
 1291 01a1 CC090000 		.4byte	.LASF57
 1292 01a5 23       		.sleb128 35
 1293 01a6 05       		.uleb128 0x5
 1294 01a7 40020000 		.4byte	.LASF58
 1295 01ab 24       		.sleb128 36
 1296 01ac 05       		.uleb128 0x5
 1297 01ad 580D0000 		.4byte	.LASF59
 1298 01b1 25       		.sleb128 37
 1299 01b2 05       		.uleb128 0x5
ARM GAS  C:\Users\CNous\AppData\Local\Temp\ccmZfnu5.s 			page 56


 1300 01b3 0C060000 		.4byte	.LASF60
 1301 01b7 26       		.sleb128 38
 1302 01b8 05       		.uleb128 0x5
 1303 01b9 5B030000 		.4byte	.LASF61
 1304 01bd 27       		.sleb128 39
 1305 01be 05       		.uleb128 0x5
 1306 01bf 070D0000 		.4byte	.LASF62
 1307 01c3 28       		.sleb128 40
 1308 01c4 05       		.uleb128 0x5
 1309 01c5 8A0C0000 		.4byte	.LASF63
 1310 01c9 29       		.sleb128 41
 1311 01ca 05       		.uleb128 0x5
 1312 01cb 910A0000 		.4byte	.LASF64
 1313 01cf 2A       		.sleb128 42
 1314 01d0 05       		.uleb128 0x5
 1315 01d1 4A020000 		.4byte	.LASF65
 1316 01d5 2B       		.sleb128 43
 1317 01d6 05       		.uleb128 0x5
 1318 01d7 54000000 		.4byte	.LASF66
 1319 01db 2C       		.sleb128 44
 1320 01dc 05       		.uleb128 0x5
 1321 01dd 9A070000 		.4byte	.LASF67
 1322 01e1 2D       		.sleb128 45
 1323 01e2 05       		.uleb128 0x5
 1324 01e3 CA110000 		.4byte	.LASF68
 1325 01e7 2E       		.sleb128 46
 1326 01e8 05       		.uleb128 0x5
 1327 01e9 98120000 		.4byte	.LASF69
 1328 01ed 2F       		.sleb128 47
 1329 01ee 05       		.uleb128 0x5
 1330 01ef 590E0000 		.4byte	.LASF70
 1331 01f3 30       		.sleb128 48
 1332 01f4 05       		.uleb128 0x5
 1333 01f5 D7110000 		.4byte	.LASF71
 1334 01f9 31       		.sleb128 49
 1335 01fa 05       		.uleb128 0x5
 1336 01fb CE040000 		.4byte	.LASF72
 1337 01ff 32       		.sleb128 50
 1338 0200 05       		.uleb128 0x5
 1339 0201 32010000 		.4byte	.LASF73
 1340 0205 33       		.sleb128 51
 1341 0206 05       		.uleb128 0x5
 1342 0207 6C0A0000 		.4byte	.LASF74
 1343 020b 34       		.sleb128 52
 1344 020c 05       		.uleb128 0x5
 1345 020d 2D090000 		.4byte	.LASF75
 1346 0211 35       		.sleb128 53
 1347 0212 05       		.uleb128 0x5
 1348 0213 C50A0000 		.4byte	.LASF76
 1349 0217 36       		.sleb128 54
 1350 0218 05       		.uleb128 0x5
 1351 0219 6D090000 		.4byte	.LASF77
 1352 021d 37       		.sleb128 55
 1353 021e 05       		.uleb128 0x5
 1354 021f 7A080000 		.4byte	.LASF78
 1355 0223 38       		.sleb128 56
 1356 0224 05       		.uleb128 0x5
ARM GAS  C:\Users\CNous\AppData\Local\Temp\ccmZfnu5.s 			page 57


 1357 0225 F5000000 		.4byte	.LASF79
 1358 0229 39       		.sleb128 57
 1359 022a 05       		.uleb128 0x5
 1360 022b F8120000 		.4byte	.LASF80
 1361 022f 3A       		.sleb128 58
 1362 0230 05       		.uleb128 0x5
 1363 0231 4D0B0000 		.4byte	.LASF81
 1364 0235 3B       		.sleb128 59
 1365 0236 05       		.uleb128 0x5
 1366 0237 28040000 		.4byte	.LASF82
 1367 023b 3C       		.sleb128 60
 1368 023c 05       		.uleb128 0x5
 1369 023d 340F0000 		.4byte	.LASF83
 1370 0241 3D       		.sleb128 61
 1371 0242 05       		.uleb128 0x5
 1372 0243 85090000 		.4byte	.LASF84
 1373 0247 3E       		.sleb128 62
 1374 0248 05       		.uleb128 0x5
 1375 0249 7B0B0000 		.4byte	.LASF85
 1376 024d 3F       		.sleb128 63
 1377 024e 05       		.uleb128 0x5
 1378 024f EA010000 		.4byte	.LASF86
 1379 0253 C000     		.sleb128 64
 1380 0255 05       		.uleb128 0x5
 1381 0256 A30D0000 		.4byte	.LASF87
 1382 025a C100     		.sleb128 65
 1383 025c 05       		.uleb128 0x5
 1384 025d AC040000 		.4byte	.LASF88
 1385 0261 C200     		.sleb128 66
 1386 0263 05       		.uleb128 0x5
 1387 0264 C4070000 		.4byte	.LASF89
 1388 0268 C300     		.sleb128 67
 1389 026a 05       		.uleb128 0x5
 1390 026b DF020000 		.4byte	.LASF90
 1391 026f C400     		.sleb128 68
 1392 0271 05       		.uleb128 0x5
 1393 0272 920E0000 		.4byte	.LASF91
 1394 0276 C500     		.sleb128 69
 1395 0278 05       		.uleb128 0x5
 1396 0279 B2070000 		.4byte	.LASF92
 1397 027d C600     		.sleb128 70
 1398 027f 05       		.uleb128 0x5
 1399 0280 F8010000 		.4byte	.LASF93
 1400 0284 C700     		.sleb128 71
 1401 0286 05       		.uleb128 0x5
 1402 0287 080F0000 		.4byte	.LASF94
 1403 028b C800     		.sleb128 72
 1404 028d 05       		.uleb128 0x5
 1405 028e CB0C0000 		.4byte	.LASF95
 1406 0292 C900     		.sleb128 73
 1407 0294 05       		.uleb128 0x5
 1408 0295 B8100000 		.4byte	.LASF96
 1409 0299 CA00     		.sleb128 74
 1410 029b 05       		.uleb128 0x5
 1411 029c 85120000 		.4byte	.LASF97
 1412 02a0 CB00     		.sleb128 75
 1413 02a2 05       		.uleb128 0x5
ARM GAS  C:\Users\CNous\AppData\Local\Temp\ccmZfnu5.s 			page 58


 1414 02a3 2F020000 		.4byte	.LASF98
 1415 02a7 CC00     		.sleb128 76
 1416 02a9 05       		.uleb128 0x5
 1417 02aa B1090000 		.4byte	.LASF99
 1418 02ae CD00     		.sleb128 77
 1419 02b0 05       		.uleb128 0x5
 1420 02b1 5F010000 		.4byte	.LASF100
 1421 02b5 CE00     		.sleb128 78
 1422 02b7 05       		.uleb128 0x5
 1423 02b8 FD0C0000 		.4byte	.LASF101
 1424 02bc CF00     		.sleb128 79
 1425 02be 05       		.uleb128 0x5
 1426 02bf 33070000 		.4byte	.LASF102
 1427 02c3 D000     		.sleb128 80
 1428 02c5 05       		.uleb128 0x5
 1429 02c6 630A0000 		.4byte	.LASF103
 1430 02ca D100     		.sleb128 81
 1431 02cc 00       		.byte	0
 1432 02cd 06       		.uleb128 0x6
 1433 02ce 63080000 		.4byte	.LASF104
 1434 02d2 03       		.byte	0x3
 1435 02d3 EA       		.byte	0xea
 1436 02d4 92000000 		.4byte	0x92
 1437 02d8 06       		.uleb128 0x6
 1438 02d9 9F030000 		.4byte	.LASF105
 1439 02dd 04       		.byte	0x4
 1440 02de 2A       		.byte	0x2a
 1441 02df 30000000 		.4byte	0x30
 1442 02e3 06       		.uleb128 0x6
 1443 02e4 2D0D0000 		.4byte	.LASF106
 1444 02e8 04       		.byte	0x4
 1445 02e9 36       		.byte	0x36
 1446 02ea 3E000000 		.4byte	0x3e
 1447 02ee 06       		.uleb128 0x6
 1448 02ef B8000000 		.4byte	.LASF107
 1449 02f3 04       		.byte	0x4
 1450 02f4 4F       		.byte	0x4f
 1451 02f5 61000000 		.4byte	0x61
 1452 02f9 06       		.uleb128 0x6
 1453 02fa 0D110000 		.4byte	.LASF108
 1454 02fe 04       		.byte	0x4
 1455 02ff 50       		.byte	0x50
 1456 0300 6F000000 		.4byte	0x6f
 1457 0304 07       		.uleb128 0x7
 1458 0305 040E     		.2byte	0xe04
 1459 0307 02       		.byte	0x2
 1460 0308 2F01     		.2byte	0x12f
 1461 030a DC030000 		.4byte	0x3dc
 1462 030e 08       		.uleb128 0x8
 1463 030f C1120000 		.4byte	.LASF109
 1464 0313 02       		.byte	0x2
 1465 0314 3101     		.2byte	0x131
 1466 0316 EC030000 		.4byte	0x3ec
 1467 031a 02       		.byte	0x2
 1468 031b 23       		.byte	0x23
 1469 031c 00       		.uleb128 0
 1470 031d 08       		.uleb128 0x8
ARM GAS  C:\Users\CNous\AppData\Local\Temp\ccmZfnu5.s 			page 59


 1471 031e 06040000 		.4byte	.LASF110
 1472 0322 02       		.byte	0x2
 1473 0323 3201     		.2byte	0x132
 1474 0325 F1030000 		.4byte	0x3f1
 1475 0329 02       		.byte	0x2
 1476 032a 23       		.byte	0x23
 1477 032b 20       		.uleb128 0x20
 1478 032c 08       		.uleb128 0x8
 1479 032d D40D0000 		.4byte	.LASF111
 1480 0331 02       		.byte	0x2
 1481 0332 3301     		.2byte	0x133
 1482 0334 01040000 		.4byte	0x401
 1483 0338 03       		.byte	0x3
 1484 0339 23       		.byte	0x23
 1485 033a 8001     		.uleb128 0x80
 1486 033c 08       		.uleb128 0x8
 1487 033d 05000000 		.4byte	.LASF112
 1488 0341 02       		.byte	0x2
 1489 0342 3401     		.2byte	0x134
 1490 0344 F1030000 		.4byte	0x3f1
 1491 0348 03       		.byte	0x3
 1492 0349 23       		.byte	0x23
 1493 034a A001     		.uleb128 0xa0
 1494 034c 08       		.uleb128 0x8
 1495 034d FD110000 		.4byte	.LASF113
 1496 0351 02       		.byte	0x2
 1497 0352 3501     		.2byte	0x135
 1498 0354 06040000 		.4byte	0x406
 1499 0358 03       		.byte	0x3
 1500 0359 23       		.byte	0x23
 1501 035a 8002     		.uleb128 0x100
 1502 035c 08       		.uleb128 0x8
 1503 035d BA040000 		.4byte	.LASF114
 1504 0361 02       		.byte	0x2
 1505 0362 3601     		.2byte	0x136
 1506 0364 F1030000 		.4byte	0x3f1
 1507 0368 03       		.byte	0x3
 1508 0369 23       		.byte	0x23
 1509 036a A002     		.uleb128 0x120
 1510 036c 08       		.uleb128 0x8
 1511 036d BF010000 		.4byte	.LASF115
 1512 0371 02       		.byte	0x2
 1513 0372 3701     		.2byte	0x137
 1514 0374 0B040000 		.4byte	0x40b
 1515 0378 03       		.byte	0x3
 1516 0379 23       		.byte	0x23
 1517 037a 8003     		.uleb128 0x180
 1518 037c 08       		.uleb128 0x8
 1519 037d C4040000 		.4byte	.LASF116
 1520 0381 02       		.byte	0x2
 1521 0382 3801     		.2byte	0x138
 1522 0384 F1030000 		.4byte	0x3f1
 1523 0388 03       		.byte	0x3
 1524 0389 23       		.byte	0x23
 1525 038a A003     		.uleb128 0x1a0
 1526 038c 08       		.uleb128 0x8
 1527 038d 81040000 		.4byte	.LASF117
ARM GAS  C:\Users\CNous\AppData\Local\Temp\ccmZfnu5.s 			page 60


 1528 0391 02       		.byte	0x2
 1529 0392 3901     		.2byte	0x139
 1530 0394 10040000 		.4byte	0x410
 1531 0398 03       		.byte	0x3
 1532 0399 23       		.byte	0x23
 1533 039a 8004     		.uleb128 0x200
 1534 039c 08       		.uleb128 0x8
 1535 039d 3A040000 		.4byte	.LASF118
 1536 03a1 02       		.byte	0x2
 1537 03a2 3A01     		.2byte	0x13a
 1538 03a4 15040000 		.4byte	0x415
 1539 03a8 03       		.byte	0x3
 1540 03a9 23       		.byte	0x23
 1541 03aa A004     		.uleb128 0x220
 1542 03ac 09       		.uleb128 0x9
 1543 03ad 495000   		.ascii	"IP\000"
 1544 03b0 02       		.byte	0x2
 1545 03b1 3B01     		.2byte	0x13b
 1546 03b3 35040000 		.4byte	0x435
 1547 03b7 03       		.byte	0x3
 1548 03b8 23       		.byte	0x23
 1549 03b9 8006     		.uleb128 0x300
 1550 03bb 08       		.uleb128 0x8
 1551 03bc 44040000 		.4byte	.LASF119
 1552 03c0 02       		.byte	0x2
 1553 03c1 3C01     		.2byte	0x13c
 1554 03c3 3A040000 		.4byte	0x43a
 1555 03c7 03       		.byte	0x3
 1556 03c8 23       		.byte	0x23
 1557 03c9 F007     		.uleb128 0x3f0
 1558 03cb 08       		.uleb128 0x8
 1559 03cc 79060000 		.4byte	.LASF120
 1560 03d0 02       		.byte	0x2
 1561 03d1 3D01     		.2byte	0x13d
 1562 03d3 4B040000 		.4byte	0x44b
 1563 03d7 03       		.byte	0x3
 1564 03d8 23       		.byte	0x23
 1565 03d9 801C     		.uleb128 0xe00
 1566 03db 00       		.byte	0
 1567 03dc 0A       		.uleb128 0xa
 1568 03dd F9020000 		.4byte	0x2f9
 1569 03e1 EC030000 		.4byte	0x3ec
 1570 03e5 0B       		.uleb128 0xb
 1571 03e6 68000000 		.4byte	0x68
 1572 03ea 07       		.byte	0x7
 1573 03eb 00       		.byte	0
 1574 03ec 0C       		.uleb128 0xc
 1575 03ed DC030000 		.4byte	0x3dc
 1576 03f1 0A       		.uleb128 0xa
 1577 03f2 F9020000 		.4byte	0x2f9
 1578 03f6 01040000 		.4byte	0x401
 1579 03fa 0B       		.uleb128 0xb
 1580 03fb 68000000 		.4byte	0x68
 1581 03ff 17       		.byte	0x17
 1582 0400 00       		.byte	0
 1583 0401 0C       		.uleb128 0xc
 1584 0402 DC030000 		.4byte	0x3dc
ARM GAS  C:\Users\CNous\AppData\Local\Temp\ccmZfnu5.s 			page 61


 1585 0406 0C       		.uleb128 0xc
 1586 0407 DC030000 		.4byte	0x3dc
 1587 040b 0C       		.uleb128 0xc
 1588 040c DC030000 		.4byte	0x3dc
 1589 0410 0C       		.uleb128 0xc
 1590 0411 DC030000 		.4byte	0x3dc
 1591 0415 0A       		.uleb128 0xa
 1592 0416 F9020000 		.4byte	0x2f9
 1593 041a 25040000 		.4byte	0x425
 1594 041e 0B       		.uleb128 0xb
 1595 041f 68000000 		.4byte	0x68
 1596 0423 37       		.byte	0x37
 1597 0424 00       		.byte	0
 1598 0425 0A       		.uleb128 0xa
 1599 0426 D8020000 		.4byte	0x2d8
 1600 042a 35040000 		.4byte	0x435
 1601 042e 0B       		.uleb128 0xb
 1602 042f 68000000 		.4byte	0x68
 1603 0433 EF       		.byte	0xef
 1604 0434 00       		.byte	0
 1605 0435 0C       		.uleb128 0xc
 1606 0436 25040000 		.4byte	0x425
 1607 043a 0A       		.uleb128 0xa
 1608 043b F9020000 		.4byte	0x2f9
 1609 043f 4B040000 		.4byte	0x44b
 1610 0443 0D       		.uleb128 0xd
 1611 0444 68000000 		.4byte	0x68
 1612 0448 8302     		.2byte	0x283
 1613 044a 00       		.byte	0
 1614 044b 0C       		.uleb128 0xc
 1615 044c F9020000 		.4byte	0x2f9
 1616 0450 0E       		.uleb128 0xe
 1617 0451 990C0000 		.4byte	.LASF121
 1618 0455 02       		.byte	0x2
 1619 0456 3E01     		.2byte	0x13e
 1620 0458 04030000 		.4byte	0x304
 1621 045c 0F       		.uleb128 0xf
 1622 045d 8C       		.byte	0x8c
 1623 045e 02       		.byte	0x2
 1624 045f 4F01     		.2byte	0x14f
 1625 0461 A2050000 		.4byte	0x5a2
 1626 0465 08       		.uleb128 0x8
 1627 0466 C3020000 		.4byte	.LASF122
 1628 046a 02       		.byte	0x2
 1629 046b 5101     		.2byte	0x151
 1630 046d A2050000 		.4byte	0x5a2
 1631 0471 02       		.byte	0x2
 1632 0472 23       		.byte	0x23
 1633 0473 00       		.uleb128 0
 1634 0474 08       		.uleb128 0x8
 1635 0475 67030000 		.4byte	.LASF123
 1636 0479 02       		.byte	0x2
 1637 047a 5201     		.2byte	0x152
 1638 047c 4B040000 		.4byte	0x44b
 1639 0480 02       		.byte	0x2
 1640 0481 23       		.byte	0x23
 1641 0482 04       		.uleb128 0x4
ARM GAS  C:\Users\CNous\AppData\Local\Temp\ccmZfnu5.s 			page 62


 1642 0483 08       		.uleb128 0x8
 1643 0484 2D010000 		.4byte	.LASF124
 1644 0488 02       		.byte	0x2
 1645 0489 5301     		.2byte	0x153
 1646 048b 4B040000 		.4byte	0x44b
 1647 048f 02       		.byte	0x2
 1648 0490 23       		.byte	0x23
 1649 0491 08       		.uleb128 0x8
 1650 0492 08       		.uleb128 0x8
 1651 0493 96020000 		.4byte	.LASF125
 1652 0497 02       		.byte	0x2
 1653 0498 5401     		.2byte	0x154
 1654 049a 4B040000 		.4byte	0x44b
 1655 049e 02       		.byte	0x2
 1656 049f 23       		.byte	0x23
 1657 04a0 0C       		.uleb128 0xc
 1658 04a1 09       		.uleb128 0x9
 1659 04a2 53435200 		.ascii	"SCR\000"
 1660 04a6 02       		.byte	0x2
 1661 04a7 5501     		.2byte	0x155
 1662 04a9 4B040000 		.4byte	0x44b
 1663 04ad 02       		.byte	0x2
 1664 04ae 23       		.byte	0x23
 1665 04af 10       		.uleb128 0x10
 1666 04b0 09       		.uleb128 0x9
 1667 04b1 43435200 		.ascii	"CCR\000"
 1668 04b5 02       		.byte	0x2
 1669 04b6 5601     		.2byte	0x156
 1670 04b8 4B040000 		.4byte	0x44b
 1671 04bc 02       		.byte	0x2
 1672 04bd 23       		.byte	0x23
 1673 04be 14       		.uleb128 0x14
 1674 04bf 09       		.uleb128 0x9
 1675 04c0 53485000 		.ascii	"SHP\000"
 1676 04c4 02       		.byte	0x2
 1677 04c5 5701     		.2byte	0x157
 1678 04c7 B7050000 		.4byte	0x5b7
 1679 04cb 02       		.byte	0x2
 1680 04cc 23       		.byte	0x23
 1681 04cd 18       		.uleb128 0x18
 1682 04ce 08       		.uleb128 0x8
 1683 04cf 50060000 		.4byte	.LASF126
 1684 04d3 02       		.byte	0x2
 1685 04d4 5801     		.2byte	0x158
 1686 04d6 4B040000 		.4byte	0x44b
 1687 04da 02       		.byte	0x2
 1688 04db 23       		.byte	0x23
 1689 04dc 24       		.uleb128 0x24
 1690 04dd 08       		.uleb128 0x8
 1691 04de 6E0E0000 		.4byte	.LASF127
 1692 04e2 02       		.byte	0x2
 1693 04e3 5901     		.2byte	0x159
 1694 04e5 4B040000 		.4byte	0x44b
 1695 04e9 02       		.byte	0x2
 1696 04ea 23       		.byte	0x23
 1697 04eb 28       		.uleb128 0x28
 1698 04ec 08       		.uleb128 0x8
ARM GAS  C:\Users\CNous\AppData\Local\Temp\ccmZfnu5.s 			page 63


 1699 04ed D0050000 		.4byte	.LASF128
 1700 04f1 02       		.byte	0x2
 1701 04f2 5A01     		.2byte	0x15a
 1702 04f4 4B040000 		.4byte	0x44b
 1703 04f8 02       		.byte	0x2
 1704 04f9 23       		.byte	0x23
 1705 04fa 2C       		.uleb128 0x2c
 1706 04fb 08       		.uleb128 0x8
 1707 04fc 36050000 		.4byte	.LASF129
 1708 0500 02       		.byte	0x2
 1709 0501 5B01     		.2byte	0x15b
 1710 0503 4B040000 		.4byte	0x44b
 1711 0507 02       		.byte	0x2
 1712 0508 23       		.byte	0x23
 1713 0509 30       		.uleb128 0x30
 1714 050a 08       		.uleb128 0x8
 1715 050b 600F0000 		.4byte	.LASF130
 1716 050f 02       		.byte	0x2
 1717 0510 5C01     		.2byte	0x15c
 1718 0512 4B040000 		.4byte	0x44b
 1719 0516 02       		.byte	0x2
 1720 0517 23       		.byte	0x23
 1721 0518 34       		.uleb128 0x34
 1722 0519 08       		.uleb128 0x8
 1723 051a 080B0000 		.4byte	.LASF131
 1724 051e 02       		.byte	0x2
 1725 051f 5D01     		.2byte	0x15d
 1726 0521 4B040000 		.4byte	0x44b
 1727 0525 02       		.byte	0x2
 1728 0526 23       		.byte	0x23
 1729 0527 38       		.uleb128 0x38
 1730 0528 08       		.uleb128 0x8
 1731 0529 2B0E0000 		.4byte	.LASF132
 1732 052d 02       		.byte	0x2
 1733 052e 5E01     		.2byte	0x15e
 1734 0530 4B040000 		.4byte	0x44b
 1735 0534 02       		.byte	0x2
 1736 0535 23       		.byte	0x23
 1737 0536 3C       		.uleb128 0x3c
 1738 0537 09       		.uleb128 0x9
 1739 0538 50465200 		.ascii	"PFR\000"
 1740 053c 02       		.byte	0x2
 1741 053d 5F01     		.2byte	0x15f
 1742 053f CC050000 		.4byte	0x5cc
 1743 0543 02       		.byte	0x2
 1744 0544 23       		.byte	0x23
 1745 0545 40       		.uleb128 0x40
 1746 0546 09       		.uleb128 0x9
 1747 0547 44465200 		.ascii	"DFR\000"
 1748 054b 02       		.byte	0x2
 1749 054c 6001     		.2byte	0x160
 1750 054e A2050000 		.4byte	0x5a2
 1751 0552 02       		.byte	0x2
 1752 0553 23       		.byte	0x23
 1753 0554 48       		.uleb128 0x48
 1754 0555 09       		.uleb128 0x9
 1755 0556 41445200 		.ascii	"ADR\000"
ARM GAS  C:\Users\CNous\AppData\Local\Temp\ccmZfnu5.s 			page 64


 1756 055a 02       		.byte	0x2
 1757 055b 6101     		.2byte	0x161
 1758 055d A2050000 		.4byte	0x5a2
 1759 0561 02       		.byte	0x2
 1760 0562 23       		.byte	0x23
 1761 0563 4C       		.uleb128 0x4c
 1762 0564 08       		.uleb128 0x8
 1763 0565 5B0F0000 		.4byte	.LASF133
 1764 0569 02       		.byte	0x2
 1765 056a 6201     		.2byte	0x162
 1766 056c E6050000 		.4byte	0x5e6
 1767 0570 02       		.byte	0x2
 1768 0571 23       		.byte	0x23
 1769 0572 50       		.uleb128 0x50
 1770 0573 08       		.uleb128 0x8
 1771 0574 CF0F0000 		.4byte	.LASF134
 1772 0578 02       		.byte	0x2
 1773 0579 6301     		.2byte	0x163
 1774 057b 00060000 		.4byte	0x600
 1775 057f 02       		.byte	0x2
 1776 0580 23       		.byte	0x23
 1777 0581 60       		.uleb128 0x60
 1778 0582 08       		.uleb128 0x8
 1779 0583 06040000 		.4byte	.LASF110
 1780 0587 02       		.byte	0x2
 1781 0588 6401     		.2byte	0x164
 1782 058a F0050000 		.4byte	0x5f0
 1783 058e 02       		.byte	0x2
 1784 058f 23       		.byte	0x23
 1785 0590 74       		.uleb128 0x74
 1786 0591 08       		.uleb128 0x8
 1787 0592 E1110000 		.4byte	.LASF135
 1788 0596 02       		.byte	0x2
 1789 0597 6501     		.2byte	0x165
 1790 0599 4B040000 		.4byte	0x44b
 1791 059d 03       		.byte	0x3
 1792 059e 23       		.byte	0x23
 1793 059f 8801     		.uleb128 0x88
 1794 05a1 00       		.byte	0
 1795 05a2 10       		.uleb128 0x10
 1796 05a3 4B040000 		.4byte	0x44b
 1797 05a7 0A       		.uleb128 0xa
 1798 05a8 D8020000 		.4byte	0x2d8
 1799 05ac B7050000 		.4byte	0x5b7
 1800 05b0 0B       		.uleb128 0xb
 1801 05b1 68000000 		.4byte	0x68
 1802 05b5 0B       		.byte	0xb
 1803 05b6 00       		.byte	0
 1804 05b7 0C       		.uleb128 0xc
 1805 05b8 A7050000 		.4byte	0x5a7
 1806 05bc 0A       		.uleb128 0xa
 1807 05bd F9020000 		.4byte	0x2f9
 1808 05c1 CC050000 		.4byte	0x5cc
 1809 05c5 0B       		.uleb128 0xb
 1810 05c6 68000000 		.4byte	0x68
 1811 05ca 01       		.byte	0x1
 1812 05cb 00       		.byte	0
ARM GAS  C:\Users\CNous\AppData\Local\Temp\ccmZfnu5.s 			page 65


 1813 05cc 10       		.uleb128 0x10
 1814 05cd D1050000 		.4byte	0x5d1
 1815 05d1 0C       		.uleb128 0xc
 1816 05d2 BC050000 		.4byte	0x5bc
 1817 05d6 0A       		.uleb128 0xa
 1818 05d7 F9020000 		.4byte	0x2f9
 1819 05db E6050000 		.4byte	0x5e6
 1820 05df 0B       		.uleb128 0xb
 1821 05e0 68000000 		.4byte	0x68
 1822 05e4 03       		.byte	0x3
 1823 05e5 00       		.byte	0
 1824 05e6 10       		.uleb128 0x10
 1825 05e7 EB050000 		.4byte	0x5eb
 1826 05eb 0C       		.uleb128 0xc
 1827 05ec D6050000 		.4byte	0x5d6
 1828 05f0 0A       		.uleb128 0xa
 1829 05f1 F9020000 		.4byte	0x2f9
 1830 05f5 00060000 		.4byte	0x600
 1831 05f9 0B       		.uleb128 0xb
 1832 05fa 68000000 		.4byte	0x68
 1833 05fe 04       		.byte	0x4
 1834 05ff 00       		.byte	0
 1835 0600 10       		.uleb128 0x10
 1836 0601 05060000 		.4byte	0x605
 1837 0605 0C       		.uleb128 0xc
 1838 0606 F0050000 		.4byte	0x5f0
 1839 060a 0E       		.uleb128 0xe
 1840 060b 1C050000 		.4byte	.LASF136
 1841 060f 02       		.byte	0x2
 1842 0610 6601     		.2byte	0x166
 1843 0612 5C040000 		.4byte	0x45c
 1844 0616 0F       		.uleb128 0xf
 1845 0617 10       		.byte	0x10
 1846 0618 02       		.byte	0x2
 1847 0619 4E02     		.2byte	0x24e
 1848 061b 5C060000 		.4byte	0x65c
 1849 061f 08       		.uleb128 0x8
 1850 0620 C00A0000 		.4byte	.LASF137
 1851 0624 02       		.byte	0x2
 1852 0625 5002     		.2byte	0x250
 1853 0627 4B040000 		.4byte	0x44b
 1854 062b 02       		.byte	0x2
 1855 062c 23       		.byte	0x23
 1856 062d 00       		.uleb128 0
 1857 062e 08       		.uleb128 0x8
 1858 062f B90E0000 		.4byte	.LASF138
 1859 0633 02       		.byte	0x2
 1860 0634 5102     		.2byte	0x251
 1861 0636 4B040000 		.4byte	0x44b
 1862 063a 02       		.byte	0x2
 1863 063b 23       		.byte	0x23
 1864 063c 04       		.uleb128 0x4
 1865 063d 09       		.uleb128 0x9
 1866 063e 56414C00 		.ascii	"VAL\000"
 1867 0642 02       		.byte	0x2
 1868 0643 5202     		.2byte	0x252
 1869 0645 4B040000 		.4byte	0x44b
ARM GAS  C:\Users\CNous\AppData\Local\Temp\ccmZfnu5.s 			page 66


 1870 0649 02       		.byte	0x2
 1871 064a 23       		.byte	0x23
 1872 064b 08       		.uleb128 0x8
 1873 064c 08       		.uleb128 0x8
 1874 064d 370E0000 		.4byte	.LASF139
 1875 0651 02       		.byte	0x2
 1876 0652 5302     		.2byte	0x253
 1877 0654 A2050000 		.4byte	0x5a2
 1878 0658 02       		.byte	0x2
 1879 0659 23       		.byte	0x23
 1880 065a 0C       		.uleb128 0xc
 1881 065b 00       		.byte	0
 1882 065c 0E       		.uleb128 0xe
 1883 065d C00B0000 		.4byte	.LASF140
 1884 0661 02       		.byte	0x2
 1885 0662 5402     		.2byte	0x254
 1886 0664 16060000 		.4byte	0x616
 1887 0668 0C       		.uleb128 0xc
 1888 0669 E3020000 		.4byte	0x2e3
 1889 066d 0C       		.uleb128 0xc
 1890 066e EE020000 		.4byte	0x2ee
 1891 0672 11       		.uleb128 0x11
 1892 0673 01       		.byte	0x1
 1893 0674 03       		.byte	0x3
 1894 0675 1801     		.2byte	0x118
 1895 0677 88060000 		.4byte	0x688
 1896 067b 05       		.uleb128 0x5
 1897 067c 0D0E0000 		.4byte	.LASF141
 1898 0680 00       		.sleb128 0
 1899 0681 12       		.uleb128 0x12
 1900 0682 53455400 		.ascii	"SET\000"
 1901 0686 01       		.sleb128 1
 1902 0687 00       		.byte	0
 1903 0688 0E       		.uleb128 0xe
 1904 0689 C6120000 		.4byte	.LASF142
 1905 068d 03       		.byte	0x3
 1906 068e 1801     		.2byte	0x118
 1907 0690 72060000 		.4byte	0x672
 1908 0694 11       		.uleb128 0x11
 1909 0695 01       		.byte	0x1
 1910 0696 03       		.byte	0x3
 1911 0697 1A01     		.2byte	0x11a
 1912 0699 AA060000 		.4byte	0x6aa
 1913 069d 05       		.uleb128 0x5
 1914 069e D6090000 		.4byte	.LASF143
 1915 06a2 00       		.sleb128 0
 1916 06a3 05       		.uleb128 0x5
 1917 06a4 EF0F0000 		.4byte	.LASF144
 1918 06a8 01       		.sleb128 1
 1919 06a9 00       		.byte	0
 1920 06aa 0E       		.uleb128 0xe
 1921 06ab BB0C0000 		.4byte	.LASF145
 1922 06af 03       		.byte	0x3
 1923 06b0 1A01     		.2byte	0x11a
 1924 06b2 94060000 		.4byte	0x694
 1925 06b6 0F       		.uleb128 0xf
 1926 06b7 50       		.byte	0x50
ARM GAS  C:\Users\CNous\AppData\Local\Temp\ccmZfnu5.s 			page 67


 1927 06b8 03       		.byte	0x3
 1928 06b9 2B01     		.2byte	0x12b
 1929 06bb EA070000 		.4byte	0x7ea
 1930 06bf 09       		.uleb128 0x9
 1931 06c0 535200   		.ascii	"SR\000"
 1932 06c3 03       		.byte	0x3
 1933 06c4 2D01     		.2byte	0x12d
 1934 06c6 4B040000 		.4byte	0x44b
 1935 06ca 02       		.byte	0x2
 1936 06cb 23       		.byte	0x23
 1937 06cc 00       		.uleb128 0
 1938 06cd 09       		.uleb128 0x9
 1939 06ce 43523100 		.ascii	"CR1\000"
 1940 06d2 03       		.byte	0x3
 1941 06d3 2E01     		.2byte	0x12e
 1942 06d5 4B040000 		.4byte	0x44b
 1943 06d9 02       		.byte	0x2
 1944 06da 23       		.byte	0x23
 1945 06db 04       		.uleb128 0x4
 1946 06dc 09       		.uleb128 0x9
 1947 06dd 43523200 		.ascii	"CR2\000"
 1948 06e1 03       		.byte	0x3
 1949 06e2 2F01     		.2byte	0x12f
 1950 06e4 4B040000 		.4byte	0x44b
 1951 06e8 02       		.byte	0x2
 1952 06e9 23       		.byte	0x23
 1953 06ea 08       		.uleb128 0x8
 1954 06eb 08       		.uleb128 0x8
 1955 06ec 8C080000 		.4byte	.LASF146
 1956 06f0 03       		.byte	0x3
 1957 06f1 3001     		.2byte	0x130
 1958 06f3 4B040000 		.4byte	0x44b
 1959 06f7 02       		.byte	0x2
 1960 06f8 23       		.byte	0x23
 1961 06f9 0C       		.uleb128 0xc
 1962 06fa 08       		.uleb128 0x8
 1963 06fb 92080000 		.4byte	.LASF147
 1964 06ff 03       		.byte	0x3
 1965 0700 3101     		.2byte	0x131
 1966 0702 4B040000 		.4byte	0x44b
 1967 0706 02       		.byte	0x2
 1968 0707 23       		.byte	0x23
 1969 0708 10       		.uleb128 0x10
 1970 0709 08       		.uleb128 0x8
 1971 070a AC0F0000 		.4byte	.LASF148
 1972 070e 03       		.byte	0x3
 1973 070f 3201     		.2byte	0x132
 1974 0711 4B040000 		.4byte	0x44b
 1975 0715 02       		.byte	0x2
 1976 0716 23       		.byte	0x23
 1977 0717 14       		.uleb128 0x14
 1978 0718 08       		.uleb128 0x8
 1979 0719 B20F0000 		.4byte	.LASF149
 1980 071d 03       		.byte	0x3
 1981 071e 3301     		.2byte	0x133
 1982 0720 4B040000 		.4byte	0x44b
 1983 0724 02       		.byte	0x2
ARM GAS  C:\Users\CNous\AppData\Local\Temp\ccmZfnu5.s 			page 68


 1984 0725 23       		.byte	0x23
 1985 0726 18       		.uleb128 0x18
 1986 0727 08       		.uleb128 0x8
 1987 0728 B80F0000 		.4byte	.LASF150
 1988 072c 03       		.byte	0x3
 1989 072d 3401     		.2byte	0x134
 1990 072f 4B040000 		.4byte	0x44b
 1991 0733 02       		.byte	0x2
 1992 0734 23       		.byte	0x23
 1993 0735 1C       		.uleb128 0x1c
 1994 0736 08       		.uleb128 0x8
 1995 0737 BE0F0000 		.4byte	.LASF151
 1996 073b 03       		.byte	0x3
 1997 073c 3501     		.2byte	0x135
 1998 073e 4B040000 		.4byte	0x44b
 1999 0742 02       		.byte	0x2
 2000 0743 23       		.byte	0x23
 2001 0744 20       		.uleb128 0x20
 2002 0745 09       		.uleb128 0x9
 2003 0746 48545200 		.ascii	"HTR\000"
 2004 074a 03       		.byte	0x3
 2005 074b 3601     		.2byte	0x136
 2006 074d 4B040000 		.4byte	0x44b
 2007 0751 02       		.byte	0x2
 2008 0752 23       		.byte	0x23
 2009 0753 24       		.uleb128 0x24
 2010 0754 09       		.uleb128 0x9
 2011 0755 4C545200 		.ascii	"LTR\000"
 2012 0759 03       		.byte	0x3
 2013 075a 3701     		.2byte	0x137
 2014 075c 4B040000 		.4byte	0x44b
 2015 0760 02       		.byte	0x2
 2016 0761 23       		.byte	0x23
 2017 0762 28       		.uleb128 0x28
 2018 0763 08       		.uleb128 0x8
 2019 0764 97000000 		.4byte	.LASF152
 2020 0768 03       		.byte	0x3
 2021 0769 3801     		.2byte	0x138
 2022 076b 4B040000 		.4byte	0x44b
 2023 076f 02       		.byte	0x2
 2024 0770 23       		.byte	0x23
 2025 0771 2C       		.uleb128 0x2c
 2026 0772 08       		.uleb128 0x8
 2027 0773 9C000000 		.4byte	.LASF153
 2028 0777 03       		.byte	0x3
 2029 0778 3901     		.2byte	0x139
 2030 077a 4B040000 		.4byte	0x44b
 2031 077e 02       		.byte	0x2
 2032 077f 23       		.byte	0x23
 2033 0780 30       		.uleb128 0x30
 2034 0781 08       		.uleb128 0x8
 2035 0782 A1000000 		.4byte	.LASF154
 2036 0786 03       		.byte	0x3
 2037 0787 3A01     		.2byte	0x13a
 2038 0789 4B040000 		.4byte	0x44b
 2039 078d 02       		.byte	0x2
 2040 078e 23       		.byte	0x23
ARM GAS  C:\Users\CNous\AppData\Local\Temp\ccmZfnu5.s 			page 69


 2041 078f 34       		.uleb128 0x34
 2042 0790 08       		.uleb128 0x8
 2043 0791 2F100000 		.4byte	.LASF155
 2044 0795 03       		.byte	0x3
 2045 0796 3B01     		.2byte	0x13b
 2046 0798 4B040000 		.4byte	0x44b
 2047 079c 02       		.byte	0x2
 2048 079d 23       		.byte	0x23
 2049 079e 38       		.uleb128 0x38
 2050 079f 08       		.uleb128 0x8
 2051 07a0 1B100000 		.4byte	.LASF156
 2052 07a4 03       		.byte	0x3
 2053 07a5 3C01     		.2byte	0x13c
 2054 07a7 4B040000 		.4byte	0x44b
 2055 07ab 02       		.byte	0x2
 2056 07ac 23       		.byte	0x23
 2057 07ad 3C       		.uleb128 0x3c
 2058 07ae 08       		.uleb128 0x8
 2059 07af 20100000 		.4byte	.LASF157
 2060 07b3 03       		.byte	0x3
 2061 07b4 3D01     		.2byte	0x13d
 2062 07b6 4B040000 		.4byte	0x44b
 2063 07ba 02       		.byte	0x2
 2064 07bb 23       		.byte	0x23
 2065 07bc 40       		.uleb128 0x40
 2066 07bd 08       		.uleb128 0x8
 2067 07be 25100000 		.4byte	.LASF158
 2068 07c2 03       		.byte	0x3
 2069 07c3 3E01     		.2byte	0x13e
 2070 07c5 4B040000 		.4byte	0x44b
 2071 07c9 02       		.byte	0x2
 2072 07ca 23       		.byte	0x23
 2073 07cb 44       		.uleb128 0x44
 2074 07cc 08       		.uleb128 0x8
 2075 07cd 2A100000 		.4byte	.LASF159
 2076 07d1 03       		.byte	0x3
 2077 07d2 3F01     		.2byte	0x13f
 2078 07d4 4B040000 		.4byte	0x44b
 2079 07d8 02       		.byte	0x2
 2080 07d9 23       		.byte	0x23
 2081 07da 48       		.uleb128 0x48
 2082 07db 09       		.uleb128 0x9
 2083 07dc 445200   		.ascii	"DR\000"
 2084 07df 03       		.byte	0x3
 2085 07e0 4001     		.2byte	0x140
 2086 07e2 4B040000 		.4byte	0x44b
 2087 07e6 02       		.byte	0x2
 2088 07e7 23       		.byte	0x23
 2089 07e8 4C       		.uleb128 0x4c
 2090 07e9 00       		.byte	0
 2091 07ea 0E       		.uleb128 0xe
 2092 07eb 9F060000 		.4byte	.LASF160
 2093 07ef 03       		.byte	0x3
 2094 07f0 4101     		.2byte	0x141
 2095 07f2 B6060000 		.4byte	0x6b6
 2096 07f6 0F       		.uleb128 0xf
 2097 07f7 18       		.byte	0x18
ARM GAS  C:\Users\CNous\AppData\Local\Temp\ccmZfnu5.s 			page 70


 2098 07f8 03       		.byte	0x3
 2099 07f9 D201     		.2byte	0x1d2
 2100 07fb 59080000 		.4byte	0x859
 2101 07ff 09       		.uleb128 0x9
 2102 0800 435200   		.ascii	"CR\000"
 2103 0803 03       		.byte	0x3
 2104 0804 D401     		.2byte	0x1d4
 2105 0806 4B040000 		.4byte	0x44b
 2106 080a 02       		.byte	0x2
 2107 080b 23       		.byte	0x23
 2108 080c 00       		.uleb128 0
 2109 080d 08       		.uleb128 0x8
 2110 080e BC120000 		.4byte	.LASF161
 2111 0812 03       		.byte	0x3
 2112 0813 D501     		.2byte	0x1d5
 2113 0815 4B040000 		.4byte	0x44b
 2114 0819 02       		.byte	0x2
 2115 081a 23       		.byte	0x23
 2116 081b 04       		.uleb128 0x4
 2117 081c 09       		.uleb128 0x9
 2118 081d 50415200 		.ascii	"PAR\000"
 2119 0821 03       		.byte	0x3
 2120 0822 D601     		.2byte	0x1d6
 2121 0824 4B040000 		.4byte	0x44b
 2122 0828 02       		.byte	0x2
 2123 0829 23       		.byte	0x23
 2124 082a 08       		.uleb128 0x8
 2125 082b 08       		.uleb128 0x8
 2126 082c 2F0F0000 		.4byte	.LASF162
 2127 0830 03       		.byte	0x3
 2128 0831 D701     		.2byte	0x1d7
 2129 0833 4B040000 		.4byte	0x44b
 2130 0837 02       		.byte	0x2
 2131 0838 23       		.byte	0x23
 2132 0839 0C       		.uleb128 0xc
 2133 083a 08       		.uleb128 0x8
 2134 083b 00000000 		.4byte	.LASF163
 2135 083f 03       		.byte	0x3
 2136 0840 D801     		.2byte	0x1d8
 2137 0842 4B040000 		.4byte	0x44b
 2138 0846 02       		.byte	0x2
 2139 0847 23       		.byte	0x23
 2140 0848 10       		.uleb128 0x10
 2141 0849 09       		.uleb128 0x9
 2142 084a 46435200 		.ascii	"FCR\000"
 2143 084e 03       		.byte	0x3
 2144 084f D901     		.2byte	0x1d9
 2145 0851 4B040000 		.4byte	0x44b
 2146 0855 02       		.byte	0x2
 2147 0856 23       		.byte	0x23
 2148 0857 14       		.uleb128 0x14
 2149 0858 00       		.byte	0
 2150 0859 0E       		.uleb128 0xe
 2151 085a 880B0000 		.4byte	.LASF164
 2152 085e 03       		.byte	0x3
 2153 085f DA01     		.2byte	0x1da
 2154 0861 F6070000 		.4byte	0x7f6
ARM GAS  C:\Users\CNous\AppData\Local\Temp\ccmZfnu5.s 			page 71


 2155 0865 0F       		.uleb128 0xf
 2156 0866 28       		.byte	0x28
 2157 0867 03       		.byte	0x3
 2158 0868 8902     		.2byte	0x289
 2159 086a 05090000 		.4byte	0x905
 2160 086e 08       		.uleb128 0x8
 2161 086f 34110000 		.4byte	.LASF165
 2162 0873 03       		.byte	0x3
 2163 0874 8B02     		.2byte	0x28b
 2164 0876 4B040000 		.4byte	0x44b
 2165 087a 02       		.byte	0x2
 2166 087b 23       		.byte	0x23
 2167 087c 00       		.uleb128 0
 2168 087d 08       		.uleb128 0x8
 2169 087e 300E0000 		.4byte	.LASF166
 2170 0882 03       		.byte	0x3
 2171 0883 8C02     		.2byte	0x28c
 2172 0885 4B040000 		.4byte	0x44b
 2173 0889 02       		.byte	0x2
 2174 088a 23       		.byte	0x23
 2175 088b 04       		.uleb128 0x4
 2176 088c 08       		.uleb128 0x8
 2177 088d 11090000 		.4byte	.LASF167
 2178 0891 03       		.byte	0x3
 2179 0892 8D02     		.2byte	0x28d
 2180 0894 4B040000 		.4byte	0x44b
 2181 0898 02       		.byte	0x2
 2182 0899 23       		.byte	0x23
 2183 089a 08       		.uleb128 0x8
 2184 089b 08       		.uleb128 0x8
 2185 089c C6090000 		.4byte	.LASF168
 2186 08a0 03       		.byte	0x3
 2187 08a1 8E02     		.2byte	0x28e
 2188 08a3 4B040000 		.4byte	0x44b
 2189 08a7 02       		.byte	0x2
 2190 08a8 23       		.byte	0x23
 2191 08a9 0C       		.uleb128 0xc
 2192 08aa 09       		.uleb128 0x9
 2193 08ab 49445200 		.ascii	"IDR\000"
 2194 08af 03       		.byte	0x3
 2195 08b0 8F02     		.2byte	0x28f
 2196 08b2 4B040000 		.4byte	0x44b
 2197 08b6 02       		.byte	0x2
 2198 08b7 23       		.byte	0x23
 2199 08b8 10       		.uleb128 0x10
 2200 08b9 09       		.uleb128 0x9
 2201 08ba 4F445200 		.ascii	"ODR\000"
 2202 08be 03       		.byte	0x3
 2203 08bf 9002     		.2byte	0x290
 2204 08c1 4B040000 		.4byte	0x44b
 2205 08c5 02       		.byte	0x2
 2206 08c6 23       		.byte	0x23
 2207 08c7 14       		.uleb128 0x14
 2208 08c8 08       		.uleb128 0x8
 2209 08c9 290A0000 		.4byte	.LASF169
 2210 08cd 03       		.byte	0x3
 2211 08ce 9102     		.2byte	0x291
ARM GAS  C:\Users\CNous\AppData\Local\Temp\ccmZfnu5.s 			page 72


 2212 08d0 68060000 		.4byte	0x668
 2213 08d4 02       		.byte	0x2
 2214 08d5 23       		.byte	0x23
 2215 08d6 18       		.uleb128 0x18
 2216 08d7 08       		.uleb128 0x8
 2217 08d8 180A0000 		.4byte	.LASF170
 2218 08dc 03       		.byte	0x3
 2219 08dd 9202     		.2byte	0x292
 2220 08df 68060000 		.4byte	0x668
 2221 08e3 02       		.byte	0x2
 2222 08e4 23       		.byte	0x23
 2223 08e5 1A       		.uleb128 0x1a
 2224 08e6 08       		.uleb128 0x8
 2225 08e7 D0080000 		.4byte	.LASF171
 2226 08eb 03       		.byte	0x3
 2227 08ec 9302     		.2byte	0x293
 2228 08ee 4B040000 		.4byte	0x44b
 2229 08f2 02       		.byte	0x2
 2230 08f3 23       		.byte	0x23
 2231 08f4 1C       		.uleb128 0x1c
 2232 08f5 09       		.uleb128 0x9
 2233 08f6 41465200 		.ascii	"AFR\000"
 2234 08fa 03       		.byte	0x3
 2235 08fb 9402     		.2byte	0x294
 2236 08fd 05090000 		.4byte	0x905
 2237 0901 02       		.byte	0x2
 2238 0902 23       		.byte	0x23
 2239 0903 20       		.uleb128 0x20
 2240 0904 00       		.byte	0
 2241 0905 0C       		.uleb128 0xc
 2242 0906 BC050000 		.4byte	0x5bc
 2243 090a 0E       		.uleb128 0xe
 2244 090b 34100000 		.4byte	.LASF172
 2245 090f 03       		.byte	0x3
 2246 0910 9502     		.2byte	0x295
 2247 0912 65080000 		.4byte	0x865
 2248 0916 0F       		.uleb128 0xf
 2249 0917 54       		.byte	0x54
 2250 0918 03       		.byte	0x3
 2251 0919 6403     		.2byte	0x364
 2252 091b 3A0B0000 		.4byte	0xb3a
 2253 091f 09       		.uleb128 0x9
 2254 0920 43523100 		.ascii	"CR1\000"
 2255 0924 03       		.byte	0x3
 2256 0925 6603     		.2byte	0x366
 2257 0927 68060000 		.4byte	0x668
 2258 092b 02       		.byte	0x2
 2259 092c 23       		.byte	0x23
 2260 092d 00       		.uleb128 0
 2261 092e 08       		.uleb128 0x8
 2262 092f 06040000 		.4byte	.LASF110
 2263 0933 03       		.byte	0x3
 2264 0934 6703     		.2byte	0x367
 2265 0936 E3020000 		.4byte	0x2e3
 2266 093a 02       		.byte	0x2
 2267 093b 23       		.byte	0x23
 2268 093c 02       		.uleb128 0x2
ARM GAS  C:\Users\CNous\AppData\Local\Temp\ccmZfnu5.s 			page 73


 2269 093d 09       		.uleb128 0x9
 2270 093e 43523200 		.ascii	"CR2\000"
 2271 0942 03       		.byte	0x3
 2272 0943 6803     		.2byte	0x368
 2273 0945 68060000 		.4byte	0x668
 2274 0949 02       		.byte	0x2
 2275 094a 23       		.byte	0x23
 2276 094b 04       		.uleb128 0x4
 2277 094c 08       		.uleb128 0x8
 2278 094d 10040000 		.4byte	.LASF173
 2279 0951 03       		.byte	0x3
 2280 0952 6903     		.2byte	0x369
 2281 0954 E3020000 		.4byte	0x2e3
 2282 0958 02       		.byte	0x2
 2283 0959 23       		.byte	0x23
 2284 095a 06       		.uleb128 0x6
 2285 095b 08       		.uleb128 0x8
 2286 095c D90D0000 		.4byte	.LASF174
 2287 0960 03       		.byte	0x3
 2288 0961 6A03     		.2byte	0x36a
 2289 0963 68060000 		.4byte	0x668
 2290 0967 02       		.byte	0x2
 2291 0968 23       		.byte	0x23
 2292 0969 08       		.uleb128 0x8
 2293 096a 08       		.uleb128 0x8
 2294 096b BA040000 		.4byte	.LASF114
 2295 096f 03       		.byte	0x3
 2296 0970 6B03     		.2byte	0x36b
 2297 0972 E3020000 		.4byte	0x2e3
 2298 0976 02       		.byte	0x2
 2299 0977 23       		.byte	0x23
 2300 0978 0A       		.uleb128 0xa
 2301 0979 08       		.uleb128 0x8
 2302 097a 30080000 		.4byte	.LASF175
 2303 097e 03       		.byte	0x3
 2304 097f 6C03     		.2byte	0x36c
 2305 0981 68060000 		.4byte	0x668
 2306 0985 02       		.byte	0x2
 2307 0986 23       		.byte	0x23
 2308 0987 0C       		.uleb128 0xc
 2309 0988 08       		.uleb128 0x8
 2310 0989 C4040000 		.4byte	.LASF116
 2311 098d 03       		.byte	0x3
 2312 098e 6D03     		.2byte	0x36d
 2313 0990 E3020000 		.4byte	0x2e3
 2314 0994 02       		.byte	0x2
 2315 0995 23       		.byte	0x23
 2316 0996 0E       		.uleb128 0xe
 2317 0997 09       		.uleb128 0x9
 2318 0998 535200   		.ascii	"SR\000"
 2319 099b 03       		.byte	0x3
 2320 099c 6E03     		.2byte	0x36e
 2321 099e 68060000 		.4byte	0x668
 2322 09a2 02       		.byte	0x2
 2323 09a3 23       		.byte	0x23
 2324 09a4 10       		.uleb128 0x10
 2325 09a5 08       		.uleb128 0x8
ARM GAS  C:\Users\CNous\AppData\Local\Temp\ccmZfnu5.s 			page 74


 2326 09a6 3A040000 		.4byte	.LASF118
 2327 09aa 03       		.byte	0x3
 2328 09ab 6F03     		.2byte	0x36f
 2329 09ad E3020000 		.4byte	0x2e3
 2330 09b1 02       		.byte	0x2
 2331 09b2 23       		.byte	0x23
 2332 09b3 12       		.uleb128 0x12
 2333 09b4 09       		.uleb128 0x9
 2334 09b5 45475200 		.ascii	"EGR\000"
 2335 09b9 03       		.byte	0x3
 2336 09ba 7003     		.2byte	0x370
 2337 09bc 68060000 		.4byte	0x668
 2338 09c0 02       		.byte	0x2
 2339 09c1 23       		.byte	0x23
 2340 09c2 14       		.uleb128 0x14
 2341 09c3 08       		.uleb128 0x8
 2342 09c4 44040000 		.4byte	.LASF119
 2343 09c8 03       		.byte	0x3
 2344 09c9 7103     		.2byte	0x371
 2345 09cb E3020000 		.4byte	0x2e3
 2346 09cf 02       		.byte	0x2
 2347 09d0 23       		.byte	0x23
 2348 09d1 16       		.uleb128 0x16
 2349 09d2 08       		.uleb128 0x8
 2350 09d3 E8040000 		.4byte	.LASF176
 2351 09d7 03       		.byte	0x3
 2352 09d8 7203     		.2byte	0x372
 2353 09da 68060000 		.4byte	0x668
 2354 09de 02       		.byte	0x2
 2355 09df 23       		.byte	0x23
 2356 09e0 18       		.uleb128 0x18
 2357 09e1 08       		.uleb128 0x8
 2358 09e2 4E040000 		.4byte	.LASF177
 2359 09e6 03       		.byte	0x3
 2360 09e7 7303     		.2byte	0x373
 2361 09e9 E3020000 		.4byte	0x2e3
 2362 09ed 02       		.byte	0x2
 2363 09ee 23       		.byte	0x23
 2364 09ef 1A       		.uleb128 0x1a
 2365 09f0 08       		.uleb128 0x8
 2366 09f1 EE040000 		.4byte	.LASF178
 2367 09f5 03       		.byte	0x3
 2368 09f6 7403     		.2byte	0x374
 2369 09f8 68060000 		.4byte	0x668
 2370 09fc 02       		.byte	0x2
 2371 09fd 23       		.byte	0x23
 2372 09fe 1C       		.uleb128 0x1c
 2373 09ff 08       		.uleb128 0x8
 2374 0a00 58040000 		.4byte	.LASF179
 2375 0a04 03       		.byte	0x3
 2376 0a05 7503     		.2byte	0x375
 2377 0a07 E3020000 		.4byte	0x2e3
 2378 0a0b 02       		.byte	0x2
 2379 0a0c 23       		.byte	0x23
 2380 0a0d 1E       		.uleb128 0x1e
 2381 0a0e 08       		.uleb128 0x8
 2382 0a0f 480D0000 		.4byte	.LASF180
ARM GAS  C:\Users\CNous\AppData\Local\Temp\ccmZfnu5.s 			page 75


 2383 0a13 03       		.byte	0x3
 2384 0a14 7603     		.2byte	0x376
 2385 0a16 68060000 		.4byte	0x668
 2386 0a1a 02       		.byte	0x2
 2387 0a1b 23       		.byte	0x23
 2388 0a1c 20       		.uleb128 0x20
 2389 0a1d 08       		.uleb128 0x8
 2390 0a1e 62040000 		.4byte	.LASF181
 2391 0a22 03       		.byte	0x3
 2392 0a23 7703     		.2byte	0x377
 2393 0a25 E3020000 		.4byte	0x2e3
 2394 0a29 02       		.byte	0x2
 2395 0a2a 23       		.byte	0x23
 2396 0a2b 22       		.uleb128 0x22
 2397 0a2c 09       		.uleb128 0x9
 2398 0a2d 434E5400 		.ascii	"CNT\000"
 2399 0a31 03       		.byte	0x3
 2400 0a32 7803     		.2byte	0x378
 2401 0a34 4B040000 		.4byte	0x44b
 2402 0a38 02       		.byte	0x2
 2403 0a39 23       		.byte	0x23
 2404 0a3a 24       		.uleb128 0x24
 2405 0a3b 09       		.uleb128 0x9
 2406 0a3c 50534300 		.ascii	"PSC\000"
 2407 0a40 03       		.byte	0x3
 2408 0a41 7903     		.2byte	0x379
 2409 0a43 68060000 		.4byte	0x668
 2410 0a47 02       		.byte	0x2
 2411 0a48 23       		.byte	0x23
 2412 0a49 28       		.uleb128 0x28
 2413 0a4a 08       		.uleb128 0x8
 2414 0a4b 6C040000 		.4byte	.LASF182
 2415 0a4f 03       		.byte	0x3
 2416 0a50 7A03     		.2byte	0x37a
 2417 0a52 E3020000 		.4byte	0x2e3
 2418 0a56 02       		.byte	0x2
 2419 0a57 23       		.byte	0x23
 2420 0a58 2A       		.uleb128 0x2a
 2421 0a59 09       		.uleb128 0x9
 2422 0a5a 41525200 		.ascii	"ARR\000"
 2423 0a5e 03       		.byte	0x3
 2424 0a5f 7B03     		.2byte	0x37b
 2425 0a61 4B040000 		.4byte	0x44b
 2426 0a65 02       		.byte	0x2
 2427 0a66 23       		.byte	0x23
 2428 0a67 2C       		.uleb128 0x2c
 2429 0a68 09       		.uleb128 0x9
 2430 0a69 52435200 		.ascii	"RCR\000"
 2431 0a6d 03       		.byte	0x3
 2432 0a6e 7C03     		.2byte	0x37c
 2433 0a70 68060000 		.4byte	0x668
 2434 0a74 02       		.byte	0x2
 2435 0a75 23       		.byte	0x23
 2436 0a76 30       		.uleb128 0x30
 2437 0a77 08       		.uleb128 0x8
 2438 0a78 E7110000 		.4byte	.LASF183
 2439 0a7c 03       		.byte	0x3
ARM GAS  C:\Users\CNous\AppData\Local\Temp\ccmZfnu5.s 			page 76


 2440 0a7d 7D03     		.2byte	0x37d
 2441 0a7f E3020000 		.4byte	0x2e3
 2442 0a83 02       		.byte	0x2
 2443 0a84 23       		.byte	0x23
 2444 0a85 32       		.uleb128 0x32
 2445 0a86 08       		.uleb128 0x8
 2446 0a87 1B020000 		.4byte	.LASF184
 2447 0a8b 03       		.byte	0x3
 2448 0a8c 7E03     		.2byte	0x37e
 2449 0a8e 4B040000 		.4byte	0x44b
 2450 0a92 02       		.byte	0x2
 2451 0a93 23       		.byte	0x23
 2452 0a94 34       		.uleb128 0x34
 2453 0a95 08       		.uleb128 0x8
 2454 0a96 20020000 		.4byte	.LASF185
 2455 0a9a 03       		.byte	0x3
 2456 0a9b 7F03     		.2byte	0x37f
 2457 0a9d 4B040000 		.4byte	0x44b
 2458 0aa1 02       		.byte	0x2
 2459 0aa2 23       		.byte	0x23
 2460 0aa3 38       		.uleb128 0x38
 2461 0aa4 08       		.uleb128 0x8
 2462 0aa5 25020000 		.4byte	.LASF186
 2463 0aa9 03       		.byte	0x3
 2464 0aaa 8003     		.2byte	0x380
 2465 0aac 4B040000 		.4byte	0x44b
 2466 0ab0 02       		.byte	0x2
 2467 0ab1 23       		.byte	0x23
 2468 0ab2 3C       		.uleb128 0x3c
 2469 0ab3 08       		.uleb128 0x8
 2470 0ab4 2A020000 		.4byte	.LASF187
 2471 0ab8 03       		.byte	0x3
 2472 0ab9 8103     		.2byte	0x381
 2473 0abb 4B040000 		.4byte	0x44b
 2474 0abf 02       		.byte	0x2
 2475 0ac0 23       		.byte	0x23
 2476 0ac1 40       		.uleb128 0x40
 2477 0ac2 08       		.uleb128 0x8
 2478 0ac3 08110000 		.4byte	.LASF188
 2479 0ac7 03       		.byte	0x3
 2480 0ac8 8203     		.2byte	0x382
 2481 0aca 68060000 		.4byte	0x668
 2482 0ace 02       		.byte	0x2
 2483 0acf 23       		.byte	0x23
 2484 0ad0 44       		.uleb128 0x44
 2485 0ad1 08       		.uleb128 0x8
 2486 0ad2 F2110000 		.4byte	.LASF189
 2487 0ad6 03       		.byte	0x3
 2488 0ad7 8303     		.2byte	0x383
 2489 0ad9 E3020000 		.4byte	0x2e3
 2490 0add 02       		.byte	0x2
 2491 0ade 23       		.byte	0x23
 2492 0adf 46       		.uleb128 0x46
 2493 0ae0 09       		.uleb128 0x9
 2494 0ae1 44435200 		.ascii	"DCR\000"
 2495 0ae5 03       		.byte	0x3
 2496 0ae6 8403     		.2byte	0x384
ARM GAS  C:\Users\CNous\AppData\Local\Temp\ccmZfnu5.s 			page 77


 2497 0ae8 68060000 		.4byte	0x668
 2498 0aec 02       		.byte	0x2
 2499 0aed 23       		.byte	0x23
 2500 0aee 48       		.uleb128 0x48
 2501 0aef 08       		.uleb128 0x8
 2502 0af0 4D0D0000 		.4byte	.LASF190
 2503 0af4 03       		.byte	0x3
 2504 0af5 8503     		.2byte	0x385
 2505 0af7 E3020000 		.4byte	0x2e3
 2506 0afb 02       		.byte	0x2
 2507 0afc 23       		.byte	0x23
 2508 0afd 4A       		.uleb128 0x4a
 2509 0afe 08       		.uleb128 0x8
 2510 0aff BA010000 		.4byte	.LASF191
 2511 0b03 03       		.byte	0x3
 2512 0b04 8603     		.2byte	0x386
 2513 0b06 68060000 		.4byte	0x668
 2514 0b0a 02       		.byte	0x2
 2515 0b0b 23       		.byte	0x23
 2516 0b0c 4C       		.uleb128 0x4c
 2517 0b0d 08       		.uleb128 0x8
 2518 0b0e 1B030000 		.4byte	.LASF192
 2519 0b12 03       		.byte	0x3
 2520 0b13 8703     		.2byte	0x387
 2521 0b15 E3020000 		.4byte	0x2e3
 2522 0b19 02       		.byte	0x2
 2523 0b1a 23       		.byte	0x23
 2524 0b1b 4E       		.uleb128 0x4e
 2525 0b1c 09       		.uleb128 0x9
 2526 0b1d 4F5200   		.ascii	"OR\000"
 2527 0b20 03       		.byte	0x3
 2528 0b21 8803     		.2byte	0x388
 2529 0b23 68060000 		.4byte	0x668
 2530 0b27 02       		.byte	0x2
 2531 0b28 23       		.byte	0x23
 2532 0b29 50       		.uleb128 0x50
 2533 0b2a 08       		.uleb128 0x8
 2534 0b2b 640D0000 		.4byte	.LASF193
 2535 0b2f 03       		.byte	0x3
 2536 0b30 8903     		.2byte	0x389
 2537 0b32 E3020000 		.4byte	0x2e3
 2538 0b36 02       		.byte	0x2
 2539 0b37 23       		.byte	0x23
 2540 0b38 52       		.uleb128 0x52
 2541 0b39 00       		.byte	0
 2542 0b3a 0E       		.uleb128 0xe
 2543 0b3b D1030000 		.4byte	.LASF194
 2544 0b3f 03       		.byte	0x3
 2545 0b40 8A03     		.2byte	0x38a
 2546 0b42 16090000 		.4byte	0x916
 2547 0b46 13       		.uleb128 0x13
 2548 0b47 18       		.byte	0x18
 2549 0b48 05       		.byte	0x5
 2550 0b49 2F       		.byte	0x2f
 2551 0b4a B10B0000 		.4byte	0xbb1
 2552 0b4e 14       		.uleb128 0x14
 2553 0b4f 72100000 		.4byte	.LASF195
ARM GAS  C:\Users\CNous\AppData\Local\Temp\ccmZfnu5.s 			page 78


 2554 0b53 05       		.byte	0x5
 2555 0b54 31       		.byte	0x31
 2556 0b55 F9020000 		.4byte	0x2f9
 2557 0b59 02       		.byte	0x2
 2558 0b5a 23       		.byte	0x23
 2559 0b5b 00       		.uleb128 0
 2560 0b5c 14       		.uleb128 0x14
 2561 0b5d 00090000 		.4byte	.LASF196
 2562 0b61 05       		.byte	0x5
 2563 0b62 33       		.byte	0x33
 2564 0b63 AA060000 		.4byte	0x6aa
 2565 0b67 02       		.byte	0x2
 2566 0b68 23       		.byte	0x23
 2567 0b69 04       		.uleb128 0x4
 2568 0b6a 14       		.uleb128 0x14
 2569 0b6b 56090000 		.4byte	.LASF197
 2570 0b6f 05       		.byte	0x5
 2571 0b70 37       		.byte	0x37
 2572 0b71 AA060000 		.4byte	0x6aa
 2573 0b75 02       		.byte	0x2
 2574 0b76 23       		.byte	0x23
 2575 0b77 05       		.uleb128 0x5
 2576 0b78 14       		.uleb128 0x14
 2577 0b79 20060000 		.4byte	.LASF198
 2578 0b7d 05       		.byte	0x5
 2579 0b7e 3A       		.byte	0x3a
 2580 0b7f F9020000 		.4byte	0x2f9
 2581 0b83 02       		.byte	0x2
 2582 0b84 23       		.byte	0x23
 2583 0b85 08       		.uleb128 0x8
 2584 0b86 14       		.uleb128 0x14
 2585 0b87 9B0B0000 		.4byte	.LASF199
 2586 0b8b 05       		.byte	0x5
 2587 0b8c 3E       		.byte	0x3e
 2588 0b8d F9020000 		.4byte	0x2f9
 2589 0b91 02       		.byte	0x2
 2590 0b92 23       		.byte	0x23
 2591 0b93 0C       		.uleb128 0xc
 2592 0b94 14       		.uleb128 0x14
 2593 0b95 39060000 		.4byte	.LASF200
 2594 0b99 05       		.byte	0x5
 2595 0b9a 42       		.byte	0x42
 2596 0b9b F9020000 		.4byte	0x2f9
 2597 0b9f 02       		.byte	0x2
 2598 0ba0 23       		.byte	0x23
 2599 0ba1 10       		.uleb128 0x10
 2600 0ba2 14       		.uleb128 0x14
 2601 0ba3 71010000 		.4byte	.LASF201
 2602 0ba7 05       		.byte	0x5
 2603 0ba8 45       		.byte	0x45
 2604 0ba9 D8020000 		.4byte	0x2d8
 2605 0bad 02       		.byte	0x2
 2606 0bae 23       		.byte	0x23
 2607 0baf 14       		.uleb128 0x14
 2608 0bb0 00       		.byte	0
 2609 0bb1 06       		.uleb128 0x6
 2610 0bb2 98080000 		.4byte	.LASF202
ARM GAS  C:\Users\CNous\AppData\Local\Temp\ccmZfnu5.s 			page 79


 2611 0bb6 05       		.byte	0x5
 2612 0bb7 49       		.byte	0x49
 2613 0bb8 460B0000 		.4byte	0xb46
 2614 0bbc 13       		.uleb128 0x13
 2615 0bbd 10       		.byte	0x10
 2616 0bbe 05       		.byte	0x5
 2617 0bbf 4E       		.byte	0x4e
 2618 0bc0 FD0B0000 		.4byte	0xbfd
 2619 0bc4 14       		.uleb128 0x14
 2620 0bc5 F0100000 		.4byte	.LASF203
 2621 0bc9 05       		.byte	0x5
 2622 0bca 50       		.byte	0x50
 2623 0bcb F9020000 		.4byte	0x2f9
 2624 0bcf 02       		.byte	0x2
 2625 0bd0 23       		.byte	0x23
 2626 0bd1 00       		.uleb128 0
 2627 0bd2 14       		.uleb128 0x14
 2628 0bd3 D1120000 		.4byte	.LASF204
 2629 0bd7 05       		.byte	0x5
 2630 0bd8 53       		.byte	0x53
 2631 0bd9 F9020000 		.4byte	0x2f9
 2632 0bdd 02       		.byte	0x2
 2633 0bde 23       		.byte	0x23
 2634 0bdf 04       		.uleb128 0x4
 2635 0be0 14       		.uleb128 0x14
 2636 0be1 C20D0000 		.4byte	.LASF205
 2637 0be5 05       		.byte	0x5
 2638 0be6 56       		.byte	0x56
 2639 0be7 F9020000 		.4byte	0x2f9
 2640 0beb 02       		.byte	0x2
 2641 0bec 23       		.byte	0x23
 2642 0bed 08       		.uleb128 0x8
 2643 0bee 14       		.uleb128 0x14
 2644 0bef A40E0000 		.4byte	.LASF206
 2645 0bf3 05       		.byte	0x5
 2646 0bf4 5A       		.byte	0x5a
 2647 0bf5 F9020000 		.4byte	0x2f9
 2648 0bf9 02       		.byte	0x2
 2649 0bfa 23       		.byte	0x23
 2650 0bfb 0C       		.uleb128 0xc
 2651 0bfc 00       		.byte	0
 2652 0bfd 06       		.uleb128 0x6
 2653 0bfe 9C020000 		.4byte	.LASF207
 2654 0c02 05       		.byte	0x5
 2655 0c03 5E       		.byte	0x5e
 2656 0c04 BC0B0000 		.4byte	0xbbc
 2657 0c08 13       		.uleb128 0x13
 2658 0c09 3C       		.byte	0x3c
 2659 0c0a 06       		.byte	0x6
 2660 0c0b 30       		.byte	0x30
 2661 0c0c E30C0000 		.4byte	0xce3
 2662 0c10 14       		.uleb128 0x14
 2663 0c11 F6050000 		.4byte	.LASF208
 2664 0c15 06       		.byte	0x6
 2665 0c16 32       		.byte	0x32
 2666 0c17 F9020000 		.4byte	0x2f9
 2667 0c1b 02       		.byte	0x2
ARM GAS  C:\Users\CNous\AppData\Local\Temp\ccmZfnu5.s 			page 80


 2668 0c1c 23       		.byte	0x23
 2669 0c1d 00       		.uleb128 0
 2670 0c1e 14       		.uleb128 0x14
 2671 0c1f C7060000 		.4byte	.LASF209
 2672 0c23 06       		.byte	0x6
 2673 0c24 35       		.byte	0x35
 2674 0c25 F9020000 		.4byte	0x2f9
 2675 0c29 02       		.byte	0x2
 2676 0c2a 23       		.byte	0x23
 2677 0c2b 04       		.uleb128 0x4
 2678 0c2c 14       		.uleb128 0x14
 2679 0c2d 8B060000 		.4byte	.LASF210
 2680 0c31 06       		.byte	0x6
 2681 0c32 37       		.byte	0x37
 2682 0c33 F9020000 		.4byte	0x2f9
 2683 0c37 02       		.byte	0x2
 2684 0c38 23       		.byte	0x23
 2685 0c39 08       		.uleb128 0x8
 2686 0c3a 14       		.uleb128 0x14
 2687 0c3b B30C0000 		.4byte	.LASF211
 2688 0c3f 06       		.byte	0x6
 2689 0c40 3B       		.byte	0x3b
 2690 0c41 F9020000 		.4byte	0x2f9
 2691 0c45 02       		.byte	0x2
 2692 0c46 23       		.byte	0x23
 2693 0c47 0C       		.uleb128 0xc
 2694 0c48 14       		.uleb128 0x14
 2695 0c49 DF120000 		.4byte	.LASF212
 2696 0c4d 06       		.byte	0x6
 2697 0c4e 3F       		.byte	0x3f
 2698 0c4f F9020000 		.4byte	0x2f9
 2699 0c53 02       		.byte	0x2
 2700 0c54 23       		.byte	0x23
 2701 0c55 10       		.uleb128 0x10
 2702 0c56 14       		.uleb128 0x14
 2703 0c57 AA120000 		.4byte	.LASF213
 2704 0c5b 06       		.byte	0x6
 2705 0c5c 43       		.byte	0x43
 2706 0c5d F9020000 		.4byte	0x2f9
 2707 0c61 02       		.byte	0x2
 2708 0c62 23       		.byte	0x23
 2709 0c63 14       		.uleb128 0x14
 2710 0c64 14       		.uleb128 0x14
 2711 0c65 D5080000 		.4byte	.LASF214
 2712 0c69 06       		.byte	0x6
 2713 0c6a 46       		.byte	0x46
 2714 0c6b F9020000 		.4byte	0x2f9
 2715 0c6f 02       		.byte	0x2
 2716 0c70 23       		.byte	0x23
 2717 0c71 18       		.uleb128 0x18
 2718 0c72 14       		.uleb128 0x14
 2719 0c73 80000000 		.4byte	.LASF215
 2720 0c77 06       		.byte	0x6
 2721 0c78 49       		.byte	0x49
 2722 0c79 F9020000 		.4byte	0x2f9
 2723 0c7d 02       		.byte	0x2
 2724 0c7e 23       		.byte	0x23
ARM GAS  C:\Users\CNous\AppData\Local\Temp\ccmZfnu5.s 			page 81


 2725 0c7f 1C       		.uleb128 0x1c
 2726 0c80 14       		.uleb128 0x14
 2727 0c81 460E0000 		.4byte	.LASF216
 2728 0c85 06       		.byte	0x6
 2729 0c86 4C       		.byte	0x4c
 2730 0c87 F9020000 		.4byte	0x2f9
 2731 0c8b 02       		.byte	0x2
 2732 0c8c 23       		.byte	0x23
 2733 0c8d 20       		.uleb128 0x20
 2734 0c8e 14       		.uleb128 0x14
 2735 0c8f 47060000 		.4byte	.LASF217
 2736 0c93 06       		.byte	0x6
 2737 0c94 4F       		.byte	0x4f
 2738 0c95 F9020000 		.4byte	0x2f9
 2739 0c99 02       		.byte	0x2
 2740 0c9a 23       		.byte	0x23
 2741 0c9b 24       		.uleb128 0x24
 2742 0c9c 14       		.uleb128 0x14
 2743 0c9d 730E0000 		.4byte	.LASF218
 2744 0ca1 06       		.byte	0x6
 2745 0ca2 54       		.byte	0x54
 2746 0ca3 F9020000 		.4byte	0x2f9
 2747 0ca7 02       		.byte	0x2
 2748 0ca8 23       		.byte	0x23
 2749 0ca9 28       		.uleb128 0x28
 2750 0caa 14       		.uleb128 0x14
 2751 0cab 27110000 		.4byte	.LASF219
 2752 0caf 06       		.byte	0x6
 2753 0cb0 57       		.byte	0x57
 2754 0cb1 F9020000 		.4byte	0x2f9
 2755 0cb5 02       		.byte	0x2
 2756 0cb6 23       		.byte	0x23
 2757 0cb7 2C       		.uleb128 0x2c
 2758 0cb8 14       		.uleb128 0x14
 2759 0cb9 140B0000 		.4byte	.LASF220
 2760 0cbd 06       		.byte	0x6
 2761 0cbe 5C       		.byte	0x5c
 2762 0cbf F9020000 		.4byte	0x2f9
 2763 0cc3 02       		.byte	0x2
 2764 0cc4 23       		.byte	0x23
 2765 0cc5 30       		.uleb128 0x30
 2766 0cc6 14       		.uleb128 0x14
 2767 0cc7 E3080000 		.4byte	.LASF221
 2768 0ccb 06       		.byte	0x6
 2769 0ccc 5F       		.byte	0x5f
 2770 0ccd F9020000 		.4byte	0x2f9
 2771 0cd1 02       		.byte	0x2
 2772 0cd2 23       		.byte	0x23
 2773 0cd3 34       		.uleb128 0x34
 2774 0cd4 14       		.uleb128 0x14
 2775 0cd5 7F030000 		.4byte	.LASF222
 2776 0cd9 06       		.byte	0x6
 2777 0cda 64       		.byte	0x64
 2778 0cdb F9020000 		.4byte	0x2f9
 2779 0cdf 02       		.byte	0x2
 2780 0ce0 23       		.byte	0x23
 2781 0ce1 38       		.uleb128 0x38
ARM GAS  C:\Users\CNous\AppData\Local\Temp\ccmZfnu5.s 			page 82


 2782 0ce2 00       		.byte	0
 2783 0ce3 06       		.uleb128 0x6
 2784 0ce4 1F0F0000 		.4byte	.LASF223
 2785 0ce8 06       		.byte	0x6
 2786 0ce9 68       		.byte	0x68
 2787 0cea 080C0000 		.4byte	0xc08
 2788 0cee 15       		.uleb128 0x15
 2789 0cef 01       		.byte	0x1
 2790 0cf0 07       		.byte	0x7
 2791 0cf1 3A       		.byte	0x3a
 2792 0cf2 0F0D0000 		.4byte	0xd0f
 2793 0cf6 05       		.uleb128 0x5
 2794 0cf7 6D080000 		.4byte	.LASF224
 2795 0cfb 00       		.sleb128 0
 2796 0cfc 05       		.uleb128 0x5
 2797 0cfd 10070000 		.4byte	.LASF225
 2798 0d01 01       		.sleb128 1
 2799 0d02 05       		.uleb128 0x5
 2800 0d03 F1020000 		.4byte	.LASF226
 2801 0d07 02       		.sleb128 2
 2802 0d08 05       		.uleb128 0x5
 2803 0d09 86100000 		.4byte	.LASF227
 2804 0d0d 03       		.sleb128 3
 2805 0d0e 00       		.byte	0
 2806 0d0f 06       		.uleb128 0x6
 2807 0d10 FC0D0000 		.4byte	.LASF228
 2808 0d14 07       		.byte	0x7
 2809 0d15 3F       		.byte	0x3f
 2810 0d16 EE0C0000 		.4byte	0xcee
 2811 0d1a 15       		.uleb128 0x15
 2812 0d1b 01       		.byte	0x1
 2813 0d1c 07       		.byte	0x7
 2814 0d1d 47       		.byte	0x47
 2815 0d1e 2F0D0000 		.4byte	0xd2f
 2816 0d22 05       		.uleb128 0x5
 2817 0d23 86040000 		.4byte	.LASF229
 2818 0d27 00       		.sleb128 0
 2819 0d28 05       		.uleb128 0x5
 2820 0d29 71030000 		.4byte	.LASF230
 2821 0d2d 01       		.sleb128 1
 2822 0d2e 00       		.byte	0
 2823 0d2f 06       		.uleb128 0x6
 2824 0d30 85010000 		.4byte	.LASF231
 2825 0d34 07       		.byte	0x7
 2826 0d35 4A       		.byte	0x4a
 2827 0d36 1A0D0000 		.4byte	0xd1a
 2828 0d3a 15       		.uleb128 0x15
 2829 0d3b 01       		.byte	0x1
 2830 0d3c 07       		.byte	0x7
 2831 0d3d 52       		.byte	0x52
 2832 0d3e 5B0D0000 		.4byte	0xd5b
 2833 0d42 05       		.uleb128 0x5
 2834 0d43 BE0E0000 		.4byte	.LASF232
 2835 0d47 00       		.sleb128 0
 2836 0d48 05       		.uleb128 0x5
 2837 0d49 BF050000 		.4byte	.LASF233
 2838 0d4d 01       		.sleb128 1
ARM GAS  C:\Users\CNous\AppData\Local\Temp\ccmZfnu5.s 			page 83


 2839 0d4e 05       		.uleb128 0x5
 2840 0d4f E5050000 		.4byte	.LASF234
 2841 0d53 02       		.sleb128 2
 2842 0d54 05       		.uleb128 0x5
 2843 0d55 A8010000 		.4byte	.LASF235
 2844 0d59 03       		.sleb128 3
 2845 0d5a 00       		.byte	0
 2846 0d5b 06       		.uleb128 0x6
 2847 0d5c CE0E0000 		.4byte	.LASF236
 2848 0d60 07       		.byte	0x7
 2849 0d61 57       		.byte	0x57
 2850 0d62 3A0D0000 		.4byte	0xd3a
 2851 0d66 15       		.uleb128 0x15
 2852 0d67 01       		.byte	0x1
 2853 0d68 07       		.byte	0x7
 2854 0d69 5F       		.byte	0x5f
 2855 0d6a 810D0000 		.4byte	0xd81
 2856 0d6e 05       		.uleb128 0x5
 2857 0d6f 16010000 		.4byte	.LASF237
 2858 0d73 00       		.sleb128 0
 2859 0d74 05       		.uleb128 0x5
 2860 0d75 5E110000 		.4byte	.LASF238
 2861 0d79 01       		.sleb128 1
 2862 0d7a 05       		.uleb128 0x5
 2863 0d7b 5E020000 		.4byte	.LASF239
 2864 0d7f 02       		.sleb128 2
 2865 0d80 00       		.byte	0
 2866 0d81 06       		.uleb128 0x6
 2867 0d82 25050000 		.4byte	.LASF240
 2868 0d86 07       		.byte	0x7
 2869 0d87 63       		.byte	0x63
 2870 0d88 660D0000 		.4byte	0xd66
 2871 0d8c 13       		.uleb128 0x13
 2872 0d8d 08       		.byte	0x8
 2873 0d8e 07       		.byte	0x7
 2874 0d8f 75       		.byte	0x75
 2875 0d90 DB0D0000 		.4byte	0xddb
 2876 0d94 14       		.uleb128 0x14
 2877 0d95 F20E0000 		.4byte	.LASF241
 2878 0d99 07       		.byte	0x7
 2879 0d9a 77       		.byte	0x77
 2880 0d9b F9020000 		.4byte	0x2f9
 2881 0d9f 02       		.byte	0x2
 2882 0da0 23       		.byte	0x23
 2883 0da1 00       		.uleb128 0
 2884 0da2 14       		.uleb128 0x14
 2885 0da3 990D0000 		.4byte	.LASF242
 2886 0da7 07       		.byte	0x7
 2887 0da8 7A       		.byte	0x7a
 2888 0da9 0F0D0000 		.4byte	0xd0f
 2889 0dad 02       		.byte	0x2
 2890 0dae 23       		.byte	0x23
 2891 0daf 04       		.uleb128 0x4
 2892 0db0 14       		.uleb128 0x14
 2893 0db1 E50A0000 		.4byte	.LASF243
 2894 0db5 07       		.byte	0x7
 2895 0db6 7D       		.byte	0x7d
ARM GAS  C:\Users\CNous\AppData\Local\Temp\ccmZfnu5.s 			page 84


 2896 0db7 5B0D0000 		.4byte	0xd5b
 2897 0dbb 02       		.byte	0x2
 2898 0dbc 23       		.byte	0x23
 2899 0dbd 05       		.uleb128 0x5
 2900 0dbe 14       		.uleb128 0x14
 2901 0dbf 4B090000 		.4byte	.LASF244
 2902 0dc3 07       		.byte	0x7
 2903 0dc4 80       		.byte	0x80
 2904 0dc5 2F0D0000 		.4byte	0xd2f
 2905 0dc9 02       		.byte	0x2
 2906 0dca 23       		.byte	0x23
 2907 0dcb 06       		.uleb128 0x6
 2908 0dcc 14       		.uleb128 0x14
 2909 0dcd 150F0000 		.4byte	.LASF245
 2910 0dd1 07       		.byte	0x7
 2911 0dd2 83       		.byte	0x83
 2912 0dd3 810D0000 		.4byte	0xd81
 2913 0dd7 02       		.byte	0x2
 2914 0dd8 23       		.byte	0x23
 2915 0dd9 07       		.uleb128 0x7
 2916 0dda 00       		.byte	0
 2917 0ddb 06       		.uleb128 0x6
 2918 0ddc C0030000 		.4byte	.LASF246
 2919 0de0 07       		.byte	0x7
 2920 0de1 85       		.byte	0x85
 2921 0de2 8C0D0000 		.4byte	0xd8c
 2922 0de6 13       		.uleb128 0x13
 2923 0de7 10       		.byte	0x10
 2924 0de8 08       		.byte	0x8
 2925 0de9 2A       		.byte	0x2a
 2926 0dea 270E0000 		.4byte	0xe27
 2927 0dee 14       		.uleb128 0x14
 2928 0def 02120000 		.4byte	.LASF247
 2929 0df3 08       		.byte	0x8
 2930 0df4 2C       		.byte	0x2c
 2931 0df5 F9020000 		.4byte	0x2f9
 2932 0df9 02       		.byte	0x2
 2933 0dfa 23       		.byte	0x23
 2934 0dfb 00       		.uleb128 0
 2935 0dfc 14       		.uleb128 0x14
 2936 0dfd 07010000 		.4byte	.LASF248
 2937 0e01 08       		.byte	0x8
 2938 0e02 2D       		.byte	0x2d
 2939 0e03 F9020000 		.4byte	0x2f9
 2940 0e07 02       		.byte	0x2
 2941 0e08 23       		.byte	0x23
 2942 0e09 04       		.uleb128 0x4
 2943 0e0a 14       		.uleb128 0x14
 2944 0e0b D5050000 		.4byte	.LASF249
 2945 0e0f 08       		.byte	0x8
 2946 0e10 2E       		.byte	0x2e
 2947 0e11 F9020000 		.4byte	0x2f9
 2948 0e15 02       		.byte	0x2
 2949 0e16 23       		.byte	0x23
 2950 0e17 08       		.uleb128 0x8
 2951 0e18 14       		.uleb128 0x14
 2952 0e19 8D050000 		.4byte	.LASF250
ARM GAS  C:\Users\CNous\AppData\Local\Temp\ccmZfnu5.s 			page 85


 2953 0e1d 08       		.byte	0x8
 2954 0e1e 2F       		.byte	0x2f
 2955 0e1f F9020000 		.4byte	0x2f9
 2956 0e23 02       		.byte	0x2
 2957 0e24 23       		.byte	0x23
 2958 0e25 0C       		.uleb128 0xc
 2959 0e26 00       		.byte	0
 2960 0e27 06       		.uleb128 0x6
 2961 0e28 3D0F0000 		.4byte	.LASF251
 2962 0e2c 08       		.byte	0x8
 2963 0e2d 30       		.byte	0x30
 2964 0e2e E60D0000 		.4byte	0xde6
 2965 0e32 13       		.uleb128 0x13
 2966 0e33 0C       		.byte	0xc
 2967 0e34 09       		.byte	0x9
 2968 0e35 31       		.byte	0x31
 2969 0e36 810E0000 		.4byte	0xe81
 2970 0e3a 14       		.uleb128 0x14
 2971 0e3b 6B060000 		.4byte	.LASF252
 2972 0e3f 09       		.byte	0x9
 2973 0e40 33       		.byte	0x33
 2974 0e41 E3020000 		.4byte	0x2e3
 2975 0e45 02       		.byte	0x2
 2976 0e46 23       		.byte	0x23
 2977 0e47 00       		.uleb128 0
 2978 0e48 14       		.uleb128 0x14
 2979 0e49 D80B0000 		.4byte	.LASF253
 2980 0e4d 09       		.byte	0x9
 2981 0e4e 36       		.byte	0x36
 2982 0e4f E3020000 		.4byte	0x2e3
 2983 0e53 02       		.byte	0x2
 2984 0e54 23       		.byte	0x23
 2985 0e55 02       		.uleb128 0x2
 2986 0e56 14       		.uleb128 0x14
 2987 0e57 E4070000 		.4byte	.LASF254
 2988 0e5b 09       		.byte	0x9
 2989 0e5c 39       		.byte	0x39
 2990 0e5d F9020000 		.4byte	0x2f9
 2991 0e61 02       		.byte	0x2
 2992 0e62 23       		.byte	0x23
 2993 0e63 04       		.uleb128 0x4
 2994 0e64 14       		.uleb128 0x14
 2995 0e65 AB060000 		.4byte	.LASF255
 2996 0e69 09       		.byte	0x9
 2997 0e6a 3D       		.byte	0x3d
 2998 0e6b E3020000 		.4byte	0x2e3
 2999 0e6f 02       		.byte	0x2
 3000 0e70 23       		.byte	0x23
 3001 0e71 08       		.uleb128 0x8
 3002 0e72 14       		.uleb128 0x14
 3003 0e73 E5090000 		.4byte	.LASF256
 3004 0e77 09       		.byte	0x9
 3005 0e78 40       		.byte	0x40
 3006 0e79 D8020000 		.4byte	0x2d8
 3007 0e7d 02       		.byte	0x2
 3008 0e7e 23       		.byte	0x23
 3009 0e7f 0A       		.uleb128 0xa
ARM GAS  C:\Users\CNous\AppData\Local\Temp\ccmZfnu5.s 			page 86


 3010 0e80 00       		.byte	0
 3011 0e81 06       		.uleb128 0x6
 3012 0e82 19130000 		.4byte	.LASF257
 3013 0e86 09       		.byte	0x9
 3014 0e87 48       		.byte	0x48
 3015 0e88 320E0000 		.4byte	0xe32
 3016 0e8c 13       		.uleb128 0x13
 3017 0e8d 04       		.byte	0x4
 3018 0e8e 0A       		.byte	0xa
 3019 0e8f 30       		.byte	0x30
 3020 0e90 CD0E0000 		.4byte	0xecd
 3021 0e94 14       		.uleb128 0x14
 3022 0e95 A8080000 		.4byte	.LASF258
 3023 0e99 0A       		.byte	0xa
 3024 0e9a 32       		.byte	0x32
 3025 0e9b D8020000 		.4byte	0x2d8
 3026 0e9f 02       		.byte	0x2
 3027 0ea0 23       		.byte	0x23
 3028 0ea1 00       		.uleb128 0
 3029 0ea2 14       		.uleb128 0x14
 3030 0ea3 6B050000 		.4byte	.LASF259
 3031 0ea7 0A       		.byte	0xa
 3032 0ea8 37       		.byte	0x37
 3033 0ea9 D8020000 		.4byte	0x2d8
 3034 0ead 02       		.byte	0x2
 3035 0eae 23       		.byte	0x23
 3036 0eaf 01       		.uleb128 0x1
 3037 0eb0 14       		.uleb128 0x14
 3038 0eb1 F20B0000 		.4byte	.LASF260
 3039 0eb5 0A       		.byte	0xa
 3040 0eb6 3C       		.byte	0x3c
 3041 0eb7 D8020000 		.4byte	0x2d8
 3042 0ebb 02       		.byte	0x2
 3043 0ebc 23       		.byte	0x23
 3044 0ebd 02       		.uleb128 0x2
 3045 0ebe 14       		.uleb128 0x14
 3046 0ebf 6D020000 		.4byte	.LASF261
 3047 0ec3 0A       		.byte	0xa
 3048 0ec4 41       		.byte	0x41
 3049 0ec5 AA060000 		.4byte	0x6aa
 3050 0ec9 02       		.byte	0x2
 3051 0eca 23       		.byte	0x23
 3052 0ecb 03       		.uleb128 0x3
 3053 0ecc 00       		.byte	0
 3054 0ecd 06       		.uleb128 0x6
 3055 0ece A6110000 		.4byte	.LASF262
 3056 0ed2 0A       		.byte	0xa
 3057 0ed3 44       		.byte	0x44
 3058 0ed4 8C0E0000 		.4byte	0xe8c
 3059 0ed8 15       		.uleb128 0x15
 3060 0ed9 01       		.byte	0x1
 3061 0eda 0B       		.byte	0xb
 3062 0edb 33       		.byte	0x33
 3063 0edc F90E0000 		.4byte	0xef9
 3064 0ee0 05       		.uleb128 0x5
 3065 0ee1 480B0000 		.4byte	.LASF263
 3066 0ee5 00       		.sleb128 0
ARM GAS  C:\Users\CNous\AppData\Local\Temp\ccmZfnu5.s 			page 87


 3067 0ee6 05       		.uleb128 0x5
 3068 0ee7 430B0000 		.4byte	.LASF264
 3069 0eeb 01       		.sleb128 1
 3070 0eec 05       		.uleb128 0x5
 3071 0eed 59110000 		.4byte	.LASF265
 3072 0ef1 02       		.sleb128 2
 3073 0ef2 05       		.uleb128 0x5
 3074 0ef3 5F0B0000 		.4byte	.LASF266
 3075 0ef7 03       		.sleb128 3
 3076 0ef8 00       		.byte	0
 3077 0ef9 06       		.uleb128 0x6
 3078 0efa 4F0F0000 		.4byte	.LASF267
 3079 0efe 0B       		.byte	0xb
 3080 0eff 38       		.byte	0x38
 3081 0f00 D80E0000 		.4byte	0xed8
 3082 0f04 15       		.uleb128 0x15
 3083 0f05 01       		.byte	0x1
 3084 0f06 0B       		.byte	0xb
 3085 0f07 3B       		.byte	0x3b
 3086 0f08 130F0000 		.4byte	0xf13
 3087 0f0c 05       		.uleb128 0x5
 3088 0f0d 170C0000 		.4byte	.LASF268
 3089 0f11 00       		.sleb128 0
 3090 0f12 00       		.byte	0
 3091 0f13 06       		.uleb128 0x6
 3092 0f14 B1030000 		.4byte	.LASF269
 3093 0f18 0B       		.byte	0xb
 3094 0f19 3D       		.byte	0x3d
 3095 0f1a 040F0000 		.4byte	0xf04
 3096 0f1e 15       		.uleb128 0x15
 3097 0f1f 01       		.byte	0x1
 3098 0f20 0B       		.byte	0xb
 3099 0f21 40       		.byte	0x40
 3100 0f22 330F0000 		.4byte	0xf33
 3101 0f26 05       		.uleb128 0x5
 3102 0f27 A20A0000 		.4byte	.LASF270
 3103 0f2b 00       		.sleb128 0
 3104 0f2c 05       		.uleb128 0x5
 3105 0f2d 070A0000 		.4byte	.LASF271
 3106 0f31 01       		.sleb128 1
 3107 0f32 00       		.byte	0
 3108 0f33 06       		.uleb128 0x6
 3109 0f34 6F0C0000 		.4byte	.LASF272
 3110 0f38 0B       		.byte	0xb
 3111 0f39 43       		.byte	0x43
 3112 0f3a 1E0F0000 		.4byte	0xf1e
 3113 0f3e 16       		.uleb128 0x16
 3114 0f3f 3A110000 		.4byte	.LASF377
 3115 0f43 02       		.byte	0x2
 3116 0f44 8404     		.2byte	0x484
 3117 0f46 01       		.byte	0x1
 3118 0f47 03       		.byte	0x3
 3119 0f48 650F0000 		.4byte	0xf65
 3120 0f4c 17       		.uleb128 0x17
 3121 0f4d FE020000 		.4byte	.LASF273
 3122 0f51 02       		.byte	0x2
 3123 0f52 8404     		.2byte	0x484
ARM GAS  C:\Users\CNous\AppData\Local\Temp\ccmZfnu5.s 			page 88


 3124 0f54 CD020000 		.4byte	0x2cd
 3125 0f58 17       		.uleb128 0x17
 3126 0f59 8F0F0000 		.4byte	.LASF274
 3127 0f5d 02       		.byte	0x2
 3128 0f5e 8404     		.2byte	0x484
 3129 0f60 F9020000 		.4byte	0x2f9
 3130 0f64 00       		.byte	0
 3131 0f65 18       		.uleb128 0x18
 3132 0f66 130E0000 		.4byte	.LASF378
 3133 0f6a 02       		.byte	0x2
 3134 0f6b 0105     		.2byte	0x501
 3135 0f6d 01       		.byte	0x1
 3136 0f6e F9020000 		.4byte	0x2f9
 3137 0f72 03       		.byte	0x3
 3138 0f73 840F0000 		.4byte	0xf84
 3139 0f77 17       		.uleb128 0x17
 3140 0f78 27090000 		.4byte	.LASF275
 3141 0f7c 02       		.byte	0x2
 3142 0f7d 0105     		.2byte	0x501
 3143 0f7f F9020000 		.4byte	0x2f9
 3144 0f83 00       		.byte	0
 3145 0f84 19       		.uleb128 0x19
 3146 0f85 01       		.byte	0x1
 3147 0f86 27010000 		.4byte	.LASF276
 3148 0f8a 01       		.byte	0x1
 3149 0f8b C9       		.byte	0xc9
 3150 0f8c 01       		.byte	0x1
 3151 0f8d 00000000 		.4byte	.LFB111
 3152 0f91 18000000 		.4byte	.LFE111
 3153 0f95 00000000 		.4byte	.LLST0
 3154 0f99 01       		.byte	0x1
 3155 0f9a AC0F0000 		.4byte	0xfac
 3156 0f9e 1A       		.uleb128 0x1a
 3157 0f9f F60D0000 		.4byte	.LASF278
 3158 0fa3 01       		.byte	0x1
 3159 0fa4 C9       		.byte	0xc9
 3160 0fa5 4B040000 		.4byte	0x44b
 3161 0fa9 01       		.byte	0x1
 3162 0faa 50       		.byte	0x50
 3163 0fab 00       		.byte	0
 3164 0fac 1B       		.uleb128 0x1b
 3165 0fad 01       		.byte	0x1
 3166 0fae C9020000 		.4byte	.LASF379
 3167 0fb2 01       		.byte	0x1
 3168 0fb3 D4       		.byte	0xd4
 3169 0fb4 01       		.byte	0x1
 3170 0fb5 00000000 		.4byte	.LFB112
 3171 0fb9 14000000 		.4byte	.LFE112
 3172 0fbd 02       		.byte	0x2
 3173 0fbe 7D       		.byte	0x7d
 3174 0fbf 00       		.sleb128 0
 3175 0fc0 01       		.byte	0x1
 3176 0fc1 1C       		.uleb128 0x1c
 3177 0fc2 01       		.byte	0x1
 3178 0fc3 6B070000 		.4byte	.LASF282
 3179 0fc7 01       		.byte	0x1
 3180 0fc8 E2       		.byte	0xe2
ARM GAS  C:\Users\CNous\AppData\Local\Temp\ccmZfnu5.s 			page 89


 3181 0fc9 01       		.byte	0x1
 3182 0fca F9020000 		.4byte	0x2f9
 3183 0fce 00000000 		.4byte	.LFB113
 3184 0fd2 04000000 		.4byte	.LFE113
 3185 0fd6 02       		.byte	0x2
 3186 0fd7 7D       		.byte	0x7d
 3187 0fd8 00       		.sleb128 0
 3188 0fd9 01       		.byte	0x1
 3189 0fda 1D       		.uleb128 0x1d
 3190 0fdb 01       		.byte	0x1
 3191 0fdc E6060000 		.4byte	.LASF277
 3192 0fe0 01       		.byte	0x1
 3193 0fe1 ED       		.byte	0xed
 3194 0fe2 01       		.byte	0x1
 3195 0fe3 00000000 		.4byte	.LFB114
 3196 0fe7 08000000 		.4byte	.LFE114
 3197 0feb 02       		.byte	0x2
 3198 0fec 7D       		.byte	0x7d
 3199 0fed 00       		.sleb128 0
 3200 0fee 01       		.byte	0x1
 3201 0fef 28100000 		.4byte	0x1028
 3202 0ff3 1E       		.uleb128 0x1e
 3203 0ff4 DE060000 		.4byte	.LASF279
 3204 0ff8 01       		.byte	0x1
 3205 0ff9 ED       		.byte	0xed
 3206 0ffa F9020000 		.4byte	0x2f9
 3207 0ffe 20000000 		.4byte	.LLST1
 3208 1002 1E       		.uleb128 0x1e
 3209 1003 6C030000 		.4byte	.LASF280
 3210 1007 01       		.byte	0x1
 3211 1008 ED       		.byte	0xed
 3212 1009 F9020000 		.4byte	0x2f9
 3213 100d 41000000 		.4byte	.LLST2
 3214 1011 1F       		.uleb128 0x1f
 3215 1012 08000000 		.4byte	.LVL4
 3216 1016 01       		.byte	0x1
 3217 1017 341A0000 		.4byte	0x1a34
 3218 101b 20       		.uleb128 0x20
 3219 101c 01       		.byte	0x1
 3220 101d 51       		.byte	0x51
 3221 101e 02       		.byte	0x2
 3222 101f 08       		.byte	0x8
 3223 1020 A0       		.byte	0xa0
 3224 1021 20       		.uleb128 0x20
 3225 1022 01       		.byte	0x1
 3226 1023 50       		.byte	0x50
 3227 1024 01       		.byte	0x1
 3228 1025 30       		.byte	0x30
 3229 1026 00       		.byte	0
 3230 1027 00       		.byte	0
 3231 1028 21       		.uleb128 0x21
 3232 1029 01       		.byte	0x1
 3233 102a 93100000 		.4byte	.LASF281
 3234 102e 01       		.byte	0x1
 3235 102f 0201     		.2byte	0x102
 3236 1031 01       		.byte	0x1
 3237 1032 00000000 		.4byte	.LFB115
ARM GAS  C:\Users\CNous\AppData\Local\Temp\ccmZfnu5.s 			page 90


 3238 1036 0A000000 		.4byte	.LFE115
 3239 103a 02       		.byte	0x2
 3240 103b 7D       		.byte	0x7d
 3241 103c 00       		.sleb128 0
 3242 103d 01       		.byte	0x1
 3243 103e 7B100000 		.4byte	0x107b
 3244 1042 22       		.uleb128 0x22
 3245 1043 DE060000 		.4byte	.LASF279
 3246 1047 01       		.byte	0x1
 3247 1048 0201     		.2byte	0x102
 3248 104a F9020000 		.4byte	0x2f9
 3249 104e 62000000 		.4byte	.LLST3
 3250 1052 22       		.uleb128 0x22
 3251 1053 6C030000 		.4byte	.LASF280
 3252 1057 01       		.byte	0x1
 3253 1058 0201     		.2byte	0x102
 3254 105a F9020000 		.4byte	0x2f9
 3255 105e 83000000 		.4byte	.LLST4
 3256 1062 1F       		.uleb128 0x1f
 3257 1063 0A000000 		.4byte	.LVL8
 3258 1067 01       		.byte	0x1
 3259 1068 341A0000 		.4byte	0x1a34
 3260 106c 20       		.uleb128 0x20
 3261 106d 01       		.byte	0x1
 3262 106e 51       		.byte	0x51
 3263 106f 02       		.byte	0x2
 3264 1070 08       		.byte	0x8
 3265 1071 A0       		.byte	0xa0
 3266 1072 20       		.uleb128 0x20
 3267 1073 01       		.byte	0x1
 3268 1074 50       		.byte	0x50
 3269 1075 03       		.byte	0x3
 3270 1076 0A       		.byte	0xa
 3271 1077 4001     		.2byte	0x140
 3272 1079 00       		.byte	0
 3273 107a 00       		.byte	0
 3274 107b 23       		.uleb128 0x23
 3275 107c 01       		.byte	0x1
 3276 107d CC100000 		.4byte	.LASF283
 3277 1081 01       		.byte	0x1
 3278 1082 1101     		.2byte	0x111
 3279 1084 01       		.byte	0x1
 3280 1085 E3020000 		.4byte	0x2e3
 3281 1089 00000000 		.4byte	.LFB116
 3282 108d 04000000 		.4byte	.LFE116
 3283 1091 02       		.byte	0x2
 3284 1092 7D       		.byte	0x7d
 3285 1093 00       		.sleb128 0
 3286 1094 01       		.byte	0x1
 3287 1095 24       		.uleb128 0x24
 3288 1096 01       		.byte	0x1
 3289 1097 EE120000 		.4byte	.LASF294
 3290 109b 01       		.byte	0x1
 3291 109c 1B01     		.2byte	0x11b
 3292 109e 01       		.byte	0x1
 3293 109f 84000000 		.4byte	0x84
 3294 10a3 00000000 		.4byte	.LFB117
ARM GAS  C:\Users\CNous\AppData\Local\Temp\ccmZfnu5.s 			page 91


 3295 10a7 2C000000 		.4byte	.LFE117
 3296 10ab A4000000 		.4byte	.LLST5
 3297 10af 01       		.byte	0x1
 3298 10b0 E1100000 		.4byte	0x10e1
 3299 10b4 25       		.uleb128 0x25
 3300 10b5 E9100000 		.4byte	.LASF285
 3301 10b9 01       		.byte	0x1
 3302 10ba 1D01     		.2byte	0x11d
 3303 10bc 84000000 		.4byte	0x84
 3304 10c0 C4000000 		.4byte	.LLST6
 3305 10c4 26       		.uleb128 0x26
 3306 10c5 08000000 		.4byte	.LVL10
 3307 10c9 4D1A0000 		.4byte	0x1a4d
 3308 10cd D7100000 		.4byte	0x10d7
 3309 10d1 20       		.uleb128 0x20
 3310 10d2 01       		.byte	0x1
 3311 10d3 50       		.byte	0x50
 3312 10d4 01       		.byte	0x1
 3313 10d5 31       		.byte	0x31
 3314 10d6 00       		.byte	0
 3315 10d7 27       		.uleb128 0x27
 3316 10d8 16000000 		.4byte	.LVL13
 3317 10dc 651A0000 		.4byte	0x1a65
 3318 10e0 00       		.byte	0
 3319 10e1 28       		.uleb128 0x28
 3320 10e2 01       		.byte	0x1
 3321 10e3 380B0000 		.4byte	.LASF284
 3322 10e7 01       		.byte	0x1
 3323 10e8 2C01     		.2byte	0x12c
 3324 10ea 01       		.byte	0x1
 3325 10eb 00000000 		.4byte	.LFB118
 3326 10ef 9A010000 		.4byte	.LFE118
 3327 10f3 04010000 		.4byte	.LLST7
 3328 10f7 01       		.byte	0x1
 3329 10f8 D6130000 		.4byte	0x13d6
 3330 10fc 29       		.uleb128 0x29
 3331 10fd A6000000 		.4byte	.LASF286
 3332 1101 01       		.byte	0x1
 3333 1102 2E01     		.2byte	0x12e
 3334 1104 B10B0000 		.4byte	0xbb1
 3335 1108 03       		.byte	0x3
 3336 1109 91       		.byte	0x91
 3337 110a 8C7F     		.sleb128 -116
 3338 110c 29       		.uleb128 0x29
 3339 110d C8000000 		.4byte	.LASF287
 3340 1111 01       		.byte	0x1
 3341 1112 2F01     		.2byte	0x12f
 3342 1114 FD0B0000 		.4byte	0xbfd
 3343 1118 03       		.byte	0x3
 3344 1119 91       		.byte	0x91
 3345 111a FC7E     		.sleb128 -132
 3346 111c 29       		.uleb128 0x29
 3347 111d 73120000 		.4byte	.LASF288
 3348 1121 01       		.byte	0x1
 3349 1122 3001     		.2byte	0x130
 3350 1124 E30C0000 		.4byte	0xce3
 3351 1128 03       		.byte	0x3
ARM GAS  C:\Users\CNous\AppData\Local\Temp\ccmZfnu5.s 			page 92


 3352 1129 91       		.byte	0x91
 3353 112a A47F     		.sleb128 -92
 3354 112c 29       		.uleb128 0x29
 3355 112d 56060000 		.4byte	.LASF289
 3356 1131 01       		.byte	0x1
 3357 1132 3101     		.2byte	0x131
 3358 1134 DB0D0000 		.4byte	0xddb
 3359 1138 03       		.byte	0x3
 3360 1139 91       		.byte	0x91
 3361 113a E47E     		.sleb128 -156
 3362 113c 29       		.uleb128 0x29
 3363 113d 06100000 		.4byte	.LASF290
 3364 1141 01       		.byte	0x1
 3365 1142 3201     		.2byte	0x132
 3366 1144 DB0D0000 		.4byte	0xddb
 3367 1148 03       		.byte	0x3
 3368 1149 91       		.byte	0x91
 3369 114a EC7E     		.sleb128 -148
 3370 114c 29       		.uleb128 0x29
 3371 114d E0000000 		.4byte	.LASF291
 3372 1151 01       		.byte	0x1
 3373 1152 3301     		.2byte	0x133
 3374 1154 DB0D0000 		.4byte	0xddb
 3375 1158 03       		.byte	0x3
 3376 1159 91       		.byte	0x91
 3377 115a F47E     		.sleb128 -140
 3378 115c 27       		.uleb128 0x27
 3379 115d 0A000000 		.4byte	.LVL15
 3380 1161 731A0000 		.4byte	0x1a73
 3381 1165 26       		.uleb128 0x26
 3382 1166 16000000 		.4byte	.LVL16
 3383 116a 7E1A0000 		.4byte	0x1a7e
 3384 116e 78110000 		.4byte	0x1178
 3385 1172 20       		.uleb128 0x20
 3386 1173 01       		.byte	0x1
 3387 1174 51       		.byte	0x51
 3388 1175 01       		.byte	0x1
 3389 1176 31       		.byte	0x31
 3390 1177 00       		.byte	0
 3391 1178 26       		.uleb128 0x26
 3392 1179 20000000 		.4byte	.LVL17
 3393 117d 981A0000 		.4byte	0x1a98
 3394 1181 92110000 		.4byte	0x1192
 3395 1185 20       		.uleb128 0x20
 3396 1186 01       		.byte	0x1
 3397 1187 51       		.byte	0x51
 3398 1188 01       		.byte	0x1
 3399 1189 31       		.byte	0x31
 3400 118a 20       		.uleb128 0x20
 3401 118b 01       		.byte	0x1
 3402 118c 50       		.byte	0x50
 3403 118d 03       		.byte	0x3
 3404 118e 0A       		.byte	0xa
 3405 118f 0001     		.2byte	0x100
 3406 1191 00       		.byte	0
 3407 1192 26       		.uleb128 0x26
 3408 1193 7C000000 		.4byte	.LVL18
ARM GAS  C:\Users\CNous\AppData\Local\Temp\ccmZfnu5.s 			page 93


 3409 1197 B21A0000 		.4byte	0x1ab2
 3410 119b AD110000 		.4byte	0x11ad
 3411 119f 20       		.uleb128 0x20
 3412 11a0 01       		.byte	0x1
 3413 11a1 51       		.byte	0x51
 3414 11a2 03       		.byte	0x3
 3415 11a3 91       		.byte	0x91
 3416 11a4 A47F     		.sleb128 -92
 3417 11a6 20       		.uleb128 0x20
 3418 11a7 01       		.byte	0x1
 3419 11a8 50       		.byte	0x50
 3420 11a9 02       		.byte	0x2
 3421 11aa 75       		.byte	0x75
 3422 11ab 00       		.sleb128 0
 3423 11ac 00       		.byte	0
 3424 11ad 26       		.uleb128 0x26
 3425 11ae 84000000 		.4byte	.LVL19
 3426 11b2 D81A0000 		.4byte	0x1ad8
 3427 11b6 C7110000 		.4byte	0x11c7
 3428 11ba 20       		.uleb128 0x20
 3429 11bb 01       		.byte	0x1
 3430 11bc 51       		.byte	0x51
 3431 11bd 02       		.byte	0x2
 3432 11be 74       		.byte	0x74
 3433 11bf 00       		.sleb128 0
 3434 11c0 20       		.uleb128 0x20
 3435 11c1 01       		.byte	0x1
 3436 11c2 50       		.byte	0x50
 3437 11c3 02       		.byte	0x2
 3438 11c4 75       		.byte	0x75
 3439 11c5 00       		.sleb128 0
 3440 11c6 00       		.byte	0
 3441 11c7 26       		.uleb128 0x26
 3442 11c8 A2000000 		.4byte	.LVL20
 3443 11cc F21A0000 		.4byte	0x1af2
 3444 11d0 DC110000 		.4byte	0x11dc
 3445 11d4 20       		.uleb128 0x20
 3446 11d5 01       		.byte	0x1
 3447 11d6 51       		.byte	0x51
 3448 11d7 03       		.byte	0x3
 3449 11d8 91       		.byte	0x91
 3450 11d9 E47E     		.sleb128 -156
 3451 11db 00       		.byte	0
 3452 11dc 26       		.uleb128 0x26
 3453 11dd BA000000 		.4byte	.LVL21
 3454 11e1 F21A0000 		.4byte	0x1af2
 3455 11e5 F1110000 		.4byte	0x11f1
 3456 11e9 20       		.uleb128 0x20
 3457 11ea 01       		.byte	0x1
 3458 11eb 51       		.byte	0x51
 3459 11ec 03       		.byte	0x3
 3460 11ed 91       		.byte	0x91
 3461 11ee EC7E     		.sleb128 -148
 3462 11f0 00       		.byte	0
 3463 11f1 26       		.uleb128 0x26
 3464 11f2 DC000000 		.4byte	.LVL22
 3465 11f6 F21A0000 		.4byte	0x1af2
ARM GAS  C:\Users\CNous\AppData\Local\Temp\ccmZfnu5.s 			page 94


 3466 11fa 06120000 		.4byte	0x1206
 3467 11fe 20       		.uleb128 0x20
 3468 11ff 01       		.byte	0x1
 3469 1200 51       		.byte	0x51
 3470 1201 03       		.byte	0x3
 3471 1202 91       		.byte	0x91
 3472 1203 F47E     		.sleb128 -140
 3473 1205 00       		.byte	0
 3474 1206 26       		.uleb128 0x26
 3475 1207 EE000000 		.4byte	.LVL23
 3476 120b 181B0000 		.4byte	0x1b18
 3477 120f 1B120000 		.4byte	0x121b
 3478 1213 20       		.uleb128 0x20
 3479 1214 01       		.byte	0x1
 3480 1215 50       		.byte	0x50
 3481 1216 03       		.byte	0x3
 3482 1217 91       		.byte	0x91
 3483 1218 FC7E     		.sleb128 -132
 3484 121a 00       		.byte	0
 3485 121b 26       		.uleb128 0x26
 3486 121c 0E010000 		.4byte	.LVL24
 3487 1220 331B0000 		.4byte	0x1b33
 3488 1224 36120000 		.4byte	0x1236
 3489 1228 20       		.uleb128 0x20
 3490 1229 01       		.byte	0x1
 3491 122a 51       		.byte	0x51
 3492 122b 03       		.byte	0x3
 3493 122c 91       		.byte	0x91
 3494 122d 8C7F     		.sleb128 -116
 3495 122f 20       		.uleb128 0x20
 3496 1230 01       		.byte	0x1
 3497 1231 50       		.byte	0x50
 3498 1232 02       		.byte	0x2
 3499 1233 75       		.byte	0x75
 3500 1234 00       		.sleb128 0
 3501 1235 00       		.byte	0
 3502 1236 26       		.uleb128 0x26
 3503 1237 1A010000 		.4byte	.LVL25
 3504 123b 591B0000 		.4byte	0x1b59
 3505 123f 5C120000 		.4byte	0x125c
 3506 1243 20       		.uleb128 0x20
 3507 1244 01       		.byte	0x1
 3508 1245 53       		.byte	0x53
 3509 1246 02       		.byte	0x2
 3510 1247 74       		.byte	0x74
 3511 1248 00       		.sleb128 0
 3512 1249 20       		.uleb128 0x20
 3513 124a 01       		.byte	0x1
 3514 124b 52       		.byte	0x52
 3515 124c 02       		.byte	0x2
 3516 124d 74       		.byte	0x74
 3517 124e 00       		.sleb128 0
 3518 124f 20       		.uleb128 0x20
 3519 1250 01       		.byte	0x1
 3520 1251 51       		.byte	0x51
 3521 1252 02       		.byte	0x2
 3522 1253 74       		.byte	0x74
ARM GAS  C:\Users\CNous\AppData\Local\Temp\ccmZfnu5.s 			page 95


 3523 1254 00       		.sleb128 0
 3524 1255 20       		.uleb128 0x20
 3525 1256 01       		.byte	0x1
 3526 1257 50       		.byte	0x50
 3527 1258 02       		.byte	0x2
 3528 1259 75       		.byte	0x75
 3529 125a 00       		.sleb128 0
 3530 125b 00       		.byte	0
 3531 125c 26       		.uleb128 0x26
 3532 125d 26010000 		.4byte	.LVL26
 3533 1261 591B0000 		.4byte	0x1b59
 3534 1265 80120000 		.4byte	0x1280
 3535 1269 20       		.uleb128 0x20
 3536 126a 01       		.byte	0x1
 3537 126b 53       		.byte	0x53
 3538 126c 02       		.byte	0x2
 3539 126d 74       		.byte	0x74
 3540 126e 00       		.sleb128 0
 3541 126f 20       		.uleb128 0x20
 3542 1270 01       		.byte	0x1
 3543 1271 52       		.byte	0x52
 3544 1272 01       		.byte	0x1
 3545 1273 32       		.byte	0x32
 3546 1274 20       		.uleb128 0x20
 3547 1275 01       		.byte	0x1
 3548 1276 51       		.byte	0x51
 3549 1277 01       		.byte	0x1
 3550 1278 32       		.byte	0x32
 3551 1279 20       		.uleb128 0x20
 3552 127a 01       		.byte	0x1
 3553 127b 50       		.byte	0x50
 3554 127c 02       		.byte	0x2
 3555 127d 75       		.byte	0x75
 3556 127e 00       		.sleb128 0
 3557 127f 00       		.byte	0
 3558 1280 26       		.uleb128 0x26
 3559 1281 32010000 		.4byte	.LVL27
 3560 1285 591B0000 		.4byte	0x1b59
 3561 1289 A6120000 		.4byte	0x12a6
 3562 128d 20       		.uleb128 0x20
 3563 128e 01       		.byte	0x1
 3564 128f 53       		.byte	0x53
 3565 1290 02       		.byte	0x2
 3566 1291 74       		.byte	0x74
 3567 1292 00       		.sleb128 0
 3568 1293 20       		.uleb128 0x20
 3569 1294 01       		.byte	0x1
 3570 1295 52       		.byte	0x52
 3571 1296 02       		.byte	0x2
 3572 1297 77       		.byte	0x77
 3573 1298 00       		.sleb128 0
 3574 1299 20       		.uleb128 0x20
 3575 129a 01       		.byte	0x1
 3576 129b 51       		.byte	0x51
 3577 129c 02       		.byte	0x2
 3578 129d 77       		.byte	0x77
 3579 129e 00       		.sleb128 0
ARM GAS  C:\Users\CNous\AppData\Local\Temp\ccmZfnu5.s 			page 96


 3580 129f 20       		.uleb128 0x20
 3581 12a0 01       		.byte	0x1
 3582 12a1 50       		.byte	0x50
 3583 12a2 02       		.byte	0x2
 3584 12a3 75       		.byte	0x75
 3585 12a4 00       		.sleb128 0
 3586 12a5 00       		.byte	0
 3587 12a6 26       		.uleb128 0x26
 3588 12a7 3E010000 		.4byte	.LVL28
 3589 12ab 591B0000 		.4byte	0x1b59
 3590 12af CB120000 		.4byte	0x12cb
 3591 12b3 20       		.uleb128 0x20
 3592 12b4 01       		.byte	0x1
 3593 12b5 53       		.byte	0x53
 3594 12b6 02       		.byte	0x2
 3595 12b7 74       		.byte	0x74
 3596 12b8 00       		.sleb128 0
 3597 12b9 20       		.uleb128 0x20
 3598 12ba 01       		.byte	0x1
 3599 12bb 52       		.byte	0x52
 3600 12bc 01       		.byte	0x1
 3601 12bd 34       		.byte	0x34
 3602 12be 20       		.uleb128 0x20
 3603 12bf 01       		.byte	0x1
 3604 12c0 51       		.byte	0x51
 3605 12c1 02       		.byte	0x2
 3606 12c2 78       		.byte	0x78
 3607 12c3 00       		.sleb128 0
 3608 12c4 20       		.uleb128 0x20
 3609 12c5 01       		.byte	0x1
 3610 12c6 50       		.byte	0x50
 3611 12c7 02       		.byte	0x2
 3612 12c8 75       		.byte	0x75
 3613 12c9 00       		.sleb128 0
 3614 12ca 00       		.byte	0
 3615 12cb 26       		.uleb128 0x26
 3616 12cc 4A010000 		.4byte	.LVL29
 3617 12d0 591B0000 		.4byte	0x1b59
 3618 12d4 EF120000 		.4byte	0x12ef
 3619 12d8 20       		.uleb128 0x20
 3620 12d9 01       		.byte	0x1
 3621 12da 53       		.byte	0x53
 3622 12db 02       		.byte	0x2
 3623 12dc 74       		.byte	0x74
 3624 12dd 00       		.sleb128 0
 3625 12de 20       		.uleb128 0x20
 3626 12df 01       		.byte	0x1
 3627 12e0 52       		.byte	0x52
 3628 12e1 01       		.byte	0x1
 3629 12e2 35       		.byte	0x35
 3630 12e3 20       		.uleb128 0x20
 3631 12e4 01       		.byte	0x1
 3632 12e5 51       		.byte	0x51
 3633 12e6 01       		.byte	0x1
 3634 12e7 39       		.byte	0x39
 3635 12e8 20       		.uleb128 0x20
 3636 12e9 01       		.byte	0x1
ARM GAS  C:\Users\CNous\AppData\Local\Temp\ccmZfnu5.s 			page 97


 3637 12ea 50       		.byte	0x50
 3638 12eb 02       		.byte	0x2
 3639 12ec 75       		.byte	0x75
 3640 12ed 00       		.sleb128 0
 3641 12ee 00       		.byte	0
 3642 12ef 26       		.uleb128 0x26
 3643 12f0 56010000 		.4byte	.LVL30
 3644 12f4 591B0000 		.4byte	0x1b59
 3645 12f8 13130000 		.4byte	0x1313
 3646 12fc 20       		.uleb128 0x20
 3647 12fd 01       		.byte	0x1
 3648 12fe 53       		.byte	0x53
 3649 12ff 02       		.byte	0x2
 3650 1300 74       		.byte	0x74
 3651 1301 00       		.sleb128 0
 3652 1302 20       		.uleb128 0x20
 3653 1303 01       		.byte	0x1
 3654 1304 52       		.byte	0x52
 3655 1305 01       		.byte	0x1
 3656 1306 36       		.byte	0x36
 3657 1307 20       		.uleb128 0x20
 3658 1308 01       		.byte	0x1
 3659 1309 51       		.byte	0x51
 3660 130a 01       		.byte	0x1
 3661 130b 3B       		.byte	0x3b
 3662 130c 20       		.uleb128 0x20
 3663 130d 01       		.byte	0x1
 3664 130e 50       		.byte	0x50
 3665 130f 02       		.byte	0x2
 3666 1310 75       		.byte	0x75
 3667 1311 00       		.sleb128 0
 3668 1312 00       		.byte	0
 3669 1313 26       		.uleb128 0x26
 3670 1314 62010000 		.4byte	.LVL31
 3671 1318 591B0000 		.4byte	0x1b59
 3672 131c 37130000 		.4byte	0x1337
 3673 1320 20       		.uleb128 0x20
 3674 1321 01       		.byte	0x1
 3675 1322 53       		.byte	0x53
 3676 1323 02       		.byte	0x2
 3677 1324 74       		.byte	0x74
 3678 1325 00       		.sleb128 0
 3679 1326 20       		.uleb128 0x20
 3680 1327 01       		.byte	0x1
 3681 1328 52       		.byte	0x52
 3682 1329 01       		.byte	0x1
 3683 132a 37       		.byte	0x37
 3684 132b 20       		.uleb128 0x20
 3685 132c 01       		.byte	0x1
 3686 132d 51       		.byte	0x51
 3687 132e 01       		.byte	0x1
 3688 132f 3C       		.byte	0x3c
 3689 1330 20       		.uleb128 0x20
 3690 1331 01       		.byte	0x1
 3691 1332 50       		.byte	0x50
 3692 1333 02       		.byte	0x2
 3693 1334 75       		.byte	0x75
ARM GAS  C:\Users\CNous\AppData\Local\Temp\ccmZfnu5.s 			page 98


 3694 1335 00       		.sleb128 0
 3695 1336 00       		.byte	0
 3696 1337 26       		.uleb128 0x26
 3697 1338 6E010000 		.4byte	.LVL32
 3698 133c 591B0000 		.4byte	0x1b59
 3699 1340 5D130000 		.4byte	0x135d
 3700 1344 20       		.uleb128 0x20
 3701 1345 01       		.byte	0x1
 3702 1346 53       		.byte	0x53
 3703 1347 02       		.byte	0x2
 3704 1348 74       		.byte	0x74
 3705 1349 00       		.sleb128 0
 3706 134a 20       		.uleb128 0x20
 3707 134b 01       		.byte	0x1
 3708 134c 52       		.byte	0x52
 3709 134d 02       		.byte	0x2
 3710 134e 78       		.byte	0x78
 3711 134f 00       		.sleb128 0
 3712 1350 20       		.uleb128 0x20
 3713 1351 01       		.byte	0x1
 3714 1352 51       		.byte	0x51
 3715 1353 02       		.byte	0x2
 3716 1354 79       		.byte	0x79
 3717 1355 00       		.sleb128 0
 3718 1356 20       		.uleb128 0x20
 3719 1357 01       		.byte	0x1
 3720 1358 50       		.byte	0x50
 3721 1359 02       		.byte	0x2
 3722 135a 75       		.byte	0x75
 3723 135b 00       		.sleb128 0
 3724 135c 00       		.byte	0
 3725 135d 26       		.uleb128 0x26
 3726 135e 76010000 		.4byte	.LVL33
 3727 1362 7D1B0000 		.4byte	0x1b7d
 3728 1366 77130000 		.4byte	0x1377
 3729 136a 20       		.uleb128 0x20
 3730 136b 01       		.byte	0x1
 3731 136c 51       		.byte	0x51
 3732 136d 02       		.byte	0x2
 3733 136e 74       		.byte	0x74
 3734 136f 00       		.sleb128 0
 3735 1370 20       		.uleb128 0x20
 3736 1371 01       		.byte	0x1
 3737 1372 50       		.byte	0x50
 3738 1373 02       		.byte	0x2
 3739 1374 75       		.byte	0x75
 3740 1375 00       		.sleb128 0
 3741 1376 00       		.byte	0
 3742 1377 26       		.uleb128 0x26
 3743 1378 7E010000 		.4byte	.LVL34
 3744 137c 971B0000 		.4byte	0x1b97
 3745 1380 91130000 		.4byte	0x1391
 3746 1384 20       		.uleb128 0x20
 3747 1385 01       		.byte	0x1
 3748 1386 51       		.byte	0x51
 3749 1387 02       		.byte	0x2
 3750 1388 74       		.byte	0x74
ARM GAS  C:\Users\CNous\AppData\Local\Temp\ccmZfnu5.s 			page 99


 3751 1389 00       		.sleb128 0
 3752 138a 20       		.uleb128 0x20
 3753 138b 01       		.byte	0x1
 3754 138c 50       		.byte	0x50
 3755 138d 02       		.byte	0x2
 3756 138e 75       		.byte	0x75
 3757 138f 00       		.sleb128 0
 3758 1390 00       		.byte	0
 3759 1391 26       		.uleb128 0x26
 3760 1392 86010000 		.4byte	.LVL35
 3761 1396 B11B0000 		.4byte	0x1bb1
 3762 139a AB130000 		.4byte	0x13ab
 3763 139e 20       		.uleb128 0x20
 3764 139f 01       		.byte	0x1
 3765 13a0 51       		.byte	0x51
 3766 13a1 02       		.byte	0x2
 3767 13a2 74       		.byte	0x74
 3768 13a3 00       		.sleb128 0
 3769 13a4 20       		.uleb128 0x20
 3770 13a5 01       		.byte	0x1
 3771 13a6 50       		.byte	0x50
 3772 13a7 02       		.byte	0x2
 3773 13a8 75       		.byte	0x75
 3774 13a9 00       		.sleb128 0
 3775 13aa 00       		.byte	0
 3776 13ab 26       		.uleb128 0x26
 3777 13ac 8E010000 		.4byte	.LVL36
 3778 13b0 CB1B0000 		.4byte	0x1bcb
 3779 13b4 C5130000 		.4byte	0x13c5
 3780 13b8 20       		.uleb128 0x20
 3781 13b9 01       		.byte	0x1
 3782 13ba 51       		.byte	0x51
 3783 13bb 02       		.byte	0x2
 3784 13bc 74       		.byte	0x74
 3785 13bd 00       		.sleb128 0
 3786 13be 20       		.uleb128 0x20
 3787 13bf 01       		.byte	0x1
 3788 13c0 50       		.byte	0x50
 3789 13c1 02       		.byte	0x2
 3790 13c2 75       		.byte	0x75
 3791 13c3 00       		.sleb128 0
 3792 13c4 00       		.byte	0
 3793 13c5 2A       		.uleb128 0x2a
 3794 13c6 94010000 		.4byte	.LVL37
 3795 13ca E51B0000 		.4byte	0x1be5
 3796 13ce 20       		.uleb128 0x20
 3797 13cf 01       		.byte	0x1
 3798 13d0 50       		.byte	0x50
 3799 13d1 02       		.byte	0x2
 3800 13d2 75       		.byte	0x75
 3801 13d3 00       		.sleb128 0
 3802 13d4 00       		.byte	0
 3803 13d5 00       		.byte	0
 3804 13d6 28       		.uleb128 0x28
 3805 13d7 01       		.byte	0x1
 3806 13d8 700F0000 		.4byte	.LASF292
 3807 13dc 01       		.byte	0x1
ARM GAS  C:\Users\CNous\AppData\Local\Temp\ccmZfnu5.s 			page 100


 3808 13dd 9401     		.2byte	0x194
 3809 13df 01       		.byte	0x1
 3810 13e0 00000000 		.4byte	.LFB119
 3811 13e4 AA000000 		.4byte	.LFE119
 3812 13e8 31010000 		.4byte	.LLST8
 3813 13ec 01       		.byte	0x1
 3814 13ed 2A150000 		.4byte	0x152a
 3815 13f1 29       		.uleb128 0x29
 3816 13f2 CC010000 		.4byte	.LASF293
 3817 13f6 01       		.byte	0x1
 3818 13f7 9601     		.2byte	0x196
 3819 13f9 CD0E0000 		.4byte	0xecd
 3820 13fd 02       		.byte	0x2
 3821 13fe 91       		.byte	0x91
 3822 13ff 6C       		.sleb128 -20
 3823 1400 26       		.uleb128 0x26
 3824 1401 14000000 		.4byte	.LVL38
 3825 1405 FA1B0000 		.4byte	0x1bfa
 3826 1409 18140000 		.4byte	0x1418
 3827 140d 20       		.uleb128 0x20
 3828 140e 01       		.byte	0x1
 3829 140f 51       		.byte	0x51
 3830 1410 01       		.byte	0x1
 3831 1411 31       		.byte	0x31
 3832 1412 20       		.uleb128 0x20
 3833 1413 01       		.byte	0x1
 3834 1414 50       		.byte	0x50
 3835 1415 01       		.byte	0x1
 3836 1416 40       		.byte	0x40
 3837 1417 00       		.byte	0
 3838 1418 26       		.uleb128 0x26
 3839 1419 1A000000 		.4byte	.LVL39
 3840 141d 141C0000 		.4byte	0x1c14
 3841 1421 2C140000 		.4byte	0x142c
 3842 1425 20       		.uleb128 0x20
 3843 1426 01       		.byte	0x1
 3844 1427 50       		.byte	0x50
 3845 1428 02       		.byte	0x2
 3846 1429 74       		.byte	0x74
 3847 142a 00       		.sleb128 0
 3848 142b 00       		.byte	0
 3849 142c 26       		.uleb128 0x26
 3850 142d 36000000 		.4byte	.LVL40
 3851 1431 2F1C0000 		.4byte	0x1c2f
 3852 1435 40140000 		.4byte	0x1440
 3853 1439 20       		.uleb128 0x20
 3854 143a 01       		.byte	0x1
 3855 143b 50       		.byte	0x50
 3856 143c 02       		.byte	0x2
 3857 143d 91       		.byte	0x91
 3858 143e 6C       		.sleb128 -20
 3859 143f 00       		.byte	0
 3860 1440 26       		.uleb128 0x26
 3861 1441 52000000 		.4byte	.LVL41
 3862 1445 491C0000 		.4byte	0x1c49
 3863 1449 5D140000 		.4byte	0x145d
 3864 144d 20       		.uleb128 0x20
ARM GAS  C:\Users\CNous\AppData\Local\Temp\ccmZfnu5.s 			page 101


 3865 144e 01       		.byte	0x1
 3866 144f 51       		.byte	0x51
 3867 1450 05       		.byte	0x5
 3868 1451 03       		.byte	0x3
 3869 1452 00000000 		.4byte	TIM_TimeBaseStructure
 3870 1456 20       		.uleb128 0x20
 3871 1457 01       		.byte	0x1
 3872 1458 50       		.byte	0x50
 3873 1459 02       		.byte	0x2
 3874 145a 74       		.byte	0x74
 3875 145b 00       		.sleb128 0
 3876 145c 00       		.byte	0
 3877 145d 26       		.uleb128 0x26
 3878 145e 64000000 		.4byte	.LVL42
 3879 1462 691C0000 		.4byte	0x1c69
 3880 1466 77140000 		.4byte	0x1477
 3881 146a 20       		.uleb128 0x20
 3882 146b 01       		.byte	0x1
 3883 146c 52       		.byte	0x52
 3884 146d 02       		.byte	0x2
 3885 146e 75       		.byte	0x75
 3886 146f 00       		.sleb128 0
 3887 1470 20       		.uleb128 0x20
 3888 1471 01       		.byte	0x1
 3889 1472 50       		.byte	0x50
 3890 1473 02       		.byte	0x2
 3891 1474 74       		.byte	0x74
 3892 1475 00       		.sleb128 0
 3893 1476 00       		.byte	0
 3894 1477 26       		.uleb128 0x26
 3895 1478 74000000 		.4byte	.LVL43
 3896 147c 881C0000 		.4byte	0x1c88
 3897 1480 8B140000 		.4byte	0x148b
 3898 1484 20       		.uleb128 0x20
 3899 1485 01       		.byte	0x1
 3900 1486 50       		.byte	0x50
 3901 1487 02       		.byte	0x2
 3902 1488 74       		.byte	0x74
 3903 1489 00       		.sleb128 0
 3904 148a 00       		.byte	0
 3905 148b 26       		.uleb128 0x26
 3906 148c 7C000000 		.4byte	.LVL44
 3907 1490 A21C0000 		.4byte	0x1ca2
 3908 1494 A5140000 		.4byte	0x14a5
 3909 1498 20       		.uleb128 0x20
 3910 1499 01       		.byte	0x1
 3911 149a 51       		.byte	0x51
 3912 149b 02       		.byte	0x2
 3913 149c 76       		.byte	0x76
 3914 149d 00       		.sleb128 0
 3915 149e 20       		.uleb128 0x20
 3916 149f 01       		.byte	0x1
 3917 14a0 50       		.byte	0x50
 3918 14a1 02       		.byte	0x2
 3919 14a2 74       		.byte	0x74
 3920 14a3 00       		.sleb128 0
 3921 14a4 00       		.byte	0
ARM GAS  C:\Users\CNous\AppData\Local\Temp\ccmZfnu5.s 			page 102


 3922 14a5 26       		.uleb128 0x26
 3923 14a6 84000000 		.4byte	.LVL45
 3924 14aa BC1C0000 		.4byte	0x1cbc
 3925 14ae BF140000 		.4byte	0x14bf
 3926 14b2 20       		.uleb128 0x20
 3927 14b3 01       		.byte	0x1
 3928 14b4 51       		.byte	0x51
 3929 14b5 02       		.byte	0x2
 3930 14b6 75       		.byte	0x75
 3931 14b7 00       		.sleb128 0
 3932 14b8 20       		.uleb128 0x20
 3933 14b9 01       		.byte	0x1
 3934 14ba 50       		.byte	0x50
 3935 14bb 02       		.byte	0x2
 3936 14bc 74       		.byte	0x74
 3937 14bd 00       		.sleb128 0
 3938 14be 00       		.byte	0
 3939 14bf 26       		.uleb128 0x26
 3940 14c0 8C000000 		.4byte	.LVL46
 3941 14c4 D61C0000 		.4byte	0x1cd6
 3942 14c8 D9140000 		.4byte	0x14d9
 3943 14cc 20       		.uleb128 0x20
 3944 14cd 01       		.byte	0x1
 3945 14ce 51       		.byte	0x51
 3946 14cf 02       		.byte	0x2
 3947 14d0 75       		.byte	0x75
 3948 14d1 00       		.sleb128 0
 3949 14d2 20       		.uleb128 0x20
 3950 14d3 01       		.byte	0x1
 3951 14d4 50       		.byte	0x50
 3952 14d5 02       		.byte	0x2
 3953 14d6 74       		.byte	0x74
 3954 14d7 00       		.sleb128 0
 3955 14d8 00       		.byte	0
 3956 14d9 26       		.uleb128 0x26
 3957 14da 94000000 		.4byte	.LVL47
 3958 14de F01C0000 		.4byte	0x1cf0
 3959 14e2 F3140000 		.4byte	0x14f3
 3960 14e6 20       		.uleb128 0x20
 3961 14e7 01       		.byte	0x1
 3962 14e8 51       		.byte	0x51
 3963 14e9 02       		.byte	0x2
 3964 14ea 76       		.byte	0x76
 3965 14eb 00       		.sleb128 0
 3966 14ec 20       		.uleb128 0x20
 3967 14ed 01       		.byte	0x1
 3968 14ee 50       		.byte	0x50
 3969 14ef 02       		.byte	0x2
 3970 14f0 74       		.byte	0x74
 3971 14f1 00       		.sleb128 0
 3972 14f2 00       		.byte	0
 3973 14f3 26       		.uleb128 0x26
 3974 14f4 9E000000 		.4byte	.LVL48
 3975 14f8 0A1D0000 		.4byte	0x1d0a
 3976 14fc 13150000 		.4byte	0x1513
 3977 1500 20       		.uleb128 0x20
 3978 1501 01       		.byte	0x1
ARM GAS  C:\Users\CNous\AppData\Local\Temp\ccmZfnu5.s 			page 103


 3979 1502 52       		.byte	0x52
 3980 1503 02       		.byte	0x2
 3981 1504 75       		.byte	0x75
 3982 1505 00       		.sleb128 0
 3983 1506 20       		.uleb128 0x20
 3984 1507 01       		.byte	0x1
 3985 1508 51       		.byte	0x51
 3986 1509 02       		.byte	0x2
 3987 150a 75       		.byte	0x75
 3988 150b 00       		.sleb128 0
 3989 150c 20       		.uleb128 0x20
 3990 150d 01       		.byte	0x1
 3991 150e 50       		.byte	0x50
 3992 150f 02       		.byte	0x2
 3993 1510 74       		.byte	0x74
 3994 1511 00       		.sleb128 0
 3995 1512 00       		.byte	0
 3996 1513 2A       		.uleb128 0x2a
 3997 1514 A6000000 		.4byte	.LVL49
 3998 1518 291D0000 		.4byte	0x1d29
 3999 151c 20       		.uleb128 0x20
 4000 151d 01       		.byte	0x1
 4001 151e 51       		.byte	0x51
 4002 151f 02       		.byte	0x2
 4003 1520 75       		.byte	0x75
 4004 1521 00       		.sleb128 0
 4005 1522 20       		.uleb128 0x20
 4006 1523 01       		.byte	0x1
 4007 1524 50       		.byte	0x50
 4008 1525 02       		.byte	0x2
 4009 1526 74       		.byte	0x74
 4010 1527 00       		.sleb128 0
 4011 1528 00       		.byte	0
 4012 1529 00       		.byte	0
 4013 152a 2B       		.uleb128 0x2b
 4014 152b 01       		.byte	0x1
 4015 152c 81100000 		.4byte	.LASF295
 4016 1530 01       		.byte	0x1
 4017 1531 90       		.byte	0x90
 4018 1532 01       		.byte	0x1
 4019 1533 45000000 		.4byte	0x45
 4020 1537 00000000 		.4byte	.LFB110
 4021 153b F0000000 		.4byte	.LFE110
 4022 153f 5D010000 		.4byte	.LLST9
 4023 1543 01       		.byte	0x1
 4024 1544 77160000 		.4byte	0x1677
 4025 1548 2C       		.uleb128 0x2c
 4026 1549 650F0000 		.4byte	0xf65
 4027 154d 6A000000 		.4byte	.LBB8
 4028 1551 00000000 		.4byte	.Ldebug_ranges0+0
 4029 1555 01       		.byte	0x1
 4030 1556 A9       		.byte	0xa9
 4031 1557 88150000 		.4byte	0x1588
 4032 155b 2D       		.uleb128 0x2d
 4033 155c 770F0000 		.4byte	0xf77
 4034 1560 7D010000 		.4byte	.LLST10
 4035 1564 2E       		.uleb128 0x2e
ARM GAS  C:\Users\CNous\AppData\Local\Temp\ccmZfnu5.s 			page 104


 4036 1565 3E0F0000 		.4byte	0xf3e
 4037 1569 7A000000 		.4byte	.LBB10
 4038 156d 18000000 		.4byte	.Ldebug_ranges0+0x18
 4039 1571 02       		.byte	0x2
 4040 1572 0605     		.2byte	0x506
 4041 1574 2D       		.uleb128 0x2d
 4042 1575 4C0F0000 		.4byte	0xf4c
 4043 1579 90010000 		.4byte	.LLST11
 4044 157d 2D       		.uleb128 0x2d
 4045 157e 580F0000 		.4byte	0xf58
 4046 1582 A5010000 		.4byte	.LLST12
 4047 1586 00       		.byte	0
 4048 1587 00       		.byte	0
 4049 1588 26       		.uleb128 0x26
 4050 1589 08000000 		.4byte	.LVL50
 4051 158d 431D0000 		.4byte	0x1d43
 4052 1591 9B150000 		.4byte	0x159b
 4053 1595 20       		.uleb128 0x20
 4054 1596 01       		.byte	0x1
 4055 1597 50       		.byte	0x50
 4056 1598 01       		.byte	0x1
 4057 1599 31       		.byte	0x31
 4058 159a 00       		.byte	0
 4059 159b 26       		.uleb128 0x26
 4060 159c 0E000000 		.4byte	.LVL51
 4061 15a0 431D0000 		.4byte	0x1d43
 4062 15a4 AE150000 		.4byte	0x15ae
 4063 15a8 20       		.uleb128 0x20
 4064 15a9 01       		.byte	0x1
 4065 15aa 50       		.byte	0x50
 4066 15ab 01       		.byte	0x1
 4067 15ac 30       		.byte	0x30
 4068 15ad 00       		.byte	0
 4069 15ae 26       		.uleb128 0x26
 4070 15af 14000000 		.4byte	.LVL52
 4071 15b3 431D0000 		.4byte	0x1d43
 4072 15b7 C1150000 		.4byte	0x15c1
 4073 15bb 20       		.uleb128 0x20
 4074 15bc 01       		.byte	0x1
 4075 15bd 50       		.byte	0x50
 4076 15be 01       		.byte	0x1
 4077 15bf 32       		.byte	0x32
 4078 15c0 00       		.byte	0
 4079 15c1 26       		.uleb128 0x26
 4080 15c2 1A000000 		.4byte	.LVL53
 4081 15c6 431D0000 		.4byte	0x1d43
 4082 15ca D4150000 		.4byte	0x15d4
 4083 15ce 20       		.uleb128 0x20
 4084 15cf 01       		.byte	0x1
 4085 15d0 50       		.byte	0x50
 4086 15d1 01       		.byte	0x1
 4087 15d2 33       		.byte	0x33
 4088 15d3 00       		.byte	0
 4089 15d4 26       		.uleb128 0x26
 4090 15d5 22000000 		.4byte	.LVL54
 4091 15d9 571D0000 		.4byte	0x1d57
 4092 15dd EC150000 		.4byte	0x15ec
ARM GAS  C:\Users\CNous\AppData\Local\Temp\ccmZfnu5.s 			page 105


 4093 15e1 20       		.uleb128 0x20
 4094 15e2 01       		.byte	0x1
 4095 15e3 51       		.byte	0x51
 4096 15e4 01       		.byte	0x1
 4097 15e5 30       		.byte	0x30
 4098 15e6 20       		.uleb128 0x20
 4099 15e7 01       		.byte	0x1
 4100 15e8 50       		.byte	0x50
 4101 15e9 01       		.byte	0x1
 4102 15ea 30       		.byte	0x30
 4103 15eb 00       		.byte	0
 4104 15ec 26       		.uleb128 0x26
 4105 15ed 2A000000 		.4byte	.LVL55
 4106 15f1 701D0000 		.4byte	0x1d70
 4107 15f5 05160000 		.4byte	0x1605
 4108 15f9 20       		.uleb128 0x20
 4109 15fa 01       		.byte	0x1
 4110 15fb 51       		.byte	0x51
 4111 15fc 01       		.byte	0x1
 4112 15fd 31       		.byte	0x31
 4113 15fe 20       		.uleb128 0x20
 4114 15ff 01       		.byte	0x1
 4115 1600 50       		.byte	0x50
 4116 1601 02       		.byte	0x2
 4117 1602 08       		.byte	0x8
 4118 1603 40       		.byte	0x40
 4119 1604 00       		.byte	0
 4120 1605 26       		.uleb128 0x26
 4121 1606 30000000 		.4byte	.LVL56
 4122 160a 8A1D0000 		.4byte	0x1d8a
 4123 160e 18160000 		.4byte	0x1618
 4124 1612 20       		.uleb128 0x20
 4125 1613 01       		.byte	0x1
 4126 1614 50       		.byte	0x50
 4127 1615 01       		.byte	0x1
 4128 1616 31       		.byte	0x31
 4129 1617 00       		.byte	0
 4130 1618 27       		.uleb128 0x27
 4131 1619 48000000 		.4byte	.LVL57
 4132 161d E1100000 		.4byte	0x10e1
 4133 1621 27       		.uleb128 0x27
 4134 1622 58000000 		.4byte	.LVL58
 4135 1626 D6130000 		.4byte	0x13d6
 4136 162a 27       		.uleb128 0x27
 4137 162b A8000000 		.4byte	.LVL62
 4138 162f 9E1D0000 		.4byte	0x1d9e
 4139 1633 27       		.uleb128 0x27
 4140 1634 AC000000 		.4byte	.LVL63
 4141 1638 A81D0000 		.4byte	0x1da8
 4142 163c 26       		.uleb128 0x26
 4143 163d B8000000 		.4byte	.LVL64
 4144 1641 B21D0000 		.4byte	0x1db2
 4145 1645 5C160000 		.4byte	0x165c
 4146 1649 20       		.uleb128 0x20
 4147 164a 01       		.byte	0x1
 4148 164b 52       		.byte	0x52
 4149 164c 03       		.byte	0x3
ARM GAS  C:\Users\CNous\AppData\Local\Temp\ccmZfnu5.s 			page 106


 4150 164d 0A       		.byte	0xa
 4151 164e 80BB     		.2byte	0xbb80
 4152 1650 20       		.uleb128 0x20
 4153 1651 01       		.byte	0x1
 4154 1652 51       		.byte	0x51
 4155 1653 02       		.byte	0x2
 4156 1654 08       		.byte	0x8
 4157 1655 46       		.byte	0x46
 4158 1656 20       		.uleb128 0x20
 4159 1657 01       		.byte	0x1
 4160 1658 50       		.byte	0x50
 4161 1659 01       		.byte	0x1
 4162 165a 34       		.byte	0x34
 4163 165b 00       		.byte	0
 4164 165c 2A       		.uleb128 0x2a
 4165 165d C2000000 		.4byte	.LVL65
 4166 1661 D41D0000 		.4byte	0x1dd4
 4167 1665 20       		.uleb128 0x20
 4168 1666 01       		.byte	0x1
 4169 1667 51       		.byte	0x51
 4170 1668 03       		.byte	0x3
 4171 1669 0A       		.byte	0xa
 4172 166a 8002     		.2byte	0x280
 4173 166c 20       		.uleb128 0x20
 4174 166d 01       		.byte	0x1
 4175 166e 50       		.byte	0x50
 4176 166f 05       		.byte	0x5
 4177 1670 03       		.byte	0x3
 4178 1671 00000000 		.4byte	audiobuff
 4179 1675 00       		.byte	0
 4180 1676 00       		.byte	0
 4181 1677 2F       		.uleb128 0x2f
 4182 1678 54100000 		.4byte	.LASF296
 4183 167c 02       		.byte	0x2
 4184 167d 1A05     		.2byte	0x51a
 4185 167f 6D060000 		.4byte	0x66d
 4186 1683 01       		.byte	0x1
 4187 1684 01       		.byte	0x1
 4188 1685 30       		.uleb128 0x30
 4189 1686 35080000 		.4byte	.LASF297
 4190 168a 0C       		.byte	0xc
 4191 168b 35       		.byte	0x35
 4192 168c F9020000 		.4byte	0x2f9
 4193 1690 01       		.byte	0x1
 4194 1691 01       		.byte	0x1
 4195 1692 0A       		.uleb128 0xa
 4196 1693 E3020000 		.4byte	0x2e3
 4197 1697 A3160000 		.4byte	0x16a3
 4198 169b 0D       		.uleb128 0xd
 4199 169c 68000000 		.4byte	0x68
 4200 16a0 7F02     		.2byte	0x27f
 4201 16a2 00       		.byte	0
 4202 16a3 31       		.uleb128 0x31
 4203 16a4 E80B0000 		.4byte	.LASF298
 4204 16a8 01       		.byte	0x1
 4205 16a9 50       		.byte	0x50
 4206 16aa 92160000 		.4byte	0x1692
ARM GAS  C:\Users\CNous\AppData\Local\Temp\ccmZfnu5.s 			page 107


 4207 16ae 01       		.byte	0x1
 4208 16af 05       		.byte	0x5
 4209 16b0 03       		.byte	0x3
 4210 16b1 00000000 		.4byte	audiobuff
 4211 16b5 31       		.uleb128 0x31
 4212 16b6 18060000 		.4byte	.LASF299
 4213 16ba 01       		.byte	0x1
 4214 16bb 51       		.byte	0x51
 4215 16bc 84000000 		.4byte	0x84
 4216 16c0 01       		.byte	0x1
 4217 16c1 05       		.byte	0x5
 4218 16c2 03       		.byte	0x3
 4219 16c3 00000000 		.4byte	sampleT
 4220 16c7 0A       		.uleb128 0xa
 4221 16c8 84000000 		.4byte	0x84
 4222 16cc D8160000 		.4byte	0x16d8
 4223 16d0 0D       		.uleb128 0xd
 4224 16d1 68000000 		.4byte	0x68
 4225 16d5 C15D     		.2byte	0x5dc1
 4226 16d7 00       		.byte	0
 4227 16d8 31       		.uleb128 0x31
 4228 16d9 0D0C0000 		.4byte	.LASF300
 4229 16dd 01       		.byte	0x1
 4230 16de 54       		.byte	0x54
 4231 16df C7160000 		.4byte	0x16c7
 4232 16e3 01       		.byte	0x1
 4233 16e4 05       		.byte	0x5
 4234 16e5 03       		.byte	0x3
 4235 16e6 00000000 		.4byte	delayline
 4236 16ea 31       		.uleb128 0x31
 4237 16eb 3D0E0000 		.4byte	.LASF301
 4238 16ef 01       		.byte	0x1
 4239 16f0 55       		.byte	0x55
 4240 16f1 84000000 		.4byte	0x84
 4241 16f5 01       		.byte	0x1
 4242 16f6 05       		.byte	0x5
 4243 16f7 03       		.byte	0x3
 4244 16f8 00000000 		.4byte	delayVol
 4245 16fc 31       		.uleb128 0x31
 4246 16fd 78000000 		.4byte	.LASF302
 4247 1701 01       		.byte	0x1
 4248 1702 56       		.byte	0x56
 4249 1703 0E170000 		.4byte	0x170e
 4250 1707 01       		.byte	0x1
 4251 1708 05       		.byte	0x5
 4252 1709 03       		.byte	0x3
 4253 170a 00000000 		.4byte	readpos
 4254 170e 32       		.uleb128 0x32
 4255 170f 04       		.byte	0x4
 4256 1710 84000000 		.4byte	0x84
 4257 1714 31       		.uleb128 0x31
 4258 1715 BD090000 		.4byte	.LASF303
 4259 1719 01       		.byte	0x1
 4260 171a 57       		.byte	0x57
 4261 171b 0E170000 		.4byte	0x170e
 4262 171f 01       		.byte	0x1
 4263 1720 05       		.byte	0x5
ARM GAS  C:\Users\CNous\AppData\Local\Temp\ccmZfnu5.s 			page 108


 4264 1721 03       		.byte	0x3
 4265 1722 00000000 		.4byte	writepos
 4266 1726 31       		.uleb128 0x31
 4267 1727 B70B0000 		.4byte	.LASF304
 4268 172b 01       		.byte	0x1
 4269 172c 58       		.byte	0x58
 4270 172d 84000000 		.4byte	0x84
 4271 1731 01       		.byte	0x1
 4272 1732 05       		.byte	0x5
 4273 1733 03       		.byte	0x3
 4274 1734 00000000 		.4byte	coeff_a1
 4275 1738 31       		.uleb128 0x31
 4276 1739 0D0B0000 		.4byte	.LASF305
 4277 173d 01       		.byte	0x1
 4278 173e 5A       		.byte	0x5a
 4279 173f 84000000 		.4byte	0x84
 4280 1743 01       		.byte	0x1
 4281 1744 05       		.byte	0x5
 4282 1745 03       		.byte	0x3
 4283 1746 00000000 		.4byte	old_dy
 4284 174a 33       		.uleb128 0x33
 4285 174b 66646200 		.ascii	"fdb\000"
 4286 174f 01       		.byte	0x1
 4287 1750 5B       		.byte	0x5b
 4288 1751 84000000 		.4byte	0x84
 4289 1755 01       		.byte	0x1
 4290 1756 05       		.byte	0x5
 4291 1757 03       		.byte	0x3
 4292 1758 00000000 		.4byte	fdb
 4293 175c 31       		.uleb128 0x31
 4294 175d CD0B0000 		.4byte	.LASF306
 4295 1761 01       		.byte	0x1
 4296 1762 5E       		.byte	0x5e
 4297 1763 D8020000 		.4byte	0x2d8
 4298 1767 01       		.byte	0x1
 4299 1768 05       		.byte	0x5
 4300 1769 03       		.byte	0x3
 4301 176a 00000000 		.4byte	envTrigger
 4302 176e 31       		.uleb128 0x31
 4303 176f B00B0000 		.4byte	.LASF307
 4304 1773 01       		.byte	0x1
 4305 1774 5E       		.byte	0x5e
 4306 1775 D8020000 		.4byte	0x2d8
 4307 1779 01       		.byte	0x1
 4308 177a 05       		.byte	0x5
 4309 177b 03       		.byte	0x3
 4310 177c 00000000 		.4byte	envAmp
 4311 1780 31       		.uleb128 0x31
 4312 1781 07070000 		.4byte	.LASF308
 4313 1785 01       		.byte	0x1
 4314 1786 5F       		.byte	0x5f
 4315 1787 84000000 		.4byte	0x84
 4316 178b 01       		.byte	0x1
 4317 178c 05       		.byte	0x5
 4318 178d 03       		.byte	0x3
 4319 178e 00000000 		.4byte	envPhase
 4320 1792 31       		.uleb128 0x31
ARM GAS  C:\Users\CNous\AppData\Local\Temp\ccmZfnu5.s 			page 109


 4321 1793 BA0D0000 		.4byte	.LASF309
 4322 1797 01       		.byte	0x1
 4323 1798 60       		.byte	0x60
 4324 1799 84000000 		.4byte	0x84
 4325 179d 01       		.byte	0x1
 4326 179e 05       		.byte	0x5
 4327 179f 03       		.byte	0x3
 4328 17a0 00000000 		.4byte	envTime
 4329 17a4 31       		.uleb128 0x31
 4330 17a5 5A0A0000 		.4byte	.LASF310
 4331 17a9 01       		.byte	0x1
 4332 17aa 63       		.byte	0x63
 4333 17ab F9020000 		.4byte	0x2f9
 4334 17af 01       		.byte	0x1
 4335 17b0 05       		.byte	0x5
 4336 17b1 03       		.byte	0x3
 4337 17b2 00000000 		.4byte	seqIndex
 4338 17b6 31       		.uleb128 0x31
 4339 17b7 37000000 		.4byte	.LASF311
 4340 17bb 01       		.byte	0x1
 4341 17bc 64       		.byte	0x64
 4342 17bd F9020000 		.4byte	0x2f9
 4343 17c1 01       		.byte	0x1
 4344 17c2 05       		.byte	0x5
 4345 17c3 03       		.byte	0x3
 4346 17c4 00000000 		.4byte	seq1Number
 4347 17c8 31       		.uleb128 0x31
 4348 17c9 80020000 		.4byte	.LASF312
 4349 17cd 01       		.byte	0x1
 4350 17ce 67       		.byte	0x67
 4351 17cf 810E0000 		.4byte	0xe81
 4352 17d3 01       		.byte	0x1
 4353 17d4 05       		.byte	0x5
 4354 17d5 03       		.byte	0x3
 4355 17d6 00000000 		.4byte	TIM_TimeBaseStructure
 4356 17da 31       		.uleb128 0x31
 4357 17db 0A130000 		.4byte	.LASF313
 4358 17df 01       		.byte	0x1
 4359 17e0 68       		.byte	0x68
 4360 17e1 E3020000 		.4byte	0x2e3
 4361 17e5 01       		.byte	0x1
 4362 17e6 05       		.byte	0x5
 4363 17e7 03       		.byte	0x3
 4364 17e8 00000000 		.4byte	PrescalerValue
 4365 17ec 31       		.uleb128 0x31
 4366 17ed D90A0000 		.4byte	.LASF314
 4367 17f1 01       		.byte	0x1
 4368 17f2 69       		.byte	0x69
 4369 17f3 E3020000 		.4byte	0x2e3
 4370 17f7 01       		.byte	0x1
 4371 17f8 05       		.byte	0x5
 4372 17f9 03       		.byte	0x3
 4373 17fa 00000000 		.4byte	reloadValue
 4374 17fe 31       		.uleb128 0x31
 4375 17ff 31130000 		.4byte	.LASF315
 4376 1803 01       		.byte	0x1
 4377 1804 6C       		.byte	0x6c
ARM GAS  C:\Users\CNous\AppData\Local\Temp\ccmZfnu5.s 			page 110


 4378 1805 84000000 		.4byte	0x84
 4379 1809 01       		.byte	0x1
 4380 180a 05       		.byte	0x5
 4381 180b 03       		.byte	0x3
 4382 180c 00000000 		.4byte	pass
 4383 1810 31       		.uleb128 0x31
 4384 1811 97010000 		.4byte	.LASF316
 4385 1815 01       		.byte	0x1
 4386 1816 6D       		.byte	0x6d
 4387 1817 84000000 		.4byte	0x84
 4388 181b 01       		.byte	0x1
 4389 181c 05       		.byte	0x5
 4390 181d 03       		.byte	0x3
 4391 181e 00000000 		.4byte	phase2
 4392 1822 31       		.uleb128 0x31
 4393 1823 FD0A0000 		.4byte	.LASF317
 4394 1827 01       		.byte	0x1
 4395 1828 6D       		.byte	0x6d
 4396 1829 84000000 		.4byte	0x84
 4397 182d 01       		.byte	0x1
 4398 182e 05       		.byte	0x5
 4399 182f 03       		.byte	0x3
 4400 1830 00000000 		.4byte	phase2Step
 4401 1834 33       		.uleb128 0x33
 4402 1835 663100   		.ascii	"f1\000"
 4403 1838 01       		.byte	0x1
 4404 1839 6E       		.byte	0x6e
 4405 183a 84000000 		.4byte	0x84
 4406 183e 01       		.byte	0x1
 4407 183f 05       		.byte	0x5
 4408 1840 03       		.byte	0x3
 4409 1841 00000000 		.4byte	f1
 4410 1845 33       		.uleb128 0x33
 4411 1846 663200   		.ascii	"f2\000"
 4412 1849 01       		.byte	0x1
 4413 184a 6E       		.byte	0x6e
 4414 184b 84000000 		.4byte	0x84
 4415 184f 01       		.byte	0x1
 4416 1850 05       		.byte	0x5
 4417 1851 03       		.byte	0x3
 4418 1852 00000000 		.4byte	f2
 4419 1856 31       		.uleb128 0x31
 4420 1857 15080000 		.4byte	.LASF318
 4421 185b 01       		.byte	0x1
 4422 185c 6E       		.byte	0x6e
 4423 185d 84000000 		.4byte	0x84
 4424 1861 01       		.byte	0x1
 4425 1862 05       		.byte	0x5
 4426 1863 03       		.byte	0x3
 4427 1864 00000000 		.4byte	freq
 4428 1868 33       		.uleb128 0x33
 4429 1869 5F7000   		.ascii	"_p\000"
 4430 186c 01       		.byte	0x1
 4431 186d 6F       		.byte	0x6f
 4432 186e 84000000 		.4byte	0x84
 4433 1872 01       		.byte	0x1
 4434 1873 05       		.byte	0x5
ARM GAS  C:\Users\CNous\AppData\Local\Temp\ccmZfnu5.s 			page 111


 4435 1874 03       		.byte	0x3
 4436 1875 00000000 		.4byte	_p
 4437 1879 33       		.uleb128 0x33
 4438 187a 5F7700   		.ascii	"_w\000"
 4439 187d 01       		.byte	0x1
 4440 187e 6F       		.byte	0x6f
 4441 187f 84000000 		.4byte	0x84
 4442 1883 01       		.byte	0x1
 4443 1884 05       		.byte	0x5
 4444 1885 03       		.byte	0x3
 4445 1886 00000000 		.4byte	_w
 4446 188a 33       		.uleb128 0x33
 4447 188b 5F7A00   		.ascii	"_z\000"
 4448 188e 01       		.byte	0x1
 4449 188f 6F       		.byte	0x6f
 4450 1890 84000000 		.4byte	0x84
 4451 1894 01       		.byte	0x1
 4452 1895 05       		.byte	0x5
 4453 1896 03       		.byte	0x3
 4454 1897 00000000 		.4byte	_z
 4455 189b 0A       		.uleb128 0xa
 4456 189c 84000000 		.4byte	0x84
 4457 18a0 AC180000 		.4byte	0x18ac
 4458 18a4 0D       		.uleb128 0xd
 4459 18a5 68000000 		.4byte	0x68
 4460 18a9 4701     		.2byte	0x147
 4461 18ab 00       		.byte	0
 4462 18ac 33       		.uleb128 0x33
 4463 18ad 5F6600   		.ascii	"_f\000"
 4464 18b0 01       		.byte	0x1
 4465 18b1 70       		.byte	0x70
 4466 18b2 9B180000 		.4byte	0x189b
 4467 18b6 01       		.byte	0x1
 4468 18b7 05       		.byte	0x5
 4469 18b8 03       		.byte	0x3
 4470 18b9 00000000 		.4byte	_f
 4471 18bd 33       		.uleb128 0x33
 4472 18be 5F6A00   		.ascii	"_j\000"
 4473 18c1 01       		.byte	0x1
 4474 18c2 71       		.byte	0x71
 4475 18c3 45000000 		.4byte	0x45
 4476 18c7 01       		.byte	0x1
 4477 18c8 05       		.byte	0x5
 4478 18c9 03       		.byte	0x3
 4479 18ca 00000000 		.4byte	_j
 4480 18ce 31       		.uleb128 0x31
 4481 18cf D30A0000 		.4byte	.LASF319
 4482 18d3 01       		.byte	0x1
 4483 18d4 71       		.byte	0x71
 4484 18d5 45000000 		.4byte	0x45
 4485 18d9 01       		.byte	0x1
 4486 18da 05       		.byte	0x5
 4487 18db 03       		.byte	0x3
 4488 18dc 00000000 		.4byte	_init
 4489 18e0 31       		.uleb128 0x31
 4490 18e1 7F0D0000 		.4byte	.LASF320
 4491 18e5 01       		.byte	0x1
ARM GAS  C:\Users\CNous\AppData\Local\Temp\ccmZfnu5.s 			page 112


 4492 18e6 73       		.byte	0x73
 4493 18e7 E3020000 		.4byte	0x2e3
 4494 18eb 01       		.byte	0x1
 4495 18ec 05       		.byte	0x5
 4496 18ed 03       		.byte	0x3
 4497 18ee 00000000 		.4byte	delay1
 4498 18f2 0A       		.uleb128 0xa
 4499 18f3 E3020000 		.4byte	0x2e3
 4500 18f7 02190000 		.4byte	0x1902
 4501 18fb 0B       		.uleb128 0xb
 4502 18fc 68000000 		.4byte	0x68
 4503 1900 07       		.byte	0x7
 4504 1901 00       		.byte	0
 4505 1902 31       		.uleb128 0x31
 4506 1903 86070000 		.4byte	.LASF321
 4507 1907 01       		.byte	0x1
 4508 1908 76       		.byte	0x76
 4509 1909 F2180000 		.4byte	0x18f2
 4510 190d 01       		.byte	0x1
 4511 190e 05       		.byte	0x5
 4512 190f 03       		.byte	0x3
 4513 1910 00000000 		.4byte	ADC1ConvertedValues
 4514 1914 31       		.uleb128 0x31
 4515 1915 410C0000 		.4byte	.LASF322
 4516 1919 01       		.byte	0x1
 4517 191a 77       		.byte	0x77
 4518 191b E3020000 		.4byte	0x2e3
 4519 191f 01       		.byte	0x1
 4520 1920 05       		.byte	0x5
 4521 1921 03       		.byte	0x3
 4522 1922 00000000 		.4byte	param1
 4523 1926 31       		.uleb128 0x31
 4524 1927 480C0000 		.4byte	.LASF323
 4525 192b 01       		.byte	0x1
 4526 192c 77       		.byte	0x77
 4527 192d E3020000 		.4byte	0x2e3
 4528 1931 01       		.byte	0x1
 4529 1932 05       		.byte	0x5
 4530 1933 03       		.byte	0x3
 4531 1934 00000000 		.4byte	param2
 4532 1938 31       		.uleb128 0x31
 4533 1939 4F0C0000 		.4byte	.LASF324
 4534 193d 01       		.byte	0x1
 4535 193e 77       		.byte	0x77
 4536 193f E3020000 		.4byte	0x2e3
 4537 1943 01       		.byte	0x1
 4538 1944 05       		.byte	0x5
 4539 1945 03       		.byte	0x3
 4540 1946 00000000 		.4byte	param3
 4541 194a 31       		.uleb128 0x31
 4542 194b 560C0000 		.4byte	.LASF325
 4543 194f 01       		.byte	0x1
 4544 1950 77       		.byte	0x77
 4545 1951 E3020000 		.4byte	0x2e3
 4546 1955 01       		.byte	0x1
 4547 1956 05       		.byte	0x5
 4548 1957 03       		.byte	0x3
ARM GAS  C:\Users\CNous\AppData\Local\Temp\ccmZfnu5.s 			page 113


 4549 1958 00000000 		.4byte	param4
 4550 195c 31       		.uleb128 0x31
 4551 195d B2020000 		.4byte	.LASF326
 4552 1961 01       		.byte	0x1
 4553 1962 78       		.byte	0x78
 4554 1963 E3020000 		.4byte	0x2e3
 4555 1967 01       		.byte	0x1
 4556 1968 05       		.byte	0x5
 4557 1969 03       		.byte	0x3
 4558 196a 00000000 		.4byte	param1b
 4559 196e 31       		.uleb128 0x31
 4560 196f C0000000 		.4byte	.LASF327
 4561 1973 01       		.byte	0x1
 4562 1974 78       		.byte	0x78
 4563 1975 E3020000 		.4byte	0x2e3
 4564 1979 01       		.byte	0x1
 4565 197a 05       		.byte	0x5
 4566 197b 03       		.byte	0x3
 4567 197c 00000000 		.4byte	param2b
 4568 1980 31       		.uleb128 0x31
 4569 1981 69010000 		.4byte	.LASF328
 4570 1985 01       		.byte	0x1
 4571 1986 78       		.byte	0x78
 4572 1987 E3020000 		.4byte	0x2e3
 4573 198b 01       		.byte	0x1
 4574 198c 05       		.byte	0x5
 4575 198d 03       		.byte	0x3
 4576 198e 00000000 		.4byte	param3b
 4577 1992 31       		.uleb128 0x31
 4578 1993 C4010000 		.4byte	.LASF329
 4579 1997 01       		.byte	0x1
 4580 1998 78       		.byte	0x78
 4581 1999 E3020000 		.4byte	0x2e3
 4582 199d 01       		.byte	0x1
 4583 199e 05       		.byte	0x5
 4584 199f 03       		.byte	0x3
 4585 19a0 00000000 		.4byte	param4b
 4586 19a4 31       		.uleb128 0x31
 4587 19a5 C9080000 		.4byte	.LASF330
 4588 19a9 01       		.byte	0x1
 4589 19aa 79       		.byte	0x79
 4590 19ab D8020000 		.4byte	0x2d8
 4591 19af 01       		.byte	0x1
 4592 19b0 05       		.byte	0x5
 4593 19b1 03       		.byte	0x3
 4594 19b2 00000000 		.4byte	potSet
 4595 19b6 31       		.uleb128 0x31
 4596 19b7 93090000 		.4byte	.LASF331
 4597 19bb 01       		.byte	0x1
 4598 19bc 7A       		.byte	0x7a
 4599 19bd D8020000 		.4byte	0x2d8
 4600 19c1 01       		.byte	0x1
 4601 19c2 05       		.byte	0x5
 4602 19c3 03       		.byte	0x3
 4603 19c4 00000000 		.4byte	accroche1
 4604 19c8 31       		.uleb128 0x31
 4605 19c9 9D090000 		.4byte	.LASF332
ARM GAS  C:\Users\CNous\AppData\Local\Temp\ccmZfnu5.s 			page 114


 4606 19cd 01       		.byte	0x1
 4607 19ce 7A       		.byte	0x7a
 4608 19cf D8020000 		.4byte	0x2d8
 4609 19d3 01       		.byte	0x1
 4610 19d4 05       		.byte	0x5
 4611 19d5 03       		.byte	0x3
 4612 19d6 00000000 		.4byte	accroche2
 4613 19da 31       		.uleb128 0x31
 4614 19db A7090000 		.4byte	.LASF333
 4615 19df 01       		.byte	0x1
 4616 19e0 7A       		.byte	0x7a
 4617 19e1 D8020000 		.4byte	0x2d8
 4618 19e5 01       		.byte	0x1
 4619 19e6 05       		.byte	0x5
 4620 19e7 03       		.byte	0x3
 4621 19e8 00000000 		.4byte	accroche3
 4622 19ec 31       		.uleb128 0x31
 4623 19ed A7030000 		.4byte	.LASF334
 4624 19f1 01       		.byte	0x1
 4625 19f2 7A       		.byte	0x7a
 4626 19f3 D8020000 		.4byte	0x2d8
 4627 19f7 01       		.byte	0x1
 4628 19f8 05       		.byte	0x5
 4629 19f9 03       		.byte	0x3
 4630 19fa 00000000 		.4byte	accroche4
 4631 19fe 31       		.uleb128 0x31
 4632 19ff 1E0A0000 		.4byte	.LASF335
 4633 1a03 01       		.byte	0x1
 4634 1a04 7C       		.byte	0x7c
 4635 1a05 270E0000 		.4byte	0xe27
 4636 1a09 01       		.byte	0x1
 4637 1a0a 05       		.byte	0x5
 4638 1a0b 03       		.byte	0x3
 4639 1a0c 00000000 		.4byte	RCC_Clocks
 4640 1a10 31       		.uleb128 0x31
 4641 1a11 860D0000 		.4byte	.LASF336
 4642 1a15 01       		.byte	0x1
 4643 1a16 7D       		.byte	0x7d
 4644 1a17 DB0D0000 		.4byte	0xddb
 4645 1a1b 01       		.byte	0x1
 4646 1a1c 05       		.byte	0x5
 4647 1a1d 03       		.byte	0x3
 4648 1a1e 00000000 		.4byte	GPIO_InitStructure
 4649 1a22 31       		.uleb128 0x31
 4650 1a23 8F110000 		.4byte	.LASF337
 4651 1a27 01       		.byte	0x1
 4652 1a28 7F       		.byte	0x7f
 4653 1a29 4B040000 		.4byte	0x44b
 4654 1a2d 01       		.byte	0x1
 4655 1a2e 05       		.byte	0x5
 4656 1a2f 03       		.byte	0x3
 4657 1a30 00000000 		.4byte	TimingDelay
 4658 1a34 34       		.uleb128 0x34
 4659 1a35 01       		.byte	0x1
 4660 1a36 16110000 		.4byte	.LASF338
 4661 1a3a 01       		.byte	0x1
 4662 1a3b 4B       		.byte	0x4b
ARM GAS  C:\Users\CNous\AppData\Local\Temp\ccmZfnu5.s 			page 115


 4663 1a3c 01       		.byte	0x1
 4664 1a3d 01       		.byte	0x1
 4665 1a3e 4D1A0000 		.4byte	0x1a4d
 4666 1a42 35       		.uleb128 0x35
 4667 1a43 E3020000 		.4byte	0x2e3
 4668 1a47 35       		.uleb128 0x35
 4669 1a48 6F000000 		.4byte	0x6f
 4670 1a4c 00       		.byte	0
 4671 1a4d 36       		.uleb128 0x36
 4672 1a4e 01       		.byte	0x1
 4673 1a4f 26030000 		.4byte	.LASF371
 4674 1a53 0D       		.byte	0xd
 4675 1a54 5F       		.byte	0x5f
 4676 1a55 01       		.byte	0x1
 4677 1a56 88060000 		.4byte	0x688
 4678 1a5a 01       		.byte	0x1
 4679 1a5b 651A0000 		.4byte	0x1a65
 4680 1a5f 35       		.uleb128 0x35
 4681 1a60 D8020000 		.4byte	0x2d8
 4682 1a64 00       		.byte	0
 4683 1a65 37       		.uleb128 0x37
 4684 1a66 01       		.byte	0x1
 4685 1a67 980F0000 		.4byte	.LASF380
 4686 1a6b 0D       		.byte	0xd
 4687 1a6c 5B       		.byte	0x5b
 4688 1a6d 01       		.byte	0x1
 4689 1a6e F9020000 		.4byte	0x2f9
 4690 1a72 01       		.byte	0x1
 4691 1a73 38       		.uleb128 0x38
 4692 1a74 01       		.byte	0x1
 4693 1a75 DF010000 		.4byte	.LASF368
 4694 1a79 05       		.byte	0x5
 4695 1a7a 4002     		.2byte	0x240
 4696 1a7c 01       		.byte	0x1
 4697 1a7d 01       		.byte	0x1
 4698 1a7e 39       		.uleb128 0x39
 4699 1a7f 01       		.byte	0x1
 4700 1a80 78110000 		.4byte	.LASF339
 4701 1a84 08       		.byte	0x8
 4702 1a85 D701     		.2byte	0x1d7
 4703 1a87 01       		.byte	0x1
 4704 1a88 01       		.byte	0x1
 4705 1a89 981A0000 		.4byte	0x1a98
 4706 1a8d 35       		.uleb128 0x35
 4707 1a8e F9020000 		.4byte	0x2f9
 4708 1a92 35       		.uleb128 0x35
 4709 1a93 AA060000 		.4byte	0x6aa
 4710 1a97 00       		.byte	0
 4711 1a98 39       		.uleb128 0x39
 4712 1a99 01       		.byte	0x1
 4713 1a9a 54050000 		.4byte	.LASF340
 4714 1a9e 08       		.byte	0x8
 4715 1a9f DB01     		.2byte	0x1db
 4716 1aa1 01       		.byte	0x1
 4717 1aa2 01       		.byte	0x1
 4718 1aa3 B21A0000 		.4byte	0x1ab2
 4719 1aa7 35       		.uleb128 0x35
ARM GAS  C:\Users\CNous\AppData\Local\Temp\ccmZfnu5.s 			page 116


 4720 1aa8 F9020000 		.4byte	0x2f9
 4721 1aac 35       		.uleb128 0x35
 4722 1aad AA060000 		.4byte	0x6aa
 4723 1ab1 00       		.byte	0
 4724 1ab2 39       		.uleb128 0x39
 4725 1ab3 01       		.byte	0x1
 4726 1ab4 9D050000 		.4byte	.LASF341
 4727 1ab8 06       		.byte	0x6
 4728 1ab9 2F02     		.2byte	0x22f
 4729 1abb 01       		.byte	0x1
 4730 1abc 01       		.byte	0x1
 4731 1abd CC1A0000 		.4byte	0x1acc
 4732 1ac1 35       		.uleb128 0x35
 4733 1ac2 CC1A0000 		.4byte	0x1acc
 4734 1ac6 35       		.uleb128 0x35
 4735 1ac7 D21A0000 		.4byte	0x1ad2
 4736 1acb 00       		.byte	0
 4737 1acc 32       		.uleb128 0x32
 4738 1acd 04       		.byte	0x4
 4739 1ace 59080000 		.4byte	0x859
 4740 1ad2 32       		.uleb128 0x32
 4741 1ad3 04       		.byte	0x4
 4742 1ad4 E30C0000 		.4byte	0xce3
 4743 1ad8 39       		.uleb128 0x39
 4744 1ad9 01       		.byte	0x1
 4745 1ada 820C0000 		.4byte	.LASF342
 4746 1ade 06       		.byte	0x6
 4747 1adf 3102     		.2byte	0x231
 4748 1ae1 01       		.byte	0x1
 4749 1ae2 01       		.byte	0x1
 4750 1ae3 F21A0000 		.4byte	0x1af2
 4751 1ae7 35       		.uleb128 0x35
 4752 1ae8 CC1A0000 		.4byte	0x1acc
 4753 1aec 35       		.uleb128 0x35
 4754 1aed AA060000 		.4byte	0x6aa
 4755 1af1 00       		.byte	0
 4756 1af2 39       		.uleb128 0x39
 4757 1af3 01       		.byte	0x1
 4758 1af4 BD060000 		.4byte	.LASF343
 4759 1af8 07       		.byte	0x7
 4760 1af9 7601     		.2byte	0x176
 4761 1afb 01       		.byte	0x1
 4762 1afc 01       		.byte	0x1
 4763 1afd 0C1B0000 		.4byte	0x1b0c
 4764 1b01 35       		.uleb128 0x35
 4765 1b02 0C1B0000 		.4byte	0x1b0c
 4766 1b06 35       		.uleb128 0x35
 4767 1b07 121B0000 		.4byte	0x1b12
 4768 1b0b 00       		.byte	0
 4769 1b0c 32       		.uleb128 0x32
 4770 1b0d 04       		.byte	0x4
 4771 1b0e 0A090000 		.4byte	0x90a
 4772 1b12 32       		.uleb128 0x32
 4773 1b13 04       		.byte	0x4
 4774 1b14 DB0D0000 		.4byte	0xddb
 4775 1b18 39       		.uleb128 0x39
 4776 1b19 01       		.byte	0x1
ARM GAS  C:\Users\CNous\AppData\Local\Temp\ccmZfnu5.s 			page 117


 4777 1b1a F9100000 		.4byte	.LASF344
 4778 1b1e 05       		.byte	0x5
 4779 1b1f 4502     		.2byte	0x245
 4780 1b21 01       		.byte	0x1
 4781 1b22 01       		.byte	0x1
 4782 1b23 2D1B0000 		.4byte	0x1b2d
 4783 1b27 35       		.uleb128 0x35
 4784 1b28 2D1B0000 		.4byte	0x1b2d
 4785 1b2c 00       		.byte	0
 4786 1b2d 32       		.uleb128 0x32
 4787 1b2e 04       		.byte	0x4
 4788 1b2f FD0B0000 		.4byte	0xbfd
 4789 1b33 39       		.uleb128 0x39
 4790 1b34 01       		.byte	0x1
 4791 1b35 E60F0000 		.4byte	.LASF345
 4792 1b39 05       		.byte	0x5
 4793 1b3a 4302     		.2byte	0x243
 4794 1b3c 01       		.byte	0x1
 4795 1b3d 01       		.byte	0x1
 4796 1b3e 4D1B0000 		.4byte	0x1b4d
 4797 1b42 35       		.uleb128 0x35
 4798 1b43 4D1B0000 		.4byte	0x1b4d
 4799 1b47 35       		.uleb128 0x35
 4800 1b48 531B0000 		.4byte	0x1b53
 4801 1b4c 00       		.byte	0
 4802 1b4d 32       		.uleb128 0x32
 4803 1b4e 04       		.byte	0x4
 4804 1b4f EA070000 		.4byte	0x7ea
 4805 1b53 32       		.uleb128 0x32
 4806 1b54 04       		.byte	0x4
 4807 1b55 B10B0000 		.4byte	0xbb1
 4808 1b59 39       		.uleb128 0x39
 4809 1b5a 01       		.byte	0x1
 4810 1b5b 3B050000 		.4byte	.LASF346
 4811 1b5f 05       		.byte	0x5
 4812 1b60 5302     		.2byte	0x253
 4813 1b62 01       		.byte	0x1
 4814 1b63 01       		.byte	0x1
 4815 1b64 7D1B0000 		.4byte	0x1b7d
 4816 1b68 35       		.uleb128 0x35
 4817 1b69 4D1B0000 		.4byte	0x1b4d
 4818 1b6d 35       		.uleb128 0x35
 4819 1b6e D8020000 		.4byte	0x2d8
 4820 1b72 35       		.uleb128 0x35
 4821 1b73 D8020000 		.4byte	0x2d8
 4822 1b77 35       		.uleb128 0x35
 4823 1b78 D8020000 		.4byte	0x2d8
 4824 1b7c 00       		.byte	0
 4825 1b7d 39       		.uleb128 0x39
 4826 1b7e 01       		.byte	0x1
 4827 1b7f F4040000 		.4byte	.LASF347
 4828 1b83 05       		.byte	0x5
 4829 1b84 5F02     		.2byte	0x25f
 4830 1b86 01       		.byte	0x1
 4831 1b87 01       		.byte	0x1
 4832 1b88 971B0000 		.4byte	0x1b97
 4833 1b8c 35       		.uleb128 0x35
ARM GAS  C:\Users\CNous\AppData\Local\Temp\ccmZfnu5.s 			page 118


 4834 1b8d 4D1B0000 		.4byte	0x1b4d
 4835 1b91 35       		.uleb128 0x35
 4836 1b92 AA060000 		.4byte	0x6aa
 4837 1b96 00       		.byte	0
 4838 1b97 39       		.uleb128 0x39
 4839 1b98 01       		.byte	0x1
 4840 1b99 A1040000 		.4byte	.LASF348
 4841 1b9d 05       		.byte	0x5
 4842 1b9e 5E02     		.2byte	0x25e
 4843 1ba0 01       		.byte	0x1
 4844 1ba1 01       		.byte	0x1
 4845 1ba2 B11B0000 		.4byte	0x1bb1
 4846 1ba6 35       		.uleb128 0x35
 4847 1ba7 4D1B0000 		.4byte	0x1b4d
 4848 1bab 35       		.uleb128 0x35
 4849 1bac AA060000 		.4byte	0x6aa
 4850 1bb0 00       		.byte	0
 4851 1bb1 39       		.uleb128 0x39
 4852 1bb2 01       		.byte	0x1
 4853 1bb3 360D0000 		.4byte	.LASF349
 4854 1bb7 05       		.byte	0x5
 4855 1bb8 4702     		.2byte	0x247
 4856 1bba 01       		.byte	0x1
 4857 1bbb 01       		.byte	0x1
 4858 1bbc CB1B0000 		.4byte	0x1bcb
 4859 1bc0 35       		.uleb128 0x35
 4860 1bc1 4D1B0000 		.4byte	0x1b4d
 4861 1bc5 35       		.uleb128 0x35
 4862 1bc6 AA060000 		.4byte	0x6aa
 4863 1bca 00       		.byte	0
 4864 1bcb 39       		.uleb128 0x39
 4865 1bcc 01       		.byte	0x1
 4866 1bcd 440A0000 		.4byte	.LASF350
 4867 1bd1 05       		.byte	0x5
 4868 1bd2 5702     		.2byte	0x257
 4869 1bd4 01       		.byte	0x1
 4870 1bd5 01       		.byte	0x1
 4871 1bd6 E51B0000 		.4byte	0x1be5
 4872 1bda 35       		.uleb128 0x35
 4873 1bdb 4D1B0000 		.4byte	0x1b4d
 4874 1bdf 35       		.uleb128 0x35
 4875 1be0 AA060000 		.4byte	0x6aa
 4876 1be4 00       		.byte	0
 4877 1be5 39       		.uleb128 0x39
 4878 1be6 01       		.byte	0x1
 4879 1be7 38030000 		.4byte	.LASF351
 4880 1beb 05       		.byte	0x5
 4881 1bec 5402     		.2byte	0x254
 4882 1bee 01       		.byte	0x1
 4883 1bef 01       		.byte	0x1
 4884 1bf0 FA1B0000 		.4byte	0x1bfa
 4885 1bf4 35       		.uleb128 0x35
 4886 1bf5 4D1B0000 		.4byte	0x1b4d
 4887 1bf9 00       		.byte	0
 4888 1bfa 39       		.uleb128 0x39
 4889 1bfb 01       		.byte	0x1
 4890 1bfc EF030000 		.4byte	.LASF352
ARM GAS  C:\Users\CNous\AppData\Local\Temp\ccmZfnu5.s 			page 119


 4891 1c00 08       		.byte	0x8
 4892 1c01 DA01     		.2byte	0x1da
 4893 1c03 01       		.byte	0x1
 4894 1c04 01       		.byte	0x1
 4895 1c05 141C0000 		.4byte	0x1c14
 4896 1c09 35       		.uleb128 0x35
 4897 1c0a F9020000 		.4byte	0x2f9
 4898 1c0e 35       		.uleb128 0x35
 4899 1c0f AA060000 		.4byte	0x6aa
 4900 1c13 00       		.byte	0
 4901 1c14 39       		.uleb128 0x39
 4902 1c15 01       		.byte	0x1
 4903 1c16 C40F0000 		.4byte	.LASF353
 4904 1c1a 09       		.byte	0x9
 4905 1c1b FC03     		.2byte	0x3fc
 4906 1c1d 01       		.byte	0x1
 4907 1c1e 01       		.byte	0x1
 4908 1c1f 291C0000 		.4byte	0x1c29
 4909 1c23 35       		.uleb128 0x35
 4910 1c24 291C0000 		.4byte	0x1c29
 4911 1c28 00       		.byte	0
 4912 1c29 32       		.uleb128 0x32
 4913 1c2a 04       		.byte	0x4
 4914 1c2b 3A0B0000 		.4byte	0xb3a
 4915 1c2f 34       		.uleb128 0x34
 4916 1c30 01       		.byte	0x1
 4917 1c31 F9070000 		.4byte	.LASF354
 4918 1c35 0A       		.byte	0xa
 4919 1c36 99       		.byte	0x99
 4920 1c37 01       		.byte	0x1
 4921 1c38 01       		.byte	0x1
 4922 1c39 431C0000 		.4byte	0x1c43
 4923 1c3d 35       		.uleb128 0x35
 4924 1c3e 431C0000 		.4byte	0x1c43
 4925 1c42 00       		.byte	0
 4926 1c43 32       		.uleb128 0x32
 4927 1c44 04       		.byte	0x4
 4928 1c45 CD0E0000 		.4byte	0xecd
 4929 1c49 39       		.uleb128 0x39
 4930 1c4a 01       		.byte	0x1
 4931 1c4b 61100000 		.4byte	.LASF355
 4932 1c4f 09       		.byte	0x9
 4933 1c50 FD03     		.2byte	0x3fd
 4934 1c52 01       		.byte	0x1
 4935 1c53 01       		.byte	0x1
 4936 1c54 631C0000 		.4byte	0x1c63
 4937 1c58 35       		.uleb128 0x35
 4938 1c59 291C0000 		.4byte	0x1c29
 4939 1c5d 35       		.uleb128 0x35
 4940 1c5e 631C0000 		.4byte	0x1c63
 4941 1c62 00       		.byte	0
 4942 1c63 32       		.uleb128 0x32
 4943 1c64 04       		.byte	0x4
 4944 1c65 810E0000 		.4byte	0xe81
 4945 1c69 39       		.uleb128 0x39
 4946 1c6a 01       		.byte	0x1
 4947 1c6b 770A0000 		.4byte	.LASF356
ARM GAS  C:\Users\CNous\AppData\Local\Temp\ccmZfnu5.s 			page 120


 4948 1c6f 09       		.byte	0x9
 4949 1c70 FF03     		.2byte	0x3ff
 4950 1c72 01       		.byte	0x1
 4951 1c73 01       		.byte	0x1
 4952 1c74 881C0000 		.4byte	0x1c88
 4953 1c78 35       		.uleb128 0x35
 4954 1c79 291C0000 		.4byte	0x1c29
 4955 1c7d 35       		.uleb128 0x35
 4956 1c7e E3020000 		.4byte	0x2e3
 4957 1c82 35       		.uleb128 0x35
 4958 1c83 E3020000 		.4byte	0x2e3
 4959 1c87 00       		.byte	0
 4960 1c88 39       		.uleb128 0x39
 4961 1c89 01       		.byte	0x1
 4962 1c8a 2F0C0000 		.4byte	.LASF357
 4963 1c8e 09       		.byte	0x9
 4964 1c8f 0204     		.2byte	0x402
 4965 1c91 01       		.byte	0x1
 4966 1c92 01       		.byte	0x1
 4967 1c93 A21C0000 		.4byte	0x1ca2
 4968 1c97 35       		.uleb128 0x35
 4969 1c98 291C0000 		.4byte	0x1c29
 4970 1c9c 35       		.uleb128 0x35
 4971 1c9d F9020000 		.4byte	0x2f9
 4972 1ca1 00       		.byte	0
 4973 1ca2 39       		.uleb128 0x39
 4974 1ca3 01       		.byte	0x1
 4975 1ca4 DE0D0000 		.4byte	.LASF358
 4976 1ca8 09       		.byte	0x9
 4977 1ca9 0504     		.2byte	0x405
 4978 1cab 01       		.byte	0x1
 4979 1cac 01       		.byte	0x1
 4980 1cad BC1C0000 		.4byte	0x1cbc
 4981 1cb1 35       		.uleb128 0x35
 4982 1cb2 291C0000 		.4byte	0x1c29
 4983 1cb6 35       		.uleb128 0x35
 4984 1cb7 AA060000 		.4byte	0x6aa
 4985 1cbb 00       		.byte	0
 4986 1cbc 39       		.uleb128 0x39
 4987 1cbd 01       		.byte	0x1
 4988 1cbe 47010000 		.4byte	.LASF359
 4989 1cc2 09       		.byte	0x9
 4990 1cc3 0604     		.2byte	0x406
 4991 1cc5 01       		.byte	0x1
 4992 1cc6 01       		.byte	0x1
 4993 1cc7 D61C0000 		.4byte	0x1cd6
 4994 1ccb 35       		.uleb128 0x35
 4995 1ccc 291C0000 		.4byte	0x1c29
 4996 1cd0 35       		.uleb128 0x35
 4997 1cd1 E3020000 		.4byte	0x2e3
 4998 1cd5 00       		.byte	0
 4999 1cd6 39       		.uleb128 0x39
 5000 1cd7 01       		.byte	0x1
 5001 1cd8 2F0A0000 		.4byte	.LASF360
 5002 1cdc 09       		.byte	0x9
 5003 1cdd 0704     		.2byte	0x407
 5004 1cdf 01       		.byte	0x1
ARM GAS  C:\Users\CNous\AppData\Local\Temp\ccmZfnu5.s 			page 121


 5005 1ce0 01       		.byte	0x1
 5006 1ce1 F01C0000 		.4byte	0x1cf0
 5007 1ce5 35       		.uleb128 0x35
 5008 1ce6 291C0000 		.4byte	0x1c29
 5009 1cea 35       		.uleb128 0x35
 5010 1ceb AA060000 		.4byte	0x6aa
 5011 1cef 00       		.byte	0
 5012 1cf0 39       		.uleb128 0x39
 5013 1cf1 01       		.byte	0x1
 5014 1cf2 640B0000 		.4byte	.LASF361
 5015 1cf6 09       		.byte	0x9
 5016 1cf7 0804     		.2byte	0x408
 5017 1cf9 01       		.byte	0x1
 5018 1cfa 01       		.byte	0x1
 5019 1cfb 0A1D0000 		.4byte	0x1d0a
 5020 1cff 35       		.uleb128 0x35
 5021 1d00 291C0000 		.4byte	0x1c29
 5022 1d04 35       		.uleb128 0x35
 5023 1d05 E3020000 		.4byte	0x2e3
 5024 1d09 00       		.byte	0
 5025 1d0a 39       		.uleb128 0x39
 5026 1d0b 01       		.byte	0x1
 5027 1d0c FB0E0000 		.4byte	.LASF362
 5028 1d10 09       		.byte	0x9
 5029 1d11 4604     		.2byte	0x446
 5030 1d13 01       		.byte	0x1
 5031 1d14 01       		.byte	0x1
 5032 1d15 291D0000 		.4byte	0x1d29
 5033 1d19 35       		.uleb128 0x35
 5034 1d1a 291C0000 		.4byte	0x1c29
 5035 1d1e 35       		.uleb128 0x35
 5036 1d1f E3020000 		.4byte	0x2e3
 5037 1d23 35       		.uleb128 0x35
 5038 1d24 AA060000 		.4byte	0x6aa
 5039 1d28 00       		.byte	0
 5040 1d29 39       		.uleb128 0x39
 5041 1d2a 01       		.byte	0x1
 5042 1d2b 67000000 		.4byte	.LASF363
 5043 1d2f 09       		.byte	0x9
 5044 1d30 0A04     		.2byte	0x40a
 5045 1d32 01       		.byte	0x1
 5046 1d33 01       		.byte	0x1
 5047 1d34 431D0000 		.4byte	0x1d43
 5048 1d38 35       		.uleb128 0x35
 5049 1d39 291C0000 		.4byte	0x1c29
 5050 1d3d 35       		.uleb128 0x35
 5051 1d3e AA060000 		.4byte	0x6aa
 5052 1d42 00       		.byte	0
 5053 1d43 34       		.uleb128 0x34
 5054 1d44 01       		.byte	0x1
 5055 1d45 B8080000 		.4byte	.LASF364
 5056 1d49 0B       		.byte	0xb
 5057 1d4a 82       		.byte	0x82
 5058 1d4b 01       		.byte	0x1
 5059 1d4c 01       		.byte	0x1
 5060 1d4d 571D0000 		.4byte	0x1d57
 5061 1d51 35       		.uleb128 0x35
ARM GAS  C:\Users\CNous\AppData\Local\Temp\ccmZfnu5.s 			page 122


 5062 1d52 F90E0000 		.4byte	0xef9
 5063 1d56 00       		.byte	0
 5064 1d57 34       		.uleb128 0x34
 5065 1d58 01       		.byte	0x1
 5066 1d59 0E000000 		.4byte	.LASF365
 5067 1d5d 0B       		.byte	0xb
 5068 1d5e 86       		.byte	0x86
 5069 1d5f 01       		.byte	0x1
 5070 1d60 01       		.byte	0x1
 5071 1d61 701D0000 		.4byte	0x1d70
 5072 1d65 35       		.uleb128 0x35
 5073 1d66 130F0000 		.4byte	0xf13
 5074 1d6a 35       		.uleb128 0x35
 5075 1d6b 330F0000 		.4byte	0xf33
 5076 1d6f 00       		.byte	0
 5077 1d70 39       		.uleb128 0x39
 5078 1d71 01       		.byte	0x1
 5079 1d72 04020000 		.4byte	.LASF366
 5080 1d76 08       		.byte	0x8
 5081 1d77 D801     		.2byte	0x1d8
 5082 1d79 01       		.byte	0x1
 5083 1d7a 01       		.byte	0x1
 5084 1d7b 8A1D0000 		.4byte	0x1d8a
 5085 1d7f 35       		.uleb128 0x35
 5086 1d80 F9020000 		.4byte	0x2f9
 5087 1d84 35       		.uleb128 0x35
 5088 1d85 AA060000 		.4byte	0x6aa
 5089 1d89 00       		.byte	0
 5090 1d8a 34       		.uleb128 0x34
 5091 1d8b 01       		.byte	0x1
 5092 1d8c 1E070000 		.4byte	.LASF367
 5093 1d90 0D       		.byte	0xd
 5094 1d91 58       		.byte	0x58
 5095 1d92 01       		.byte	0x1
 5096 1d93 01       		.byte	0x1
 5097 1d94 9E1D0000 		.4byte	0x1d9e
 5098 1d98 35       		.uleb128 0x35
 5099 1d99 AA060000 		.4byte	0x6aa
 5100 1d9d 00       		.byte	0
 5101 1d9e 3A       		.uleb128 0x3a
 5102 1d9f 01       		.byte	0x1
 5103 1da0 A30C0000 		.4byte	.LASF369
 5104 1da4 01       		.byte	0x1
 5105 1da5 4A       		.byte	0x4a
 5106 1da6 01       		.byte	0x1
 5107 1da7 01       		.byte	0x1
 5108 1da8 3A       		.uleb128 0x3a
 5109 1da9 01       		.byte	0x1
 5110 1daa A6050000 		.4byte	.LASF370
 5111 1dae 0E       		.byte	0xe
 5112 1daf 1E       		.byte	0x1e
 5113 1db0 01       		.byte	0x1
 5114 1db1 01       		.byte	0x1
 5115 1db2 36       		.uleb128 0x36
 5116 1db3 01       		.byte	0x1
 5117 1db4 F60F0000 		.4byte	.LASF372
 5118 1db8 0F       		.byte	0xf
ARM GAS  C:\Users\CNous\AppData\Local\Temp\ccmZfnu5.s 			page 123


 5119 1db9 FB       		.byte	0xfb
 5120 1dba 01       		.byte	0x1
 5121 1dbb F9020000 		.4byte	0x2f9
 5122 1dbf 01       		.byte	0x1
 5123 1dc0 D41D0000 		.4byte	0x1dd4
 5124 1dc4 35       		.uleb128 0x35
 5125 1dc5 E3020000 		.4byte	0x2e3
 5126 1dc9 35       		.uleb128 0x35
 5127 1dca D8020000 		.4byte	0x2d8
 5128 1dce 35       		.uleb128 0x35
 5129 1dcf F9020000 		.4byte	0x2f9
 5130 1dd3 00       		.byte	0
 5131 1dd4 36       		.uleb128 0x36
 5132 1dd5 01       		.byte	0x1
 5133 1dd6 6F0D0000 		.4byte	.LASF373
 5134 1dda 0F       		.byte	0xf
 5135 1ddb FD       		.byte	0xfd
 5136 1ddc 01       		.byte	0x1
 5137 1ddd F9020000 		.4byte	0x2f9
 5138 1de1 01       		.byte	0x1
 5139 1de2 F11D0000 		.4byte	0x1df1
 5140 1de6 35       		.uleb128 0x35
 5141 1de7 F11D0000 		.4byte	0x1df1
 5142 1deb 35       		.uleb128 0x35
 5143 1dec F9020000 		.4byte	0x2f9
 5144 1df0 00       		.byte	0
 5145 1df1 32       		.uleb128 0x32
 5146 1df2 04       		.byte	0x4
 5147 1df3 E3020000 		.4byte	0x2e3
 5148 1df7 00       		.byte	0
 5149              		.section	.debug_abbrev,"",%progbits
 5150              	.Ldebug_abbrev0:
 5151 0000 01       		.uleb128 0x1
 5152 0001 11       		.uleb128 0x11
 5153 0002 01       		.byte	0x1
 5154 0003 25       		.uleb128 0x25
 5155 0004 0E       		.uleb128 0xe
 5156 0005 13       		.uleb128 0x13
 5157 0006 0B       		.uleb128 0xb
 5158 0007 03       		.uleb128 0x3
 5159 0008 0E       		.uleb128 0xe
 5160 0009 1B       		.uleb128 0x1b
 5161 000a 0E       		.uleb128 0xe
 5162 000b 55       		.uleb128 0x55
 5163 000c 06       		.uleb128 0x6
 5164 000d 11       		.uleb128 0x11
 5165 000e 01       		.uleb128 0x1
 5166 000f 52       		.uleb128 0x52
 5167 0010 01       		.uleb128 0x1
 5168 0011 10       		.uleb128 0x10
 5169 0012 06       		.uleb128 0x6
 5170 0013 00       		.byte	0
 5171 0014 00       		.byte	0
 5172 0015 02       		.uleb128 0x2
 5173 0016 24       		.uleb128 0x24
 5174 0017 00       		.byte	0
 5175 0018 0B       		.uleb128 0xb
ARM GAS  C:\Users\CNous\AppData\Local\Temp\ccmZfnu5.s 			page 124


 5176 0019 0B       		.uleb128 0xb
 5177 001a 3E       		.uleb128 0x3e
 5178 001b 0B       		.uleb128 0xb
 5179 001c 03       		.uleb128 0x3
 5180 001d 0E       		.uleb128 0xe
 5181 001e 00       		.byte	0
 5182 001f 00       		.byte	0
 5183 0020 03       		.uleb128 0x3
 5184 0021 24       		.uleb128 0x24
 5185 0022 00       		.byte	0
 5186 0023 0B       		.uleb128 0xb
 5187 0024 0B       		.uleb128 0xb
 5188 0025 3E       		.uleb128 0x3e
 5189 0026 0B       		.uleb128 0xb
 5190 0027 03       		.uleb128 0x3
 5191 0028 08       		.uleb128 0x8
 5192 0029 00       		.byte	0
 5193 002a 00       		.byte	0
 5194 002b 04       		.uleb128 0x4
 5195 002c 04       		.uleb128 0x4
 5196 002d 01       		.byte	0x1
 5197 002e 03       		.uleb128 0x3
 5198 002f 0E       		.uleb128 0xe
 5199 0030 0B       		.uleb128 0xb
 5200 0031 0B       		.uleb128 0xb
 5201 0032 3A       		.uleb128 0x3a
 5202 0033 0B       		.uleb128 0xb
 5203 0034 3B       		.uleb128 0x3b
 5204 0035 0B       		.uleb128 0xb
 5205 0036 01       		.uleb128 0x1
 5206 0037 13       		.uleb128 0x13
 5207 0038 00       		.byte	0
 5208 0039 00       		.byte	0
 5209 003a 05       		.uleb128 0x5
 5210 003b 28       		.uleb128 0x28
 5211 003c 00       		.byte	0
 5212 003d 03       		.uleb128 0x3
 5213 003e 0E       		.uleb128 0xe
 5214 003f 1C       		.uleb128 0x1c
 5215 0040 0D       		.uleb128 0xd
 5216 0041 00       		.byte	0
 5217 0042 00       		.byte	0
 5218 0043 06       		.uleb128 0x6
 5219 0044 16       		.uleb128 0x16
 5220 0045 00       		.byte	0
 5221 0046 03       		.uleb128 0x3
 5222 0047 0E       		.uleb128 0xe
 5223 0048 3A       		.uleb128 0x3a
 5224 0049 0B       		.uleb128 0xb
 5225 004a 3B       		.uleb128 0x3b
 5226 004b 0B       		.uleb128 0xb
 5227 004c 49       		.uleb128 0x49
 5228 004d 13       		.uleb128 0x13
 5229 004e 00       		.byte	0
 5230 004f 00       		.byte	0
 5231 0050 07       		.uleb128 0x7
 5232 0051 13       		.uleb128 0x13
ARM GAS  C:\Users\CNous\AppData\Local\Temp\ccmZfnu5.s 			page 125


 5233 0052 01       		.byte	0x1
 5234 0053 0B       		.uleb128 0xb
 5235 0054 05       		.uleb128 0x5
 5236 0055 3A       		.uleb128 0x3a
 5237 0056 0B       		.uleb128 0xb
 5238 0057 3B       		.uleb128 0x3b
 5239 0058 05       		.uleb128 0x5
 5240 0059 01       		.uleb128 0x1
 5241 005a 13       		.uleb128 0x13
 5242 005b 00       		.byte	0
 5243 005c 00       		.byte	0
 5244 005d 08       		.uleb128 0x8
 5245 005e 0D       		.uleb128 0xd
 5246 005f 00       		.byte	0
 5247 0060 03       		.uleb128 0x3
 5248 0061 0E       		.uleb128 0xe
 5249 0062 3A       		.uleb128 0x3a
 5250 0063 0B       		.uleb128 0xb
 5251 0064 3B       		.uleb128 0x3b
 5252 0065 05       		.uleb128 0x5
 5253 0066 49       		.uleb128 0x49
 5254 0067 13       		.uleb128 0x13
 5255 0068 38       		.uleb128 0x38
 5256 0069 0A       		.uleb128 0xa
 5257 006a 00       		.byte	0
 5258 006b 00       		.byte	0
 5259 006c 09       		.uleb128 0x9
 5260 006d 0D       		.uleb128 0xd
 5261 006e 00       		.byte	0
 5262 006f 03       		.uleb128 0x3
 5263 0070 08       		.uleb128 0x8
 5264 0071 3A       		.uleb128 0x3a
 5265 0072 0B       		.uleb128 0xb
 5266 0073 3B       		.uleb128 0x3b
 5267 0074 05       		.uleb128 0x5
 5268 0075 49       		.uleb128 0x49
 5269 0076 13       		.uleb128 0x13
 5270 0077 38       		.uleb128 0x38
 5271 0078 0A       		.uleb128 0xa
 5272 0079 00       		.byte	0
 5273 007a 00       		.byte	0
 5274 007b 0A       		.uleb128 0xa
 5275 007c 01       		.uleb128 0x1
 5276 007d 01       		.byte	0x1
 5277 007e 49       		.uleb128 0x49
 5278 007f 13       		.uleb128 0x13
 5279 0080 01       		.uleb128 0x1
 5280 0081 13       		.uleb128 0x13
 5281 0082 00       		.byte	0
 5282 0083 00       		.byte	0
 5283 0084 0B       		.uleb128 0xb
 5284 0085 21       		.uleb128 0x21
 5285 0086 00       		.byte	0
 5286 0087 49       		.uleb128 0x49
 5287 0088 13       		.uleb128 0x13
 5288 0089 2F       		.uleb128 0x2f
 5289 008a 0B       		.uleb128 0xb
ARM GAS  C:\Users\CNous\AppData\Local\Temp\ccmZfnu5.s 			page 126


 5290 008b 00       		.byte	0
 5291 008c 00       		.byte	0
 5292 008d 0C       		.uleb128 0xc
 5293 008e 35       		.uleb128 0x35
 5294 008f 00       		.byte	0
 5295 0090 49       		.uleb128 0x49
 5296 0091 13       		.uleb128 0x13
 5297 0092 00       		.byte	0
 5298 0093 00       		.byte	0
 5299 0094 0D       		.uleb128 0xd
 5300 0095 21       		.uleb128 0x21
 5301 0096 00       		.byte	0
 5302 0097 49       		.uleb128 0x49
 5303 0098 13       		.uleb128 0x13
 5304 0099 2F       		.uleb128 0x2f
 5305 009a 05       		.uleb128 0x5
 5306 009b 00       		.byte	0
 5307 009c 00       		.byte	0
 5308 009d 0E       		.uleb128 0xe
 5309 009e 16       		.uleb128 0x16
 5310 009f 00       		.byte	0
 5311 00a0 03       		.uleb128 0x3
 5312 00a1 0E       		.uleb128 0xe
 5313 00a2 3A       		.uleb128 0x3a
 5314 00a3 0B       		.uleb128 0xb
 5315 00a4 3B       		.uleb128 0x3b
 5316 00a5 05       		.uleb128 0x5
 5317 00a6 49       		.uleb128 0x49
 5318 00a7 13       		.uleb128 0x13
 5319 00a8 00       		.byte	0
 5320 00a9 00       		.byte	0
 5321 00aa 0F       		.uleb128 0xf
 5322 00ab 13       		.uleb128 0x13
 5323 00ac 01       		.byte	0x1
 5324 00ad 0B       		.uleb128 0xb
 5325 00ae 0B       		.uleb128 0xb
 5326 00af 3A       		.uleb128 0x3a
 5327 00b0 0B       		.uleb128 0xb
 5328 00b1 3B       		.uleb128 0x3b
 5329 00b2 05       		.uleb128 0x5
 5330 00b3 01       		.uleb128 0x1
 5331 00b4 13       		.uleb128 0x13
 5332 00b5 00       		.byte	0
 5333 00b6 00       		.byte	0
 5334 00b7 10       		.uleb128 0x10
 5335 00b8 26       		.uleb128 0x26
 5336 00b9 00       		.byte	0
 5337 00ba 49       		.uleb128 0x49
 5338 00bb 13       		.uleb128 0x13
 5339 00bc 00       		.byte	0
 5340 00bd 00       		.byte	0
 5341 00be 11       		.uleb128 0x11
 5342 00bf 04       		.uleb128 0x4
 5343 00c0 01       		.byte	0x1
 5344 00c1 0B       		.uleb128 0xb
 5345 00c2 0B       		.uleb128 0xb
 5346 00c3 3A       		.uleb128 0x3a
ARM GAS  C:\Users\CNous\AppData\Local\Temp\ccmZfnu5.s 			page 127


 5347 00c4 0B       		.uleb128 0xb
 5348 00c5 3B       		.uleb128 0x3b
 5349 00c6 05       		.uleb128 0x5
 5350 00c7 01       		.uleb128 0x1
 5351 00c8 13       		.uleb128 0x13
 5352 00c9 00       		.byte	0
 5353 00ca 00       		.byte	0
 5354 00cb 12       		.uleb128 0x12
 5355 00cc 28       		.uleb128 0x28
 5356 00cd 00       		.byte	0
 5357 00ce 03       		.uleb128 0x3
 5358 00cf 08       		.uleb128 0x8
 5359 00d0 1C       		.uleb128 0x1c
 5360 00d1 0D       		.uleb128 0xd
 5361 00d2 00       		.byte	0
 5362 00d3 00       		.byte	0
 5363 00d4 13       		.uleb128 0x13
 5364 00d5 13       		.uleb128 0x13
 5365 00d6 01       		.byte	0x1
 5366 00d7 0B       		.uleb128 0xb
 5367 00d8 0B       		.uleb128 0xb
 5368 00d9 3A       		.uleb128 0x3a
 5369 00da 0B       		.uleb128 0xb
 5370 00db 3B       		.uleb128 0x3b
 5371 00dc 0B       		.uleb128 0xb
 5372 00dd 01       		.uleb128 0x1
 5373 00de 13       		.uleb128 0x13
 5374 00df 00       		.byte	0
 5375 00e0 00       		.byte	0
 5376 00e1 14       		.uleb128 0x14
 5377 00e2 0D       		.uleb128 0xd
 5378 00e3 00       		.byte	0
 5379 00e4 03       		.uleb128 0x3
 5380 00e5 0E       		.uleb128 0xe
 5381 00e6 3A       		.uleb128 0x3a
 5382 00e7 0B       		.uleb128 0xb
 5383 00e8 3B       		.uleb128 0x3b
 5384 00e9 0B       		.uleb128 0xb
 5385 00ea 49       		.uleb128 0x49
 5386 00eb 13       		.uleb128 0x13
 5387 00ec 38       		.uleb128 0x38
 5388 00ed 0A       		.uleb128 0xa
 5389 00ee 00       		.byte	0
 5390 00ef 00       		.byte	0
 5391 00f0 15       		.uleb128 0x15
 5392 00f1 04       		.uleb128 0x4
 5393 00f2 01       		.byte	0x1
 5394 00f3 0B       		.uleb128 0xb
 5395 00f4 0B       		.uleb128 0xb
 5396 00f5 3A       		.uleb128 0x3a
 5397 00f6 0B       		.uleb128 0xb
 5398 00f7 3B       		.uleb128 0x3b
 5399 00f8 0B       		.uleb128 0xb
 5400 00f9 01       		.uleb128 0x1
 5401 00fa 13       		.uleb128 0x13
 5402 00fb 00       		.byte	0
 5403 00fc 00       		.byte	0
ARM GAS  C:\Users\CNous\AppData\Local\Temp\ccmZfnu5.s 			page 128


 5404 00fd 16       		.uleb128 0x16
 5405 00fe 2E       		.uleb128 0x2e
 5406 00ff 01       		.byte	0x1
 5407 0100 03       		.uleb128 0x3
 5408 0101 0E       		.uleb128 0xe
 5409 0102 3A       		.uleb128 0x3a
 5410 0103 0B       		.uleb128 0xb
 5411 0104 3B       		.uleb128 0x3b
 5412 0105 05       		.uleb128 0x5
 5413 0106 27       		.uleb128 0x27
 5414 0107 0C       		.uleb128 0xc
 5415 0108 20       		.uleb128 0x20
 5416 0109 0B       		.uleb128 0xb
 5417 010a 01       		.uleb128 0x1
 5418 010b 13       		.uleb128 0x13
 5419 010c 00       		.byte	0
 5420 010d 00       		.byte	0
 5421 010e 17       		.uleb128 0x17
 5422 010f 05       		.uleb128 0x5
 5423 0110 00       		.byte	0
 5424 0111 03       		.uleb128 0x3
 5425 0112 0E       		.uleb128 0xe
 5426 0113 3A       		.uleb128 0x3a
 5427 0114 0B       		.uleb128 0xb
 5428 0115 3B       		.uleb128 0x3b
 5429 0116 05       		.uleb128 0x5
 5430 0117 49       		.uleb128 0x49
 5431 0118 13       		.uleb128 0x13
 5432 0119 00       		.byte	0
 5433 011a 00       		.byte	0
 5434 011b 18       		.uleb128 0x18
 5435 011c 2E       		.uleb128 0x2e
 5436 011d 01       		.byte	0x1
 5437 011e 03       		.uleb128 0x3
 5438 011f 0E       		.uleb128 0xe
 5439 0120 3A       		.uleb128 0x3a
 5440 0121 0B       		.uleb128 0xb
 5441 0122 3B       		.uleb128 0x3b
 5442 0123 05       		.uleb128 0x5
 5443 0124 27       		.uleb128 0x27
 5444 0125 0C       		.uleb128 0xc
 5445 0126 49       		.uleb128 0x49
 5446 0127 13       		.uleb128 0x13
 5447 0128 20       		.uleb128 0x20
 5448 0129 0B       		.uleb128 0xb
 5449 012a 01       		.uleb128 0x1
 5450 012b 13       		.uleb128 0x13
 5451 012c 00       		.byte	0
 5452 012d 00       		.byte	0
 5453 012e 19       		.uleb128 0x19
 5454 012f 2E       		.uleb128 0x2e
 5455 0130 01       		.byte	0x1
 5456 0131 3F       		.uleb128 0x3f
 5457 0132 0C       		.uleb128 0xc
 5458 0133 03       		.uleb128 0x3
 5459 0134 0E       		.uleb128 0xe
 5460 0135 3A       		.uleb128 0x3a
ARM GAS  C:\Users\CNous\AppData\Local\Temp\ccmZfnu5.s 			page 129


 5461 0136 0B       		.uleb128 0xb
 5462 0137 3B       		.uleb128 0x3b
 5463 0138 0B       		.uleb128 0xb
 5464 0139 27       		.uleb128 0x27
 5465 013a 0C       		.uleb128 0xc
 5466 013b 11       		.uleb128 0x11
 5467 013c 01       		.uleb128 0x1
 5468 013d 12       		.uleb128 0x12
 5469 013e 01       		.uleb128 0x1
 5470 013f 40       		.uleb128 0x40
 5471 0140 06       		.uleb128 0x6
 5472 0141 9742     		.uleb128 0x2117
 5473 0143 0C       		.uleb128 0xc
 5474 0144 01       		.uleb128 0x1
 5475 0145 13       		.uleb128 0x13
 5476 0146 00       		.byte	0
 5477 0147 00       		.byte	0
 5478 0148 1A       		.uleb128 0x1a
 5479 0149 05       		.uleb128 0x5
 5480 014a 00       		.byte	0
 5481 014b 03       		.uleb128 0x3
 5482 014c 0E       		.uleb128 0xe
 5483 014d 3A       		.uleb128 0x3a
 5484 014e 0B       		.uleb128 0xb
 5485 014f 3B       		.uleb128 0x3b
 5486 0150 0B       		.uleb128 0xb
 5487 0151 49       		.uleb128 0x49
 5488 0152 13       		.uleb128 0x13
 5489 0153 02       		.uleb128 0x2
 5490 0154 0A       		.uleb128 0xa
 5491 0155 00       		.byte	0
 5492 0156 00       		.byte	0
 5493 0157 1B       		.uleb128 0x1b
 5494 0158 2E       		.uleb128 0x2e
 5495 0159 00       		.byte	0
 5496 015a 3F       		.uleb128 0x3f
 5497 015b 0C       		.uleb128 0xc
 5498 015c 03       		.uleb128 0x3
 5499 015d 0E       		.uleb128 0xe
 5500 015e 3A       		.uleb128 0x3a
 5501 015f 0B       		.uleb128 0xb
 5502 0160 3B       		.uleb128 0x3b
 5503 0161 0B       		.uleb128 0xb
 5504 0162 27       		.uleb128 0x27
 5505 0163 0C       		.uleb128 0xc
 5506 0164 11       		.uleb128 0x11
 5507 0165 01       		.uleb128 0x1
 5508 0166 12       		.uleb128 0x12
 5509 0167 01       		.uleb128 0x1
 5510 0168 40       		.uleb128 0x40
 5511 0169 0A       		.uleb128 0xa
 5512 016a 9742     		.uleb128 0x2117
 5513 016c 0C       		.uleb128 0xc
 5514 016d 00       		.byte	0
 5515 016e 00       		.byte	0
 5516 016f 1C       		.uleb128 0x1c
 5517 0170 2E       		.uleb128 0x2e
ARM GAS  C:\Users\CNous\AppData\Local\Temp\ccmZfnu5.s 			page 130


 5518 0171 00       		.byte	0
 5519 0172 3F       		.uleb128 0x3f
 5520 0173 0C       		.uleb128 0xc
 5521 0174 03       		.uleb128 0x3
 5522 0175 0E       		.uleb128 0xe
 5523 0176 3A       		.uleb128 0x3a
 5524 0177 0B       		.uleb128 0xb
 5525 0178 3B       		.uleb128 0x3b
 5526 0179 0B       		.uleb128 0xb
 5527 017a 27       		.uleb128 0x27
 5528 017b 0C       		.uleb128 0xc
 5529 017c 49       		.uleb128 0x49
 5530 017d 13       		.uleb128 0x13
 5531 017e 11       		.uleb128 0x11
 5532 017f 01       		.uleb128 0x1
 5533 0180 12       		.uleb128 0x12
 5534 0181 01       		.uleb128 0x1
 5535 0182 40       		.uleb128 0x40
 5536 0183 0A       		.uleb128 0xa
 5537 0184 9742     		.uleb128 0x2117
 5538 0186 0C       		.uleb128 0xc
 5539 0187 00       		.byte	0
 5540 0188 00       		.byte	0
 5541 0189 1D       		.uleb128 0x1d
 5542 018a 2E       		.uleb128 0x2e
 5543 018b 01       		.byte	0x1
 5544 018c 3F       		.uleb128 0x3f
 5545 018d 0C       		.uleb128 0xc
 5546 018e 03       		.uleb128 0x3
 5547 018f 0E       		.uleb128 0xe
 5548 0190 3A       		.uleb128 0x3a
 5549 0191 0B       		.uleb128 0xb
 5550 0192 3B       		.uleb128 0x3b
 5551 0193 0B       		.uleb128 0xb
 5552 0194 27       		.uleb128 0x27
 5553 0195 0C       		.uleb128 0xc
 5554 0196 11       		.uleb128 0x11
 5555 0197 01       		.uleb128 0x1
 5556 0198 12       		.uleb128 0x12
 5557 0199 01       		.uleb128 0x1
 5558 019a 40       		.uleb128 0x40
 5559 019b 0A       		.uleb128 0xa
 5560 019c 9742     		.uleb128 0x2117
 5561 019e 0C       		.uleb128 0xc
 5562 019f 01       		.uleb128 0x1
 5563 01a0 13       		.uleb128 0x13
 5564 01a1 00       		.byte	0
 5565 01a2 00       		.byte	0
 5566 01a3 1E       		.uleb128 0x1e
 5567 01a4 05       		.uleb128 0x5
 5568 01a5 00       		.byte	0
 5569 01a6 03       		.uleb128 0x3
 5570 01a7 0E       		.uleb128 0xe
 5571 01a8 3A       		.uleb128 0x3a
 5572 01a9 0B       		.uleb128 0xb
 5573 01aa 3B       		.uleb128 0x3b
 5574 01ab 0B       		.uleb128 0xb
ARM GAS  C:\Users\CNous\AppData\Local\Temp\ccmZfnu5.s 			page 131


 5575 01ac 49       		.uleb128 0x49
 5576 01ad 13       		.uleb128 0x13
 5577 01ae 02       		.uleb128 0x2
 5578 01af 06       		.uleb128 0x6
 5579 01b0 00       		.byte	0
 5580 01b1 00       		.byte	0
 5581 01b2 1F       		.uleb128 0x1f
 5582 01b3 898201   		.uleb128 0x4109
 5583 01b6 01       		.byte	0x1
 5584 01b7 11       		.uleb128 0x11
 5585 01b8 01       		.uleb128 0x1
 5586 01b9 9542     		.uleb128 0x2115
 5587 01bb 0C       		.uleb128 0xc
 5588 01bc 31       		.uleb128 0x31
 5589 01bd 13       		.uleb128 0x13
 5590 01be 00       		.byte	0
 5591 01bf 00       		.byte	0
 5592 01c0 20       		.uleb128 0x20
 5593 01c1 8A8201   		.uleb128 0x410a
 5594 01c4 00       		.byte	0
 5595 01c5 02       		.uleb128 0x2
 5596 01c6 0A       		.uleb128 0xa
 5597 01c7 9142     		.uleb128 0x2111
 5598 01c9 0A       		.uleb128 0xa
 5599 01ca 00       		.byte	0
 5600 01cb 00       		.byte	0
 5601 01cc 21       		.uleb128 0x21
 5602 01cd 2E       		.uleb128 0x2e
 5603 01ce 01       		.byte	0x1
 5604 01cf 3F       		.uleb128 0x3f
 5605 01d0 0C       		.uleb128 0xc
 5606 01d1 03       		.uleb128 0x3
 5607 01d2 0E       		.uleb128 0xe
 5608 01d3 3A       		.uleb128 0x3a
 5609 01d4 0B       		.uleb128 0xb
 5610 01d5 3B       		.uleb128 0x3b
 5611 01d6 05       		.uleb128 0x5
 5612 01d7 27       		.uleb128 0x27
 5613 01d8 0C       		.uleb128 0xc
 5614 01d9 11       		.uleb128 0x11
 5615 01da 01       		.uleb128 0x1
 5616 01db 12       		.uleb128 0x12
 5617 01dc 01       		.uleb128 0x1
 5618 01dd 40       		.uleb128 0x40
 5619 01de 0A       		.uleb128 0xa
 5620 01df 9742     		.uleb128 0x2117
 5621 01e1 0C       		.uleb128 0xc
 5622 01e2 01       		.uleb128 0x1
 5623 01e3 13       		.uleb128 0x13
 5624 01e4 00       		.byte	0
 5625 01e5 00       		.byte	0
 5626 01e6 22       		.uleb128 0x22
 5627 01e7 05       		.uleb128 0x5
 5628 01e8 00       		.byte	0
 5629 01e9 03       		.uleb128 0x3
 5630 01ea 0E       		.uleb128 0xe
 5631 01eb 3A       		.uleb128 0x3a
ARM GAS  C:\Users\CNous\AppData\Local\Temp\ccmZfnu5.s 			page 132


 5632 01ec 0B       		.uleb128 0xb
 5633 01ed 3B       		.uleb128 0x3b
 5634 01ee 05       		.uleb128 0x5
 5635 01ef 49       		.uleb128 0x49
 5636 01f0 13       		.uleb128 0x13
 5637 01f1 02       		.uleb128 0x2
 5638 01f2 06       		.uleb128 0x6
 5639 01f3 00       		.byte	0
 5640 01f4 00       		.byte	0
 5641 01f5 23       		.uleb128 0x23
 5642 01f6 2E       		.uleb128 0x2e
 5643 01f7 00       		.byte	0
 5644 01f8 3F       		.uleb128 0x3f
 5645 01f9 0C       		.uleb128 0xc
 5646 01fa 03       		.uleb128 0x3
 5647 01fb 0E       		.uleb128 0xe
 5648 01fc 3A       		.uleb128 0x3a
 5649 01fd 0B       		.uleb128 0xb
 5650 01fe 3B       		.uleb128 0x3b
 5651 01ff 05       		.uleb128 0x5
 5652 0200 27       		.uleb128 0x27
 5653 0201 0C       		.uleb128 0xc
 5654 0202 49       		.uleb128 0x49
 5655 0203 13       		.uleb128 0x13
 5656 0204 11       		.uleb128 0x11
 5657 0205 01       		.uleb128 0x1
 5658 0206 12       		.uleb128 0x12
 5659 0207 01       		.uleb128 0x1
 5660 0208 40       		.uleb128 0x40
 5661 0209 0A       		.uleb128 0xa
 5662 020a 9742     		.uleb128 0x2117
 5663 020c 0C       		.uleb128 0xc
 5664 020d 00       		.byte	0
 5665 020e 00       		.byte	0
 5666 020f 24       		.uleb128 0x24
 5667 0210 2E       		.uleb128 0x2e
 5668 0211 01       		.byte	0x1
 5669 0212 3F       		.uleb128 0x3f
 5670 0213 0C       		.uleb128 0xc
 5671 0214 03       		.uleb128 0x3
 5672 0215 0E       		.uleb128 0xe
 5673 0216 3A       		.uleb128 0x3a
 5674 0217 0B       		.uleb128 0xb
 5675 0218 3B       		.uleb128 0x3b
 5676 0219 05       		.uleb128 0x5
 5677 021a 27       		.uleb128 0x27
 5678 021b 0C       		.uleb128 0xc
 5679 021c 49       		.uleb128 0x49
 5680 021d 13       		.uleb128 0x13
 5681 021e 11       		.uleb128 0x11
 5682 021f 01       		.uleb128 0x1
 5683 0220 12       		.uleb128 0x12
 5684 0221 01       		.uleb128 0x1
 5685 0222 40       		.uleb128 0x40
 5686 0223 06       		.uleb128 0x6
 5687 0224 9742     		.uleb128 0x2117
 5688 0226 0C       		.uleb128 0xc
ARM GAS  C:\Users\CNous\AppData\Local\Temp\ccmZfnu5.s 			page 133


 5689 0227 01       		.uleb128 0x1
 5690 0228 13       		.uleb128 0x13
 5691 0229 00       		.byte	0
 5692 022a 00       		.byte	0
 5693 022b 25       		.uleb128 0x25
 5694 022c 34       		.uleb128 0x34
 5695 022d 00       		.byte	0
 5696 022e 03       		.uleb128 0x3
 5697 022f 0E       		.uleb128 0xe
 5698 0230 3A       		.uleb128 0x3a
 5699 0231 0B       		.uleb128 0xb
 5700 0232 3B       		.uleb128 0x3b
 5701 0233 05       		.uleb128 0x5
 5702 0234 49       		.uleb128 0x49
 5703 0235 13       		.uleb128 0x13
 5704 0236 02       		.uleb128 0x2
 5705 0237 06       		.uleb128 0x6
 5706 0238 00       		.byte	0
 5707 0239 00       		.byte	0
 5708 023a 26       		.uleb128 0x26
 5709 023b 898201   		.uleb128 0x4109
 5710 023e 01       		.byte	0x1
 5711 023f 11       		.uleb128 0x11
 5712 0240 01       		.uleb128 0x1
 5713 0241 31       		.uleb128 0x31
 5714 0242 13       		.uleb128 0x13
 5715 0243 01       		.uleb128 0x1
 5716 0244 13       		.uleb128 0x13
 5717 0245 00       		.byte	0
 5718 0246 00       		.byte	0
 5719 0247 27       		.uleb128 0x27
 5720 0248 898201   		.uleb128 0x4109
 5721 024b 00       		.byte	0
 5722 024c 11       		.uleb128 0x11
 5723 024d 01       		.uleb128 0x1
 5724 024e 31       		.uleb128 0x31
 5725 024f 13       		.uleb128 0x13
 5726 0250 00       		.byte	0
 5727 0251 00       		.byte	0
 5728 0252 28       		.uleb128 0x28
 5729 0253 2E       		.uleb128 0x2e
 5730 0254 01       		.byte	0x1
 5731 0255 3F       		.uleb128 0x3f
 5732 0256 0C       		.uleb128 0xc
 5733 0257 03       		.uleb128 0x3
 5734 0258 0E       		.uleb128 0xe
 5735 0259 3A       		.uleb128 0x3a
 5736 025a 0B       		.uleb128 0xb
 5737 025b 3B       		.uleb128 0x3b
 5738 025c 05       		.uleb128 0x5
 5739 025d 27       		.uleb128 0x27
 5740 025e 0C       		.uleb128 0xc
 5741 025f 11       		.uleb128 0x11
 5742 0260 01       		.uleb128 0x1
 5743 0261 12       		.uleb128 0x12
 5744 0262 01       		.uleb128 0x1
 5745 0263 40       		.uleb128 0x40
ARM GAS  C:\Users\CNous\AppData\Local\Temp\ccmZfnu5.s 			page 134


 5746 0264 06       		.uleb128 0x6
 5747 0265 9742     		.uleb128 0x2117
 5748 0267 0C       		.uleb128 0xc
 5749 0268 01       		.uleb128 0x1
 5750 0269 13       		.uleb128 0x13
 5751 026a 00       		.byte	0
 5752 026b 00       		.byte	0
 5753 026c 29       		.uleb128 0x29
 5754 026d 34       		.uleb128 0x34
 5755 026e 00       		.byte	0
 5756 026f 03       		.uleb128 0x3
 5757 0270 0E       		.uleb128 0xe
 5758 0271 3A       		.uleb128 0x3a
 5759 0272 0B       		.uleb128 0xb
 5760 0273 3B       		.uleb128 0x3b
 5761 0274 05       		.uleb128 0x5
 5762 0275 49       		.uleb128 0x49
 5763 0276 13       		.uleb128 0x13
 5764 0277 02       		.uleb128 0x2
 5765 0278 0A       		.uleb128 0xa
 5766 0279 00       		.byte	0
 5767 027a 00       		.byte	0
 5768 027b 2A       		.uleb128 0x2a
 5769 027c 898201   		.uleb128 0x4109
 5770 027f 01       		.byte	0x1
 5771 0280 11       		.uleb128 0x11
 5772 0281 01       		.uleb128 0x1
 5773 0282 31       		.uleb128 0x31
 5774 0283 13       		.uleb128 0x13
 5775 0284 00       		.byte	0
 5776 0285 00       		.byte	0
 5777 0286 2B       		.uleb128 0x2b
 5778 0287 2E       		.uleb128 0x2e
 5779 0288 01       		.byte	0x1
 5780 0289 3F       		.uleb128 0x3f
 5781 028a 0C       		.uleb128 0xc
 5782 028b 03       		.uleb128 0x3
 5783 028c 0E       		.uleb128 0xe
 5784 028d 3A       		.uleb128 0x3a
 5785 028e 0B       		.uleb128 0xb
 5786 028f 3B       		.uleb128 0x3b
 5787 0290 0B       		.uleb128 0xb
 5788 0291 27       		.uleb128 0x27
 5789 0292 0C       		.uleb128 0xc
 5790 0293 49       		.uleb128 0x49
 5791 0294 13       		.uleb128 0x13
 5792 0295 11       		.uleb128 0x11
 5793 0296 01       		.uleb128 0x1
 5794 0297 12       		.uleb128 0x12
 5795 0298 01       		.uleb128 0x1
 5796 0299 40       		.uleb128 0x40
 5797 029a 06       		.uleb128 0x6
 5798 029b 9742     		.uleb128 0x2117
 5799 029d 0C       		.uleb128 0xc
 5800 029e 01       		.uleb128 0x1
 5801 029f 13       		.uleb128 0x13
 5802 02a0 00       		.byte	0
ARM GAS  C:\Users\CNous\AppData\Local\Temp\ccmZfnu5.s 			page 135


 5803 02a1 00       		.byte	0
 5804 02a2 2C       		.uleb128 0x2c
 5805 02a3 1D       		.uleb128 0x1d
 5806 02a4 01       		.byte	0x1
 5807 02a5 31       		.uleb128 0x31
 5808 02a6 13       		.uleb128 0x13
 5809 02a7 52       		.uleb128 0x52
 5810 02a8 01       		.uleb128 0x1
 5811 02a9 55       		.uleb128 0x55
 5812 02aa 06       		.uleb128 0x6
 5813 02ab 58       		.uleb128 0x58
 5814 02ac 0B       		.uleb128 0xb
 5815 02ad 59       		.uleb128 0x59
 5816 02ae 0B       		.uleb128 0xb
 5817 02af 01       		.uleb128 0x1
 5818 02b0 13       		.uleb128 0x13
 5819 02b1 00       		.byte	0
 5820 02b2 00       		.byte	0
 5821 02b3 2D       		.uleb128 0x2d
 5822 02b4 05       		.uleb128 0x5
 5823 02b5 00       		.byte	0
 5824 02b6 31       		.uleb128 0x31
 5825 02b7 13       		.uleb128 0x13
 5826 02b8 02       		.uleb128 0x2
 5827 02b9 06       		.uleb128 0x6
 5828 02ba 00       		.byte	0
 5829 02bb 00       		.byte	0
 5830 02bc 2E       		.uleb128 0x2e
 5831 02bd 1D       		.uleb128 0x1d
 5832 02be 01       		.byte	0x1
 5833 02bf 31       		.uleb128 0x31
 5834 02c0 13       		.uleb128 0x13
 5835 02c1 52       		.uleb128 0x52
 5836 02c2 01       		.uleb128 0x1
 5837 02c3 55       		.uleb128 0x55
 5838 02c4 06       		.uleb128 0x6
 5839 02c5 58       		.uleb128 0x58
 5840 02c6 0B       		.uleb128 0xb
 5841 02c7 59       		.uleb128 0x59
 5842 02c8 05       		.uleb128 0x5
 5843 02c9 00       		.byte	0
 5844 02ca 00       		.byte	0
 5845 02cb 2F       		.uleb128 0x2f
 5846 02cc 34       		.uleb128 0x34
 5847 02cd 00       		.byte	0
 5848 02ce 03       		.uleb128 0x3
 5849 02cf 0E       		.uleb128 0xe
 5850 02d0 3A       		.uleb128 0x3a
 5851 02d1 0B       		.uleb128 0xb
 5852 02d2 3B       		.uleb128 0x3b
 5853 02d3 05       		.uleb128 0x5
 5854 02d4 49       		.uleb128 0x49
 5855 02d5 13       		.uleb128 0x13
 5856 02d6 3F       		.uleb128 0x3f
 5857 02d7 0C       		.uleb128 0xc
 5858 02d8 3C       		.uleb128 0x3c
 5859 02d9 0C       		.uleb128 0xc
ARM GAS  C:\Users\CNous\AppData\Local\Temp\ccmZfnu5.s 			page 136


 5860 02da 00       		.byte	0
 5861 02db 00       		.byte	0
 5862 02dc 30       		.uleb128 0x30
 5863 02dd 34       		.uleb128 0x34
 5864 02de 00       		.byte	0
 5865 02df 03       		.uleb128 0x3
 5866 02e0 0E       		.uleb128 0xe
 5867 02e1 3A       		.uleb128 0x3a
 5868 02e2 0B       		.uleb128 0xb
 5869 02e3 3B       		.uleb128 0x3b
 5870 02e4 0B       		.uleb128 0xb
 5871 02e5 49       		.uleb128 0x49
 5872 02e6 13       		.uleb128 0x13
 5873 02e7 3F       		.uleb128 0x3f
 5874 02e8 0C       		.uleb128 0xc
 5875 02e9 3C       		.uleb128 0x3c
 5876 02ea 0C       		.uleb128 0xc
 5877 02eb 00       		.byte	0
 5878 02ec 00       		.byte	0
 5879 02ed 31       		.uleb128 0x31
 5880 02ee 34       		.uleb128 0x34
 5881 02ef 00       		.byte	0
 5882 02f0 03       		.uleb128 0x3
 5883 02f1 0E       		.uleb128 0xe
 5884 02f2 3A       		.uleb128 0x3a
 5885 02f3 0B       		.uleb128 0xb
 5886 02f4 3B       		.uleb128 0x3b
 5887 02f5 0B       		.uleb128 0xb
 5888 02f6 49       		.uleb128 0x49
 5889 02f7 13       		.uleb128 0x13
 5890 02f8 3F       		.uleb128 0x3f
 5891 02f9 0C       		.uleb128 0xc
 5892 02fa 02       		.uleb128 0x2
 5893 02fb 0A       		.uleb128 0xa
 5894 02fc 00       		.byte	0
 5895 02fd 00       		.byte	0
 5896 02fe 32       		.uleb128 0x32
 5897 02ff 0F       		.uleb128 0xf
 5898 0300 00       		.byte	0
 5899 0301 0B       		.uleb128 0xb
 5900 0302 0B       		.uleb128 0xb
 5901 0303 49       		.uleb128 0x49
 5902 0304 13       		.uleb128 0x13
 5903 0305 00       		.byte	0
 5904 0306 00       		.byte	0
 5905 0307 33       		.uleb128 0x33
 5906 0308 34       		.uleb128 0x34
 5907 0309 00       		.byte	0
 5908 030a 03       		.uleb128 0x3
 5909 030b 08       		.uleb128 0x8
 5910 030c 3A       		.uleb128 0x3a
 5911 030d 0B       		.uleb128 0xb
 5912 030e 3B       		.uleb128 0x3b
 5913 030f 0B       		.uleb128 0xb
 5914 0310 49       		.uleb128 0x49
 5915 0311 13       		.uleb128 0x13
 5916 0312 3F       		.uleb128 0x3f
ARM GAS  C:\Users\CNous\AppData\Local\Temp\ccmZfnu5.s 			page 137


 5917 0313 0C       		.uleb128 0xc
 5918 0314 02       		.uleb128 0x2
 5919 0315 0A       		.uleb128 0xa
 5920 0316 00       		.byte	0
 5921 0317 00       		.byte	0
 5922 0318 34       		.uleb128 0x34
 5923 0319 2E       		.uleb128 0x2e
 5924 031a 01       		.byte	0x1
 5925 031b 3F       		.uleb128 0x3f
 5926 031c 0C       		.uleb128 0xc
 5927 031d 03       		.uleb128 0x3
 5928 031e 0E       		.uleb128 0xe
 5929 031f 3A       		.uleb128 0x3a
 5930 0320 0B       		.uleb128 0xb
 5931 0321 3B       		.uleb128 0x3b
 5932 0322 0B       		.uleb128 0xb
 5933 0323 27       		.uleb128 0x27
 5934 0324 0C       		.uleb128 0xc
 5935 0325 3C       		.uleb128 0x3c
 5936 0326 0C       		.uleb128 0xc
 5937 0327 01       		.uleb128 0x1
 5938 0328 13       		.uleb128 0x13
 5939 0329 00       		.byte	0
 5940 032a 00       		.byte	0
 5941 032b 35       		.uleb128 0x35
 5942 032c 05       		.uleb128 0x5
 5943 032d 00       		.byte	0
 5944 032e 49       		.uleb128 0x49
 5945 032f 13       		.uleb128 0x13
 5946 0330 00       		.byte	0
 5947 0331 00       		.byte	0
 5948 0332 36       		.uleb128 0x36
 5949 0333 2E       		.uleb128 0x2e
 5950 0334 01       		.byte	0x1
 5951 0335 3F       		.uleb128 0x3f
 5952 0336 0C       		.uleb128 0xc
 5953 0337 03       		.uleb128 0x3
 5954 0338 0E       		.uleb128 0xe
 5955 0339 3A       		.uleb128 0x3a
 5956 033a 0B       		.uleb128 0xb
 5957 033b 3B       		.uleb128 0x3b
 5958 033c 0B       		.uleb128 0xb
 5959 033d 27       		.uleb128 0x27
 5960 033e 0C       		.uleb128 0xc
 5961 033f 49       		.uleb128 0x49
 5962 0340 13       		.uleb128 0x13
 5963 0341 3C       		.uleb128 0x3c
 5964 0342 0C       		.uleb128 0xc
 5965 0343 01       		.uleb128 0x1
 5966 0344 13       		.uleb128 0x13
 5967 0345 00       		.byte	0
 5968 0346 00       		.byte	0
 5969 0347 37       		.uleb128 0x37
 5970 0348 2E       		.uleb128 0x2e
 5971 0349 00       		.byte	0
 5972 034a 3F       		.uleb128 0x3f
 5973 034b 0C       		.uleb128 0xc
ARM GAS  C:\Users\CNous\AppData\Local\Temp\ccmZfnu5.s 			page 138


 5974 034c 03       		.uleb128 0x3
 5975 034d 0E       		.uleb128 0xe
 5976 034e 3A       		.uleb128 0x3a
 5977 034f 0B       		.uleb128 0xb
 5978 0350 3B       		.uleb128 0x3b
 5979 0351 0B       		.uleb128 0xb
 5980 0352 27       		.uleb128 0x27
 5981 0353 0C       		.uleb128 0xc
 5982 0354 49       		.uleb128 0x49
 5983 0355 13       		.uleb128 0x13
 5984 0356 3C       		.uleb128 0x3c
 5985 0357 0C       		.uleb128 0xc
 5986 0358 00       		.byte	0
 5987 0359 00       		.byte	0
 5988 035a 38       		.uleb128 0x38
 5989 035b 2E       		.uleb128 0x2e
 5990 035c 00       		.byte	0
 5991 035d 3F       		.uleb128 0x3f
 5992 035e 0C       		.uleb128 0xc
 5993 035f 03       		.uleb128 0x3
 5994 0360 0E       		.uleb128 0xe
 5995 0361 3A       		.uleb128 0x3a
 5996 0362 0B       		.uleb128 0xb
 5997 0363 3B       		.uleb128 0x3b
 5998 0364 05       		.uleb128 0x5
 5999 0365 27       		.uleb128 0x27
 6000 0366 0C       		.uleb128 0xc
 6001 0367 3C       		.uleb128 0x3c
 6002 0368 0C       		.uleb128 0xc
 6003 0369 00       		.byte	0
 6004 036a 00       		.byte	0
 6005 036b 39       		.uleb128 0x39
 6006 036c 2E       		.uleb128 0x2e
 6007 036d 01       		.byte	0x1
 6008 036e 3F       		.uleb128 0x3f
 6009 036f 0C       		.uleb128 0xc
 6010 0370 03       		.uleb128 0x3
 6011 0371 0E       		.uleb128 0xe
 6012 0372 3A       		.uleb128 0x3a
 6013 0373 0B       		.uleb128 0xb
 6014 0374 3B       		.uleb128 0x3b
 6015 0375 05       		.uleb128 0x5
 6016 0376 27       		.uleb128 0x27
 6017 0377 0C       		.uleb128 0xc
 6018 0378 3C       		.uleb128 0x3c
 6019 0379 0C       		.uleb128 0xc
 6020 037a 01       		.uleb128 0x1
 6021 037b 13       		.uleb128 0x13
 6022 037c 00       		.byte	0
 6023 037d 00       		.byte	0
 6024 037e 3A       		.uleb128 0x3a
 6025 037f 2E       		.uleb128 0x2e
 6026 0380 00       		.byte	0
 6027 0381 3F       		.uleb128 0x3f
 6028 0382 0C       		.uleb128 0xc
 6029 0383 03       		.uleb128 0x3
 6030 0384 0E       		.uleb128 0xe
ARM GAS  C:\Users\CNous\AppData\Local\Temp\ccmZfnu5.s 			page 139


 6031 0385 3A       		.uleb128 0x3a
 6032 0386 0B       		.uleb128 0xb
 6033 0387 3B       		.uleb128 0x3b
 6034 0388 0B       		.uleb128 0xb
 6035 0389 27       		.uleb128 0x27
 6036 038a 0C       		.uleb128 0xc
 6037 038b 3C       		.uleb128 0x3c
 6038 038c 0C       		.uleb128 0xc
 6039 038d 00       		.byte	0
 6040 038e 00       		.byte	0
 6041 038f 00       		.byte	0
 6042              		.section	.debug_loc,"",%progbits
 6043              	.Ldebug_loc0:
 6044              	.LLST0:
 6045 0000 00000000 		.4byte	.LFB111
 6046 0004 02000000 		.4byte	.LCFI0
 6047 0008 0200     		.2byte	0x2
 6048 000a 7D       		.byte	0x7d
 6049 000b 00       		.sleb128 0
 6050 000c 02000000 		.4byte	.LCFI0
 6051 0010 18000000 		.4byte	.LFE111
 6052 0014 0200     		.2byte	0x2
 6053 0016 7D       		.byte	0x7d
 6054 0017 08       		.sleb128 8
 6055 0018 00000000 		.4byte	0
 6056 001c 00000000 		.4byte	0
 6057              	.LLST1:
 6058 0020 00000000 		.4byte	.LVL1
 6059 0024 02000000 		.4byte	.LVL2
 6060 0028 0100     		.2byte	0x1
 6061 002a 50       		.byte	0x50
 6062 002b 02000000 		.4byte	.LVL2
 6063 002f 08000000 		.4byte	.LFE114
 6064 0033 0400     		.2byte	0x4
 6065 0035 F3       		.byte	0xf3
 6066 0036 01       		.uleb128 0x1
 6067 0037 50       		.byte	0x50
 6068 0038 9F       		.byte	0x9f
 6069 0039 00000000 		.4byte	0
 6070 003d 00000000 		.4byte	0
 6071              	.LLST2:
 6072 0041 00000000 		.4byte	.LVL1
 6073 0045 04000000 		.4byte	.LVL3
 6074 0049 0100     		.2byte	0x1
 6075 004b 51       		.byte	0x51
 6076 004c 04000000 		.4byte	.LVL3
 6077 0050 08000000 		.4byte	.LFE114
 6078 0054 0400     		.2byte	0x4
 6079 0056 F3       		.byte	0xf3
 6080 0057 01       		.uleb128 0x1
 6081 0058 51       		.byte	0x51
 6082 0059 9F       		.byte	0x9f
 6083 005a 00000000 		.4byte	0
 6084 005e 00000000 		.4byte	0
 6085              	.LLST3:
 6086 0062 00000000 		.4byte	.LVL5
 6087 0066 04000000 		.4byte	.LVL6
ARM GAS  C:\Users\CNous\AppData\Local\Temp\ccmZfnu5.s 			page 140


 6088 006a 0100     		.2byte	0x1
 6089 006c 50       		.byte	0x50
 6090 006d 04000000 		.4byte	.LVL6
 6091 0071 0A000000 		.4byte	.LFE115
 6092 0075 0400     		.2byte	0x4
 6093 0077 F3       		.byte	0xf3
 6094 0078 01       		.uleb128 0x1
 6095 0079 50       		.byte	0x50
 6096 007a 9F       		.byte	0x9f
 6097 007b 00000000 		.4byte	0
 6098 007f 00000000 		.4byte	0
 6099              	.LLST4:
 6100 0083 00000000 		.4byte	.LVL5
 6101 0087 06000000 		.4byte	.LVL7
 6102 008b 0100     		.2byte	0x1
 6103 008d 51       		.byte	0x51
 6104 008e 06000000 		.4byte	.LVL7
 6105 0092 0A000000 		.4byte	.LFE115
 6106 0096 0400     		.2byte	0x4
 6107 0098 F3       		.byte	0xf3
 6108 0099 01       		.uleb128 0x1
 6109 009a 51       		.byte	0x51
 6110 009b 9F       		.byte	0x9f
 6111 009c 00000000 		.4byte	0
 6112 00a0 00000000 		.4byte	0
 6113              	.LLST5:
 6114 00a4 00000000 		.4byte	.LFB117
 6115 00a8 04000000 		.4byte	.LCFI1
 6116 00ac 0200     		.2byte	0x2
 6117 00ae 7D       		.byte	0x7d
 6118 00af 00       		.sleb128 0
 6119 00b0 04000000 		.4byte	.LCFI1
 6120 00b4 2C000000 		.4byte	.LFE117
 6121 00b8 0200     		.2byte	0x2
 6122 00ba 7D       		.byte	0x7d
 6123 00bb 08       		.sleb128 8
 6124 00bc 00000000 		.4byte	0
 6125 00c0 00000000 		.4byte	0
 6126              	.LLST6:
 6127 00c4 00000000 		.4byte	.LVL9
 6128 00c8 10000000 		.4byte	.LVL11
 6129 00cc 0600     		.2byte	0x6
 6130 00ce 9E       		.byte	0x9e
 6131 00cf 04       		.uleb128 0x4
 6132 00d0 0000803F 		.4byte	0x3f800000
 6133 00d4 10000000 		.4byte	.LVL11
 6134 00d8 12000000 		.4byte	.LVL12
 6135 00dc 0200     		.2byte	0x2
 6136 00de 90       		.byte	0x90
 6137 00df 40       		.uleb128 0x40
 6138 00e0 12000000 		.4byte	.LVL12
 6139 00e4 26000000 		.4byte	.LVL14
 6140 00e8 0600     		.2byte	0x6
 6141 00ea 9E       		.byte	0x9e
 6142 00eb 04       		.uleb128 0x4
 6143 00ec 0000803F 		.4byte	0x3f800000
 6144 00f0 26000000 		.4byte	.LVL14
ARM GAS  C:\Users\CNous\AppData\Local\Temp\ccmZfnu5.s 			page 141


 6145 00f4 2C000000 		.4byte	.LFE117
 6146 00f8 0200     		.2byte	0x2
 6147 00fa 90       		.byte	0x90
 6148 00fb 40       		.uleb128 0x40
 6149 00fc 00000000 		.4byte	0
 6150 0100 00000000 		.4byte	0
 6151              	.LLST7:
 6152 0104 00000000 		.4byte	.LFB118
 6153 0108 04000000 		.4byte	.LCFI2
 6154 010c 0200     		.2byte	0x2
 6155 010e 7D       		.byte	0x7d
 6156 010f 00       		.sleb128 0
 6157 0110 04000000 		.4byte	.LCFI2
 6158 0114 06000000 		.4byte	.LCFI3
 6159 0118 0200     		.2byte	0x2
 6160 011a 7D       		.byte	0x7d
 6161 011b 1C       		.sleb128 28
 6162 011c 06000000 		.4byte	.LCFI3
 6163 0120 9A010000 		.4byte	.LFE118
 6164 0124 0300     		.2byte	0x3
 6165 0126 7D       		.byte	0x7d
 6166 0127 A001     		.sleb128 160
 6167 0129 00000000 		.4byte	0
 6168 012d 00000000 		.4byte	0
 6169              	.LLST8:
 6170 0131 00000000 		.4byte	.LFB119
 6171 0135 02000000 		.4byte	.LCFI4
 6172 0139 0200     		.2byte	0x2
 6173 013b 7D       		.byte	0x7d
 6174 013c 00       		.sleb128 0
 6175 013d 02000000 		.4byte	.LCFI4
 6176 0141 08000000 		.4byte	.LCFI5
 6177 0145 0200     		.2byte	0x2
 6178 0147 7D       		.byte	0x7d
 6179 0148 10       		.sleb128 16
 6180 0149 08000000 		.4byte	.LCFI5
 6181 014d AA000000 		.4byte	.LFE119
 6182 0151 0200     		.2byte	0x2
 6183 0153 7D       		.byte	0x7d
 6184 0154 18       		.sleb128 24
 6185 0155 00000000 		.4byte	0
 6186 0159 00000000 		.4byte	0
 6187              	.LLST9:
 6188 015d 00000000 		.4byte	.LFB110
 6189 0161 02000000 		.4byte	.LCFI6
 6190 0165 0200     		.2byte	0x2
 6191 0167 7D       		.byte	0x7d
 6192 0168 00       		.sleb128 0
 6193 0169 02000000 		.4byte	.LCFI6
 6194 016d F0000000 		.4byte	.LFE110
 6195 0171 0200     		.2byte	0x2
 6196 0173 7D       		.byte	0x7d
 6197 0174 08       		.sleb128 8
 6198 0175 00000000 		.4byte	0
 6199 0179 00000000 		.4byte	0
 6200              	.LLST10:
 6201 017d 6A000000 		.4byte	.LVL59
ARM GAS  C:\Users\CNous\AppData\Local\Temp\ccmZfnu5.s 			page 142


 6202 0181 9C000000 		.4byte	.LVL61
 6203 0185 0100     		.2byte	0x1
 6204 0187 52       		.byte	0x52
 6205 0188 00000000 		.4byte	0
 6206 018c 00000000 		.4byte	0
 6207              	.LLST11:
 6208 0190 86000000 		.4byte	.LVL60
 6209 0194 C4000000 		.4byte	.LVL66
 6210 0198 0300     		.2byte	0x3
 6211 019a 09       		.byte	0x9
 6212 019b FF       		.byte	0xff
 6213 019c 9F       		.byte	0x9f
 6214 019d 00000000 		.4byte	0
 6215 01a1 00000000 		.4byte	0
 6216              	.LLST12:
 6217 01a5 86000000 		.4byte	.LVL60
 6218 01a9 C4000000 		.4byte	.LVL66
 6219 01ad 0200     		.2byte	0x2
 6220 01af 3F       		.byte	0x3f
 6221 01b0 9F       		.byte	0x9f
 6222 01b1 00000000 		.4byte	0
 6223 01b5 00000000 		.4byte	0
 6224              		.section	.debug_aranges,"",%progbits
 6225 0000 64000000 		.4byte	0x64
 6226 0004 0200     		.2byte	0x2
 6227 0006 00000000 		.4byte	.Ldebug_info0
 6228 000a 04       		.byte	0x4
 6229 000b 00       		.byte	0
 6230 000c 0000     		.2byte	0
 6231 000e 0000     		.2byte	0
 6232 0010 00000000 		.4byte	.LFB111
 6233 0014 18000000 		.4byte	.LFE111-.LFB111
 6234 0018 00000000 		.4byte	.LFB112
 6235 001c 14000000 		.4byte	.LFE112-.LFB112
 6236 0020 00000000 		.4byte	.LFB113
 6237 0024 04000000 		.4byte	.LFE113-.LFB113
 6238 0028 00000000 		.4byte	.LFB114
 6239 002c 08000000 		.4byte	.LFE114-.LFB114
 6240 0030 00000000 		.4byte	.LFB115
 6241 0034 0A000000 		.4byte	.LFE115-.LFB115
 6242 0038 00000000 		.4byte	.LFB116
 6243 003c 04000000 		.4byte	.LFE116-.LFB116
 6244 0040 00000000 		.4byte	.LFB117
 6245 0044 2C000000 		.4byte	.LFE117-.LFB117
 6246 0048 00000000 		.4byte	.LFB118
 6247 004c 9A010000 		.4byte	.LFE118-.LFB118
 6248 0050 00000000 		.4byte	.LFB119
 6249 0054 AA000000 		.4byte	.LFE119-.LFB119
 6250 0058 00000000 		.4byte	.LFB110
 6251 005c F0000000 		.4byte	.LFE110-.LFB110
 6252 0060 00000000 		.4byte	0
 6253 0064 00000000 		.4byte	0
 6254              		.section	.debug_ranges,"",%progbits
 6255              	.Ldebug_ranges0:
 6256 0000 6A000000 		.4byte	.LBB8
 6257 0004 92000000 		.4byte	.LBE8
 6258 0008 94000000 		.4byte	.LBB17
ARM GAS  C:\Users\CNous\AppData\Local\Temp\ccmZfnu5.s 			page 143


 6259 000c 96000000 		.4byte	.LBE17
 6260 0010 00000000 		.4byte	0
 6261 0014 00000000 		.4byte	0
 6262 0018 7A000000 		.4byte	.LBB10
 6263 001c 7E000000 		.4byte	.LBE10
 6264 0020 80000000 		.4byte	.LBB14
 6265 0024 84000000 		.4byte	.LBE14
 6266 0028 86000000 		.4byte	.LBB15
 6267 002c 8C000000 		.4byte	.LBE15
 6268 0030 00000000 		.4byte	0
 6269 0034 00000000 		.4byte	0
 6270 0038 00000000 		.4byte	.LFB111
 6271 003c 18000000 		.4byte	.LFE111
 6272 0040 00000000 		.4byte	.LFB112
 6273 0044 14000000 		.4byte	.LFE112
 6274 0048 00000000 		.4byte	.LFB113
 6275 004c 04000000 		.4byte	.LFE113
 6276 0050 00000000 		.4byte	.LFB114
 6277 0054 08000000 		.4byte	.LFE114
 6278 0058 00000000 		.4byte	.LFB115
 6279 005c 0A000000 		.4byte	.LFE115
 6280 0060 00000000 		.4byte	.LFB116
 6281 0064 04000000 		.4byte	.LFE116
 6282 0068 00000000 		.4byte	.LFB117
 6283 006c 2C000000 		.4byte	.LFE117
 6284 0070 00000000 		.4byte	.LFB118
 6285 0074 9A010000 		.4byte	.LFE118
 6286 0078 00000000 		.4byte	.LFB119
 6287 007c AA000000 		.4byte	.LFE119
 6288 0080 00000000 		.4byte	.LFB110
 6289 0084 F0000000 		.4byte	.LFE110
 6290 0088 00000000 		.4byte	0
 6291 008c 00000000 		.4byte	0
 6292              		.section	.debug_line,"",%progbits
 6293              	.Ldebug_line0:
 6294 0000 53030000 		.section	.debug_str,"MS",%progbits,1
 6294      0200AD01 
 6294      00000201 
 6294      FB0E0D00 
 6294      01010101 
 6295              	.LASF163:
 6296 0000 4D314152 		.ascii	"M1AR\000"
 6296      00
 6297              	.LASF112:
 6298 0005 52534552 		.ascii	"RSERVED1\000"
 6298      56454431 
 6298      00
 6299              	.LASF365:
 6300 000e 53544D5F 		.ascii	"STM_EVAL_PBInit\000"
 6300      4556414C 
 6300      5F504249 
 6300      6E697400 
 6301              	.LASF25:
 6302 001e 5254435F 		.ascii	"RTC_WKUP_IRQn\000"
 6302      574B5550 
 6302      5F495251 
 6302      6E00
ARM GAS  C:\Users\CNous\AppData\Local\Temp\ccmZfnu5.s 			page 144


 6303              	.LASF30:
 6304 002c 45585449 		.ascii	"EXTI2_IRQn\000"
 6304      325F4952 
 6304      516E00
 6305              	.LASF311:
 6306 0037 73657131 		.ascii	"seq1Number\000"
 6306      4E756D62 
 6306      657200
 6307              	.LASF39:
 6308 0042 444D4131 		.ascii	"DMA1_Stream6_IRQn\000"
 6308      5F537472 
 6308      65616D36 
 6308      5F495251 
 6308      6E00
 6309              	.LASF66:
 6310 0054 54494D38 		.ascii	"TIM8_UP_TIM13_IRQn\000"
 6310      5F55505F 
 6310      54494D31 
 6310      335F4952 
 6310      516E00
 6311              	.LASF363:
 6312 0067 54494D5F 		.ascii	"TIM_Cmd\000"
 6312      436D6400 
 6313              	.LASF8:
 6314 006f 73697A65 		.ascii	"sizetype\000"
 6314      74797065 
 6314      00
 6315              	.LASF302:
 6316 0078 72656164 		.ascii	"readpos\000"
 6316      706F7300 
 6317              	.LASF215:
 6318 0080 444D415F 		.ascii	"DMA_PeripheralDataSize\000"
 6318      50657269 
 6318      70686572 
 6318      616C4461 
 6318      74615369 
 6319              	.LASF152:
 6320 0097 53515231 		.ascii	"SQR1\000"
 6320      00
 6321              	.LASF153:
 6322 009c 53515232 		.ascii	"SQR2\000"
 6322      00
 6323              	.LASF154:
 6324 00a1 53515233 		.ascii	"SQR3\000"
 6324      00
 6325              	.LASF286:
 6326 00a6 4144435F 		.ascii	"ADC_InitStructure\000"
 6326      496E6974 
 6326      53747275 
 6326      63747572 
 6326      6500
 6327              	.LASF107:
 6328 00b8 696E7433 		.ascii	"int32_t\000"
 6328      325F7400 
 6329              	.LASF327:
 6330 00c0 70617261 		.ascii	"param2b\000"
 6330      6D326200 
ARM GAS  C:\Users\CNous\AppData\Local\Temp\ccmZfnu5.s 			page 145


 6331              	.LASF287:
 6332 00c8 4144435F 		.ascii	"ADC_CommonInitStructure\000"
 6332      436F6D6D 
 6332      6F6E496E 
 6332      69745374 
 6332      72756374 
 6333              	.LASF291:
 6334 00e0 4750494F 		.ascii	"GPIO_C_InitStructure\000"
 6334      5F435F49 
 6334      6E697453 
 6334      74727563 
 6334      74757265 
 6335              	.LASF79:
 6336 00f5 444D4132 		.ascii	"DMA2_Stream1_IRQn\000"
 6336      5F537472 
 6336      65616D31 
 6336      5F495251 
 6336      6E00
 6337              	.LASF248:
 6338 0107 48434C4B 		.ascii	"HCLK_Frequency\000"
 6338      5F467265 
 6338      7175656E 
 6338      637900
 6339              	.LASF237:
 6340 0116 4750494F 		.ascii	"GPIO_PuPd_NOPULL\000"
 6340      5F507550 
 6340      645F4E4F 
 6340      50554C4C 
 6340      00
 6341              	.LASF276:
 6342 0127 44656C61 		.ascii	"Delay\000"
 6342      7900
 6343              	.LASF124:
 6344 012d 56544F52 		.ascii	"VTOR\000"
 6344      00
 6345              	.LASF73:
 6346 0132 53504933 		.ascii	"SPI3_IRQn\000"
 6346      5F495251 
 6346      6E00
 6347              	.LASF26:
 6348 013c 464C4153 		.ascii	"FLASH_IRQn\000"
 6348      485F4952 
 6348      516E00
 6349              	.LASF359:
 6350 0147 54494D5F 		.ascii	"TIM_UpdateRequestConfig\000"
 6350      55706461 
 6350      74655265 
 6350      71756573 
 6350      74436F6E 
 6351              	.LASF100:
 6352 015f 44434D49 		.ascii	"DCMI_IRQn\000"
 6352      5F495251 
 6352      6E00
 6353              	.LASF328:
 6354 0169 70617261 		.ascii	"param3b\000"
 6354      6D336200 
 6355              	.LASF201:
ARM GAS  C:\Users\CNous\AppData\Local\Temp\ccmZfnu5.s 			page 146


 6356 0171 4144435F 		.ascii	"ADC_NbrOfConversion\000"
 6356      4E62724F 
 6356      66436F6E 
 6356      76657273 
 6356      696F6E00 
 6357              	.LASF231:
 6358 0185 4750494F 		.ascii	"GPIOOType_TypeDef\000"
 6358      4F547970 
 6358      655F5479 
 6358      70654465 
 6358      6600
 6359              	.LASF316:
 6360 0197 70686173 		.ascii	"phase2\000"
 6360      653200
 6361              	.LASF50:
 6362 019e 54494D32 		.ascii	"TIM2_IRQn\000"
 6362      5F495251 
 6362      6E00
 6363              	.LASF235:
 6364 01a8 4750494F 		.ascii	"GPIO_Speed_100MHz\000"
 6364      5F537065 
 6364      65645F31 
 6364      30304D48 
 6364      7A00
 6365              	.LASF191:
 6366 01ba 444D4152 		.ascii	"DMAR\000"
 6366      00
 6367              	.LASF115:
 6368 01bf 49435052 		.ascii	"ICPR\000"
 6368      00
 6369              	.LASF329:
 6370 01c4 70617261 		.ascii	"param4b\000"
 6370      6D346200 
 6371              	.LASF293:
 6372 01cc 4E564943 		.ascii	"NVIC_InitStructure\000"
 6372      5F496E69 
 6372      74537472 
 6372      75637475 
 6372      726500
 6373              	.LASF368:
 6374 01df 4144435F 		.ascii	"ADC_DeInit\000"
 6374      4465496E 
 6374      697400
 6375              	.LASF86:
 6376 01ea 43414E32 		.ascii	"CAN2_RX0_IRQn\000"
 6376      5F525830 
 6376      5F495251 
 6376      6E00
 6377              	.LASF93:
 6378 01f8 55534152 		.ascii	"USART6_IRQn\000"
 6378      54365F49 
 6378      52516E00 
 6379              	.LASF366:
 6380 0204 5243435F 		.ascii	"RCC_AHB2PeriphClockCmd\000"
 6380      41484232 
 6380      50657269 
 6380      7068436C 
ARM GAS  C:\Users\CNous\AppData\Local\Temp\ccmZfnu5.s 			page 147


 6380      6F636B43 
 6381              	.LASF184:
 6382 021b 43435231 		.ascii	"CCR1\000"
 6382      00
 6383              	.LASF185:
 6384 0220 43435232 		.ascii	"CCR2\000"
 6384      00
 6385              	.LASF186:
 6386 0225 43435233 		.ascii	"CCR3\000"
 6386      00
 6387              	.LASF187:
 6388 022a 43435234 		.ascii	"CCR4\000"
 6388      00
 6389              	.LASF98:
 6390 022f 4F54475F 		.ascii	"OTG_HS_WKUP_IRQn\000"
 6390      48535F57 
 6390      4B55505F 
 6390      4952516E 
 6390      00
 6391              	.LASF58:
 6392 0240 53504932 		.ascii	"SPI2_IRQn\000"
 6392      5F495251 
 6392      6E00
 6393              	.LASF65:
 6394 024a 54494D38 		.ascii	"TIM8_BRK_TIM12_IRQn\000"
 6394      5F42524B 
 6394      5F54494D 
 6394      31325F49 
 6394      52516E00 
 6395              	.LASF239:
 6396 025e 4750494F 		.ascii	"GPIO_PuPd_DOWN\000"
 6396      5F507550 
 6396      645F444F 
 6396      574E00
 6397              	.LASF261:
 6398 026d 4E564943 		.ascii	"NVIC_IRQChannelCmd\000"
 6398      5F495251 
 6398      4368616E 
 6398      6E656C43 
 6398      6D6400
 6399              	.LASF312:
 6400 0280 54494D5F 		.ascii	"TIM_TimeBaseStructure\000"
 6400      54696D65 
 6400      42617365 
 6400      53747275 
 6400      63747572 
 6401              	.LASF125:
 6402 0296 41495243 		.ascii	"AIRCR\000"
 6402      5200
 6403              	.LASF207:
 6404 029c 4144435F 		.ascii	"ADC_CommonInitTypeDef\000"
 6404      436F6D6D 
 6404      6F6E496E 
 6404      69745479 
 6404      70654465 
 6405              	.LASF326:
 6406 02b2 70617261 		.ascii	"param1b\000"
ARM GAS  C:\Users\CNous\AppData\Local\Temp\ccmZfnu5.s 			page 148


 6406      6D316200 
 6407              	.LASF7:
 6408 02ba 6C6F6E67 		.ascii	"long int\000"
 6408      20696E74 
 6408      00
 6409              	.LASF122:
 6410 02c3 43505549 		.ascii	"CPUID\000"
 6410      4400
 6411              	.LASF379:
 6412 02c9 54696D69 		.ascii	"TimingDelay_Decrement\000"
 6412      6E674465 
 6412      6C61795F 
 6412      44656372 
 6412      656D656E 
 6413              	.LASF90:
 6414 02df 444D4132 		.ascii	"DMA2_Stream5_IRQn\000"
 6414      5F537472 
 6414      65616D35 
 6414      5F495251 
 6414      6E00
 6415              	.LASF226:
 6416 02f1 4750494F 		.ascii	"GPIO_Mode_AF\000"
 6416      5F4D6F64 
 6416      655F4146 
 6416      00
 6417              	.LASF273:
 6418 02fe 4952516E 		.ascii	"IRQn\000"
 6418      00
 6419              	.LASF48:
 6420 0303 54494D31 		.ascii	"TIM1_TRG_COM_TIM11_IRQn\000"
 6420      5F545247 
 6420      5F434F4D 
 6420      5F54494D 
 6420      31315F49 
 6421              	.LASF192:
 6422 031b 52455345 		.ascii	"RESERVED13\000"
 6422      52564544 
 6422      313300
 6423              	.LASF371:
 6424 0326 524E475F 		.ascii	"RNG_GetFlagStatus\000"
 6424      47657446 
 6424      6C616753 
 6424      74617475 
 6424      7300
 6425              	.LASF351:
 6426 0338 4144435F 		.ascii	"ADC_SoftwareStartConv\000"
 6426      536F6674 
 6426      77617265 
 6426      53746172 
 6426      74436F6E 
 6427              	.LASF21:
 6428 034e 53797354 		.ascii	"SysTick_IRQn\000"
 6428      69636B5F 
 6428      4952516E 
 6428      00
 6429              	.LASF61:
 6430 035b 55534152 		.ascii	"USART3_IRQn\000"
ARM GAS  C:\Users\CNous\AppData\Local\Temp\ccmZfnu5.s 			page 149


 6430      54335F49 
 6430      52516E00 
 6431              	.LASF123:
 6432 0367 49435352 		.ascii	"ICSR\000"
 6432      00
 6433              	.LASF280:
 6434 036c 53697A65 		.ascii	"Size\000"
 6434      00
 6435              	.LASF230:
 6436 0371 4750494F 		.ascii	"GPIO_OType_OD\000"
 6436      5F4F5479 
 6436      70655F4F 
 6436      4400
 6437              	.LASF222:
 6438 037f 444D415F 		.ascii	"DMA_PeripheralBurst\000"
 6438      50657269 
 6438      70686572 
 6438      616C4275 
 6438      72737400 
 6439              	.LASF0:
 6440 0393 7369676E 		.ascii	"signed char\000"
 6440      65642063 
 6440      68617200 
 6441              	.LASF105:
 6442 039f 75696E74 		.ascii	"uint8_t\000"
 6442      385F7400 
 6443              	.LASF334:
 6444 03a7 61636372 		.ascii	"accroche4\000"
 6444      6F636865 
 6444      3400
 6445              	.LASF269:
 6446 03b1 42757474 		.ascii	"Button_TypeDef\000"
 6446      6F6E5F54 
 6446      79706544 
 6446      656600
 6447              	.LASF246:
 6448 03c0 4750494F 		.ascii	"GPIO_InitTypeDef\000"
 6448      5F496E69 
 6448      74547970 
 6448      65446566 
 6448      00
 6449              	.LASF194:
 6450 03d1 54494D5F 		.ascii	"TIM_TypeDef\000"
 6450      54797065 
 6450      44656600 
 6451              	.LASF35:
 6452 03dd 444D4131 		.ascii	"DMA1_Stream2_IRQn\000"
 6452      5F537472 
 6452      65616D32 
 6452      5F495251 
 6452      6E00
 6453              	.LASF352:
 6454 03ef 5243435F 		.ascii	"RCC_APB1PeriphClockCmd\000"
 6454      41504231 
 6454      50657269 
 6454      7068436C 
 6454      6F636B43 
ARM GAS  C:\Users\CNous\AppData\Local\Temp\ccmZfnu5.s 			page 150


 6455              	.LASF110:
 6456 0406 52455345 		.ascii	"RESERVED0\000"
 6456      52564544 
 6456      3000
 6457              	.LASF173:
 6458 0410 52455345 		.ascii	"RESERVED1\000"
 6458      52564544 
 6458      3100
 6459              	.LASF1:
 6460 041a 756E7369 		.ascii	"unsigned char\000"
 6460      676E6564 
 6460      20636861 
 6460      7200
 6461              	.LASF82:
 6462 0428 444D4132 		.ascii	"DMA2_Stream4_IRQn\000"
 6462      5F537472 
 6462      65616D34 
 6462      5F495251 
 6462      6E00
 6463              	.LASF118:
 6464 043a 52455345 		.ascii	"RESERVED4\000"
 6464      52564544 
 6464      3400
 6465              	.LASF119:
 6466 0444 52455345 		.ascii	"RESERVED5\000"
 6466      52564544 
 6466      3500
 6467              	.LASF177:
 6468 044e 52455345 		.ascii	"RESERVED6\000"
 6468      52564544 
 6468      3600
 6469              	.LASF179:
 6470 0458 52455345 		.ascii	"RESERVED7\000"
 6470      52564544 
 6470      3700
 6471              	.LASF181:
 6472 0462 52455345 		.ascii	"RESERVED8\000"
 6472      52564544 
 6472      3800
 6473              	.LASF182:
 6474 046c 52455345 		.ascii	"RESERVED9\000"
 6474      52564544 
 6474      3900
 6475              	.LASF375:
 6476 0476 7372632F 		.ascii	"src/main.c\000"
 6476      6D61696E 
 6476      2E6300
 6477              	.LASF117:
 6478 0481 49414252 		.ascii	"IABR\000"
 6478      00
 6479              	.LASF229:
 6480 0486 4750494F 		.ascii	"GPIO_OType_PP\000"
 6480      5F4F5479 
 6480      70655F50 
 6480      5000
 6481              	.LASF54:
 6482 0494 49324331 		.ascii	"I2C1_ER_IRQn\000"
ARM GAS  C:\Users\CNous\AppData\Local\Temp\ccmZfnu5.s 			page 151


 6482      5F45525F 
 6482      4952516E 
 6482      00
 6483              	.LASF348:
 6484 04a1 4144435F 		.ascii	"ADC_DMACmd\000"
 6484      444D4143 
 6484      6D6400
 6485              	.LASF88:
 6486 04ac 43414E32 		.ascii	"CAN2_SCE_IRQn\000"
 6486      5F534345 
 6486      5F495251 
 6486      6E00
 6487              	.LASF114:
 6488 04ba 52455345 		.ascii	"RESERVED2\000"
 6488      52564544 
 6488      3200
 6489              	.LASF116:
 6490 04c4 52455345 		.ascii	"RESERVED3\000"
 6490      52564544 
 6490      3300
 6491              	.LASF72:
 6492 04ce 54494D35 		.ascii	"TIM5_IRQn\000"
 6492      5F495251 
 6492      6E00
 6493              	.LASF17:
 6494 04d8 55736167 		.ascii	"UsageFault_IRQn\000"
 6494      65466175 
 6494      6C745F49 
 6494      52516E00 
 6495              	.LASF176:
 6496 04e8 43434D52 		.ascii	"CCMR1\000"
 6496      3100
 6497              	.LASF178:
 6498 04ee 43434D52 		.ascii	"CCMR2\000"
 6498      3200
 6499              	.LASF347:
 6500 04f4 4144435F 		.ascii	"ADC_DMARequestAfterLastTransferCmd\000"
 6500      444D4152 
 6500      65717565 
 6500      73744166 
 6500      7465724C 
 6501              	.LASF10:
 6502 0517 63686172 		.ascii	"char\000"
 6502      00
 6503              	.LASF136:
 6504 051c 5343425F 		.ascii	"SCB_Type\000"
 6504      54797065 
 6504      00
 6505              	.LASF240:
 6506 0525 4750494F 		.ascii	"GPIOPuPd_TypeDef\000"
 6506      50755064 
 6506      5F547970 
 6506      65446566 
 6506      00
 6507              	.LASF129:
 6508 0536 44465352 		.ascii	"DFSR\000"
 6508      00
ARM GAS  C:\Users\CNous\AppData\Local\Temp\ccmZfnu5.s 			page 152


 6509              	.LASF346:
 6510 053b 4144435F 		.ascii	"ADC_RegularChannelConfig\000"
 6510      52656775 
 6510      6C617243 
 6510      68616E6E 
 6510      656C436F 
 6511              	.LASF340:
 6512 0554 5243435F 		.ascii	"RCC_APB2PeriphClockCmd\000"
 6512      41504232 
 6512      50657269 
 6512      7068436C 
 6512      6F636B43 
 6513              	.LASF259:
 6514 056b 4E564943 		.ascii	"NVIC_IRQChannelPreemptionPriority\000"
 6514      5F495251 
 6514      4368616E 
 6514      6E656C50 
 6514      7265656D 
 6515              	.LASF250:
 6516 058d 50434C4B 		.ascii	"PCLK2_Frequency\000"
 6516      325F4672 
 6516      65717565 
 6516      6E637900 
 6517              	.LASF341:
 6518 059d 444D415F 		.ascii	"DMA_Init\000"
 6518      496E6974 
 6518      00
 6519              	.LASF370:
 6520 05a6 50686173 		.ascii	"PhaserInit\000"
 6520      6572496E 
 6520      697400
 6521              	.LASF42:
 6522 05b1 43414E31 		.ascii	"CAN1_RX0_IRQn\000"
 6522      5F525830 
 6522      5F495251 
 6522      6E00
 6523              	.LASF233:
 6524 05bf 4750494F 		.ascii	"GPIO_Speed_25MHz\000"
 6524      5F537065 
 6524      65645F32 
 6524      354D487A 
 6524      00
 6525              	.LASF128:
 6526 05d0 48465352 		.ascii	"HFSR\000"
 6526      00
 6527              	.LASF249:
 6528 05d5 50434C4B 		.ascii	"PCLK1_Frequency\000"
 6528      315F4672 
 6528      65717565 
 6528      6E637900 
 6529              	.LASF234:
 6530 05e5 4750494F 		.ascii	"GPIO_Speed_50MHz\000"
 6530      5F537065 
 6530      65645F35 
 6530      304D487A 
 6530      00
 6531              	.LASF208:
ARM GAS  C:\Users\CNous\AppData\Local\Temp\ccmZfnu5.s 			page 153


 6532 05f6 444D415F 		.ascii	"DMA_Channel\000"
 6532      4368616E 
 6532      6E656C00 
 6533              	.LASF52:
 6534 0602 54494D34 		.ascii	"TIM4_IRQn\000"
 6534      5F495251 
 6534      6E00
 6535              	.LASF60:
 6536 060c 55534152 		.ascii	"USART2_IRQn\000"
 6536      54325F49 
 6536      52516E00 
 6537              	.LASF299:
 6538 0618 73616D70 		.ascii	"sampleT\000"
 6538      6C655400 
 6539              	.LASF198:
 6540 0620 4144435F 		.ascii	"ADC_ExternalTrigConvEdge\000"
 6540      45787465 
 6540      726E616C 
 6540      54726967 
 6540      436F6E76 
 6541              	.LASF200:
 6542 0639 4144435F 		.ascii	"ADC_DataAlign\000"
 6542      44617461 
 6542      416C6967 
 6542      6E00
 6543              	.LASF217:
 6544 0647 444D415F 		.ascii	"DMA_Mode\000"
 6544      4D6F6465 
 6544      00
 6545              	.LASF126:
 6546 0650 53484353 		.ascii	"SHCSR\000"
 6546      5200
 6547              	.LASF289:
 6548 0656 4750494F 		.ascii	"GPIO_A_InitStructure\000"
 6548      5F415F49 
 6548      6E697453 
 6548      74727563 
 6548      74757265 
 6549              	.LASF252:
 6550 066b 54494D5F 		.ascii	"TIM_Prescaler\000"
 6550      50726573 
 6550      63616C65 
 6550      7200
 6551              	.LASF120:
 6552 0679 53544952 		.ascii	"STIR\000"
 6552      00
 6553              	.LASF53:
 6554 067e 49324331 		.ascii	"I2C1_EV_IRQn\000"
 6554      5F45565F 
 6554      4952516E 
 6554      00
 6555              	.LASF210:
 6556 068b 444D415F 		.ascii	"DMA_Memory0BaseAddr\000"
 6556      4D656D6F 
 6556      72793042 
 6556      61736541 
 6556      64647200 
ARM GAS  C:\Users\CNous\AppData\Local\Temp\ccmZfnu5.s 			page 154


 6557              	.LASF160:
 6558 069f 4144435F 		.ascii	"ADC_TypeDef\000"
 6558      54797065 
 6558      44656600 
 6559              	.LASF255:
 6560 06ab 54494D5F 		.ascii	"TIM_ClockDivision\000"
 6560      436C6F63 
 6560      6B446976 
 6560      6973696F 
 6560      6E00
 6561              	.LASF343:
 6562 06bd 4750494F 		.ascii	"GPIO_Init\000"
 6562      5F496E69 
 6562      7400
 6563              	.LASF209:
 6564 06c7 444D415F 		.ascii	"DMA_PeripheralBaseAddr\000"
 6564      50657269 
 6564      70686572 
 6564      616C4261 
 6564      73654164 
 6565              	.LASF279:
 6566 06de 70427566 		.ascii	"pBuffer\000"
 6566      66657200 
 6567              	.LASF277:
 6568 06e6 4556414C 		.ascii	"EVAL_AUDIO_HalfTransfer_CallBack\000"
 6568      5F415544 
 6568      494F5F48 
 6568      616C6654 
 6568      72616E73 
 6569              	.LASF308:
 6570 0707 656E7650 		.ascii	"envPhase\000"
 6570      68617365 
 6570      00
 6571              	.LASF225:
 6572 0710 4750494F 		.ascii	"GPIO_Mode_OUT\000"
 6572      5F4D6F64 
 6572      655F4F55 
 6572      5400
 6573              	.LASF367:
 6574 071e 524E475F 		.ascii	"RNG_Cmd\000"
 6574      436D6400 
 6575              	.LASF49:
 6576 0726 54494D31 		.ascii	"TIM1_CC_IRQn\000"
 6576      5F43435F 
 6576      4952516E 
 6576      00
 6577              	.LASF102:
 6578 0733 48415348 		.ascii	"HASH_RNG_IRQn\000"
 6578      5F524E47 
 6578      5F495251 
 6578      6E00
 6579              	.LASF29:
 6580 0741 45585449 		.ascii	"EXTI1_IRQn\000"
 6580      315F4952 
 6580      516E00
 6581              	.LASF41:
 6582 074c 43414E31 		.ascii	"CAN1_TX_IRQn\000"
ARM GAS  C:\Users\CNous\AppData\Local\Temp\ccmZfnu5.s 			page 155


 6582      5F54585F 
 6582      4952516E 
 6582      00
 6583              	.LASF38:
 6584 0759 444D4131 		.ascii	"DMA1_Stream5_IRQn\000"
 6584      5F537472 
 6584      65616D35 
 6584      5F495251 
 6584      6E00
 6585              	.LASF282:
 6586 076b 436F6465 		.ascii	"Codec_TIMEOUT_UserCallback\000"
 6586      635F5449 
 6586      4D454F55 
 6586      545F5573 
 6586      65724361 
 6587              	.LASF321:
 6588 0786 41444331 		.ascii	"ADC1ConvertedValues\000"
 6588      436F6E76 
 6588      65727465 
 6588      6456616C 
 6588      75657300 
 6589              	.LASF67:
 6590 079a 54494D38 		.ascii	"TIM8_TRG_COM_TIM14_IRQn\000"
 6590      5F545247 
 6590      5F434F4D 
 6590      5F54494D 
 6590      31345F49 
 6591              	.LASF92:
 6592 07b2 444D4132 		.ascii	"DMA2_Stream7_IRQn\000"
 6592      5F537472 
 6592      65616D37 
 6592      5F495251 
 6592      6E00
 6593              	.LASF89:
 6594 07c4 4F54475F 		.ascii	"OTG_FS_IRQn\000"
 6594      46535F49 
 6594      52516E00 
 6595              	.LASF14:
 6596 07d0 4E6F6E4D 		.ascii	"NonMaskableInt_IRQn\000"
 6596      61736B61 
 6596      626C6549 
 6596      6E745F49 
 6596      52516E00 
 6597              	.LASF254:
 6598 07e4 54494D5F 		.ascii	"TIM_Period\000"
 6598      50657269 
 6598      6F6400
 6599              	.LASF22:
 6600 07ef 57574447 		.ascii	"WWDG_IRQn\000"
 6600      5F495251 
 6600      6E00
 6601              	.LASF354:
 6602 07f9 4E564943 		.ascii	"NVIC_Init\000"
 6602      5F496E69 
 6602      7400
 6603              	.LASF9:
 6604 0803 6C6F6E67 		.ascii	"long unsigned int\000"
ARM GAS  C:\Users\CNous\AppData\Local\Temp\ccmZfnu5.s 			page 156


 6604      20756E73 
 6604      69676E65 
 6604      6420696E 
 6604      7400
 6605              	.LASF318:
 6606 0815 66726571 		.ascii	"freq\000"
 6606      00
 6607              	.LASF15:
 6608 081a 4D656D6F 		.ascii	"MemoryManagement_IRQn\000"
 6608      72794D61 
 6608      6E616765 
 6608      6D656E74 
 6608      5F495251 
 6609              	.LASF175:
 6610 0830 44494552 		.ascii	"DIER\000"
 6610      00
 6611              	.LASF297:
 6612 0835 53797374 		.ascii	"SystemCoreClock\000"
 6612      656D436F 
 6612      7265436C 
 6612      6F636B00 
 6613              	.LASF24:
 6614 0845 54414D50 		.ascii	"TAMP_STAMP_IRQn\000"
 6614      5F535441 
 6614      4D505F49 
 6614      52516E00 
 6615              	.LASF44:
 6616 0855 43414E31 		.ascii	"CAN1_SCE_IRQn\000"
 6616      5F534345 
 6616      5F495251 
 6616      6E00
 6617              	.LASF104:
 6618 0863 4952516E 		.ascii	"IRQn_Type\000"
 6618      5F547970 
 6618      6500
 6619              	.LASF224:
 6620 086d 4750494F 		.ascii	"GPIO_Mode_IN\000"
 6620      5F4D6F64 
 6620      655F494E 
 6620      00
 6621              	.LASF78:
 6622 087a 444D4132 		.ascii	"DMA2_Stream0_IRQn\000"
 6622      5F537472 
 6622      65616D30 
 6622      5F495251 
 6622      6E00
 6623              	.LASF146:
 6624 088c 534D5052 		.ascii	"SMPR1\000"
 6624      3100
 6625              	.LASF147:
 6626 0892 534D5052 		.ascii	"SMPR2\000"
 6626      3200
 6627              	.LASF202:
 6628 0898 4144435F 		.ascii	"ADC_InitTypeDef\000"
 6628      496E6974 
 6628      54797065 
 6628      44656600 
ARM GAS  C:\Users\CNous\AppData\Local\Temp\ccmZfnu5.s 			page 157


 6629              	.LASF258:
 6630 08a8 4E564943 		.ascii	"NVIC_IRQChannel\000"
 6630      5F495251 
 6630      4368616E 
 6630      6E656C00 
 6631              	.LASF364:
 6632 08b8 53544D5F 		.ascii	"STM_EVAL_LEDInit\000"
 6632      4556414C 
 6632      5F4C4544 
 6632      496E6974 
 6632      00
 6633              	.LASF330:
 6634 08c9 706F7453 		.ascii	"potSet\000"
 6634      657400
 6635              	.LASF171:
 6636 08d0 4C434B52 		.ascii	"LCKR\000"
 6636      00
 6637              	.LASF214:
 6638 08d5 444D415F 		.ascii	"DMA_MemoryInc\000"
 6638      4D656D6F 
 6638      7279496E 
 6638      6300
 6639              	.LASF221:
 6640 08e3 444D415F 		.ascii	"DMA_MemoryBurst\000"
 6640      4D656D6F 
 6640      72794275 
 6640      72737400 
 6641              	.LASF56:
 6642 08f3 49324332 		.ascii	"I2C2_ER_IRQn\000"
 6642      5F45525F 
 6642      4952516E 
 6642      00
 6643              	.LASF196:
 6644 0900 4144435F 		.ascii	"ADC_ScanConvMode\000"
 6644      5363616E 
 6644      436F6E76 
 6644      4D6F6465 
 6644      00
 6645              	.LASF167:
 6646 0911 4F535045 		.ascii	"OSPEEDR\000"
 6646      45445200 
 6647              	.LASF16:
 6648 0919 42757346 		.ascii	"BusFault_IRQn\000"
 6648      61756C74 
 6648      5F495251 
 6648      6E00
 6649              	.LASF275:
 6650 0927 7469636B 		.ascii	"ticks\000"
 6650      7300
 6651              	.LASF75:
 6652 092d 55415254 		.ascii	"UART5_IRQn\000"
 6652      355F4952 
 6652      516E00
 6653              	.LASF46:
 6654 0938 54494D31 		.ascii	"TIM1_BRK_TIM9_IRQn\000"
 6654      5F42524B 
 6654      5F54494D 
ARM GAS  C:\Users\CNous\AppData\Local\Temp\ccmZfnu5.s 			page 158


 6654      395F4952 
 6654      516E00
 6655              	.LASF244:
 6656 094b 4750494F 		.ascii	"GPIO_OType\000"
 6656      5F4F5479 
 6656      706500
 6657              	.LASF197:
 6658 0956 4144435F 		.ascii	"ADC_ContinuousConvMode\000"
 6658      436F6E74 
 6658      696E756F 
 6658      7573436F 
 6658      6E764D6F 
 6659              	.LASF77:
 6660 096d 54494D37 		.ascii	"TIM7_IRQn\000"
 6660      5F495251 
 6660      6E00
 6661              	.LASF5:
 6662 0977 6C6F6E67 		.ascii	"long long int\000"
 6662      206C6F6E 
 6662      6720696E 
 6662      7400
 6663              	.LASF84:
 6664 0985 4554485F 		.ascii	"ETH_WKUP_IRQn\000"
 6664      574B5550 
 6664      5F495251 
 6664      6E00
 6665              	.LASF331:
 6666 0993 61636372 		.ascii	"accroche1\000"
 6666      6F636865 
 6666      3100
 6667              	.LASF332:
 6668 099d 61636372 		.ascii	"accroche2\000"
 6668      6F636865 
 6668      3200
 6669              	.LASF333:
 6670 09a7 61636372 		.ascii	"accroche3\000"
 6670      6F636865 
 6670      3300
 6671              	.LASF99:
 6672 09b1 4F54475F 		.ascii	"OTG_HS_IRQn\000"
 6672      48535F49 
 6672      52516E00 
 6673              	.LASF303:
 6674 09bd 77726974 		.ascii	"writepos\000"
 6674      65706F73 
 6674      00
 6675              	.LASF168:
 6676 09c6 50555044 		.ascii	"PUPDR\000"
 6676      5200
 6677              	.LASF57:
 6678 09cc 53504931 		.ascii	"SPI1_IRQn\000"
 6678      5F495251 
 6678      6E00
 6679              	.LASF143:
 6680 09d6 44495341 		.ascii	"DISABLE\000"
 6680      424C4500 
 6681              	.LASF11:
ARM GAS  C:\Users\CNous\AppData\Local\Temp\ccmZfnu5.s 			page 159


 6682 09de 646F7562 		.ascii	"double\000"
 6682      6C6500
 6683              	.LASF256:
 6684 09e5 54494D5F 		.ascii	"TIM_RepetitionCounter\000"
 6684      52657065 
 6684      74697469 
 6684      6F6E436F 
 6684      756E7465 
 6685              	.LASF18:
 6686 09fb 53564361 		.ascii	"SVCall_IRQn\000"
 6686      6C6C5F49 
 6686      52516E00 
 6687              	.LASF271:
 6688 0a07 42555454 		.ascii	"BUTTON_MODE_EXTI\000"
 6688      4F4E5F4D 
 6688      4F44455F 
 6688      45585449 
 6688      00
 6689              	.LASF170:
 6690 0a18 42535252 		.ascii	"BSRRH\000"
 6690      4800
 6691              	.LASF335:
 6692 0a1e 5243435F 		.ascii	"RCC_Clocks\000"
 6692      436C6F63 
 6692      6B7300
 6693              	.LASF169:
 6694 0a29 42535252 		.ascii	"BSRRL\000"
 6694      4C00
 6695              	.LASF360:
 6696 0a2f 54494D5F 		.ascii	"TIM_ARRPreloadConfig\000"
 6696      41525250 
 6696      72656C6F 
 6696      6164436F 
 6696      6E666967 
 6697              	.LASF350:
 6698 0a44 4144435F 		.ascii	"ADC_ContinuousModeCmd\000"
 6698      436F6E74 
 6698      696E756F 
 6698      75734D6F 
 6698      6465436D 
 6699              	.LASF310:
 6700 0a5a 73657149 		.ascii	"seqIndex\000"
 6700      6E646578 
 6700      00
 6701              	.LASF103:
 6702 0a63 4650555F 		.ascii	"FPU_IRQn\000"
 6702      4952516E 
 6702      00
 6703              	.LASF74:
 6704 0a6c 55415254 		.ascii	"UART4_IRQn\000"
 6704      345F4952 
 6704      516E00
 6705              	.LASF356:
 6706 0a77 54494D5F 		.ascii	"TIM_PrescalerConfig\000"
 6706      50726573 
 6706      63616C65 
 6706      72436F6E 
ARM GAS  C:\Users\CNous\AppData\Local\Temp\ccmZfnu5.s 			page 160


 6706      66696700 
 6707              	.LASF12:
 6708 0a8b 666C6F61 		.ascii	"float\000"
 6708      7400
 6709              	.LASF64:
 6710 0a91 4F54475F 		.ascii	"OTG_FS_WKUP_IRQn\000"
 6710      46535F57 
 6710      4B55505F 
 6710      4952516E 
 6710      00
 6711              	.LASF270:
 6712 0aa2 42555454 		.ascii	"BUTTON_MODE_GPIO\000"
 6712      4F4E5F4D 
 6712      4F44455F 
 6712      4750494F 
 6712      00
 6713              	.LASF4:
 6714 0ab3 756E7369 		.ascii	"unsigned int\000"
 6714      676E6564 
 6714      20696E74 
 6714      00
 6715              	.LASF137:
 6716 0ac0 4354524C 		.ascii	"CTRL\000"
 6716      00
 6717              	.LASF76:
 6718 0ac5 54494D36 		.ascii	"TIM6_DAC_IRQn\000"
 6718      5F444143 
 6718      5F495251 
 6718      6E00
 6719              	.LASF319:
 6720 0ad3 5F696E69 		.ascii	"_init\000"
 6720      7400
 6721              	.LASF314:
 6722 0ad9 72656C6F 		.ascii	"reloadValue\000"
 6722      61645661 
 6722      6C756500 
 6723              	.LASF243:
 6724 0ae5 4750494F 		.ascii	"GPIO_Speed\000"
 6724      5F537065 
 6724      656400
 6725              	.LASF55:
 6726 0af0 49324332 		.ascii	"I2C2_EV_IRQn\000"
 6726      5F45565F 
 6726      4952516E 
 6726      00
 6727              	.LASF317:
 6728 0afd 70686173 		.ascii	"phase2Step\000"
 6728      65325374 
 6728      657000
 6729              	.LASF131:
 6730 0b08 42464152 		.ascii	"BFAR\000"
 6730      00
 6731              	.LASF305:
 6732 0b0d 6F6C645F 		.ascii	"old_dy\000"
 6732      647900
 6733              	.LASF220:
 6734 0b14 444D415F 		.ascii	"DMA_FIFOThreshold\000"
ARM GAS  C:\Users\CNous\AppData\Local\Temp\ccmZfnu5.s 			page 161


 6734      4649464F 
 6734      54687265 
 6734      73686F6C 
 6734      6400
 6735              	.LASF34:
 6736 0b26 444D4131 		.ascii	"DMA1_Stream1_IRQn\000"
 6736      5F537472 
 6736      65616D31 
 6736      5F495251 
 6736      6E00
 6737              	.LASF284:
 6738 0b38 41444331 		.ascii	"ADC1_start\000"
 6738      5F737461 
 6738      727400
 6739              	.LASF264:
 6740 0b43 4C454433 		.ascii	"LED3\000"
 6740      00
 6741              	.LASF263:
 6742 0b48 4C454434 		.ascii	"LED4\000"
 6742      00
 6743              	.LASF81:
 6744 0b4d 444D4132 		.ascii	"DMA2_Stream3_IRQn\000"
 6744      5F537472 
 6744      65616D33 
 6744      5F495251 
 6744      6E00
 6745              	.LASF266:
 6746 0b5f 4C454436 		.ascii	"LED6\000"
 6746      00
 6747              	.LASF361:
 6748 0b64 54494D5F 		.ascii	"TIM_SelectOnePulseMode\000"
 6748      53656C65 
 6748      63744F6E 
 6748      6550756C 
 6748      73654D6F 
 6749              	.LASF85:
 6750 0b7b 43414E32 		.ascii	"CAN2_TX_IRQn\000"
 6750      5F54585F 
 6750      4952516E 
 6750      00
 6751              	.LASF164:
 6752 0b88 444D415F 		.ascii	"DMA_Stream_TypeDef\000"
 6752      53747265 
 6752      616D5F54 
 6752      79706544 
 6752      656600
 6753              	.LASF199:
 6754 0b9b 4144435F 		.ascii	"ADC_ExternalTrigConv\000"
 6754      45787465 
 6754      726E616C 
 6754      54726967 
 6754      436F6E76 
 6755              	.LASF307:
 6756 0bb0 656E7641 		.ascii	"envAmp\000"
 6756      6D7000
 6757              	.LASF304:
 6758 0bb7 636F6566 		.ascii	"coeff_a1\000"
ARM GAS  C:\Users\CNous\AppData\Local\Temp\ccmZfnu5.s 			page 162


 6758      665F6131 
 6758      00
 6759              	.LASF140:
 6760 0bc0 53797354 		.ascii	"SysTick_Type\000"
 6760      69636B5F 
 6760      54797065 
 6760      00
 6761              	.LASF306:
 6762 0bcd 656E7654 		.ascii	"envTrigger\000"
 6762      72696767 
 6762      657200
 6763              	.LASF253:
 6764 0bd8 54494D5F 		.ascii	"TIM_CounterMode\000"
 6764      436F756E 
 6764      7465724D 
 6764      6F646500 
 6765              	.LASF298:
 6766 0be8 61756469 		.ascii	"audiobuff\000"
 6766      6F627566 
 6766      6600
 6767              	.LASF260:
 6768 0bf2 4E564943 		.ascii	"NVIC_IRQChannelSubPriority\000"
 6768      5F495251 
 6768      4368616E 
 6768      6E656C53 
 6768      75625072 
 6769              	.LASF300:
 6770 0c0d 64656C61 		.ascii	"delayline\000"
 6770      796C696E 
 6770      6500
 6771              	.LASF268:
 6772 0c17 42555454 		.ascii	"BUTTON_USER\000"
 6772      4F4E5F55 
 6772      53455200 
 6773              	.LASF13:
 6774 0c23 6C6F6E67 		.ascii	"long double\000"
 6774      20646F75 
 6774      626C6500 
 6775              	.LASF357:
 6776 0c2f 54494D5F 		.ascii	"TIM_SetAutoreload\000"
 6776      53657441 
 6776      75746F72 
 6776      656C6F61 
 6776      6400
 6777              	.LASF322:
 6778 0c41 70617261 		.ascii	"param1\000"
 6778      6D3100
 6779              	.LASF323:
 6780 0c48 70617261 		.ascii	"param2\000"
 6780      6D3200
 6781              	.LASF324:
 6782 0c4f 70617261 		.ascii	"param3\000"
 6782      6D3300
 6783              	.LASF325:
 6784 0c56 70617261 		.ascii	"param4\000"
 6784      6D3400
 6785              	.LASF33:
ARM GAS  C:\Users\CNous\AppData\Local\Temp\ccmZfnu5.s 			page 163


 6786 0c5d 444D4131 		.ascii	"DMA1_Stream0_IRQn\000"
 6786      5F537472 
 6786      65616D30 
 6786      5F495251 
 6786      6E00
 6787              	.LASF272:
 6788 0c6f 42757474 		.ascii	"ButtonMode_TypeDef\000"
 6788      6F6E4D6F 
 6788      64655F54 
 6788      79706544 
 6788      656600
 6789              	.LASF342:
 6790 0c82 444D415F 		.ascii	"DMA_Cmd\000"
 6790      436D6400 
 6791              	.LASF63:
 6792 0c8a 5254435F 		.ascii	"RTC_Alarm_IRQn\000"
 6792      416C6172 
 6792      6D5F4952 
 6792      516E00
 6793              	.LASF121:
 6794 0c99 4E564943 		.ascii	"NVIC_Type\000"
 6794      5F547970 
 6794      6500
 6795              	.LASF369:
 6796 0ca3 73617774 		.ascii	"sawtooth_active\000"
 6796      6F6F7468 
 6796      5F616374 
 6796      69766500 
 6797              	.LASF211:
 6798 0cb3 444D415F 		.ascii	"DMA_DIR\000"
 6798      44495200 
 6799              	.LASF145:
 6800 0cbb 46756E63 		.ascii	"FunctionalState\000"
 6800      74696F6E 
 6800      616C5374 
 6800      61746500 
 6801              	.LASF95:
 6802 0ccb 49324333 		.ascii	"I2C3_ER_IRQn\000"
 6802      5F45525F 
 6802      4952516E 
 6802      00
 6803              	.LASF376:
 6804 0cd8 433A5C78 		.ascii	"C:\\xav_dev\\eclipse\\ambiantiseur-make\000"
 6804      61765F64 
 6804      65765C65 
 6804      636C6970 
 6804      73655C61 
 6805              	.LASF101:
 6806 0cfd 43525950 		.ascii	"CRYP_IRQn\000"
 6806      5F495251 
 6806      6E00
 6807              	.LASF62:
 6808 0d07 45585449 		.ascii	"EXTI15_10_IRQn\000"
 6808      31355F31 
 6808      305F4952 
 6808      516E00
 6809              	.LASF6:
ARM GAS  C:\Users\CNous\AppData\Local\Temp\ccmZfnu5.s 			page 164


 6810 0d16 6C6F6E67 		.ascii	"long long unsigned int\000"
 6810      206C6F6E 
 6810      6720756E 
 6810      7369676E 
 6810      65642069 
 6811              	.LASF106:
 6812 0d2d 75696E74 		.ascii	"uint16_t\000"
 6812      31365F74 
 6812      00
 6813              	.LASF349:
 6814 0d36 4144435F 		.ascii	"ADC_Cmd\000"
 6814      436D6400 
 6815              	.LASF51:
 6816 0d3e 54494D33 		.ascii	"TIM3_IRQn\000"
 6816      5F495251 
 6816      6E00
 6817              	.LASF180:
 6818 0d48 43434552 		.ascii	"CCER\000"
 6818      00
 6819              	.LASF190:
 6820 0d4d 52455345 		.ascii	"RESERVED12\000"
 6820      52564544 
 6820      313200
 6821              	.LASF59:
 6822 0d58 55534152 		.ascii	"USART1_IRQn\000"
 6822      54315F49 
 6822      52516E00 
 6823              	.LASF193:
 6824 0d64 52455345 		.ascii	"RESERVED14\000"
 6824      52564544 
 6824      313400
 6825              	.LASF373:
 6826 0d6f 4556414C 		.ascii	"EVAL_AUDIO_Play\000"
 6826      5F415544 
 6826      494F5F50 
 6826      6C617900 
 6827              	.LASF320:
 6828 0d7f 64656C61 		.ascii	"delay1\000"
 6828      793100
 6829              	.LASF336:
 6830 0d86 4750494F 		.ascii	"GPIO_InitStructure\000"
 6830      5F496E69 
 6830      74537472 
 6830      75637475 
 6830      726500
 6831              	.LASF242:
 6832 0d99 4750494F 		.ascii	"GPIO_Mode\000"
 6832      5F4D6F64 
 6832      6500
 6833              	.LASF87:
 6834 0da3 43414E32 		.ascii	"CAN2_RX1_IRQn\000"
 6834      5F525831 
 6834      5F495251 
 6834      6E00
 6835              	.LASF40:
 6836 0db1 4144435F 		.ascii	"ADC_IRQn\000"
 6836      4952516E 
ARM GAS  C:\Users\CNous\AppData\Local\Temp\ccmZfnu5.s 			page 165


 6836      00
 6837              	.LASF309:
 6838 0dba 656E7654 		.ascii	"envTime\000"
 6838      696D6500 
 6839              	.LASF205:
 6840 0dc2 4144435F 		.ascii	"ADC_DMAAccessMode\000"
 6840      444D4141 
 6840      63636573 
 6840      734D6F64 
 6840      6500
 6841              	.LASF111:
 6842 0dd4 49434552 		.ascii	"ICER\000"
 6842      00
 6843              	.LASF174:
 6844 0dd9 534D4352 		.ascii	"SMCR\000"
 6844      00
 6845              	.LASF358:
 6846 0dde 54494D5F 		.ascii	"TIM_UpdateDisableConfig\000"
 6846      55706461 
 6846      74654469 
 6846      7361626C 
 6846      65436F6E 
 6847              	.LASF278:
 6848 0df6 6E54696D 		.ascii	"nTime\000"
 6848      6500
 6849              	.LASF228:
 6850 0dfc 4750494F 		.ascii	"GPIOMode_TypeDef\000"
 6850      4D6F6465 
 6850      5F547970 
 6850      65446566 
 6850      00
 6851              	.LASF141:
 6852 0e0d 52455345 		.ascii	"RESET\000"
 6852      5400
 6853              	.LASF378:
 6854 0e13 53797354 		.ascii	"SysTick_Config\000"
 6854      69636B5F 
 6854      436F6E66 
 6854      696700
 6855              	.LASF23:
 6856 0e22 5056445F 		.ascii	"PVD_IRQn\000"
 6856      4952516E 
 6856      00
 6857              	.LASF132:
 6858 0e2b 41465352 		.ascii	"AFSR\000"
 6858      00
 6859              	.LASF166:
 6860 0e30 4F545950 		.ascii	"OTYPER\000"
 6860      455200
 6861              	.LASF139:
 6862 0e37 43414C49 		.ascii	"CALIB\000"
 6862      4200
 6863              	.LASF301:
 6864 0e3d 64656C61 		.ascii	"delayVol\000"
 6864      79566F6C 
 6864      00
 6865              	.LASF216:
ARM GAS  C:\Users\CNous\AppData\Local\Temp\ccmZfnu5.s 			page 166


 6866 0e46 444D415F 		.ascii	"DMA_MemoryDataSize\000"
 6866      4D656D6F 
 6866      72794461 
 6866      74615369 
 6866      7A6500
 6867              	.LASF70:
 6868 0e59 46534D43 		.ascii	"FSMC_IRQn\000"
 6868      5F495251 
 6868      6E00
 6869              	.LASF28:
 6870 0e63 45585449 		.ascii	"EXTI0_IRQn\000"
 6870      305F4952 
 6870      516E00
 6871              	.LASF127:
 6872 0e6e 43465352 		.ascii	"CFSR\000"
 6872      00
 6873              	.LASF218:
 6874 0e73 444D415F 		.ascii	"DMA_Priority\000"
 6874      5072696F 
 6874      72697479 
 6874      00
 6875              	.LASF37:
 6876 0e80 444D4131 		.ascii	"DMA1_Stream4_IRQn\000"
 6876      5F537472 
 6876      65616D34 
 6876      5F495251 
 6876      6E00
 6877              	.LASF91:
 6878 0e92 444D4132 		.ascii	"DMA2_Stream6_IRQn\000"
 6878      5F537472 
 6878      65616D36 
 6878      5F495251 
 6878      6E00
 6879              	.LASF206:
 6880 0ea4 4144435F 		.ascii	"ADC_TwoSamplingDelay\000"
 6880      54776F53 
 6880      616D706C 
 6880      696E6744 
 6880      656C6179 
 6881              	.LASF138:
 6882 0eb9 4C4F4144 		.ascii	"LOAD\000"
 6882      00
 6883              	.LASF232:
 6884 0ebe 4750494F 		.ascii	"GPIO_Speed_2MHz\000"
 6884      5F537065 
 6884      65645F32 
 6884      4D487A00 
 6885              	.LASF236:
 6886 0ece 4750494F 		.ascii	"GPIOSpeed_TypeDef\000"
 6886      53706565 
 6886      645F5479 
 6886      70654465 
 6886      6600
 6887              	.LASF19:
 6888 0ee0 44656275 		.ascii	"DebugMonitor_IRQn\000"
 6888      674D6F6E 
 6888      69746F72 
ARM GAS  C:\Users\CNous\AppData\Local\Temp\ccmZfnu5.s 			page 167


 6888      5F495251 
 6888      6E00
 6889              	.LASF241:
 6890 0ef2 4750494F 		.ascii	"GPIO_Pin\000"
 6890      5F50696E 
 6890      00
 6891              	.LASF362:
 6892 0efb 54494D5F 		.ascii	"TIM_ITConfig\000"
 6892      4954436F 
 6892      6E666967 
 6892      00
 6893              	.LASF94:
 6894 0f08 49324333 		.ascii	"I2C3_EV_IRQn\000"
 6894      5F45565F 
 6894      4952516E 
 6894      00
 6895              	.LASF245:
 6896 0f15 4750494F 		.ascii	"GPIO_PuPd\000"
 6896      5F507550 
 6896      6400
 6897              	.LASF223:
 6898 0f1f 444D415F 		.ascii	"DMA_InitTypeDef\000"
 6898      496E6974 
 6898      54797065 
 6898      44656600 
 6899              	.LASF162:
 6900 0f2f 4D304152 		.ascii	"M0AR\000"
 6900      00
 6901              	.LASF83:
 6902 0f34 4554485F 		.ascii	"ETH_IRQn\000"
 6902      4952516E 
 6902      00
 6903              	.LASF251:
 6904 0f3d 5243435F 		.ascii	"RCC_ClocksTypeDef\000"
 6904      436C6F63 
 6904      6B735479 
 6904      70654465 
 6904      6600
 6905              	.LASF267:
 6906 0f4f 4C65645F 		.ascii	"Led_TypeDef\000"
 6906      54797065 
 6906      44656600 
 6907              	.LASF133:
 6908 0f5b 4D4D4652 		.ascii	"MMFR\000"
 6908      00
 6909              	.LASF130:
 6910 0f60 4D4D4641 		.ascii	"MMFAR\000"
 6910      5200
 6911              	.LASF2:
 6912 0f66 73686F72 		.ascii	"short int\000"
 6912      7420696E 
 6912      7400
 6913              	.LASF292:
 6914 0f70 54494D36 		.ascii	"TIM6_Config_and_start\000"
 6914      5F436F6E 
 6914      6669675F 
 6914      616E645F 
ARM GAS  C:\Users\CNous\AppData\Local\Temp\ccmZfnu5.s 			page 168


 6914      73746172 
 6915              	.LASF27:
 6916 0f86 5243435F 		.ascii	"RCC_IRQn\000"
 6916      4952516E 
 6916      00
 6917              	.LASF274:
 6918 0f8f 7072696F 		.ascii	"priority\000"
 6918      72697479 
 6918      00
 6919              	.LASF380:
 6920 0f98 524E475F 		.ascii	"RNG_GetRandomNumber\000"
 6920      47657452 
 6920      616E646F 
 6920      6D4E756D 
 6920      62657200 
 6921              	.LASF148:
 6922 0fac 4A4F4652 		.ascii	"JOFR1\000"
 6922      3100
 6923              	.LASF149:
 6924 0fb2 4A4F4652 		.ascii	"JOFR2\000"
 6924      3200
 6925              	.LASF150:
 6926 0fb8 4A4F4652 		.ascii	"JOFR3\000"
 6926      3300
 6927              	.LASF151:
 6928 0fbe 4A4F4652 		.ascii	"JOFR4\000"
 6928      3400
 6929              	.LASF353:
 6930 0fc4 54494D5F 		.ascii	"TIM_DeInit\000"
 6930      4465496E 
 6930      697400
 6931              	.LASF134:
 6932 0fcf 49534152 		.ascii	"ISAR\000"
 6932      00
 6933              	.LASF36:
 6934 0fd4 444D4131 		.ascii	"DMA1_Stream3_IRQn\000"
 6934      5F537472 
 6934      65616D33 
 6934      5F495251 
 6934      6E00
 6935              	.LASF345:
 6936 0fe6 4144435F 		.ascii	"ADC_Init\000"
 6936      496E6974 
 6936      00
 6937              	.LASF144:
 6938 0fef 454E4142 		.ascii	"ENABLE\000"
 6938      4C4500
 6939              	.LASF372:
 6940 0ff6 4556414C 		.ascii	"EVAL_AUDIO_Init\000"
 6940      5F415544 
 6940      494F5F49 
 6940      6E697400 
 6941              	.LASF290:
 6942 1006 4750494F 		.ascii	"GPIO_B_InitStructure\000"
 6942      5F425F49 
 6942      6E697453 
 6942      74727563 
ARM GAS  C:\Users\CNous\AppData\Local\Temp\ccmZfnu5.s 			page 169


 6942      74757265 
 6943              	.LASF156:
 6944 101b 4A445231 		.ascii	"JDR1\000"
 6944      00
 6945              	.LASF157:
 6946 1020 4A445232 		.ascii	"JDR2\000"
 6946      00
 6947              	.LASF158:
 6948 1025 4A445233 		.ascii	"JDR3\000"
 6948      00
 6949              	.LASF159:
 6950 102a 4A445234 		.ascii	"JDR4\000"
 6950      00
 6951              	.LASF155:
 6952 102f 4A535152 		.ascii	"JSQR\000"
 6952      00
 6953              	.LASF172:
 6954 1034 4750494F 		.ascii	"GPIO_TypeDef\000"
 6954      5F547970 
 6954      65446566 
 6954      00
 6955              	.LASF47:
 6956 1041 54494D31 		.ascii	"TIM1_UP_TIM10_IRQn\000"
 6956      5F55505F 
 6956      54494D31 
 6956      305F4952 
 6956      516E00
 6957              	.LASF296:
 6958 1054 49544D5F 		.ascii	"ITM_RxBuffer\000"
 6958      52784275 
 6958      66666572 
 6958      00
 6959              	.LASF355:
 6960 1061 54494D5F 		.ascii	"TIM_TimeBaseInit\000"
 6960      54696D65 
 6960      42617365 
 6960      496E6974 
 6960      00
 6961              	.LASF195:
 6962 1072 4144435F 		.ascii	"ADC_Resolution\000"
 6962      5265736F 
 6962      6C757469 
 6962      6F6E00
 6963              	.LASF295:
 6964 1081 6D61696E 		.ascii	"main\000"
 6964      00
 6965              	.LASF227:
 6966 1086 4750494F 		.ascii	"GPIO_Mode_AN\000"
 6966      5F4D6F64 
 6966      655F414E 
 6966      00
 6967              	.LASF281:
 6968 1093 4556414C 		.ascii	"EVAL_AUDIO_TransferComplete_CallBack\000"
 6968      5F415544 
 6968      494F5F54 
 6968      72616E73 
 6968      66657243 
ARM GAS  C:\Users\CNous\AppData\Local\Temp\ccmZfnu5.s 			page 170


 6969              	.LASF96:
 6970 10b8 4F54475F 		.ascii	"OTG_HS_EP1_OUT_IRQn\000"
 6970      48535F45 
 6970      50315F4F 
 6970      55545F49 
 6970      52516E00 
 6971              	.LASF283:
 6972 10cc 4556414C 		.ascii	"EVAL_AUDIO_GetSampleCallBack\000"
 6972      5F415544 
 6972      494F5F47 
 6972      65745361 
 6972      6D706C65 
 6973              	.LASF285:
 6974 10e9 72616E64 		.ascii	"random\000"
 6974      6F6D00
 6975              	.LASF203:
 6976 10f0 4144435F 		.ascii	"ADC_Mode\000"
 6976      4D6F6465 
 6976      00
 6977              	.LASF344:
 6978 10f9 4144435F 		.ascii	"ADC_CommonInit\000"
 6978      436F6D6D 
 6978      6F6E496E 
 6978      697400
 6979              	.LASF188:
 6980 1108 42445452 		.ascii	"BDTR\000"
 6980      00
 6981              	.LASF108:
 6982 110d 75696E74 		.ascii	"uint32_t\000"
 6982      33325F74 
 6982      00
 6983              	.LASF338:
 6984 1116 73617774 		.ascii	"sawtooth_runproc\000"
 6984      6F6F7468 
 6984      5F72756E 
 6984      70726F63 
 6984      00
 6985              	.LASF219:
 6986 1127 444D415F 		.ascii	"DMA_FIFOMode\000"
 6986      4649464F 
 6986      4D6F6465 
 6986      00
 6987              	.LASF165:
 6988 1134 4D4F4445 		.ascii	"MODER\000"
 6988      5200
 6989              	.LASF377:
 6990 113a 4E564943 		.ascii	"NVIC_SetPriority\000"
 6990      5F536574 
 6990      5072696F 
 6990      72697479 
 6990      00
 6991              	.LASF43:
 6992 114b 43414E31 		.ascii	"CAN1_RX1_IRQn\000"
 6992      5F525831 
 6992      5F495251 
 6992      6E00
 6993              	.LASF265:
ARM GAS  C:\Users\CNous\AppData\Local\Temp\ccmZfnu5.s 			page 171


 6994 1159 4C454435 		.ascii	"LED5\000"
 6994      00
 6995              	.LASF238:
 6996 115e 4750494F 		.ascii	"GPIO_PuPd_UP\000"
 6996      5F507550 
 6996      645F5550 
 6996      00
 6997              	.LASF45:
 6998 116b 45585449 		.ascii	"EXTI9_5_IRQn\000"
 6998      395F355F 
 6998      4952516E 
 6998      00
 6999              	.LASF339:
 7000 1178 5243435F 		.ascii	"RCC_AHB1PeriphClockCmd\000"
 7000      41484231 
 7000      50657269 
 7000      7068436C 
 7000      6F636B43 
 7001              	.LASF337:
 7002 118f 54696D69 		.ascii	"TimingDelay\000"
 7002      6E674465 
 7002      6C617900 
 7003              	.LASF32:
 7004 119b 45585449 		.ascii	"EXTI4_IRQn\000"
 7004      345F4952 
 7004      516E00
 7005              	.LASF262:
 7006 11a6 4E564943 		.ascii	"NVIC_InitTypeDef\000"
 7006      5F496E69 
 7006      74547970 
 7006      65446566 
 7006      00
 7007              	.LASF3:
 7008 11b7 73686F72 		.ascii	"short unsigned int\000"
 7008      7420756E 
 7008      7369676E 
 7008      65642069 
 7008      6E7400
 7009              	.LASF68:
 7010 11ca 54494D38 		.ascii	"TIM8_CC_IRQn\000"
 7010      5F43435F 
 7010      4952516E 
 7010      00
 7011              	.LASF71:
 7012 11d7 5344494F 		.ascii	"SDIO_IRQn\000"
 7012      5F495251 
 7012      6E00
 7013              	.LASF135:
 7014 11e1 43504143 		.ascii	"CPACR\000"
 7014      5200
 7015              	.LASF183:
 7016 11e7 52455345 		.ascii	"RESERVED10\000"
 7016      52564544 
 7016      313000
 7017              	.LASF189:
 7018 11f2 52455345 		.ascii	"RESERVED11\000"
 7018      52564544 
ARM GAS  C:\Users\CNous\AppData\Local\Temp\ccmZfnu5.s 			page 172


 7018      313100
 7019              	.LASF113:
 7020 11fd 49535052 		.ascii	"ISPR\000"
 7020      00
 7021              	.LASF247:
 7022 1202 53595343 		.ascii	"SYSCLK_Frequency\000"
 7022      4C4B5F46 
 7022      72657175 
 7022      656E6379 
 7022      00
 7023              	.LASF374:
 7024 1213 474E5520 		.ascii	"GNU C 4.7.3 20121207 (release) [ARM/embedded-4_7-br"
 7024      4320342E 
 7024      372E3320 
 7024      32303132 
 7024      31323037 
 7025 1246 616E6368 		.ascii	"anch revision 194305]\000"
 7025      20726576 
 7025      6973696F 
 7025      6E203139 
 7025      34333035 
 7026              	.LASF31:
 7027 125c 45585449 		.ascii	"EXTI3_IRQn\000"
 7027      335F4952 
 7027      516E00
 7028              	.LASF20:
 7029 1267 50656E64 		.ascii	"PendSV_IRQn\000"
 7029      53565F49 
 7029      52516E00 
 7030              	.LASF288:
 7031 1273 444D415F 		.ascii	"DMA_InitStructure\000"
 7031      496E6974 
 7031      53747275 
 7031      63747572 
 7031      6500
 7032              	.LASF97:
 7033 1285 4F54475F 		.ascii	"OTG_HS_EP1_IN_IRQn\000"
 7033      48535F45 
 7033      50315F49 
 7033      4E5F4952 
 7033      516E00
 7034              	.LASF69:
 7035 1298 444D4131 		.ascii	"DMA1_Stream7_IRQn\000"
 7035      5F537472 
 7035      65616D37 
 7035      5F495251 
 7035      6E00
 7036              	.LASF213:
 7037 12aa 444D415F 		.ascii	"DMA_PeripheralInc\000"
 7037      50657269 
 7037      70686572 
 7037      616C496E 
 7037      6300
 7038              	.LASF161:
 7039 12bc 4E445452 		.ascii	"NDTR\000"
 7039      00
 7040              	.LASF109:
ARM GAS  C:\Users\CNous\AppData\Local\Temp\ccmZfnu5.s 			page 173


 7041 12c1 49534552 		.ascii	"ISER\000"
 7041      00
 7042              	.LASF142:
 7043 12c6 466C6167 		.ascii	"FlagStatus\000"
 7043      53746174 
 7043      757300
 7044              	.LASF204:
 7045 12d1 4144435F 		.ascii	"ADC_Prescaler\000"
 7045      50726573 
 7045      63616C65 
 7045      7200
 7046              	.LASF212:
 7047 12df 444D415F 		.ascii	"DMA_BufferSize\000"
 7047      42756666 
 7047      65725369 
 7047      7A6500
 7048              	.LASF294:
 7049 12ee 72616E64 		.ascii	"randomNum\000"
 7049      6F6D4E75 
 7049      6D00
 7050              	.LASF80:
 7051 12f8 444D4132 		.ascii	"DMA2_Stream2_IRQn\000"
 7051      5F537472 
 7051      65616D32 
 7051      5F495251 
 7051      6E00
 7052              	.LASF313:
 7053 130a 50726573 		.ascii	"PrescalerValue\000"
 7053      63616C65 
 7053      7256616C 
 7053      756500
 7054              	.LASF257:
 7055 1319 54494D5F 		.ascii	"TIM_TimeBaseInitTypeDef\000"
 7055      54696D65 
 7055      42617365 
 7055      496E6974 
 7055      54797065 
 7056              	.LASF315:
 7057 1331 70617373 		.ascii	"pass\000"
 7057      00
 7058              		.ident	"GCC: (GNU Tools for ARM Embedded Processors) 4.7.3 20121207 (release) [ARM/embedded-4_7-br
ARM GAS  C:\Users\CNous\AppData\Local\Temp\ccmZfnu5.s 			page 174


DEFINED SYMBOLS
                            *ABS*:00000000 main.c
C:\Users\CNous\AppData\Local\Temp\ccmZfnu5.s:69     .text.Delay:00000000 $t
C:\Users\CNous\AppData\Local\Temp\ccmZfnu5.s:74     .text.Delay:00000000 Delay
C:\Users\CNous\AppData\Local\Temp\ccmZfnu5.s:104    .text.Delay:00000014 $d
C:\Users\CNous\AppData\Local\Temp\ccmZfnu5.s:109    .text.TimingDelay_Decrement:00000000 $t
C:\Users\CNous\AppData\Local\Temp\ccmZfnu5.s:114    .text.TimingDelay_Decrement:00000000 TimingDelay_Decrement
C:\Users\CNous\AppData\Local\Temp\ccmZfnu5.s:134    .text.TimingDelay_Decrement:00000010 $d
C:\Users\CNous\AppData\Local\Temp\ccmZfnu5.s:139    .text.Codec_TIMEOUT_UserCallback:00000000 $t
C:\Users\CNous\AppData\Local\Temp\ccmZfnu5.s:144    .text.Codec_TIMEOUT_UserCallback:00000000 Codec_TIMEOUT_UserCallback
C:\Users\CNous\AppData\Local\Temp\ccmZfnu5.s:158    .text.EVAL_AUDIO_HalfTransfer_CallBack:00000000 $t
C:\Users\CNous\AppData\Local\Temp\ccmZfnu5.s:163    .text.EVAL_AUDIO_HalfTransfer_CallBack:00000000 EVAL_AUDIO_HalfTransfer_CallBack
C:\Users\CNous\AppData\Local\Temp\ccmZfnu5.s:184    .text.EVAL_AUDIO_TransferComplete_CallBack:00000000 $t
C:\Users\CNous\AppData\Local\Temp\ccmZfnu5.s:189    .text.EVAL_AUDIO_TransferComplete_CallBack:00000000 EVAL_AUDIO_TransferComplete_CallBack
C:\Users\CNous\AppData\Local\Temp\ccmZfnu5.s:210    .text.EVAL_AUDIO_GetSampleCallBack:00000000 $t
C:\Users\CNous\AppData\Local\Temp\ccmZfnu5.s:215    .text.EVAL_AUDIO_GetSampleCallBack:00000000 EVAL_AUDIO_GetSampleCallBack
C:\Users\CNous\AppData\Local\Temp\ccmZfnu5.s:229    .text.randomNum:00000000 $t
C:\Users\CNous\AppData\Local\Temp\ccmZfnu5.s:234    .text.randomNum:00000000 randomNum
C:\Users\CNous\AppData\Local\Temp\ccmZfnu5.s:273    .text.randomNum:00000028 $d
C:\Users\CNous\AppData\Local\Temp\ccmZfnu5.s:278    .text.ADC1_start:00000000 $t
C:\Users\CNous\AppData\Local\Temp\ccmZfnu5.s:283    .text.ADC1_start:00000000 ADC1_start
                            *COM*:00000010 ADC1ConvertedValues
C:\Users\CNous\AppData\Local\Temp\ccmZfnu5.s:555    .text.TIM6_Config_and_start:00000000 $t
C:\Users\CNous\AppData\Local\Temp\ccmZfnu5.s:560    .text.TIM6_Config_and_start:00000000 TIM6_Config_and_start
                            *COM*:0000000c TIM_TimeBaseStructure
C:\Users\CNous\AppData\Local\Temp\ccmZfnu5.s:1017   .data.PrescalerValue:00000000 .LANCHOR1
C:\Users\CNous\AppData\Local\Temp\ccmZfnu5.s:968    .data.reloadValue:00000000 .LANCHOR2
C:\Users\CNous\AppData\Local\Temp\ccmZfnu5.s:680    .text.startup.main:00000000 $t
C:\Users\CNous\AppData\Local\Temp\ccmZfnu5.s:685    .text.startup.main:00000000 main
C:\Users\CNous\AppData\Local\Temp\ccmZfnu5.s:856    .text.startup.main:000000cc $d
                            *COM*:00000004 sampleT
                            *COM*:00000004 envPhase
                            *COM*:00000001 potSet
                            *COM*:00017708 delayline
                            *COM*:00000004 readpos
                            *COM*:00000004 writepos
                            *COM*:00000500 audiobuff
C:\Users\CNous\AppData\Local\Temp\ccmZfnu5.s:1051   .data.TimingDelay:00000000 TimingDelay
                            *COM*:00000008 GPIO_InitStructure
                            *COM*:00000010 RCC_Clocks
C:\Users\CNous\AppData\Local\Temp\ccmZfnu5.s:952    .bss.accroche4:00000000 accroche4
C:\Users\CNous\AppData\Local\Temp\ccmZfnu5.s:947    .bss.accroche3:00000000 accroche3
C:\Users\CNous\AppData\Local\Temp\ccmZfnu5.s:942    .bss.accroche2:00000000 accroche2
C:\Users\CNous\AppData\Local\Temp\ccmZfnu5.s:937    .bss.accroche1:00000000 accroche1
C:\Users\CNous\AppData\Local\Temp\ccmZfnu5.s:1013   .data.param4b:00000000 param4b
C:\Users\CNous\AppData\Local\Temp\ccmZfnu5.s:989    .data.param3b:00000000 param3b
C:\Users\CNous\AppData\Local\Temp\ccmZfnu5.s:977    .data.param2b:00000000 param2b
C:\Users\CNous\AppData\Local\Temp\ccmZfnu5.s:1007   .data.param1b:00000000 param1b
C:\Users\CNous\AppData\Local\Temp\ccmZfnu5.s:964    .data.param4:00000000 param4
C:\Users\CNous\AppData\Local\Temp\ccmZfnu5.s:958    .data.param3:00000000 param3
C:\Users\CNous\AppData\Local\Temp\ccmZfnu5.s:995    .data.param2:00000000 param2
C:\Users\CNous\AppData\Local\Temp\ccmZfnu5.s:1038   .data.param1:00000000 param1
C:\Users\CNous\AppData\Local\Temp\ccmZfnu5.s:932    .data.delay1:00000000 delay1
                            *COM*:00000004 _init
                            *COM*:00000004 _j
                            *COM*:00000520 _f
                            *COM*:00000004 _z
ARM GAS  C:\Users\CNous\AppData\Local\Temp\ccmZfnu5.s 			page 175


                            *COM*:00000004 _w
                            *COM*:00000004 _p
                            *COM*:00000004 freq
C:\Users\CNous\AppData\Local\Temp\ccmZfnu5.s:926    .data.f2:00000000 f2
C:\Users\CNous\AppData\Local\Temp\ccmZfnu5.s:920    .data.f1:00000000 f1
                            *COM*:00000004 phase2Step
C:\Users\CNous\AppData\Local\Temp\ccmZfnu5.s:1044   .bss.phase2:00000000 phase2
C:\Users\CNous\AppData\Local\Temp\ccmZfnu5.s:1057   .data.pass:00000000 pass
C:\Users\CNous\AppData\Local\Temp\ccmZfnu5.s:971    .data.reloadValue:00000000 reloadValue
C:\Users\CNous\AppData\Local\Temp\ccmZfnu5.s:1020   .data.PrescalerValue:00000000 PrescalerValue
C:\Users\CNous\AppData\Local\Temp\ccmZfnu5.s:1026   .data.seq1Number:00000000 seq1Number
                            *COM*:00000004 seqIndex
C:\Users\CNous\AppData\Local\Temp\ccmZfnu5.s:1032   .data.envTime:00000000 envTime
                            *COM*:00000001 envAmp
                            *COM*:00000001 envTrigger
C:\Users\CNous\AppData\Local\Temp\ccmZfnu5.s:1063   .data.fdb:00000000 fdb
                            *COM*:00000004 old_dy
C:\Users\CNous\AppData\Local\Temp\ccmZfnu5.s:1001   .data.coeff_a1:00000000 coeff_a1
C:\Users\CNous\AppData\Local\Temp\ccmZfnu5.s:983    .data.delayVol:00000000 delayVol
C:\Users\CNous\AppData\Local\Temp\ccmZfnu5.s:917    .data.f1:00000000 $d
C:\Users\CNous\AppData\Local\Temp\ccmZfnu5.s:923    .data.f2:00000000 $d
C:\Users\CNous\AppData\Local\Temp\ccmZfnu5.s:929    .data.delay1:00000000 $d
C:\Users\CNous\AppData\Local\Temp\ccmZfnu5.s:938    .bss.accroche1:00000000 $d
C:\Users\CNous\AppData\Local\Temp\ccmZfnu5.s:943    .bss.accroche2:00000000 $d
C:\Users\CNous\AppData\Local\Temp\ccmZfnu5.s:948    .bss.accroche3:00000000 $d
C:\Users\CNous\AppData\Local\Temp\ccmZfnu5.s:953    .bss.accroche4:00000000 $d
C:\Users\CNous\AppData\Local\Temp\ccmZfnu5.s:955    .data.param3:00000000 $d
C:\Users\CNous\AppData\Local\Temp\ccmZfnu5.s:961    .data.param4:00000000 $d
C:\Users\CNous\AppData\Local\Temp\ccmZfnu5.s:967    .data.reloadValue:00000000 $d
C:\Users\CNous\AppData\Local\Temp\ccmZfnu5.s:974    .data.param2b:00000000 $d
C:\Users\CNous\AppData\Local\Temp\ccmZfnu5.s:980    .data.delayVol:00000000 $d
C:\Users\CNous\AppData\Local\Temp\ccmZfnu5.s:986    .data.param3b:00000000 $d
C:\Users\CNous\AppData\Local\Temp\ccmZfnu5.s:992    .data.param2:00000000 $d
C:\Users\CNous\AppData\Local\Temp\ccmZfnu5.s:998    .data.coeff_a1:00000000 $d
C:\Users\CNous\AppData\Local\Temp\ccmZfnu5.s:1004   .data.param1b:00000000 $d
C:\Users\CNous\AppData\Local\Temp\ccmZfnu5.s:1010   .data.param4b:00000000 $d
C:\Users\CNous\AppData\Local\Temp\ccmZfnu5.s:1016   .data.PrescalerValue:00000000 $d
C:\Users\CNous\AppData\Local\Temp\ccmZfnu5.s:1023   .data.seq1Number:00000000 $d
C:\Users\CNous\AppData\Local\Temp\ccmZfnu5.s:1029   .data.envTime:00000000 $d
C:\Users\CNous\AppData\Local\Temp\ccmZfnu5.s:1035   .data.param1:00000000 $d
C:\Users\CNous\AppData\Local\Temp\ccmZfnu5.s:1041   .bss.phase2:00000000 $d
C:\Users\CNous\AppData\Local\Temp\ccmZfnu5.s:1047   .data.TimingDelay:00000000 $d
C:\Users\CNous\AppData\Local\Temp\ccmZfnu5.s:1054   .data.pass:00000000 $d
C:\Users\CNous\AppData\Local\Temp\ccmZfnu5.s:1060   .data.fdb:00000000 $d
                     .debug_frame:00000010 $d

UNDEFINED SYMBOLS
sawtooth_runproc
RNG_GetFlagStatus
RNG_GetRandomNumber
ADC_DeInit
RCC_AHB1PeriphClockCmd
RCC_APB2PeriphClockCmd
DMA_Init
DMA_Cmd
GPIO_Init
ADC_CommonInit
ARM GAS  C:\Users\CNous\AppData\Local\Temp\ccmZfnu5.s 			page 176


ADC_Init
ADC_RegularChannelConfig
ADC_DMARequestAfterLastTransferCmd
ADC_DMACmd
ADC_Cmd
ADC_ContinuousModeCmd
ADC_SoftwareStartConv
RCC_APB1PeriphClockCmd
TIM_DeInit
NVIC_Init
TIM_TimeBaseInit
TIM_PrescalerConfig
TIM_SetAutoreload
TIM_UpdateDisableConfig
TIM_UpdateRequestConfig
TIM_ARRPreloadConfig
TIM_SelectOnePulseMode
TIM_ITConfig
TIM_Cmd
STM_EVAL_LEDInit
STM_EVAL_PBInit
RCC_AHB2PeriphClockCmd
RNG_Cmd
sawtooth_active
PhaserInit
EVAL_AUDIO_Init
EVAL_AUDIO_Play
SystemCoreClock
