ARM GAS  C:\Users\CNous\AppData\Local\Temp\ccG9FAtd.s 			page 1


   1              		.syntax unified
   2              		.cpu cortex-m4
   3              		.eabi_attribute 27, 3	@ Tag_ABI_HardFP_use
   4              		.eabi_attribute 28, 1	@ Tag_ABI_VFP_args
   5              		.fpu fpv4-sp-d16
   6              		.eabi_attribute 20, 1	@ Tag_ABI_FP_denormal
   7              		.eabi_attribute 21, 1	@ Tag_ABI_FP_exceptions
   8              		.eabi_attribute 23, 3	@ Tag_ABI_FP_number_model
   9              		.eabi_attribute 24, 1	@ Tag_ABI_align8_needed
  10              		.eabi_attribute 25, 1	@ Tag_ABI_align8_preserved
  11              		.eabi_attribute 26, 1	@ Tag_ABI_enum_size
  12              		.eabi_attribute 30, 2	@ Tag_ABI_optimization_goals
  13              		.eabi_attribute 34, 1	@ Tag_CPU_unaligned_access
  14              		.eabi_attribute 18, 4	@ Tag_ABI_PCS_wchar_t
  15              		.file	"phaser2.c"
  16              	@ GNU C (GNU Tools for ARM Embedded Processors) version 4.7.3 20121207 (release) [ARM/embedded-4_7-
  17              	@	compiled by GNU C version 4.2.1-sjlj (mingw32-2), GMP version 4.3.2, MPFR version 2.4.2, MPC vers
  18              	@ GGC heuristics: --param ggc-min-expand=100 --param ggc-min-heapsize=131072
  19              	@ options passed:  -I . -I ./inc -I ./cmsis/core -I ./cmsis/device
  20              	@ -imultilib armv7e-m/fpu
  21              	@ -iprefix c:\gnutoolsarmembedded\4.7-2012q4\bin\../lib/gcc/arm-none-eabi/4.7.3/
  22              	@ -isysroot c:\gnutoolsarmembedded\4.7-2012q4\bin\../arm-none-eabi
  23              	@ -MD src/phaser2.d -MF .dep/phaser2.o.d -MP -MQ src/phaser2.o
  24              	@ -D__USES_INITFINI__ -D __FPU_USED=1 -D __arm__ -D __ASSEMBLY__
  25              	@ -D USE_STDPERIPH_DRIVER -D STM32F4XX -D HSE_VALUE=8000000
  26              	@ -D __FPU_PRESENT=1 -D STM32F407VG -D RUN_FROM_FLASH=1 src/phaser2.c
  27              	@ -mthumb -mcpu=cortex-m4 -mfloat-abi=hard -mfpu=fpv4-sp-d16
  28              	@ -auxbase-strip src/phaser2.o -gdwarf-2 -O2 -Wall -Wstrict-prototypes
  29              	@ -fverbose-asm -ffunction-sections -fdata-sections
  30              	@ options enabled:  -fauto-inc-dec -fbranch-count-reg -fcaller-saves
  31              	@ -fcombine-stack-adjustments -fcommon -fcompare-elim -fcprop-registers
  32              	@ -fcrossjumping -fcse-follow-jumps -fdata-sections -fdebug-types-section
  33              	@ -fdefer-pop -fdelete-null-pointer-checks -fdevirtualize -fdwarf2-cfi-asm
  34              	@ -fearly-inlining -feliminate-unused-debug-types -fexpensive-optimizations
  35              	@ -fforward-propagate -ffunction-cse -ffunction-sections -fgcse -fgcse-lm
  36              	@ -fgnu-runtime -fguess-branch-probability -fident -fif-conversion
  37              	@ -fif-conversion2 -findirect-inlining -finline -finline-atomics
  38              	@ -finline-functions-called-once -finline-small-functions -fipa-cp
  39              	@ -fipa-profile -fipa-pure-const -fipa-reference -fipa-sra
  40              	@ -fira-share-save-slots -fira-share-spill-slots -fivopts
  41              	@ -fkeep-static-consts -fleading-underscore -fmath-errno -fmerge-constants
  42              	@ -fmerge-debug-strings -fmove-loop-invariants -fomit-frame-pointer
  43              	@ -foptimize-register-move -foptimize-sibling-calls -foptimize-strlen
  44              	@ -fpartial-inlining -fpeephole -fpeephole2 -fprefetch-loop-arrays
  45              	@ -freg-struct-return -fregmove -frename-registers -freorder-blocks
  46              	@ -freorder-functions -frerun-cse-after-loop
  47              	@ -fsched-critical-path-heuristic -fsched-dep-count-heuristic
  48              	@ -fsched-group-heuristic -fsched-interblock -fsched-last-insn-heuristic
  49              	@ -fsched-rank-heuristic -fsched-spec -fsched-spec-insn-heuristic
  50              	@ -fsched-stalled-insns-dep -fschedule-insns -fschedule-insns2
  51              	@ -fsection-anchors -fshow-column -fshrink-wrap -fsigned-zeros
  52              	@ -fsplit-ivs-in-unroller -fsplit-wide-types -fstrict-aliasing
  53              	@ -fstrict-overflow -fstrict-volatile-bitfields -fthread-jumps
  54              	@ -ftoplevel-reorder -ftrapping-math -ftree-bit-ccp -ftree-builtin-call-dce
  55              	@ -ftree-ccp -ftree-ch -ftree-copy-prop -ftree-copyrename -ftree-cselim
  56              	@ -ftree-dce -ftree-dominator-opts -ftree-dse -ftree-forwprop -ftree-fre
  57              	@ -ftree-loop-if-convert -ftree-loop-im -ftree-loop-ivcanon
ARM GAS  C:\Users\CNous\AppData\Local\Temp\ccG9FAtd.s 			page 2


  58              	@ -ftree-loop-optimize -ftree-parallelize-loops= -ftree-phiprop -ftree-pre
  59              	@ -ftree-pta -ftree-reassoc -ftree-scev-cprop -ftree-sink
  60              	@ -ftree-slp-vectorize -ftree-sra -ftree-switch-conversion
  61              	@ -ftree-tail-merge -ftree-ter -ftree-vect-loop-version -ftree-vrp
  62              	@ -funit-at-a-time -funroll-loops -fvar-tracking -fvar-tracking-assignments
  63              	@ -fverbose-asm -fweb -fzero-initialized-in-bss -mlittle-endian
  64              	@ -msched-prolog -mthumb -munaligned-access -mvectorize-with-neon-quad
  65              	
  66              		.text
  67              	.Ltext0:
  68              		.cfi_sections	.debug_frame
  69              		.section	.text.PhaserInit,"ax",%progbits
  70              		.align	2
  71              		.global	PhaserInit
  72              		.thumb
  73              		.thumb_func
  74              		.type	PhaserInit, %function
  75              	PhaserInit:
  76              	.LFB110:
  77              		.file 1 "src/phaser2.c"
   1:src/phaser2.c **** /**
   2:src/phaser2.c ****  ******************************************************************************
   3:src/phaser2.c ****  * @file     phaser2.c
   4:src/phaser2.c ****  * @author  Xavier Halgand
   5:src/phaser2.c ****  * @version
   6:src/phaser2.c ****  * @date    december 2012
   7:src/phaser2.c ****  * @brief
   8:src/phaser2.c **** 
   9:src/phaser2.c ****  ******************************************************************************
  10:src/phaser2.c ****  * This program is free software; you can redistribute it and/or
  11:src/phaser2.c ****  * modify it under the terms of the GNU General Public License as
  12:src/phaser2.c ****  * published by the Free Software Foundation; either version 2 of
  13:src/phaser2.c ****  * the License, or (at your option) any later version.
  14:src/phaser2.c ****  *
  15:src/phaser2.c ****  * This program is distributed in the hope that it will be
  16:src/phaser2.c ****  * useful, but WITHOUT ANY WARRANTY; without even the implied
  17:src/phaser2.c ****  * warranty of MERCHANTABILITY or FITNESS FOR A PARTICULAR
  18:src/phaser2.c ****  * PURPOSE.  See the GNU General Public License for more details.
  19:src/phaser2.c ****  *
  20:src/phaser2.c ****  * You should have received a copy of the GNU General Public
  21:src/phaser2.c ****  * License along with this program; if not, write to the Free
  22:src/phaser2.c ****  * Software Foundation, Inc., 59 Temple Place, Suite 330, Boston,
  23:src/phaser2.c ****  * MA 02111-1307, USA.
  24:src/phaser2.c ****  */
  25:src/phaser2.c **** 
  26:src/phaser2.c **** 
  27:src/phaser2.c **** #include "main.h"
  28:src/phaser2.c **** #include "phaser2.h"
  29:src/phaser2.c **** 
  30:src/phaser2.c **** /*This defines the phaser stages
  31:src/phaser2.c **** that is the number of allpass filters
  32:src/phaser2.c **** */
  33:src/phaser2.c **** #define PH_STAGES 6
  34:src/phaser2.c **** 
  35:src/phaser2.c **** static float old[PH_STAGES];
  36:src/phaser2.c **** static float f_min, f_max;
  37:src/phaser2.c **** static float swrate;
ARM GAS  C:\Users\CNous\AppData\Local\Temp\ccG9FAtd.s 			page 3


  38:src/phaser2.c **** static float dry, wet ;
  39:src/phaser2.c **** static float _dmin, _dmax; //range
  40:src/phaser2.c **** static float _fb; //feedback
  41:src/phaser2.c **** static float _lfoPhase;
  42:src/phaser2.c **** static float _lfoInc;
  43:src/phaser2.c **** static float _a1;
  44:src/phaser2.c **** static float _zm1;
  45:src/phaser2.c **** 
  46:src/phaser2.c **** void PhaserInit(void)
  47:src/phaser2.c **** {
  78              		.loc 1 47 0
  79              		.cfi_startproc
  80              		@ args = 0, pretend = 0, frame = 0
  81              		@ frame_needed = 0, uses_anonymous_args = 0
  82              		@ link register save eliminated.
  83 0000 2DE9F003 		push	{r4, r5, r6, r7, r8, r9}	@
  84              	.LCFI0:
  85              		.cfi_def_cfa_offset 24
  86              		.cfi_offset 4, -24
  87              		.cfi_offset 5, -20
  88              		.cfi_offset 6, -16
  89              		.cfi_offset 7, -12
  90              		.cfi_offset 8, -8
  91              		.cfi_offset 9, -4
  48:src/phaser2.c **** 	f_min = 200.f;
  49:src/phaser2.c **** 	f_max = 1700.f;
  50:src/phaser2.c **** 	swrate = 0.1f;
  51:src/phaser2.c **** 	_fb = 0.7f;
  52:src/phaser2.c **** 	dry = 0.7f;
  92              		.loc 1 52 0
  93 0004 40F20004 		movw	r4, #:lower16:.LANCHOR4	@ tmp156,
  94 0008 C0F20004 		movt	r4, #:upper16:.LANCHOR4	@ tmp156,
  51:src/phaser2.c **** 	_fb = 0.7f;
  95              		.loc 1 51 0
  96 000c 43F23338 		movw	r8, #13107	@ tmp141,
  97 0010 C3F63378 		movt	r8, 16179	@ tmp141,
  53:src/phaser2.c **** 	wet = 0.3f;
  98              		.loc 1 53 0
  99 0014 40F20000 		movw	r0, #:lower16:.LANCHOR5	@ tmp157,
 100 0018 C0F20000 		movt	r0, #:upper16:.LANCHOR5	@ tmp157,
  52:src/phaser2.c **** 	dry = 0.7f;
 101              		.loc 1 52 0
 102 001c C4F80080 		str	r8, [r4, #0]	@ float	@ tmp141, dry
 103              		.loc 1 53 0
 104 0020 49F69A14 		movw	r4, #39322	@ tmp145,
  48:src/phaser2.c **** 	f_min = 200.f;
 105              		.loc 1 48 0
 106 0024 40F2000C 		movw	ip, #:lower16:.LANCHOR0	@ tmp152,
  54:src/phaser2.c **** 
  55:src/phaser2.c **** 	_dmin = 2 * f_min / SAMPLERATE;
 107              		.loc 1 55 0
 108 0028 40F20001 		movw	r1, #:lower16:.LANCHOR6	@ tmp158,
  53:src/phaser2.c **** 	wet = 0.3f;
 109              		.loc 1 53 0
 110 002c C3F69964 		movt	r4, 16025	@ tmp145,
  48:src/phaser2.c **** 	f_min = 200.f;
 111              		.loc 1 48 0
ARM GAS  C:\Users\CNous\AppData\Local\Temp\ccG9FAtd.s 			page 4


 112 0030 C0F2000C 		movt	ip, #:upper16:.LANCHOR0	@ tmp152,
 113              		.loc 1 55 0
 114 0034 C0F20001 		movt	r1, #:upper16:.LANCHOR6	@ tmp158,
  48:src/phaser2.c **** 	f_min = 200.f;
 115              		.loc 1 48 0
 116 0038 4FF00009 		mov	r9, #0	@ tmp135,
  53:src/phaser2.c **** 	wet = 0.3f;
 117              		.loc 1 53 0
 118 003c 0460     		str	r4, [r0, #0]	@ float	@ tmp145, wet
 119              		.loc 1 55 0
 120 003e 48F68900 		movw	r0, #34953	@ tmp147,
  49:src/phaser2.c **** 	f_max = 1700.f;
 121              		.loc 1 49 0
 122 0042 40F20007 		movw	r7, #:lower16:.LANCHOR1	@ tmp153,
  56:src/phaser2.c **** 	_dmax = 2 * f_max / SAMPLERATE;
 123              		.loc 1 56 0
 124 0046 40F20002 		movw	r2, #:lower16:.LANCHOR7	@ tmp159,
  48:src/phaser2.c **** 	f_min = 200.f;
 125              		.loc 1 48 0
 126 004a C4F24839 		movt	r9, 17224	@ tmp135,
  55:src/phaser2.c **** 	_dmin = 2 * f_min / SAMPLERATE;
 127              		.loc 1 55 0
 128 004e C3F60840 		movt	r0, 15368	@ tmp147,
  49:src/phaser2.c **** 	f_max = 1700.f;
 129              		.loc 1 49 0
 130 0052 C0F20007 		movt	r7, #:upper16:.LANCHOR1	@ tmp153,
 131              		.loc 1 56 0
 132 0056 C0F20002 		movt	r2, #:upper16:.LANCHOR7	@ tmp159,
  48:src/phaser2.c **** 	f_min = 200.f;
 133              		.loc 1 48 0
 134 005a CCF80090 		str	r9, [ip, #0]	@ float	@ tmp135, f_min
  55:src/phaser2.c **** 	_dmin = 2 * f_min / SAMPLERATE;
 135              		.loc 1 55 0
 136 005e 0860     		str	r0, [r1, #0]	@ float	@ tmp147, _dmin
  49:src/phaser2.c **** 	f_max = 1700.f;
 137              		.loc 1 49 0
 138 0060 4FF4004C 		mov	ip, #32768	@ tmp137,
 139              		.loc 1 56 0
 140 0064 41F21111 		movw	r1, #4369	@ tmp149,
  50:src/phaser2.c **** 	swrate = 0.1f;
 141              		.loc 1 50 0
 142 0068 40F20006 		movw	r6, #:lower16:.LANCHOR2	@ tmp154,
  51:src/phaser2.c **** 	_fb = 0.7f;
 143              		.loc 1 51 0
 144 006c 40F20005 		movw	r5, #:lower16:.LANCHOR3	@ tmp155,
  57:src/phaser2.c **** 	_lfoInc = _2PI * swrate / SAMPLERATE;
 145              		.loc 1 57 0
 146 0070 40F20003 		movw	r3, #:lower16:.LANCHOR8	@ tmp160,
  49:src/phaser2.c **** 	f_max = 1700.f;
 147              		.loc 1 49 0
 148 0074 C4F2D44C 		movt	ip, 17620	@ tmp137,
  56:src/phaser2.c **** 	_dmax = 2 * f_max / SAMPLERATE;
 149              		.loc 1 56 0
 150 0078 C3F69151 		movt	r1, 15761	@ tmp149,
  50:src/phaser2.c **** 	swrate = 0.1f;
 151              		.loc 1 50 0
 152 007c C0F20006 		movt	r6, #:upper16:.LANCHOR2	@ tmp154,
ARM GAS  C:\Users\CNous\AppData\Local\Temp\ccG9FAtd.s 			page 5


  51:src/phaser2.c **** 	_fb = 0.7f;
 153              		.loc 1 51 0
 154 0080 C0F20005 		movt	r5, #:upper16:.LANCHOR3	@ tmp155,
 155              		.loc 1 57 0
 156 0084 C0F20003 		movt	r3, #:upper16:.LANCHOR8	@ tmp160,
  49:src/phaser2.c **** 	f_max = 1700.f;
 157              		.loc 1 49 0
 158 0088 C7F800C0 		str	ip, [r7, #0]	@ float	@ tmp137, f_max
  56:src/phaser2.c **** 	_dmax = 2 * f_max / SAMPLERATE;
 159              		.loc 1 56 0
 160 008c 1160     		str	r1, [r2, #0]	@ float	@ tmp149, _dmax
  50:src/phaser2.c **** 	swrate = 0.1f;
 161              		.loc 1 50 0
 162 008e 4CF6CD47 		movw	r7, #52429	@ tmp139,
 163              		.loc 1 57 0
 164 0092 49F6FE42 		movw	r2, #40190	@ tmp151,
  50:src/phaser2.c **** 	swrate = 0.1f;
 165              		.loc 1 50 0
 166 0096 C3F6CC57 		movt	r7, 15820	@ tmp139,
 167              		.loc 1 57 0
 168 009a C3F25B72 		movt	r2, 14171	@ tmp151,
  50:src/phaser2.c **** 	swrate = 0.1f;
 169              		.loc 1 50 0
 170 009e 3760     		str	r7, [r6, #0]	@ float	@ tmp139, swrate
  51:src/phaser2.c **** 	_fb = 0.7f;
 171              		.loc 1 51 0
 172 00a0 C5F80080 		str	r8, [r5, #0]	@ float	@ tmp141, _fb
 173              		.loc 1 57 0
 174 00a4 1A60     		str	r2, [r3, #0]	@ float	@ tmp151, _lfoInc
  58:src/phaser2.c **** }
 175              		.loc 1 58 0
 176 00a6 BDE8F003 		pop	{r4, r5, r6, r7, r8, r9}
 177 00aa 7047     		bx	lr
 178              		.cfi_endproc
 179              	.LFE110:
 180              		.size	PhaserInit, .-PhaserInit
 181              		.section	.text.PhaserRate,"ax",%progbits
 182              		.align	2
 183              		.global	PhaserRate
 184              		.thumb
 185              		.thumb_func
 186              		.type	PhaserRate, %function
 187              	PhaserRate:
 188              	.LFB111:
  59:src/phaser2.c **** 
  60:src/phaser2.c **** void PhaserRate(float rate)
  61:src/phaser2.c **** {
 189              		.loc 1 61 0
 190              		.cfi_startproc
 191              		@ args = 0, pretend = 0, frame = 0
 192              		@ frame_needed = 0, uses_anonymous_args = 0
 193              		@ link register save eliminated.
 194              	.LVL0:
  62:src/phaser2.c **** 	swrate = rate;
  63:src/phaser2.c **** 	_lfoInc = _2PI * swrate / SAMPLERATE;
 195              		.loc 1 63 0
 196 0000 DFED0A7A 		flds	s15, .L3	@ tmp140,
ARM GAS  C:\Users\CNous\AppData\Local\Temp\ccG9FAtd.s 			page 6


 197 0004 9FED0A7A 		flds	s14, .L3+4	@ tmp142,
 198 0008 60EE270A 		fmuls	s1, s0, s15	@ tmp139, rate, tmp140
  62:src/phaser2.c **** 	swrate = rate;
 199              		.loc 1 62 0
 200 000c 40F20002 		movw	r2, #:lower16:.LANCHOR2	@ tmp143,
 201              		.loc 1 63 0
 202 0010 80EE871A 		fdivs	s2, s1, s14	@ tmp141, tmp139, tmp142
 203 0014 40F20003 		movw	r3, #:lower16:.LANCHOR8	@ tmp144,
  62:src/phaser2.c **** 	swrate = rate;
 204              		.loc 1 62 0
 205 0018 C0F20002 		movt	r2, #:upper16:.LANCHOR2	@ tmp143,
 206              		.loc 1 63 0
 207 001c C0F20003 		movt	r3, #:upper16:.LANCHOR8	@ tmp144,
  62:src/phaser2.c **** 	swrate = rate;
 208              		.loc 1 62 0
 209 0020 82ED000A 		fsts	s0, [r2, #0]	@ rate, swrate
 210              		.loc 1 63 0
 211 0024 83ED001A 		fsts	s2, [r3, #0]	@ tmp141, _lfoInc
 212 0028 7047     		bx	lr	@
 213              	.L4:
 214 002a 00BF     		.align	2
 215              	.L3:
 216 002c DB0FC940 		.word	1086918619
 217 0030 00803B47 		.word	1195081728
 218              		.cfi_endproc
 219              	.LFE111:
 220              		.size	PhaserRate, .-PhaserRate
 221              		.section	.text.PhaserFeedback,"ax",%progbits
 222              		.align	2
 223              		.global	PhaserFeedback
 224              		.thumb
 225              		.thumb_func
 226              		.type	PhaserFeedback, %function
 227              	PhaserFeedback:
 228              	.LFB112:
  64:src/phaser2.c **** }
  65:src/phaser2.c **** 
  66:src/phaser2.c **** void PhaserFeedback(float fdb)
  67:src/phaser2.c **** {
 229              		.loc 1 67 0
 230              		.cfi_startproc
 231              		@ args = 0, pretend = 0, frame = 0
 232              		@ frame_needed = 0, uses_anonymous_args = 0
 233              		@ link register save eliminated.
 234              	.LVL1:
  68:src/phaser2.c **** 	_fb = fdb;
 235              		.loc 1 68 0
 236 0000 40F20003 		movw	r3, #:lower16:.LANCHOR3	@ tmp136,
 237 0004 C0F20003 		movt	r3, #:upper16:.LANCHOR3	@ tmp136,
 238 0008 83ED000A 		fsts	s0, [r3, #0]	@ fdb, _fb
 239 000c 7047     		bx	lr	@
 240              		.cfi_endproc
 241              	.LFE112:
 242              		.size	PhaserFeedback, .-PhaserFeedback
 243 000e 00BF     		.section	.text.allpass,"ax",%progbits
 244              		.align	2
 245              		.global	allpass
ARM GAS  C:\Users\CNous\AppData\Local\Temp\ccG9FAtd.s 			page 7


 246              		.thumb
 247              		.thumb_func
 248              		.type	allpass, %function
 249              	allpass:
 250              	.LFB113:
  69:src/phaser2.c **** }
  70:src/phaser2.c **** float allpass(float yin, int ind)
  71:src/phaser2.c **** {
 251              		.loc 1 71 0
 252              		.cfi_startproc
 253              		@ args = 0, pretend = 0, frame = 0
 254              		@ frame_needed = 0, uses_anonymous_args = 0
 255              		@ link register save eliminated.
 256              	.LVL2:
  72:src/phaser2.c ****         float yout;
  73:src/phaser2.c **** 
  74:src/phaser2.c ****         yout = - yin * _a1 + old[ind];
 257              		.loc 1 74 0
 258 0000 40F20002 		movw	r2, #:lower16:.LANCHOR10	@ tmp158,
 259 0004 C0F20002 		movt	r2, #:upper16:.LANCHOR10	@ tmp158,
 260 0008 40F20003 		movw	r3, #:lower16:.LANCHOR9	@ tmp157,
 261 000c 02EB8000 		add	r0, r2, r0, lsl #2	@, tmp149, tmp158, ind,
 262              	.LVL3:
 263 0010 C0F20003 		movt	r3, #:upper16:.LANCHOR9	@ tmp157,
 264 0014 93ED007A 		flds	s14, [r3, #0]	@ _a1.11, _a1
 265 0018 D0ED007A 		flds	s15, [r0, #0]	@ yout, old
 266 001c 40EE477A 		fnmacs	s15, s0, s14	@ yout, yin, _a1.11
 267              	.LVL4:
  75:src/phaser2.c ****         old[ind] = yout * _a1 + yin;
 268              		.loc 1 75 0
 269 0020 07EE270A 		fmacs	s0, s14, s15	@ yin, _a1.11, yout
 270              	.LVL5:
 271 0024 F0EE400A 		fcpys	s1, s0	@ tmp155, yin
 272 0028 C0ED000A 		fsts	s1, [r0, #0]	@ tmp155, old
  76:src/phaser2.c ****         return yout;
  77:src/phaser2.c **** }
 273              		.loc 1 77 0
 274 002c B0EE670A 		fcpys	s0, s15	@, yout
 275 0030 7047     		bx	lr	@
 276              		.cfi_endproc
 277              	.LFE113:
 278              		.size	allpass, .-allpass
 279 0032 00BF     		.section	.text.PhaserProcess,"ax",%progbits
 280              		.align	2
 281              		.global	PhaserProcess
 282              		.thumb
 283              		.thumb_func
 284              		.type	PhaserProcess, %function
 285              	PhaserProcess:
 286              	.LFB114:
  78:src/phaser2.c **** 
  79:src/phaser2.c **** 
  80:src/phaser2.c **** float PhaserProcess(float xin)
  81:src/phaser2.c **** {
 287              		.loc 1 81 0
 288              		.cfi_startproc
 289              		@ args = 0, pretend = 0, frame = 0
ARM GAS  C:\Users\CNous\AppData\Local\Temp\ccG9FAtd.s 			page 8


 290              		@ frame_needed = 0, uses_anonymous_args = 0
 291              	.LVL6:
 292 0000 10B5     		push	{r4, lr}	@
 293              	.LCFI1:
 294              		.cfi_def_cfa_offset 8
 295              		.cfi_offset 4, -8
 296              		.cfi_offset 14, -4
  82:src/phaser2.c **** 	float yout;
  83:src/phaser2.c **** 	int i;
  84:src/phaser2.c **** 
  85:src/phaser2.c **** 	//calculate and update phaser sweep lfo...
  86:src/phaser2.c **** 	float d  = _dmin + (_dmax - _dmin) * ((sinf(_lfoPhase) + 1.f)*0.5f);
 297              		.loc 1 86 0
 298 0002 414C     		ldr	r4, .L11	@ tmp209,
 299 0004 414B     		ldr	r3, .L11+4	@ tmp208,
  81:src/phaser2.c **** {
 300              		.loc 1 81 0
 301 0006 2DED048B 		fstmfdd	sp!, {d8, d9}	@,
 302              	.LCFI2:
 303              		.cfi_def_cfa_offset 24
 304              		.cfi_offset 80, -24
 305              		.cfi_offset 82, -16
 306              		.loc 1 86 0
 307 000a 94ED009A 		flds	s18, [r4, #0]	@ _lfoPhase.2, _lfoPhase
  81:src/phaser2.c **** {
 308              		.loc 1 81 0
 309 000e B0EE408A 		fcpys	s16, s0	@ xin, xin
 310              		.loc 1 86 0
 311 0012 B0EE490A 		fcpys	s0, s18	@, _lfoPhase.2
 312              	.LVL7:
 313 0016 D3ED008A 		flds	s17, [r3, #0]	@ _dmin.1, _dmin
 314 001a FFF7FEFF 		bl	sinf	@
 315              	.LVL8:
 316 001e 3C48     		ldr	r0, .L11+8	@ tmp210,
  87:src/phaser2.c **** 	_lfoPhase += _lfoInc;
  88:src/phaser2.c **** 	if( _lfoPhase >= _2PI ) 	_lfoPhase -= _2PI;
  89:src/phaser2.c **** 
  90:src/phaser2.c **** 	//update filter coeffs
  91:src/phaser2.c **** 	_a1 = (1.f - d) / (1.f + d);
  92:src/phaser2.c **** 
  93:src/phaser2.c **** 	//calculate output
  94:src/phaser2.c **** 
  95:src/phaser2.c **** 	yout = allpass(xin + _zm1 * _fb, 0);
 317              		.loc 1 95 0
 318 0020 3C4A     		ldr	r2, .L11+12	@ tmp230,
 319              	.LBB6:
 320              	.LBB7:
  74:src/phaser2.c ****         yout = - yin * _a1 + old[ind];
 321              		.loc 1 74 0
 322 0022 3D4B     		ldr	r3, .L11+16	@ tmp237,
 323              	.LBE7:
 324              	.LBE6:
  87:src/phaser2.c **** 	_lfoPhase += _lfoInc;
 325              		.loc 1 87 0
 326 0024 3D49     		ldr	r1, .L11+20	@ tmp218,
  86:src/phaser2.c **** 	float d  = _dmin + (_dmax - _dmin) * ((sinf(_lfoPhase) + 1.f)*0.5f);
 327              		.loc 1 86 0
ARM GAS  C:\Users\CNous\AppData\Local\Temp\ccG9FAtd.s 			page 9


 328 0026 B7EE007A 		fconsts	s14, #112	@ tmp214,
 329 002a D0ED007A 		flds	s15, [r0, #0]	@ _dmax, _dmax
 330 002e 30EE070A 		fadds	s0, s0, s14	@ tmp213,, tmp214
 331 0032 F6EE000A 		fconsts	s1, #96	@ tmp216,
 332 0036 20EE201A 		fmuls	s2, s0, s1	@ tmp215, tmp213, tmp216
 333 003a 77EEE86A 		fsubs	s13, s15, s17	@ tmp211, _dmax, _dmin.1
  91:src/phaser2.c **** 	_a1 = (1.f - d) / (1.f + d);
 334              		.loc 1 91 0
 335 003e B7EE002A 		fconsts	s4, #112	@ tmp226,
  86:src/phaser2.c **** 	float d  = _dmin + (_dmax - _dmin) * ((sinf(_lfoPhase) + 1.f)*0.5f);
 336              		.loc 1 86 0
 337 0042 46EE818A 		fmacs	s17, s13, s2	@ d, tmp211, tmp215
 338              	.LVL9:
 339              		.loc 1 95 0
 340 0046 3648     		ldr	r0, .L11+24	@ tmp231,
  91:src/phaser2.c **** 	_a1 = (1.f - d) / (1.f + d);
 341              		.loc 1 91 0
 342 0048 72EE682A 		fsubs	s5, s4, s17	@ tmp225, tmp226, d
 343 004c 78EE828A 		fadds	s17, s17, s4	@ tmp227, d, tmp226
 344              	.LVL10:
 345              		.loc 1 95 0
 346 0050 D2ED003A 		flds	s7, [r2, #0]	@ _zm1, _zm1
  91:src/phaser2.c **** 	_a1 = (1.f - d) / (1.f + d);
 347              		.loc 1 91 0
 348 0054 82EEA83A 		fdivs	s6, s5, s17	@ _a1.6, tmp225, tmp227
 349              		.loc 1 95 0
 350 0058 D0ED004A 		flds	s9, [r0, #0]	@ _fb, _fb
 351 005c B0EE484A 		fcpys	s8, s16	@ D.8474, xin
 352 0060 03EEA44A 		fmacs	s8, s7, s9	@ D.8474, _zm1, _fb
 353              	.LVL11:
 354              	.LBB11:
 355              	.LBB8:
  74:src/phaser2.c ****         yout = - yin * _a1 + old[ind];
 356              		.loc 1 74 0
 357 0064 D3ED007A 		flds	s15, [r3, #0]	@ yout, old
 358 0068 44EE437A 		fnmacs	s15, s8, s6	@ yout, D.8474, _a1.6
 359              	.LVL12:
 360              	.LBE8:
 361              	.LBE11:
 362              	.LBB12:
 363              	.LBB13:
 364 006c 93ED015A 		flds	s10, [r3, #4]	@ yout, old
 365 0070 07EEC35A 		fnmacs	s10, s15, s6	@ yout, yout, _a1.6
 366 0074 D3ED025A 		flds	s11, [r3, #8]	@ yout, old
 367              	.LBE13:
 368              	.LBE12:
  87:src/phaser2.c **** 	_lfoPhase += _lfoInc;
 369              		.loc 1 87 0
 370 0078 91ED006A 		flds	s12, [r1, #0]	@ _lfoInc, _lfoInc
 371              	.LBB18:
 372              	.LBB14:
  74:src/phaser2.c ****         yout = - yin * _a1 + old[ind];
 373              		.loc 1 74 0
 374 007c 45EE435A 		fnmacs	s11, s10, s6	@ yout, yout, _a1.6
 375              	.LBE14:
 376              	.LBE18:
  87:src/phaser2.c **** 	_lfoPhase += _lfoInc;
ARM GAS  C:\Users\CNous\AppData\Local\Temp\ccG9FAtd.s 			page 10


 377              		.loc 1 87 0
 378 0080 39EE069A 		fadds	s18, s18, s12	@ _lfoPhase.4, _lfoPhase.2, _lfoInc
 379              	.LBB19:
 380              	.LBB15:
  74:src/phaser2.c ****         yout = - yin * _a1 + old[ind];
 381              		.loc 1 74 0
 382 0084 93ED036A 		flds	s12, [r3, #12]	@ yout, old
 383 0088 05EEC36A 		fnmacs	s12, s11, s6	@ yout, yout, _a1.6
 384 008c D3ED046A 		flds	s13, [r3, #16]	@ yout, old
 385 0090 46EE436A 		fnmacs	s13, s12, s6	@ yout, yout, _a1.6
 386 0094 93ED057A 		flds	s14, [r3, #20]	@ yout, old
 387 0098 06EEC37A 		fnmacs	s14, s13, s6	@ yout, yout, _a1.6
 388              	.LBE15:
 389              	.LBE19:
  88:src/phaser2.c **** 	if( _lfoPhase >= _2PI ) 	_lfoPhase -= _2PI;
 390              		.loc 1 88 0
 391 009c DFED211A 		flds	s3, .L11+28	@ tmp220,
  96:src/phaser2.c **** 
  97:src/phaser2.c **** 	for(i = 1; i < PH_STAGES; i++)
  98:src/phaser2.c **** 	{
  99:src/phaser2.c **** 		yout = allpass(yout, i);
 100:src/phaser2.c **** 	}
 101:src/phaser2.c **** 	_zm1 = yout;
 102:src/phaser2.c **** 
 103:src/phaser2.c **** 	yout = dry * xin + wet * yout;
 392              		.loc 1 103 0
 393 00a0 2149     		ldr	r1, .L11+32	@ tmp276,
 394 00a2 2248     		ldr	r0, .L11+36	@ tmp273,
  88:src/phaser2.c **** 	if( _lfoPhase >= _2PI ) 	_lfoPhase -= _2PI;
 395              		.loc 1 88 0
 396 00a4 B4EEE19A 		fcmpes	s18, s3	@ _lfoPhase.4, tmp220
 397              	.LBB20:
 398              	.LBB9:
  75:src/phaser2.c ****         old[ind] = yout * _a1 + yin;
 399              		.loc 1 75 0
 400 00a8 03EE274A 		fmacs	s8, s6, s15	@ tmp241, _a1.6, yout
 401              	.LVL13:
 402              	.LBE9:
 403              	.LBE20:
 404              	.LBB21:
 405              	.LBB16:
 406 00ac 43EE057A 		fmacs	s15, s6, s10	@ tmp247, _a1.6, yout
 407              	.LVL14:
 408 00b0 03EE255A 		fmacs	s10, s6, s11	@ tmp253, _a1.6, yout
 409 00b4 43EE065A 		fmacs	s11, s6, s12	@ tmp259, _a1.6, yout
 410 00b8 03EE266A 		fmacs	s12, s6, s13	@ tmp265, _a1.6, yout
 411 00bc 43EE076A 		fmacs	s13, s6, s14	@ tmp271, _a1.6, yout
 412              	.LBE16:
 413              	.LBE21:
 414              		.loc 1 103 0
 415 00c0 91ED000A 		flds	s0, [r1, #0]	@ dry, dry
  88:src/phaser2.c **** 	if( _lfoPhase >= _2PI ) 	_lfoPhase -= _2PI;
 416              		.loc 1 88 0
 417 00c4 F1EE10FA 		fmstat
 418 00c8 A8BF     		it	ge
 419 00ca 39EE619A 		fsubsge	s18, s18, s3	@ tmp223, _lfoPhase.4, tmp220
 420              		.loc 1 103 0
ARM GAS  C:\Users\CNous\AppData\Local\Temp\ccG9FAtd.s 			page 11


 421 00ce D0ED000A 		flds	s1, [r0, #0]	@ wet, wet
  91:src/phaser2.c **** 	_a1 = (1.f - d) / (1.f + d);
 422              		.loc 1 91 0
 423 00d2 1749     		ldr	r1, .L11+40	@ tmp229,
 424              		.loc 1 103 0
 425 00d4 28EE000A 		fmuls	s0, s16, s0	@ tmp277, xin, dry
  88:src/phaser2.c **** 	if( _lfoPhase >= _2PI ) 	_lfoPhase -= _2PI;
 426              		.loc 1 88 0
 427 00d8 84ED009A 		fsts	s18, [r4, #0]	@ tmp223, _lfoPhase
  91:src/phaser2.c **** 	_a1 = (1.f - d) / (1.f + d);
 428              		.loc 1 91 0
 429 00dc 81ED003A 		fsts	s6, [r1, #0]	@ _a1.6, _a1
 430              	.LBB22:
 431              	.LBB10:
  75:src/phaser2.c ****         old[ind] = yout * _a1 + yin;
 432              		.loc 1 75 0
 433 00e0 83ED004A 		fsts	s8, [r3, #0]	@ tmp241, old
 434              	.LVL15:
 435              	.LBE10:
 436              	.LBE22:
 437              	.LBB23:
 438              	.LBB17:
 439 00e4 C3ED017A 		fsts	s15, [r3, #4]	@ tmp247, old
 440              	.LVL16:
 441 00e8 83ED025A 		fsts	s10, [r3, #8]	@ tmp253, old
 442              	.LVL17:
 443 00ec C3ED035A 		fsts	s11, [r3, #12]	@ tmp259, old
 444              	.LVL18:
 445 00f0 83ED046A 		fsts	s12, [r3, #16]	@ tmp265, old
 446              	.LVL19:
 447 00f4 C3ED056A 		fsts	s13, [r3, #20]	@ tmp271, old
 448              	.LVL20:
 449              	.LBE17:
 450              	.LBE23:
 101:src/phaser2.c **** 	_zm1 = yout;
 451              		.loc 1 101 0
 452 00f8 82ED007A 		fsts	s14, [r2, #0]	@ yout, _zm1
 104:src/phaser2.c **** 
 105:src/phaser2.c **** 	return yout;
 106:src/phaser2.c **** }
 453              		.loc 1 106 0
 454 00fc 07EE200A 		fmacs	s0, s14, s1	@, yout, wet
 455 0100 BDEC048B 		fldmfdd	sp!, {d8, d9}
 456 0104 10BD     		pop	{r4, pc}
 457              	.L12:
 458 0106 00BF     		.align	2
 459              	.L11:
 460 0108 00000000 		.word	.LANCHOR11
 461 010c 00000000 		.word	.LANCHOR6
 462 0110 00000000 		.word	.LANCHOR7
 463 0114 00000000 		.word	.LANCHOR12
 464 0118 00000000 		.word	.LANCHOR10
 465 011c 00000000 		.word	.LANCHOR8
 466 0120 00000000 		.word	.LANCHOR3
 467 0124 DB0FC940 		.word	1086918619
 468 0128 00000000 		.word	.LANCHOR4
 469 012c 00000000 		.word	.LANCHOR5
ARM GAS  C:\Users\CNous\AppData\Local\Temp\ccG9FAtd.s 			page 12


 470 0130 00000000 		.word	.LANCHOR9
 471              		.cfi_endproc
 472              	.LFE114:
 473              		.size	PhaserProcess, .-PhaserProcess
 474              		.section	.bss.swrate,"aw",%nobits
 475              		.align	2
 476              		.set	.LANCHOR2,. + 0
 477              		.type	swrate, %object
 478              		.size	swrate, 4
 479              	swrate:
 480 0000 00000000 		.space	4
 481              		.section	.bss._lfoInc,"aw",%nobits
 482              		.align	2
 483              		.set	.LANCHOR8,. + 0
 484              		.type	_lfoInc, %object
 485              		.size	_lfoInc, 4
 486              	_lfoInc:
 487 0000 00000000 		.space	4
 488              		.section	.bss._fb,"aw",%nobits
 489              		.align	2
 490              		.set	.LANCHOR3,. + 0
 491              		.type	_fb, %object
 492              		.size	_fb, 4
 493              	_fb:
 494 0000 00000000 		.space	4
 495              		.section	.bss._a1,"aw",%nobits
 496              		.align	2
 497              		.set	.LANCHOR9,. + 0
 498              		.type	_a1, %object
 499              		.size	_a1, 4
 500              	_a1:
 501 0000 00000000 		.space	4
 502              		.section	.bss.dry,"aw",%nobits
 503              		.align	2
 504              		.set	.LANCHOR4,. + 0
 505              		.type	dry, %object
 506              		.size	dry, 4
 507              	dry:
 508 0000 00000000 		.space	4
 509              		.section	.bss.wet,"aw",%nobits
 510              		.align	2
 511              		.set	.LANCHOR5,. + 0
 512              		.type	wet, %object
 513              		.size	wet, 4
 514              	wet:
 515 0000 00000000 		.space	4
 516              		.section	.bss._dmin,"aw",%nobits
 517              		.align	2
 518              		.set	.LANCHOR6,. + 0
 519              		.type	_dmin, %object
 520              		.size	_dmin, 4
 521              	_dmin:
 522 0000 00000000 		.space	4
 523              		.section	.bss.old,"aw",%nobits
 524              		.align	2
 525              		.set	.LANCHOR10,. + 0
 526              		.type	old, %object
ARM GAS  C:\Users\CNous\AppData\Local\Temp\ccG9FAtd.s 			page 13


 527              		.size	old, 24
 528              	old:
 529 0000 00000000 		.space	24
 529      00000000 
 529      00000000 
 529      00000000 
 529      00000000 
 530              		.section	.bss._lfoPhase,"aw",%nobits
 531              		.align	2
 532              		.set	.LANCHOR11,. + 0
 533              		.type	_lfoPhase, %object
 534              		.size	_lfoPhase, 4
 535              	_lfoPhase:
 536 0000 00000000 		.space	4
 537              		.section	.bss.f_min,"aw",%nobits
 538              		.align	2
 539              		.set	.LANCHOR0,. + 0
 540              		.type	f_min, %object
 541              		.size	f_min, 4
 542              	f_min:
 543 0000 00000000 		.space	4
 544              		.section	.bss.f_max,"aw",%nobits
 545              		.align	2
 546              		.set	.LANCHOR1,. + 0
 547              		.type	f_max, %object
 548              		.size	f_max, 4
 549              	f_max:
 550 0000 00000000 		.space	4
 551              		.section	.bss._dmax,"aw",%nobits
 552              		.align	2
 553              		.set	.LANCHOR7,. + 0
 554              		.type	_dmax, %object
 555              		.size	_dmax, 4
 556              	_dmax:
 557 0000 00000000 		.space	4
 558              		.section	.bss._zm1,"aw",%nobits
 559              		.align	2
 560              		.set	.LANCHOR12,. + 0
 561              		.type	_zm1, %object
 562              		.size	_zm1, 4
 563              	_zm1:
 564 0000 00000000 		.space	4
 565              		.text
 566              	.Letext0:
 567              		.file 2 "c:\\gnutoolsarmembedded\\4.7-2012q4\\bin\\../lib/gcc/arm-none-eabi/4.7.3/../../../../arm-
 568              		.file 3 "./cmsis/core/core_cm4.h"
 569              		.file 4 "c:\\gnutoolsarmembedded\\4.7-2012q4\\bin\\../lib/gcc/arm-none-eabi/4.7.3/../../../../arm-