ARM GAS  C:\Users\CNous\AppData\Local\Temp\ccG9FAtd.s 			page 1


   1              		.syntax unified
   2              		.cpu cortex-m4
   3              		.eabi_attribute 27, 3	@ Tag_ABI_HardFP_use
   4              		.eabi_attribute 28, 1	@ Tag_ABI_VFP_args
   5              		.fpu fpv4-sp-d16
   6              		.eabi_attribute 20, 1	@ Tag_ABI_FP_denormal
   7              		.eabi_attribute 21, 1	@ Tag_ABI_FP_exceptions
   8              		.eabi_attribute 23, 3	@ Tag_ABI_FP_number_model
   9              		.eabi_attribute 24, 1	@ Tag_ABI_align8_needed
  10              		.eabi_attribute 25, 1	@ Tag_ABI_align8_preserved
  11              		.eabi_attribute 26, 1	@ Tag_ABI_enum_size
  12              		.eabi_attribute 30, 2	@ Tag_ABI_optimization_goals
  13              		.eabi_attribute 34, 1	@ Tag_CPU_unaligned_access
  14              		.eabi_attribute 18, 4	@ Tag_ABI_PCS_wchar_t
  15              		.file	"phaser2.c"
  16              	@ GNU C (GNU Tools for ARM Embedded Processors) version 4.7.3 20121207 (release) [ARM/embedded-4_7-
  17              	@	compiled by GNU C version 4.2.1-sjlj (mingw32-2), GMP version 4.3.2, MPFR version 2.4.2, MPC vers
  18              	@ GGC heuristics: --param ggc-min-expand=100 --param ggc-min-heapsize=131072
  19              	@ options passed:  -I . -I ./inc -I ./cmsis/core -I ./cmsis/device
  20              	@ -imultilib armv7e-m/fpu
  21              	@ -iprefix c:\gnutoolsarmembedded\4.7-2012q4\bin\../lib/gcc/arm-none-eabi/4.7.3/
  22              	@ -isysroot c:\gnutoolsarmembedded\4.7-2012q4\bin\../arm-none-eabi
  23              	@ -MD src/phaser2.d -MF .dep/phaser2.o.d -MP -MQ src/phaser2.o
  24              	@ -D__USES_INITFINI__ -D __FPU_USED=1 -D __arm__ -D __ASSEMBLY__
  25              	@ -D USE_STDPERIPH_DRIVER -D STM32F4XX -D HSE_VALUE=8000000
  26              	@ -D __FPU_PRESENT=1 -D STM32F407VG -D RUN_FROM_FLASH=1 src/phaser2.c
  27              	@ -mthumb -mcpu=cortex-m4 -mfloat-abi=hard -mfpu=fpv4-sp-d16
  28              	@ -auxbase-strip src/phaser2.o -gdwarf-2 -O2 -Wall -Wstrict-prototypes
  29              	@ -fverbose-asm -ffunction-sections -fdata-sections
  30              	@ options enabled:  -fauto-inc-dec -fbranch-count-reg -fcaller-saves
  31              	@ -fcombine-stack-adjustments -fcommon -fcompare-elim -fcprop-registers
  32              	@ -fcrossjumping -fcse-follow-jumps -fdata-sections -fdebug-types-section
  33              	@ -fdefer-pop -fdelete-null-pointer-checks -fdevirtualize -fdwarf2-cfi-asm
  34              	@ -fearly-inlining -feliminate-unused-debug-types -fexpensive-optimizations
  35              	@ -fforward-propagate -ffunction-cse -ffunction-sections -fgcse -fgcse-lm
  36              	@ -fgnu-runtime -fguess-branch-probability -fident -fif-conversion
  37              	@ -fif-conversion2 -findirect-inlining -finline -finline-atomics
  38              	@ -finline-functions-called-once -finline-small-functions -fipa-cp
  39              	@ -fipa-profile -fipa-pure-const -fipa-reference -fipa-sra
  40              	@ -fira-share-save-slots -fira-share-spill-slots -fivopts
  41              	@ -fkeep-static-consts -fleading-underscore -fmath-errno -fmerge-constants
  42              	@ -fmerge-debug-strings -fmove-loop-invariants -fomit-frame-pointer
  43              	@ -foptimize-register-move -foptimize-sibling-calls -foptimize-strlen
  44              	@ -fpartial-inlining -fpeephole -fpeephole2 -fprefetch-loop-arrays
  45              	@ -freg-struct-return -fregmove -frename-registers -freorder-blocks
  46              	@ -freorder-functions -frerun-cse-after-loop
  47              	@ -fsched-critical-path-heuristic -fsched-dep-count-heuristic
  48              	@ -fsched-group-heuristic -fsched-interblock -fsched-last-insn-heuristic
  49              	@ -fsched-rank-heuristic -fsched-spec -fsched-spec-insn-heuristic
  50              	@ -fsched-stalled-insns-dep -fschedule-insns -fschedule-insns2
  51              	@ -fsection-anchors -fshow-column -fshrink-wrap -fsigned-zeros
  52              	@ -fsplit-ivs-in-unroller -fsplit-wide-types -fstrict-aliasing
  53              	@ -fstrict-overflow -fstrict-volatile-bitfields -fthread-jumps
  54              	@ -ftoplevel-reorder -ftrapping-math -ftree-bit-ccp -ftree-builtin-call-dce
  55              	@ -ftree-ccp -ftree-ch -ftree-copy-prop -ftree-copyrename -ftree-cselim
  56              	@ -ftree-dce -ftree-dominator-opts -ftree-dse -ftree-forwprop -ftree-fre
  57              	@ -ftree-loop-if-convert -ftree-loop-im -ftree-loop-ivcanon
ARM GAS  C:\Users\CNous\AppData\Local\Temp\ccG9FAtd.s 			page 2


  58              	@ -ftree-loop-optimize -ftree-parallelize-loops= -ftree-phiprop -ftree-pre
  59              	@ -ftree-pta -ftree-reassoc -ftree-scev-cprop -ftree-sink
  60              	@ -ftree-slp-vectorize -ftree-sra -ftree-switch-conversion
  61              	@ -ftree-tail-merge -ftree-ter -ftree-vect-loop-version -ftree-vrp
  62              	@ -funit-at-a-time -funroll-loops -fvar-tracking -fvar-tracking-assignments
  63              	@ -fverbose-asm -fweb -fzero-initialized-in-bss -mlittle-endian
  64              	@ -msched-prolog -mthumb -munaligned-access -mvectorize-with-neon-quad
  65              	
  66              		.text
  67              	.Ltext0:
  68              		.cfi_sections	.debug_frame
  69              		.section	.text.PhaserInit,"ax",%progbits
  70              		.align	2
  71              		.global	PhaserInit
  72              		.thumb
  73              		.thumb_func
  74              		.type	PhaserInit, %function
  75              	PhaserInit:
  76              	.LFB110:
  77              		.file 1 "src/phaser2.c"
   1:src/phaser2.c **** /**
   2:src/phaser2.c ****  ******************************************************************************
   3:src/phaser2.c ****  * @file     phaser2.c
   4:src/phaser2.c ****  * @author  Xavier Halgand
   5:src/phaser2.c ****  * @version
   6:src/phaser2.c ****  * @date    december 2012
   7:src/phaser2.c ****  * @brief
   8:src/phaser2.c **** 
   9:src/phaser2.c ****  ******************************************************************************
  10:src/phaser2.c ****  * This program is free software; you can redistribute it and/or
  11:src/phaser2.c ****  * modify it under the terms of the GNU General Public License as
  12:src/phaser2.c ****  * published by the Free Software Foundation; either version 2 of
  13:src/phaser2.c ****  * the License, or (at your option) any later version.
  14:src/phaser2.c ****  *
  15:src/phaser2.c ****  * This program is distributed in the hope that it will be
  16:src/phaser2.c ****  * useful, but WITHOUT ANY WARRANTY; without even the implied
  17:src/phaser2.c ****  * warranty of MERCHANTABILITY or FITNESS FOR A PARTICULAR
  18:src/phaser2.c ****  * PURPOSE.  See the GNU General Public License for more details.
  19:src/phaser2.c ****  *
  20:src/phaser2.c ****  * You should have received a copy of the GNU General Public
  21:src/phaser2.c ****  * License along with this program; if not, write to the Free
  22:src/phaser2.c ****  * Software Foundation, Inc., 59 Temple Place, Suite 330, Boston,
  23:src/phaser2.c ****  * MA 02111-1307, USA.
  24:src/phaser2.c ****  */
  25:src/phaser2.c **** 
  26:src/phaser2.c **** 
  27:src/phaser2.c **** #include "main.h"
  28:src/phaser2.c **** #include "phaser2.h"
  29:src/phaser2.c **** 
  30:src/phaser2.c **** /*This defines the phaser stages
  31:src/phaser2.c **** that is the number of allpass filters
  32:src/phaser2.c **** */
  33:src/phaser2.c **** #define PH_STAGES 6
  34:src/phaser2.c **** 
  35:src/phaser2.c **** static float old[PH_STAGES];
  36:src/phaser2.c **** static float f_min, f_max;
  37:src/phaser2.c **** static float swrate;
ARM GAS  C:\Users\CNous\AppData\Local\Temp\ccG9FAtd.s 			page 3


  38:src/phaser2.c **** static float dry, wet ;
  39:src/phaser2.c **** static float _dmin, _dmax; //range
  40:src/phaser2.c **** static float _fb; //feedback
  41:src/phaser2.c **** static float _lfoPhase;
  42:src/phaser2.c **** static float _lfoInc;
  43:src/phaser2.c **** static float _a1;
  44:src/phaser2.c **** static float _zm1;
  45:src/phaser2.c **** 
  46:src/phaser2.c **** void PhaserInit(void)
  47:src/phaser2.c **** {
  78              		.loc 1 47 0
  79              		.cfi_startproc
  80              		@ args = 0, pretend = 0, frame = 0
  81              		@ frame_needed = 0, uses_anonymous_args = 0
  82              		@ link register save eliminated.
  83 0000 2DE9F003 		push	{r4, r5, r6, r7, r8, r9}	@
  84              	.LCFI0:
  85              		.cfi_def_cfa_offset 24
  86              		.cfi_offset 4, -24
  87              		.cfi_offset 5, -20
  88              		.cfi_offset 6, -16
  89              		.cfi_offset 7, -12
  90              		.cfi_offset 8, -8
  91              		.cfi_offset 9, -4
  48:src/phaser2.c **** 	f_min = 200.f;
  49:src/phaser2.c **** 	f_max = 1700.f;
  50:src/phaser2.c **** 	swrate = 0.1f;
  51:src/phaser2.c **** 	_fb = 0.7f;
  52:src/phaser2.c **** 	dry = 0.7f;
  92              		.loc 1 52 0
  93 0004 40F20004 		movw	r4, #:lower16:.LANCHOR4	@ tmp156,
  94 0008 C0F20004 		movt	r4, #:upper16:.LANCHOR4	@ tmp156,
  51:src/phaser2.c **** 	_fb = 0.7f;
  95              		.loc 1 51 0
  96 000c 43F23338 		movw	r8, #13107	@ tmp141,
  97 0010 C3F63378 		movt	r8, 16179	@ tmp141,
  53:src/phaser2.c **** 	wet = 0.3f;
  98              		.loc 1 53 0
  99 0014 40F20000 		movw	r0, #:lower16:.LANCHOR5	@ tmp157,
 100 0018 C0F20000 		movt	r0, #:upper16:.LANCHOR5	@ tmp157,
  52:src/phaser2.c **** 	dry = 0.7f;
 101              		.loc 1 52 0
 102 001c C4F80080 		str	r8, [r4, #0]	@ float	@ tmp141, dry
 103              		.loc 1 53 0
 104 0020 49F69A14 		movw	r4, #39322	@ tmp145,
  48:src/phaser2.c **** 	f_min = 200.f;
 105              		.loc 1 48 0
 106 0024 40F2000C 		movw	ip, #:lower16:.LANCHOR0	@ tmp152,
  54:src/phaser2.c **** 
  55:src/phaser2.c **** 	_dmin = 2 * f_min / SAMPLERATE;
 107              		.loc 1 55 0
 108 0028 40F20001 		movw	r1, #:lower16:.LANCHOR6	@ tmp158,
  53:src/phaser2.c **** 	wet = 0.3f;
 109              		.loc 1 53 0
 110 002c C3F69964 		movt	r4, 16025	@ tmp145,
  48:src/phaser2.c **** 	f_min = 200.f;
 111              		.loc 1 48 0
ARM GAS  C:\Users\CNous\AppData\Local\Temp\ccG9FAtd.s 			page 4


 112 0030 C0F2000C 		movt	ip, #:upper16:.LANCHOR0	@ tmp152,
 113              		.loc 1 55 0
 114 0034 C0F20001 		movt	r1, #:upper16:.LANCHOR6	@ tmp158,
  48:src/phaser2.c **** 	f_min = 200.f;
 115              		.loc 1 48 0
 116 0038 4FF00009 		mov	r9, #0	@ tmp135,
  53:src/phaser2.c **** 	wet = 0.3f;
 117              		.loc 1 53 0
 118 003c 0460     		str	r4, [r0, #0]	@ float	@ tmp145, wet
 119              		.loc 1 55 0
 120 003e 48F68900 		movw	r0, #34953	@ tmp147,
  49:src/phaser2.c **** 	f_max = 1700.f;
 121              		.loc 1 49 0
 122 0042 40F20007 		movw	r7, #:lower16:.LANCHOR1	@ tmp153,
  56:src/phaser2.c **** 	_dmax = 2 * f_max / SAMPLERATE;
 123              		.loc 1 56 0
 124 0046 40F20002 		movw	r2, #:lower16:.LANCHOR7	@ tmp159,
  48:src/phaser2.c **** 	f_min = 200.f;
 125              		.loc 1 48 0
 126 004a C4F24839 		movt	r9, 17224	@ tmp135,
  55:src/phaser2.c **** 	_dmin = 2 * f_min / SAMPLERATE;
 127              		.loc 1 55 0
 128 004e C3F60840 		movt	r0, 15368	@ tmp147,
  49:src/phaser2.c **** 	f_max = 1700.f;
 129              		.loc 1 49 0
 130 0052 C0F20007 		movt	r7, #:upper16:.LANCHOR1	@ tmp153,
 131              		.loc 1 56 0
 132 0056 C0F20002 		movt	r2, #:upper16:.LANCHOR7	@ tmp159,
  48:src/phaser2.c **** 	f_min = 200.f;
 133              		.loc 1 48 0
 134 005a CCF80090 		str	r9, [ip, #0]	@ float	@ tmp135, f_min
  55:src/phaser2.c **** 	_dmin = 2 * f_min / SAMPLERATE;
 135              		.loc 1 55 0
 136 005e 0860     		str	r0, [r1, #0]	@ float	@ tmp147, _dmin
  49:src/phaser2.c **** 	f_max = 1700.f;
 137              		.loc 1 49 0
 138 0060 4FF4004C 		mov	ip, #32768	@ tmp137,
 139              		.loc 1 56 0
 140 0064 41F21111 		movw	r1, #4369	@ tmp149,
  50:src/phaser2.c **** 	swrate = 0.1f;
 141              		.loc 1 50 0
 142 0068 40F20006 		movw	r6, #:lower16:.LANCHOR2	@ tmp154,
  51:src/phaser2.c **** 	_fb = 0.7f;
 143              		.loc 1 51 0
 144 006c 40F20005 		movw	r5, #:lower16:.LANCHOR3	@ tmp155,
  57:src/phaser2.c **** 	_lfoInc = _2PI * swrate / SAMPLERATE;
 145              		.loc 1 57 0
 146 0070 40F20003 		movw	r3, #:lower16:.LANCHOR8	@ tmp160,
  49:src/phaser2.c **** 	f_max = 1700.f;
 147              		.loc 1 49 0
 148 0074 C4F2D44C 		movt	ip, 17620	@ tmp137,
  56:src/phaser2.c **** 	_dmax = 2 * f_max / SAMPLERATE;
 149              		.loc 1 56 0
 150 0078 C3F69151 		movt	r1, 15761	@ tmp149,
  50:src/phaser2.c **** 	swrate = 0.1f;
 151              		.loc 1 50 0
 152 007c C0F20006 		movt	r6, #:upper16:.LANCHOR2	@ tmp154,
ARM GAS  C:\Users\CNous\AppData\Local\Temp\ccG9FAtd.s 			page 5


  51:src/phaser2.c **** 	_fb = 0.7f;
 153              		.loc 1 51 0
 154 0080 C0F20005 		movt	r5, #:upper16:.LANCHOR3	@ tmp155,
 155              		.loc 1 57 0
 156 0084 C0F20003 		movt	r3, #:upper16:.LANCHOR8	@ tmp160,
  49:src/phaser2.c **** 	f_max = 1700.f;
 157              		.loc 1 49 0
 158 0088 C7F800C0 		str	ip, [r7, #0]	@ float	@ tmp137, f_max
  56:src/phaser2.c **** 	_dmax = 2 * f_max / SAMPLERATE;
 159              		.loc 1 56 0
 160 008c 1160     		str	r1, [r2, #0]	@ float	@ tmp149, _dmax
  50:src/phaser2.c **** 	swrate = 0.1f;
 161              		.loc 1 50 0
 162 008e 4CF6CD47 		movw	r7, #52429	@ tmp139,
 163              		.loc 1 57 0
 164 0092 49F6FE42 		movw	r2, #40190	@ tmp151,
  50:src/phaser2.c **** 	swrate = 0.1f;
 165              		.loc 1 50 0
 166 0096 C3F6CC57 		movt	r7, 15820	@ tmp139,
 167              		.loc 1 57 0
 168 009a C3F25B72 		movt	r2, 14171	@ tmp151,
  50:src/phaser2.c **** 	swrate = 0.1f;
 169              		.loc 1 50 0
 170 009e 3760     		str	r7, [r6, #0]	@ float	@ tmp139, swrate
  51:src/phaser2.c **** 	_fb = 0.7f;
 171              		.loc 1 51 0
 172 00a0 C5F80080 		str	r8, [r5, #0]	@ float	@ tmp141, _fb
 173              		.loc 1 57 0
 174 00a4 1A60     		str	r2, [r3, #0]	@ float	@ tmp151, _lfoInc
  58:src/phaser2.c **** }
 175              		.loc 1 58 0
 176 00a6 BDE8F003 		pop	{r4, r5, r6, r7, r8, r9}
 177 00aa 7047     		bx	lr
 178              		.cfi_endproc
 179              	.LFE110:
 180              		.size	PhaserInit, .-PhaserInit
 181              		.section	.text.PhaserRate,"ax",%progbits
 182              		.align	2
 183              		.global	PhaserRate
 184              		.thumb
 185              		.thumb_func
 186              		.type	PhaserRate, %function
 187              	PhaserRate:
 188              	.LFB111:
  59:src/phaser2.c **** 
  60:src/phaser2.c **** void PhaserRate(float rate)
  61:src/phaser2.c **** {
 189              		.loc 1 61 0
 190              		.cfi_startproc
 191              		@ args = 0, pretend = 0, frame = 0
 192              		@ frame_needed = 0, uses_anonymous_args = 0
 193              		@ link register save eliminated.
 194              	.LVL0:
  62:src/phaser2.c **** 	swrate = rate;
  63:src/phaser2.c **** 	_lfoInc = _2PI * swrate / SAMPLERATE;
 195              		.loc 1 63 0
 196 0000 DFED0A7A 		flds	s15, .L3	@ tmp140,
ARM GAS  C:\Users\CNous\AppData\Local\Temp\ccG9FAtd.s 			page 6


 197 0004 9FED0A7A 		flds	s14, .L3+4	@ tmp142,
 198 0008 60EE270A 		fmuls	s1, s0, s15	@ tmp139, rate, tmp140
  62:src/phaser2.c **** 	swrate = rate;
 199              		.loc 1 62 0
 200 000c 40F20002 		movw	r2, #:lower16:.LANCHOR2	@ tmp143,
 201              		.loc 1 63 0
 202 0010 80EE871A 		fdivs	s2, s1, s14	@ tmp141, tmp139, tmp142
 203 0014 40F20003 		movw	r3, #:lower16:.LANCHOR8	@ tmp144,
  62:src/phaser2.c **** 	swrate = rate;
 204              		.loc 1 62 0
 205 0018 C0F20002 		movt	r2, #:upper16:.LANCHOR2	@ tmp143,
 206              		.loc 1 63 0
 207 001c C0F20003 		movt	r3, #:upper16:.LANCHOR8	@ tmp144,
  62:src/phaser2.c **** 	swrate = rate;
 208              		.loc 1 62 0
 209 0020 82ED000A 		fsts	s0, [r2, #0]	@ rate, swrate
 210              		.loc 1 63 0
 211 0024 83ED001A 		fsts	s2, [r3, #0]	@ tmp141, _lfoInc
 212 0028 7047     		bx	lr	@
 213              	.L4:
 214 002a 00BF     		.align	2
 215              	.L3:
 216 002c DB0FC940 		.word	1086918619
 217 0030 00803B47 		.word	1195081728
 218              		.cfi_endproc
 219              	.LFE111:
 220              		.size	PhaserRate, .-PhaserRate
 221              		.section	.text.PhaserFeedback,"ax",%progbits
 222              		.align	2
 223              		.global	PhaserFeedback
 224              		.thumb
 225              		.thumb_func
 226              		.type	PhaserFeedback, %function
 227              	PhaserFeedback:
 228              	.LFB112:
  64:src/phaser2.c **** }
  65:src/phaser2.c **** 
  66:src/phaser2.c **** void PhaserFeedback(float fdb)
  67:src/phaser2.c **** {
 229              		.loc 1 67 0
 230              		.cfi_startproc
 231              		@ args = 0, pretend = 0, frame = 0
 232              		@ frame_needed = 0, uses_anonymous_args = 0
 233              		@ link register save eliminated.
 234              	.LVL1:
  68:src/phaser2.c **** 	_fb = fdb;
 235              		.loc 1 68 0
 236 0000 40F20003 		movw	r3, #:lower16:.LANCHOR3	@ tmp136,
 237 0004 C0F20003 		movt	r3, #:upper16:.LANCHOR3	@ tmp136,
 238 0008 83ED000A 		fsts	s0, [r3, #0]	@ fdb, _fb
 239 000c 7047     		bx	lr	@
 240              		.cfi_endproc
 241              	.LFE112:
 242              		.size	PhaserFeedback, .-PhaserFeedback
 243 000e 00BF     		.section	.text.allpass,"ax",%progbits
 244              		.align	2
 245              		.global	allpass
ARM GAS  C:\Users\CNous\AppData\Local\Temp\ccG9FAtd.s 			page 7


 246              		.thumb
 247              		.thumb_func
 248              		.type	allpass, %function
 249              	allpass:
 250              	.LFB113:
  69:src/phaser2.c **** }
  70:src/phaser2.c **** float allpass(float yin, int ind)
  71:src/phaser2.c **** {
 251              		.loc 1 71 0
 252              		.cfi_startproc
 253              		@ args = 0, pretend = 0, frame = 0
 254              		@ frame_needed = 0, uses_anonymous_args = 0
 255              		@ link register save eliminated.
 256              	.LVL2:
  72:src/phaser2.c ****         float yout;
  73:src/phaser2.c **** 
  74:src/phaser2.c ****         yout = - yin * _a1 + old[ind];
 257              		.loc 1 74 0
 258 0000 40F20002 		movw	r2, #:lower16:.LANCHOR10	@ tmp158,
 259 0004 C0F20002 		movt	r2, #:upper16:.LANCHOR10	@ tmp158,
 260 0008 40F20003 		movw	r3, #:lower16:.LANCHOR9	@ tmp157,
 261 000c 02EB8000 		add	r0, r2, r0, lsl #2	@, tmp149, tmp158, ind,
 262              	.LVL3:
 263 0010 C0F20003 		movt	r3, #:upper16:.LANCHOR9	@ tmp157,
 264 0014 93ED007A 		flds	s14, [r3, #0]	@ _a1.11, _a1
 265 0018 D0ED007A 		flds	s15, [r0, #0]	@ yout, old
 266 001c 40EE477A 		fnmacs	s15, s0, s14	@ yout, yin, _a1.11
 267              	.LVL4:
  75:src/phaser2.c ****         old[ind] = yout * _a1 + yin;
 268              		.loc 1 75 0
 269 0020 07EE270A 		fmacs	s0, s14, s15	@ yin, _a1.11, yout
 270              	.LVL5:
 271 0024 F0EE400A 		fcpys	s1, s0	@ tmp155, yin
 272 0028 C0ED000A 		fsts	s1, [r0, #0]	@ tmp155, old
  76:src/phaser2.c ****         return yout;
  77:src/phaser2.c **** }
 273              		.loc 1 77 0
 274 002c B0EE670A 		fcpys	s0, s15	@, yout
 275 0030 7047     		bx	lr	@
 276              		.cfi_endproc
 277              	.LFE113:
 278              		.size	allpass, .-allpass
 279 0032 00BF     		.section	.text.PhaserProcess,"ax",%progbits
 280              		.align	2
 281              		.global	PhaserProcess
 282              		.thumb
 283              		.thumb_func
 284              		.type	PhaserProcess, %function
 285              	PhaserProcess:
 286              	.LFB114:
  78:src/phaser2.c **** 
  79:src/phaser2.c **** 
  80:src/phaser2.c **** float PhaserProcess(float xin)
  81:src/phaser2.c **** {
 287              		.loc 1 81 0
 288              		.cfi_startproc
 289              		@ args = 0, pretend = 0, frame = 0
ARM GAS  C:\Users\CNous\AppData\Local\Temp\ccG9FAtd.s 			page 8


 290              		@ frame_needed = 0, uses_anonymous_args = 0
 291              	.LVL6:
 292 0000 10B5     		push	{r4, lr}	@
 293              	.LCFI1:
 294              		.cfi_def_cfa_offset 8
 295              		.cfi_offset 4, -8
 296              		.cfi_offset 14, -4
  82:src/phaser2.c **** 	float yout;
  83:src/phaser2.c **** 	int i;
  84:src/phaser2.c **** 
  85:src/phaser2.c **** 	//calculate and update phaser sweep lfo...
  86:src/phaser2.c **** 	float d  = _dmin + (_dmax - _dmin) * ((sinf(_lfoPhase) + 1.f)*0.5f);
 297              		.loc 1 86 0
 298 0002 414C     		ldr	r4, .L11	@ tmp209,
 299 0004 414B     		ldr	r3, .L11+4	@ tmp208,
  81:src/phaser2.c **** {
 300              		.loc 1 81 0
 301 0006 2DED048B 		fstmfdd	sp!, {d8, d9}	@,
 302              	.LCFI2:
 303              		.cfi_def_cfa_offset 24
 304              		.cfi_offset 80, -24
 305              		.cfi_offset 82, -16
 306              		.loc 1 86 0
 307 000a 94ED009A 		flds	s18, [r4, #0]	@ _lfoPhase.2, _lfoPhase
  81:src/phaser2.c **** {
 308              		.loc 1 81 0
 309 000e B0EE408A 		fcpys	s16, s0	@ xin, xin
 310              		.loc 1 86 0
 311 0012 B0EE490A 		fcpys	s0, s18	@, _lfoPhase.2
 312              	.LVL7:
 313 0016 D3ED008A 		flds	s17, [r3, #0]	@ _dmin.1, _dmin
 314 001a FFF7FEFF 		bl	sinf	@
 315              	.LVL8:
 316 001e 3C48     		ldr	r0, .L11+8	@ tmp210,
  87:src/phaser2.c **** 	_lfoPhase += _lfoInc;
  88:src/phaser2.c **** 	if( _lfoPhase >= _2PI ) 	_lfoPhase -= _2PI;
  89:src/phaser2.c **** 
  90:src/phaser2.c **** 	//update filter coeffs
  91:src/phaser2.c **** 	_a1 = (1.f - d) / (1.f + d);
  92:src/phaser2.c **** 
  93:src/phaser2.c **** 	//calculate output
  94:src/phaser2.c **** 
  95:src/phaser2.c **** 	yout = allpass(xin + _zm1 * _fb, 0);
 317              		.loc 1 95 0
 318 0020 3C4A     		ldr	r2, .L11+12	@ tmp230,
 319              	.LBB6:
 320              	.LBB7:
  74:src/phaser2.c ****         yout = - yin * _a1 + old[ind];
 321              		.loc 1 74 0
 322 0022 3D4B     		ldr	r3, .L11+16	@ tmp237,
 323              	.LBE7:
 324              	.LBE6:
  87:src/phaser2.c **** 	_lfoPhase += _lfoInc;
 325              		.loc 1 87 0
 326 0024 3D49     		ldr	r1, .L11+20	@ tmp218,
  86:src/phaser2.c **** 	float d  = _dmin + (_dmax - _dmin) * ((sinf(_lfoPhase) + 1.f)*0.5f);
 327              		.loc 1 86 0
ARM GAS  C:\Users\CNous\AppData\Local\Temp\ccG9FAtd.s 			page 9


 328 0026 B7EE007A 		fconsts	s14, #112	@ tmp214,
 329 002a D0ED007A 		flds	s15, [r0, #0]	@ _dmax, _dmax
 330 002e 30EE070A 		fadds	s0, s0, s14	@ tmp213,, tmp214
 331 0032 F6EE000A 		fconsts	s1, #96	@ tmp216,
 332 0036 20EE201A 		fmuls	s2, s0, s1	@ tmp215, tmp213, tmp216
 333 003a 77EEE86A 		fsubs	s13, s15, s17	@ tmp211, _dmax, _dmin.1
  91:src/phaser2.c **** 	_a1 = (1.f - d) / (1.f + d);
 334              		.loc 1 91 0
 335 003e B7EE002A 		fconsts	s4, #112	@ tmp226,
  86:src/phaser2.c **** 	float d  = _dmin + (_dmax - _dmin) * ((sinf(_lfoPhase) + 1.f)*0.5f);
 336              		.loc 1 86 0
 337 0042 46EE818A 		fmacs	s17, s13, s2	@ d, tmp211, tmp215
 338              	.LVL9:
 339              		.loc 1 95 0
 340 0046 3648     		ldr	r0, .L11+24	@ tmp231,
  91:src/phaser2.c **** 	_a1 = (1.f - d) / (1.f + d);
 341              		.loc 1 91 0
 342 0048 72EE682A 		fsubs	s5, s4, s17	@ tmp225, tmp226, d
 343 004c 78EE828A 		fadds	s17, s17, s4	@ tmp227, d, tmp226
 344              	.LVL10:
 345              		.loc 1 95 0
 346 0050 D2ED003A 		flds	s7, [r2, #0]	@ _zm1, _zm1
  91:src/phaser2.c **** 	_a1 = (1.f - d) / (1.f + d);
 347              		.loc 1 91 0
 348 0054 82EEA83A 		fdivs	s6, s5, s17	@ _a1.6, tmp225, tmp227
 349              		.loc 1 95 0
 350 0058 D0ED004A 		flds	s9, [r0, #0]	@ _fb, _fb
 351 005c B0EE484A 		fcpys	s8, s16	@ D.8474, xin
 352 0060 03EEA44A 		fmacs	s8, s7, s9	@ D.8474, _zm1, _fb
 353              	.LVL11:
 354              	.LBB11:
 355              	.LBB8:
  74:src/phaser2.c ****         yout = - yin * _a1 + old[ind];
 356              		.loc 1 74 0
 357 0064 D3ED007A 		flds	s15, [r3, #0]	@ yout, old
 358 0068 44EE437A 		fnmacs	s15, s8, s6	@ yout, D.8474, _a1.6
 359              	.LVL12:
 360              	.LBE8:
 361              	.LBE11:
 362              	.LBB12:
 363              	.LBB13:
 364 006c 93ED015A 		flds	s10, [r3, #4]	@ yout, old
 365 0070 07EEC35A 		fnmacs	s10, s15, s6	@ yout, yout, _a1.6
 366 0074 D3ED025A 		flds	s11, [r3, #8]	@ yout, old
 367              	.LBE13:
 368              	.LBE12:
  87:src/phaser2.c **** 	_lfoPhase += _lfoInc;
 369              		.loc 1 87 0
 370 0078 91ED006A 		flds	s12, [r1, #0]	@ _lfoInc, _lfoInc
 371              	.LBB18:
 372              	.LBB14:
  74:src/phaser2.c ****         yout = - yin * _a1 + old[ind];
 373              		.loc 1 74 0
 374 007c 45EE435A 		fnmacs	s11, s10, s6	@ yout, yout, _a1.6
 375              	.LBE14:
 376              	.LBE18:
  87:src/phaser2.c **** 	_lfoPhase += _lfoInc;
ARM GAS  C:\Users\CNous\AppData\Local\Temp\ccG9FAtd.s 			page 10


 377              		.loc 1 87 0
 378 0080 39EE069A 		fadds	s18, s18, s12	@ _lfoPhase.4, _lfoPhase.2, _lfoInc
 379              	.LBB19:
 380              	.LBB15:
  74:src/phaser2.c ****         yout = - yin * _a1 + old[ind];
 381              		.loc 1 74 0
 382 0084 93ED036A 		flds	s12, [r3, #12]	@ yout, old
 383 0088 05EEC36A 		fnmacs	s12, s11, s6	@ yout, yout, _a1.6
 384 008c D3ED046A 		flds	s13, [r3, #16]	@ yout, old
 385 0090 46EE436A 		fnmacs	s13, s12, s6	@ yout, yout, _a1.6
 386 0094 93ED057A 		flds	s14, [r3, #20]	@ yout, old
 387 0098 06EEC37A 		fnmacs	s14, s13, s6	@ yout, yout, _a1.6
 388              	.LBE15:
 389              	.LBE19:
  88:src/phaser2.c **** 	if( _lfoPhase >= _2PI ) 	_lfoPhase -= _2PI;
 390              		.loc 1 88 0
 391 009c DFED211A 		flds	s3, .L11+28	@ tmp220,
  96:src/phaser2.c **** 
  97:src/phaser2.c **** 	for(i = 1; i < PH_STAGES; i++)
  98:src/phaser2.c **** 	{
  99:src/phaser2.c **** 		yout = allpass(yout, i);
 100:src/phaser2.c **** 	}
 101:src/phaser2.c **** 	_zm1 = yout;
 102:src/phaser2.c **** 
 103:src/phaser2.c **** 	yout = dry * xin + wet * yout;
 392              		.loc 1 103 0
 393 00a0 2149     		ldr	r1, .L11+32	@ tmp276,
 394 00a2 2248     		ldr	r0, .L11+36	@ tmp273,
  88:src/phaser2.c **** 	if( _lfoPhase >= _2PI ) 	_lfoPhase -= _2PI;
 395              		.loc 1 88 0
 396 00a4 B4EEE19A 		fcmpes	s18, s3	@ _lfoPhase.4, tmp220
 397              	.LBB20:
 398              	.LBB9:
  75:src/phaser2.c ****         old[ind] = yout * _a1 + yin;
 399              		.loc 1 75 0
 400 00a8 03EE274A 		fmacs	s8, s6, s15	@ tmp241, _a1.6, yout
 401              	.LVL13:
 402              	.LBE9:
 403              	.LBE20:
 404              	.LBB21:
 405              	.LBB16:
 406 00ac 43EE057A 		fmacs	s15, s6, s10	@ tmp247, _a1.6, yout
 407              	.LVL14:
 408 00b0 03EE255A 		fmacs	s10, s6, s11	@ tmp253, _a1.6, yout
 409 00b4 43EE065A 		fmacs	s11, s6, s12	@ tmp259, _a1.6, yout
 410 00b8 03EE266A 		fmacs	s12, s6, s13	@ tmp265, _a1.6, yout
 411 00bc 43EE076A 		fmacs	s13, s6, s14	@ tmp271, _a1.6, yout
 412              	.LBE16:
 413              	.LBE21:
 414              		.loc 1 103 0
 415 00c0 91ED000A 		flds	s0, [r1, #0]	@ dry, dry
  88:src/phaser2.c **** 	if( _lfoPhase >= _2PI ) 	_lfoPhase -= _2PI;
 416              		.loc 1 88 0
 417 00c4 F1EE10FA 		fmstat
 418 00c8 A8BF     		it	ge
 419 00ca 39EE619A 		fsubsge	s18, s18, s3	@ tmp223, _lfoPhase.4, tmp220
 420              		.loc 1 103 0
ARM GAS  C:\Users\CNous\AppData\Local\Temp\ccG9FAtd.s 			page 11


 421 00ce D0ED000A 		flds	s1, [r0, #0]	@ wet, wet
  91:src/phaser2.c **** 	_a1 = (1.f - d) / (1.f + d);
 422              		.loc 1 91 0
 423 00d2 1749     		ldr	r1, .L11+40	@ tmp229,
 424              		.loc 1 103 0
 425 00d4 28EE000A 		fmuls	s0, s16, s0	@ tmp277, xin, dry
  88:src/phaser2.c **** 	if( _lfoPhase >= _2PI ) 	_lfoPhase -= _2PI;
 426              		.loc 1 88 0
 427 00d8 84ED009A 		fsts	s18, [r4, #0]	@ tmp223, _lfoPhase
  91:src/phaser2.c **** 	_a1 = (1.f - d) / (1.f + d);
 428              		.loc 1 91 0
 429 00dc 81ED003A 		fsts	s6, [r1, #0]	@ _a1.6, _a1
 430              	.LBB22:
 431              	.LBB10:
  75:src/phaser2.c ****         old[ind] = yout * _a1 + yin;
 432              		.loc 1 75 0
 433 00e0 83ED004A 		fsts	s8, [r3, #0]	@ tmp241, old
 434              	.LVL15:
 435              	.LBE10:
 436              	.LBE22:
 437              	.LBB23:
 438              	.LBB17:
 439 00e4 C3ED017A 		fsts	s15, [r3, #4]	@ tmp247, old
 440              	.LVL16:
 441 00e8 83ED025A 		fsts	s10, [r3, #8]	@ tmp253, old
 442              	.LVL17:
 443 00ec C3ED035A 		fsts	s11, [r3, #12]	@ tmp259, old
 444              	.LVL18:
 445 00f0 83ED046A 		fsts	s12, [r3, #16]	@ tmp265, old
 446              	.LVL19:
 447 00f4 C3ED056A 		fsts	s13, [r3, #20]	@ tmp271, old
 448              	.LVL20:
 449              	.LBE17:
 450              	.LBE23:
 101:src/phaser2.c **** 	_zm1 = yout;
 451              		.loc 1 101 0
 452 00f8 82ED007A 		fsts	s14, [r2, #0]	@ yout, _zm1
 104:src/phaser2.c **** 
 105:src/phaser2.c **** 	return yout;
 106:src/phaser2.c **** }
 453              		.loc 1 106 0
 454 00fc 07EE200A 		fmacs	s0, s14, s1	@, yout, wet
 455 0100 BDEC048B 		fldmfdd	sp!, {d8, d9}
 456 0104 10BD     		pop	{r4, pc}
 457              	.L12:
 458 0106 00BF     		.align	2
 459              	.L11:
 460 0108 00000000 		.word	.LANCHOR11
 461 010c 00000000 		.word	.LANCHOR6
 462 0110 00000000 		.word	.LANCHOR7
 463 0114 00000000 		.word	.LANCHOR12
 464 0118 00000000 		.word	.LANCHOR10
 465 011c 00000000 		.word	.LANCHOR8
 466 0120 00000000 		.word	.LANCHOR3
 467 0124 DB0FC940 		.word	1086918619
 468 0128 00000000 		.word	.LANCHOR4
 469 012c 00000000 		.word	.LANCHOR5
ARM GAS  C:\Users\CNous\AppData\Local\Temp\ccG9FAtd.s 			page 12


 470 0130 00000000 		.word	.LANCHOR9
 471              		.cfi_endproc
 472              	.LFE114:
 473              		.size	PhaserProcess, .-PhaserProcess
 474              		.section	.bss.swrate,"aw",%nobits
 475              		.align	2
 476              		.set	.LANCHOR2,. + 0
 477              		.type	swrate, %object
 478              		.size	swrate, 4
 479              	swrate:
 480 0000 00000000 		.space	4
 481              		.section	.bss._lfoInc,"aw",%nobits
 482              		.align	2
 483              		.set	.LANCHOR8,. + 0
 484              		.type	_lfoInc, %object
 485              		.size	_lfoInc, 4
 486              	_lfoInc:
 487 0000 00000000 		.space	4
 488              		.section	.bss._fb,"aw",%nobits
 489              		.align	2
 490              		.set	.LANCHOR3,. + 0
 491              		.type	_fb, %object
 492              		.size	_fb, 4
 493              	_fb:
 494 0000 00000000 		.space	4
 495              		.section	.bss._a1,"aw",%nobits
 496              		.align	2
 497              		.set	.LANCHOR9,. + 0
 498              		.type	_a1, %object
 499              		.size	_a1, 4
 500              	_a1:
 501 0000 00000000 		.space	4
 502              		.section	.bss.dry,"aw",%nobits
 503              		.align	2
 504              		.set	.LANCHOR4,. + 0
 505              		.type	dry, %object
 506              		.size	dry, 4
 507              	dry:
 508 0000 00000000 		.space	4
 509              		.section	.bss.wet,"aw",%nobits
 510              		.align	2
 511              		.set	.LANCHOR5,. + 0
 512              		.type	wet, %object
 513              		.size	wet, 4
 514              	wet:
 515 0000 00000000 		.space	4
 516              		.section	.bss._dmin,"aw",%nobits
 517              		.align	2
 518              		.set	.LANCHOR6,. + 0
 519              		.type	_dmin, %object
 520              		.size	_dmin, 4
 521              	_dmin:
 522 0000 00000000 		.space	4
 523              		.section	.bss.old,"aw",%nobits
 524              		.align	2
 525              		.set	.LANCHOR10,. + 0
 526              		.type	old, %object
ARM GAS  C:\Users\CNous\AppData\Local\Temp\ccG9FAtd.s 			page 13


 527              		.size	old, 24
 528              	old:
 529 0000 00000000 		.space	24
 529      00000000 
 529      00000000 
 529      00000000 
 529      00000000 
 530              		.section	.bss._lfoPhase,"aw",%nobits
 531              		.align	2
 532              		.set	.LANCHOR11,. + 0
 533              		.type	_lfoPhase, %object
 534              		.size	_lfoPhase, 4
 535              	_lfoPhase:
 536 0000 00000000 		.space	4
 537              		.section	.bss.f_min,"aw",%nobits
 538              		.align	2
 539              		.set	.LANCHOR0,. + 0
 540              		.type	f_min, %object
 541              		.size	f_min, 4
 542              	f_min:
 543 0000 00000000 		.space	4
 544              		.section	.bss.f_max,"aw",%nobits
 545              		.align	2
 546              		.set	.LANCHOR1,. + 0
 547              		.type	f_max, %object
 548              		.size	f_max, 4
 549              	f_max:
 550 0000 00000000 		.space	4
 551              		.section	.bss._dmax,"aw",%nobits
 552              		.align	2
 553              		.set	.LANCHOR7,. + 0
 554              		.type	_dmax, %object
 555              		.size	_dmax, 4
 556              	_dmax:
 557 0000 00000000 		.space	4
 558              		.section	.bss._zm1,"aw",%nobits
 559              		.align	2
 560              		.set	.LANCHOR12,. + 0
 561              		.type	_zm1, %object
 562              		.size	_zm1, 4
 563              	_zm1:
 564 0000 00000000 		.space	4
 565              		.text
 566              	.Letext0:
 567              		.file 2 "c:\\gnutoolsarmembedded\\4.7-2012q4\\bin\\../lib/gcc/arm-none-eabi/4.7.3/../../../../arm-
 568              		.file 3 "./cmsis/core/core_cm4.h"
 569              		.file 4 "c:\\gnutoolsarmembedded\\4.7-2012q4\\bin\\../lib/gcc/arm-none-eabi/4.7.3/../../../../arm-
 570              		.section	.debug_info,"",%progbits
 571              	.Ldebug_info0:
 572 0000 49030000 		.4byte	0x349
 573 0004 0200     		.2byte	0x2
 574 0006 00000000 		.4byte	.Ldebug_abbrev0
 575 000a 04       		.byte	0x4
 576 000b 01       		.uleb128 0x1
 577 000c BD000000 		.4byte	.LASF26
 578 0010 01       		.byte	0x1
 579 0011 62010000 		.4byte	.LASF27
ARM GAS  C:\Users\CNous\AppData\Local\Temp\ccG9FAtd.s 			page 14


 580 0015 70010000 		.4byte	.LASF28
 581 0019 B0000000 		.4byte	.Ldebug_ranges0+0xb0
 582 001d 00000000 		.4byte	0
 583 0021 00000000 		.4byte	0
 584 0025 00000000 		.4byte	.Ldebug_line0
 585 0029 02       		.uleb128 0x2
 586 002a 04       		.byte	0x4
 587 002b 04       		.byte	0x4
 588 002c 4B000000 		.4byte	.LASF0
 589 0030 02       		.uleb128 0x2
 590 0031 01       		.byte	0x1
 591 0032 06       		.byte	0x6
 592 0033 AA010000 		.4byte	.LASF1
 593 0037 02       		.uleb128 0x2
 594 0038 01       		.byte	0x1
 595 0039 08       		.byte	0x8
 596 003a 68000000 		.4byte	.LASF2
 597 003e 02       		.uleb128 0x2
 598 003f 02       		.byte	0x2
 599 0040 05       		.byte	0x5
 600 0041 0D010000 		.4byte	.LASF3
 601 0045 02       		.uleb128 0x2
 602 0046 02       		.byte	0x2
 603 0047 07       		.byte	0x7
 604 0048 9D000000 		.4byte	.LASF4
 605 004c 03       		.uleb128 0x3
 606 004d 04       		.byte	0x4
 607 004e 05       		.byte	0x5
 608 004f 696E7400 		.ascii	"int\000"
 609 0053 02       		.uleb128 0x2
 610 0054 04       		.byte	0x4
 611 0055 07       		.byte	0x7
 612 0056 26010000 		.4byte	.LASF5
 613 005a 02       		.uleb128 0x2
 614 005b 08       		.byte	0x8
 615 005c 05       		.byte	0x5
 616 005d 49010000 		.4byte	.LASF6
 617 0061 02       		.uleb128 0x2
 618 0062 08       		.byte	0x8
 619 0063 07       		.byte	0x7
 620 0064 51000000 		.4byte	.LASF7
 621 0068 02       		.uleb128 0x2
 622 0069 04       		.byte	0x4
 623 006a 05       		.byte	0x5
 624 006b 95010000 		.4byte	.LASF8
 625 006f 02       		.uleb128 0x2
 626 0070 04       		.byte	0x4
 627 0071 07       		.byte	0x7
 628 0072 40010000 		.4byte	.LASF9
 629 0076 02       		.uleb128 0x2
 630 0077 04       		.byte	0x4
 631 0078 07       		.byte	0x7
 632 0079 8B000000 		.4byte	.LASF10
 633 007d 02       		.uleb128 0x2
 634 007e 01       		.byte	0x1
 635 007f 08       		.byte	0x8
 636 0080 33010000 		.4byte	.LASF11
ARM GAS  C:\Users\CNous\AppData\Local\Temp\ccG9FAtd.s 			page 15


 637 0084 02       		.uleb128 0x2
 638 0085 08       		.byte	0x8
 639 0086 04       		.byte	0x4
 640 0087 06010000 		.4byte	.LASF12
 641 008b 02       		.uleb128 0x2
 642 008c 08       		.byte	0x8
 643 008d 04       		.byte	0x4
 644 008e 9E010000 		.4byte	.LASF13
 645 0092 04       		.uleb128 0x4
 646 0093 38010000 		.4byte	.LASF29
 647 0097 02       		.byte	0x2
 648 0098 4F       		.byte	0x4f
 649 0099 68000000 		.4byte	0x68
 650 009d 05       		.uleb128 0x5
 651 009e 92000000 		.4byte	0x92
 652 00a2 06       		.uleb128 0x6
 653 00a3 01       		.byte	0x1
 654 00a4 2A000000 		.4byte	.LASF30
 655 00a8 01       		.byte	0x1
 656 00a9 46       		.byte	0x46
 657 00aa 01       		.byte	0x1
 658 00ab 29000000 		.4byte	0x29
 659 00af 01       		.byte	0x1
 660 00b0 D6000000 		.4byte	0xd6
 661 00b4 07       		.uleb128 0x7
 662 00b5 79696E00 		.ascii	"yin\000"
 663 00b9 01       		.byte	0x1
 664 00ba 46       		.byte	0x46
 665 00bb 29000000 		.4byte	0x29
 666 00bf 07       		.uleb128 0x7
 667 00c0 696E6400 		.ascii	"ind\000"
 668 00c4 01       		.byte	0x1
 669 00c5 46       		.byte	0x46
 670 00c6 4C000000 		.4byte	0x4c
 671 00ca 08       		.uleb128 0x8
 672 00cb 15000000 		.4byte	.LASF17
 673 00cf 01       		.byte	0x1
 674 00d0 48       		.byte	0x48
 675 00d1 29000000 		.4byte	0x29
 676 00d5 00       		.byte	0
 677 00d6 09       		.uleb128 0x9
 678 00d7 01       		.byte	0x1
 679 00d8 0A000000 		.4byte	.LASF31
 680 00dc 01       		.byte	0x1
 681 00dd 2E       		.byte	0x2e
 682 00de 01       		.byte	0x1
 683 00df 00000000 		.4byte	.LFB110
 684 00e3 AC000000 		.4byte	.LFE110
 685 00e7 00000000 		.4byte	.LLST0
 686 00eb 01       		.byte	0x1
 687 00ec 0A       		.uleb128 0xa
 688 00ed 01       		.byte	0x1
 689 00ee 1A000000 		.4byte	.LASF14
 690 00f2 01       		.byte	0x1
 691 00f3 3C       		.byte	0x3c
 692 00f4 01       		.byte	0x1
 693 00f5 00000000 		.4byte	.LFB111
ARM GAS  C:\Users\CNous\AppData\Local\Temp\ccG9FAtd.s 			page 16


 694 00f9 34000000 		.4byte	.LFE111
 695 00fd 02       		.byte	0x2
 696 00fe 7D       		.byte	0x7d
 697 00ff 00       		.sleb128 0
 698 0100 01       		.byte	0x1
 699 0101 14010000 		.4byte	0x114
 700 0105 0B       		.uleb128 0xb
 701 0106 25000000 		.4byte	.LASF16
 702 010a 01       		.byte	0x1
 703 010b 3C       		.byte	0x3c
 704 010c 29000000 		.4byte	0x29
 705 0110 02       		.byte	0x2
 706 0111 90       		.byte	0x90
 707 0112 40       		.uleb128 0x40
 708 0113 00       		.byte	0
 709 0114 0A       		.uleb128 0xa
 710 0115 01       		.byte	0x1
 711 0116 17010000 		.4byte	.LASF15
 712 011a 01       		.byte	0x1
 713 011b 42       		.byte	0x42
 714 011c 01       		.byte	0x1
 715 011d 00000000 		.4byte	.LFB112
 716 0121 0E000000 		.4byte	.LFE112
 717 0125 02       		.byte	0x2
 718 0126 7D       		.byte	0x7d
 719 0127 00       		.sleb128 0
 720 0128 01       		.byte	0x1
 721 0129 3C010000 		.4byte	0x13c
 722 012d 0C       		.uleb128 0xc
 723 012e 66646200 		.ascii	"fdb\000"
 724 0132 01       		.byte	0x1
 725 0133 42       		.byte	0x42
 726 0134 29000000 		.4byte	0x29
 727 0138 02       		.byte	0x2
 728 0139 90       		.byte	0x90
 729 013a 40       		.uleb128 0x40
 730 013b 00       		.byte	0
 731 013c 0D       		.uleb128 0xd
 732 013d A2000000 		.4byte	0xa2
 733 0141 00000000 		.4byte	.LFB113
 734 0145 32000000 		.4byte	.LFE113
 735 0149 02       		.byte	0x2
 736 014a 7D       		.byte	0x7d
 737 014b 00       		.sleb128 0
 738 014c 01       		.byte	0x1
 739 014d 6C010000 		.4byte	0x16c
 740 0151 0E       		.uleb128 0xe
 741 0152 B4000000 		.4byte	0xb4
 742 0156 20000000 		.4byte	.LLST1
 743 015a 0E       		.uleb128 0xe
 744 015b BF000000 		.4byte	0xbf
 745 015f 44000000 		.4byte	.LLST2
 746 0163 0F       		.uleb128 0xf
 747 0164 CA000000 		.4byte	0xca
 748 0168 02       		.byte	0x2
 749 0169 90       		.byte	0x90
 750 016a 4F       		.uleb128 0x4f
ARM GAS  C:\Users\CNous\AppData\Local\Temp\ccG9FAtd.s 			page 17


 751 016b 00       		.byte	0
 752 016c 10       		.uleb128 0x10
 753 016d 01       		.byte	0x1
 754 016e 7D000000 		.4byte	.LASF32
 755 0172 01       		.byte	0x1
 756 0173 50       		.byte	0x50
 757 0174 01       		.byte	0x1
 758 0175 29000000 		.4byte	0x29
 759 0179 00000000 		.4byte	.LFB114
 760 017d 34010000 		.4byte	.LFE114
 761 0181 65000000 		.4byte	.LLST3
 762 0185 01       		.byte	0x1
 763 0186 3C020000 		.4byte	0x23c
 764 018a 11       		.uleb128 0x11
 765 018b 78696E00 		.ascii	"xin\000"
 766 018f 01       		.byte	0x1
 767 0190 50       		.byte	0x50
 768 0191 29000000 		.4byte	0x29
 769 0195 91000000 		.4byte	.LLST4
 770 0199 12       		.uleb128 0x12
 771 019a 15000000 		.4byte	.LASF17
 772 019e 01       		.byte	0x1
 773 019f 52       		.byte	0x52
 774 01a0 29000000 		.4byte	0x29
 775 01a4 B1000000 		.4byte	.LLST5
 776 01a8 13       		.uleb128 0x13
 777 01a9 6900     		.ascii	"i\000"
 778 01ab 01       		.byte	0x1
 779 01ac 53       		.byte	0x53
 780 01ad 4C000000 		.4byte	0x4c
 781 01b1 09020000 		.4byte	.LLST6
 782 01b5 13       		.uleb128 0x13
 783 01b6 6400     		.ascii	"d\000"
 784 01b8 01       		.byte	0x1
 785 01b9 56       		.byte	0x56
 786 01ba 29000000 		.4byte	0x29
 787 01be 59020000 		.4byte	.LLST7
 788 01c2 14       		.uleb128 0x14
 789 01c3 A2000000 		.4byte	0xa2
 790 01c7 22000000 		.4byte	.LBB6
 791 01cb 00000000 		.4byte	.Ldebug_ranges0+0
 792 01cf 01       		.byte	0x1
 793 01d0 5F       		.byte	0x5f
 794 01d1 F4010000 		.4byte	0x1f4
 795 01d5 15       		.uleb128 0x15
 796 01d6 BF000000 		.4byte	0xbf
 797 01da 00       		.byte	0
 798 01db 0E       		.uleb128 0xe
 799 01dc B4000000 		.4byte	0xb4
 800 01e0 6D020000 		.4byte	.LLST8
 801 01e4 16       		.uleb128 0x16
 802 01e5 28000000 		.4byte	.Ldebug_ranges0+0x28
 803 01e9 17       		.uleb128 0x17
 804 01ea CA000000 		.4byte	0xca
 805 01ee 97020000 		.4byte	.LLST9
 806 01f2 00       		.byte	0
 807 01f3 00       		.byte	0
ARM GAS  C:\Users\CNous\AppData\Local\Temp\ccG9FAtd.s 			page 18


 808 01f4 14       		.uleb128 0x14
 809 01f5 A2000000 		.4byte	0xa2
 810 01f9 6C000000 		.4byte	.LBB12
 811 01fd 50000000 		.4byte	.Ldebug_ranges0+0x50
 812 0201 01       		.byte	0x1
 813 0202 63       		.byte	0x63
 814 0203 29020000 		.4byte	0x229
 815 0207 0E       		.uleb128 0xe
 816 0208 BF000000 		.4byte	0xbf
 817 020c CE020000 		.4byte	.LLST10
 818 0210 0E       		.uleb128 0xe
 819 0211 B4000000 		.4byte	0xb4
 820 0215 12030000 		.4byte	.LLST11
 821 0219 16       		.uleb128 0x16
 822 021a 80000000 		.4byte	.Ldebug_ranges0+0x80
 823 021e 17       		.uleb128 0x17
 824 021f CA000000 		.4byte	0xca
 825 0223 4B040000 		.4byte	.LLST12
 826 0227 00       		.byte	0
 827 0228 00       		.byte	0
 828 0229 18       		.uleb128 0x18
 829 022a 1E000000 		.4byte	.LVL8
 830 022e 37030000 		.4byte	0x337
 831 0232 19       		.uleb128 0x19
 832 0233 02       		.byte	0x2
 833 0234 90       		.byte	0x90
 834 0235 40       		.uleb128 0x40
 835 0236 03       		.byte	0x3
 836 0237 F5       		.byte	0xf5
 837 0238 52       		.uleb128 0x52
 838 0239 29       		.uleb128 0x29
 839 023a 00       		.byte	0
 840 023b 00       		.byte	0
 841 023c 1A       		.uleb128 0x1a
 842 023d 29000000 		.4byte	0x29
 843 0241 4C020000 		.4byte	0x24c
 844 0245 1B       		.uleb128 0x1b
 845 0246 6F000000 		.4byte	0x6f
 846 024a 05       		.byte	0x5
 847 024b 00       		.byte	0
 848 024c 1C       		.uleb128 0x1c
 849 024d 6F6C6400 		.ascii	"old\000"
 850 0251 01       		.byte	0x1
 851 0252 23       		.byte	0x23
 852 0253 3C020000 		.4byte	0x23c
 853 0257 05       		.byte	0x5
 854 0258 03       		.byte	0x3
 855 0259 00000000 		.4byte	old
 856 025d 1D       		.uleb128 0x1d
 857 025e B6010000 		.4byte	.LASF18
 858 0262 01       		.byte	0x1
 859 0263 24       		.byte	0x24
 860 0264 29000000 		.4byte	0x29
 861 0268 05       		.byte	0x5
 862 0269 03       		.byte	0x3
 863 026a 00000000 		.4byte	f_min
 864 026e 1D       		.uleb128 0x1d
ARM GAS  C:\Users\CNous\AppData\Local\Temp\ccG9FAtd.s 			page 19


 865 026f 5C010000 		.4byte	.LASF19
 866 0273 01       		.byte	0x1
 867 0274 24       		.byte	0x24
 868 0275 29000000 		.4byte	0x29
 869 0279 05       		.byte	0x5
 870 027a 03       		.byte	0x3
 871 027b 00000000 		.4byte	f_max
 872 027f 1D       		.uleb128 0x1d
 873 0280 76000000 		.4byte	.LASF20
 874 0284 01       		.byte	0x1
 875 0285 25       		.byte	0x25
 876 0286 29000000 		.4byte	0x29
 877 028a 05       		.byte	0x5
 878 028b 03       		.byte	0x3
 879 028c 00000000 		.4byte	swrate
 880 0290 1C       		.uleb128 0x1c
 881 0291 64727900 		.ascii	"dry\000"
 882 0295 01       		.byte	0x1
 883 0296 26       		.byte	0x26
 884 0297 29000000 		.4byte	0x29
 885 029b 05       		.byte	0x5
 886 029c 03       		.byte	0x3
 887 029d 00000000 		.4byte	dry
 888 02a1 1C       		.uleb128 0x1c
 889 02a2 77657400 		.ascii	"wet\000"
 890 02a6 01       		.byte	0x1
 891 02a7 26       		.byte	0x26
 892 02a8 29000000 		.4byte	0x29
 893 02ac 05       		.byte	0x5
 894 02ad 03       		.byte	0x3
 895 02ae 00000000 		.4byte	wet
 896 02b2 1D       		.uleb128 0x1d
 897 02b3 3D000000 		.4byte	.LASF21
 898 02b7 01       		.byte	0x1
 899 02b8 27       		.byte	0x27
 900 02b9 29000000 		.4byte	0x29
 901 02bd 05       		.byte	0x5
 902 02be 03       		.byte	0x3
 903 02bf 00000000 		.4byte	_dmin
 904 02c3 1D       		.uleb128 0x1d
 905 02c4 32000000 		.4byte	.LASF22
 906 02c8 01       		.byte	0x1
 907 02c9 27       		.byte	0x27
 908 02ca 29000000 		.4byte	0x29
 909 02ce 05       		.byte	0x5
 910 02cf 03       		.byte	0x3
 911 02d0 00000000 		.4byte	_dmax
 912 02d4 1C       		.uleb128 0x1c
 913 02d5 5F666200 		.ascii	"_fb\000"
 914 02d9 01       		.byte	0x1
 915 02da 28       		.byte	0x28
 916 02db 29000000 		.4byte	0x29
 917 02df 05       		.byte	0x5
 918 02e0 03       		.byte	0x3
 919 02e1 00000000 		.4byte	_fb
 920 02e5 1D       		.uleb128 0x1d
 921 02e6 00000000 		.4byte	.LASF23
ARM GAS  C:\Users\CNous\AppData\Local\Temp\ccG9FAtd.s 			page 20


 922 02ea 01       		.byte	0x1
 923 02eb 29       		.byte	0x29
 924 02ec 29000000 		.4byte	0x29
 925 02f0 05       		.byte	0x5
 926 02f1 03       		.byte	0x3
 927 02f2 00000000 		.4byte	_lfoPhase
 928 02f6 1D       		.uleb128 0x1d
 929 02f7 43000000 		.4byte	.LASF24
 930 02fb 01       		.byte	0x1
 931 02fc 2A       		.byte	0x2a
 932 02fd 29000000 		.4byte	0x29
 933 0301 05       		.byte	0x5
 934 0302 03       		.byte	0x3
 935 0303 00000000 		.4byte	_lfoInc
 936 0307 1C       		.uleb128 0x1c
 937 0308 5F613100 		.ascii	"_a1\000"
 938 030c 01       		.byte	0x1
 939 030d 2B       		.byte	0x2b
 940 030e 29000000 		.4byte	0x29
 941 0312 05       		.byte	0x5
 942 0313 03       		.byte	0x3
 943 0314 00000000 		.4byte	_a1
 944 0318 1D       		.uleb128 0x1d
 945 0319 57010000 		.4byte	.LASF25
 946 031d 01       		.byte	0x1
 947 031e 2C       		.byte	0x2c
 948 031f 29000000 		.4byte	0x29
 949 0323 05       		.byte	0x5
 950 0324 03       		.byte	0x3
 951 0325 00000000 		.4byte	_zm1
 952 0329 1E       		.uleb128 0x1e
 953 032a B0000000 		.4byte	.LASF33
 954 032e 03       		.byte	0x3
 955 032f 1A05     		.2byte	0x51a
 956 0331 9D000000 		.4byte	0x9d
 957 0335 01       		.byte	0x1
 958 0336 01       		.byte	0x1
 959 0337 1F       		.uleb128 0x1f
 960 0338 01       		.byte	0x1
 961 0339 38000000 		.4byte	.LASF34
 962 033d 04       		.byte	0x4
 963 033e 2401     		.2byte	0x124
 964 0340 01       		.byte	0x1
 965 0341 29000000 		.4byte	0x29
 966 0345 01       		.byte	0x1
 967 0346 20       		.uleb128 0x20
 968 0347 29000000 		.4byte	0x29
 969 034b 00       		.byte	0
 970 034c 00       		.byte	0
 971              		.section	.debug_abbrev,"",%progbits
 972              	.Ldebug_abbrev0:
 973 0000 01       		.uleb128 0x1
 974 0001 11       		.uleb128 0x11
 975 0002 01       		.byte	0x1
 976 0003 25       		.uleb128 0x25
 977 0004 0E       		.uleb128 0xe
 978 0005 13       		.uleb128 0x13
ARM GAS  C:\Users\CNous\AppData\Local\Temp\ccG9FAtd.s 			page 21


 979 0006 0B       		.uleb128 0xb
 980 0007 03       		.uleb128 0x3
 981 0008 0E       		.uleb128 0xe
 982 0009 1B       		.uleb128 0x1b
 983 000a 0E       		.uleb128 0xe
 984 000b 55       		.uleb128 0x55
 985 000c 06       		.uleb128 0x6
 986 000d 11       		.uleb128 0x11
 987 000e 01       		.uleb128 0x1
 988 000f 52       		.uleb128 0x52
 989 0010 01       		.uleb128 0x1
 990 0011 10       		.uleb128 0x10
 991 0012 06       		.uleb128 0x6
 992 0013 00       		.byte	0
 993 0014 00       		.byte	0
 994 0015 02       		.uleb128 0x2
 995 0016 24       		.uleb128 0x24
 996 0017 00       		.byte	0
 997 0018 0B       		.uleb128 0xb
 998 0019 0B       		.uleb128 0xb
 999 001a 3E       		.uleb128 0x3e
 1000 001b 0B       		.uleb128 0xb
 1001 001c 03       		.uleb128 0x3
 1002 001d 0E       		.uleb128 0xe
 1003 001e 00       		.byte	0
 1004 001f 00       		.byte	0
 1005 0020 03       		.uleb128 0x3
 1006 0021 24       		.uleb128 0x24
 1007 0022 00       		.byte	0
 1008 0023 0B       		.uleb128 0xb
 1009 0024 0B       		.uleb128 0xb
 1010 0025 3E       		.uleb128 0x3e
 1011 0026 0B       		.uleb128 0xb
 1012 0027 03       		.uleb128 0x3
 1013 0028 08       		.uleb128 0x8
 1014 0029 00       		.byte	0
 1015 002a 00       		.byte	0
 1016 002b 04       		.uleb128 0x4
 1017 002c 16       		.uleb128 0x16
 1018 002d 00       		.byte	0
 1019 002e 03       		.uleb128 0x3
 1020 002f 0E       		.uleb128 0xe
 1021 0030 3A       		.uleb128 0x3a
 1022 0031 0B       		.uleb128 0xb
 1023 0032 3B       		.uleb128 0x3b
 1024 0033 0B       		.uleb128 0xb
 1025 0034 49       		.uleb128 0x49
 1026 0035 13       		.uleb128 0x13
 1027 0036 00       		.byte	0
 1028 0037 00       		.byte	0
 1029 0038 05       		.uleb128 0x5
 1030 0039 35       		.uleb128 0x35
 1031 003a 00       		.byte	0
 1032 003b 49       		.uleb128 0x49
 1033 003c 13       		.uleb128 0x13
 1034 003d 00       		.byte	0
 1035 003e 00       		.byte	0
ARM GAS  C:\Users\CNous\AppData\Local\Temp\ccG9FAtd.s 			page 22


 1036 003f 06       		.uleb128 0x6
 1037 0040 2E       		.uleb128 0x2e
 1038 0041 01       		.byte	0x1
 1039 0042 3F       		.uleb128 0x3f
 1040 0043 0C       		.uleb128 0xc
 1041 0044 03       		.uleb128 0x3
 1042 0045 0E       		.uleb128 0xe
 1043 0046 3A       		.uleb128 0x3a
 1044 0047 0B       		.uleb128 0xb
 1045 0048 3B       		.uleb128 0x3b
 1046 0049 0B       		.uleb128 0xb
 1047 004a 27       		.uleb128 0x27
 1048 004b 0C       		.uleb128 0xc
 1049 004c 49       		.uleb128 0x49
 1050 004d 13       		.uleb128 0x13
 1051 004e 20       		.uleb128 0x20
 1052 004f 0B       		.uleb128 0xb
 1053 0050 01       		.uleb128 0x1
 1054 0051 13       		.uleb128 0x13
 1055 0052 00       		.byte	0
 1056 0053 00       		.byte	0
 1057 0054 07       		.uleb128 0x7
 1058 0055 05       		.uleb128 0x5
 1059 0056 00       		.byte	0
 1060 0057 03       		.uleb128 0x3
 1061 0058 08       		.uleb128 0x8
 1062 0059 3A       		.uleb128 0x3a
 1063 005a 0B       		.uleb128 0xb
 1064 005b 3B       		.uleb128 0x3b
 1065 005c 0B       		.uleb128 0xb
 1066 005d 49       		.uleb128 0x49
 1067 005e 13       		.uleb128 0x13
 1068 005f 00       		.byte	0
 1069 0060 00       		.byte	0
 1070 0061 08       		.uleb128 0x8
 1071 0062 34       		.uleb128 0x34
 1072 0063 00       		.byte	0
 1073 0064 03       		.uleb128 0x3
 1074 0065 0E       		.uleb128 0xe
 1075 0066 3A       		.uleb128 0x3a
 1076 0067 0B       		.uleb128 0xb
 1077 0068 3B       		.uleb128 0x3b
 1078 0069 0B       		.uleb128 0xb
 1079 006a 49       		.uleb128 0x49
 1080 006b 13       		.uleb128 0x13
 1081 006c 00       		.byte	0
 1082 006d 00       		.byte	0
 1083 006e 09       		.uleb128 0x9
 1084 006f 2E       		.uleb128 0x2e
 1085 0070 00       		.byte	0
 1086 0071 3F       		.uleb128 0x3f
 1087 0072 0C       		.uleb128 0xc
 1088 0073 03       		.uleb128 0x3
 1089 0074 0E       		.uleb128 0xe
 1090 0075 3A       		.uleb128 0x3a
 1091 0076 0B       		.uleb128 0xb
 1092 0077 3B       		.uleb128 0x3b
ARM GAS  C:\Users\CNous\AppData\Local\Temp\ccG9FAtd.s 			page 23


 1093 0078 0B       		.uleb128 0xb
 1094 0079 27       		.uleb128 0x27
 1095 007a 0C       		.uleb128 0xc
 1096 007b 11       		.uleb128 0x11
 1097 007c 01       		.uleb128 0x1
 1098 007d 12       		.uleb128 0x12
 1099 007e 01       		.uleb128 0x1
 1100 007f 40       		.uleb128 0x40
 1101 0080 06       		.uleb128 0x6
 1102 0081 9742     		.uleb128 0x2117
 1103 0083 0C       		.uleb128 0xc
 1104 0084 00       		.byte	0
 1105 0085 00       		.byte	0
 1106 0086 0A       		.uleb128 0xa
 1107 0087 2E       		.uleb128 0x2e
 1108 0088 01       		.byte	0x1
 1109 0089 3F       		.uleb128 0x3f
 1110 008a 0C       		.uleb128 0xc
 1111 008b 03       		.uleb128 0x3
 1112 008c 0E       		.uleb128 0xe
 1113 008d 3A       		.uleb128 0x3a
 1114 008e 0B       		.uleb128 0xb
 1115 008f 3B       		.uleb128 0x3b
 1116 0090 0B       		.uleb128 0xb
 1117 0091 27       		.uleb128 0x27
 1118 0092 0C       		.uleb128 0xc
 1119 0093 11       		.uleb128 0x11
 1120 0094 01       		.uleb128 0x1
 1121 0095 12       		.uleb128 0x12
 1122 0096 01       		.uleb128 0x1
 1123 0097 40       		.uleb128 0x40
 1124 0098 0A       		.uleb128 0xa
 1125 0099 9742     		.uleb128 0x2117
 1126 009b 0C       		.uleb128 0xc
 1127 009c 01       		.uleb128 0x1
 1128 009d 13       		.uleb128 0x13
 1129 009e 00       		.byte	0
 1130 009f 00       		.byte	0
 1131 00a0 0B       		.uleb128 0xb
 1132 00a1 05       		.uleb128 0x5
 1133 00a2 00       		.byte	0
 1134 00a3 03       		.uleb128 0x3
 1135 00a4 0E       		.uleb128 0xe
 1136 00a5 3A       		.uleb128 0x3a
 1137 00a6 0B       		.uleb128 0xb
 1138 00a7 3B       		.uleb128 0x3b
 1139 00a8 0B       		.uleb128 0xb
 1140 00a9 49       		.uleb128 0x49
 1141 00aa 13       		.uleb128 0x13
 1142 00ab 02       		.uleb128 0x2
 1143 00ac 0A       		.uleb128 0xa
 1144 00ad 00       		.byte	0
 1145 00ae 00       		.byte	0
 1146 00af 0C       		.uleb128 0xc
 1147 00b0 05       		.uleb128 0x5
 1148 00b1 00       		.byte	0
 1149 00b2 03       		.uleb128 0x3
ARM GAS  C:\Users\CNous\AppData\Local\Temp\ccG9FAtd.s 			page 24


 1150 00b3 08       		.uleb128 0x8
 1151 00b4 3A       		.uleb128 0x3a
 1152 00b5 0B       		.uleb128 0xb
 1153 00b6 3B       		.uleb128 0x3b
 1154 00b7 0B       		.uleb128 0xb
 1155 00b8 49       		.uleb128 0x49
 1156 00b9 13       		.uleb128 0x13
 1157 00ba 02       		.uleb128 0x2
 1158 00bb 0A       		.uleb128 0xa
 1159 00bc 00       		.byte	0
 1160 00bd 00       		.byte	0
 1161 00be 0D       		.uleb128 0xd
 1162 00bf 2E       		.uleb128 0x2e
 1163 00c0 01       		.byte	0x1
 1164 00c1 31       		.uleb128 0x31
 1165 00c2 13       		.uleb128 0x13
 1166 00c3 11       		.uleb128 0x11
 1167 00c4 01       		.uleb128 0x1
 1168 00c5 12       		.uleb128 0x12
 1169 00c6 01       		.uleb128 0x1
 1170 00c7 40       		.uleb128 0x40
 1171 00c8 0A       		.uleb128 0xa
 1172 00c9 9742     		.uleb128 0x2117
 1173 00cb 0C       		.uleb128 0xc
 1174 00cc 01       		.uleb128 0x1
 1175 00cd 13       		.uleb128 0x13
 1176 00ce 00       		.byte	0
 1177 00cf 00       		.byte	0
 1178 00d0 0E       		.uleb128 0xe
 1179 00d1 05       		.uleb128 0x5
 1180 00d2 00       		.byte	0
 1181 00d3 31       		.uleb128 0x31
 1182 00d4 13       		.uleb128 0x13
 1183 00d5 02       		.uleb128 0x2
 1184 00d6 06       		.uleb128 0x6
 1185 00d7 00       		.byte	0
 1186 00d8 00       		.byte	0
 1187 00d9 0F       		.uleb128 0xf
 1188 00da 34       		.uleb128 0x34
 1189 00db 00       		.byte	0
 1190 00dc 31       		.uleb128 0x31
 1191 00dd 13       		.uleb128 0x13
 1192 00de 02       		.uleb128 0x2
 1193 00df 0A       		.uleb128 0xa
 1194 00e0 00       		.byte	0
 1195 00e1 00       		.byte	0
 1196 00e2 10       		.uleb128 0x10
 1197 00e3 2E       		.uleb128 0x2e
 1198 00e4 01       		.byte	0x1
 1199 00e5 3F       		.uleb128 0x3f
 1200 00e6 0C       		.uleb128 0xc
 1201 00e7 03       		.uleb128 0x3
 1202 00e8 0E       		.uleb128 0xe
 1203 00e9 3A       		.uleb128 0x3a
 1204 00ea 0B       		.uleb128 0xb
 1205 00eb 3B       		.uleb128 0x3b
 1206 00ec 0B       		.uleb128 0xb
ARM GAS  C:\Users\CNous\AppData\Local\Temp\ccG9FAtd.s 			page 25


 1207 00ed 27       		.uleb128 0x27
 1208 00ee 0C       		.uleb128 0xc
 1209 00ef 49       		.uleb128 0x49
 1210 00f0 13       		.uleb128 0x13
 1211 00f1 11       		.uleb128 0x11
 1212 00f2 01       		.uleb128 0x1
 1213 00f3 12       		.uleb128 0x12
 1214 00f4 01       		.uleb128 0x1
 1215 00f5 40       		.uleb128 0x40
 1216 00f6 06       		.uleb128 0x6
 1217 00f7 9742     		.uleb128 0x2117
 1218 00f9 0C       		.uleb128 0xc
 1219 00fa 01       		.uleb128 0x1
 1220 00fb 13       		.uleb128 0x13
 1221 00fc 00       		.byte	0
 1222 00fd 00       		.byte	0
 1223 00fe 11       		.uleb128 0x11
 1224 00ff 05       		.uleb128 0x5
 1225 0100 00       		.byte	0
 1226 0101 03       		.uleb128 0x3
 1227 0102 08       		.uleb128 0x8
 1228 0103 3A       		.uleb128 0x3a
 1229 0104 0B       		.uleb128 0xb
 1230 0105 3B       		.uleb128 0x3b
 1231 0106 0B       		.uleb128 0xb
 1232 0107 49       		.uleb128 0x49
 1233 0108 13       		.uleb128 0x13
 1234 0109 02       		.uleb128 0x2
 1235 010a 06       		.uleb128 0x6
 1236 010b 00       		.byte	0
 1237 010c 00       		.byte	0
 1238 010d 12       		.uleb128 0x12
 1239 010e 34       		.uleb128 0x34
 1240 010f 00       		.byte	0
 1241 0110 03       		.uleb128 0x3
 1242 0111 0E       		.uleb128 0xe
 1243 0112 3A       		.uleb128 0x3a
 1244 0113 0B       		.uleb128 0xb
 1245 0114 3B       		.uleb128 0x3b
 1246 0115 0B       		.uleb128 0xb
 1247 0116 49       		.uleb128 0x49
 1248 0117 13       		.uleb128 0x13
 1249 0118 02       		.uleb128 0x2
 1250 0119 06       		.uleb128 0x6
 1251 011a 00       		.byte	0
 1252 011b 00       		.byte	0
 1253 011c 13       		.uleb128 0x13
 1254 011d 34       		.uleb128 0x34
 1255 011e 00       		.byte	0
 1256 011f 03       		.uleb128 0x3
 1257 0120 08       		.uleb128 0x8
 1258 0121 3A       		.uleb128 0x3a
 1259 0122 0B       		.uleb128 0xb
 1260 0123 3B       		.uleb128 0x3b
 1261 0124 0B       		.uleb128 0xb
 1262 0125 49       		.uleb128 0x49
 1263 0126 13       		.uleb128 0x13
ARM GAS  C:\Users\CNous\AppData\Local\Temp\ccG9FAtd.s 			page 26


 1264 0127 02       		.uleb128 0x2
 1265 0128 06       		.uleb128 0x6
 1266 0129 00       		.byte	0
 1267 012a 00       		.byte	0
 1268 012b 14       		.uleb128 0x14
 1269 012c 1D       		.uleb128 0x1d
 1270 012d 01       		.byte	0x1
 1271 012e 31       		.uleb128 0x31
 1272 012f 13       		.uleb128 0x13
 1273 0130 52       		.uleb128 0x52
 1274 0131 01       		.uleb128 0x1
 1275 0132 55       		.uleb128 0x55
 1276 0133 06       		.uleb128 0x6
 1277 0134 58       		.uleb128 0x58
 1278 0135 0B       		.uleb128 0xb
 1279 0136 59       		.uleb128 0x59
 1280 0137 0B       		.uleb128 0xb
 1281 0138 01       		.uleb128 0x1
 1282 0139 13       		.uleb128 0x13
 1283 013a 00       		.byte	0
 1284 013b 00       		.byte	0
 1285 013c 15       		.uleb128 0x15
 1286 013d 05       		.uleb128 0x5
 1287 013e 00       		.byte	0
 1288 013f 31       		.uleb128 0x31
 1289 0140 13       		.uleb128 0x13
 1290 0141 1C       		.uleb128 0x1c
 1291 0142 0B       		.uleb128 0xb
 1292 0143 00       		.byte	0
 1293 0144 00       		.byte	0
 1294 0145 16       		.uleb128 0x16
 1295 0146 0B       		.uleb128 0xb
 1296 0147 01       		.byte	0x1
 1297 0148 55       		.uleb128 0x55
 1298 0149 06       		.uleb128 0x6
 1299 014a 00       		.byte	0
 1300 014b 00       		.byte	0
 1301 014c 17       		.uleb128 0x17
 1302 014d 34       		.uleb128 0x34
 1303 014e 00       		.byte	0
 1304 014f 31       		.uleb128 0x31
 1305 0150 13       		.uleb128 0x13
 1306 0151 02       		.uleb128 0x2
 1307 0152 06       		.uleb128 0x6
 1308 0153 00       		.byte	0
 1309 0154 00       		.byte	0
 1310 0155 18       		.uleb128 0x18
 1311 0156 898201   		.uleb128 0x4109
 1312 0159 01       		.byte	0x1
 1313 015a 11       		.uleb128 0x11
 1314 015b 01       		.uleb128 0x1
 1315 015c 31       		.uleb128 0x31
 1316 015d 13       		.uleb128 0x13
 1317 015e 00       		.byte	0
 1318 015f 00       		.byte	0
 1319 0160 19       		.uleb128 0x19
 1320 0161 8A8201   		.uleb128 0x410a
ARM GAS  C:\Users\CNous\AppData\Local\Temp\ccG9FAtd.s 			page 27


 1321 0164 00       		.byte	0
 1322 0165 02       		.uleb128 0x2
 1323 0166 0A       		.uleb128 0xa
 1324 0167 9142     		.uleb128 0x2111
 1325 0169 0A       		.uleb128 0xa
 1326 016a 00       		.byte	0
 1327 016b 00       		.byte	0
 1328 016c 1A       		.uleb128 0x1a
 1329 016d 01       		.uleb128 0x1
 1330 016e 01       		.byte	0x1
 1331 016f 49       		.uleb128 0x49
 1332 0170 13       		.uleb128 0x13
 1333 0171 01       		.uleb128 0x1
 1334 0172 13       		.uleb128 0x13
 1335 0173 00       		.byte	0
 1336 0174 00       		.byte	0
 1337 0175 1B       		.uleb128 0x1b
 1338 0176 21       		.uleb128 0x21
 1339 0177 00       		.byte	0
 1340 0178 49       		.uleb128 0x49
 1341 0179 13       		.uleb128 0x13
 1342 017a 2F       		.uleb128 0x2f
 1343 017b 0B       		.uleb128 0xb
 1344 017c 00       		.byte	0
 1345 017d 00       		.byte	0
 1346 017e 1C       		.uleb128 0x1c
 1347 017f 34       		.uleb128 0x34
 1348 0180 00       		.byte	0
 1349 0181 03       		.uleb128 0x3
 1350 0182 08       		.uleb128 0x8
 1351 0183 3A       		.uleb128 0x3a
 1352 0184 0B       		.uleb128 0xb
 1353 0185 3B       		.uleb128 0x3b
 1354 0186 0B       		.uleb128 0xb
 1355 0187 49       		.uleb128 0x49
 1356 0188 13       		.uleb128 0x13
 1357 0189 02       		.uleb128 0x2
 1358 018a 0A       		.uleb128 0xa
 1359 018b 00       		.byte	0
 1360 018c 00       		.byte	0
 1361 018d 1D       		.uleb128 0x1d
 1362 018e 34       		.uleb128 0x34
 1363 018f 00       		.byte	0
 1364 0190 03       		.uleb128 0x3
 1365 0191 0E       		.uleb128 0xe
 1366 0192 3A       		.uleb128 0x3a
 1367 0193 0B       		.uleb128 0xb
 1368 0194 3B       		.uleb128 0x3b
 1369 0195 0B       		.uleb128 0xb
 1370 0196 49       		.uleb128 0x49
 1371 0197 13       		.uleb128 0x13
 1372 0198 02       		.uleb128 0x2
 1373 0199 0A       		.uleb128 0xa
 1374 019a 00       		.byte	0
 1375 019b 00       		.byte	0
 1376 019c 1E       		.uleb128 0x1e
 1377 019d 34       		.uleb128 0x34
ARM GAS  C:\Users\CNous\AppData\Local\Temp\ccG9FAtd.s 			page 28


 1378 019e 00       		.byte	0
 1379 019f 03       		.uleb128 0x3
 1380 01a0 0E       		.uleb128 0xe
 1381 01a1 3A       		.uleb128 0x3a
 1382 01a2 0B       		.uleb128 0xb
 1383 01a3 3B       		.uleb128 0x3b
 1384 01a4 05       		.uleb128 0x5
 1385 01a5 49       		.uleb128 0x49
 1386 01a6 13       		.uleb128 0x13
 1387 01a7 3F       		.uleb128 0x3f
 1388 01a8 0C       		.uleb128 0xc
 1389 01a9 3C       		.uleb128 0x3c
 1390 01aa 0C       		.uleb128 0xc
 1391 01ab 00       		.byte	0
 1392 01ac 00       		.byte	0
 1393 01ad 1F       		.uleb128 0x1f
 1394 01ae 2E       		.uleb128 0x2e
 1395 01af 01       		.byte	0x1
 1396 01b0 3F       		.uleb128 0x3f
 1397 01b1 0C       		.uleb128 0xc
 1398 01b2 03       		.uleb128 0x3
 1399 01b3 0E       		.uleb128 0xe
 1400 01b4 3A       		.uleb128 0x3a
 1401 01b5 0B       		.uleb128 0xb
 1402 01b6 3B       		.uleb128 0x3b
 1403 01b7 05       		.uleb128 0x5
 1404 01b8 27       		.uleb128 0x27
 1405 01b9 0C       		.uleb128 0xc
 1406 01ba 49       		.uleb128 0x49
 1407 01bb 13       		.uleb128 0x13
 1408 01bc 3C       		.uleb128 0x3c
 1409 01bd 0C       		.uleb128 0xc
 1410 01be 00       		.byte	0
 1411 01bf 00       		.byte	0
 1412 01c0 20       		.uleb128 0x20
 1413 01c1 05       		.uleb128 0x5
 1414 01c2 00       		.byte	0
 1415 01c3 49       		.uleb128 0x49
 1416 01c4 13       		.uleb128 0x13
 1417 01c5 00       		.byte	0
 1418 01c6 00       		.byte	0
 1419 01c7 00       		.byte	0
 1420              		.section	.debug_loc,"",%progbits
 1421              	.Ldebug_loc0:
 1422              	.LLST0:
 1423 0000 00000000 		.4byte	.LFB110
 1424 0004 04000000 		.4byte	.LCFI0
 1425 0008 0200     		.2byte	0x2
 1426 000a 7D       		.byte	0x7d
 1427 000b 00       		.sleb128 0
 1428 000c 04000000 		.4byte	.LCFI0
 1429 0010 AC000000 		.4byte	.LFE110
 1430 0014 0200     		.2byte	0x2
 1431 0016 7D       		.byte	0x7d
 1432 0017 18       		.sleb128 24
 1433 0018 00000000 		.4byte	0
 1434 001c 00000000 		.4byte	0
ARM GAS  C:\Users\CNous\AppData\Local\Temp\ccG9FAtd.s 			page 29


 1435              	.LLST1:
 1436 0020 00000000 		.4byte	.LVL2
 1437 0024 24000000 		.4byte	.LVL5
 1438 0028 0200     		.2byte	0x2
 1439 002a 90       		.byte	0x90
 1440 002b 40       		.uleb128 0x40
 1441 002c 24000000 		.4byte	.LVL5
 1442 0030 32000000 		.4byte	.LFE113
 1443 0034 0600     		.2byte	0x6
 1444 0036 F3       		.byte	0xf3
 1445 0037 03       		.uleb128 0x3
 1446 0038 F5       		.byte	0xf5
 1447 0039 40       		.uleb128 0x40
 1448 003a 29       		.uleb128 0x29
 1449 003b 9F       		.byte	0x9f
 1450 003c 00000000 		.4byte	0
 1451 0040 00000000 		.4byte	0
 1452              	.LLST2:
 1453 0044 00000000 		.4byte	.LVL2
 1454 0048 10000000 		.4byte	.LVL3
 1455 004c 0100     		.2byte	0x1
 1456 004e 50       		.byte	0x50
 1457 004f 10000000 		.4byte	.LVL3
 1458 0053 32000000 		.4byte	.LFE113
 1459 0057 0400     		.2byte	0x4
 1460 0059 F3       		.byte	0xf3
 1461 005a 01       		.uleb128 0x1
 1462 005b 50       		.byte	0x50
 1463 005c 9F       		.byte	0x9f
 1464 005d 00000000 		.4byte	0
 1465 0061 00000000 		.4byte	0
 1466              	.LLST3:
 1467 0065 00000000 		.4byte	.LFB114
 1468 0069 02000000 		.4byte	.LCFI1
 1469 006d 0200     		.2byte	0x2
 1470 006f 7D       		.byte	0x7d
 1471 0070 00       		.sleb128 0
 1472 0071 02000000 		.4byte	.LCFI1
 1473 0075 0A000000 		.4byte	.LCFI2
 1474 0079 0200     		.2byte	0x2
 1475 007b 7D       		.byte	0x7d
 1476 007c 08       		.sleb128 8
 1477 007d 0A000000 		.4byte	.LCFI2
 1478 0081 34010000 		.4byte	.LFE114
 1479 0085 0200     		.2byte	0x2
 1480 0087 7D       		.byte	0x7d
 1481 0088 18       		.sleb128 24
 1482 0089 00000000 		.4byte	0
 1483 008d 00000000 		.4byte	0
 1484              	.LLST4:
 1485 0091 00000000 		.4byte	.LVL6
 1486 0095 16000000 		.4byte	.LVL7
 1487 0099 0200     		.2byte	0x2
 1488 009b 90       		.byte	0x90
 1489 009c 40       		.uleb128 0x40
 1490 009d 16000000 		.4byte	.LVL7
 1491 00a1 34010000 		.4byte	.LFE114
ARM GAS  C:\Users\CNous\AppData\Local\Temp\ccG9FAtd.s 			page 30


 1492 00a5 0200     		.2byte	0x2
 1493 00a7 90       		.byte	0x90
 1494 00a8 50       		.uleb128 0x50
 1495 00a9 00000000 		.4byte	0
 1496 00ad 00000000 		.4byte	0
 1497              	.LLST5:
 1498 00b1 E4000000 		.4byte	.LVL15
 1499 00b5 E8000000 		.4byte	.LVL16
 1500 00b9 1900     		.2byte	0x19
 1501 00bb 03       		.byte	0x3
 1502 00bc 00000000 		.4byte	old
 1503 00c0 F6       		.byte	0xf6
 1504 00c1 04       		.byte	0x4
 1505 00c2 29       		.uleb128 0x29
 1506 00c3 F5       		.byte	0xf5
 1507 00c4 47       		.uleb128 0x47
 1508 00c5 29       		.uleb128 0x29
 1509 00c6 F5       		.byte	0xf5
 1510 00c7 49       		.uleb128 0x49
 1511 00c8 29       		.uleb128 0x29
 1512 00c9 1E       		.byte	0x1e
 1513 00ca F5       		.byte	0xf5
 1514 00cb 50       		.uleb128 0x50
 1515 00cc 29       		.uleb128 0x29
 1516 00cd 22       		.byte	0x22
 1517 00ce F5       		.byte	0xf5
 1518 00cf 46       		.uleb128 0x46
 1519 00d0 29       		.uleb128 0x29
 1520 00d1 1E       		.byte	0x1e
 1521 00d2 1C       		.byte	0x1c
 1522 00d3 9F       		.byte	0x9f
 1523 00d4 E8000000 		.4byte	.LVL16
 1524 00d8 EC000000 		.4byte	.LVL17
 1525 00dc 2600     		.2byte	0x26
 1526 00de 03       		.byte	0x3
 1527 00df 04000000 		.4byte	old+4
 1528 00e3 F6       		.byte	0xf6
 1529 00e4 04       		.byte	0x4
 1530 00e5 29       		.uleb128 0x29
 1531 00e6 03       		.byte	0x3
 1532 00e7 00000000 		.4byte	old
 1533 00eb F6       		.byte	0xf6
 1534 00ec 04       		.byte	0x4
 1535 00ed 29       		.uleb128 0x29
 1536 00ee F5       		.byte	0xf5
 1537 00ef 47       		.uleb128 0x47
 1538 00f0 29       		.uleb128 0x29
 1539 00f1 F5       		.byte	0xf5
 1540 00f2 49       		.uleb128 0x49
 1541 00f3 29       		.uleb128 0x29
 1542 00f4 1E       		.byte	0x1e
 1543 00f5 F5       		.byte	0xf5
 1544 00f6 50       		.uleb128 0x50
 1545 00f7 29       		.uleb128 0x29
 1546 00f8 22       		.byte	0x22
 1547 00f9 F5       		.byte	0xf5
 1548 00fa 46       		.uleb128 0x46
ARM GAS  C:\Users\CNous\AppData\Local\Temp\ccG9FAtd.s 			page 31


 1549 00fb 29       		.uleb128 0x29
 1550 00fc 1E       		.byte	0x1e
 1551 00fd 1C       		.byte	0x1c
 1552 00fe F5       		.byte	0xf5
 1553 00ff 46       		.uleb128 0x46
 1554 0100 29       		.uleb128 0x29
 1555 0101 1E       		.byte	0x1e
 1556 0102 1C       		.byte	0x1c
 1557 0103 9F       		.byte	0x9f
 1558 0104 EC000000 		.4byte	.LVL17
 1559 0108 F0000000 		.4byte	.LVL18
 1560 010c 3300     		.2byte	0x33
 1561 010e 03       		.byte	0x3
 1562 010f 08000000 		.4byte	old+8
 1563 0113 F6       		.byte	0xf6
 1564 0114 04       		.byte	0x4
 1565 0115 29       		.uleb128 0x29
 1566 0116 03       		.byte	0x3
 1567 0117 04000000 		.4byte	old+4
 1568 011b F6       		.byte	0xf6
 1569 011c 04       		.byte	0x4
 1570 011d 29       		.uleb128 0x29
 1571 011e 03       		.byte	0x3
 1572 011f 00000000 		.4byte	old
 1573 0123 F6       		.byte	0xf6
 1574 0124 04       		.byte	0x4
 1575 0125 29       		.uleb128 0x29
 1576 0126 F5       		.byte	0xf5
 1577 0127 47       		.uleb128 0x47
 1578 0128 29       		.uleb128 0x29
 1579 0129 F5       		.byte	0xf5
 1580 012a 49       		.uleb128 0x49
 1581 012b 29       		.uleb128 0x29
 1582 012c 1E       		.byte	0x1e
 1583 012d F5       		.byte	0xf5
 1584 012e 50       		.uleb128 0x50
 1585 012f 29       		.uleb128 0x29
 1586 0130 22       		.byte	0x22
 1587 0131 F5       		.byte	0xf5
 1588 0132 46       		.uleb128 0x46
 1589 0133 29       		.uleb128 0x29
 1590 0134 1E       		.byte	0x1e
 1591 0135 1C       		.byte	0x1c
 1592 0136 F5       		.byte	0xf5
 1593 0137 46       		.uleb128 0x46
 1594 0138 29       		.uleb128 0x29
 1595 0139 1E       		.byte	0x1e
 1596 013a 1C       		.byte	0x1c
 1597 013b F5       		.byte	0xf5
 1598 013c 46       		.uleb128 0x46
 1599 013d 29       		.uleb128 0x29
 1600 013e 1E       		.byte	0x1e
 1601 013f 1C       		.byte	0x1c
 1602 0140 9F       		.byte	0x9f
 1603 0141 F0000000 		.4byte	.LVL18
 1604 0145 F4000000 		.4byte	.LVL19
 1605 0149 4000     		.2byte	0x40
ARM GAS  C:\Users\CNous\AppData\Local\Temp\ccG9FAtd.s 			page 32


 1606 014b 03       		.byte	0x3
 1607 014c 0C000000 		.4byte	old+12
 1608 0150 F6       		.byte	0xf6
 1609 0151 04       		.byte	0x4
 1610 0152 29       		.uleb128 0x29
 1611 0153 03       		.byte	0x3
 1612 0154 08000000 		.4byte	old+8
 1613 0158 F6       		.byte	0xf6
 1614 0159 04       		.byte	0x4
 1615 015a 29       		.uleb128 0x29
 1616 015b 03       		.byte	0x3
 1617 015c 04000000 		.4byte	old+4
 1618 0160 F6       		.byte	0xf6
 1619 0161 04       		.byte	0x4
 1620 0162 29       		.uleb128 0x29
 1621 0163 03       		.byte	0x3
 1622 0164 00000000 		.4byte	old
 1623 0168 F6       		.byte	0xf6
 1624 0169 04       		.byte	0x4
 1625 016a 29       		.uleb128 0x29
 1626 016b F5       		.byte	0xf5
 1627 016c 47       		.uleb128 0x47
 1628 016d 29       		.uleb128 0x29
 1629 016e F5       		.byte	0xf5
 1630 016f 49       		.uleb128 0x49
 1631 0170 29       		.uleb128 0x29
 1632 0171 1E       		.byte	0x1e
 1633 0172 F5       		.byte	0xf5
 1634 0173 50       		.uleb128 0x50
 1635 0174 29       		.uleb128 0x29
 1636 0175 22       		.byte	0x22
 1637 0176 F5       		.byte	0xf5
 1638 0177 46       		.uleb128 0x46
 1639 0178 29       		.uleb128 0x29
 1640 0179 1E       		.byte	0x1e
 1641 017a 1C       		.byte	0x1c
 1642 017b F5       		.byte	0xf5
 1643 017c 46       		.uleb128 0x46
 1644 017d 29       		.uleb128 0x29
 1645 017e 1E       		.byte	0x1e
 1646 017f 1C       		.byte	0x1c
 1647 0180 F5       		.byte	0xf5
 1648 0181 46       		.uleb128 0x46
 1649 0182 29       		.uleb128 0x29
 1650 0183 1E       		.byte	0x1e
 1651 0184 1C       		.byte	0x1c
 1652 0185 F5       		.byte	0xf5
 1653 0186 46       		.uleb128 0x46
 1654 0187 29       		.uleb128 0x29
 1655 0188 1E       		.byte	0x1e
 1656 0189 1C       		.byte	0x1c
 1657 018a 9F       		.byte	0x9f
 1658 018b F4000000 		.4byte	.LVL19
 1659 018f F8000000 		.4byte	.LVL20
 1660 0193 4D00     		.2byte	0x4d
 1661 0195 03       		.byte	0x3
 1662 0196 10000000 		.4byte	old+16
ARM GAS  C:\Users\CNous\AppData\Local\Temp\ccG9FAtd.s 			page 33


 1663 019a F6       		.byte	0xf6
 1664 019b 04       		.byte	0x4
 1665 019c 29       		.uleb128 0x29
 1666 019d 03       		.byte	0x3
 1667 019e 0C000000 		.4byte	old+12
 1668 01a2 F6       		.byte	0xf6
 1669 01a3 04       		.byte	0x4
 1670 01a4 29       		.uleb128 0x29
 1671 01a5 03       		.byte	0x3
 1672 01a6 08000000 		.4byte	old+8
 1673 01aa F6       		.byte	0xf6
 1674 01ab 04       		.byte	0x4
 1675 01ac 29       		.uleb128 0x29
 1676 01ad 03       		.byte	0x3
 1677 01ae 04000000 		.4byte	old+4
 1678 01b2 F6       		.byte	0xf6
 1679 01b3 04       		.byte	0x4
 1680 01b4 29       		.uleb128 0x29
 1681 01b5 03       		.byte	0x3
 1682 01b6 00000000 		.4byte	old
 1683 01ba F6       		.byte	0xf6
 1684 01bb 04       		.byte	0x4
 1685 01bc 29       		.uleb128 0x29
 1686 01bd F5       		.byte	0xf5
 1687 01be 47       		.uleb128 0x47
 1688 01bf 29       		.uleb128 0x29
 1689 01c0 F5       		.byte	0xf5
 1690 01c1 49       		.uleb128 0x49
 1691 01c2 29       		.uleb128 0x29
 1692 01c3 1E       		.byte	0x1e
 1693 01c4 F5       		.byte	0xf5
 1694 01c5 50       		.uleb128 0x50
 1695 01c6 29       		.uleb128 0x29
 1696 01c7 22       		.byte	0x22
 1697 01c8 F5       		.byte	0xf5
 1698 01c9 46       		.uleb128 0x46
 1699 01ca 29       		.uleb128 0x29
 1700 01cb 1E       		.byte	0x1e
 1701 01cc 1C       		.byte	0x1c
 1702 01cd F5       		.byte	0xf5
 1703 01ce 46       		.uleb128 0x46
 1704 01cf 29       		.uleb128 0x29
 1705 01d0 1E       		.byte	0x1e
 1706 01d1 1C       		.byte	0x1c
 1707 01d2 F5       		.byte	0xf5
 1708 01d3 46       		.uleb128 0x46
 1709 01d4 29       		.uleb128 0x29
 1710 01d5 1E       		.byte	0x1e
 1711 01d6 1C       		.byte	0x1c
 1712 01d7 F5       		.byte	0xf5
 1713 01d8 46       		.uleb128 0x46
 1714 01d9 29       		.uleb128 0x29
 1715 01da 1E       		.byte	0x1e
 1716 01db 1C       		.byte	0x1c
 1717 01dc F5       		.byte	0xf5
 1718 01dd 46       		.uleb128 0x46
 1719 01de 29       		.uleb128 0x29
ARM GAS  C:\Users\CNous\AppData\Local\Temp\ccG9FAtd.s 			page 34


 1720 01df 1E       		.byte	0x1e
 1721 01e0 1C       		.byte	0x1c
 1722 01e1 9F       		.byte	0x9f
 1723 01e2 F8000000 		.4byte	.LVL20
 1724 01e6 34010000 		.4byte	.LFE114
 1725 01ea 1500     		.2byte	0x15
 1726 01ec 03       		.byte	0x3
 1727 01ed 00000000 		.4byte	dry
 1728 01f1 F6       		.byte	0xf6
 1729 01f2 04       		.byte	0x4
 1730 01f3 29       		.uleb128 0x29
 1731 01f4 F5       		.byte	0xf5
 1732 01f5 50       		.uleb128 0x50
 1733 01f6 29       		.uleb128 0x29
 1734 01f7 1E       		.byte	0x1e
 1735 01f8 F5       		.byte	0xf5
 1736 01f9 4E       		.uleb128 0x4e
 1737 01fa 29       		.uleb128 0x29
 1738 01fb F5       		.byte	0xf5
 1739 01fc 41       		.uleb128 0x41
 1740 01fd 29       		.uleb128 0x29
 1741 01fe 1E       		.byte	0x1e
 1742 01ff 22       		.byte	0x22
 1743 0200 9F       		.byte	0x9f
 1744 0201 00000000 		.4byte	0
 1745 0205 00000000 		.4byte	0
 1746              	.LLST6:
 1747 0209 E4000000 		.4byte	.LVL15
 1748 020d E8000000 		.4byte	.LVL16
 1749 0211 0200     		.2byte	0x2
 1750 0213 31       		.byte	0x31
 1751 0214 9F       		.byte	0x9f
 1752 0215 E8000000 		.4byte	.LVL16
 1753 0219 EC000000 		.4byte	.LVL17
 1754 021d 0200     		.2byte	0x2
 1755 021f 32       		.byte	0x32
 1756 0220 9F       		.byte	0x9f
 1757 0221 EC000000 		.4byte	.LVL17
 1758 0225 F0000000 		.4byte	.LVL18
 1759 0229 0200     		.2byte	0x2
 1760 022b 33       		.byte	0x33
 1761 022c 9F       		.byte	0x9f
 1762 022d F0000000 		.4byte	.LVL18
 1763 0231 F4000000 		.4byte	.LVL19
 1764 0235 0200     		.2byte	0x2
 1765 0237 34       		.byte	0x34
 1766 0238 9F       		.byte	0x9f
 1767 0239 F4000000 		.4byte	.LVL19
 1768 023d F8000000 		.4byte	.LVL20
 1769 0241 0200     		.2byte	0x2
 1770 0243 35       		.byte	0x35
 1771 0244 9F       		.byte	0x9f
 1772 0245 F8000000 		.4byte	.LVL20
 1773 0249 34010000 		.4byte	.LFE114
 1774 024d 0200     		.2byte	0x2
 1775 024f 36       		.byte	0x36
 1776 0250 9F       		.byte	0x9f
ARM GAS  C:\Users\CNous\AppData\Local\Temp\ccG9FAtd.s 			page 35


 1777 0251 00000000 		.4byte	0
 1778 0255 00000000 		.4byte	0
 1779              	.LLST7:
 1780 0259 46000000 		.4byte	.LVL9
 1781 025d 50000000 		.4byte	.LVL10
 1782 0261 0200     		.2byte	0x2
 1783 0263 90       		.byte	0x90
 1784 0264 51       		.uleb128 0x51
 1785 0265 00000000 		.4byte	0
 1786 0269 00000000 		.4byte	0
 1787              	.LLST8:
 1788 026d 64000000 		.4byte	.LVL11
 1789 0271 AC000000 		.4byte	.LVL13
 1790 0275 0200     		.2byte	0x2
 1791 0277 90       		.byte	0x90
 1792 0278 48       		.uleb128 0x48
 1793 0279 AC000000 		.4byte	.LVL13
 1794 027d 34010000 		.4byte	.LFE114
 1795 0281 0C00     		.2byte	0xc
 1796 0283 F5       		.byte	0xf5
 1797 0284 47       		.uleb128 0x47
 1798 0285 29       		.uleb128 0x29
 1799 0286 F5       		.byte	0xf5
 1800 0287 49       		.uleb128 0x49
 1801 0288 29       		.uleb128 0x29
 1802 0289 1E       		.byte	0x1e
 1803 028a F5       		.byte	0xf5
 1804 028b 50       		.uleb128 0x50
 1805 028c 29       		.uleb128 0x29
 1806 028d 22       		.byte	0x22
 1807 028e 9F       		.byte	0x9f
 1808 028f 00000000 		.4byte	0
 1809 0293 00000000 		.4byte	0
 1810              	.LLST9:
 1811 0297 6C000000 		.4byte	.LVL12
 1812 029b B0000000 		.4byte	.LVL14
 1813 029f 0200     		.2byte	0x2
 1814 02a1 90       		.byte	0x90
 1815 02a2 4F       		.uleb128 0x4f
 1816 02a3 B0000000 		.4byte	.LVL14
 1817 02a7 34010000 		.4byte	.LFE114
 1818 02ab 1900     		.2byte	0x19
 1819 02ad 03       		.byte	0x3
 1820 02ae 00000000 		.4byte	old
 1821 02b2 F6       		.byte	0xf6
 1822 02b3 04       		.byte	0x4
 1823 02b4 29       		.uleb128 0x29
 1824 02b5 F5       		.byte	0xf5
 1825 02b6 47       		.uleb128 0x47
 1826 02b7 29       		.uleb128 0x29
 1827 02b8 F5       		.byte	0xf5
 1828 02b9 49       		.uleb128 0x49
 1829 02ba 29       		.uleb128 0x29
 1830 02bb 1E       		.byte	0x1e
 1831 02bc F5       		.byte	0xf5
 1832 02bd 50       		.uleb128 0x50
 1833 02be 29       		.uleb128 0x29
ARM GAS  C:\Users\CNous\AppData\Local\Temp\ccG9FAtd.s 			page 36


 1834 02bf 22       		.byte	0x22
 1835 02c0 F5       		.byte	0xf5
 1836 02c1 46       		.uleb128 0x46
 1837 02c2 29       		.uleb128 0x29
 1838 02c3 1E       		.byte	0x1e
 1839 02c4 1C       		.byte	0x1c
 1840 02c5 9F       		.byte	0x9f
 1841 02c6 00000000 		.4byte	0
 1842 02ca 00000000 		.4byte	0
 1843              	.LLST10:
 1844 02ce E4000000 		.4byte	.LVL15
 1845 02d2 E8000000 		.4byte	.LVL16
 1846 02d6 0200     		.2byte	0x2
 1847 02d8 31       		.byte	0x31
 1848 02d9 9F       		.byte	0x9f
 1849 02da E8000000 		.4byte	.LVL16
 1850 02de EC000000 		.4byte	.LVL17
 1851 02e2 0200     		.2byte	0x2
 1852 02e4 32       		.byte	0x32
 1853 02e5 9F       		.byte	0x9f
 1854 02e6 EC000000 		.4byte	.LVL17
 1855 02ea F0000000 		.4byte	.LVL18
 1856 02ee 0200     		.2byte	0x2
 1857 02f0 33       		.byte	0x33
 1858 02f1 9F       		.byte	0x9f
 1859 02f2 F0000000 		.4byte	.LVL18
 1860 02f6 F4000000 		.4byte	.LVL19
 1861 02fa 0200     		.2byte	0x2
 1862 02fc 34       		.byte	0x34
 1863 02fd 9F       		.byte	0x9f
 1864 02fe F4000000 		.4byte	.LVL19
 1865 0302 34010000 		.4byte	.LFE114
 1866 0306 0200     		.2byte	0x2
 1867 0308 35       		.byte	0x35
 1868 0309 9F       		.byte	0x9f
 1869 030a 00000000 		.4byte	0
 1870 030e 00000000 		.4byte	0
 1871              	.LLST11:
 1872 0312 E4000000 		.4byte	.LVL15
 1873 0316 E8000000 		.4byte	.LVL16
 1874 031a 1900     		.2byte	0x19
 1875 031c 03       		.byte	0x3
 1876 031d 00000000 		.4byte	old
 1877 0321 F6       		.byte	0xf6
 1878 0322 04       		.byte	0x4
 1879 0323 29       		.uleb128 0x29
 1880 0324 F5       		.byte	0xf5
 1881 0325 47       		.uleb128 0x47
 1882 0326 29       		.uleb128 0x29
 1883 0327 F5       		.byte	0xf5
 1884 0328 49       		.uleb128 0x49
 1885 0329 29       		.uleb128 0x29
 1886 032a 1E       		.byte	0x1e
 1887 032b F5       		.byte	0xf5
 1888 032c 50       		.uleb128 0x50
 1889 032d 29       		.uleb128 0x29
 1890 032e 22       		.byte	0x22
ARM GAS  C:\Users\CNous\AppData\Local\Temp\ccG9FAtd.s 			page 37


 1891 032f F5       		.byte	0xf5
 1892 0330 46       		.uleb128 0x46
 1893 0331 29       		.uleb128 0x29
 1894 0332 1E       		.byte	0x1e
 1895 0333 1C       		.byte	0x1c
 1896 0334 9F       		.byte	0x9f
 1897 0335 E8000000 		.4byte	.LVL16
 1898 0339 EC000000 		.4byte	.LVL17
 1899 033d 2600     		.2byte	0x26
 1900 033f 03       		.byte	0x3
 1901 0340 04000000 		.4byte	old+4
 1902 0344 F6       		.byte	0xf6
 1903 0345 04       		.byte	0x4
 1904 0346 29       		.uleb128 0x29
 1905 0347 03       		.byte	0x3
 1906 0348 00000000 		.4byte	old
 1907 034c F6       		.byte	0xf6
 1908 034d 04       		.byte	0x4
 1909 034e 29       		.uleb128 0x29
 1910 034f F5       		.byte	0xf5
 1911 0350 47       		.uleb128 0x47
 1912 0351 29       		.uleb128 0x29
 1913 0352 F5       		.byte	0xf5
 1914 0353 49       		.uleb128 0x49
 1915 0354 29       		.uleb128 0x29
 1916 0355 1E       		.byte	0x1e
 1917 0356 F5       		.byte	0xf5
 1918 0357 50       		.uleb128 0x50
 1919 0358 29       		.uleb128 0x29
 1920 0359 22       		.byte	0x22
 1921 035a F5       		.byte	0xf5
 1922 035b 46       		.uleb128 0x46
 1923 035c 29       		.uleb128 0x29
 1924 035d 1E       		.byte	0x1e
 1925 035e 1C       		.byte	0x1c
 1926 035f F5       		.byte	0xf5
 1927 0360 46       		.uleb128 0x46
 1928 0361 29       		.uleb128 0x29
 1929 0362 1E       		.byte	0x1e
 1930 0363 1C       		.byte	0x1c
 1931 0364 9F       		.byte	0x9f
 1932 0365 EC000000 		.4byte	.LVL17
 1933 0369 F0000000 		.4byte	.LVL18
 1934 036d 3300     		.2byte	0x33
 1935 036f 03       		.byte	0x3
 1936 0370 08000000 		.4byte	old+8
 1937 0374 F6       		.byte	0xf6
 1938 0375 04       		.byte	0x4
 1939 0376 29       		.uleb128 0x29
 1940 0377 03       		.byte	0x3
 1941 0378 04000000 		.4byte	old+4
 1942 037c F6       		.byte	0xf6
 1943 037d 04       		.byte	0x4
 1944 037e 29       		.uleb128 0x29
 1945 037f 03       		.byte	0x3
 1946 0380 00000000 		.4byte	old
 1947 0384 F6       		.byte	0xf6
ARM GAS  C:\Users\CNous\AppData\Local\Temp\ccG9FAtd.s 			page 38


 1948 0385 04       		.byte	0x4
 1949 0386 29       		.uleb128 0x29
 1950 0387 F5       		.byte	0xf5
 1951 0388 47       		.uleb128 0x47
 1952 0389 29       		.uleb128 0x29
 1953 038a F5       		.byte	0xf5
 1954 038b 49       		.uleb128 0x49
 1955 038c 29       		.uleb128 0x29
 1956 038d 1E       		.byte	0x1e
 1957 038e F5       		.byte	0xf5
 1958 038f 50       		.uleb128 0x50
 1959 0390 29       		.uleb128 0x29
 1960 0391 22       		.byte	0x22
 1961 0392 F5       		.byte	0xf5
 1962 0393 46       		.uleb128 0x46
 1963 0394 29       		.uleb128 0x29
 1964 0395 1E       		.byte	0x1e
 1965 0396 1C       		.byte	0x1c
 1966 0397 F5       		.byte	0xf5
 1967 0398 46       		.uleb128 0x46
 1968 0399 29       		.uleb128 0x29
 1969 039a 1E       		.byte	0x1e
 1970 039b 1C       		.byte	0x1c
 1971 039c F5       		.byte	0xf5
 1972 039d 46       		.uleb128 0x46
 1973 039e 29       		.uleb128 0x29
 1974 039f 1E       		.byte	0x1e
 1975 03a0 1C       		.byte	0x1c
 1976 03a1 9F       		.byte	0x9f
 1977 03a2 F0000000 		.4byte	.LVL18
 1978 03a6 F4000000 		.4byte	.LVL19
 1979 03aa 4000     		.2byte	0x40
 1980 03ac 03       		.byte	0x3
 1981 03ad 0C000000 		.4byte	old+12
 1982 03b1 F6       		.byte	0xf6
 1983 03b2 04       		.byte	0x4
 1984 03b3 29       		.uleb128 0x29
 1985 03b4 03       		.byte	0x3
 1986 03b5 08000000 		.4byte	old+8
 1987 03b9 F6       		.byte	0xf6
 1988 03ba 04       		.byte	0x4
 1989 03bb 29       		.uleb128 0x29
 1990 03bc 03       		.byte	0x3
 1991 03bd 04000000 		.4byte	old+4
 1992 03c1 F6       		.byte	0xf6
 1993 03c2 04       		.byte	0x4
 1994 03c3 29       		.uleb128 0x29
 1995 03c4 03       		.byte	0x3
 1996 03c5 00000000 		.4byte	old
 1997 03c9 F6       		.byte	0xf6
 1998 03ca 04       		.byte	0x4
 1999 03cb 29       		.uleb128 0x29
 2000 03cc F5       		.byte	0xf5
 2001 03cd 47       		.uleb128 0x47
 2002 03ce 29       		.uleb128 0x29
 2003 03cf F5       		.byte	0xf5
 2004 03d0 49       		.uleb128 0x49
ARM GAS  C:\Users\CNous\AppData\Local\Temp\ccG9FAtd.s 			page 39


 2005 03d1 29       		.uleb128 0x29
 2006 03d2 1E       		.byte	0x1e
 2007 03d3 F5       		.byte	0xf5
 2008 03d4 50       		.uleb128 0x50
 2009 03d5 29       		.uleb128 0x29
 2010 03d6 22       		.byte	0x22
 2011 03d7 F5       		.byte	0xf5
 2012 03d8 46       		.uleb128 0x46
 2013 03d9 29       		.uleb128 0x29
 2014 03da 1E       		.byte	0x1e
 2015 03db 1C       		.byte	0x1c
 2016 03dc F5       		.byte	0xf5
 2017 03dd 46       		.uleb128 0x46
 2018 03de 29       		.uleb128 0x29
 2019 03df 1E       		.byte	0x1e
 2020 03e0 1C       		.byte	0x1c
 2021 03e1 F5       		.byte	0xf5
 2022 03e2 46       		.uleb128 0x46
 2023 03e3 29       		.uleb128 0x29
 2024 03e4 1E       		.byte	0x1e
 2025 03e5 1C       		.byte	0x1c
 2026 03e6 F5       		.byte	0xf5
 2027 03e7 46       		.uleb128 0x46
 2028 03e8 29       		.uleb128 0x29
 2029 03e9 1E       		.byte	0x1e
 2030 03ea 1C       		.byte	0x1c
 2031 03eb 9F       		.byte	0x9f
 2032 03ec F4000000 		.4byte	.LVL19
 2033 03f0 34010000 		.4byte	.LFE114
 2034 03f4 4D00     		.2byte	0x4d
 2035 03f6 03       		.byte	0x3
 2036 03f7 10000000 		.4byte	old+16
 2037 03fb F6       		.byte	0xf6
 2038 03fc 04       		.byte	0x4
 2039 03fd 29       		.uleb128 0x29
 2040 03fe 03       		.byte	0x3
 2041 03ff 0C000000 		.4byte	old+12
 2042 0403 F6       		.byte	0xf6
 2043 0404 04       		.byte	0x4
 2044 0405 29       		.uleb128 0x29
 2045 0406 03       		.byte	0x3
 2046 0407 08000000 		.4byte	old+8
 2047 040b F6       		.byte	0xf6
 2048 040c 04       		.byte	0x4
 2049 040d 29       		.uleb128 0x29
 2050 040e 03       		.byte	0x3
 2051 040f 04000000 		.4byte	old+4
 2052 0413 F6       		.byte	0xf6
 2053 0414 04       		.byte	0x4
 2054 0415 29       		.uleb128 0x29
 2055 0416 03       		.byte	0x3
 2056 0417 00000000 		.4byte	old
 2057 041b F6       		.byte	0xf6
 2058 041c 04       		.byte	0x4
 2059 041d 29       		.uleb128 0x29
 2060 041e F5       		.byte	0xf5
 2061 041f 47       		.uleb128 0x47
ARM GAS  C:\Users\CNous\AppData\Local\Temp\ccG9FAtd.s 			page 40


 2062 0420 29       		.uleb128 0x29
 2063 0421 F5       		.byte	0xf5
 2064 0422 49       		.uleb128 0x49
 2065 0423 29       		.uleb128 0x29
 2066 0424 1E       		.byte	0x1e
 2067 0425 F5       		.byte	0xf5
 2068 0426 50       		.uleb128 0x50
 2069 0427 29       		.uleb128 0x29
 2070 0428 22       		.byte	0x22
 2071 0429 F5       		.byte	0xf5
 2072 042a 46       		.uleb128 0x46
 2073 042b 29       		.uleb128 0x29
 2074 042c 1E       		.byte	0x1e
 2075 042d 1C       		.byte	0x1c
 2076 042e F5       		.byte	0xf5
 2077 042f 46       		.uleb128 0x46
 2078 0430 29       		.uleb128 0x29
 2079 0431 1E       		.byte	0x1e
 2080 0432 1C       		.byte	0x1c
 2081 0433 F5       		.byte	0xf5
 2082 0434 46       		.uleb128 0x46
 2083 0435 29       		.uleb128 0x29
 2084 0436 1E       		.byte	0x1e
 2085 0437 1C       		.byte	0x1c
 2086 0438 F5       		.byte	0xf5
 2087 0439 46       		.uleb128 0x46
 2088 043a 29       		.uleb128 0x29
 2089 043b 1E       		.byte	0x1e
 2090 043c 1C       		.byte	0x1c
 2091 043d F5       		.byte	0xf5
 2092 043e 46       		.uleb128 0x46
 2093 043f 29       		.uleb128 0x29
 2094 0440 1E       		.byte	0x1e
 2095 0441 1C       		.byte	0x1c
 2096 0442 9F       		.byte	0x9f
 2097 0443 00000000 		.4byte	0
 2098 0447 00000000 		.4byte	0
 2099              	.LLST12:
 2100 044b E4000000 		.4byte	.LVL15
 2101 044f E8000000 		.4byte	.LVL16
 2102 0453 2600     		.2byte	0x26
 2103 0455 03       		.byte	0x3
 2104 0456 04000000 		.4byte	old+4
 2105 045a F6       		.byte	0xf6
 2106 045b 04       		.byte	0x4
 2107 045c 29       		.uleb128 0x29
 2108 045d 03       		.byte	0x3
 2109 045e 00000000 		.4byte	old
 2110 0462 F6       		.byte	0xf6
 2111 0463 04       		.byte	0x4
 2112 0464 29       		.uleb128 0x29
 2113 0465 F5       		.byte	0xf5
 2114 0466 47       		.uleb128 0x47
 2115 0467 29       		.uleb128 0x29
 2116 0468 F5       		.byte	0xf5
 2117 0469 49       		.uleb128 0x49
 2118 046a 29       		.uleb128 0x29
ARM GAS  C:\Users\CNous\AppData\Local\Temp\ccG9FAtd.s 			page 41


 2119 046b 1E       		.byte	0x1e
 2120 046c F5       		.byte	0xf5
 2121 046d 50       		.uleb128 0x50
 2122 046e 29       		.uleb128 0x29
 2123 046f 22       		.byte	0x22
 2124 0470 F5       		.byte	0xf5
 2125 0471 46       		.uleb128 0x46
 2126 0472 29       		.uleb128 0x29
 2127 0473 1E       		.byte	0x1e
 2128 0474 1C       		.byte	0x1c
 2129 0475 F5       		.byte	0xf5
 2130 0476 46       		.uleb128 0x46
 2131 0477 29       		.uleb128 0x29
 2132 0478 1E       		.byte	0x1e
 2133 0479 1C       		.byte	0x1c
 2134 047a 9F       		.byte	0x9f
 2135 047b E8000000 		.4byte	.LVL16
 2136 047f EC000000 		.4byte	.LVL17
 2137 0483 3300     		.2byte	0x33
 2138 0485 03       		.byte	0x3
 2139 0486 08000000 		.4byte	old+8
 2140 048a F6       		.byte	0xf6
 2141 048b 04       		.byte	0x4
 2142 048c 29       		.uleb128 0x29
 2143 048d 03       		.byte	0x3
 2144 048e 04000000 		.4byte	old+4
 2145 0492 F6       		.byte	0xf6
 2146 0493 04       		.byte	0x4
 2147 0494 29       		.uleb128 0x29
 2148 0495 03       		.byte	0x3
 2149 0496 00000000 		.4byte	old
 2150 049a F6       		.byte	0xf6
 2151 049b 04       		.byte	0x4
 2152 049c 29       		.uleb128 0x29
 2153 049d F5       		.byte	0xf5
 2154 049e 47       		.uleb128 0x47
 2155 049f 29       		.uleb128 0x29
 2156 04a0 F5       		.byte	0xf5
 2157 04a1 49       		.uleb128 0x49
 2158 04a2 29       		.uleb128 0x29
 2159 04a3 1E       		.byte	0x1e
 2160 04a4 F5       		.byte	0xf5
 2161 04a5 50       		.uleb128 0x50
 2162 04a6 29       		.uleb128 0x29
 2163 04a7 22       		.byte	0x22
 2164 04a8 F5       		.byte	0xf5
 2165 04a9 46       		.uleb128 0x46
 2166 04aa 29       		.uleb128 0x29
 2167 04ab 1E       		.byte	0x1e
 2168 04ac 1C       		.byte	0x1c
 2169 04ad F5       		.byte	0xf5
 2170 04ae 46       		.uleb128 0x46
 2171 04af 29       		.uleb128 0x29
 2172 04b0 1E       		.byte	0x1e
 2173 04b1 1C       		.byte	0x1c
 2174 04b2 F5       		.byte	0xf5
 2175 04b3 46       		.uleb128 0x46
ARM GAS  C:\Users\CNous\AppData\Local\Temp\ccG9FAtd.s 			page 42


 2176 04b4 29       		.uleb128 0x29
 2177 04b5 1E       		.byte	0x1e
 2178 04b6 1C       		.byte	0x1c
 2179 04b7 9F       		.byte	0x9f
 2180 04b8 EC000000 		.4byte	.LVL17
 2181 04bc F0000000 		.4byte	.LVL18
 2182 04c0 4000     		.2byte	0x40
 2183 04c2 03       		.byte	0x3
 2184 04c3 0C000000 		.4byte	old+12
 2185 04c7 F6       		.byte	0xf6
 2186 04c8 04       		.byte	0x4
 2187 04c9 29       		.uleb128 0x29
 2188 04ca 03       		.byte	0x3
 2189 04cb 08000000 		.4byte	old+8
 2190 04cf F6       		.byte	0xf6
 2191 04d0 04       		.byte	0x4
 2192 04d1 29       		.uleb128 0x29
 2193 04d2 03       		.byte	0x3
 2194 04d3 04000000 		.4byte	old+4
 2195 04d7 F6       		.byte	0xf6
 2196 04d8 04       		.byte	0x4
 2197 04d9 29       		.uleb128 0x29
 2198 04da 03       		.byte	0x3
 2199 04db 00000000 		.4byte	old
 2200 04df F6       		.byte	0xf6
 2201 04e0 04       		.byte	0x4
 2202 04e1 29       		.uleb128 0x29
 2203 04e2 F5       		.byte	0xf5
 2204 04e3 47       		.uleb128 0x47
 2205 04e4 29       		.uleb128 0x29
 2206 04e5 F5       		.byte	0xf5
 2207 04e6 49       		.uleb128 0x49
 2208 04e7 29       		.uleb128 0x29
 2209 04e8 1E       		.byte	0x1e
 2210 04e9 F5       		.byte	0xf5
 2211 04ea 50       		.uleb128 0x50
 2212 04eb 29       		.uleb128 0x29
 2213 04ec 22       		.byte	0x22
 2214 04ed F5       		.byte	0xf5
 2215 04ee 46       		.uleb128 0x46
 2216 04ef 29       		.uleb128 0x29
 2217 04f0 1E       		.byte	0x1e
 2218 04f1 1C       		.byte	0x1c
 2219 04f2 F5       		.byte	0xf5
 2220 04f3 46       		.uleb128 0x46
 2221 04f4 29       		.uleb128 0x29
 2222 04f5 1E       		.byte	0x1e
 2223 04f6 1C       		.byte	0x1c
 2224 04f7 F5       		.byte	0xf5
 2225 04f8 46       		.uleb128 0x46
 2226 04f9 29       		.uleb128 0x29
 2227 04fa 1E       		.byte	0x1e
 2228 04fb 1C       		.byte	0x1c
 2229 04fc F5       		.byte	0xf5
 2230 04fd 46       		.uleb128 0x46
 2231 04fe 29       		.uleb128 0x29
 2232 04ff 1E       		.byte	0x1e
ARM GAS  C:\Users\CNous\AppData\Local\Temp\ccG9FAtd.s 			page 43


 2233 0500 1C       		.byte	0x1c
 2234 0501 9F       		.byte	0x9f
 2235 0502 F0000000 		.4byte	.LVL18
 2236 0506 F4000000 		.4byte	.LVL19
 2237 050a 4D00     		.2byte	0x4d
 2238 050c 03       		.byte	0x3
 2239 050d 10000000 		.4byte	old+16
 2240 0511 F6       		.byte	0xf6
 2241 0512 04       		.byte	0x4
 2242 0513 29       		.uleb128 0x29
 2243 0514 03       		.byte	0x3
 2244 0515 0C000000 		.4byte	old+12
 2245 0519 F6       		.byte	0xf6
 2246 051a 04       		.byte	0x4
 2247 051b 29       		.uleb128 0x29
 2248 051c 03       		.byte	0x3
 2249 051d 08000000 		.4byte	old+8
 2250 0521 F6       		.byte	0xf6
 2251 0522 04       		.byte	0x4
 2252 0523 29       		.uleb128 0x29
 2253 0524 03       		.byte	0x3
 2254 0525 04000000 		.4byte	old+4
 2255 0529 F6       		.byte	0xf6
 2256 052a 04       		.byte	0x4
 2257 052b 29       		.uleb128 0x29
 2258 052c 03       		.byte	0x3
 2259 052d 00000000 		.4byte	old
 2260 0531 F6       		.byte	0xf6
 2261 0532 04       		.byte	0x4
 2262 0533 29       		.uleb128 0x29
 2263 0534 F5       		.byte	0xf5
 2264 0535 47       		.uleb128 0x47
 2265 0536 29       		.uleb128 0x29
 2266 0537 F5       		.byte	0xf5
 2267 0538 49       		.uleb128 0x49
 2268 0539 29       		.uleb128 0x29
 2269 053a 1E       		.byte	0x1e
 2270 053b F5       		.byte	0xf5
 2271 053c 50       		.uleb128 0x50
 2272 053d 29       		.uleb128 0x29
 2273 053e 22       		.byte	0x22
 2274 053f F5       		.byte	0xf5
 2275 0540 46       		.uleb128 0x46
 2276 0541 29       		.uleb128 0x29
 2277 0542 1E       		.byte	0x1e
 2278 0543 1C       		.byte	0x1c
 2279 0544 F5       		.byte	0xf5
 2280 0545 46       		.uleb128 0x46
 2281 0546 29       		.uleb128 0x29
 2282 0547 1E       		.byte	0x1e
 2283 0548 1C       		.byte	0x1c
 2284 0549 F5       		.byte	0xf5
 2285 054a 46       		.uleb128 0x46
 2286 054b 29       		.uleb128 0x29
 2287 054c 1E       		.byte	0x1e
 2288 054d 1C       		.byte	0x1c
 2289 054e F5       		.byte	0xf5
ARM GAS  C:\Users\CNous\AppData\Local\Temp\ccG9FAtd.s 			page 44


 2290 054f 46       		.uleb128 0x46
 2291 0550 29       		.uleb128 0x29
 2292 0551 1E       		.byte	0x1e
 2293 0552 1C       		.byte	0x1c
 2294 0553 F5       		.byte	0xf5
 2295 0554 46       		.uleb128 0x46
 2296 0555 29       		.uleb128 0x29
 2297 0556 1E       		.byte	0x1e
 2298 0557 1C       		.byte	0x1c
 2299 0558 9F       		.byte	0x9f
 2300 0559 F4000000 		.4byte	.LVL19
 2301 055d 34010000 		.4byte	.LFE114
 2302 0561 0200     		.2byte	0x2
 2303 0563 90       		.byte	0x90
 2304 0564 4E       		.uleb128 0x4e
 2305 0565 00000000 		.4byte	0
 2306 0569 00000000 		.4byte	0
 2307              		.section	.debug_aranges,"",%progbits
 2308 0000 3C000000 		.4byte	0x3c
 2309 0004 0200     		.2byte	0x2
 2310 0006 00000000 		.4byte	.Ldebug_info0
 2311 000a 04       		.byte	0x4
 2312 000b 00       		.byte	0
 2313 000c 0000     		.2byte	0
 2314 000e 0000     		.2byte	0
 2315 0010 00000000 		.4byte	.LFB110
 2316 0014 AC000000 		.4byte	.LFE110-.LFB110
 2317 0018 00000000 		.4byte	.LFB111
 2318 001c 34000000 		.4byte	.LFE111-.LFB111
 2319 0020 00000000 		.4byte	.LFB112
 2320 0024 0E000000 		.4byte	.LFE112-.LFB112
 2321 0028 00000000 		.4byte	.LFB113
 2322 002c 32000000 		.4byte	.LFE113-.LFB113
 2323 0030 00000000 		.4byte	.LFB114
 2324 0034 34010000 		.4byte	.LFE114-.LFB114
 2325 0038 00000000 		.4byte	0
 2326 003c 00000000 		.4byte	0
 2327              		.section	.debug_ranges,"",%progbits
 2328              	.Ldebug_ranges0:
 2329 0000 22000000 		.4byte	.LBB6
 2330 0004 24000000 		.4byte	.LBE6
 2331 0008 64000000 		.4byte	.LBB11
 2332 000c 6C000000 		.4byte	.LBE11
 2333 0010 A8000000 		.4byte	.LBB20
 2334 0014 AC000000 		.4byte	.LBE20
 2335 0018 E0000000 		.4byte	.LBB22
 2336 001c E4000000 		.4byte	.LBE22
 2337 0020 00000000 		.4byte	0
 2338 0024 00000000 		.4byte	0
 2339 0028 22000000 		.4byte	.LBB7
 2340 002c 24000000 		.4byte	.LBE7
 2341 0030 64000000 		.4byte	.LBB8
 2342 0034 6C000000 		.4byte	.LBE8
 2343 0038 A8000000 		.4byte	.LBB9
 2344 003c AC000000 		.4byte	.LBE9
 2345 0040 E0000000 		.4byte	.LBB10
 2346 0044 E4000000 		.4byte	.LBE10
ARM GAS  C:\Users\CNous\AppData\Local\Temp\ccG9FAtd.s 			page 45


 2347 0048 00000000 		.4byte	0
 2348 004c 00000000 		.4byte	0
 2349 0050 6C000000 		.4byte	.LBB12
 2350 0054 78000000 		.4byte	.LBE12
 2351 0058 7C000000 		.4byte	.LBB18
 2352 005c 80000000 		.4byte	.LBE18
 2353 0060 84000000 		.4byte	.LBB19
 2354 0064 9C000000 		.4byte	.LBE19
 2355 0068 AC000000 		.4byte	.LBB21
 2356 006c C0000000 		.4byte	.LBE21
 2357 0070 E4000000 		.4byte	.LBB23
 2358 0074 F8000000 		.4byte	.LBE23
 2359 0078 00000000 		.4byte	0
 2360 007c 00000000 		.4byte	0
 2361 0080 6C000000 		.4byte	.LBB13
 2362 0084 78000000 		.4byte	.LBE13
 2363 0088 7C000000 		.4byte	.LBB14
 2364 008c 80000000 		.4byte	.LBE14
 2365 0090 84000000 		.4byte	.LBB15
 2366 0094 9C000000 		.4byte	.LBE15
 2367 0098 AC000000 		.4byte	.LBB16
 2368 009c C0000000 		.4byte	.LBE16
 2369 00a0 E4000000 		.4byte	.LBB17
 2370 00a4 F8000000 		.4byte	.LBE17
 2371 00a8 00000000 		.4byte	0
 2372 00ac 00000000 		.4byte	0
 2373 00b0 00000000 		.4byte	.LFB110
 2374 00b4 AC000000 		.4byte	.LFE110
 2375 00b8 00000000 		.4byte	.LFB111
 2376 00bc 34000000 		.4byte	.LFE111
 2377 00c0 00000000 		.4byte	.LFB112
 2378 00c4 0E000000 		.4byte	.LFE112
 2379 00c8 00000000 		.4byte	.LFB113
 2380 00cc 32000000 		.4byte	.LFE113
 2381 00d0 00000000 		.4byte	.LFB114
 2382 00d4 34010000 		.4byte	.LFE114
 2383 00d8 00000000 		.4byte	0
 2384 00dc 00000000 		.4byte	0
 2385              		.section	.debug_line,"",%progbits
 2386              	.Ldebug_line0:
 2387 0000 AB010000 		.section	.debug_str,"MS",%progbits,1
 2387      0200BC00 
 2387      00000201 
 2387      FB0E0D00 
 2387      01010101 
 2388              	.LASF23:
 2389 0000 5F6C666F 		.ascii	"_lfoPhase\000"
 2389      50686173 
 2389      6500
 2390              	.LASF31:
 2391 000a 50686173 		.ascii	"PhaserInit\000"
 2391      6572496E 
 2391      697400
 2392              	.LASF17:
 2393 0015 796F7574 		.ascii	"yout\000"
 2393      00
 2394              	.LASF14:
ARM GAS  C:\Users\CNous\AppData\Local\Temp\ccG9FAtd.s 			page 46


 2395 001a 50686173 		.ascii	"PhaserRate\000"
 2395      65725261 
 2395      746500
 2396              	.LASF16:
 2397 0025 72617465 		.ascii	"rate\000"
 2397      00
 2398              	.LASF30:
 2399 002a 616C6C70 		.ascii	"allpass\000"
 2399      61737300 
 2400              	.LASF22:
 2401 0032 5F646D61 		.ascii	"_dmax\000"
 2401      7800
 2402              	.LASF34:
 2403 0038 73696E66 		.ascii	"sinf\000"
 2403      00
 2404              	.LASF21:
 2405 003d 5F646D69 		.ascii	"_dmin\000"
 2405      6E00
 2406              	.LASF24:
 2407 0043 5F6C666F 		.ascii	"_lfoInc\000"
 2407      496E6300 
 2408              	.LASF0:
 2409 004b 666C6F61 		.ascii	"float\000"
 2409      7400
 2410              	.LASF7:
 2411 0051 6C6F6E67 		.ascii	"long long unsigned int\000"
 2411      206C6F6E 
 2411      6720756E 
 2411      7369676E 
 2411      65642069 
 2412              	.LASF2:
 2413 0068 756E7369 		.ascii	"unsigned char\000"
 2413      676E6564 
 2413      20636861 
 2413      7200
 2414              	.LASF20:
 2415 0076 73777261 		.ascii	"swrate\000"
 2415      746500
 2416              	.LASF32:
 2417 007d 50686173 		.ascii	"PhaserProcess\000"
 2417      65725072 
 2417      6F636573 
 2417      7300
 2418              	.LASF10:
 2419 008b 6C6F6E67 		.ascii	"long unsigned int\000"
 2419      20756E73 
 2419      69676E65 
 2419      6420696E 
 2419      7400
 2420              	.LASF4:
 2421 009d 73686F72 		.ascii	"short unsigned int\000"
 2421      7420756E 
 2421      7369676E 
 2421      65642069 
 2421      6E7400
 2422              	.LASF33:
 2423 00b0 49544D5F 		.ascii	"ITM_RxBuffer\000"
ARM GAS  C:\Users\CNous\AppData\Local\Temp\ccG9FAtd.s 			page 47


 2423      52784275 
 2423      66666572 
 2423      00
 2424              	.LASF26:
 2425 00bd 474E5520 		.ascii	"GNU C 4.7.3 20121207 (release) [ARM/embedded-4_7-br"
 2425      4320342E 
 2425      372E3320 
 2425      32303132 
 2425      31323037 
 2426 00f0 616E6368 		.ascii	"anch revision 194305]\000"
 2426      20726576 
 2426      6973696F 
 2426      6E203139 
 2426      34333035 
 2427              	.LASF12:
 2428 0106 646F7562 		.ascii	"double\000"
 2428      6C6500
 2429              	.LASF3:
 2430 010d 73686F72 		.ascii	"short int\000"
 2430      7420696E 
 2430      7400
 2431              	.LASF15:
 2432 0117 50686173 		.ascii	"PhaserFeedback\000"
 2432      65724665 
 2432      65646261 
 2432      636B00
 2433              	.LASF5:
 2434 0126 756E7369 		.ascii	"unsigned int\000"
 2434      676E6564 
 2434      20696E74 
 2434      00
 2435              	.LASF11:
 2436 0133 63686172 		.ascii	"char\000"
 2436      00
 2437              	.LASF29:
 2438 0138 696E7433 		.ascii	"int32_t\000"
 2438      325F7400 
 2439              	.LASF9:
 2440 0140 73697A65 		.ascii	"sizetype\000"
 2440      74797065 
 2440      00
 2441              	.LASF6:
 2442 0149 6C6F6E67 		.ascii	"long long int\000"
 2442      206C6F6E 
 2442      6720696E 
 2442      7400
 2443              	.LASF25:
 2444 0157 5F7A6D31 		.ascii	"_zm1\000"
 2444      00
 2445              	.LASF19:
 2446 015c 665F6D61 		.ascii	"f_max\000"
 2446      7800
 2447              	.LASF27:
 2448 0162 7372632F 		.ascii	"src/phaser2.c\000"
 2448      70686173 
 2448      6572322E 
 2448      6300
ARM GAS  C:\Users\CNous\AppData\Local\Temp\ccG9FAtd.s 			page 48


 2449              	.LASF28:
 2450 0170 433A5C78 		.ascii	"C:\\xav_dev\\eclipse\\ambiantiseur-make\000"
 2450      61765F64 
 2450      65765C65 
 2450      636C6970 
 2450      73655C61 
 2451              	.LASF8:
 2452 0195 6C6F6E67 		.ascii	"long int\000"
 2452      20696E74 
 2452      00
 2453              	.LASF13:
 2454 019e 6C6F6E67 		.ascii	"long double\000"
 2454      20646F75 
 2454      626C6500 
 2455              	.LASF1:
 2456 01aa 7369676E 		.ascii	"signed char\000"
 2456      65642063 
 2456      68617200 
 2457              	.LASF18:
 2458 01b6 665F6D69 		.ascii	"f_min\000"
 2458      6E00
 2459              		.ident	"GCC: (GNU Tools for ARM Embedded Processors) 4.7.3 20121207 (release) [ARM/embedded-4_7-br
ARM GAS  C:\Users\CNous\AppData\Local\Temp\ccG9FAtd.s 			page 49


DEFINED SYMBOLS
                            *ABS*:00000000 phaser2.c
C:\Users\CNous\AppData\Local\Temp\ccG9FAtd.s:70     .text.PhaserInit:00000000 $t
C:\Users\CNous\AppData\Local\Temp\ccG9FAtd.s:75     .text.PhaserInit:00000000 PhaserInit
C:\Users\CNous\AppData\Local\Temp\ccG9FAtd.s:504    .bss.dry:00000000 .LANCHOR4
C:\Users\CNous\AppData\Local\Temp\ccG9FAtd.s:511    .bss.wet:00000000 .LANCHOR5
C:\Users\CNous\AppData\Local\Temp\ccG9FAtd.s:539    .bss.f_min:00000000 .LANCHOR0
C:\Users\CNous\AppData\Local\Temp\ccG9FAtd.s:518    .bss._dmin:00000000 .LANCHOR6
C:\Users\CNous\AppData\Local\Temp\ccG9FAtd.s:546    .bss.f_max:00000000 .LANCHOR1
C:\Users\CNous\AppData\Local\Temp\ccG9FAtd.s:553    .bss._dmax:00000000 .LANCHOR7
C:\Users\CNous\AppData\Local\Temp\ccG9FAtd.s:476    .bss.swrate:00000000 .LANCHOR2
C:\Users\CNous\AppData\Local\Temp\ccG9FAtd.s:490    .bss._fb:00000000 .LANCHOR3
C:\Users\CNous\AppData\Local\Temp\ccG9FAtd.s:483    .bss._lfoInc:00000000 .LANCHOR8
C:\Users\CNous\AppData\Local\Temp\ccG9FAtd.s:182    .text.PhaserRate:00000000 $t
C:\Users\CNous\AppData\Local\Temp\ccG9FAtd.s:187    .text.PhaserRate:00000000 PhaserRate
C:\Users\CNous\AppData\Local\Temp\ccG9FAtd.s:216    .text.PhaserRate:0000002c $d
C:\Users\CNous\AppData\Local\Temp\ccG9FAtd.s:222    .text.PhaserFeedback:00000000 $t
C:\Users\CNous\AppData\Local\Temp\ccG9FAtd.s:227    .text.PhaserFeedback:00000000 PhaserFeedback
C:\Users\CNous\AppData\Local\Temp\ccG9FAtd.s:244    .text.allpass:00000000 $t
C:\Users\CNous\AppData\Local\Temp\ccG9FAtd.s:249    .text.allpass:00000000 allpass
C:\Users\CNous\AppData\Local\Temp\ccG9FAtd.s:525    .bss.old:00000000 .LANCHOR10
C:\Users\CNous\AppData\Local\Temp\ccG9FAtd.s:497    .bss._a1:00000000 .LANCHOR9
C:\Users\CNous\AppData\Local\Temp\ccG9FAtd.s:280    .text.PhaserProcess:00000000 $t
C:\Users\CNous\AppData\Local\Temp\ccG9FAtd.s:285    .text.PhaserProcess:00000000 PhaserProcess
C:\Users\CNous\AppData\Local\Temp\ccG9FAtd.s:460    .text.PhaserProcess:00000108 $d
C:\Users\CNous\AppData\Local\Temp\ccG9FAtd.s:475    .bss.swrate:00000000 $d
C:\Users\CNous\AppData\Local\Temp\ccG9FAtd.s:479    .bss.swrate:00000000 swrate
C:\Users\CNous\AppData\Local\Temp\ccG9FAtd.s:482    .bss._lfoInc:00000000 $d
C:\Users\CNous\AppData\Local\Temp\ccG9FAtd.s:486    .bss._lfoInc:00000000 _lfoInc
C:\Users\CNous\AppData\Local\Temp\ccG9FAtd.s:489    .bss._fb:00000000 $d
C:\Users\CNous\AppData\Local\Temp\ccG9FAtd.s:493    .bss._fb:00000000 _fb
C:\Users\CNous\AppData\Local\Temp\ccG9FAtd.s:496    .bss._a1:00000000 $d
C:\Users\CNous\AppData\Local\Temp\ccG9FAtd.s:500    .bss._a1:00000000 _a1
C:\Users\CNous\AppData\Local\Temp\ccG9FAtd.s:503    .bss.dry:00000000 $d
C:\Users\CNous\AppData\Local\Temp\ccG9FAtd.s:507    .bss.dry:00000000 dry
C:\Users\CNous\AppData\Local\Temp\ccG9FAtd.s:510    .bss.wet:00000000 $d
C:\Users\CNous\AppData\Local\Temp\ccG9FAtd.s:514    .bss.wet:00000000 wet
C:\Users\CNous\AppData\Local\Temp\ccG9FAtd.s:517    .bss._dmin:00000000 $d
C:\Users\CNous\AppData\Local\Temp\ccG9FAtd.s:521    .bss._dmin:00000000 _dmin
C:\Users\CNous\AppData\Local\Temp\ccG9FAtd.s:524    .bss.old:00000000 $d
C:\Users\CNous\AppData\Local\Temp\ccG9FAtd.s:528    .bss.old:00000000 old
C:\Users\CNous\AppData\Local\Temp\ccG9FAtd.s:531    .bss._lfoPhase:00000000 $d
C:\Users\CNous\AppData\Local\Temp\ccG9FAtd.s:535    .bss._lfoPhase:00000000 _lfoPhase
C:\Users\CNous\AppData\Local\Temp\ccG9FAtd.s:538    .bss.f_min:00000000 $d
C:\Users\CNous\AppData\Local\Temp\ccG9FAtd.s:542    .bss.f_min:00000000 f_min
C:\Users\CNous\AppData\Local\Temp\ccG9FAtd.s:545    .bss.f_max:00000000 $d
C:\Users\CNous\AppData\Local\Temp\ccG9FAtd.s:549    .bss.f_max:00000000 f_max
C:\Users\CNous\AppData\Local\Temp\ccG9FAtd.s:552    .bss._dmax:00000000 $d
C:\Users\CNous\AppData\Local\Temp\ccG9FAtd.s:556    .bss._dmax:00000000 _dmax
C:\Users\CNous\AppData\Local\Temp\ccG9FAtd.s:559    .bss._zm1:00000000 $d
C:\Users\CNous\AppData\Local\Temp\ccG9FAtd.s:563    .bss._zm1:00000000 _zm1
                     .debug_frame:00000010 $d

UNDEFINED SYMBOLS
sinf
