ARM GAS  C:\Users\CNous\AppData\Local\Temp\ccXtjCpn.s 			page 1


   1              		.syntax unified
   2              		.cpu cortex-m4
   3              		.eabi_attribute 27, 3	@ Tag_ABI_HardFP_use
   4              		.eabi_attribute 28, 1	@ Tag_ABI_VFP_args
   5              		.fpu fpv4-sp-d16
   6              		.eabi_attribute 20, 1	@ Tag_ABI_FP_denormal
   7              		.eabi_attribute 21, 1	@ Tag_ABI_FP_exceptions
   8              		.eabi_attribute 23, 3	@ Tag_ABI_FP_number_model
   9              		.eabi_attribute 24, 1	@ Tag_ABI_align8_needed
  10              		.eabi_attribute 25, 1	@ Tag_ABI_align8_preserved
  11              		.eabi_attribute 26, 1	@ Tag_ABI_enum_size
  12              		.eabi_attribute 30, 2	@ Tag_ABI_optimization_goals
  13              		.eabi_attribute 34, 1	@ Tag_CPU_unaligned_access
  14              		.eabi_attribute 18, 4	@ Tag_ABI_PCS_wchar_t
  15              		.file	"stm32f4_discovery.c"
  16              	@ GNU C (GNU Tools for ARM Embedded Processors) version 4.7.3 20121207 (release) [ARM/embedded-4_7-
  17              	@	compiled by GNU C version 4.2.1-sjlj (mingw32-2), GMP version 4.3.2, MPFR version 2.4.2, MPC vers
  18              	@ GGC heuristics: --param ggc-min-expand=100 --param ggc-min-heapsize=131072
  19              	@ options passed:  -I . -I ./inc -I ./cmsis/core -I ./cmsis/device
  20              	@ -imultilib armv7e-m/fpu
  21              	@ -iprefix c:\gnutoolsarmembedded\4.7-2012q4\bin\../lib/gcc/arm-none-eabi/4.7.3/
  22              	@ -isysroot c:\gnutoolsarmembedded\4.7-2012q4\bin\../arm-none-eabi
  23              	@ -MD src/stm32f4_discovery.d -MF .dep/stm32f4_discovery.o.d -MP
  24              	@ -MQ src/stm32f4_discovery.o -D__USES_INITFINI__ -D __FPU_USED=1
  25              	@ -D __arm__ -D __ASSEMBLY__ -D USE_STDPERIPH_DRIVER -D STM32F4XX
  26              	@ -D HSE_VALUE=8000000 -D __FPU_PRESENT=1 -D STM32F407VG
  27              	@ -D RUN_FROM_FLASH=1 src/stm32f4_discovery.c -mthumb -mcpu=cortex-m4
  28              	@ -mfloat-abi=hard -mfpu=fpv4-sp-d16 -auxbase-strip src/stm32f4_discovery.o
  29              	@ -gdwarf-2 -O2 -Wall -Wstrict-prototypes -fverbose-asm -ffunction-sections
  30              	@ -fdata-sections
  31              	@ options enabled:  -fauto-inc-dec -fbranch-count-reg -fcaller-saves
  32              	@ -fcombine-stack-adjustments -fcommon -fcompare-elim -fcprop-registers
  33              	@ -fcrossjumping -fcse-follow-jumps -fdata-sections -fdebug-types-section
  34              	@ -fdefer-pop -fdelete-null-pointer-checks -fdevirtualize -fdwarf2-cfi-asm
  35              	@ -fearly-inlining -feliminate-unused-debug-types -fexpensive-optimizations
  36              	@ -fforward-propagate -ffunction-cse -ffunction-sections -fgcse -fgcse-lm
  37              	@ -fgnu-runtime -fguess-branch-probability -fident -fif-conversion
  38              	@ -fif-conversion2 -findirect-inlining -finline -finline-atomics
  39              	@ -finline-functions-called-once -finline-small-functions -fipa-cp
  40              	@ -fipa-profile -fipa-pure-const -fipa-reference -fipa-sra
  41              	@ -fira-share-save-slots -fira-share-spill-slots -fivopts
  42              	@ -fkeep-static-consts -fleading-underscore -fmath-errno -fmerge-constants
  43              	@ -fmerge-debug-strings -fmove-loop-invariants -fomit-frame-pointer
  44              	@ -foptimize-register-move -foptimize-sibling-calls -foptimize-strlen
  45              	@ -fpartial-inlining -fpeephole -fpeephole2 -fprefetch-loop-arrays
  46              	@ -freg-struct-return -fregmove -frename-registers -freorder-blocks
  47              	@ -freorder-functions -frerun-cse-after-loop
  48              	@ -fsched-critical-path-heuristic -fsched-dep-count-heuristic
  49              	@ -fsched-group-heuristic -fsched-interblock -fsched-last-insn-heuristic
  50              	@ -fsched-rank-heuristic -fsched-spec -fsched-spec-insn-heuristic
  51              	@ -fsched-stalled-insns-dep -fschedule-insns -fschedule-insns2
  52              	@ -fsection-anchors -fshow-column -fshrink-wrap -fsigned-zeros
  53              	@ -fsplit-ivs-in-unroller -fsplit-wide-types -fstrict-aliasing
  54              	@ -fstrict-overflow -fstrict-volatile-bitfields -fthread-jumps
  55              	@ -ftoplevel-reorder -ftrapping-math -ftree-bit-ccp -ftree-builtin-call-dce
  56              	@ -ftree-ccp -ftree-ch -ftree-copy-prop -ftree-copyrename -ftree-cselim
  57              	@ -ftree-dce -ftree-dominator-opts -ftree-dse -ftree-forwprop -ftree-fre
ARM GAS  C:\Users\CNous\AppData\Local\Temp\ccXtjCpn.s 			page 2


  58              	@ -ftree-loop-if-convert -ftree-loop-im -ftree-loop-ivcanon
  59              	@ -ftree-loop-optimize -ftree-parallelize-loops= -ftree-phiprop -ftree-pre
  60              	@ -ftree-pta -ftree-reassoc -ftree-scev-cprop -ftree-sink
  61              	@ -ftree-slp-vectorize -ftree-sra -ftree-switch-conversion
  62              	@ -ftree-tail-merge -ftree-ter -ftree-vect-loop-version -ftree-vrp
  63              	@ -funit-at-a-time -funroll-loops -fvar-tracking -fvar-tracking-assignments
  64              	@ -fverbose-asm -fweb -fzero-initialized-in-bss -mlittle-endian
  65              	@ -msched-prolog -mthumb -munaligned-access -mvectorize-with-neon-quad
  66              	
  67              		.text
  68              	.Ltext0:
  69              		.cfi_sections	.debug_frame
  70              		.section	.text.STM_EVAL_LEDInit,"ax",%progbits
  71              		.align	2
  72              		.global	STM_EVAL_LEDInit
  73              		.thumb
  74              		.thumb_func
  75              		.type	STM_EVAL_LEDInit, %function
  76              	STM_EVAL_LEDInit:
  77              	.LFB110:
  78              		.file 1 "src/stm32f4_discovery.c"
   1:src/stm32f4_discovery.c **** /**
   2:src/stm32f4_discovery.c ****   ******************************************************************************
   3:src/stm32f4_discovery.c ****   * @file    stm32f4_discovery.c
   4:src/stm32f4_discovery.c ****   * @author  MCD Application Team
   5:src/stm32f4_discovery.c ****   * @version V1.1.0
   6:src/stm32f4_discovery.c ****   * @date    28-October-2011
   7:src/stm32f4_discovery.c ****   * @brief   This file provides set of firmware functions to manage Leds and
   8:src/stm32f4_discovery.c ****   *          push-button available on STM32F4-Discovery Kit from STMicroelectronics.
   9:src/stm32f4_discovery.c ****   ******************************************************************************
  10:src/stm32f4_discovery.c ****   * @attention
  11:src/stm32f4_discovery.c ****   *
  12:src/stm32f4_discovery.c ****   * THE PRESENT FIRMWARE WHICH IS FOR GUIDANCE ONLY AIMS AT PROVIDING CUSTOMERS
  13:src/stm32f4_discovery.c ****   * WITH CODING INFORMATION REGARDING THEIR PRODUCTS IN ORDER FOR THEM TO SAVE
  14:src/stm32f4_discovery.c ****   * TIME. AS A RESULT, STMICROELECTRONICS SHALL NOT BE HELD LIABLE FOR ANY
  15:src/stm32f4_discovery.c ****   * DIRECT, INDIRECT OR CONSEQUENTIAL DAMAGES WITH RESPECT TO ANY CLAIMS ARISING
  16:src/stm32f4_discovery.c ****   * FROM THE CONTENT OF SUCH FIRMWARE AND/OR THE USE MADE BY CUSTOMERS OF THE
  17:src/stm32f4_discovery.c ****   * CODING INFORMATION CONTAINED HEREIN IN CONNECTION WITH THEIR PRODUCTS.
  18:src/stm32f4_discovery.c ****   *
  19:src/stm32f4_discovery.c ****   * <h2><center>&copy; COPYRIGHT 2011 STMicroelectronics</center></h2>
  20:src/stm32f4_discovery.c ****   ******************************************************************************
  21:src/stm32f4_discovery.c ****   */ 
  22:src/stm32f4_discovery.c ****   
  23:src/stm32f4_discovery.c **** /* Includes ------------------------------------------------------------------*/
  24:src/stm32f4_discovery.c **** 
  25:src/stm32f4_discovery.c **** #include "stm32f4_discovery.h"
  26:src/stm32f4_discovery.c **** #include "main.h"
  27:src/stm32f4_discovery.c **** 
  28:src/stm32f4_discovery.c **** /** @addtogroup Utilities
  29:src/stm32f4_discovery.c ****   * @{
  30:src/stm32f4_discovery.c ****   */ 
  31:src/stm32f4_discovery.c **** 
  32:src/stm32f4_discovery.c **** /** @addtogroup STM32F4_DISCOVERY
  33:src/stm32f4_discovery.c ****   * @{
  34:src/stm32f4_discovery.c ****   */   
  35:src/stm32f4_discovery.c ****     
  36:src/stm32f4_discovery.c **** /** @defgroup STM32F4_DISCOVERY_LOW_LEVEL 
ARM GAS  C:\Users\CNous\AppData\Local\Temp\ccXtjCpn.s 			page 3


  37:src/stm32f4_discovery.c ****   * @brief This file provides set of firmware functions to manage Leds and push-button
  38:src/stm32f4_discovery.c ****   *        available on STM32F4-Discovery Kit from STMicroelectronics.
  39:src/stm32f4_discovery.c ****   * @{
  40:src/stm32f4_discovery.c ****   */ 
  41:src/stm32f4_discovery.c **** 
  42:src/stm32f4_discovery.c **** /** @defgroup STM32F4_DISCOVERY_LOW_LEVEL_Private_TypesDefinitions
  43:src/stm32f4_discovery.c ****   * @{
  44:src/stm32f4_discovery.c ****   */ 
  45:src/stm32f4_discovery.c **** /**
  46:src/stm32f4_discovery.c ****   * @}
  47:src/stm32f4_discovery.c ****   */ 
  48:src/stm32f4_discovery.c **** 
  49:src/stm32f4_discovery.c **** 
  50:src/stm32f4_discovery.c **** /** @defgroup STM32F4_DISCOVERY_LOW_LEVEL_Private_Defines
  51:src/stm32f4_discovery.c ****   * @{
  52:src/stm32f4_discovery.c ****   */ 
  53:src/stm32f4_discovery.c **** /**
  54:src/stm32f4_discovery.c ****   * @}
  55:src/stm32f4_discovery.c ****   */ 
  56:src/stm32f4_discovery.c **** 
  57:src/stm32f4_discovery.c **** 
  58:src/stm32f4_discovery.c **** /** @defgroup STM32F4_DISCOVERY_LOW_LEVEL_Private_Macros
  59:src/stm32f4_discovery.c ****   * @{
  60:src/stm32f4_discovery.c ****   */ 
  61:src/stm32f4_discovery.c **** /**
  62:src/stm32f4_discovery.c ****   * @}
  63:src/stm32f4_discovery.c ****   */ 
  64:src/stm32f4_discovery.c **** 
  65:src/stm32f4_discovery.c **** 
  66:src/stm32f4_discovery.c **** /** @defgroup STM32F4_DISCOVERY_LOW_LEVEL_Private_Variables
  67:src/stm32f4_discovery.c ****   * @{
  68:src/stm32f4_discovery.c ****   */ 
  69:src/stm32f4_discovery.c **** GPIO_TypeDef* GPIO_PORT[LEDn] = {LED4_GPIO_PORT, LED3_GPIO_PORT, LED5_GPIO_PORT,
  70:src/stm32f4_discovery.c ****                                  LED6_GPIO_PORT};
  71:src/stm32f4_discovery.c **** const uint16_t GPIO_PIN[LEDn] = {LED4_PIN, LED3_PIN, LED5_PIN,
  72:src/stm32f4_discovery.c ****                                  LED6_PIN};
  73:src/stm32f4_discovery.c **** const uint32_t GPIO_CLK[LEDn] = {LED4_GPIO_CLK, LED3_GPIO_CLK, LED5_GPIO_CLK,
  74:src/stm32f4_discovery.c ****                                  LED6_GPIO_CLK};
  75:src/stm32f4_discovery.c **** 
  76:src/stm32f4_discovery.c **** GPIO_TypeDef* BUTTON_PORT[BUTTONn] = {USER_BUTTON_GPIO_PORT }; 
  77:src/stm32f4_discovery.c **** 
  78:src/stm32f4_discovery.c **** const uint16_t BUTTON_PIN[BUTTONn] = {USER_BUTTON_PIN }; 
  79:src/stm32f4_discovery.c **** 
  80:src/stm32f4_discovery.c **** const uint32_t BUTTON_CLK[BUTTONn] = {USER_BUTTON_GPIO_CLK };
  81:src/stm32f4_discovery.c **** 
  82:src/stm32f4_discovery.c **** const uint16_t BUTTON_EXTI_LINE[BUTTONn] = {USER_BUTTON_EXTI_LINE };
  83:src/stm32f4_discovery.c **** 
  84:src/stm32f4_discovery.c **** const uint8_t BUTTON_PORT_SOURCE[BUTTONn] = {USER_BUTTON_EXTI_PORT_SOURCE};
  85:src/stm32f4_discovery.c **** 								 
  86:src/stm32f4_discovery.c **** const uint8_t BUTTON_PIN_SOURCE[BUTTONn] = {USER_BUTTON_EXTI_PIN_SOURCE }; 
  87:src/stm32f4_discovery.c **** const uint8_t BUTTON_IRQn[BUTTONn] = {USER_BUTTON_EXTI_IRQn };
  88:src/stm32f4_discovery.c **** 
  89:src/stm32f4_discovery.c **** NVIC_InitTypeDef   NVIC_InitStructure;
  90:src/stm32f4_discovery.c **** 
  91:src/stm32f4_discovery.c **** /**
  92:src/stm32f4_discovery.c ****   * @}
  93:src/stm32f4_discovery.c ****   */ 
ARM GAS  C:\Users\CNous\AppData\Local\Temp\ccXtjCpn.s 			page 4


  94:src/stm32f4_discovery.c **** 
  95:src/stm32f4_discovery.c **** 
  96:src/stm32f4_discovery.c **** /** @defgroup STM32F4_DISCOVERY_LOW_LEVEL_Private_FunctionPrototypes
  97:src/stm32f4_discovery.c ****   * @{
  98:src/stm32f4_discovery.c ****   */ 
  99:src/stm32f4_discovery.c **** 
 100:src/stm32f4_discovery.c **** /**
 101:src/stm32f4_discovery.c ****   * @}
 102:src/stm32f4_discovery.c ****   */ 
 103:src/stm32f4_discovery.c **** 
 104:src/stm32f4_discovery.c **** /** @defgroup STM32F4_DISCOVERY_LOW_LEVEL_Private_Functions
 105:src/stm32f4_discovery.c ****   * @{
 106:src/stm32f4_discovery.c ****   */ 
 107:src/stm32f4_discovery.c **** 
 108:src/stm32f4_discovery.c **** /**
 109:src/stm32f4_discovery.c ****   * @brief  Configures LED GPIO.
 110:src/stm32f4_discovery.c ****   * @param  Led: Specifies the Led to be configured. 
 111:src/stm32f4_discovery.c ****   *   This parameter can be one of following parameters:
 112:src/stm32f4_discovery.c ****   *     @arg LED4
 113:src/stm32f4_discovery.c ****   *     @arg LED3
 114:src/stm32f4_discovery.c ****   *     @arg LED5
 115:src/stm32f4_discovery.c ****   *     @arg LED6
 116:src/stm32f4_discovery.c ****   * @retval None
 117:src/stm32f4_discovery.c ****   */
 118:src/stm32f4_discovery.c **** void STM_EVAL_LEDInit(Led_TypeDef Led)
 119:src/stm32f4_discovery.c **** {
  79              		.loc 1 119 0
  80              		.cfi_startproc
  81              		@ args = 0, pretend = 0, frame = 8
  82              		@ frame_needed = 0, uses_anonymous_args = 0
  83              	.LVL0:
  84 0000 10B5     		push	{r4, lr}	@
  85              	.LCFI0:
  86              		.cfi_def_cfa_offset 8
  87              		.cfi_offset 4, -8
  88              		.cfi_offset 14, -4
 120:src/stm32f4_discovery.c ****   GPIO_InitTypeDef  GPIO_InitStructure;
 121:src/stm32f4_discovery.c ****   
 122:src/stm32f4_discovery.c ****   /* Enable the GPIO_LED Clock */
 123:src/stm32f4_discovery.c ****   RCC_AHB1PeriphClockCmd(GPIO_CLK[Led], ENABLE);
  89              		.loc 1 123 0
  90 0002 40F20003 		movw	r3, #:lower16:.LANCHOR0	@ tmp155,
  91 0006 C0F20003 		movt	r3, #:upper16:.LANCHOR0	@ tmp155,
 119:src/stm32f4_discovery.c **** {
  92              		.loc 1 119 0
  93 000a 82B0     		sub	sp, sp, #8	@,,
  94              	.LCFI1:
  95              		.cfi_def_cfa_offset 16
 119:src/stm32f4_discovery.c **** {
  96              		.loc 1 119 0
  97 000c 0446     		mov	r4, r0	@ Led, Led
  98              		.loc 1 123 0
  99 000e 0121     		movs	r1, #1	@,
 100 0010 53F82000 		ldr	r0, [r3, r0, lsl #2]	@, GPIO_CLK
 101              	.LVL1:
 102 0014 FFF7FEFF 		bl	RCC_AHB1PeriphClockCmd	@
 103              	.LVL2:
ARM GAS  C:\Users\CNous\AppData\Local\Temp\ccXtjCpn.s 			page 5


 124:src/stm32f4_discovery.c **** 
 125:src/stm32f4_discovery.c ****   /* Configure the GPIO_LED pin */
 126:src/stm32f4_discovery.c ****   GPIO_InitStructure.GPIO_Pin = GPIO_PIN[Led];
 104              		.loc 1 126 0
 105 0018 40F20002 		movw	r2, #:lower16:.LANCHOR1	@ tmp156,
 106 001c C0F20002 		movt	r2, #:upper16:.LANCHOR1	@ tmp156,
 127:src/stm32f4_discovery.c ****   GPIO_InitStructure.GPIO_Mode = GPIO_Mode_OUT;
 128:src/stm32f4_discovery.c ****   GPIO_InitStructure.GPIO_OType = GPIO_OType_PP;
 129:src/stm32f4_discovery.c ****   GPIO_InitStructure.GPIO_PuPd = GPIO_PuPd_UP;
 130:src/stm32f4_discovery.c ****   GPIO_InitStructure.GPIO_Speed = GPIO_Speed_50MHz;
 131:src/stm32f4_discovery.c ****   GPIO_Init(GPIO_PORT[Led], &GPIO_InitStructure);
 107              		.loc 1 131 0
 108 0020 40F20000 		movw	r0, #:lower16:.LANCHOR2	@ tmp157,
 126:src/stm32f4_discovery.c ****   GPIO_InitStructure.GPIO_Pin = GPIO_PIN[Led];
 109              		.loc 1 126 0
 110 0024 32F81410 		ldrh	r1, [r2, r4, lsl #1]	@ tmp143, GPIO_PIN
 111              		.loc 1 131 0
 112 0028 C0F20000 		movt	r0, #:upper16:.LANCHOR2	@ tmp157,
 127:src/stm32f4_discovery.c ****   GPIO_InitStructure.GPIO_Mode = GPIO_Mode_OUT;
 113              		.loc 1 127 0
 114 002c 0123     		movs	r3, #1	@ tmp144,
 126:src/stm32f4_discovery.c ****   GPIO_InitStructure.GPIO_Pin = GPIO_PIN[Led];
 115              		.loc 1 126 0
 116 002e 0091     		str	r1, [sp, #0]	@ tmp143, GPIO_InitStructure.GPIO_Pin
 127:src/stm32f4_discovery.c ****   GPIO_InitStructure.GPIO_Mode = GPIO_Mode_OUT;
 117              		.loc 1 127 0
 118 0030 8DF80430 		strb	r3, [sp, #4]	@ tmp144, GPIO_InitStructure.GPIO_Mode
 128:src/stm32f4_discovery.c ****   GPIO_InitStructure.GPIO_OType = GPIO_OType_PP;
 119              		.loc 1 128 0
 120 0034 0022     		movs	r2, #0	@ tmp146,
 129:src/stm32f4_discovery.c ****   GPIO_InitStructure.GPIO_PuPd = GPIO_PuPd_UP;
 121              		.loc 1 129 0
 122 0036 8DF80730 		strb	r3, [sp, #7]	@ tmp144, GPIO_InitStructure.GPIO_PuPd
 123              		.loc 1 131 0
 124 003a 50F82400 		ldr	r0, [r0, r4, lsl #2]	@, GPIO_PORT
 128:src/stm32f4_discovery.c ****   GPIO_InitStructure.GPIO_OType = GPIO_OType_PP;
 125              		.loc 1 128 0
 126 003e 8DF80620 		strb	r2, [sp, #6]	@ tmp146, GPIO_InitStructure.GPIO_OType
 130:src/stm32f4_discovery.c ****   GPIO_InitStructure.GPIO_Speed = GPIO_Speed_50MHz;
 127              		.loc 1 130 0
 128 0042 0223     		movs	r3, #2	@ tmp150,
 129              		.loc 1 131 0
 130 0044 6946     		mov	r1, sp	@,
 130:src/stm32f4_discovery.c ****   GPIO_InitStructure.GPIO_Speed = GPIO_Speed_50MHz;
 131              		.loc 1 130 0
 132 0046 8DF80530 		strb	r3, [sp, #5]	@ tmp150, GPIO_InitStructure.GPIO_Speed
 133              		.loc 1 131 0
 134 004a FFF7FEFF 		bl	GPIO_Init	@
 135              	.LVL3:
 132:src/stm32f4_discovery.c **** }
 136              		.loc 1 132 0
 137 004e 02B0     		add	sp, sp, #8	@,,
 138 0050 10BD     		pop	{r4, pc}
 139              		.cfi_endproc
 140              	.LFE110:
 141              		.size	STM_EVAL_LEDInit, .-STM_EVAL_LEDInit
 142 0052 00BF     		.section	.text.STM_EVAL_LEDOn,"ax",%progbits
ARM GAS  C:\Users\CNous\AppData\Local\Temp\ccXtjCpn.s 			page 6


 143              		.align	2
 144              		.global	STM_EVAL_LEDOn
 145              		.thumb
 146              		.thumb_func
 147              		.type	STM_EVAL_LEDOn, %function
 148              	STM_EVAL_LEDOn:
 149              	.LFB111:
 133:src/stm32f4_discovery.c **** 
 134:src/stm32f4_discovery.c **** /**
 135:src/stm32f4_discovery.c ****   * @brief  Turns selected LED On.
 136:src/stm32f4_discovery.c ****   * @param  Led: Specifies the Led to be set on. 
 137:src/stm32f4_discovery.c ****   *   This parameter can be one of following parameters:
 138:src/stm32f4_discovery.c ****   *     @arg LED4
 139:src/stm32f4_discovery.c ****   *     @arg LED3
 140:src/stm32f4_discovery.c ****   *     @arg LED5
 141:src/stm32f4_discovery.c ****   *     @arg LED6  
 142:src/stm32f4_discovery.c ****   * @retval None
 143:src/stm32f4_discovery.c ****   */
 144:src/stm32f4_discovery.c **** void STM_EVAL_LEDOn(Led_TypeDef Led)
 145:src/stm32f4_discovery.c **** {
 150              		.loc 1 145 0
 151              		.cfi_startproc
 152              		@ args = 0, pretend = 0, frame = 0
 153              		@ frame_needed = 0, uses_anonymous_args = 0
 154              		@ link register save eliminated.
 155              	.LVL4:
 146:src/stm32f4_discovery.c ****   GPIO_PORT[Led]->BSRRL = GPIO_PIN[Led];
 156              		.loc 1 146 0
 157 0000 40F20002 		movw	r2, #:lower16:.LANCHOR2	@ tmp141,
 158 0004 40F20003 		movw	r3, #:lower16:.LANCHOR1	@ tmp142,
 159 0008 C0F20002 		movt	r2, #:upper16:.LANCHOR2	@ tmp141,
 160 000c C0F20003 		movt	r3, #:upper16:.LANCHOR1	@ tmp142,
 161 0010 52F82010 		ldr	r1, [r2, r0, lsl #2]	@ D.8473, GPIO_PORT
 162 0014 33F81000 		ldrh	r0, [r3, r0, lsl #1]	@ D.8474, GPIO_PIN
 163              	.LVL5:
 164 0018 0883     		strh	r0, [r1, #24]	@ movhi	@ D.8474, D.8473_3->BSRRL
 165 001a 7047     		bx	lr	@
 166              		.cfi_endproc
 167              	.LFE111:
 168              		.size	STM_EVAL_LEDOn, .-STM_EVAL_LEDOn
 169              		.section	.text.STM_EVAL_LEDOff,"ax",%progbits
 170              		.align	2
 171              		.global	STM_EVAL_LEDOff
 172              		.thumb
 173              		.thumb_func
 174              		.type	STM_EVAL_LEDOff, %function
 175              	STM_EVAL_LEDOff:
 176              	.LFB112:
 147:src/stm32f4_discovery.c **** }
 148:src/stm32f4_discovery.c **** 
 149:src/stm32f4_discovery.c **** /**
 150:src/stm32f4_discovery.c ****   * @brief  Turns selected LED Off.
 151:src/stm32f4_discovery.c ****   * @param  Led: Specifies the Led to be set off. 
 152:src/stm32f4_discovery.c ****   *   This parameter can be one of following parameters:
 153:src/stm32f4_discovery.c ****   *     @arg LED4
 154:src/stm32f4_discovery.c ****   *     @arg LED3
 155:src/stm32f4_discovery.c ****   *     @arg LED5
ARM GAS  C:\Users\CNous\AppData\Local\Temp\ccXtjCpn.s 			page 7


 156:src/stm32f4_discovery.c ****   *     @arg LED6 
 157:src/stm32f4_discovery.c ****   * @retval None
 158:src/stm32f4_discovery.c ****   */
 159:src/stm32f4_discovery.c **** void STM_EVAL_LEDOff(Led_TypeDef Led)
 160:src/stm32f4_discovery.c **** {
 177              		.loc 1 160 0
 178              		.cfi_startproc
 179              		@ args = 0, pretend = 0, frame = 0
 180              		@ frame_needed = 0, uses_anonymous_args = 0
 181              		@ link register save eliminated.
 182              	.LVL6:
 161:src/stm32f4_discovery.c ****   GPIO_PORT[Led]->BSRRH = GPIO_PIN[Led];  
 183              		.loc 1 161 0
 184 0000 40F20002 		movw	r2, #:lower16:.LANCHOR2	@ tmp141,
 185 0004 40F20003 		movw	r3, #:lower16:.LANCHOR1	@ tmp142,
 186 0008 C0F20002 		movt	r2, #:upper16:.LANCHOR2	@ tmp141,
 187 000c C0F20003 		movt	r3, #:upper16:.LANCHOR1	@ tmp142,
 188 0010 52F82010 		ldr	r1, [r2, r0, lsl #2]	@ D.8470, GPIO_PORT
 189 0014 33F81000 		ldrh	r0, [r3, r0, lsl #1]	@ D.8471, GPIO_PIN
 190              	.LVL7:
 191 0018 4883     		strh	r0, [r1, #26]	@ movhi	@ D.8471, D.8470_3->BSRRH
 192 001a 7047     		bx	lr	@
 193              		.cfi_endproc
 194              	.LFE112:
 195              		.size	STM_EVAL_LEDOff, .-STM_EVAL_LEDOff
 196              		.section	.text.STM_EVAL_LEDToggle,"ax",%progbits
 197              		.align	2
 198              		.global	STM_EVAL_LEDToggle
 199              		.thumb
 200              		.thumb_func
 201              		.type	STM_EVAL_LEDToggle, %function
 202              	STM_EVAL_LEDToggle:
 203              	.LFB113:
 162:src/stm32f4_discovery.c **** }
 163:src/stm32f4_discovery.c **** 
 164:src/stm32f4_discovery.c **** /**
 165:src/stm32f4_discovery.c ****   * @brief  Toggles the selected LED.
 166:src/stm32f4_discovery.c ****   * @param  Led: Specifies the Led to be toggled. 
 167:src/stm32f4_discovery.c ****   *   This parameter can be one of following parameters:
 168:src/stm32f4_discovery.c ****   *     @arg LED4
 169:src/stm32f4_discovery.c ****   *     @arg LED3
 170:src/stm32f4_discovery.c ****   *     @arg LED5
 171:src/stm32f4_discovery.c ****   *     @arg LED6  
 172:src/stm32f4_discovery.c ****   * @retval None
 173:src/stm32f4_discovery.c ****   */
 174:src/stm32f4_discovery.c **** void STM_EVAL_LEDToggle(Led_TypeDef Led)
 175:src/stm32f4_discovery.c **** {
 204              		.loc 1 175 0
 205              		.cfi_startproc
 206              		@ args = 0, pretend = 0, frame = 0
 207              		@ frame_needed = 0, uses_anonymous_args = 0
 208              		@ link register save eliminated.
 209              	.LVL8:
 176:src/stm32f4_discovery.c ****   GPIO_PORT[Led]->ODR ^= GPIO_PIN[Led];
 210              		.loc 1 176 0
 211 0000 40F20003 		movw	r3, #:lower16:.LANCHOR2	@ tmp144,
 212 0004 C0F20003 		movt	r3, #:upper16:.LANCHOR2	@ tmp144,
ARM GAS  C:\Users\CNous\AppData\Local\Temp\ccXtjCpn.s 			page 8


 213 0008 40F20002 		movw	r2, #:lower16:.LANCHOR1	@ tmp145,
 214 000c 53F82030 		ldr	r3, [r3, r0, lsl #2]	@ D.8464, GPIO_PORT
 215 0010 C0F20002 		movt	r2, #:upper16:.LANCHOR1	@ tmp145,
 216 0014 5969     		ldr	r1, [r3, #20]	@ D.8465, D.8464_5->ODR
 217 0016 32F81000 		ldrh	r0, [r2, r0, lsl #1]	@ tmp143, GPIO_PIN
 218              	.LVL9:
 219 001a 4840     		eors	r0, r0, r1	@, D.8468, tmp143, D.8465
 220 001c 5861     		str	r0, [r3, #20]	@ D.8468, D.8464_5->ODR
 221 001e 7047     		bx	lr	@
 222              		.cfi_endproc
 223              	.LFE113:
 224              		.size	STM_EVAL_LEDToggle, .-STM_EVAL_LEDToggle
 225              		.section	.text.STM_EVAL_PBInit,"ax",%progbits
 226              		.align	2
 227              		.global	STM_EVAL_PBInit
 228              		.thumb
 229              		.thumb_func
 230              		.type	STM_EVAL_PBInit, %function
 231              	STM_EVAL_PBInit:
 232              	.LFB114:
 177:src/stm32f4_discovery.c **** }
 178:src/stm32f4_discovery.c **** 
 179:src/stm32f4_discovery.c **** /**
 180:src/stm32f4_discovery.c ****   * @brief  Configures Button GPIO and EXTI Line.
 181:src/stm32f4_discovery.c ****   * @param  Button: Specifies the Button to be configured.
 182:src/stm32f4_discovery.c ****   *   This parameter should be: BUTTON_USER
 183:src/stm32f4_discovery.c ****   * @param  Button_Mode: Specifies Button mode.
 184:src/stm32f4_discovery.c ****   *   This parameter can be one of following parameters:   
 185:src/stm32f4_discovery.c ****   *     @arg BUTTON_MODE_GPIO: Button will be used as simple IO 
 186:src/stm32f4_discovery.c ****   *     @arg BUTTON_MODE_EXTI: Button will be connected to EXTI line with interrupt
 187:src/stm32f4_discovery.c ****   *                            generation capability  
 188:src/stm32f4_discovery.c ****   * @retval None
 189:src/stm32f4_discovery.c ****   */
 190:src/stm32f4_discovery.c **** void STM_EVAL_PBInit(Button_TypeDef Button, ButtonMode_TypeDef Button_Mode)
 191:src/stm32f4_discovery.c **** {
 233              		.loc 1 191 0
 234              		.cfi_startproc
 235              		@ args = 0, pretend = 0, frame = 24
 236              		@ frame_needed = 0, uses_anonymous_args = 0
 237              	.LVL10:
 238 0000 70B5     		push	{r4, r5, r6, lr}	@
 239              	.LCFI2:
 240              		.cfi_def_cfa_offset 16
 241              		.cfi_offset 4, -16
 242              		.cfi_offset 5, -12
 243              		.cfi_offset 6, -8
 244              		.cfi_offset 14, -4
 245 0002 0646     		mov	r6, r0	@ Button, Button
 192:src/stm32f4_discovery.c ****   GPIO_InitTypeDef GPIO_InitStructure;
 193:src/stm32f4_discovery.c ****   EXTI_InitTypeDef EXTI_InitStructure;
 194:src/stm32f4_discovery.c ****   NVIC_InitTypeDef NVIC_InitStructure;
 195:src/stm32f4_discovery.c **** 
 196:src/stm32f4_discovery.c ****   /* Enable the BUTTON Clock */
 197:src/stm32f4_discovery.c ****   RCC_AHB1PeriphClockCmd(BUTTON_CLK[Button], ENABLE);
 246              		.loc 1 197 0
 247 0004 0120     		movs	r0, #1	@,
 248              	.LVL11:
ARM GAS  C:\Users\CNous\AppData\Local\Temp\ccXtjCpn.s 			page 9


 191:src/stm32f4_discovery.c **** {
 249              		.loc 1 191 0
 250 0006 86B0     		sub	sp, sp, #24	@,,
 251              	.LCFI3:
 252              		.cfi_def_cfa_offset 40
 191:src/stm32f4_discovery.c **** {
 253              		.loc 1 191 0
 254 0008 0D46     		mov	r5, r1	@ Button_Mode, Button_Mode
 255              		.loc 1 197 0
 256 000a 0146     		mov	r1, r0	@,
 257              	.LVL12:
 258 000c FFF7FEFF 		bl	RCC_AHB1PeriphClockCmd	@
 259              	.LVL13:
 198:src/stm32f4_discovery.c ****   RCC_APB2PeriphClockCmd(RCC_APB2Periph_SYSCFG, ENABLE);
 260              		.loc 1 198 0
 261 0010 0121     		movs	r1, #1	@,
 262 0012 4FF48040 		mov	r0, #16384	@,
 263 0016 FFF7FEFF 		bl	RCC_APB2PeriphClockCmd	@
 264              	.LVL14:
 199:src/stm32f4_discovery.c **** 
 200:src/stm32f4_discovery.c ****   /* Configure Button pin as input */
 201:src/stm32f4_discovery.c ****   GPIO_InitStructure.GPIO_Mode = GPIO_Mode_IN;
 202:src/stm32f4_discovery.c ****   GPIO_InitStructure.GPIO_PuPd = GPIO_PuPd_NOPULL;
 203:src/stm32f4_discovery.c ****   GPIO_InitStructure.GPIO_Pin = BUTTON_PIN[Button];
 265              		.loc 1 203 0
 266 001a 06A9     		add	r1, sp, #24	@ tmp145,,
 204:src/stm32f4_discovery.c ****   GPIO_Init(BUTTON_PORT[Button], &GPIO_InitStructure);
 267              		.loc 1 204 0
 268 001c 1648     		ldr	r0, .L9	@ tmp143,
 203:src/stm32f4_discovery.c ****   GPIO_InitStructure.GPIO_Pin = BUTTON_PIN[Button];
 269              		.loc 1 203 0
 270 001e 0122     		movs	r2, #1	@ tmp142,
 201:src/stm32f4_discovery.c ****   GPIO_InitStructure.GPIO_Mode = GPIO_Mode_IN;
 271              		.loc 1 201 0
 272 0020 0024     		movs	r4, #0	@ tmp138,
 203:src/stm32f4_discovery.c ****   GPIO_InitStructure.GPIO_Pin = BUTTON_PIN[Button];
 273              		.loc 1 203 0
 274 0022 41F8102D 		str	r2, [r1, #-16]!	@ tmp142, GPIO_InitStructure.GPIO_Pin
 275              		.loc 1 204 0
 276 0026 50F82600 		ldr	r0, [r0, r6, lsl #2]	@, BUTTON_PORT
 201:src/stm32f4_discovery.c ****   GPIO_InitStructure.GPIO_Mode = GPIO_Mode_IN;
 277              		.loc 1 201 0
 278 002a 8DF80C40 		strb	r4, [sp, #12]	@ tmp138, GPIO_InitStructure.GPIO_Mode
 202:src/stm32f4_discovery.c ****   GPIO_InitStructure.GPIO_PuPd = GPIO_PuPd_NOPULL;
 279              		.loc 1 202 0
 280 002e 8DF80F40 		strb	r4, [sp, #15]	@ tmp138, GPIO_InitStructure.GPIO_PuPd
 281              		.loc 1 204 0
 282 0032 FFF7FEFF 		bl	GPIO_Init	@
 283              	.LVL15:
 205:src/stm32f4_discovery.c **** 
 206:src/stm32f4_discovery.c ****   if (Button_Mode == BUTTON_MODE_EXTI)
 284              		.loc 1 206 0
 285 0036 012D     		cmp	r5, #1	@ Button_Mode,
 286 0038 01D0     		beq	.L8	@,
 287              	.L5:
 207:src/stm32f4_discovery.c ****   {
 208:src/stm32f4_discovery.c ****     /* Connect Button EXTI Line to Button GPIO Pin */
ARM GAS  C:\Users\CNous\AppData\Local\Temp\ccXtjCpn.s 			page 10


 209:src/stm32f4_discovery.c ****     SYSCFG_EXTILineConfig(BUTTON_PORT_SOURCE[Button], BUTTON_PIN_SOURCE[Button]);
 210:src/stm32f4_discovery.c **** 
 211:src/stm32f4_discovery.c ****     /* Configure Button EXTI line */
 212:src/stm32f4_discovery.c ****     EXTI_InitStructure.EXTI_Line = BUTTON_EXTI_LINE[Button];
 213:src/stm32f4_discovery.c ****     EXTI_InitStructure.EXTI_Mode = EXTI_Mode_Interrupt;
 214:src/stm32f4_discovery.c ****     EXTI_InitStructure.EXTI_Trigger = EXTI_Trigger_Rising;  
 215:src/stm32f4_discovery.c ****     EXTI_InitStructure.EXTI_LineCmd = ENABLE;
 216:src/stm32f4_discovery.c ****     EXTI_Init(&EXTI_InitStructure);
 217:src/stm32f4_discovery.c **** 
 218:src/stm32f4_discovery.c ****     /* Enable and set Button EXTI Interrupt to the lowest priority */
 219:src/stm32f4_discovery.c ****     NVIC_InitStructure.NVIC_IRQChannel = BUTTON_IRQn[Button];
 220:src/stm32f4_discovery.c ****     NVIC_InitStructure.NVIC_IRQChannelPreemptionPriority = 0x0F;
 221:src/stm32f4_discovery.c ****     NVIC_InitStructure.NVIC_IRQChannelSubPriority = 0x0F;
 222:src/stm32f4_discovery.c ****     NVIC_InitStructure.NVIC_IRQChannelCmd = ENABLE;
 223:src/stm32f4_discovery.c **** 
 224:src/stm32f4_discovery.c ****     NVIC_Init(&NVIC_InitStructure); 
 225:src/stm32f4_discovery.c ****   }
 226:src/stm32f4_discovery.c **** }
 288              		.loc 1 226 0
 289 003a 06B0     		add	sp, sp, #24	@,,
 290 003c 70BD     		pop	{r4, r5, r6, pc}
 291              	.L8:
 209:src/stm32f4_discovery.c ****     SYSCFG_EXTILineConfig(BUTTON_PORT_SOURCE[Button], BUTTON_PIN_SOURCE[Button]);
 292              		.loc 1 209 0
 293 003e 2146     		mov	r1, r4	@, tmp138
 294 0040 2046     		mov	r0, r4	@, tmp138
 295 0042 FFF7FEFF 		bl	SYSCFG_EXTILineConfig	@
 296              	.LVL16:
 216:src/stm32f4_discovery.c ****     EXTI_Init(&EXTI_InitStructure);
 297              		.loc 1 216 0
 298 0046 04A8     		add	r0, sp, #16	@,,
 214:src/stm32f4_discovery.c ****     EXTI_InitStructure.EXTI_Trigger = EXTI_Trigger_Rising;  
 299              		.loc 1 214 0
 300 0048 0823     		movs	r3, #8	@ tmp149,
 212:src/stm32f4_discovery.c ****     EXTI_InitStructure.EXTI_Line = BUTTON_EXTI_LINE[Button];
 301              		.loc 1 212 0
 302 004a 0495     		str	r5, [sp, #16]	@ Button_Mode, EXTI_InitStructure.EXTI_Line
 213:src/stm32f4_discovery.c ****     EXTI_InitStructure.EXTI_Mode = EXTI_Mode_Interrupt;
 303              		.loc 1 213 0
 304 004c 8DF81440 		strb	r4, [sp, #20]	@ tmp138, EXTI_InitStructure.EXTI_Mode
 214:src/stm32f4_discovery.c ****     EXTI_InitStructure.EXTI_Trigger = EXTI_Trigger_Rising;  
 305              		.loc 1 214 0
 306 0050 8DF81530 		strb	r3, [sp, #21]	@ tmp149, EXTI_InitStructure.EXTI_Trigger
 215:src/stm32f4_discovery.c ****     EXTI_InitStructure.EXTI_LineCmd = ENABLE;
 307              		.loc 1 215 0
 308 0054 8DF81650 		strb	r5, [sp, #22]	@ Button_Mode, EXTI_InitStructure.EXTI_LineCmd
 216:src/stm32f4_discovery.c ****     EXTI_Init(&EXTI_InitStructure);
 309              		.loc 1 216 0
 310 0058 FFF7FEFF 		bl	EXTI_Init	@
 311              	.LVL17:
 220:src/stm32f4_discovery.c ****     NVIC_InitStructure.NVIC_IRQChannelPreemptionPriority = 0x0F;
 312              		.loc 1 220 0
 313 005c 0F21     		movs	r1, #15	@ tmp156,
 219:src/stm32f4_discovery.c ****     NVIC_InitStructure.NVIC_IRQChannel = BUTTON_IRQn[Button];
 314              		.loc 1 219 0
 315 005e 0622     		movs	r2, #6	@ tmp154,
 224:src/stm32f4_discovery.c ****     NVIC_Init(&NVIC_InitStructure); 
ARM GAS  C:\Users\CNous\AppData\Local\Temp\ccXtjCpn.s 			page 11


 316              		.loc 1 224 0
 317 0060 01A8     		add	r0, sp, #4	@,,
 219:src/stm32f4_discovery.c ****     NVIC_InitStructure.NVIC_IRQChannel = BUTTON_IRQn[Button];
 318              		.loc 1 219 0
 319 0062 8DF80420 		strb	r2, [sp, #4]	@ tmp154, NVIC_InitStructure.NVIC_IRQChannel
 220:src/stm32f4_discovery.c ****     NVIC_InitStructure.NVIC_IRQChannelPreemptionPriority = 0x0F;
 320              		.loc 1 220 0
 321 0066 8DF80510 		strb	r1, [sp, #5]	@ tmp156, NVIC_InitStructure.NVIC_IRQChannelPreemptionPriority
 221:src/stm32f4_discovery.c ****     NVIC_InitStructure.NVIC_IRQChannelSubPriority = 0x0F;
 322              		.loc 1 221 0
 323 006a 8DF80610 		strb	r1, [sp, #6]	@ tmp156, NVIC_InitStructure.NVIC_IRQChannelSubPriority
 222:src/stm32f4_discovery.c ****     NVIC_InitStructure.NVIC_IRQChannelCmd = ENABLE;
 324              		.loc 1 222 0
 325 006e 8DF80750 		strb	r5, [sp, #7]	@ Button_Mode, NVIC_InitStructure.NVIC_IRQChannelCmd
 224:src/stm32f4_discovery.c ****     NVIC_Init(&NVIC_InitStructure); 
 326              		.loc 1 224 0
 327 0072 FFF7FEFF 		bl	NVIC_Init	@
 328              	.LVL18:
 329 0076 E0E7     		b	.L5	@
 330              	.L10:
 331              		.align	2
 332              	.L9:
 333 0078 00000000 		.word	.LANCHOR3
 334              		.cfi_endproc
 335              	.LFE114:
 336              		.size	STM_EVAL_PBInit, .-STM_EVAL_PBInit
 337              		.section	.text.STM_EVAL_PBGetState,"ax",%progbits
 338              		.align	2
 339              		.global	STM_EVAL_PBGetState
 340              		.thumb
 341              		.thumb_func
 342              		.type	STM_EVAL_PBGetState, %function
 343              	STM_EVAL_PBGetState:
 344              	.LFB115:
 227:src/stm32f4_discovery.c **** 
 228:src/stm32f4_discovery.c **** /**
 229:src/stm32f4_discovery.c ****   * @brief  Returns the selected Button state.
 230:src/stm32f4_discovery.c ****   * @param  Button: Specifies the Button to be checked.
 231:src/stm32f4_discovery.c ****   *   This parameter should be: BUTTON_USER  
 232:src/stm32f4_discovery.c ****   * @retval The Button GPIO pin value.
 233:src/stm32f4_discovery.c ****   */
 234:src/stm32f4_discovery.c **** uint32_t STM_EVAL_PBGetState(Button_TypeDef Button)
 235:src/stm32f4_discovery.c **** {
 345              		.loc 1 235 0
 346              		.cfi_startproc
 347              		@ args = 0, pretend = 0, frame = 0
 348              		@ frame_needed = 0, uses_anonymous_args = 0
 349              	.LVL19:
 350 0000 08B5     		push	{r3, lr}	@
 351              	.LCFI4:
 352              		.cfi_def_cfa_offset 8
 353              		.cfi_offset 3, -8
 354              		.cfi_offset 14, -4
 236:src/stm32f4_discovery.c ****   return GPIO_ReadInputDataBit(BUTTON_PORT[Button], BUTTON_PIN[Button]);
 355              		.loc 1 236 0
 356 0002 40F20003 		movw	r3, #:lower16:.LANCHOR3	@ tmp144,
 357 0006 C0F20003 		movt	r3, #:upper16:.LANCHOR3	@ tmp144,
ARM GAS  C:\Users\CNous\AppData\Local\Temp\ccXtjCpn.s 			page 12


 358 000a 0121     		movs	r1, #1	@,
 359 000c 53F82000 		ldr	r0, [r3, r0, lsl #2]	@, BUTTON_PORT
 360              	.LVL20:
 361 0010 FFF7FEFF 		bl	GPIO_ReadInputDataBit	@
 362              	.LVL21:
 237:src/stm32f4_discovery.c **** }
 363              		.loc 1 237 0
 364 0014 08BD     		pop	{r3, pc}	@
 365              		.cfi_endproc
 366              	.LFE115:
 367              		.size	STM_EVAL_PBGetState, .-STM_EVAL_PBGetState
 368              		.comm	NVIC_InitStructure,4,4
 369              		.global	BUTTON_IRQn
 370              		.global	BUTTON_PIN_SOURCE
 371              		.global	BUTTON_PORT_SOURCE
 372              		.global	BUTTON_EXTI_LINE
 373              		.global	BUTTON_CLK
 374              		.global	BUTTON_PIN
 375              		.global	BUTTON_PORT
 376              		.global	GPIO_CLK
 377              		.global	GPIO_PIN
 378              		.global	GPIO_PORT
 379 0016 00BF     		.section	.rodata.BUTTON_IRQn,"a",%progbits
 380              		.align	2
 381              		.type	BUTTON_IRQn, %object
 382              		.size	BUTTON_IRQn, 1
 383              	BUTTON_IRQn:
 384 0000 06       		.byte	6
 385 0001 000000   		.section	.data.GPIO_PORT,"aw",%progbits
 386              		.align	2
 387              		.set	.LANCHOR2,. + 0
 388              		.type	GPIO_PORT, %object
 389              		.size	GPIO_PORT, 16
 390              	GPIO_PORT:
 391 0000 000C0240 		.word	1073875968
 392 0004 000C0240 		.word	1073875968
 393 0008 000C0240 		.word	1073875968
 394 000c 000C0240 		.word	1073875968
 395              		.section	.rodata.BUTTON_PIN,"a",%progbits
 396              		.align	2
 397              		.type	BUTTON_PIN, %object
 398              		.size	BUTTON_PIN, 2
 399              	BUTTON_PIN:
 400 0000 0100     		.short	1
 401 0002 0000     		.section	.rodata.GPIO_CLK,"a",%progbits
 402              		.align	2
 403              		.set	.LANCHOR0,. + 0
 404              		.type	GPIO_CLK, %object
 405              		.size	GPIO_CLK, 16
 406              	GPIO_CLK:
 407 0000 08000000 		.word	8
 408 0004 08000000 		.word	8
 409 0008 08000000 		.word	8
 410 000c 08000000 		.word	8
 411              		.section	.rodata.GPIO_PIN,"a",%progbits
 412              		.align	2
 413              		.set	.LANCHOR1,. + 0
ARM GAS  C:\Users\CNous\AppData\Local\Temp\ccXtjCpn.s 			page 13


 414              		.type	GPIO_PIN, %object
 415              		.size	GPIO_PIN, 8
 416              	GPIO_PIN:
 417 0000 0010     		.short	4096
 418 0002 0020     		.short	8192
 419 0004 0040     		.short	16384
 420 0006 0080     		.short	-32768
 421              		.section	.rodata.BUTTON_CLK,"a",%progbits
 422              		.align	2
 423              		.type	BUTTON_CLK, %object
 424              		.size	BUTTON_CLK, 4
 425              	BUTTON_CLK:
 426 0000 01000000 		.word	1
 427              		.section	.rodata.BUTTON_PORT_SOURCE,"a",%progbits
 428              		.align	2
 429              		.type	BUTTON_PORT_SOURCE, %object
 430              		.size	BUTTON_PORT_SOURCE, 1
 431              	BUTTON_PORT_SOURCE:
 432 0000 00       		.space	1
 433 0001 000000   		.section	.data.BUTTON_PORT,"aw",%progbits
 434              		.align	2
 435              		.set	.LANCHOR3,. + 0
 436              		.type	BUTTON_PORT, %object
 437              		.size	BUTTON_PORT, 4
 438              	BUTTON_PORT:
 439 0000 00000240 		.word	1073872896
 440              		.section	.rodata.BUTTON_PIN_SOURCE,"a",%progbits
 441              		.align	2
 442              		.type	BUTTON_PIN_SOURCE, %object
 443              		.size	BUTTON_PIN_SOURCE, 1
 444              	BUTTON_PIN_SOURCE:
 445 0000 00       		.space	1
 446 0001 000000   		.section	.rodata.BUTTON_EXTI_LINE,"a",%progbits
 447              		.align	2
 448              		.type	BUTTON_EXTI_LINE, %object
 449              		.size	BUTTON_EXTI_LINE, 2
 450              	BUTTON_EXTI_LINE:
 451 0000 0100     		.short	1
 452 0002 0000     		.text
 453              	.Letext0:
 454              		.file 2 "c:\\gnutoolsarmembedded\\4.7-2012q4\\bin\\../lib/gcc/arm-none-eabi/4.7.3/../../../../arm-
 455              		.file 3 "./cmsis/device/stm32f4xx.h"
 456              		.file 4 "./cmsis/device/stm32f4xx_exti.h"
 457              		.file 5 "./cmsis/device/stm32f4xx_gpio.h"
 458              		.file 6 "./cmsis/device/misc.h"
 459              		.file 7 "./inc/stm32f4_discovery.h"
 460              		.file 8 "./cmsis/core/core_cm4.h"
 461              		.file 9 "./cmsis/device/stm32f4xx_rcc.h"
 462              		.file 10 "./cmsis/device/stm32f4xx_syscfg.h"