ARM GAS  C:\Users\CNous\AppData\Local\Temp\ccPT5vWC.s 			page 1


   1              		.syntax unified
   2              		.cpu cortex-m4
   3              		.eabi_attribute 27, 3	@ Tag_ABI_HardFP_use
   4              		.eabi_attribute 28, 1	@ Tag_ABI_VFP_args
   5              		.fpu fpv4-sp-d16
   6              		.eabi_attribute 20, 1	@ Tag_ABI_FP_denormal
   7              		.eabi_attribute 21, 1	@ Tag_ABI_FP_exceptions
   8              		.eabi_attribute 23, 3	@ Tag_ABI_FP_number_model
   9              		.eabi_attribute 24, 1	@ Tag_ABI_align8_needed
  10              		.eabi_attribute 25, 1	@ Tag_ABI_align8_preserved
  11              		.eabi_attribute 26, 1	@ Tag_ABI_enum_size
  12              		.eabi_attribute 30, 2	@ Tag_ABI_optimization_goals
  13              		.eabi_attribute 34, 1	@ Tag_CPU_unaligned_access
  14              		.eabi_attribute 18, 4	@ Tag_ABI_PCS_wchar_t
  15              		.file	"stm32f4_discovery_audio_codec.c"
  16              	@ GNU C (GNU Tools for ARM Embedded Processors) version 4.7.3 20121207 (release) [ARM/embedded-4_7-
  17              	@	compiled by GNU C version 4.2.1-sjlj (mingw32-2), GMP version 4.3.2, MPFR version 2.4.2, MPC vers
  18              	@ GGC heuristics: --param ggc-min-expand=100 --param ggc-min-heapsize=131072
  19              	@ options passed:  -I . -I ./inc -I ./cmsis/core -I ./cmsis/device
  20              	@ -imultilib armv7e-m/fpu
  21              	@ -iprefix c:\gnutoolsarmembedded\4.7-2012q4\bin\../lib/gcc/arm-none-eabi/4.7.3/
  22              	@ -isysroot c:\gnutoolsarmembedded\4.7-2012q4\bin\../arm-none-eabi
  23              	@ -MD src/stm32f4_discovery_audio_codec.d
  24              	@ -MF .dep/stm32f4_discovery_audio_codec.o.d -MP
  25              	@ -MQ src/stm32f4_discovery_audio_codec.o -D__USES_INITFINI__
  26              	@ -D __FPU_USED=1 -D __arm__ -D __ASSEMBLY__ -D USE_STDPERIPH_DRIVER
  27              	@ -D STM32F4XX -D HSE_VALUE=8000000 -D __FPU_PRESENT=1 -D STM32F407VG
  28              	@ -D RUN_FROM_FLASH=1 src/stm32f4_discovery_audio_codec.c -mthumb
  29              	@ -mcpu=cortex-m4 -mfloat-abi=hard -mfpu=fpv4-sp-d16
  30              	@ -auxbase-strip src/stm32f4_discovery_audio_codec.o -gdwarf-2 -O2 -Wall
  31              	@ -Wstrict-prototypes -fverbose-asm -ffunction-sections -fdata-sections
  32              	@ options enabled:  -fauto-inc-dec -fbranch-count-reg -fcaller-saves
  33              	@ -fcombine-stack-adjustments -fcommon -fcompare-elim -fcprop-registers
  34              	@ -fcrossjumping -fcse-follow-jumps -fdata-sections -fdebug-types-section
  35              	@ -fdefer-pop -fdelete-null-pointer-checks -fdevirtualize -fdwarf2-cfi-asm
  36              	@ -fearly-inlining -feliminate-unused-debug-types -fexpensive-optimizations
  37              	@ -fforward-propagate -ffunction-cse -ffunction-sections -fgcse -fgcse-lm
  38              	@ -fgnu-runtime -fguess-branch-probability -fident -fif-conversion
  39              	@ -fif-conversion2 -findirect-inlining -finline -finline-atomics
  40              	@ -finline-functions-called-once -finline-small-functions -fipa-cp
  41              	@ -fipa-profile -fipa-pure-const -fipa-reference -fipa-sra
  42              	@ -fira-share-save-slots -fira-share-spill-slots -fivopts
  43              	@ -fkeep-static-consts -fleading-underscore -fmath-errno -fmerge-constants
  44              	@ -fmerge-debug-strings -fmove-loop-invariants -fomit-frame-pointer
  45              	@ -foptimize-register-move -foptimize-sibling-calls -foptimize-strlen
  46              	@ -fpartial-inlining -fpeephole -fpeephole2 -fprefetch-loop-arrays
  47              	@ -freg-struct-return -fregmove -frename-registers -freorder-blocks
  48              	@ -freorder-functions -frerun-cse-after-loop
  49              	@ -fsched-critical-path-heuristic -fsched-dep-count-heuristic
  50              	@ -fsched-group-heuristic -fsched-interblock -fsched-last-insn-heuristic
  51              	@ -fsched-rank-heuristic -fsched-spec -fsched-spec-insn-heuristic
  52              	@ -fsched-stalled-insns-dep -fschedule-insns -fschedule-insns2
  53              	@ -fsection-anchors -fshow-column -fshrink-wrap -fsigned-zeros
  54              	@ -fsplit-ivs-in-unroller -fsplit-wide-types -fstrict-aliasing
  55              	@ -fstrict-overflow -fstrict-volatile-bitfields -fthread-jumps
  56              	@ -ftoplevel-reorder -ftrapping-math -ftree-bit-ccp -ftree-builtin-call-dce
  57              	@ -ftree-ccp -ftree-ch -ftree-copy-prop -ftree-copyrename -ftree-cselim
ARM GAS  C:\Users\CNous\AppData\Local\Temp\ccPT5vWC.s 			page 2


  58              	@ -ftree-dce -ftree-dominator-opts -ftree-dse -ftree-forwprop -ftree-fre
  59              	@ -ftree-loop-if-convert -ftree-loop-im -ftree-loop-ivcanon
  60              	@ -ftree-loop-optimize -ftree-parallelize-loops= -ftree-phiprop -ftree-pre
  61              	@ -ftree-pta -ftree-reassoc -ftree-scev-cprop -ftree-sink
  62              	@ -ftree-slp-vectorize -ftree-sra -ftree-switch-conversion
  63              	@ -ftree-tail-merge -ftree-ter -ftree-vect-loop-version -ftree-vrp
  64              	@ -funit-at-a-time -funroll-loops -fvar-tracking -fvar-tracking-assignments
  65              	@ -fverbose-asm -fweb -fzero-initialized-in-bss -mlittle-endian
  66              	@ -msched-prolog -mthumb -munaligned-access -mvectorize-with-neon-quad
  67              	
  68              		.text
  69              	.Ltext0:
  70              		.cfi_sections	.debug_frame
  71              		.section	.text.Audio_MAL_IRQHandler,"ax",%progbits
  72              		.align	2
  73              		.thumb
  74              		.thumb_func
  75              		.type	Audio_MAL_IRQHandler, %function
  76              	Audio_MAL_IRQHandler:
  77              	.LFB118:
  78              		.file 1 "src/stm32f4_discovery_audio_codec.c"
   1:src/stm32f4_discovery_audio_codec.c **** /**
   2:src/stm32f4_discovery_audio_codec.c ****   ******************************************************************************
   3:src/stm32f4_discovery_audio_codec.c ****   * @file    stm32f4_discovery_audio_codec.c
   4:src/stm32f4_discovery_audio_codec.c ****   * @author  modified by Xavier Halgand , MCD Application Team
   5:src/stm32f4_discovery_audio_codec.c ****   * @version
   6:src/stm32f4_discovery_audio_codec.c ****   * @date    October-2012
   7:src/stm32f4_discovery_audio_codec.c ****   * @brief   This file includes the low layer driver for CS43L22 Audio Codec
   8:src/stm32f4_discovery_audio_codec.c ****   *          available on STM32F4-Discovery Kit.  
   9:src/stm32f4_discovery_audio_codec.c ****   ******************************************************************************
  10:src/stm32f4_discovery_audio_codec.c ****   * @attention
  11:src/stm32f4_discovery_audio_codec.c ****   *
  12:src/stm32f4_discovery_audio_codec.c ****   * THE PRESENT FIRMWARE WHICH IS FOR GUIDANCE ONLY AIMS AT PROVIDING CUSTOMERS
  13:src/stm32f4_discovery_audio_codec.c ****   * WITH CODING INFORMATION REGARDING THEIR PRODUCTS IN ORDER FOR THEM TO SAVE
  14:src/stm32f4_discovery_audio_codec.c ****   * TIME. AS A RESULT, STMICROELECTRONICS SHALL NOT BE HELD LIABLE FOR ANY
  15:src/stm32f4_discovery_audio_codec.c ****   * DIRECT, INDIRECT OR CONSEQUENTIAL DAMAGES WITH RESPECT TO ANY CLAIMS ARISING
  16:src/stm32f4_discovery_audio_codec.c ****   * FROM THE CONTENT OF SUCH FIRMWARE AND/OR THE USE MADE BY CUSTOMERS OF THE
  17:src/stm32f4_discovery_audio_codec.c ****   * CODING INFORMATION CONTAINED HEREIN IN CONNECTION WITH THEIR PRODUCTS.
  18:src/stm32f4_discovery_audio_codec.c ****   *
  19:src/stm32f4_discovery_audio_codec.c ****   * <h2><center>&copy; COPYRIGHT 2011 STMicroelectronics</center></h2>
  20:src/stm32f4_discovery_audio_codec.c ****   ******************************************************************************  
  21:src/stm32f4_discovery_audio_codec.c ****   */
  22:src/stm32f4_discovery_audio_codec.c **** 
  23:src/stm32f4_discovery_audio_codec.c **** /*=================================================================================================
  24:src/stm32f4_discovery_audio_codec.c ****                                              User NOTES
  25:src/stm32f4_discovery_audio_codec.c **** 1. How To use this driver:
  26:src/stm32f4_discovery_audio_codec.c **** --------------------------
  27:src/stm32f4_discovery_audio_codec.c ****    - This driver supports STM32F4xx devices on STM32F4-Discovery Kit.
  28:src/stm32f4_discovery_audio_codec.c **** 
  29:src/stm32f4_discovery_audio_codec.c ****    - Configure the options in file stm32f4_discovery_audio_codec.h in the section CONFIGURATION.
  30:src/stm32f4_discovery_audio_codec.c ****       Refer to the sections 2 and 3 to have more details on the possible configurations.
  31:src/stm32f4_discovery_audio_codec.c **** 
  32:src/stm32f4_discovery_audio_codec.c ****    - Call the function EVAL_AUDIO_Init(
  33:src/stm32f4_discovery_audio_codec.c ****                                     OutputDevice: physical output mode (OUTPUT_DEVICE_SPEAKER, 
  34:src/stm32f4_discovery_audio_codec.c ****                                                  OUTPUT_DEVICE_HEADPHONE, OUTPUT_DEVICE_AUTO or 
  35:src/stm32f4_discovery_audio_codec.c ****                                                  OUTPUT_DEVICE_BOTH)
  36:src/stm32f4_discovery_audio_codec.c ****                                     Volume: initial volume to be set (0 is min (mute), 100 is max (
ARM GAS  C:\Users\CNous\AppData\Local\Temp\ccPT5vWC.s 			page 3


  37:src/stm32f4_discovery_audio_codec.c ****                                     AudioFreq: Audio frequency in Hz (8000, 16000, 22500, 32000 ...
  38:src/stm32f4_discovery_audio_codec.c ****                                     this parameter is relative to the audio file/stream type.
  39:src/stm32f4_discovery_audio_codec.c ****                                    )
  40:src/stm32f4_discovery_audio_codec.c ****       This function configures all the hardware required for the audio application (codec, I2C, I2S
  41:src/stm32f4_discovery_audio_codec.c ****       GPIOs, DMA and interrupt if needed). This function returns 0 if configuration is OK.
  42:src/stm32f4_discovery_audio_codec.c ****       if the returned value is different from 0 or the function is stuck then the communication wit
  43:src/stm32f4_discovery_audio_codec.c ****       the codec (try to un-plug the power or reset device in this case).
  44:src/stm32f4_discovery_audio_codec.c ****       + OUTPUT_DEVICE_SPEAKER: only speaker will be set as output for the audio stream.
  45:src/stm32f4_discovery_audio_codec.c ****       + OUTPUT_DEVICE_HEADPHONE: only headphones will be set as output for the audio stream.
  46:src/stm32f4_discovery_audio_codec.c ****       + OUTPUT_DEVICE_AUTO: Selection of output device is made through external switch (implemented
  47:src/stm32f4_discovery_audio_codec.c ****          into the audio jack on the evaluation board). When the Headphone is connected it is used
  48:src/stm32f4_discovery_audio_codec.c ****          as output. When the headphone is disconnected from the audio jack, the output is
  49:src/stm32f4_discovery_audio_codec.c ****          automatically switched to Speaker.
  50:src/stm32f4_discovery_audio_codec.c ****       + OUTPUT_DEVICE_BOTH: both Speaker and Headphone are used as outputs for the audio stream
  51:src/stm32f4_discovery_audio_codec.c ****          at the same time.
  52:src/stm32f4_discovery_audio_codec.c **** 
  53:src/stm32f4_discovery_audio_codec.c ****    - Call the function EVAL_AUDIO_Play(
  54:src/stm32f4_discovery_audio_codec.c ****                                   pBuffer: pointer to the audio data file address
  55:src/stm32f4_discovery_audio_codec.c ****                                   Size: size of the buffer to be sent in HalfWords (16bits)
  56:src/stm32f4_discovery_audio_codec.c ****                                  )
  57:src/stm32f4_discovery_audio_codec.c ****       to start playing (for the first time) from the audio file/stream.
  58:src/stm32f4_discovery_audio_codec.c **** 
  59:src/stm32f4_discovery_audio_codec.c ****    - Call the function EVAL_AUDIO_PauseResume(
  60:src/stm32f4_discovery_audio_codec.c ****                                          Cmd: AUDIO_PAUSE (or 0) to pause playing or AUDIO_RESUME (
  61:src/stm32f4_discovery_audio_codec.c ****                                                any value different from 0) to resume playing.
  62:src/stm32f4_discovery_audio_codec.c ****                                          )
  63:src/stm32f4_discovery_audio_codec.c ****        Note. After calling EVAL_AUDIO_PauseResume() function for pause, only EVAL_AUDIO_PauseResume
  64:src/stm32f4_discovery_audio_codec.c ****           for resume (it is not allowed to call EVAL_AUDIO_Play() in this case).
  65:src/stm32f4_discovery_audio_codec.c ****        Note. This function should be called only when the audio file is played or paused (not stopp
  66:src/stm32f4_discovery_audio_codec.c **** 
  67:src/stm32f4_discovery_audio_codec.c ****    - For each mode, you may need to implement the relative callback functions into your code.
  68:src/stm32f4_discovery_audio_codec.c ****       The Callback functions are named EVAL_AUDIO_XXX_CallBack() and only their prototypes are decl
  69:src/stm32f4_discovery_audio_codec.c ****       the stm32f4_discovery_audio_codec.h file. (refer to the example for more details on the callb
  70:src/stm32f4_discovery_audio_codec.c **** 
  71:src/stm32f4_discovery_audio_codec.c ****    - To Stop playing, to modify the volume level or to mute, use the functions
  72:src/stm32f4_discovery_audio_codec.c ****        EVAL_AUDIO_Stop(), EVAL_AUDIO_VolumeCtl() and EVAL_AUDIO_Mute().
  73:src/stm32f4_discovery_audio_codec.c **** 
  74:src/stm32f4_discovery_audio_codec.c ****    - The driver API and the callback functions are at the end of the stm32f4_discovery_audio_codec.
  75:src/stm32f4_discovery_audio_codec.c ****  
  76:src/stm32f4_discovery_audio_codec.c **** 
  77:src/stm32f4_discovery_audio_codec.c ****  Driver architecture:
  78:src/stm32f4_discovery_audio_codec.c ****  --------------------
  79:src/stm32f4_discovery_audio_codec.c ****  This driver is composed of three main layers:
  80:src/stm32f4_discovery_audio_codec.c ****    o High Audio Layer: consists of the function API exported in the stm32f4_discovery_audio_codec.h
  81:src/stm32f4_discovery_audio_codec.c ****      (EVAL_AUDIO_Init(), EVAL_AUDIO_Play() ...)
  82:src/stm32f4_discovery_audio_codec.c ****    o Codec Control layer: consists of the functions API controlling the audio codec (CS43L22) and 
  83:src/stm32f4_discovery_audio_codec.c ****      included as local functions in file stm32f4_discovery_audio_codec.c (Codec_Init(), Codec_Play(
  84:src/stm32f4_discovery_audio_codec.c ****    o Media Access Layer (MAL): which consists of functions allowing to access the media containing/
  85:src/stm32f4_discovery_audio_codec.c ****      providing the audio file/stream. These functions are also included as local functions into
  86:src/stm32f4_discovery_audio_codec.c ****      the stm32f4_discovery_audio_codec.c file (Audio_MAL_Init(), Audio_MAL_Play() ...)
  87:src/stm32f4_discovery_audio_codec.c ****   Each set of functions (layer) may be implemented independently of the others and customized when 
  88:src/stm32f4_discovery_audio_codec.c ****   needed.    
  89:src/stm32f4_discovery_audio_codec.c **** 
  90:src/stm32f4_discovery_audio_codec.c **** 2. Modes description:
  91:src/stm32f4_discovery_audio_codec.c **** ---------------------
  92:src/stm32f4_discovery_audio_codec.c ****      + AUDIO_MAL_MODE_NORMAL : is suitable when the audio file is in a memory location.
  93:src/stm32f4_discovery_audio_codec.c ****      + AUDIO_MAL_MODE_CIRCULAR: is suitable when the audio data are read either from a 
ARM GAS  C:\Users\CNous\AppData\Local\Temp\ccPT5vWC.s 			page 4


  94:src/stm32f4_discovery_audio_codec.c ****         memory location or from a device at real time (double buffer could be used).
  95:src/stm32f4_discovery_audio_codec.c **** 
  96:src/stm32f4_discovery_audio_codec.c **** 3. DMA interrupts description:
  97:src/stm32f4_discovery_audio_codec.c **** ------------------------------
  98:src/stm32f4_discovery_audio_codec.c ****      + EVAL_AUDIO_IT_TC_ENABLE: Enable this define to use the DMA end of transfer interrupt.
  99:src/stm32f4_discovery_audio_codec.c ****         then, a callback should be implemented by user to perform specific actions
 100:src/stm32f4_discovery_audio_codec.c ****         when the DMA has finished the transfer.
 101:src/stm32f4_discovery_audio_codec.c ****      + EVAL_AUDIO_IT_HT_ENABLE: Enable this define to use the DMA end of half transfer interrupt.
 102:src/stm32f4_discovery_audio_codec.c ****         then, a callback should be implemented by user to perform specific actions
 103:src/stm32f4_discovery_audio_codec.c ****         when the DMA has reached the half of the buffer transfer (generally, it is useful 
 104:src/stm32f4_discovery_audio_codec.c ****         to load the first half of buffer while DMA is loading from the second half).
 105:src/stm32f4_discovery_audio_codec.c ****      + EVAL_AUDIO_IT_ER_ENABLE: Enable this define to manage the cases of error on DMA transfer.
 106:src/stm32f4_discovery_audio_codec.c **** 
 107:src/stm32f4_discovery_audio_codec.c **** 4. Known Limitations:
 108:src/stm32f4_discovery_audio_codec.c **** ---------------------
 109:src/stm32f4_discovery_audio_codec.c ****    1- When using the Speaker, if the audio file quality is not high enough, the speaker output
 110:src/stm32f4_discovery_audio_codec.c ****       may produce high and uncomfortable noise level. To avoid this issue, to use speaker
 111:src/stm32f4_discovery_audio_codec.c ****       output properly, try to increase audio file sampling rate (typically higher than 48KHz).
 112:src/stm32f4_discovery_audio_codec.c ****       This operation will lead to larger file size.
 113:src/stm32f4_discovery_audio_codec.c ****    2- Communication with the audio codec (through I2C) may be corrupted if it is interrupted by som
 114:src/stm32f4_discovery_audio_codec.c ****       user interrupt routines (in this case, interrupts could be disabled just before the start of 
 115:src/stm32f4_discovery_audio_codec.c ****       communication then re-enabled when it is over). Note that this communication is only done at
 116:src/stm32f4_discovery_audio_codec.c ****       the configuration phase (EVAL_AUDIO_Init() or EVAL_AUDIO_Stop()) and when Volume control modi
 117:src/stm32f4_discovery_audio_codec.c ****       performed (EVAL_AUDIO_VolumeCtl() or EVAL_AUDIO_Mute()). When the audio data is played, no co
 118:src/stm32f4_discovery_audio_codec.c ****       required with the audio codec.
 119:src/stm32f4_discovery_audio_codec.c ****   3- Parsing of audio file is not implemented (in order to determine audio file properties: Mono/St
 120:src/stm32f4_discovery_audio_codec.c ****      File size, Audio Frequency, Audio Data header size ...). The configuration is fixed for the gi
 121:src/stm32f4_discovery_audio_codec.c ****   4- Mono audio streaming is not supported (in order to play mono audio streams, each data should b
 122:src/stm32f4_discovery_audio_codec.c ****      on the I2S or should be duplicated on the source buffer. Or convert the stream in stereo befor
 123:src/stm32f4_discovery_audio_codec.c ****   5- Supports only 16-bit audio data size.
 124:src/stm32f4_discovery_audio_codec.c **** ===================================================================================================
 125:src/stm32f4_discovery_audio_codec.c **** 
 126:src/stm32f4_discovery_audio_codec.c **** 
 127:src/stm32f4_discovery_audio_codec.c **** /* Includes ------------------------------------------------------------------*/
 128:src/stm32f4_discovery_audio_codec.c **** #include "stm32f4_discovery_audio_codec.h"
 129:src/stm32f4_discovery_audio_codec.c **** 
 130:src/stm32f4_discovery_audio_codec.c **** /** @addtogroup Utilities
 131:src/stm32f4_discovery_audio_codec.c ****   * @{
 132:src/stm32f4_discovery_audio_codec.c ****   */
 133:src/stm32f4_discovery_audio_codec.c ****   
 134:src/stm32f4_discovery_audio_codec.c **** /** @addtogroup STM32F4_DISCOVERY
 135:src/stm32f4_discovery_audio_codec.c ****   * @{
 136:src/stm32f4_discovery_audio_codec.c ****   */
 137:src/stm32f4_discovery_audio_codec.c **** 
 138:src/stm32f4_discovery_audio_codec.c **** /** @addtogroup STM32F4_DISCOVERY_AUDIO_CODEC
 139:src/stm32f4_discovery_audio_codec.c ****   * @brief       This file includes the low layer driver for CS43L22 Audio Codec
 140:src/stm32f4_discovery_audio_codec.c ****   *              available on STM32F4-Discovery Kit.
 141:src/stm32f4_discovery_audio_codec.c ****   * @{
 142:src/stm32f4_discovery_audio_codec.c ****   */ 
 143:src/stm32f4_discovery_audio_codec.c **** 
 144:src/stm32f4_discovery_audio_codec.c **** /** @defgroup STM32F4_DISCOVERY_AUDIO_CODEC_Private_Types
 145:src/stm32f4_discovery_audio_codec.c ****   * @{
 146:src/stm32f4_discovery_audio_codec.c ****   */ 
 147:src/stm32f4_discovery_audio_codec.c **** /**
 148:src/stm32f4_discovery_audio_codec.c ****   * @}
 149:src/stm32f4_discovery_audio_codec.c ****   */ 
 150:src/stm32f4_discovery_audio_codec.c ****   
ARM GAS  C:\Users\CNous\AppData\Local\Temp\ccPT5vWC.s 			page 5


 151:src/stm32f4_discovery_audio_codec.c **** /** @defgroup STM32F4_DISCOVERY_AUDIO_CODEC_Private_Defines
 152:src/stm32f4_discovery_audio_codec.c ****   * @{
 153:src/stm32f4_discovery_audio_codec.c ****   */ 
 154:src/stm32f4_discovery_audio_codec.c **** 
 155:src/stm32f4_discovery_audio_codec.c **** /* Mask for the bit EN of the I2S CFGR register */
 156:src/stm32f4_discovery_audio_codec.c **** #define I2S_ENABLE_MASK                 0x0400
 157:src/stm32f4_discovery_audio_codec.c **** 
 158:src/stm32f4_discovery_audio_codec.c **** /* Delay for the Codec to be correctly reset */
 159:src/stm32f4_discovery_audio_codec.c **** #define CODEC_RESET_DELAY               0x4FFF
 160:src/stm32f4_discovery_audio_codec.c **** 
 161:src/stm32f4_discovery_audio_codec.c **** /* Codec audio Standards */
 162:src/stm32f4_discovery_audio_codec.c **** #ifdef I2S_STANDARD_PHILLIPS
 163:src/stm32f4_discovery_audio_codec.c ****  #define  CODEC_STANDARD                0x04
 164:src/stm32f4_discovery_audio_codec.c ****  #define I2S_STANDARD                   I2S_Standard_Phillips         
 165:src/stm32f4_discovery_audio_codec.c **** #elif defined(I2S_STANDARD_MSB)
 166:src/stm32f4_discovery_audio_codec.c ****  #define  CODEC_STANDARD                0x00
 167:src/stm32f4_discovery_audio_codec.c ****  #define I2S_STANDARD                   I2S_Standard_MSB    
 168:src/stm32f4_discovery_audio_codec.c **** #elif defined(I2S_STANDARD_LSB)
 169:src/stm32f4_discovery_audio_codec.c ****  #define  CODEC_STANDARD                0x08
 170:src/stm32f4_discovery_audio_codec.c ****  #define I2S_STANDARD                   I2S_Standard_LSB    
 171:src/stm32f4_discovery_audio_codec.c **** #else 
 172:src/stm32f4_discovery_audio_codec.c ****  #error "Error: No audio communication standard selected !"
 173:src/stm32f4_discovery_audio_codec.c **** #endif /* I2S_STANDARD */
 174:src/stm32f4_discovery_audio_codec.c **** 
 175:src/stm32f4_discovery_audio_codec.c **** /* The 7 bits Codec address (sent through I2C interface) */
 176:src/stm32f4_discovery_audio_codec.c **** #define CODEC_ADDRESS                   0x94  /* b00100111 */
 177:src/stm32f4_discovery_audio_codec.c **** /**
 178:src/stm32f4_discovery_audio_codec.c ****   * @}
 179:src/stm32f4_discovery_audio_codec.c ****   */ 
 180:src/stm32f4_discovery_audio_codec.c **** 
 181:src/stm32f4_discovery_audio_codec.c **** /** @defgroup STM32F4_DISCOVERY_AUDIO_CODEC_Private_Macros
 182:src/stm32f4_discovery_audio_codec.c ****   * @{
 183:src/stm32f4_discovery_audio_codec.c ****   */
 184:src/stm32f4_discovery_audio_codec.c **** /**
 185:src/stm32f4_discovery_audio_codec.c ****   * @}
 186:src/stm32f4_discovery_audio_codec.c ****   */ 
 187:src/stm32f4_discovery_audio_codec.c ****   
 188:src/stm32f4_discovery_audio_codec.c **** /** @defgroup STM32F4_DISCOVERY_AUDIO_CODEC_Private_Variables
 189:src/stm32f4_discovery_audio_codec.c ****   * @{
 190:src/stm32f4_discovery_audio_codec.c ****   */
 191:src/stm32f4_discovery_audio_codec.c **** /* This structure is declared global because it is handled by two different functions */
 192:src/stm32f4_discovery_audio_codec.c **** DMA_InitTypeDef DMA_InitStructure; 
 193:src/stm32f4_discovery_audio_codec.c **** DMA_InitTypeDef AUDIO_MAL_DMA_InitStructure;
 194:src/stm32f4_discovery_audio_codec.c **** 
 195:src/stm32f4_discovery_audio_codec.c **** uint32_t AudioTotalSize = 0xFFFF; /* This variable holds the total size of the audio file */
 196:src/stm32f4_discovery_audio_codec.c **** uint32_t AudioRemSize   = 0xFFFF; /* This variable holds the remaining data in audio file */
 197:src/stm32f4_discovery_audio_codec.c **** uint16_t *CurrentPos ;             /* This variable holds the current position of audio pointer */
 198:src/stm32f4_discovery_audio_codec.c **** 
 199:src/stm32f4_discovery_audio_codec.c **** __IO uint32_t  CODECTimeout = CODEC_LONG_TIMEOUT;   
 200:src/stm32f4_discovery_audio_codec.c **** __IO uint8_t OutputDev = 0;
 201:src/stm32f4_discovery_audio_codec.c **** 
 202:src/stm32f4_discovery_audio_codec.c **** 
 203:src/stm32f4_discovery_audio_codec.c **** __IO uint32_t CurrAudioInterface = AUDIO_INTERFACE_I2S; //AUDIO_INTERFACE_DAC
 204:src/stm32f4_discovery_audio_codec.c **** /**
 205:src/stm32f4_discovery_audio_codec.c ****   * @}
 206:src/stm32f4_discovery_audio_codec.c ****   */ 
 207:src/stm32f4_discovery_audio_codec.c **** 
ARM GAS  C:\Users\CNous\AppData\Local\Temp\ccPT5vWC.s 			page 6


 208:src/stm32f4_discovery_audio_codec.c **** /** @defgroup STM32F4_DISCOVERY_AUDIO_CODEC_Private_Function_Prototypes
 209:src/stm32f4_discovery_audio_codec.c ****   * @{
 210:src/stm32f4_discovery_audio_codec.c ****   */ 
 211:src/stm32f4_discovery_audio_codec.c **** /**
 212:src/stm32f4_discovery_audio_codec.c ****   * @}
 213:src/stm32f4_discovery_audio_codec.c ****   */ 
 214:src/stm32f4_discovery_audio_codec.c **** 
 215:src/stm32f4_discovery_audio_codec.c **** /** @defgroup STM32F4_DISCOVERY_AUDIO_CODEC_Private_Functions
 216:src/stm32f4_discovery_audio_codec.c ****   * @{
 217:src/stm32f4_discovery_audio_codec.c ****   */ 
 218:src/stm32f4_discovery_audio_codec.c **** static void Audio_MAL_IRQHandler(void);
 219:src/stm32f4_discovery_audio_codec.c **** /*-----------------------------------
 220:src/stm32f4_discovery_audio_codec.c ****                            Audio Codec functions 
 221:src/stm32f4_discovery_audio_codec.c ****                                     ------------------------------------------*/
 222:src/stm32f4_discovery_audio_codec.c **** /* High Layer codec functions */
 223:src/stm32f4_discovery_audio_codec.c **** static uint32_t Codec_Init(uint16_t OutputDevice, uint8_t Volume, uint32_t AudioFreq);
 224:src/stm32f4_discovery_audio_codec.c **** static uint32_t Codec_DeInit(void);
 225:src/stm32f4_discovery_audio_codec.c **** static uint32_t Codec_Play(void);
 226:src/stm32f4_discovery_audio_codec.c **** static uint32_t Codec_PauseResume(uint32_t Cmd);
 227:src/stm32f4_discovery_audio_codec.c **** static uint32_t Codec_Stop(uint32_t Cmd);
 228:src/stm32f4_discovery_audio_codec.c **** static uint32_t Codec_VolumeCtrl(uint8_t Volume);
 229:src/stm32f4_discovery_audio_codec.c **** static uint32_t Codec_Mute(uint32_t Cmd);
 230:src/stm32f4_discovery_audio_codec.c **** /* Low layer codec functions */
 231:src/stm32f4_discovery_audio_codec.c **** static void     Codec_CtrlInterface_Init(void);
 232:src/stm32f4_discovery_audio_codec.c **** static void     Codec_CtrlInterface_DeInit(void);
 233:src/stm32f4_discovery_audio_codec.c **** static void     Codec_AudioInterface_Init(uint32_t AudioFreq);
 234:src/stm32f4_discovery_audio_codec.c **** static void     Codec_AudioInterface_DeInit(void);
 235:src/stm32f4_discovery_audio_codec.c **** static void     Codec_Reset(void);
 236:src/stm32f4_discovery_audio_codec.c **** static uint32_t Codec_WriteRegister(uint8_t RegisterAddr, uint8_t RegisterValue);
 237:src/stm32f4_discovery_audio_codec.c **** static uint32_t Codec_ReadRegister(uint8_t RegisterAddr);
 238:src/stm32f4_discovery_audio_codec.c **** static void     Codec_GPIO_Init(void);
 239:src/stm32f4_discovery_audio_codec.c **** static void     Codec_GPIO_DeInit(void);
 240:src/stm32f4_discovery_audio_codec.c **** static void     Delay(__IO uint32_t nCount);
 241:src/stm32f4_discovery_audio_codec.c **** /*----------------------------------------------------------------------------*/
 242:src/stm32f4_discovery_audio_codec.c **** 
 243:src/stm32f4_discovery_audio_codec.c **** /*-----------------------------------
 244:src/stm32f4_discovery_audio_codec.c ****                    MAL (Media Access Layer) functions 
 245:src/stm32f4_discovery_audio_codec.c ****                                     ------------------------------------------*/
 246:src/stm32f4_discovery_audio_codec.c **** /* Peripherals configuration functions */
 247:src/stm32f4_discovery_audio_codec.c **** static void     Audio_MAL_Init(void);
 248:src/stm32f4_discovery_audio_codec.c **** static void     Audio_MAL_DeInit(void);
 249:src/stm32f4_discovery_audio_codec.c **** static void     Audio_MAL_PauseResume(uint32_t Cmd, uint32_t Addr);
 250:src/stm32f4_discovery_audio_codec.c **** static void     Audio_MAL_Stop(void);
 251:src/stm32f4_discovery_audio_codec.c **** /*----------------------------------------------------------------------------*/
 252:src/stm32f4_discovery_audio_codec.c **** 
 253:src/stm32f4_discovery_audio_codec.c ****  /* DMA Stream definitions */
 254:src/stm32f4_discovery_audio_codec.c ****  uint32_t AUDIO_MAL_DMA_CLOCK    = AUDIO_I2S_DMA_CLOCK;
 255:src/stm32f4_discovery_audio_codec.c ****  DMA_Stream_TypeDef * AUDIO_MAL_DMA_STREAM   = AUDIO_I2S_DMA_STREAM ;       
 256:src/stm32f4_discovery_audio_codec.c ****  uint32_t AUDIO_MAL_DMA_DREG     = AUDIO_I2S_DMA_DREG;
 257:src/stm32f4_discovery_audio_codec.c ****  uint32_t AUDIO_MAL_DMA_CHANNEL  = AUDIO_I2S_DMA_CHANNEL;
 258:src/stm32f4_discovery_audio_codec.c ****  uint32_t AUDIO_MAL_DMA_IRQ      = AUDIO_I2S_DMA_IRQ  ;
 259:src/stm32f4_discovery_audio_codec.c ****  uint32_t AUDIO_MAL_DMA_FLAG_TC  = AUDIO_I2S_DMA_FLAG_TC;
 260:src/stm32f4_discovery_audio_codec.c ****  uint32_t AUDIO_MAL_DMA_FLAG_HT  = AUDIO_I2S_DMA_FLAG_HT;
 261:src/stm32f4_discovery_audio_codec.c ****  uint32_t AUDIO_MAL_DMA_FLAG_FE  = AUDIO_I2S_DMA_FLAG_FE;
 262:src/stm32f4_discovery_audio_codec.c ****  uint32_t AUDIO_MAL_DMA_FLAG_TE  = AUDIO_I2S_DMA_FLAG_TE;
 263:src/stm32f4_discovery_audio_codec.c ****  uint32_t AUDIO_MAL_DMA_FLAG_DME = AUDIO_I2S_DMA_FLAG_DME;
 264:src/stm32f4_discovery_audio_codec.c **** 
ARM GAS  C:\Users\CNous\AppData\Local\Temp\ccPT5vWC.s 			page 7


 265:src/stm32f4_discovery_audio_codec.c **** /**
 266:src/stm32f4_discovery_audio_codec.c ****   * @brief  Set the current audio interface (I2S or DAC).
 267:src/stm32f4_discovery_audio_codec.c ****   * @param  Interface: AUDIO_INTERFACE_I2S or AUDIO_INTERFACE_DAC
 268:src/stm32f4_discovery_audio_codec.c ****   * @retval None
 269:src/stm32f4_discovery_audio_codec.c ****   */
 270:src/stm32f4_discovery_audio_codec.c **** void EVAL_AUDIO_SetAudioInterface(uint32_t Interface)
 271:src/stm32f4_discovery_audio_codec.c **** {    
 272:src/stm32f4_discovery_audio_codec.c ****   CurrAudioInterface = Interface;
 273:src/stm32f4_discovery_audio_codec.c ****   
 274:src/stm32f4_discovery_audio_codec.c ****   if (CurrAudioInterface == AUDIO_INTERFACE_I2S)
 275:src/stm32f4_discovery_audio_codec.c ****   {
 276:src/stm32f4_discovery_audio_codec.c ****     /* DMA Stream definitions */
 277:src/stm32f4_discovery_audio_codec.c ****     AUDIO_MAL_DMA_CLOCK    = AUDIO_I2S_DMA_CLOCK;
 278:src/stm32f4_discovery_audio_codec.c ****     AUDIO_MAL_DMA_STREAM   = AUDIO_I2S_DMA_STREAM;        
 279:src/stm32f4_discovery_audio_codec.c ****     AUDIO_MAL_DMA_DREG     = AUDIO_I2S_DMA_DREG;
 280:src/stm32f4_discovery_audio_codec.c ****     AUDIO_MAL_DMA_CHANNEL  = AUDIO_I2S_DMA_CHANNEL;
 281:src/stm32f4_discovery_audio_codec.c ****     AUDIO_MAL_DMA_IRQ      = AUDIO_I2S_DMA_IRQ  ;
 282:src/stm32f4_discovery_audio_codec.c ****     AUDIO_MAL_DMA_FLAG_TC  = AUDIO_I2S_DMA_FLAG_TC;
 283:src/stm32f4_discovery_audio_codec.c ****     AUDIO_MAL_DMA_FLAG_HT  = AUDIO_I2S_DMA_FLAG_HT;
 284:src/stm32f4_discovery_audio_codec.c ****     AUDIO_MAL_DMA_FLAG_FE  = AUDIO_I2S_DMA_FLAG_FE;
 285:src/stm32f4_discovery_audio_codec.c ****     AUDIO_MAL_DMA_FLAG_TE  = AUDIO_I2S_DMA_FLAG_TE;
 286:src/stm32f4_discovery_audio_codec.c ****     AUDIO_MAL_DMA_FLAG_DME = AUDIO_I2S_DMA_FLAG_DME;
 287:src/stm32f4_discovery_audio_codec.c ****   }
 288:src/stm32f4_discovery_audio_codec.c ****   else if (Interface == AUDIO_INTERFACE_DAC)
 289:src/stm32f4_discovery_audio_codec.c ****   {
 290:src/stm32f4_discovery_audio_codec.c ****     /* DMA Stream definitions */
 291:src/stm32f4_discovery_audio_codec.c ****     AUDIO_MAL_DMA_CLOCK    = AUDIO_DAC_DMA_CLOCK;
 292:src/stm32f4_discovery_audio_codec.c ****     AUDIO_MAL_DMA_STREAM   = AUDIO_DAC_DMA_STREAM;        
 293:src/stm32f4_discovery_audio_codec.c ****     AUDIO_MAL_DMA_DREG     = AUDIO_DAC_DMA_DREG;
 294:src/stm32f4_discovery_audio_codec.c ****     AUDIO_MAL_DMA_CHANNEL  = AUDIO_DAC_DMA_CHANNEL;
 295:src/stm32f4_discovery_audio_codec.c ****     AUDIO_MAL_DMA_IRQ      = AUDIO_DAC_DMA_IRQ  ;
 296:src/stm32f4_discovery_audio_codec.c ****     AUDIO_MAL_DMA_FLAG_TC  = AUDIO_DAC_DMA_FLAG_TC;
 297:src/stm32f4_discovery_audio_codec.c ****     AUDIO_MAL_DMA_FLAG_HT  = AUDIO_DAC_DMA_FLAG_HT;
 298:src/stm32f4_discovery_audio_codec.c ****     AUDIO_MAL_DMA_FLAG_FE  = AUDIO_DAC_DMA_FLAG_FE;
 299:src/stm32f4_discovery_audio_codec.c ****     AUDIO_MAL_DMA_FLAG_TE  = AUDIO_DAC_DMA_FLAG_TE;
 300:src/stm32f4_discovery_audio_codec.c ****     AUDIO_MAL_DMA_FLAG_DME = AUDIO_DAC_DMA_FLAG_DME;    
 301:src/stm32f4_discovery_audio_codec.c ****   }
 302:src/stm32f4_discovery_audio_codec.c **** }
 303:src/stm32f4_discovery_audio_codec.c **** 
 304:src/stm32f4_discovery_audio_codec.c **** /**
 305:src/stm32f4_discovery_audio_codec.c ****   * @brief  Configure the audio peripherals.
 306:src/stm32f4_discovery_audio_codec.c ****   * @param  OutputDevice: OUTPUT_DEVICE_SPEAKER, OUTPUT_DEVICE_HEADPHONE,
 307:src/stm32f4_discovery_audio_codec.c ****   *                       OUTPUT_DEVICE_BOTH or OUTPUT_DEVICE_AUTO .
 308:src/stm32f4_discovery_audio_codec.c ****   * @param  Volume: Initial volume level (from 0 (Mute) to 100 (Max))
 309:src/stm32f4_discovery_audio_codec.c ****   * @param  AudioFreq: Audio frequency used to play the audio stream.
 310:src/stm32f4_discovery_audio_codec.c ****   * @retval 0 if correct communication, else wrong communication
 311:src/stm32f4_discovery_audio_codec.c ****   */
 312:src/stm32f4_discovery_audio_codec.c **** uint32_t EVAL_AUDIO_Init(uint16_t OutputDevice, uint8_t Volume, uint32_t AudioFreq)
 313:src/stm32f4_discovery_audio_codec.c **** {    
 314:src/stm32f4_discovery_audio_codec.c ****   /* Perform low layer Codec initialization */
 315:src/stm32f4_discovery_audio_codec.c ****   if (Codec_Init(OutputDevice, VOLUME_CONVERT(Volume), AudioFreq) != 0)
 316:src/stm32f4_discovery_audio_codec.c ****   {
 317:src/stm32f4_discovery_audio_codec.c ****     return 1;                
 318:src/stm32f4_discovery_audio_codec.c ****   }
 319:src/stm32f4_discovery_audio_codec.c ****   else
 320:src/stm32f4_discovery_audio_codec.c ****   {    
 321:src/stm32f4_discovery_audio_codec.c ****     /* I2S data transfer preparation:
ARM GAS  C:\Users\CNous\AppData\Local\Temp\ccPT5vWC.s 			page 8


 322:src/stm32f4_discovery_audio_codec.c ****     Prepare the Media to be used for the audio transfer from memory to I2S peripheral */
 323:src/stm32f4_discovery_audio_codec.c ****     Audio_MAL_Init();
 324:src/stm32f4_discovery_audio_codec.c ****     
 325:src/stm32f4_discovery_audio_codec.c ****     /* Return 0 when all operations are OK */
 326:src/stm32f4_discovery_audio_codec.c ****     return 0;
 327:src/stm32f4_discovery_audio_codec.c ****   }
 328:src/stm32f4_discovery_audio_codec.c **** }
 329:src/stm32f4_discovery_audio_codec.c **** 
 330:src/stm32f4_discovery_audio_codec.c **** /**
 331:src/stm32f4_discovery_audio_codec.c ****   * @brief  Deinitializes all the resources used by the codec (those initialized
 332:src/stm32f4_discovery_audio_codec.c ****   *         by EVAL_AUDIO_Init() function). 
 333:src/stm32f4_discovery_audio_codec.c ****   * @param  None
 334:src/stm32f4_discovery_audio_codec.c ****   * @retval 0 if correct communication, else wrong communication
 335:src/stm32f4_discovery_audio_codec.c ****   */
 336:src/stm32f4_discovery_audio_codec.c **** uint32_t EVAL_AUDIO_DeInit(void)
 337:src/stm32f4_discovery_audio_codec.c **** { 
 338:src/stm32f4_discovery_audio_codec.c ****   /* DeInitialize the Media layer */
 339:src/stm32f4_discovery_audio_codec.c ****   Audio_MAL_DeInit();
 340:src/stm32f4_discovery_audio_codec.c ****   
 341:src/stm32f4_discovery_audio_codec.c ****   /* DeInitialize Codec */  
 342:src/stm32f4_discovery_audio_codec.c ****   Codec_DeInit();  
 343:src/stm32f4_discovery_audio_codec.c ****   
 344:src/stm32f4_discovery_audio_codec.c ****   return 0;
 345:src/stm32f4_discovery_audio_codec.c **** }
 346:src/stm32f4_discovery_audio_codec.c **** 
 347:src/stm32f4_discovery_audio_codec.c **** /**
 348:src/stm32f4_discovery_audio_codec.c ****   * @brief  Starts playing audio stream from a data buffer for a determined size. 
 349:src/stm32f4_discovery_audio_codec.c ****   * @param  pBuffer: Pointer to the buffer 
 350:src/stm32f4_discovery_audio_codec.c ****   * @param  Size: Number of audio data half-words (16bits).
 351:src/stm32f4_discovery_audio_codec.c ****   * @retval 0 if correct communication, else wrong communication
 352:src/stm32f4_discovery_audio_codec.c ****   */
 353:src/stm32f4_discovery_audio_codec.c **** uint32_t EVAL_AUDIO_Play(uint16_t* pBuffer, uint32_t Size)
 354:src/stm32f4_discovery_audio_codec.c **** {
 355:src/stm32f4_discovery_audio_codec.c ****   /* Set the total number of data to be played (count in half-word) */
 356:src/stm32f4_discovery_audio_codec.c ****   AudioTotalSize = Size;
 357:src/stm32f4_discovery_audio_codec.c **** 
 358:src/stm32f4_discovery_audio_codec.c ****   /* Call the audio Codec Play function */
 359:src/stm32f4_discovery_audio_codec.c ****   Codec_Play();
 360:src/stm32f4_discovery_audio_codec.c ****   
 361:src/stm32f4_discovery_audio_codec.c ****   /* Update the Media layer and enable it for play */  
 362:src/stm32f4_discovery_audio_codec.c ****   Audio_MAL_Play((uint32_t)pBuffer, (uint32_t)(DMA_MAX(Size)));
 363:src/stm32f4_discovery_audio_codec.c ****   
 364:src/stm32f4_discovery_audio_codec.c ****   /* Update the remaining number of data to be played */
 365:src/stm32f4_discovery_audio_codec.c ****   AudioRemSize = Size - DMA_MAX(AudioTotalSize);
 366:src/stm32f4_discovery_audio_codec.c ****   
 367:src/stm32f4_discovery_audio_codec.c ****   /* Update the current audio pointer position */
 368:src/stm32f4_discovery_audio_codec.c ****   CurrentPos = pBuffer + DMA_MAX(AudioTotalSize);
 369:src/stm32f4_discovery_audio_codec.c ****   
 370:src/stm32f4_discovery_audio_codec.c ****   return 0;
 371:src/stm32f4_discovery_audio_codec.c **** }
 372:src/stm32f4_discovery_audio_codec.c **** 
 373:src/stm32f4_discovery_audio_codec.c **** /**
 374:src/stm32f4_discovery_audio_codec.c ****   * @brief  This function Pauses or Resumes the audio file stream. In case
 375:src/stm32f4_discovery_audio_codec.c ****   *         of using DMA, the DMA Pause feature is used. In all cases the I2S 
 376:src/stm32f4_discovery_audio_codec.c ****   *         peripheral is disabled. 
 377:src/stm32f4_discovery_audio_codec.c ****   * 
 378:src/stm32f4_discovery_audio_codec.c ****   * @WARNING When calling EVAL_AUDIO_PauseResume() function for pause, only
ARM GAS  C:\Users\CNous\AppData\Local\Temp\ccPT5vWC.s 			page 9


 379:src/stm32f4_discovery_audio_codec.c ****   *          this function should be called for resume (use of EVAL_AUDIO_Play() 
 380:src/stm32f4_discovery_audio_codec.c ****   *          function for resume could lead to unexpected behavior).
 381:src/stm32f4_discovery_audio_codec.c ****   * 
 382:src/stm32f4_discovery_audio_codec.c ****   * @param  Cmd: AUDIO_PAUSE (or 0) to pause, AUDIO_RESUME (or any value different
 383:src/stm32f4_discovery_audio_codec.c ****   *         from 0) to resume. 
 384:src/stm32f4_discovery_audio_codec.c ****   * @retval 0 if correct communication, else wrong communication
 385:src/stm32f4_discovery_audio_codec.c ****   */
 386:src/stm32f4_discovery_audio_codec.c **** uint32_t EVAL_AUDIO_PauseResume(uint32_t Cmd)
 387:src/stm32f4_discovery_audio_codec.c **** {    
 388:src/stm32f4_discovery_audio_codec.c ****   /* Call the Audio Codec Pause/Resume function */
 389:src/stm32f4_discovery_audio_codec.c ****   if (Codec_PauseResume(Cmd) != 0)
 390:src/stm32f4_discovery_audio_codec.c ****   {
 391:src/stm32f4_discovery_audio_codec.c ****     return 1;
 392:src/stm32f4_discovery_audio_codec.c ****   }
 393:src/stm32f4_discovery_audio_codec.c ****   else
 394:src/stm32f4_discovery_audio_codec.c ****   {
 395:src/stm32f4_discovery_audio_codec.c ****     /* Call the Media layer pause/resume function */
 396:src/stm32f4_discovery_audio_codec.c ****     Audio_MAL_PauseResume(Cmd, 0);
 397:src/stm32f4_discovery_audio_codec.c ****     
 398:src/stm32f4_discovery_audio_codec.c ****     /* Return 0 if all operations are OK */
 399:src/stm32f4_discovery_audio_codec.c ****     return 0;
 400:src/stm32f4_discovery_audio_codec.c ****   }
 401:src/stm32f4_discovery_audio_codec.c **** }
 402:src/stm32f4_discovery_audio_codec.c **** 
 403:src/stm32f4_discovery_audio_codec.c **** /**
 404:src/stm32f4_discovery_audio_codec.c ****   * @brief  Stops audio playing and Power down the Audio Codec. 
 405:src/stm32f4_discovery_audio_codec.c ****   * @param  Option: could be one of the following parameters 
 406:src/stm32f4_discovery_audio_codec.c ****   *           - CODEC_PDWN_SW: for software power off (by writing registers). 
 407:src/stm32f4_discovery_audio_codec.c ****   *                            Then no need to reconfigure the Codec after power on.
 408:src/stm32f4_discovery_audio_codec.c ****   *           - CODEC_PDWN_HW: completely shut down the codec (physically). 
 409:src/stm32f4_discovery_audio_codec.c ****   *                            Then need to reconfigure the Codec after power on.  
 410:src/stm32f4_discovery_audio_codec.c ****   * @retval 0 if correct communication, else wrong communication
 411:src/stm32f4_discovery_audio_codec.c ****   */
 412:src/stm32f4_discovery_audio_codec.c **** uint32_t EVAL_AUDIO_Stop(uint32_t Option)
 413:src/stm32f4_discovery_audio_codec.c **** {
 414:src/stm32f4_discovery_audio_codec.c ****   /* Call Audio Codec Stop function */
 415:src/stm32f4_discovery_audio_codec.c ****   if (Codec_Stop(Option) != 0)
 416:src/stm32f4_discovery_audio_codec.c ****   {
 417:src/stm32f4_discovery_audio_codec.c ****     return 1;
 418:src/stm32f4_discovery_audio_codec.c ****   }
 419:src/stm32f4_discovery_audio_codec.c ****   else
 420:src/stm32f4_discovery_audio_codec.c ****   {
 421:src/stm32f4_discovery_audio_codec.c ****     /* Call Media layer Stop function */
 422:src/stm32f4_discovery_audio_codec.c ****     Audio_MAL_Stop();
 423:src/stm32f4_discovery_audio_codec.c ****     
 424:src/stm32f4_discovery_audio_codec.c ****     /* Update the remaining data number */
 425:src/stm32f4_discovery_audio_codec.c ****     AudioRemSize = AudioTotalSize;    
 426:src/stm32f4_discovery_audio_codec.c ****     
 427:src/stm32f4_discovery_audio_codec.c ****     /* Return 0 when all operations are correctly done */
 428:src/stm32f4_discovery_audio_codec.c ****     return 0;
 429:src/stm32f4_discovery_audio_codec.c ****   }
 430:src/stm32f4_discovery_audio_codec.c **** }
 431:src/stm32f4_discovery_audio_codec.c **** 
 432:src/stm32f4_discovery_audio_codec.c **** /**
 433:src/stm32f4_discovery_audio_codec.c ****   * @brief  Controls the current audio volume level. 
 434:src/stm32f4_discovery_audio_codec.c ****   * @param  Volume: Volume level to be set in percentage from 0% to 100% (0 for 
 435:src/stm32f4_discovery_audio_codec.c ****   *         Mute and 100 for Max volume level).
ARM GAS  C:\Users\CNous\AppData\Local\Temp\ccPT5vWC.s 			page 10


 436:src/stm32f4_discovery_audio_codec.c ****   * @retval 0 if correct communication, else wrong communication
 437:src/stm32f4_discovery_audio_codec.c ****   */
 438:src/stm32f4_discovery_audio_codec.c **** uint32_t EVAL_AUDIO_VolumeCtl(uint8_t Volume)
 439:src/stm32f4_discovery_audio_codec.c **** {
 440:src/stm32f4_discovery_audio_codec.c ****   /* Call the codec volume control function with converted volume value */
 441:src/stm32f4_discovery_audio_codec.c ****   return (Codec_VolumeCtrl(VOLUME_CONVERT(Volume)));
 442:src/stm32f4_discovery_audio_codec.c **** }
 443:src/stm32f4_discovery_audio_codec.c **** 
 444:src/stm32f4_discovery_audio_codec.c **** /**
 445:src/stm32f4_discovery_audio_codec.c ****   * @brief  Enables or disables the MUTE mode by software 
 446:src/stm32f4_discovery_audio_codec.c ****   * @param  Command: could be AUDIO_MUTE_ON to mute sound or AUDIO_MUTE_OFF to 
 447:src/stm32f4_discovery_audio_codec.c ****   *         unmute the codec and restore previous volume level.
 448:src/stm32f4_discovery_audio_codec.c ****   * @retval 0 if correct communication, else wrong communication
 449:src/stm32f4_discovery_audio_codec.c ****   */
 450:src/stm32f4_discovery_audio_codec.c **** uint32_t EVAL_AUDIO_Mute(uint32_t Cmd)
 451:src/stm32f4_discovery_audio_codec.c **** { 
 452:src/stm32f4_discovery_audio_codec.c ****   /* Call the Codec Mute function */
 453:src/stm32f4_discovery_audio_codec.c ****   return (Codec_Mute(Cmd));
 454:src/stm32f4_discovery_audio_codec.c **** }
 455:src/stm32f4_discovery_audio_codec.c **** 
 456:src/stm32f4_discovery_audio_codec.c **** /**
 457:src/stm32f4_discovery_audio_codec.c ****   * @brief  This function handles main Media layer interrupt. 
 458:src/stm32f4_discovery_audio_codec.c ****   * @param  None
 459:src/stm32f4_discovery_audio_codec.c ****   * @retval 0 if correct communication, else wrong communication
 460:src/stm32f4_discovery_audio_codec.c ****   */
 461:src/stm32f4_discovery_audio_codec.c **** static void Audio_MAL_IRQHandler(void)
 462:src/stm32f4_discovery_audio_codec.c **** {    
  79              		.loc 1 462 0
  80              		.cfi_startproc
  81              		@ args = 0, pretend = 0, frame = 0
  82              		@ frame_needed = 0, uses_anonymous_args = 0
  83 0000 F8B5     		push	{r3, r4, r5, r6, r7, lr}	@
  84              	.LCFI0:
  85              		.cfi_def_cfa_offset 24
  86              		.cfi_offset 3, -24
  87              		.cfi_offset 4, -20
  88              		.cfi_offset 5, -16
  89              		.cfi_offset 6, -12
  90              		.cfi_offset 7, -8
  91              		.cfi_offset 14, -4
 463:src/stm32f4_discovery_audio_codec.c **** #ifndef AUDIO_MAL_MODE_NORMAL
 464:src/stm32f4_discovery_audio_codec.c ****   uint16_t *pAddr = (uint16_t *)CurrentPos;
 465:src/stm32f4_discovery_audio_codec.c ****   uint32_t Size = AudioRemSize;
 466:src/stm32f4_discovery_audio_codec.c **** #endif /* AUDIO_MAL_MODE_NORMAL */
 467:src/stm32f4_discovery_audio_codec.c ****   
 468:src/stm32f4_discovery_audio_codec.c **** #ifdef AUDIO_MAL_DMA_IT_TC_EN
 469:src/stm32f4_discovery_audio_codec.c ****   /* Transfer complete interrupt */
 470:src/stm32f4_discovery_audio_codec.c ****   if (DMA_GetFlagStatus(AUDIO_MAL_DMA_STREAM, AUDIO_MAL_DMA_FLAG_TC) != RESET)
  92              		.loc 1 470 0
  93 0002 134C     		ldr	r4, .L10	@ tmp168,
  94 0004 134D     		ldr	r5, .L10+4	@ tmp152,
 464:src/stm32f4_discovery_audio_codec.c ****   uint16_t *pAddr = (uint16_t *)CurrentPos;
  95              		.loc 1 464 0
  96 0006 144B     		ldr	r3, .L10+8	@ tmp148,
 465:src/stm32f4_discovery_audio_codec.c ****   uint32_t Size = AudioRemSize;
  97              		.loc 1 465 0
  98 0008 144A     		ldr	r2, .L10+12	@ tmp149,
ARM GAS  C:\Users\CNous\AppData\Local\Temp\ccPT5vWC.s 			page 11


  99              		.loc 1 470 0
 100 000a 2068     		ldr	r0, [r4, #0]	@, AUDIO_MAL_DMA_STREAM
 101 000c 2968     		ldr	r1, [r5, #0]	@, AUDIO_MAL_DMA_FLAG_TC
 464:src/stm32f4_discovery_audio_codec.c ****   uint16_t *pAddr = (uint16_t *)CurrentPos;
 102              		.loc 1 464 0
 103 000e 1F68     		ldr	r7, [r3, #0]	@ pAddr, CurrentPos
 104              	.LVL0:
 465:src/stm32f4_discovery_audio_codec.c ****   uint32_t Size = AudioRemSize;
 105              		.loc 1 465 0
 106 0010 1668     		ldr	r6, [r2, #0]	@ Size, AudioRemSize
 107              	.LVL1:
 108              		.loc 1 470 0
 109 0012 FFF7FEFF 		bl	DMA_GetFlagStatus	@
 110              	.LVL2:
 111 0016 88B9     		cbnz	r0, .L8	@,
 112              	.L2:
 471:src/stm32f4_discovery_audio_codec.c ****   {         
 472:src/stm32f4_discovery_audio_codec.c ****  #ifdef AUDIO_MAL_MODE_NORMAL
 473:src/stm32f4_discovery_audio_codec.c ****     /* Check if the end of file has been reached */
 474:src/stm32f4_discovery_audio_codec.c ****     if (AudioRemSize > 0)
 475:src/stm32f4_discovery_audio_codec.c ****     {      
 476:src/stm32f4_discovery_audio_codec.c ****       /* Wait the DMA Stream to be effectively disabled */
 477:src/stm32f4_discovery_audio_codec.c ****       while (DMA_GetCmdStatus(AUDIO_MAL_DMA_STREAM) != DISABLE)
 478:src/stm32f4_discovery_audio_codec.c ****       {}
 479:src/stm32f4_discovery_audio_codec.c ****       
 480:src/stm32f4_discovery_audio_codec.c ****       /* Clear the Interrupt flag */
 481:src/stm32f4_discovery_audio_codec.c ****       DMA_ClearFlag(AUDIO_MAL_DMA_STREAM, AUDIO_MAL_DMA_FLAG_TC); 
 482:src/stm32f4_discovery_audio_codec.c ****            
 483:src/stm32f4_discovery_audio_codec.c ****       /* Re-Configure the buffer address and size */
 484:src/stm32f4_discovery_audio_codec.c ****       DMA_InitStructure.DMA_Memory0BaseAddr = (uint32_t) CurrentPos;
 485:src/stm32f4_discovery_audio_codec.c ****       DMA_InitStructure.DMA_BufferSize = (uint32_t) (DMA_MAX(AudioRemSize));
 486:src/stm32f4_discovery_audio_codec.c ****             
 487:src/stm32f4_discovery_audio_codec.c ****       /* Configure the DMA Stream with the new parameters */
 488:src/stm32f4_discovery_audio_codec.c ****       DMA_Init(AUDIO_MAL_DMA_STREAM, &DMA_InitStructure);
 489:src/stm32f4_discovery_audio_codec.c ****       
 490:src/stm32f4_discovery_audio_codec.c ****       /* Enable the I2S DMA Stream*/
 491:src/stm32f4_discovery_audio_codec.c ****       DMA_Cmd(AUDIO_MAL_DMA_STREAM, ENABLE);    
 492:src/stm32f4_discovery_audio_codec.c ****       
 493:src/stm32f4_discovery_audio_codec.c ****       /* Update the current pointer position */
 494:src/stm32f4_discovery_audio_codec.c ****       CurrentPos += DMA_MAX(AudioRemSize);        
 495:src/stm32f4_discovery_audio_codec.c ****       
 496:src/stm32f4_discovery_audio_codec.c ****       /* Update the remaining number of data to be played */
 497:src/stm32f4_discovery_audio_codec.c ****       AudioRemSize -= DMA_MAX(AudioRemSize);   
 498:src/stm32f4_discovery_audio_codec.c ****         /* Enable the I2S DMA Stream*/
 499:src/stm32f4_discovery_audio_codec.c ****       DMA_Cmd(AUDIO_MAL_DMA_STREAM, ENABLE); 
 500:src/stm32f4_discovery_audio_codec.c ****     }
 501:src/stm32f4_discovery_audio_codec.c ****     else
 502:src/stm32f4_discovery_audio_codec.c ****     {
 503:src/stm32f4_discovery_audio_codec.c ****       /* Disable the I2S DMA Stream*/
 504:src/stm32f4_discovery_audio_codec.c ****       DMA_Cmd(AUDIO_MAL_DMA_STREAM, DISABLE);   
 505:src/stm32f4_discovery_audio_codec.c ****       
 506:src/stm32f4_discovery_audio_codec.c ****       /* Clear the Interrupt flag */
 507:src/stm32f4_discovery_audio_codec.c ****       DMA_ClearFlag(AUDIO_MAL_DMA_STREAM, AUDIO_MAL_DMA_FLAG_TC);       
 508:src/stm32f4_discovery_audio_codec.c ****       
 509:src/stm32f4_discovery_audio_codec.c ****       /* Manage the remaining file size and new address offset: This function 
 510:src/stm32f4_discovery_audio_codec.c ****       should be coded by user (its prototype is already declared in stm32f4_discovery_audio_codec.h
 511:src/stm32f4_discovery_audio_codec.c ****       EVAL_AUDIO_TransferComplete_CallBack((uint32_t)CurrentPos, 0);       
ARM GAS  C:\Users\CNous\AppData\Local\Temp\ccPT5vWC.s 			page 12


 512:src/stm32f4_discovery_audio_codec.c ****     }
 513:src/stm32f4_discovery_audio_codec.c ****     
 514:src/stm32f4_discovery_audio_codec.c ****  #elif defined(AUDIO_MAL_MODE_CIRCULAR)
 515:src/stm32f4_discovery_audio_codec.c ****     /* Manage the remaining file size and new address offset: This function 
 516:src/stm32f4_discovery_audio_codec.c ****        should be coded by user (its prototype is already declared in stm32f4_discovery_audio_codec.
 517:src/stm32f4_discovery_audio_codec.c ****     EVAL_AUDIO_TransferComplete_CallBack((uint32_t)pAddr, Size);    
 518:src/stm32f4_discovery_audio_codec.c ****     
 519:src/stm32f4_discovery_audio_codec.c ****     /* Clear the Interrupt flag */
 520:src/stm32f4_discovery_audio_codec.c ****     DMA_ClearFlag(AUDIO_MAL_DMA_STREAM, AUDIO_MAL_DMA_FLAG_TC);
 521:src/stm32f4_discovery_audio_codec.c ****  #endif /* AUDIO_MAL_MODE_NORMAL */  
 522:src/stm32f4_discovery_audio_codec.c ****   }
 523:src/stm32f4_discovery_audio_codec.c **** #endif /* AUDIO_MAL_DMA_IT_TC_EN */
 524:src/stm32f4_discovery_audio_codec.c **** 
 525:src/stm32f4_discovery_audio_codec.c **** #ifdef AUDIO_MAL_DMA_IT_HT_EN  
 526:src/stm32f4_discovery_audio_codec.c ****   /* Half Transfer complete interrupt */
 527:src/stm32f4_discovery_audio_codec.c ****   if (DMA_GetFlagStatus(AUDIO_MAL_DMA_STREAM, AUDIO_MAL_DMA_FLAG_HT) != RESET)
 113              		.loc 1 527 0
 114 0018 114D     		ldr	r5, .L10+16	@ tmp161,
 115 001a 2068     		ldr	r0, [r4, #0]	@, AUDIO_MAL_DMA_STREAM
 116 001c 2968     		ldr	r1, [r5, #0]	@, AUDIO_MAL_DMA_FLAG_HT
 117 001e FFF7FEFF 		bl	DMA_GetFlagStatus	@
 118              	.LVL3:
 119 0022 00B9     		cbnz	r0, .L9	@,
 120 0024 F8BD     		pop	{r3, r4, r5, r6, r7, pc}	@
 121              	.L9:
 528:src/stm32f4_discovery_audio_codec.c ****   {
 529:src/stm32f4_discovery_audio_codec.c ****     /* Manage the remaining file size and new address offset: This function 
 530:src/stm32f4_discovery_audio_codec.c ****        should be coded by user (its prototype is already declared in stm32f4_discovery_audio_codec.
 531:src/stm32f4_discovery_audio_codec.c ****     EVAL_AUDIO_HalfTransfer_CallBack((uint32_t)pAddr, Size);    
 122              		.loc 1 531 0
 123 0026 3846     		mov	r0, r7	@, pAddr
 124 0028 3146     		mov	r1, r6	@, Size
 125 002a FFF7FEFF 		bl	EVAL_AUDIO_HalfTransfer_CallBack	@
 126              	.LVL4:
 532:src/stm32f4_discovery_audio_codec.c ****    
 533:src/stm32f4_discovery_audio_codec.c ****     /* Clear the Interrupt flag */
 534:src/stm32f4_discovery_audio_codec.c ****     DMA_ClearFlag(AUDIO_MAL_DMA_STREAM, AUDIO_MAL_DMA_FLAG_HT);    
 127              		.loc 1 534 0
 128 002e 0848     		ldr	r0, .L10	@ tmp159,
 129 0030 2968     		ldr	r1, [r5, #0]	@, AUDIO_MAL_DMA_FLAG_HT
 130 0032 0068     		ldr	r0, [r0, #0]	@, AUDIO_MAL_DMA_STREAM
 535:src/stm32f4_discovery_audio_codec.c ****   }
 536:src/stm32f4_discovery_audio_codec.c **** #endif /* AUDIO_MAL_DMA_IT_HT_EN */
 537:src/stm32f4_discovery_audio_codec.c ****   
 538:src/stm32f4_discovery_audio_codec.c **** #ifdef AUDIO_MAL_DMA_IT_TE_EN  
 539:src/stm32f4_discovery_audio_codec.c ****   /* FIFO Error interrupt */
 540:src/stm32f4_discovery_audio_codec.c ****   if ((DMA_GetFlagStatus(AUDIO_MAL_DMA_STREAM, AUDIO_MAL_DMA_FLAG_TE) != RESET) || \
 541:src/stm32f4_discovery_audio_codec.c ****      (DMA_GetFlagStatus(AUDIO_MAL_DMA_STREAM, AUDIO_MAL_DMA_FLAG_FE) != RESET) || \
 542:src/stm32f4_discovery_audio_codec.c ****      (DMA_GetFlagStatus(AUDIO_MAL_DMA_STREAM, AUDIO_MAL_DMA_FLAG_DME) != RESET))
 543:src/stm32f4_discovery_audio_codec.c ****     
 544:src/stm32f4_discovery_audio_codec.c ****   {
 545:src/stm32f4_discovery_audio_codec.c ****     /* Manage the error generated on DMA FIFO: This function 
 546:src/stm32f4_discovery_audio_codec.c ****        should be coded by user (its prototype is already declared in stm32f4_discovery_audio_codec.
 547:src/stm32f4_discovery_audio_codec.c ****     EVAL_AUDIO_Error_CallBack((uint32_t*)&pAddr);    
 548:src/stm32f4_discovery_audio_codec.c ****     
 549:src/stm32f4_discovery_audio_codec.c ****     /* Clear the Interrupt flag */
 550:src/stm32f4_discovery_audio_codec.c ****     DMA_ClearFlag(AUDIO_MAL_DMA_STREAM, AUDIO_MAL_DMA_FLAG_TE | AUDIO_MAL_DMA_FLAG_FE | \
ARM GAS  C:\Users\CNous\AppData\Local\Temp\ccPT5vWC.s 			page 13


 551:src/stm32f4_discovery_audio_codec.c ****                                         AUDIO_MAL_DMA_FLAG_DME);
 552:src/stm32f4_discovery_audio_codec.c ****   }  
 553:src/stm32f4_discovery_audio_codec.c **** #endif /* AUDIO_MAL_DMA_IT_TE_EN */
 554:src/stm32f4_discovery_audio_codec.c **** }
 131              		.loc 1 554 0
 132 0034 BDE8F840 		pop	{r3, r4, r5, r6, r7, lr}	@
 534:src/stm32f4_discovery_audio_codec.c ****     DMA_ClearFlag(AUDIO_MAL_DMA_STREAM, AUDIO_MAL_DMA_FLAG_HT);    
 133              		.loc 1 534 0
 134 0038 FFF7FEBF 		b	DMA_ClearFlag	@
 135              	.LVL5:
 136              	.L8:
 517:src/stm32f4_discovery_audio_codec.c ****     EVAL_AUDIO_TransferComplete_CallBack((uint32_t)pAddr, Size);    
 137              		.loc 1 517 0
 138 003c 3846     		mov	r0, r7	@, pAddr
 139 003e 3146     		mov	r1, r6	@, Size
 140 0040 FFF7FEFF 		bl	EVAL_AUDIO_TransferComplete_CallBack	@
 141              	.LVL6:
 520:src/stm32f4_discovery_audio_codec.c ****     DMA_ClearFlag(AUDIO_MAL_DMA_STREAM, AUDIO_MAL_DMA_FLAG_TC);
 142              		.loc 1 520 0
 143 0044 2068     		ldr	r0, [r4, #0]	@, AUDIO_MAL_DMA_STREAM
 144 0046 2968     		ldr	r1, [r5, #0]	@, AUDIO_MAL_DMA_FLAG_TC
 145 0048 FFF7FEFF 		bl	DMA_ClearFlag	@
 146              	.LVL7:
 147 004c E4E7     		b	.L2	@
 148              	.L11:
 149 004e 00BF     		.align	2
 150              	.L10:
 151 0050 00000000 		.word	.LANCHOR1
 152 0054 00000000 		.word	.LANCHOR2
 153 0058 00000000 		.word	CurrentPos
 154 005c 00000000 		.word	.LANCHOR0
 155 0060 00000000 		.word	.LANCHOR3
 156              		.cfi_endproc
 157              	.LFE118:
 158              		.size	Audio_MAL_IRQHandler, .-Audio_MAL_IRQHandler
 159              		.section	.text.Codec_Reset,"ax",%progbits
 160              		.align	2
 161              		.thumb
 162              		.thumb_func
 163              		.type	Codec_Reset, %function
 164              	Codec_Reset:
 165              	.LFB129:
 555:src/stm32f4_discovery_audio_codec.c **** 
 556:src/stm32f4_discovery_audio_codec.c **** /**
 557:src/stm32f4_discovery_audio_codec.c ****   * @brief  This function handles main I2S interrupt. 
 558:src/stm32f4_discovery_audio_codec.c ****   * @param  None
 559:src/stm32f4_discovery_audio_codec.c ****   * @retval 0 if correct communication, else wrong communication
 560:src/stm32f4_discovery_audio_codec.c ****   */
 561:src/stm32f4_discovery_audio_codec.c **** void Audio_MAL_I2S_IRQHandler(void)
 562:src/stm32f4_discovery_audio_codec.c **** { 
 563:src/stm32f4_discovery_audio_codec.c ****   Audio_MAL_IRQHandler();
 564:src/stm32f4_discovery_audio_codec.c **** }
 565:src/stm32f4_discovery_audio_codec.c **** 
 566:src/stm32f4_discovery_audio_codec.c **** /**
 567:src/stm32f4_discovery_audio_codec.c ****   * @brief  This function handles main DAC interrupt. 
 568:src/stm32f4_discovery_audio_codec.c ****   * @param  None
 569:src/stm32f4_discovery_audio_codec.c ****   * @retval 0 if correct communication, else wrong communication
ARM GAS  C:\Users\CNous\AppData\Local\Temp\ccPT5vWC.s 			page 14


 570:src/stm32f4_discovery_audio_codec.c ****   */
 571:src/stm32f4_discovery_audio_codec.c **** void Audio_MAL_DAC_IRQHandler(void)
 572:src/stm32f4_discovery_audio_codec.c **** { 
 573:src/stm32f4_discovery_audio_codec.c ****   Audio_MAL_IRQHandler();
 574:src/stm32f4_discovery_audio_codec.c **** }
 575:src/stm32f4_discovery_audio_codec.c **** 
 576:src/stm32f4_discovery_audio_codec.c **** /**
 577:src/stm32f4_discovery_audio_codec.c ****   * @brief  I2S interrupt management
 578:src/stm32f4_discovery_audio_codec.c ****   * @param  None
 579:src/stm32f4_discovery_audio_codec.c ****   * @retval None
 580:src/stm32f4_discovery_audio_codec.c ****   */
 581:src/stm32f4_discovery_audio_codec.c **** void Audio_I2S_IRQHandler(void)
 582:src/stm32f4_discovery_audio_codec.c **** {
 583:src/stm32f4_discovery_audio_codec.c ****   /* Check on the I2S TXE flag */  
 584:src/stm32f4_discovery_audio_codec.c ****   if (SPI_I2S_GetFlagStatus(SPI3, SPI_I2S_FLAG_TXE) != RESET)
 585:src/stm32f4_discovery_audio_codec.c ****   { 
 586:src/stm32f4_discovery_audio_codec.c ****     if (CurrAudioInterface == AUDIO_INTERFACE_DAC)
 587:src/stm32f4_discovery_audio_codec.c ****     {
 588:src/stm32f4_discovery_audio_codec.c ****       /* Wirte data to the DAC interface */
 589:src/stm32f4_discovery_audio_codec.c ****       DAC_SetChannel1Data(DAC_Align_12b_L, EVAL_AUDIO_GetSampleCallBack()); 
 590:src/stm32f4_discovery_audio_codec.c ****     }
 591:src/stm32f4_discovery_audio_codec.c ****     
 592:src/stm32f4_discovery_audio_codec.c ****     /* Send dummy data on I2S to avoid the underrun condition */
 593:src/stm32f4_discovery_audio_codec.c ****     SPI_I2S_SendData(CODEC_I2S, EVAL_AUDIO_GetSampleCallBack()); 
 594:src/stm32f4_discovery_audio_codec.c ****   }
 595:src/stm32f4_discovery_audio_codec.c **** }
 596:src/stm32f4_discovery_audio_codec.c **** /*========================
 597:src/stm32f4_discovery_audio_codec.c **** 
 598:src/stm32f4_discovery_audio_codec.c ****                 CS43L22 Audio Codec Control Functions
 599:src/stm32f4_discovery_audio_codec.c ****                                                 ==============================*/
 600:src/stm32f4_discovery_audio_codec.c **** /**
 601:src/stm32f4_discovery_audio_codec.c ****   * @brief  Initializes the audio codec and all related interfaces (control 
 602:src/stm32f4_discovery_audio_codec.c ****   *         interface: I2C and audio interface: I2S)
 603:src/stm32f4_discovery_audio_codec.c ****   * @param  OutputDevice: can be OUTPUT_DEVICE_SPEAKER, OUTPUT_DEVICE_HEADPHONE,
 604:src/stm32f4_discovery_audio_codec.c ****   *                       OUTPUT_DEVICE_BOTH or OUTPUT_DEVICE_AUTO .
 605:src/stm32f4_discovery_audio_codec.c ****   * @param  Volume: Initial volume level (from 0 (Mute) to 100 (Max))
 606:src/stm32f4_discovery_audio_codec.c ****   * @param  AudioFreq: Audio frequency used to play the audio stream.
 607:src/stm32f4_discovery_audio_codec.c ****   * @retval 0 if correct communication, else wrong communication
 608:src/stm32f4_discovery_audio_codec.c ****   */
 609:src/stm32f4_discovery_audio_codec.c **** static uint32_t Codec_Init(uint16_t OutputDevice, uint8_t Volume, uint32_t AudioFreq)
 610:src/stm32f4_discovery_audio_codec.c **** {
 611:src/stm32f4_discovery_audio_codec.c ****   uint32_t counter = 0; 
 612:src/stm32f4_discovery_audio_codec.c **** 
 613:src/stm32f4_discovery_audio_codec.c ****   /* Configure the Codec related IOs */
 614:src/stm32f4_discovery_audio_codec.c ****   Codec_GPIO_Init();   
 615:src/stm32f4_discovery_audio_codec.c ****   
 616:src/stm32f4_discovery_audio_codec.c ****   /* Reset the Codec Registers */
 617:src/stm32f4_discovery_audio_codec.c ****   Codec_Reset();
 618:src/stm32f4_discovery_audio_codec.c **** 
 619:src/stm32f4_discovery_audio_codec.c ****   /* Initialize the Control interface of the Audio Codec */
 620:src/stm32f4_discovery_audio_codec.c ****   Codec_CtrlInterface_Init();     
 621:src/stm32f4_discovery_audio_codec.c ****   
 622:src/stm32f4_discovery_audio_codec.c ****   /* Keep Codec powered OFF */
 623:src/stm32f4_discovery_audio_codec.c ****   counter += Codec_WriteRegister(0x02, 0x01);  
 624:src/stm32f4_discovery_audio_codec.c ****       
 625:src/stm32f4_discovery_audio_codec.c ****   counter += Codec_WriteRegister(0x04, 0xAF); /* SPK always OFF & HP always ON */
 626:src/stm32f4_discovery_audio_codec.c ****   OutputDev = 0xAF;
ARM GAS  C:\Users\CNous\AppData\Local\Temp\ccPT5vWC.s 			page 15


 627:src/stm32f4_discovery_audio_codec.c ****   
 628:src/stm32f4_discovery_audio_codec.c ****   /* Clock configuration: Auto detection */  
 629:src/stm32f4_discovery_audio_codec.c ****   counter += Codec_WriteRegister(0x05, 0x81);
 630:src/stm32f4_discovery_audio_codec.c ****   
 631:src/stm32f4_discovery_audio_codec.c ****   /* Set the Slave Mode and the audio Standard */  
 632:src/stm32f4_discovery_audio_codec.c ****   counter += Codec_WriteRegister(0x06, CODEC_STANDARD);
 633:src/stm32f4_discovery_audio_codec.c ****       
 634:src/stm32f4_discovery_audio_codec.c ****   /* Set the Master volume */
 635:src/stm32f4_discovery_audio_codec.c ****   Codec_VolumeCtrl(Volume);
 636:src/stm32f4_discovery_audio_codec.c ****   
 637:src/stm32f4_discovery_audio_codec.c ****   if (CurrAudioInterface == AUDIO_INTERFACE_DAC)
 638:src/stm32f4_discovery_audio_codec.c ****   {
 639:src/stm32f4_discovery_audio_codec.c ****     /* Enable the PassThrough on AIN1A and AIN1B */
 640:src/stm32f4_discovery_audio_codec.c ****     counter += Codec_WriteRegister(0x08, 0x01);
 641:src/stm32f4_discovery_audio_codec.c ****     counter += Codec_WriteRegister(0x09, 0x01);
 642:src/stm32f4_discovery_audio_codec.c ****     
 643:src/stm32f4_discovery_audio_codec.c ****     /* Route the analog input to the HP line */
 644:src/stm32f4_discovery_audio_codec.c ****     counter += Codec_WriteRegister(0x0E, 0xC0);
 645:src/stm32f4_discovery_audio_codec.c ****     
 646:src/stm32f4_discovery_audio_codec.c ****     /* Set the Passthough volume */
 647:src/stm32f4_discovery_audio_codec.c ****     counter += Codec_WriteRegister(0x14, 0x00);
 648:src/stm32f4_discovery_audio_codec.c ****     counter += Codec_WriteRegister(0x15, 0x00);
 649:src/stm32f4_discovery_audio_codec.c ****   }
 650:src/stm32f4_discovery_audio_codec.c **** 
 651:src/stm32f4_discovery_audio_codec.c ****   /* Power on the Codec */
 652:src/stm32f4_discovery_audio_codec.c ****   counter += Codec_WriteRegister(0x02, 0x9E);  
 653:src/stm32f4_discovery_audio_codec.c ****   
 654:src/stm32f4_discovery_audio_codec.c ****   /* Additional configuration for the CODEC. These configurations are done to reduce
 655:src/stm32f4_discovery_audio_codec.c ****       the time needed for the Codec to power off. If these configurations are removed, 
 656:src/stm32f4_discovery_audio_codec.c ****       then a long delay should be added between powering off the Codec and switching 
 657:src/stm32f4_discovery_audio_codec.c ****       off the I2S peripheral MCLK clock (which is the operating clock for Codec).
 658:src/stm32f4_discovery_audio_codec.c ****       If this delay is not inserted, then the codec will not shut down properly and
 659:src/stm32f4_discovery_audio_codec.c ****       it results in high noise after shut down. */
 660:src/stm32f4_discovery_audio_codec.c ****   
 661:src/stm32f4_discovery_audio_codec.c ****   /* Disable the analog soft ramp */
 662:src/stm32f4_discovery_audio_codec.c ****   counter += Codec_WriteRegister(0x0A, 0x00);
 663:src/stm32f4_discovery_audio_codec.c ****   if (CurrAudioInterface != AUDIO_INTERFACE_DAC)
 664:src/stm32f4_discovery_audio_codec.c ****   {  
 665:src/stm32f4_discovery_audio_codec.c ****     /* Disable the digital soft ramp */
 666:src/stm32f4_discovery_audio_codec.c ****     counter += Codec_WriteRegister(0x0E, 0x04);
 667:src/stm32f4_discovery_audio_codec.c ****   }
 668:src/stm32f4_discovery_audio_codec.c ****   /* Disable the limiter attack level */
 669:src/stm32f4_discovery_audio_codec.c ****   counter += Codec_WriteRegister(0x27, 0x00);
 670:src/stm32f4_discovery_audio_codec.c ****   /* Adjust Bass and Treble levels */
 671:src/stm32f4_discovery_audio_codec.c ****   counter += Codec_WriteRegister(0x1F, 0x0F);
 672:src/stm32f4_discovery_audio_codec.c ****   /* Adjust PCM volume level */
 673:src/stm32f4_discovery_audio_codec.c ****   counter += Codec_WriteRegister(0x1A, 0x0A);
 674:src/stm32f4_discovery_audio_codec.c ****   counter += Codec_WriteRegister(0x1B, 0x0A);
 675:src/stm32f4_discovery_audio_codec.c **** 
 676:src/stm32f4_discovery_audio_codec.c ****   /* Configure the I2S peripheral */
 677:src/stm32f4_discovery_audio_codec.c ****   Codec_AudioInterface_Init(AudioFreq);  
 678:src/stm32f4_discovery_audio_codec.c ****   
 679:src/stm32f4_discovery_audio_codec.c ****   /* Return communication control value */
 680:src/stm32f4_discovery_audio_codec.c ****   return counter;  
 681:src/stm32f4_discovery_audio_codec.c **** }
 682:src/stm32f4_discovery_audio_codec.c **** 
 683:src/stm32f4_discovery_audio_codec.c **** /**
ARM GAS  C:\Users\CNous\AppData\Local\Temp\ccPT5vWC.s 			page 16


 684:src/stm32f4_discovery_audio_codec.c ****   * @brief  Restore the audio codec state to default state and free all used 
 685:src/stm32f4_discovery_audio_codec.c ****   *         resources.
 686:src/stm32f4_discovery_audio_codec.c ****   * @param  None
 687:src/stm32f4_discovery_audio_codec.c ****   * @retval 0 if correct communication, else wrong communication
 688:src/stm32f4_discovery_audio_codec.c ****   */
 689:src/stm32f4_discovery_audio_codec.c **** static uint32_t Codec_DeInit(void)
 690:src/stm32f4_discovery_audio_codec.c **** {
 691:src/stm32f4_discovery_audio_codec.c ****   uint32_t counter = 0; 
 692:src/stm32f4_discovery_audio_codec.c **** 
 693:src/stm32f4_discovery_audio_codec.c ****   /* Reset the Codec Registers */
 694:src/stm32f4_discovery_audio_codec.c ****   Codec_Reset();  
 695:src/stm32f4_discovery_audio_codec.c ****   
 696:src/stm32f4_discovery_audio_codec.c ****   /* Keep Codec powered OFF */
 697:src/stm32f4_discovery_audio_codec.c ****   counter += Codec_WriteRegister(0x02, 0x01);    
 698:src/stm32f4_discovery_audio_codec.c ****   
 699:src/stm32f4_discovery_audio_codec.c ****   /* Deinitialize all use GPIOs */
 700:src/stm32f4_discovery_audio_codec.c ****   Codec_GPIO_DeInit();
 701:src/stm32f4_discovery_audio_codec.c **** 
 702:src/stm32f4_discovery_audio_codec.c ****   /* Disable the Codec control interface */
 703:src/stm32f4_discovery_audio_codec.c ****   Codec_CtrlInterface_DeInit();
 704:src/stm32f4_discovery_audio_codec.c ****   
 705:src/stm32f4_discovery_audio_codec.c ****   /* Deinitialize the Codec audio interface (I2S) */
 706:src/stm32f4_discovery_audio_codec.c ****   Codec_AudioInterface_DeInit(); 
 707:src/stm32f4_discovery_audio_codec.c ****   
 708:src/stm32f4_discovery_audio_codec.c ****   /* Return communication control value */
 709:src/stm32f4_discovery_audio_codec.c ****   return counter;  
 710:src/stm32f4_discovery_audio_codec.c **** }
 711:src/stm32f4_discovery_audio_codec.c **** 
 712:src/stm32f4_discovery_audio_codec.c **** /**
 713:src/stm32f4_discovery_audio_codec.c ****   * @brief  Start the audio Codec play feature.
 714:src/stm32f4_discovery_audio_codec.c ****   * @note   For this codec no Play options are required.
 715:src/stm32f4_discovery_audio_codec.c ****   * @param  None
 716:src/stm32f4_discovery_audio_codec.c ****   * @retval 0 if correct communication, else wrong communication
 717:src/stm32f4_discovery_audio_codec.c ****   */
 718:src/stm32f4_discovery_audio_codec.c **** static uint32_t Codec_Play(void)
 719:src/stm32f4_discovery_audio_codec.c **** {
 720:src/stm32f4_discovery_audio_codec.c ****   /* 
 721:src/stm32f4_discovery_audio_codec.c ****      No actions required on Codec level for play command
 722:src/stm32f4_discovery_audio_codec.c ****      */  
 723:src/stm32f4_discovery_audio_codec.c **** 
 724:src/stm32f4_discovery_audio_codec.c ****   /* Return communication control value */
 725:src/stm32f4_discovery_audio_codec.c ****   return 0;  
 726:src/stm32f4_discovery_audio_codec.c **** }
 727:src/stm32f4_discovery_audio_codec.c **** 
 728:src/stm32f4_discovery_audio_codec.c **** /**
 729:src/stm32f4_discovery_audio_codec.c ****   * @brief  Pauses and resumes playing on the audio codec.
 730:src/stm32f4_discovery_audio_codec.c ****   * @param  Cmd: AUDIO_PAUSE (or 0) to pause, AUDIO_RESUME (or any value different
 731:src/stm32f4_discovery_audio_codec.c ****   *         from 0) to resume. 
 732:src/stm32f4_discovery_audio_codec.c ****   * @retval 0 if correct communication, else wrong communication
 733:src/stm32f4_discovery_audio_codec.c ****   */
 734:src/stm32f4_discovery_audio_codec.c **** static uint32_t Codec_PauseResume(uint32_t Cmd)
 735:src/stm32f4_discovery_audio_codec.c **** {
 736:src/stm32f4_discovery_audio_codec.c ****   uint32_t counter = 0;   
 737:src/stm32f4_discovery_audio_codec.c ****   
 738:src/stm32f4_discovery_audio_codec.c ****   /* Pause the audio file playing */
 739:src/stm32f4_discovery_audio_codec.c ****   if (Cmd == AUDIO_PAUSE)
 740:src/stm32f4_discovery_audio_codec.c ****   { 
ARM GAS  C:\Users\CNous\AppData\Local\Temp\ccPT5vWC.s 			page 17


 741:src/stm32f4_discovery_audio_codec.c ****     /* Mute the output first */
 742:src/stm32f4_discovery_audio_codec.c ****     counter += Codec_Mute(AUDIO_MUTE_ON);
 743:src/stm32f4_discovery_audio_codec.c **** 
 744:src/stm32f4_discovery_audio_codec.c ****     /* Put the Codec in Power save mode */    
 745:src/stm32f4_discovery_audio_codec.c ****     counter += Codec_WriteRegister(0x02, 0x01);    
 746:src/stm32f4_discovery_audio_codec.c ****   }
 747:src/stm32f4_discovery_audio_codec.c ****   else /* AUDIO_RESUME */
 748:src/stm32f4_discovery_audio_codec.c ****   {
 749:src/stm32f4_discovery_audio_codec.c ****     /* Unmute the output first */
 750:src/stm32f4_discovery_audio_codec.c ****     counter += Codec_Mute(AUDIO_MUTE_OFF);
 751:src/stm32f4_discovery_audio_codec.c ****     
 752:src/stm32f4_discovery_audio_codec.c ****     counter += Codec_WriteRegister(0x04, OutputDev);
 753:src/stm32f4_discovery_audio_codec.c ****     
 754:src/stm32f4_discovery_audio_codec.c ****     /* Exit the Power save mode */
 755:src/stm32f4_discovery_audio_codec.c ****     counter += Codec_WriteRegister(0x02, 0x9E); 
 756:src/stm32f4_discovery_audio_codec.c ****   }
 757:src/stm32f4_discovery_audio_codec.c **** 
 758:src/stm32f4_discovery_audio_codec.c ****   return counter;
 759:src/stm32f4_discovery_audio_codec.c **** }
 760:src/stm32f4_discovery_audio_codec.c **** 
 761:src/stm32f4_discovery_audio_codec.c **** /**
 762:src/stm32f4_discovery_audio_codec.c ****   * @brief  Stops audio Codec playing. It powers down the codec.
 763:src/stm32f4_discovery_audio_codec.c ****   * @param  CodecPdwnMode: selects the  power down mode.
 764:src/stm32f4_discovery_audio_codec.c ****   *          - CODEC_PDWN_SW: only mutes the audio codec. When resuming from this 
 765:src/stm32f4_discovery_audio_codec.c ****   *                           mode the codec keeps the previous initialization
 766:src/stm32f4_discovery_audio_codec.c ****   *                           (no need to re-Initialize the codec registers).
 767:src/stm32f4_discovery_audio_codec.c ****   *          - CODEC_PDWN_HW: Physically power down the codec. When resuming from this
 768:src/stm32f4_discovery_audio_codec.c ****   *                           mode, the codec is set to default configuration 
 769:src/stm32f4_discovery_audio_codec.c ****   *                           (user should re-Initialize the codec in order to 
 770:src/stm32f4_discovery_audio_codec.c ****   *                            play again the audio stream).
 771:src/stm32f4_discovery_audio_codec.c ****   * @retval 0 if correct communication, else wrong communication
 772:src/stm32f4_discovery_audio_codec.c ****   */
 773:src/stm32f4_discovery_audio_codec.c **** static uint32_t Codec_Stop(uint32_t CodecPdwnMode)
 774:src/stm32f4_discovery_audio_codec.c **** {
 775:src/stm32f4_discovery_audio_codec.c ****   uint32_t counter = 0;   
 776:src/stm32f4_discovery_audio_codec.c **** 
 777:src/stm32f4_discovery_audio_codec.c ****   /* Mute the output first */
 778:src/stm32f4_discovery_audio_codec.c ****   Codec_Mute(AUDIO_MUTE_ON);
 779:src/stm32f4_discovery_audio_codec.c ****   
 780:src/stm32f4_discovery_audio_codec.c ****   if (CodecPdwnMode == CODEC_PDWN_SW)
 781:src/stm32f4_discovery_audio_codec.c ****   {    
 782:src/stm32f4_discovery_audio_codec.c ****     /* Power down the DAC and the speaker (PMDAC and PMSPK bits)*/
 783:src/stm32f4_discovery_audio_codec.c ****     counter += Codec_WriteRegister(0x02, 0x9F);
 784:src/stm32f4_discovery_audio_codec.c ****   }
 785:src/stm32f4_discovery_audio_codec.c ****   else /* CODEC_PDWN_HW */
 786:src/stm32f4_discovery_audio_codec.c ****   { 
 787:src/stm32f4_discovery_audio_codec.c ****     /* Power down the DAC components */
 788:src/stm32f4_discovery_audio_codec.c ****     counter += Codec_WriteRegister(0x02, 0x9F);
 789:src/stm32f4_discovery_audio_codec.c ****     
 790:src/stm32f4_discovery_audio_codec.c ****     /* Wait at least 100us */
 791:src/stm32f4_discovery_audio_codec.c ****     Delay(0xFFF);
 792:src/stm32f4_discovery_audio_codec.c ****     
 793:src/stm32f4_discovery_audio_codec.c ****     /* Reset The pin */
 794:src/stm32f4_discovery_audio_codec.c ****     GPIO_WriteBit(AUDIO_RESET_GPIO, AUDIO_RESET_PIN, Bit_RESET);
 795:src/stm32f4_discovery_audio_codec.c ****   }
 796:src/stm32f4_discovery_audio_codec.c ****   
 797:src/stm32f4_discovery_audio_codec.c ****   return counter;    
ARM GAS  C:\Users\CNous\AppData\Local\Temp\ccPT5vWC.s 			page 18


 798:src/stm32f4_discovery_audio_codec.c **** }
 799:src/stm32f4_discovery_audio_codec.c **** 
 800:src/stm32f4_discovery_audio_codec.c **** /**
 801:src/stm32f4_discovery_audio_codec.c ****   * @brief  Sets higher or lower the codec volume level.
 802:src/stm32f4_discovery_audio_codec.c ****   * @param  Volume: a byte value from 0 to 255 (refer to codec registers 
 803:src/stm32f4_discovery_audio_codec.c ****   *         description for more details).
 804:src/stm32f4_discovery_audio_codec.c ****   * @retval 0 if correct communication, else wrong communication
 805:src/stm32f4_discovery_audio_codec.c ****   */
 806:src/stm32f4_discovery_audio_codec.c **** static uint32_t Codec_VolumeCtrl(uint8_t Volume)
 807:src/stm32f4_discovery_audio_codec.c **** {
 808:src/stm32f4_discovery_audio_codec.c ****   uint32_t counter = 0;
 809:src/stm32f4_discovery_audio_codec.c ****   
 810:src/stm32f4_discovery_audio_codec.c ****   if (Volume > 0xE6)
 811:src/stm32f4_discovery_audio_codec.c ****   {
 812:src/stm32f4_discovery_audio_codec.c ****     /* Set the Master volume */
 813:src/stm32f4_discovery_audio_codec.c ****     counter += Codec_WriteRegister(0x20, Volume - 0xE7); 
 814:src/stm32f4_discovery_audio_codec.c ****     counter += Codec_WriteRegister(0x21, Volume - 0xE7);     
 815:src/stm32f4_discovery_audio_codec.c ****   }
 816:src/stm32f4_discovery_audio_codec.c ****   else
 817:src/stm32f4_discovery_audio_codec.c ****   {
 818:src/stm32f4_discovery_audio_codec.c ****     /* Set the Master volume */
 819:src/stm32f4_discovery_audio_codec.c ****     counter += Codec_WriteRegister(0x20, Volume + 0x19); 
 820:src/stm32f4_discovery_audio_codec.c ****     counter += Codec_WriteRegister(0x21, Volume + 0x19); 
 821:src/stm32f4_discovery_audio_codec.c ****   }
 822:src/stm32f4_discovery_audio_codec.c **** 
 823:src/stm32f4_discovery_audio_codec.c ****   return counter;  
 824:src/stm32f4_discovery_audio_codec.c **** }
 825:src/stm32f4_discovery_audio_codec.c **** 
 826:src/stm32f4_discovery_audio_codec.c **** /**
 827:src/stm32f4_discovery_audio_codec.c ****   * @brief  Enables or disables the mute feature on the audio codec.
 828:src/stm32f4_discovery_audio_codec.c ****   * @param  Cmd: AUDIO_MUTE_ON to enable the mute or AUDIO_MUTE_OFF to disable the
 829:src/stm32f4_discovery_audio_codec.c ****   *             mute mode.
 830:src/stm32f4_discovery_audio_codec.c ****   * @retval 0 if correct communication, else wrong communication
 831:src/stm32f4_discovery_audio_codec.c ****   */
 832:src/stm32f4_discovery_audio_codec.c **** static uint32_t Codec_Mute(uint32_t Cmd)
 833:src/stm32f4_discovery_audio_codec.c **** {
 834:src/stm32f4_discovery_audio_codec.c ****   uint32_t counter = 0;  
 835:src/stm32f4_discovery_audio_codec.c ****   
 836:src/stm32f4_discovery_audio_codec.c ****   /* Set the Mute mode */
 837:src/stm32f4_discovery_audio_codec.c ****   if (Cmd == AUDIO_MUTE_ON)
 838:src/stm32f4_discovery_audio_codec.c ****   {
 839:src/stm32f4_discovery_audio_codec.c ****     counter += Codec_WriteRegister(0x04, 0xFF);
 840:src/stm32f4_discovery_audio_codec.c ****   }
 841:src/stm32f4_discovery_audio_codec.c ****   else /* AUDIO_MUTE_OFF Disable the Mute */
 842:src/stm32f4_discovery_audio_codec.c ****   {
 843:src/stm32f4_discovery_audio_codec.c ****     counter += Codec_WriteRegister(0x04, OutputDev);
 844:src/stm32f4_discovery_audio_codec.c ****   }
 845:src/stm32f4_discovery_audio_codec.c ****   
 846:src/stm32f4_discovery_audio_codec.c ****   return counter; 
 847:src/stm32f4_discovery_audio_codec.c **** }
 848:src/stm32f4_discovery_audio_codec.c **** 
 849:src/stm32f4_discovery_audio_codec.c **** /**
 850:src/stm32f4_discovery_audio_codec.c ****   * @brief  Resets the audio codec. It restores the default configuration of the 
 851:src/stm32f4_discovery_audio_codec.c ****   *         codec (this function shall be called before initializing the codec).
 852:src/stm32f4_discovery_audio_codec.c ****   * @note   This function calls an external driver function: The IO Expander driver.
 853:src/stm32f4_discovery_audio_codec.c ****   * @param  None
 854:src/stm32f4_discovery_audio_codec.c ****   * @retval None
ARM GAS  C:\Users\CNous\AppData\Local\Temp\ccPT5vWC.s 			page 19


 855:src/stm32f4_discovery_audio_codec.c ****   */
 856:src/stm32f4_discovery_audio_codec.c **** static void Codec_Reset(void)
 857:src/stm32f4_discovery_audio_codec.c **** {
 166              		.loc 1 857 0
 167              		.cfi_startproc
 168              		@ args = 0, pretend = 0, frame = 0
 169              		@ frame_needed = 0, uses_anonymous_args = 0
 858:src/stm32f4_discovery_audio_codec.c ****   /* Power Down the codec */
 859:src/stm32f4_discovery_audio_codec.c ****   GPIO_WriteBit(AUDIO_RESET_GPIO, AUDIO_RESET_PIN, Bit_RESET);
 170              		.loc 1 859 0
 171 0000 4FF44060 		mov	r0, #3072	@,
 857:src/stm32f4_discovery_audio_codec.c **** {
 172              		.loc 1 857 0
 173 0004 08B5     		push	{r3, lr}	@
 174              	.LCFI1:
 175              		.cfi_def_cfa_offset 8
 176              		.cfi_offset 3, -8
 177              		.cfi_offset 14, -4
 178              		.loc 1 859 0
 179 0006 C4F20200 		movt	r0, 16386	@,
 180 000a 1021     		movs	r1, #16	@,
 181 000c 0022     		movs	r2, #0	@,
 182 000e FFF7FEFF 		bl	GPIO_WriteBit	@
 183              	.LVL8:
 184              	.LBB10:
 185              	.LBB11:
 860:src/stm32f4_discovery_audio_codec.c **** 
 861:src/stm32f4_discovery_audio_codec.c ****   /* wait for a delay to insure registers erasing */
 862:src/stm32f4_discovery_audio_codec.c ****   Delay(CODEC_RESET_DELAY); 
 863:src/stm32f4_discovery_audio_codec.c ****   
 864:src/stm32f4_discovery_audio_codec.c ****   /* Power on the codec */
 865:src/stm32f4_discovery_audio_codec.c ****   GPIO_WriteBit(AUDIO_RESET_GPIO, AUDIO_RESET_PIN, Bit_SET);
 866:src/stm32f4_discovery_audio_codec.c **** }
 867:src/stm32f4_discovery_audio_codec.c **** 
 868:src/stm32f4_discovery_audio_codec.c **** /**
 869:src/stm32f4_discovery_audio_codec.c ****   * @brief  Writes a Byte to a given register into the audio codec through the 
 870:src/stm32f4_discovery_audio_codec.c ****             control interface (I2C)
 871:src/stm32f4_discovery_audio_codec.c ****   * @param  RegisterAddr: The address (location) of the register to be written.
 872:src/stm32f4_discovery_audio_codec.c ****   * @param  RegisterValue: the Byte value to be written into destination register.
 873:src/stm32f4_discovery_audio_codec.c ****   * @retval 0 if correct communication, else wrong communication
 874:src/stm32f4_discovery_audio_codec.c ****   */
 875:src/stm32f4_discovery_audio_codec.c **** static uint32_t Codec_WriteRegister(uint8_t RegisterAddr, uint8_t RegisterValue)
 876:src/stm32f4_discovery_audio_codec.c **** {
 877:src/stm32f4_discovery_audio_codec.c ****   uint32_t result = 0;
 878:src/stm32f4_discovery_audio_codec.c **** 
 879:src/stm32f4_discovery_audio_codec.c ****   /*!< While the bus is busy */
 880:src/stm32f4_discovery_audio_codec.c ****   CODECTimeout = CODEC_LONG_TIMEOUT;
 881:src/stm32f4_discovery_audio_codec.c ****   while(I2C_GetFlagStatus(CODEC_I2C, I2C_FLAG_BUSY))
 882:src/stm32f4_discovery_audio_codec.c ****   {
 883:src/stm32f4_discovery_audio_codec.c ****     if((CODECTimeout--) == 0) return Codec_TIMEOUT_UserCallback();
 884:src/stm32f4_discovery_audio_codec.c ****   }
 885:src/stm32f4_discovery_audio_codec.c ****   
 886:src/stm32f4_discovery_audio_codec.c ****   /* Start the config sequence */
 887:src/stm32f4_discovery_audio_codec.c ****   I2C_GenerateSTART(CODEC_I2C, ENABLE);
 888:src/stm32f4_discovery_audio_codec.c **** 
 889:src/stm32f4_discovery_audio_codec.c ****   /* Test on EV5 and clear it */
 890:src/stm32f4_discovery_audio_codec.c ****   CODECTimeout = CODEC_FLAG_TIMEOUT;
ARM GAS  C:\Users\CNous\AppData\Local\Temp\ccPT5vWC.s 			page 20


 891:src/stm32f4_discovery_audio_codec.c ****   while (!I2C_CheckEvent(CODEC_I2C, I2C_EVENT_MASTER_MODE_SELECT))
 892:src/stm32f4_discovery_audio_codec.c ****   {
 893:src/stm32f4_discovery_audio_codec.c ****     if((CODECTimeout--) == 0) return Codec_TIMEOUT_UserCallback();
 894:src/stm32f4_discovery_audio_codec.c ****   }
 895:src/stm32f4_discovery_audio_codec.c ****   
 896:src/stm32f4_discovery_audio_codec.c ****   /* Transmit the slave address and enable writing operation */
 897:src/stm32f4_discovery_audio_codec.c ****   I2C_Send7bitAddress(CODEC_I2C, CODEC_ADDRESS, I2C_Direction_Transmitter);
 898:src/stm32f4_discovery_audio_codec.c **** 
 899:src/stm32f4_discovery_audio_codec.c ****   /* Test on EV6 and clear it */
 900:src/stm32f4_discovery_audio_codec.c ****   CODECTimeout = CODEC_FLAG_TIMEOUT;
 901:src/stm32f4_discovery_audio_codec.c ****   while (!I2C_CheckEvent(CODEC_I2C, I2C_EVENT_MASTER_TRANSMITTER_MODE_SELECTED))
 902:src/stm32f4_discovery_audio_codec.c ****   {
 903:src/stm32f4_discovery_audio_codec.c ****     if((CODECTimeout--) == 0) return Codec_TIMEOUT_UserCallback();
 904:src/stm32f4_discovery_audio_codec.c ****   }
 905:src/stm32f4_discovery_audio_codec.c **** 
 906:src/stm32f4_discovery_audio_codec.c ****   /* Transmit the first address for write operation */
 907:src/stm32f4_discovery_audio_codec.c ****   I2C_SendData(CODEC_I2C, RegisterAddr);
 908:src/stm32f4_discovery_audio_codec.c **** 
 909:src/stm32f4_discovery_audio_codec.c ****   /* Test on EV8 and clear it */
 910:src/stm32f4_discovery_audio_codec.c ****   CODECTimeout = CODEC_FLAG_TIMEOUT;
 911:src/stm32f4_discovery_audio_codec.c ****   while (!I2C_CheckEvent(CODEC_I2C, I2C_EVENT_MASTER_BYTE_TRANSMITTING))
 912:src/stm32f4_discovery_audio_codec.c ****   {
 913:src/stm32f4_discovery_audio_codec.c ****     if((CODECTimeout--) == 0) return Codec_TIMEOUT_UserCallback();
 914:src/stm32f4_discovery_audio_codec.c ****   }
 915:src/stm32f4_discovery_audio_codec.c ****   
 916:src/stm32f4_discovery_audio_codec.c ****   /* Prepare the register value to be sent */
 917:src/stm32f4_discovery_audio_codec.c ****   I2C_SendData(CODEC_I2C, RegisterValue);
 918:src/stm32f4_discovery_audio_codec.c ****   
 919:src/stm32f4_discovery_audio_codec.c ****   /*!< Wait till all data have been physically transferred on the bus */
 920:src/stm32f4_discovery_audio_codec.c ****   CODECTimeout = CODEC_LONG_TIMEOUT;
 921:src/stm32f4_discovery_audio_codec.c ****   while(!I2C_GetFlagStatus(CODEC_I2C, I2C_FLAG_BTF))
 922:src/stm32f4_discovery_audio_codec.c ****   {
 923:src/stm32f4_discovery_audio_codec.c ****     if((CODECTimeout--) == 0) Codec_TIMEOUT_UserCallback();
 924:src/stm32f4_discovery_audio_codec.c ****   }
 925:src/stm32f4_discovery_audio_codec.c ****   
 926:src/stm32f4_discovery_audio_codec.c ****   /* End the configuration sequence */
 927:src/stm32f4_discovery_audio_codec.c ****   I2C_GenerateSTOP(CODEC_I2C, ENABLE);  
 928:src/stm32f4_discovery_audio_codec.c ****   
 929:src/stm32f4_discovery_audio_codec.c **** #ifdef VERIFY_WRITTENDATA
 930:src/stm32f4_discovery_audio_codec.c ****   /* Verify that the data has been correctly written */  
 931:src/stm32f4_discovery_audio_codec.c ****   result = (Codec_ReadRegister(RegisterAddr) == RegisterValue)? 0:1;
 932:src/stm32f4_discovery_audio_codec.c **** #endif /* VERIFY_WRITTENDATA */
 933:src/stm32f4_discovery_audio_codec.c **** 
 934:src/stm32f4_discovery_audio_codec.c ****   /* Return the verifying value: 0 (Passed) or 1 (Failed) */
 935:src/stm32f4_discovery_audio_codec.c ****   return result;  
 936:src/stm32f4_discovery_audio_codec.c **** }
 937:src/stm32f4_discovery_audio_codec.c **** 
 938:src/stm32f4_discovery_audio_codec.c **** /**
 939:src/stm32f4_discovery_audio_codec.c ****   * @brief  Reads and returns the value of an audio codec register through the
 940:src/stm32f4_discovery_audio_codec.c ****   *         control interface (I2C).
 941:src/stm32f4_discovery_audio_codec.c ****   * @param  RegisterAddr: Address of the register to be read.
 942:src/stm32f4_discovery_audio_codec.c ****   * @retval Value of the register to be read or dummy value if the communication
 943:src/stm32f4_discovery_audio_codec.c ****   *         fails.
 944:src/stm32f4_discovery_audio_codec.c ****   */
 945:src/stm32f4_discovery_audio_codec.c **** static uint32_t Codec_ReadRegister(uint8_t RegisterAddr)
 946:src/stm32f4_discovery_audio_codec.c **** {
 947:src/stm32f4_discovery_audio_codec.c ****   uint32_t result = 0;
ARM GAS  C:\Users\CNous\AppData\Local\Temp\ccPT5vWC.s 			page 21


 948:src/stm32f4_discovery_audio_codec.c **** 
 949:src/stm32f4_discovery_audio_codec.c ****   /*!< While the bus is busy */
 950:src/stm32f4_discovery_audio_codec.c ****   CODECTimeout = CODEC_LONG_TIMEOUT;
 951:src/stm32f4_discovery_audio_codec.c ****   while(I2C_GetFlagStatus(CODEC_I2C, I2C_FLAG_BUSY))
 952:src/stm32f4_discovery_audio_codec.c ****   {
 953:src/stm32f4_discovery_audio_codec.c ****     if((CODECTimeout--) == 0) return Codec_TIMEOUT_UserCallback();
 954:src/stm32f4_discovery_audio_codec.c ****   }
 955:src/stm32f4_discovery_audio_codec.c ****   
 956:src/stm32f4_discovery_audio_codec.c ****   /* Start the config sequence */
 957:src/stm32f4_discovery_audio_codec.c ****   I2C_GenerateSTART(CODEC_I2C, ENABLE);
 958:src/stm32f4_discovery_audio_codec.c **** 
 959:src/stm32f4_discovery_audio_codec.c ****   /* Test on EV5 and clear it */
 960:src/stm32f4_discovery_audio_codec.c ****   CODECTimeout = CODEC_FLAG_TIMEOUT;
 961:src/stm32f4_discovery_audio_codec.c ****   while (!I2C_CheckEvent(CODEC_I2C, I2C_EVENT_MASTER_MODE_SELECT))
 962:src/stm32f4_discovery_audio_codec.c ****   {
 963:src/stm32f4_discovery_audio_codec.c ****     if((CODECTimeout--) == 0) return Codec_TIMEOUT_UserCallback();
 964:src/stm32f4_discovery_audio_codec.c ****   }
 965:src/stm32f4_discovery_audio_codec.c ****   
 966:src/stm32f4_discovery_audio_codec.c ****   /* Transmit the slave address and enable writing operation */
 967:src/stm32f4_discovery_audio_codec.c ****   I2C_Send7bitAddress(CODEC_I2C, CODEC_ADDRESS, I2C_Direction_Transmitter);
 968:src/stm32f4_discovery_audio_codec.c **** 
 969:src/stm32f4_discovery_audio_codec.c ****   /* Test on EV6 and clear it */
 970:src/stm32f4_discovery_audio_codec.c ****   CODECTimeout = CODEC_FLAG_TIMEOUT;
 971:src/stm32f4_discovery_audio_codec.c ****   while (!I2C_CheckEvent(CODEC_I2C, I2C_EVENT_MASTER_TRANSMITTER_MODE_SELECTED))
 972:src/stm32f4_discovery_audio_codec.c ****   {
 973:src/stm32f4_discovery_audio_codec.c ****     if((CODECTimeout--) == 0) return Codec_TIMEOUT_UserCallback();
 974:src/stm32f4_discovery_audio_codec.c ****   }
 975:src/stm32f4_discovery_audio_codec.c **** 
 976:src/stm32f4_discovery_audio_codec.c ****   /* Transmit the register address to be read */
 977:src/stm32f4_discovery_audio_codec.c ****   I2C_SendData(CODEC_I2C, RegisterAddr);
 978:src/stm32f4_discovery_audio_codec.c **** 
 979:src/stm32f4_discovery_audio_codec.c ****   /* Test on EV8 and clear it */
 980:src/stm32f4_discovery_audio_codec.c ****   CODECTimeout = CODEC_FLAG_TIMEOUT;
 981:src/stm32f4_discovery_audio_codec.c ****   while (I2C_GetFlagStatus(CODEC_I2C, I2C_FLAG_BTF) == RESET)
 982:src/stm32f4_discovery_audio_codec.c ****   {
 983:src/stm32f4_discovery_audio_codec.c ****     if((CODECTimeout--) == 0) return Codec_TIMEOUT_UserCallback();
 984:src/stm32f4_discovery_audio_codec.c ****   }
 985:src/stm32f4_discovery_audio_codec.c ****   
 986:src/stm32f4_discovery_audio_codec.c ****   /*!< Send START condition a second time */  
 987:src/stm32f4_discovery_audio_codec.c ****   I2C_GenerateSTART(CODEC_I2C, ENABLE);
 988:src/stm32f4_discovery_audio_codec.c ****   
 989:src/stm32f4_discovery_audio_codec.c ****   /*!< Test on EV5 and clear it (cleared by reading SR1 then writing to DR) */
 990:src/stm32f4_discovery_audio_codec.c ****   CODECTimeout = CODEC_FLAG_TIMEOUT;
 991:src/stm32f4_discovery_audio_codec.c ****   while(!I2C_CheckEvent(CODEC_I2C, I2C_EVENT_MASTER_MODE_SELECT))
 992:src/stm32f4_discovery_audio_codec.c ****   {
 993:src/stm32f4_discovery_audio_codec.c ****     if((CODECTimeout--) == 0) return Codec_TIMEOUT_UserCallback();
 994:src/stm32f4_discovery_audio_codec.c ****   } 
 995:src/stm32f4_discovery_audio_codec.c ****   
 996:src/stm32f4_discovery_audio_codec.c ****   /*!< Send Codec address for read */
 997:src/stm32f4_discovery_audio_codec.c ****   I2C_Send7bitAddress(CODEC_I2C, CODEC_ADDRESS, I2C_Direction_Receiver);  
 998:src/stm32f4_discovery_audio_codec.c ****   
 999:src/stm32f4_discovery_audio_codec.c ****   /* Wait on ADDR flag to be set (ADDR is still not cleared at this level */
1000:src/stm32f4_discovery_audio_codec.c ****   CODECTimeout = CODEC_FLAG_TIMEOUT;
1001:src/stm32f4_discovery_audio_codec.c ****   while(I2C_GetFlagStatus(CODEC_I2C, I2C_FLAG_ADDR) == RESET)
1002:src/stm32f4_discovery_audio_codec.c ****   {
1003:src/stm32f4_discovery_audio_codec.c ****     if((CODECTimeout--) == 0) return Codec_TIMEOUT_UserCallback();
1004:src/stm32f4_discovery_audio_codec.c ****   }     
ARM GAS  C:\Users\CNous\AppData\Local\Temp\ccPT5vWC.s 			page 22


1005:src/stm32f4_discovery_audio_codec.c ****   
1006:src/stm32f4_discovery_audio_codec.c ****   /*!< Disable Acknowledgment */
1007:src/stm32f4_discovery_audio_codec.c ****   I2C_AcknowledgeConfig(CODEC_I2C, DISABLE);   
1008:src/stm32f4_discovery_audio_codec.c ****   
1009:src/stm32f4_discovery_audio_codec.c ****   /* Clear ADDR register by reading SR1 then SR2 register (SR1 has already been read) */
1010:src/stm32f4_discovery_audio_codec.c ****   (void)CODEC_I2C->SR2;
1011:src/stm32f4_discovery_audio_codec.c ****   
1012:src/stm32f4_discovery_audio_codec.c ****   /*!< Send STOP Condition */
1013:src/stm32f4_discovery_audio_codec.c ****   I2C_GenerateSTOP(CODEC_I2C, ENABLE);
1014:src/stm32f4_discovery_audio_codec.c ****   
1015:src/stm32f4_discovery_audio_codec.c ****   /* Wait for the byte to be received */
1016:src/stm32f4_discovery_audio_codec.c ****   CODECTimeout = CODEC_FLAG_TIMEOUT;
1017:src/stm32f4_discovery_audio_codec.c ****   while(I2C_GetFlagStatus(CODEC_I2C, I2C_FLAG_RXNE) == RESET)
1018:src/stm32f4_discovery_audio_codec.c ****   {
1019:src/stm32f4_discovery_audio_codec.c ****     if((CODECTimeout--) == 0) return Codec_TIMEOUT_UserCallback();
1020:src/stm32f4_discovery_audio_codec.c ****   }
1021:src/stm32f4_discovery_audio_codec.c ****   
1022:src/stm32f4_discovery_audio_codec.c ****   /*!< Read the byte received from the Codec */
1023:src/stm32f4_discovery_audio_codec.c ****   result = I2C_ReceiveData(CODEC_I2C);
1024:src/stm32f4_discovery_audio_codec.c ****   
1025:src/stm32f4_discovery_audio_codec.c ****   /* Wait to make sure that STOP flag has been cleared */
1026:src/stm32f4_discovery_audio_codec.c ****   CODECTimeout = CODEC_FLAG_TIMEOUT;
1027:src/stm32f4_discovery_audio_codec.c ****   while(CODEC_I2C->CR1 & I2C_CR1_STOP)
1028:src/stm32f4_discovery_audio_codec.c ****   {
1029:src/stm32f4_discovery_audio_codec.c ****     if((CODECTimeout--) == 0) return Codec_TIMEOUT_UserCallback();
1030:src/stm32f4_discovery_audio_codec.c ****   }  
1031:src/stm32f4_discovery_audio_codec.c ****   
1032:src/stm32f4_discovery_audio_codec.c ****   /*!< Re-Enable Acknowledgment to be ready for another reception */
1033:src/stm32f4_discovery_audio_codec.c ****   I2C_AcknowledgeConfig(CODEC_I2C, ENABLE);  
1034:src/stm32f4_discovery_audio_codec.c ****   
1035:src/stm32f4_discovery_audio_codec.c ****   /* Clear AF flag for next communication */
1036:src/stm32f4_discovery_audio_codec.c ****   I2C_ClearFlag(CODEC_I2C, I2C_FLAG_AF); 
1037:src/stm32f4_discovery_audio_codec.c ****   
1038:src/stm32f4_discovery_audio_codec.c ****   /* Return the byte read from Codec */
1039:src/stm32f4_discovery_audio_codec.c ****   return result;
1040:src/stm32f4_discovery_audio_codec.c **** }
1041:src/stm32f4_discovery_audio_codec.c **** 
1042:src/stm32f4_discovery_audio_codec.c **** /**
1043:src/stm32f4_discovery_audio_codec.c ****   * @brief  Initializes the Audio Codec control interface (I2C).
1044:src/stm32f4_discovery_audio_codec.c ****   * @param  None
1045:src/stm32f4_discovery_audio_codec.c ****   * @retval None
1046:src/stm32f4_discovery_audio_codec.c ****   */
1047:src/stm32f4_discovery_audio_codec.c **** static void Codec_CtrlInterface_Init(void)
1048:src/stm32f4_discovery_audio_codec.c **** {
1049:src/stm32f4_discovery_audio_codec.c ****   I2C_InitTypeDef I2C_InitStructure;
1050:src/stm32f4_discovery_audio_codec.c ****   
1051:src/stm32f4_discovery_audio_codec.c ****   /* Enable the CODEC_I2C peripheral clock */
1052:src/stm32f4_discovery_audio_codec.c ****   RCC_APB1PeriphClockCmd(CODEC_I2C_CLK, ENABLE);
1053:src/stm32f4_discovery_audio_codec.c ****   
1054:src/stm32f4_discovery_audio_codec.c ****   /* CODEC_I2C peripheral configuration */
1055:src/stm32f4_discovery_audio_codec.c ****   I2C_DeInit(CODEC_I2C);
1056:src/stm32f4_discovery_audio_codec.c ****   I2C_InitStructure.I2C_Mode = I2C_Mode_I2C;
1057:src/stm32f4_discovery_audio_codec.c ****   I2C_InitStructure.I2C_DutyCycle = I2C_DutyCycle_2;
1058:src/stm32f4_discovery_audio_codec.c ****   I2C_InitStructure.I2C_OwnAddress1 = 0x33;
1059:src/stm32f4_discovery_audio_codec.c ****   I2C_InitStructure.I2C_Ack = I2C_Ack_Enable;
1060:src/stm32f4_discovery_audio_codec.c ****   I2C_InitStructure.I2C_AcknowledgedAddress = I2C_AcknowledgedAddress_7bit;
1061:src/stm32f4_discovery_audio_codec.c ****   I2C_InitStructure.I2C_ClockSpeed = I2C_SPEED;
ARM GAS  C:\Users\CNous\AppData\Local\Temp\ccPT5vWC.s 			page 23


1062:src/stm32f4_discovery_audio_codec.c ****   /* Enable the I2C peripheral */
1063:src/stm32f4_discovery_audio_codec.c ****   I2C_Cmd(CODEC_I2C, ENABLE);  
1064:src/stm32f4_discovery_audio_codec.c ****   I2C_Init(CODEC_I2C, &I2C_InitStructure);
1065:src/stm32f4_discovery_audio_codec.c **** }
1066:src/stm32f4_discovery_audio_codec.c **** 
1067:src/stm32f4_discovery_audio_codec.c **** /**
1068:src/stm32f4_discovery_audio_codec.c ****   * @brief  Restore the Audio Codec control interface to its default state.
1069:src/stm32f4_discovery_audio_codec.c ****   *         This function doesn't de-initialize the I2C because the I2C peripheral
1070:src/stm32f4_discovery_audio_codec.c ****   *         may be used by other modules.
1071:src/stm32f4_discovery_audio_codec.c ****   * @param  None
1072:src/stm32f4_discovery_audio_codec.c ****   * @retval None
1073:src/stm32f4_discovery_audio_codec.c ****   */
1074:src/stm32f4_discovery_audio_codec.c **** static void Codec_CtrlInterface_DeInit(void)
1075:src/stm32f4_discovery_audio_codec.c **** {
1076:src/stm32f4_discovery_audio_codec.c ****   /* Disable the I2C peripheral */ /* This step is not done here because 
1077:src/stm32f4_discovery_audio_codec.c ****      the I2C interface can be used by other modules */
1078:src/stm32f4_discovery_audio_codec.c ****   /* I2C_DeInit(CODEC_I2C); */
1079:src/stm32f4_discovery_audio_codec.c **** }
1080:src/stm32f4_discovery_audio_codec.c **** 
1081:src/stm32f4_discovery_audio_codec.c **** /**
1082:src/stm32f4_discovery_audio_codec.c ****   * @brief  Initializes the Audio Codec audio interface (I2S)
1083:src/stm32f4_discovery_audio_codec.c ****   * @note   This function assumes that the I2S input clock (through PLL_R in 
1084:src/stm32f4_discovery_audio_codec.c ****   *         Devices RevA/Z and through dedicated PLLI2S_R in Devices RevB/Y)
1085:src/stm32f4_discovery_audio_codec.c ****   *         is already configured and ready to be used.    
1086:src/stm32f4_discovery_audio_codec.c ****   * @param  AudioFreq: Audio frequency to be configured for the I2S peripheral. 
1087:src/stm32f4_discovery_audio_codec.c ****   * @retval None
1088:src/stm32f4_discovery_audio_codec.c ****   */
1089:src/stm32f4_discovery_audio_codec.c **** static void Codec_AudioInterface_Init(uint32_t AudioFreq)
1090:src/stm32f4_discovery_audio_codec.c **** {
1091:src/stm32f4_discovery_audio_codec.c ****   I2S_InitTypeDef I2S_InitStructure;
1092:src/stm32f4_discovery_audio_codec.c ****   DAC_InitTypeDef  DAC_InitStructure;
1093:src/stm32f4_discovery_audio_codec.c **** 
1094:src/stm32f4_discovery_audio_codec.c ****   /* Enable the CODEC_I2S peripheral clock */
1095:src/stm32f4_discovery_audio_codec.c ****   RCC_APB1PeriphClockCmd(CODEC_I2S_CLK, ENABLE);
1096:src/stm32f4_discovery_audio_codec.c ****   
1097:src/stm32f4_discovery_audio_codec.c ****   /* CODEC_I2S peripheral configuration */
1098:src/stm32f4_discovery_audio_codec.c ****   SPI_I2S_DeInit(CODEC_I2S);
1099:src/stm32f4_discovery_audio_codec.c ****   I2S_InitStructure.I2S_AudioFreq = AudioFreq;
1100:src/stm32f4_discovery_audio_codec.c ****   I2S_InitStructure.I2S_Standard = I2S_STANDARD;
1101:src/stm32f4_discovery_audio_codec.c ****   I2S_InitStructure.I2S_DataFormat = I2S_DataFormat_16b;
1102:src/stm32f4_discovery_audio_codec.c ****   I2S_InitStructure.I2S_CPOL = I2S_CPOL_Low;
1103:src/stm32f4_discovery_audio_codec.c **** #ifdef DAC_USE_I2S_DMA
1104:src/stm32f4_discovery_audio_codec.c ****   if (CurrAudioInterface == AUDIO_INTERFACE_DAC)
1105:src/stm32f4_discovery_audio_codec.c ****   {  
1106:src/stm32f4_discovery_audio_codec.c ****     I2S_InitStructure.I2S_Mode = I2S_Mode_MasterRx;
1107:src/stm32f4_discovery_audio_codec.c ****   }
1108:src/stm32f4_discovery_audio_codec.c ****   else
1109:src/stm32f4_discovery_audio_codec.c ****   {
1110:src/stm32f4_discovery_audio_codec.c **** #else
1111:src/stm32f4_discovery_audio_codec.c ****    I2S_InitStructure.I2S_Mode = I2S_Mode_MasterTx;
1112:src/stm32f4_discovery_audio_codec.c **** #endif
1113:src/stm32f4_discovery_audio_codec.c **** #ifdef DAC_USE_I2S_DMA
1114:src/stm32f4_discovery_audio_codec.c ****   }
1115:src/stm32f4_discovery_audio_codec.c **** #endif /* DAC_USE_I2S_DMA */
1116:src/stm32f4_discovery_audio_codec.c **** #ifdef CODEC_MCLK_ENABLED
1117:src/stm32f4_discovery_audio_codec.c ****   I2S_InitStructure.I2S_MCLKOutput = I2S_MCLKOutput_Enable;
1118:src/stm32f4_discovery_audio_codec.c **** #elif defined(CODEC_MCLK_DISABLED)
ARM GAS  C:\Users\CNous\AppData\Local\Temp\ccPT5vWC.s 			page 24


1119:src/stm32f4_discovery_audio_codec.c ****   I2S_InitStructure.I2S_MCLKOutput = I2S_MCLKOutput_Disable;
1120:src/stm32f4_discovery_audio_codec.c **** #else
1121:src/stm32f4_discovery_audio_codec.c **** #error "No selection for the MCLK output has been defined !"
1122:src/stm32f4_discovery_audio_codec.c **** #endif /* CODEC_MCLK_ENABLED */
1123:src/stm32f4_discovery_audio_codec.c ****   
1124:src/stm32f4_discovery_audio_codec.c ****   /* Initialize the I2S peripheral with the structure above */
1125:src/stm32f4_discovery_audio_codec.c ****   I2S_Init(CODEC_I2S, &I2S_InitStructure);
1126:src/stm32f4_discovery_audio_codec.c **** 
1127:src/stm32f4_discovery_audio_codec.c **** 
1128:src/stm32f4_discovery_audio_codec.c ****   /* Configure the DAC interface */
1129:src/stm32f4_discovery_audio_codec.c ****   if (CurrAudioInterface == AUDIO_INTERFACE_DAC)
1130:src/stm32f4_discovery_audio_codec.c ****   {    
1131:src/stm32f4_discovery_audio_codec.c ****     /* DAC Periph clock enable */
1132:src/stm32f4_discovery_audio_codec.c ****     RCC_APB1PeriphClockCmd(RCC_APB1Periph_DAC, ENABLE);
1133:src/stm32f4_discovery_audio_codec.c ****     
1134:src/stm32f4_discovery_audio_codec.c ****     /* DAC channel1 Configuration */
1135:src/stm32f4_discovery_audio_codec.c ****     DAC_InitStructure.DAC_Trigger = DAC_Trigger_None;
1136:src/stm32f4_discovery_audio_codec.c ****     DAC_InitStructure.DAC_WaveGeneration = DAC_WaveGeneration_None;
1137:src/stm32f4_discovery_audio_codec.c ****     DAC_InitStructure.DAC_OutputBuffer = DAC_OutputBuffer_Enable;
1138:src/stm32f4_discovery_audio_codec.c ****     DAC_Init(AUDIO_DAC_CHANNEL, &DAC_InitStructure);
1139:src/stm32f4_discovery_audio_codec.c ****     
1140:src/stm32f4_discovery_audio_codec.c ****     /* Enable DAC Channel1 */
1141:src/stm32f4_discovery_audio_codec.c ****     DAC_Cmd(AUDIO_DAC_CHANNEL, ENABLE);  
1142:src/stm32f4_discovery_audio_codec.c ****   }
1143:src/stm32f4_discovery_audio_codec.c ****   
1144:src/stm32f4_discovery_audio_codec.c ****   /* The I2S peripheral will be enabled only in the EVAL_AUDIO_Play() function 
1145:src/stm32f4_discovery_audio_codec.c ****        or by user functions if DMA mode not enabled */  
1146:src/stm32f4_discovery_audio_codec.c **** }
1147:src/stm32f4_discovery_audio_codec.c **** 
1148:src/stm32f4_discovery_audio_codec.c **** /**
1149:src/stm32f4_discovery_audio_codec.c ****   * @brief  Restores the Audio Codec audio interface to its default state.
1150:src/stm32f4_discovery_audio_codec.c ****   * @param  None
1151:src/stm32f4_discovery_audio_codec.c ****   * @retval None
1152:src/stm32f4_discovery_audio_codec.c ****   */
1153:src/stm32f4_discovery_audio_codec.c **** static void Codec_AudioInterface_DeInit(void)
1154:src/stm32f4_discovery_audio_codec.c **** {
1155:src/stm32f4_discovery_audio_codec.c ****   /* Disable the CODEC_I2S peripheral (in case it hasn't already been disabled) */
1156:src/stm32f4_discovery_audio_codec.c ****   I2S_Cmd(CODEC_I2S, DISABLE);
1157:src/stm32f4_discovery_audio_codec.c ****   
1158:src/stm32f4_discovery_audio_codec.c ****   /* Deinitialize the CODEC_I2S peripheral */
1159:src/stm32f4_discovery_audio_codec.c ****   SPI_I2S_DeInit(CODEC_I2S);
1160:src/stm32f4_discovery_audio_codec.c ****   
1161:src/stm32f4_discovery_audio_codec.c ****   /* Disable the CODEC_I2S peripheral clock */
1162:src/stm32f4_discovery_audio_codec.c ****   RCC_APB1PeriphClockCmd(CODEC_I2S_CLK, DISABLE); 
1163:src/stm32f4_discovery_audio_codec.c **** }
1164:src/stm32f4_discovery_audio_codec.c **** 
1165:src/stm32f4_discovery_audio_codec.c **** /**
1166:src/stm32f4_discovery_audio_codec.c ****   * @brief Initializes IOs used by the Audio Codec (on the control and audio 
1167:src/stm32f4_discovery_audio_codec.c ****   *        interfaces).
1168:src/stm32f4_discovery_audio_codec.c ****   * @param  None
1169:src/stm32f4_discovery_audio_codec.c ****   * @retval None
1170:src/stm32f4_discovery_audio_codec.c ****   */
1171:src/stm32f4_discovery_audio_codec.c **** static void Codec_GPIO_Init(void)
1172:src/stm32f4_discovery_audio_codec.c **** {
1173:src/stm32f4_discovery_audio_codec.c ****   GPIO_InitTypeDef GPIO_InitStructure;
1174:src/stm32f4_discovery_audio_codec.c ****   
1175:src/stm32f4_discovery_audio_codec.c ****   /* Enable Reset GPIO Clock */
ARM GAS  C:\Users\CNous\AppData\Local\Temp\ccPT5vWC.s 			page 25


1176:src/stm32f4_discovery_audio_codec.c ****   RCC_AHB1PeriphClockCmd(AUDIO_RESET_GPIO_CLK,ENABLE);
1177:src/stm32f4_discovery_audio_codec.c ****   
1178:src/stm32f4_discovery_audio_codec.c ****   /* Audio reset pin configuration -------------------------------------------------*/
1179:src/stm32f4_discovery_audio_codec.c ****   GPIO_InitStructure.GPIO_Pin = AUDIO_RESET_PIN; 
1180:src/stm32f4_discovery_audio_codec.c ****   GPIO_InitStructure.GPIO_Mode = GPIO_Mode_OUT;
1181:src/stm32f4_discovery_audio_codec.c ****   GPIO_InitStructure.GPIO_Speed = GPIO_Speed_50MHz;
1182:src/stm32f4_discovery_audio_codec.c ****   GPIO_InitStructure.GPIO_OType = GPIO_OType_PP;
1183:src/stm32f4_discovery_audio_codec.c ****   GPIO_InitStructure.GPIO_PuPd  = GPIO_PuPd_NOPULL;
1184:src/stm32f4_discovery_audio_codec.c ****   GPIO_Init(AUDIO_RESET_GPIO, &GPIO_InitStructure);    
1185:src/stm32f4_discovery_audio_codec.c ****   
1186:src/stm32f4_discovery_audio_codec.c ****   /* Enable I2S and I2C GPIO clocks */
1187:src/stm32f4_discovery_audio_codec.c ****   RCC_AHB1PeriphClockCmd(CODEC_I2C_GPIO_CLOCK | CODEC_I2S_GPIO_CLOCK, ENABLE);
1188:src/stm32f4_discovery_audio_codec.c **** 
1189:src/stm32f4_discovery_audio_codec.c ****   /* CODEC_I2C SCL and SDA pins configuration -------------------------------------*/
1190:src/stm32f4_discovery_audio_codec.c ****   GPIO_InitStructure.GPIO_Pin = CODEC_I2C_SCL_PIN | CODEC_I2C_SDA_PIN; 
1191:src/stm32f4_discovery_audio_codec.c ****   GPIO_InitStructure.GPIO_Mode = GPIO_Mode_AF;
1192:src/stm32f4_discovery_audio_codec.c ****   GPIO_InitStructure.GPIO_Speed = GPIO_Speed_50MHz;
1193:src/stm32f4_discovery_audio_codec.c ****   GPIO_InitStructure.GPIO_OType = GPIO_OType_OD;
1194:src/stm32f4_discovery_audio_codec.c ****   GPIO_InitStructure.GPIO_PuPd  = GPIO_PuPd_NOPULL;
1195:src/stm32f4_discovery_audio_codec.c ****   GPIO_Init(CODEC_I2C_GPIO, &GPIO_InitStructure);     
1196:src/stm32f4_discovery_audio_codec.c ****   /* Connect pins to I2C peripheral */
1197:src/stm32f4_discovery_audio_codec.c ****   GPIO_PinAFConfig(CODEC_I2C_GPIO, CODEC_I2S_SCL_PINSRC, CODEC_I2C_GPIO_AF);  
1198:src/stm32f4_discovery_audio_codec.c ****   GPIO_PinAFConfig(CODEC_I2C_GPIO, CODEC_I2S_SDA_PINSRC, CODEC_I2C_GPIO_AF);  
1199:src/stm32f4_discovery_audio_codec.c **** 
1200:src/stm32f4_discovery_audio_codec.c ****   /* CODEC_I2S pins configuration: WS, SCK and SD pins -----------------------------*/
1201:src/stm32f4_discovery_audio_codec.c ****   GPIO_InitStructure.GPIO_Pin = CODEC_I2S_SCK_PIN | CODEC_I2S_SD_PIN; 
1202:src/stm32f4_discovery_audio_codec.c ****   GPIO_InitStructure.GPIO_Mode = GPIO_Mode_AF;
1203:src/stm32f4_discovery_audio_codec.c ****   GPIO_InitStructure.GPIO_Speed = GPIO_Speed_50MHz;
1204:src/stm32f4_discovery_audio_codec.c ****   GPIO_InitStructure.GPIO_OType = GPIO_OType_PP;
1205:src/stm32f4_discovery_audio_codec.c ****   GPIO_InitStructure.GPIO_PuPd = GPIO_PuPd_NOPULL;
1206:src/stm32f4_discovery_audio_codec.c ****   GPIO_Init(CODEC_I2S_GPIO, &GPIO_InitStructure);
1207:src/stm32f4_discovery_audio_codec.c ****   
1208:src/stm32f4_discovery_audio_codec.c ****   /* Connect pins to I2S peripheral  */
1209:src/stm32f4_discovery_audio_codec.c ****   GPIO_PinAFConfig(CODEC_I2S_WS_GPIO, CODEC_I2S_WS_PINSRC, CODEC_I2S_GPIO_AF);  
1210:src/stm32f4_discovery_audio_codec.c ****   GPIO_PinAFConfig(CODEC_I2S_GPIO, CODEC_I2S_SCK_PINSRC, CODEC_I2S_GPIO_AF);
1211:src/stm32f4_discovery_audio_codec.c **** 
1212:src/stm32f4_discovery_audio_codec.c ****   if (CurrAudioInterface != AUDIO_INTERFACE_DAC) 
1213:src/stm32f4_discovery_audio_codec.c ****   {
1214:src/stm32f4_discovery_audio_codec.c ****     GPIO_InitStructure.GPIO_Pin = CODEC_I2S_WS_PIN ;
1215:src/stm32f4_discovery_audio_codec.c ****     GPIO_Init(CODEC_I2S_WS_GPIO, &GPIO_InitStructure); 
1216:src/stm32f4_discovery_audio_codec.c ****     GPIO_PinAFConfig(CODEC_I2S_GPIO, CODEC_I2S_SD_PINSRC, CODEC_I2S_GPIO_AF);
1217:src/stm32f4_discovery_audio_codec.c ****   }
1218:src/stm32f4_discovery_audio_codec.c ****   else
1219:src/stm32f4_discovery_audio_codec.c ****   {
1220:src/stm32f4_discovery_audio_codec.c ****     /* GPIOA clock enable (to be used with DAC) */
1221:src/stm32f4_discovery_audio_codec.c ****     RCC_AHB1PeriphClockCmd(RCC_AHB1Periph_GPIOA, ENABLE);
1222:src/stm32f4_discovery_audio_codec.c ****    
1223:src/stm32f4_discovery_audio_codec.c ****     /* DAC channel 1 & 2 (DAC_OUT1 = PA.4) configuration */
1224:src/stm32f4_discovery_audio_codec.c ****     GPIO_InitStructure.GPIO_Pin = GPIO_Pin_4;
1225:src/stm32f4_discovery_audio_codec.c ****     GPIO_InitStructure.GPIO_Mode = GPIO_Mode_AN;
1226:src/stm32f4_discovery_audio_codec.c ****     GPIO_InitStructure.GPIO_PuPd = GPIO_PuPd_NOPULL;
1227:src/stm32f4_discovery_audio_codec.c ****     GPIO_Init(GPIOA, &GPIO_InitStructure);
1228:src/stm32f4_discovery_audio_codec.c ****   }
1229:src/stm32f4_discovery_audio_codec.c **** 
1230:src/stm32f4_discovery_audio_codec.c **** #ifdef CODEC_MCLK_ENABLED
1231:src/stm32f4_discovery_audio_codec.c ****   /* CODEC_I2S pins configuration: MCK pin */
1232:src/stm32f4_discovery_audio_codec.c ****   GPIO_InitStructure.GPIO_Pin = CODEC_I2S_MCK_PIN; 
ARM GAS  C:\Users\CNous\AppData\Local\Temp\ccPT5vWC.s 			page 26


1233:src/stm32f4_discovery_audio_codec.c ****   GPIO_InitStructure.GPIO_Mode = GPIO_Mode_AF;
1234:src/stm32f4_discovery_audio_codec.c ****   GPIO_InitStructure.GPIO_Speed = GPIO_Speed_50MHz;
1235:src/stm32f4_discovery_audio_codec.c ****   GPIO_InitStructure.GPIO_OType = GPIO_OType_PP;
1236:src/stm32f4_discovery_audio_codec.c ****   GPIO_InitStructure.GPIO_PuPd = GPIO_PuPd_NOPULL;
1237:src/stm32f4_discovery_audio_codec.c ****   GPIO_Init(CODEC_I2S_MCK_GPIO, &GPIO_InitStructure);   
1238:src/stm32f4_discovery_audio_codec.c ****   /* Connect pins to I2S peripheral  */
1239:src/stm32f4_discovery_audio_codec.c ****   GPIO_PinAFConfig(CODEC_I2S_MCK_GPIO, CODEC_I2S_MCK_PINSRC, CODEC_I2S_GPIO_AF); 
1240:src/stm32f4_discovery_audio_codec.c **** #endif /* CODEC_MCLK_ENABLED */ 
1241:src/stm32f4_discovery_audio_codec.c **** }
1242:src/stm32f4_discovery_audio_codec.c **** 
1243:src/stm32f4_discovery_audio_codec.c **** /**
1244:src/stm32f4_discovery_audio_codec.c ****   * @brief  Restores the IOs used by the Audio Codec interface to their default state.
1245:src/stm32f4_discovery_audio_codec.c ****   * @param  None
1246:src/stm32f4_discovery_audio_codec.c ****   * @retval None
1247:src/stm32f4_discovery_audio_codec.c ****   */
1248:src/stm32f4_discovery_audio_codec.c **** static void Codec_GPIO_DeInit(void)
1249:src/stm32f4_discovery_audio_codec.c **** {
1250:src/stm32f4_discovery_audio_codec.c ****   GPIO_InitTypeDef GPIO_InitStructure;
1251:src/stm32f4_discovery_audio_codec.c ****   
1252:src/stm32f4_discovery_audio_codec.c ****   /* Deinitialize all the GPIOs used by the driver */
1253:src/stm32f4_discovery_audio_codec.c ****   GPIO_InitStructure.GPIO_Pin =  CODEC_I2S_SCK_PIN | CODEC_I2S_SD_PIN;
1254:src/stm32f4_discovery_audio_codec.c ****   GPIO_InitStructure.GPIO_Mode = GPIO_Mode_IN;
1255:src/stm32f4_discovery_audio_codec.c ****   GPIO_InitStructure.GPIO_Speed = GPIO_Speed_2MHz;
1256:src/stm32f4_discovery_audio_codec.c ****   GPIO_InitStructure.GPIO_OType = GPIO_OType_PP;
1257:src/stm32f4_discovery_audio_codec.c ****   GPIO_InitStructure.GPIO_PuPd  = GPIO_PuPd_NOPULL;
1258:src/stm32f4_discovery_audio_codec.c ****   GPIO_Init(CODEC_I2S_GPIO, &GPIO_InitStructure);  
1259:src/stm32f4_discovery_audio_codec.c ****   
1260:src/stm32f4_discovery_audio_codec.c ****   GPIO_InitStructure.GPIO_Pin = CODEC_I2S_WS_PIN ;
1261:src/stm32f4_discovery_audio_codec.c ****   GPIO_Init(CODEC_I2S_WS_GPIO, &GPIO_InitStructure); 
1262:src/stm32f4_discovery_audio_codec.c ****      
1263:src/stm32f4_discovery_audio_codec.c ****   /* Disconnect pins from I2S peripheral  */
1264:src/stm32f4_discovery_audio_codec.c ****   GPIO_PinAFConfig(CODEC_I2S_WS_GPIO, CODEC_I2S_WS_PINSRC, 0x00);  
1265:src/stm32f4_discovery_audio_codec.c ****   GPIO_PinAFConfig(CODEC_I2S_GPIO, CODEC_I2S_SCK_PINSRC, 0x00);
1266:src/stm32f4_discovery_audio_codec.c ****   GPIO_PinAFConfig(CODEC_I2S_GPIO, CODEC_I2S_SD_PINSRC, 0x00);  
1267:src/stm32f4_discovery_audio_codec.c ****   
1268:src/stm32f4_discovery_audio_codec.c **** #ifdef CODEC_MCLK_ENABLED
1269:src/stm32f4_discovery_audio_codec.c ****   /* CODEC_I2S pins deinitialization: MCK pin */
1270:src/stm32f4_discovery_audio_codec.c ****   GPIO_InitStructure.GPIO_Pin = CODEC_I2S_MCK_PIN; 
1271:src/stm32f4_discovery_audio_codec.c ****   GPIO_Init(CODEC_I2S_MCK_GPIO, &GPIO_InitStructure);   
1272:src/stm32f4_discovery_audio_codec.c ****   /* Disconnect pins from I2S peripheral  */
1273:src/stm32f4_discovery_audio_codec.c ****   GPIO_PinAFConfig(CODEC_I2S_MCK_GPIO, CODEC_I2S_MCK_PINSRC, CODEC_I2S_GPIO_AF); 
1274:src/stm32f4_discovery_audio_codec.c **** #endif /* CODEC_MCLK_ENABLED */    
1275:src/stm32f4_discovery_audio_codec.c **** }
1276:src/stm32f4_discovery_audio_codec.c **** 
1277:src/stm32f4_discovery_audio_codec.c **** /**
1278:src/stm32f4_discovery_audio_codec.c ****   * @brief  Inserts a delay time (not accurate timing).
1279:src/stm32f4_discovery_audio_codec.c ****   * @param  nCount: specifies the delay time length.
1280:src/stm32f4_discovery_audio_codec.c ****   * @retval None
1281:src/stm32f4_discovery_audio_codec.c ****   */
1282:src/stm32f4_discovery_audio_codec.c **** 
1283:src/stm32f4_discovery_audio_codec.c **** static void Delay( __IO uint32_t nCount)
1284:src/stm32f4_discovery_audio_codec.c **** {
1285:src/stm32f4_discovery_audio_codec.c ****   for (; nCount != 0; nCount--);
 186              		.loc 1 1285 0
 187 0012 44F6FE73 		movw	r3, #20478	@ nCount,
 188              	.LVL9:
 189              	.L13:
ARM GAS  C:\Users\CNous\AppData\Local\Temp\ccPT5vWC.s 			page 27


 190 0016 023B     		subs	r3, r3, #2	@ nCount, nCount,
 191              	.LVL10:
 192 0018 FDD1     		bne	.L13	@,
 193              	.LBE11:
 194              	.LBE10:
 865:src/stm32f4_discovery_audio_codec.c ****   GPIO_WriteBit(AUDIO_RESET_GPIO, AUDIO_RESET_PIN, Bit_SET);
 195              		.loc 1 865 0
 196 001a 4FF44060 		mov	r0, #3072	@,
 197 001e C4F20200 		movt	r0, 16386	@,
 198 0022 1021     		movs	r1, #16	@,
 199 0024 0122     		movs	r2, #1	@,
 200 0026 FFF7FEFF 		bl	GPIO_WriteBit	@
 201              	.LVL11:
 202 002a 08BD     		pop	{r3, pc}	@
 203              		.cfi_endproc
 204              	.LFE129:
 205              		.size	Codec_Reset, .-Codec_Reset
 206              		.section	.text.Codec_WriteRegister,"ax",%progbits
 207              		.align	2
 208              		.thumb
 209              		.thumb_func
 210              		.type	Codec_WriteRegister, %function
 211              	Codec_WriteRegister:
 212              	.LFB130:
 876:src/stm32f4_discovery_audio_codec.c **** {
 213              		.loc 1 876 0
 214              		.cfi_startproc
 215              		@ args = 0, pretend = 0, frame = 0
 216              		@ frame_needed = 0, uses_anonymous_args = 0
 217              	.LVL12:
 218 0000 70B5     		push	{r4, r5, r6, lr}	@
 219              	.LCFI2:
 220              		.cfi_def_cfa_offset 16
 221              		.cfi_offset 4, -16
 222              		.cfi_offset 5, -12
 223              		.cfi_offset 6, -8
 224              		.cfi_offset 14, -4
 880:src/stm32f4_discovery_audio_codec.c ****   CODECTimeout = CODEC_LONG_TIMEOUT;
 225              		.loc 1 880 0
 226 0002 AE4C     		ldr	r4, .L79	@ tmp306,
 227 0004 4FF49613 		mov	r3, #1228800	@ tmp193,
 876:src/stm32f4_discovery_audio_codec.c **** {
 228              		.loc 1 876 0
 229 0008 0546     		mov	r5, r0	@ RegisterAddr, RegisterAddr
 230 000a 0E46     		mov	r6, r1	@ RegisterValue, RegisterValue
 880:src/stm32f4_discovery_audio_codec.c ****   CODECTimeout = CODEC_LONG_TIMEOUT;
 231              		.loc 1 880 0
 232 000c 2360     		str	r3, [r4, #0]	@ tmp193, CODECTimeout
 233              	.LVL13:
 234              	.L21:
 881:src/stm32f4_discovery_audio_codec.c ****   while(I2C_GetFlagStatus(CODEC_I2C, I2C_FLAG_BUSY))
 235              		.loc 1 881 0 discriminator 1
 236 000e 4FF4A840 		mov	r0, #21504	@,
 237 0012 C4F20000 		movt	r0, 16384	@,
 238 0016 4FF40031 		mov	r1, #131072	@,
 239 001a FFF7FEFF 		bl	I2C_GetFlagStatus	@
 240              	.LVL14:
ARM GAS  C:\Users\CNous\AppData\Local\Temp\ccPT5vWC.s 			page 28


 241 001e 40B1     		cbz	r0, .L67	@,
 883:src/stm32f4_discovery_audio_codec.c ****     if((CODECTimeout--) == 0) return Codec_TIMEOUT_UserCallback();
 242              		.loc 1 883 0
 243 0020 2368     		ldr	r3, [r4, #0]	@ CODECTimeout.8, CODECTimeout
 244 0022 5A1E     		subs	r2, r3, #1	@ CODECTimeout.9, CODECTimeout.8,
 245 0024 2260     		str	r2, [r4, #0]	@ CODECTimeout.9, CODECTimeout
 246 0026 002B     		cmp	r3, #0	@ CODECTimeout.8
 247 0028 F1D1     		bne	.L21	@
 248              	.L66:
 936:src/stm32f4_discovery_audio_codec.c **** }
 249              		.loc 1 936 0
 250 002a BDE87040 		pop	{r4, r5, r6, lr}	@
 251              	.LBB16:
 252              	.LBB17:
 913:src/stm32f4_discovery_audio_codec.c ****     if((CODECTimeout--) == 0) return Codec_TIMEOUT_UserCallback();
 253              		.loc 1 913 0
 254 002e FFF7FEBF 		b	Codec_TIMEOUT_UserCallback	@
 255              	.LVL15:
 256              	.L67:
 257              	.LBE17:
 258              	.LBE16:
 887:src/stm32f4_discovery_audio_codec.c ****   I2C_GenerateSTART(CODEC_I2C, ENABLE);
 259              		.loc 1 887 0
 260 0032 4FF4A840 		mov	r0, #21504	@,
 261 0036 C4F20000 		movt	r0, 16384	@,
 262 003a 0121     		movs	r1, #1	@,
 263 003c FFF7FEFF 		bl	I2C_GenerateSTART	@
 264              	.LVL16:
 890:src/stm32f4_discovery_audio_codec.c ****   CODECTimeout = CODEC_FLAG_TIMEOUT;
 265              		.loc 1 890 0
 266 0040 4FF48050 		mov	r0, #4096	@ tmp200,
 267 0044 2060     		str	r0, [r4, #0]	@ tmp200, CODECTimeout
 268              	.L23:
 891:src/stm32f4_discovery_audio_codec.c ****   while (!I2C_CheckEvent(CODEC_I2C, I2C_EVENT_MASTER_MODE_SELECT))
 269              		.loc 1 891 0 discriminator 1
 270 0046 4FF4A840 		mov	r0, #21504	@,
 271 004a 0121     		movs	r1, #1	@,
 272 004c C4F20000 		movt	r0, 16384	@,
 273 0050 C0F20301 		movt	r1, 3	@,
 274 0054 FFF7FEFF 		bl	I2C_CheckEvent	@
 275              	.LVL17:
 276 0058 28B9     		cbnz	r0, .L68	@,
 893:src/stm32f4_discovery_audio_codec.c ****     if((CODECTimeout--) == 0) return Codec_TIMEOUT_UserCallback();
 277              		.loc 1 893 0
 278 005a 2068     		ldr	r0, [r4, #0]	@ CODECTimeout.10, CODECTimeout
 279 005c 411E     		subs	r1, r0, #1	@ CODECTimeout.11, CODECTimeout.10,
 280 005e 2160     		str	r1, [r4, #0]	@ CODECTimeout.11, CODECTimeout
 281 0060 0028     		cmp	r0, #0	@ CODECTimeout.10
 282 0062 F0D1     		bne	.L23	@
 283 0064 E1E7     		b	.L66	@
 284              	.L68:
 285              	.LVL18:
 286              	.LBB24:
 287              	.LBB22:
 897:src/stm32f4_discovery_audio_codec.c ****   I2C_Send7bitAddress(CODEC_I2C, CODEC_ADDRESS, I2C_Direction_Transmitter);
 288              		.loc 1 897 0
 289 0066 4FF4A840 		mov	r0, #21504	@,
ARM GAS  C:\Users\CNous\AppData\Local\Temp\ccPT5vWC.s 			page 29


 290 006a 9421     		movs	r1, #148	@,
 291 006c C4F20000 		movt	r0, 16384	@,
 292 0070 0022     		movs	r2, #0	@,
 293 0072 FFF7FEFF 		bl	I2C_Send7bitAddress	@
 294              	.LVL19:
 900:src/stm32f4_discovery_audio_codec.c ****   CODECTimeout = CODEC_FLAG_TIMEOUT;
 295              		.loc 1 900 0
 296 0076 4FF48051 		mov	r1, #4096	@ tmp208,
 297 007a 2160     		str	r1, [r4, #0]	@ tmp208, CODECTimeout
 298              	.L25:
 901:src/stm32f4_discovery_audio_codec.c ****   while (!I2C_CheckEvent(CODEC_I2C, I2C_EVENT_MASTER_TRANSMITTER_MODE_SELECTED))
 299              		.loc 1 901 0
 300 007c 4FF4A840 		mov	r0, #21504	@,
 301 0080 8221     		movs	r1, #130	@,
 302 0082 C4F20000 		movt	r0, 16384	@,
 303 0086 C0F20701 		movt	r1, 7	@,
 304 008a FFF7FEFF 		bl	I2C_CheckEvent	@
 305              	.LVL20:
 306 008e 28B9     		cbnz	r0, .L69	@,
 903:src/stm32f4_discovery_audio_codec.c ****     if((CODECTimeout--) == 0) return Codec_TIMEOUT_UserCallback();
 307              		.loc 1 903 0
 308 0090 2368     		ldr	r3, [r4, #0]	@ CODECTimeout.12, CODECTimeout
 309 0092 5A1E     		subs	r2, r3, #1	@ CODECTimeout.13, CODECTimeout.12,
 310 0094 2260     		str	r2, [r4, #0]	@ CODECTimeout.13, CODECTimeout
 311 0096 002B     		cmp	r3, #0	@ CODECTimeout.12
 312 0098 F0D1     		bne	.L25	@
 313 009a C6E7     		b	.L66	@
 314              	.L69:
 907:src/stm32f4_discovery_audio_codec.c ****   I2C_SendData(CODEC_I2C, RegisterAddr);
 315              		.loc 1 907 0
 316 009c 4FF4A840 		mov	r0, #21504	@,
 317 00a0 C4F20000 		movt	r0, 16384	@,
 318 00a4 2946     		mov	r1, r5	@, RegisterAddr
 319 00a6 FFF7FEFF 		bl	I2C_SendData	@
 320              	.LVL21:
 910:src/stm32f4_discovery_audio_codec.c ****   CODECTimeout = CODEC_FLAG_TIMEOUT;
 321              		.loc 1 910 0
 322 00aa 4FF48052 		mov	r2, #4096	@ tmp216,
 323 00ae 2260     		str	r2, [r4, #0]	@ tmp216, CODECTimeout
 324              	.L27:
 911:src/stm32f4_discovery_audio_codec.c ****   while (!I2C_CheckEvent(CODEC_I2C, I2C_EVENT_MASTER_BYTE_TRANSMITTING))
 325              		.loc 1 911 0
 326 00b0 4FF4A840 		mov	r0, #21504	@,
 327 00b4 8021     		movs	r1, #128	@,
 328 00b6 C4F20000 		movt	r0, 16384	@,
 329 00ba C0F20701 		movt	r1, 7	@,
 330 00be FFF7FEFF 		bl	I2C_CheckEvent	@
 331              	.LVL22:
 332 00c2 28B9     		cbnz	r0, .L70	@,
 913:src/stm32f4_discovery_audio_codec.c ****     if((CODECTimeout--) == 0) return Codec_TIMEOUT_UserCallback();
 333              		.loc 1 913 0
 334 00c4 2068     		ldr	r0, [r4, #0]	@ CODECTimeout.14, CODECTimeout
 335 00c6 411E     		subs	r1, r0, #1	@ CODECTimeout.15, CODECTimeout.14,
 336 00c8 2160     		str	r1, [r4, #0]	@ CODECTimeout.15, CODECTimeout
 337 00ca 0028     		cmp	r0, #0	@ CODECTimeout.14
 338 00cc F0D1     		bne	.L27	@
 339 00ce ACE7     		b	.L66	@
ARM GAS  C:\Users\CNous\AppData\Local\Temp\ccPT5vWC.s 			page 30


 340              	.L70:
 917:src/stm32f4_discovery_audio_codec.c ****   I2C_SendData(CODEC_I2C, RegisterValue);
 341              		.loc 1 917 0
 342 00d0 4FF4A840 		mov	r0, #21504	@,
 343 00d4 C4F20000 		movt	r0, 16384	@,
 344 00d8 3146     		mov	r1, r6	@, RegisterValue
 345 00da FFF7FEFF 		bl	I2C_SendData	@
 346              	.LVL23:
 920:src/stm32f4_discovery_audio_codec.c ****   CODECTimeout = CODEC_LONG_TIMEOUT;
 347              		.loc 1 920 0
 348 00de 4FF49613 		mov	r3, #1228800	@ tmp224,
 349 00e2 2360     		str	r3, [r4, #0]	@ tmp224, CODECTimeout
 350              	.L63:
 921:src/stm32f4_discovery_audio_codec.c ****   while(!I2C_GetFlagStatus(CODEC_I2C, I2C_FLAG_BTF))
 351              		.loc 1 921 0
 352 00e4 4FF4A840 		mov	r0, #21504	@,
 353 00e8 0421     		movs	r1, #4	@,
 354 00ea C1F20001 		movt	r1, 4096	@,
 355 00ee C4F20000 		movt	r0, 16384	@,
 356 00f2 FFF7FEFF 		bl	I2C_GetFlagStatus	@
 357              	.LVL24:
 358 00f6 38B9     		cbnz	r0, .L71	@,
 923:src/stm32f4_discovery_audio_codec.c ****     if((CODECTimeout--) == 0) Codec_TIMEOUT_UserCallback();
 359              		.loc 1 923 0
 360 00f8 2368     		ldr	r3, [r4, #0]	@ CODECTimeout.16, CODECTimeout
 361 00fa 5A1E     		subs	r2, r3, #1	@ CODECTimeout.17, CODECTimeout.16,
 362 00fc 2260     		str	r2, [r4, #0]	@ CODECTimeout.17, CODECTimeout
 363 00fe 002B     		cmp	r3, #0	@ CODECTimeout.16
 364 0100 F0D1     		bne	.L63	@
 365 0102 FFF7FEFF 		bl	Codec_TIMEOUT_UserCallback	@
 366              	.LVL25:
 367 0106 EDE7     		b	.L63	@
 368              	.L71:
 927:src/stm32f4_discovery_audio_codec.c ****   I2C_GenerateSTOP(CODEC_I2C, ENABLE);  
 369              		.loc 1 927 0
 370 0108 4FF4A840 		mov	r0, #21504	@,
 371 010c C4F20000 		movt	r0, 16384	@,
 372 0110 0121     		movs	r1, #1	@,
 373 0112 FFF7FEFF 		bl	I2C_GenerateSTOP	@
 374              	.LVL26:
 375              	.LBB18:
 376              	.LBB19:
 950:src/stm32f4_discovery_audio_codec.c ****   CODECTimeout = CODEC_LONG_TIMEOUT;
 377              		.loc 1 950 0
 378 0116 4FF49610 		mov	r0, #1228800	@ tmp232,
 379 011a 2060     		str	r0, [r4, #0]	@ tmp232, CODECTimeout
 380              	.L32:
 951:src/stm32f4_discovery_audio_codec.c ****   while(I2C_GetFlagStatus(CODEC_I2C, I2C_FLAG_BUSY))
 381              		.loc 1 951 0
 382 011c 4FF4A840 		mov	r0, #21504	@,
 383 0120 C4F20000 		movt	r0, 16384	@,
 384 0124 4FF40031 		mov	r1, #131072	@,
 385 0128 FFF7FEFF 		bl	I2C_GetFlagStatus	@
 386              	.LVL27:
 387 012c 58B1     		cbz	r0, .L72	@,
 953:src/stm32f4_discovery_audio_codec.c ****     if((CODECTimeout--) == 0) return Codec_TIMEOUT_UserCallback();
 388              		.loc 1 953 0
ARM GAS  C:\Users\CNous\AppData\Local\Temp\ccPT5vWC.s 			page 31


 389 012e 2068     		ldr	r0, [r4, #0]	@ CODECTimeout.18, CODECTimeout
 390 0130 411E     		subs	r1, r0, #1	@ CODECTimeout.19, CODECTimeout.18,
 391 0132 2160     		str	r1, [r4, #0]	@ CODECTimeout.19, CODECTimeout
 392 0134 0028     		cmp	r0, #0	@ CODECTimeout.18
 393 0136 F1D1     		bne	.L32	@
 394              	.LVL28:
 395              	.L65:
1029:src/stm32f4_discovery_audio_codec.c ****     if((CODECTimeout--) == 0) return Codec_TIMEOUT_UserCallback();
 396              		.loc 1 1029 0
 397 0138 FFF7FEFF 		bl	Codec_TIMEOUT_UserCallback	@
 398              	.LVL29:
 399 013c 0546     		mov	r5, r0	@ result,
 400              	.L33:
 401              	.LVL30:
 402              	.LBE19:
 403              	.LBE18:
 404              	.LBE22:
 405              	.LBE24:
 936:src/stm32f4_discovery_audio_codec.c **** }
 406              		.loc 1 936 0
 407 013e 701B     		subs	r0, r6, r5	@, RegisterValue, result
 408 0140 18BF     		it	ne
 409 0142 0120     		movne	r0, #1	@,
 410 0144 70BD     		pop	{r4, r5, r6, pc}	@
 411              	.LVL31:
 412              	.L72:
 413              	.LBB25:
 414              	.LBB23:
 415              	.LBB21:
 416              	.LBB20:
 957:src/stm32f4_discovery_audio_codec.c ****   I2C_GenerateSTART(CODEC_I2C, ENABLE);
 417              		.loc 1 957 0
 418 0146 4FF4A840 		mov	r0, #21504	@,
 419 014a 0121     		movs	r1, #1	@,
 420 014c C4F20000 		movt	r0, 16384	@,
 421 0150 FFF7FEFF 		bl	I2C_GenerateSTART	@
 422              	.LVL32:
 960:src/stm32f4_discovery_audio_codec.c ****   CODECTimeout = CODEC_FLAG_TIMEOUT;
 423              		.loc 1 960 0
 424 0154 4FF48051 		mov	r1, #4096	@ tmp239,
 425 0158 2160     		str	r1, [r4, #0]	@ tmp239, CODECTimeout
 426              	.L35:
 961:src/stm32f4_discovery_audio_codec.c ****   while (!I2C_CheckEvent(CODEC_I2C, I2C_EVENT_MASTER_MODE_SELECT))
 427              		.loc 1 961 0
 428 015a 4FF4A840 		mov	r0, #21504	@,
 429 015e 0121     		movs	r1, #1	@,
 430 0160 C4F20000 		movt	r0, 16384	@,
 431 0164 C0F20301 		movt	r1, 3	@,
 432 0168 FFF7FEFF 		bl	I2C_CheckEvent	@
 433              	.LVL33:
 434 016c 28B9     		cbnz	r0, .L73	@,
 963:src/stm32f4_discovery_audio_codec.c ****     if((CODECTimeout--) == 0) return Codec_TIMEOUT_UserCallback();
 435              		.loc 1 963 0
 436 016e 2368     		ldr	r3, [r4, #0]	@ CODECTimeout.20, CODECTimeout
 437 0170 5A1E     		subs	r2, r3, #1	@ CODECTimeout.21, CODECTimeout.20,
 438 0172 2260     		str	r2, [r4, #0]	@ CODECTimeout.21, CODECTimeout
 439 0174 002B     		cmp	r3, #0	@ CODECTimeout.20
ARM GAS  C:\Users\CNous\AppData\Local\Temp\ccPT5vWC.s 			page 32


 440 0176 F0D1     		bne	.L35	@
 441 0178 DEE7     		b	.L65	@
 442              	.L73:
 967:src/stm32f4_discovery_audio_codec.c ****   I2C_Send7bitAddress(CODEC_I2C, CODEC_ADDRESS, I2C_Direction_Transmitter);
 443              		.loc 1 967 0
 444 017a 4FF4A840 		mov	r0, #21504	@,
 445 017e 0022     		movs	r2, #0	@,
 446 0180 C4F20000 		movt	r0, 16384	@,
 447 0184 9421     		movs	r1, #148	@,
 448 0186 FFF7FEFF 		bl	I2C_Send7bitAddress	@
 449              	.LVL34:
 970:src/stm32f4_discovery_audio_codec.c ****   CODECTimeout = CODEC_FLAG_TIMEOUT;
 450              		.loc 1 970 0
 451 018a 4FF48052 		mov	r2, #4096	@ tmp247,
 452 018e 2260     		str	r2, [r4, #0]	@ tmp247, CODECTimeout
 453              	.L37:
 971:src/stm32f4_discovery_audio_codec.c ****   while (!I2C_CheckEvent(CODEC_I2C, I2C_EVENT_MASTER_TRANSMITTER_MODE_SELECTED))
 454              		.loc 1 971 0
 455 0190 4FF4A840 		mov	r0, #21504	@,
 456 0194 8221     		movs	r1, #130	@,
 457 0196 C4F20000 		movt	r0, 16384	@,
 458 019a C0F20701 		movt	r1, 7	@,
 459 019e FFF7FEFF 		bl	I2C_CheckEvent	@
 460              	.LVL35:
 461 01a2 28B9     		cbnz	r0, .L74	@,
 973:src/stm32f4_discovery_audio_codec.c ****     if((CODECTimeout--) == 0) return Codec_TIMEOUT_UserCallback();
 462              		.loc 1 973 0
 463 01a4 2068     		ldr	r0, [r4, #0]	@ CODECTimeout.22, CODECTimeout
 464 01a6 411E     		subs	r1, r0, #1	@ CODECTimeout.23, CODECTimeout.22,
 465 01a8 2160     		str	r1, [r4, #0]	@ CODECTimeout.23, CODECTimeout
 466 01aa 0028     		cmp	r0, #0	@ CODECTimeout.22
 467 01ac F0D1     		bne	.L37	@
 468 01ae C3E7     		b	.L65	@
 469              	.L74:
 977:src/stm32f4_discovery_audio_codec.c ****   I2C_SendData(CODEC_I2C, RegisterAddr);
 470              		.loc 1 977 0
 471 01b0 4FF4A840 		mov	r0, #21504	@,
 472 01b4 2946     		mov	r1, r5	@, RegisterAddr
 473 01b6 C4F20000 		movt	r0, 16384	@,
 980:src/stm32f4_discovery_audio_codec.c ****   CODECTimeout = CODEC_FLAG_TIMEOUT;
 474              		.loc 1 980 0
 475 01ba 4FF48055 		mov	r5, #4096	@ tmp255,
 476              	.LVL36:
 977:src/stm32f4_discovery_audio_codec.c ****   I2C_SendData(CODEC_I2C, RegisterAddr);
 477              		.loc 1 977 0
 478 01be FFF7FEFF 		bl	I2C_SendData	@
 479              	.LVL37:
 980:src/stm32f4_discovery_audio_codec.c ****   CODECTimeout = CODEC_FLAG_TIMEOUT;
 480              		.loc 1 980 0
 481 01c2 2560     		str	r5, [r4, #0]	@ tmp255, CODECTimeout
 482 01c4 04E0     		b	.L39	@
 483              	.L40:
 983:src/stm32f4_discovery_audio_codec.c ****     if((CODECTimeout--) == 0) return Codec_TIMEOUT_UserCallback();
 484              		.loc 1 983 0
 485 01c6 2368     		ldr	r3, [r4, #0]	@ CODECTimeout.24, CODECTimeout
 486 01c8 5A1E     		subs	r2, r3, #1	@ CODECTimeout.25, CODECTimeout.24,
 487 01ca 2260     		str	r2, [r4, #0]	@ CODECTimeout.25, CODECTimeout
ARM GAS  C:\Users\CNous\AppData\Local\Temp\ccPT5vWC.s 			page 33


 488 01cc 002B     		cmp	r3, #0	@ CODECTimeout.24
 489 01ce B3D0     		beq	.L65	@
 490              	.L39:
 981:src/stm32f4_discovery_audio_codec.c ****   while (I2C_GetFlagStatus(CODEC_I2C, I2C_FLAG_BTF) == RESET)
 491              		.loc 1 981 0
 492 01d0 4FF4A840 		mov	r0, #21504	@,
 493 01d4 0421     		movs	r1, #4	@,
 494 01d6 C4F20000 		movt	r0, 16384	@,
 495 01da C1F20001 		movt	r1, 4096	@,
 496 01de FFF7FEFF 		bl	I2C_GetFlagStatus	@
 497              	.LVL38:
 498 01e2 0028     		cmp	r0, #0	@
 499 01e4 EFD0     		beq	.L40	@
 987:src/stm32f4_discovery_audio_codec.c ****   I2C_GenerateSTART(CODEC_I2C, ENABLE);
 500              		.loc 1 987 0
 501 01e6 4FF4A840 		mov	r0, #21504	@,
 502 01ea C4F20000 		movt	r0, 16384	@,
 503 01ee 0121     		movs	r1, #1	@,
 504 01f0 FFF7FEFF 		bl	I2C_GenerateSTART	@
 505              	.LVL39:
 990:src/stm32f4_discovery_audio_codec.c ****   CODECTimeout = CODEC_FLAG_TIMEOUT;
 506              		.loc 1 990 0
 507 01f4 4FF48053 		mov	r3, #4096	@ tmp263,
 508 01f8 2360     		str	r3, [r4, #0]	@ tmp263, CODECTimeout
 509              	.L41:
 991:src/stm32f4_discovery_audio_codec.c ****   while(!I2C_CheckEvent(CODEC_I2C, I2C_EVENT_MASTER_MODE_SELECT))
 510              		.loc 1 991 0
 511 01fa 4FF4A840 		mov	r0, #21504	@,
 512 01fe 0121     		movs	r1, #1	@,
 513 0200 C4F20000 		movt	r0, 16384	@,
 514 0204 C0F20301 		movt	r1, 3	@,
 515 0208 FFF7FEFF 		bl	I2C_CheckEvent	@
 516              	.LVL40:
 517 020c 28B9     		cbnz	r0, .L75	@,
 993:src/stm32f4_discovery_audio_codec.c ****     if((CODECTimeout--) == 0) return Codec_TIMEOUT_UserCallback();
 518              		.loc 1 993 0
 519 020e 2168     		ldr	r1, [r4, #0]	@ CODECTimeout.26, CODECTimeout
 520 0210 4D1E     		subs	r5, r1, #1	@ CODECTimeout.27, CODECTimeout.26,
 521 0212 2560     		str	r5, [r4, #0]	@ CODECTimeout.27, CODECTimeout
 522 0214 0029     		cmp	r1, #0	@ CODECTimeout.26
 523 0216 F0D1     		bne	.L41	@
 524 0218 8EE7     		b	.L65	@
 525              	.L75:
 997:src/stm32f4_discovery_audio_codec.c ****   I2C_Send7bitAddress(CODEC_I2C, CODEC_ADDRESS, I2C_Direction_Receiver);  
 526              		.loc 1 997 0
 527 021a 4FF4A840 		mov	r0, #21504	@,
 528 021e C4F20000 		movt	r0, 16384	@,
 529 0222 9421     		movs	r1, #148	@,
 530 0224 0122     		movs	r2, #1	@,
 531 0226 FFF7FEFF 		bl	I2C_Send7bitAddress	@
 532              	.LVL41:
1000:src/stm32f4_discovery_audio_codec.c ****   CODECTimeout = CODEC_FLAG_TIMEOUT;
 533              		.loc 1 1000 0
 534 022a 4FF48050 		mov	r0, #4096	@ tmp271,
 535 022e 2060     		str	r0, [r4, #0]	@ tmp271, CODECTimeout
 536              	.L43:
1001:src/stm32f4_discovery_audio_codec.c ****   while(I2C_GetFlagStatus(CODEC_I2C, I2C_FLAG_ADDR) == RESET)
ARM GAS  C:\Users\CNous\AppData\Local\Temp\ccPT5vWC.s 			page 34


 537              		.loc 1 1001 0
 538 0230 4FF4A845 		mov	r5, #21504	@ tmp274,
 539 0234 C4F20005 		movt	r5, 16384	@ tmp274,
 540 0238 0221     		movs	r1, #2	@,
 541 023a 2846     		mov	r0, r5	@, tmp274
 542 023c C1F20001 		movt	r1, 4096	@,
 543 0240 FFF7FEFF 		bl	I2C_GetFlagStatus	@
 544              	.LVL42:
 545 0244 28B9     		cbnz	r0, .L76	@,
1003:src/stm32f4_discovery_audio_codec.c ****     if((CODECTimeout--) == 0) return Codec_TIMEOUT_UserCallback();
 546              		.loc 1 1003 0
 547 0246 2368     		ldr	r3, [r4, #0]	@ CODECTimeout.28, CODECTimeout
 548 0248 581E     		subs	r0, r3, #1	@ CODECTimeout.29, CODECTimeout.28,
 549 024a 2060     		str	r0, [r4, #0]	@ CODECTimeout.29, CODECTimeout
 550 024c 002B     		cmp	r3, #0	@ CODECTimeout.28
 551 024e EFD1     		bne	.L43	@
 552 0250 72E7     		b	.L65	@
 553              	.L76:
1007:src/stm32f4_discovery_audio_codec.c ****   I2C_AcknowledgeConfig(CODEC_I2C, DISABLE);   
 554              		.loc 1 1007 0
 555 0252 2846     		mov	r0, r5	@, tmp274
 556 0254 0021     		movs	r1, #0	@,
 557 0256 FFF7FEFF 		bl	I2C_AcknowledgeConfig	@
 558              	.LVL43:
1013:src/stm32f4_discovery_audio_codec.c ****   I2C_GenerateSTOP(CODEC_I2C, ENABLE);
 559              		.loc 1 1013 0
 560 025a 0121     		movs	r1, #1	@,
 561 025c 2846     		mov	r0, r5	@, tmp274
1010:src/stm32f4_discovery_audio_codec.c ****   (void)CODEC_I2C->SR2;
 562              		.loc 1 1010 0
 563 025e 2B8B     		ldrh	r3, [r5, #24]	@, MEM[(struct I2C_TypeDef *)1073763328B].SR2
1013:src/stm32f4_discovery_audio_codec.c ****   I2C_GenerateSTOP(CODEC_I2C, ENABLE);
 564              		.loc 1 1013 0
 565 0260 FFF7FEFF 		bl	I2C_GenerateSTOP	@
 566              	.LVL44:
1016:src/stm32f4_discovery_audio_codec.c ****   CODECTimeout = CODEC_FLAG_TIMEOUT;
 567              		.loc 1 1016 0
 568 0264 4FF48051 		mov	r1, #4096	@ tmp283,
 569 0268 2160     		str	r1, [r4, #0]	@ tmp283, CODECTimeout
 570              	.L45:
1017:src/stm32f4_discovery_audio_codec.c ****   while(I2C_GetFlagStatus(CODEC_I2C, I2C_FLAG_RXNE) == RESET)
 571              		.loc 1 1017 0
 572 026a 4FF4A840 		mov	r0, #21504	@,
 573 026e 4021     		movs	r1, #64	@,
 574 0270 C4F20000 		movt	r0, 16384	@,
 575 0274 C1F20001 		movt	r1, 4096	@,
 576 0278 FFF7FEFF 		bl	I2C_GetFlagStatus	@
 577              	.LVL45:
 578 027c 28B9     		cbnz	r0, .L77	@,
1019:src/stm32f4_discovery_audio_codec.c ****     if((CODECTimeout--) == 0) return Codec_TIMEOUT_UserCallback();
 579              		.loc 1 1019 0
 580 027e 2568     		ldr	r5, [r4, #0]	@ CODECTimeout.31, CODECTimeout
 581 0280 6A1E     		subs	r2, r5, #1	@ CODECTimeout.32, CODECTimeout.31,
 582 0282 2260     		str	r2, [r4, #0]	@ CODECTimeout.32, CODECTimeout
 583 0284 002D     		cmp	r5, #0	@ CODECTimeout.31
 584 0286 F0D1     		bne	.L45	@
 585 0288 56E7     		b	.L65	@
ARM GAS  C:\Users\CNous\AppData\Local\Temp\ccPT5vWC.s 			page 35


 586              	.L77:
1023:src/stm32f4_discovery_audio_codec.c ****   result = I2C_ReceiveData(CODEC_I2C);
 587              		.loc 1 1023 0
 588 028a 4FF4A840 		mov	r0, #21504	@,
 589 028e C4F20000 		movt	r0, 16384	@,
 590 0292 FFF7FEFF 		bl	I2C_ReceiveData	@
 591              	.LVL46:
1027:src/stm32f4_discovery_audio_codec.c ****   while(CODEC_I2C->CR1 & I2C_CR1_STOP)
 592              		.loc 1 1027 0
 593 0296 4FF4A843 		mov	r3, #21504	@ tmp307,
1026:src/stm32f4_discovery_audio_codec.c ****   CODECTimeout = CODEC_FLAG_TIMEOUT;
 594              		.loc 1 1026 0
 595 029a 4FF48052 		mov	r2, #4096	@ tmp292,
1023:src/stm32f4_discovery_audio_codec.c ****   result = I2C_ReceiveData(CODEC_I2C);
 596              		.loc 1 1023 0
 597 029e 0546     		mov	r5, r0	@ result,
 598              	.LVL47:
1026:src/stm32f4_discovery_audio_codec.c ****   CODECTimeout = CODEC_FLAG_TIMEOUT;
 599              		.loc 1 1026 0
 600 02a0 2260     		str	r2, [r4, #0]	@ tmp292, CODECTimeout
1027:src/stm32f4_discovery_audio_codec.c ****   while(CODEC_I2C->CR1 & I2C_CR1_STOP)
 601              		.loc 1 1027 0
 602 02a2 C4F20003 		movt	r3, 16384	@ tmp307,
 603              	.LVL48:
 604              	.L47:
 605 02a6 1888     		ldrh	r0, [r3, #0]	@, MEM[(struct I2C_TypeDef *)1073763328B].CR1
 606 02a8 00F40071 		and	r1, r0, #512	@ tmp298, MEM[(struct I2C_TypeDef *)1073763328B].CR1,
 607 02ac 8AB2     		uxth	r2, r1	@ tmp299, tmp298
 608 02ae 3AB1     		cbz	r2, .L78	@ tmp299,
1029:src/stm32f4_discovery_audio_codec.c ****     if((CODECTimeout--) == 0) return Codec_TIMEOUT_UserCallback();
 609              		.loc 1 1029 0
 610 02b0 2068     		ldr	r0, [r4, #0]	@ CODECTimeout.33, CODECTimeout
 611 02b2 411E     		subs	r1, r0, #1	@ CODECTimeout.34, CODECTimeout.33,
 612 02b4 2160     		str	r1, [r4, #0]	@ CODECTimeout.34, CODECTimeout
 613 02b6 0028     		cmp	r0, #0	@ CODECTimeout.33
 614 02b8 F5D1     		bne	.L47	@
 615 02ba 3DE7     		b	.L65	@
 616              	.L80:
 617              		.align	2
 618              	.L79:
 619 02bc 00000000 		.word	.LANCHOR4
 620              	.L78:
1033:src/stm32f4_discovery_audio_codec.c ****   I2C_AcknowledgeConfig(CODEC_I2C, ENABLE);  
 621              		.loc 1 1033 0
 622 02c0 4FF4A840 		mov	r0, #21504	@,
 623 02c4 0121     		movs	r1, #1	@,
 624 02c6 C4F20000 		movt	r0, 16384	@,
 625 02ca FFF7FEFF 		bl	I2C_AcknowledgeConfig	@
 626              	.LVL49:
1036:src/stm32f4_discovery_audio_codec.c ****   I2C_ClearFlag(CODEC_I2C, I2C_FLAG_AF); 
 627              		.loc 1 1036 0
 628 02ce 4FF4A840 		mov	r0, #21504	@,
 629 02d2 4FF48061 		mov	r1, #1024	@,
 630 02d6 C4F20000 		movt	r0, 16384	@,
 631 02da C1F20001 		movt	r1, 4096	@,
 632 02de FFF7FEFF 		bl	I2C_ClearFlag	@
 633              	.LVL50:
ARM GAS  C:\Users\CNous\AppData\Local\Temp\ccPT5vWC.s 			page 36


 634 02e2 2CE7     		b	.L33	@
 635              	.LBE20:
 636              	.LBE21:
 637              	.LBE23:
 638              	.LBE25:
 639              		.cfi_endproc
 640              	.LFE130:
 641              		.size	Codec_WriteRegister, .-Codec_WriteRegister
 642              		.section	.text.Codec_Mute.part.1,"ax",%progbits
 643              		.align	2
 644              		.thumb
 645              		.thumb_func
 646              		.type	Codec_Mute.part.1, %function
 647              	Codec_Mute.part.1:
 648              	.LFB146:
 832:src/stm32f4_discovery_audio_codec.c **** static uint32_t Codec_Mute(uint32_t Cmd)
 649              		.loc 1 832 0
 650              		.cfi_startproc
 651              		@ args = 0, pretend = 0, frame = 0
 652              		@ frame_needed = 0, uses_anonymous_args = 0
 653              		@ link register save eliminated.
 839:src/stm32f4_discovery_audio_codec.c ****     counter += Codec_WriteRegister(0x04, 0xFF);
 654              		.loc 1 839 0
 655 0000 0420     		movs	r0, #4	@,
 656 0002 FF21     		movs	r1, #255	@,
 847:src/stm32f4_discovery_audio_codec.c **** }
 657              		.loc 1 847 0
 839:src/stm32f4_discovery_audio_codec.c ****     counter += Codec_WriteRegister(0x04, 0xFF);
 658              		.loc 1 839 0
 659 0004 FFF7FEBF 		b	Codec_WriteRegister	@
 660              	.LVL51:
 661              		.cfi_endproc
 662              	.LFE146:
 663              		.size	Codec_Mute.part.1, .-Codec_Mute.part.1
 664              		.section	.text.Codec_VolumeCtrl,"ax",%progbits
 665              		.align	2
 666              		.thumb
 667              		.thumb_func
 668              		.type	Codec_VolumeCtrl, %function
 669              	Codec_VolumeCtrl:
 670              	.LFB127:
 807:src/stm32f4_discovery_audio_codec.c **** {
 671              		.loc 1 807 0
 672              		.cfi_startproc
 673              		@ args = 0, pretend = 0, frame = 0
 674              		@ frame_needed = 0, uses_anonymous_args = 0
 675              	.LVL52:
 676              	.LBB28:
 677              	.LBB29:
 813:src/stm32f4_discovery_audio_codec.c ****     counter += Codec_WriteRegister(0x20, Volume - 0xE7); 
 678              		.loc 1 813 0
 679 0000 1930     		adds	r0, r0, #25	@ tmp143, Volume,
 680              	.LVL53:
 681              	.LBE29:
 682              	.LBE28:
 807:src/stm32f4_discovery_audio_codec.c **** {
 683              		.loc 1 807 0
ARM GAS  C:\Users\CNous\AppData\Local\Temp\ccPT5vWC.s 			page 37


 684 0002 38B5     		push	{r3, r4, r5, lr}	@
 685              	.LCFI3:
 686              		.cfi_def_cfa_offset 16
 687              		.cfi_offset 3, -16
 688              		.cfi_offset 4, -12
 689              		.cfi_offset 5, -8
 690              		.cfi_offset 14, -4
 691              	.LBB31:
 692              	.LBB30:
 813:src/stm32f4_discovery_audio_codec.c ****     counter += Codec_WriteRegister(0x20, Volume - 0xE7); 
 693              		.loc 1 813 0
 694 0004 C4B2     		uxtb	r4, r0	@ D.9155, tmp143
 695 0006 2146     		mov	r1, r4	@, D.9155
 696 0008 2020     		movs	r0, #32	@,
 697              	.LBE30:
 698              	.LBE31:
 819:src/stm32f4_discovery_audio_codec.c ****     counter += Codec_WriteRegister(0x20, Volume + 0x19); 
 699              		.loc 1 819 0
 700 000a FFF7FEFF 		bl	Codec_WriteRegister	@
 701              	.LVL54:
 820:src/stm32f4_discovery_audio_codec.c ****     counter += Codec_WriteRegister(0x21, Volume + 0x19); 
 702              		.loc 1 820 0
 703 000e 2146     		mov	r1, r4	@, D.8791
 819:src/stm32f4_discovery_audio_codec.c ****     counter += Codec_WriteRegister(0x20, Volume + 0x19); 
 704              		.loc 1 819 0
 705 0010 0546     		mov	r5, r0	@ D.8795,
 706              	.LVL55:
 820:src/stm32f4_discovery_audio_codec.c ****     counter += Codec_WriteRegister(0x21, Volume + 0x19); 
 707              		.loc 1 820 0
 708 0012 2120     		movs	r0, #33	@,
 709              	.LVL56:
 710 0014 FFF7FEFF 		bl	Codec_WriteRegister	@
 711              	.LVL57:
 712 0018 4019     		adds	r0, r0, r5	@ counter,, D.8795
 713              	.LVL58:
 824:src/stm32f4_discovery_audio_codec.c **** }
 714              		.loc 1 824 0
 715 001a 38BD     		pop	{r3, r4, r5, pc}	@
 716              		.cfi_endproc
 717              	.LFE127:
 718              		.size	Codec_VolumeCtrl, .-Codec_VolumeCtrl
 719              		.section	.text.EVAL_AUDIO_SetAudioInterface,"ax",%progbits
 720              		.align	2
 721              		.global	EVAL_AUDIO_SetAudioInterface
 722              		.thumb
 723              		.thumb_func
 724              		.type	EVAL_AUDIO_SetAudioInterface, %function
 725              	EVAL_AUDIO_SetAudioInterface:
 726              	.LFB110:
 271:src/stm32f4_discovery_audio_codec.c **** {    
 727              		.loc 1 271 0
 728              		.cfi_startproc
 729              		@ args = 0, pretend = 0, frame = 0
 730              		@ frame_needed = 0, uses_anonymous_args = 0
 731              		@ link register save eliminated.
 732              	.LVL59:
 272:src/stm32f4_discovery_audio_codec.c ****   CurrAudioInterface = Interface;
ARM GAS  C:\Users\CNous\AppData\Local\Temp\ccPT5vWC.s 			page 38


 733              		.loc 1 272 0
 734 0000 324B     		ldr	r3, .L90	@ tmp136,
 271:src/stm32f4_discovery_audio_codec.c **** {    
 735              		.loc 1 271 0
 736 0002 F0B4     		push	{r4, r5, r6, r7}	@
 737              	.LCFI4:
 738              		.cfi_def_cfa_offset 16
 739              		.cfi_offset 4, -16
 740              		.cfi_offset 5, -12
 741              		.cfi_offset 6, -8
 742              		.cfi_offset 7, -4
 272:src/stm32f4_discovery_audio_codec.c ****   CurrAudioInterface = Interface;
 743              		.loc 1 272 0
 744 0004 1860     		str	r0, [r3, #0]	@ Interface, CurrAudioInterface
 274:src/stm32f4_discovery_audio_codec.c ****   if (CurrAudioInterface == AUDIO_INTERFACE_I2S)
 745              		.loc 1 274 0
 746 0006 1968     		ldr	r1, [r3, #0]	@ CurrAudioInterface.65, CurrAudioInterface
 747 0008 0129     		cmp	r1, #1	@ CurrAudioInterface.65,
 748 000a 34D0     		beq	.L88	@,
 288:src/stm32f4_discovery_audio_codec.c ****   else if (Interface == AUDIO_INTERFACE_DAC)
 749              		.loc 1 288 0
 750 000c 0228     		cmp	r0, #2	@ Interface,
 751 000e 01D0     		beq	.L89	@,
 752              	.LVL60:
 753              	.L85:
 302:src/stm32f4_discovery_audio_codec.c **** }
 754              		.loc 1 302 0
 755 0010 F0BC     		pop	{r4, r5, r6, r7}
 756 0012 7047     		bx	lr
 757              	.LVL61:
 758              	.L89:
 291:src/stm32f4_discovery_audio_codec.c ****     AUDIO_MAL_DMA_CLOCK    = AUDIO_DAC_DMA_CLOCK;
 759              		.loc 1 291 0
 760 0014 2E4F     		ldr	r7, .L90+4	@ tmp158,
 761 0016 4FF4001C 		mov	ip, #2097152	@ tmp159,
 762 001a C7F800C0 		str	ip, [r7, #0]	@ tmp159, AUDIO_MAL_DMA_CLOCK
 292:src/stm32f4_discovery_audio_codec.c ****     AUDIO_MAL_DMA_STREAM   = AUDIO_DAC_DMA_STREAM;        
 763              		.loc 1 292 0
 764 001e 46F21006 		movw	r6, #24592	@ tmp161,
 765 0022 2C4F     		ldr	r7, .L90+8	@ tmp160,
 766 0024 C4F20206 		movt	r6, 16386	@ tmp161,
 293:src/stm32f4_discovery_audio_codec.c ****     AUDIO_MAL_DMA_DREG     = AUDIO_DAC_DMA_DREG;
 767              		.loc 1 293 0
 768 0028 47F20C45 		movw	r5, #29708	@ tmp163,
 292:src/stm32f4_discovery_audio_codec.c ****     AUDIO_MAL_DMA_STREAM   = AUDIO_DAC_DMA_STREAM;        
 769              		.loc 1 292 0
 770 002c 3E60     		str	r6, [r7, #0]	@ tmp161, AUDIO_MAL_DMA_STREAM
 293:src/stm32f4_discovery_audio_codec.c ****     AUDIO_MAL_DMA_DREG     = AUDIO_DAC_DMA_DREG;
 771              		.loc 1 293 0
 772 002e 2A4E     		ldr	r6, .L90+12	@ tmp162,
 773 0030 C4F20005 		movt	r5, 16384	@ tmp163,
 774 0034 3560     		str	r5, [r6, #0]	@ tmp163, AUDIO_MAL_DMA_DREG
 294:src/stm32f4_discovery_audio_codec.c ****     AUDIO_MAL_DMA_CHANNEL  = AUDIO_DAC_DMA_CHANNEL;
 775              		.loc 1 294 0
 776 0036 294D     		ldr	r5, .L90+16	@ tmp164,
 777 0038 0026     		movs	r6, #0	@ tmp165,
 778 003a 2E60     		str	r6, [r5, #0]	@ tmp165, AUDIO_MAL_DMA_CHANNEL
ARM GAS  C:\Users\CNous\AppData\Local\Temp\ccPT5vWC.s 			page 39


 295:src/stm32f4_discovery_audio_codec.c ****     AUDIO_MAL_DMA_IRQ      = AUDIO_DAC_DMA_IRQ  ;
 779              		.loc 1 295 0
 780 003c 284D     		ldr	r5, .L90+20	@ tmp166,
 781 003e 0B26     		movs	r6, #11	@ tmp167,
 782 0040 2E60     		str	r6, [r5, #0]	@ tmp167, AUDIO_MAL_DMA_IRQ
 296:src/stm32f4_discovery_audio_codec.c ****     AUDIO_MAL_DMA_FLAG_TC  = AUDIO_DAC_DMA_FLAG_TC;
 783              		.loc 1 296 0
 784 0042 2024     		movs	r4, #32	@ tmp169,
 785 0044 274D     		ldr	r5, .L90+24	@ tmp168,
 786 0046 C1F20004 		movt	r4, 4096	@ tmp169,
 297:src/stm32f4_discovery_audio_codec.c ****     AUDIO_MAL_DMA_FLAG_HT  = AUDIO_DAC_DMA_FLAG_HT;
 787              		.loc 1 297 0
 788 004a 1020     		movs	r0, #16	@ tmp171,
 789              	.LVL62:
 296:src/stm32f4_discovery_audio_codec.c ****     AUDIO_MAL_DMA_FLAG_TC  = AUDIO_DAC_DMA_FLAG_TC;
 790              		.loc 1 296 0
 791 004c 2C60     		str	r4, [r5, #0]	@ tmp169, AUDIO_MAL_DMA_FLAG_TC
 297:src/stm32f4_discovery_audio_codec.c ****     AUDIO_MAL_DMA_FLAG_HT  = AUDIO_DAC_DMA_FLAG_HT;
 792              		.loc 1 297 0
 793 004e 264C     		ldr	r4, .L90+28	@ tmp170,
 794 0050 C1F20000 		movt	r0, 4096	@ tmp171,
 298:src/stm32f4_discovery_audio_codec.c ****     AUDIO_MAL_DMA_FLAG_FE  = AUDIO_DAC_DMA_FLAG_FE;
 795              		.loc 1 298 0
 796 0054 0121     		movs	r1, #1	@ tmp173,
 297:src/stm32f4_discovery_audio_codec.c ****     AUDIO_MAL_DMA_FLAG_HT  = AUDIO_DAC_DMA_FLAG_HT;
 797              		.loc 1 297 0
 798 0056 2060     		str	r0, [r4, #0]	@ tmp171, AUDIO_MAL_DMA_FLAG_HT
 298:src/stm32f4_discovery_audio_codec.c ****     AUDIO_MAL_DMA_FLAG_FE  = AUDIO_DAC_DMA_FLAG_FE;
 799              		.loc 1 298 0
 800 0058 2448     		ldr	r0, .L90+32	@ tmp172,
 801 005a C1F28001 		movt	r1, 4224	@ tmp173,
 299:src/stm32f4_discovery_audio_codec.c ****     AUDIO_MAL_DMA_FLAG_TE  = AUDIO_DAC_DMA_FLAG_TE;
 802              		.loc 1 299 0
 803 005e 0822     		movs	r2, #8	@ tmp175,
 298:src/stm32f4_discovery_audio_codec.c ****     AUDIO_MAL_DMA_FLAG_FE  = AUDIO_DAC_DMA_FLAG_FE;
 804              		.loc 1 298 0
 805 0060 0160     		str	r1, [r0, #0]	@ tmp173, AUDIO_MAL_DMA_FLAG_FE
 299:src/stm32f4_discovery_audio_codec.c ****     AUDIO_MAL_DMA_FLAG_TE  = AUDIO_DAC_DMA_FLAG_TE;
 806              		.loc 1 299 0
 807 0062 2349     		ldr	r1, .L90+36	@ tmp174,
 808 0064 C1F20002 		movt	r2, 4096	@ tmp175,
 300:src/stm32f4_discovery_audio_codec.c ****     AUDIO_MAL_DMA_FLAG_DME = AUDIO_DAC_DMA_FLAG_DME;    
 809              		.loc 1 300 0
 810 0068 0423     		movs	r3, #4	@ tmp177,
 299:src/stm32f4_discovery_audio_codec.c ****     AUDIO_MAL_DMA_FLAG_TE  = AUDIO_DAC_DMA_FLAG_TE;
 811              		.loc 1 299 0
 812 006a 0A60     		str	r2, [r1, #0]	@ tmp175, AUDIO_MAL_DMA_FLAG_TE
 300:src/stm32f4_discovery_audio_codec.c ****     AUDIO_MAL_DMA_FLAG_DME = AUDIO_DAC_DMA_FLAG_DME;    
 813              		.loc 1 300 0
 814 006c 214A     		ldr	r2, .L90+40	@ tmp176,
 815 006e C1F28003 		movt	r3, 4224	@ tmp177,
 816 0072 1360     		str	r3, [r2, #0]	@ tmp177, AUDIO_MAL_DMA_FLAG_DME
 817 0074 CCE7     		b	.L85	@
 818              	.LVL63:
 819              	.L88:
 277:src/stm32f4_discovery_audio_codec.c ****     AUDIO_MAL_DMA_CLOCK    = AUDIO_I2S_DMA_CLOCK;
 820              		.loc 1 277 0
ARM GAS  C:\Users\CNous\AppData\Local\Temp\ccPT5vWC.s 			page 40


 821 0076 1649     		ldr	r1, .L90+4	@ tmp138,
 822 0078 4FF40010 		mov	r0, #2097152	@ tmp139,
 823              	.LVL64:
 824 007c 0860     		str	r0, [r1, #0]	@ tmp139, AUDIO_MAL_DMA_CLOCK
 278:src/stm32f4_discovery_audio_codec.c ****     AUDIO_MAL_DMA_STREAM   = AUDIO_I2S_DMA_STREAM;        
 825              		.loc 1 278 0
 826 007e 46F2B802 		movw	r2, #24760	@ tmp141,
 827 0082 1448     		ldr	r0, .L90+8	@ tmp140,
 828 0084 C4F20202 		movt	r2, 16386	@ tmp141,
 829 0088 0260     		str	r2, [r0, #0]	@ tmp141, AUDIO_MAL_DMA_STREAM
 279:src/stm32f4_discovery_audio_codec.c ****     AUDIO_MAL_DMA_DREG     = AUDIO_I2S_DMA_DREG;
 830              		.loc 1 279 0
 831 008a 43F60C43 		movw	r3, #15372	@ tmp143,
 832 008e 124A     		ldr	r2, .L90+12	@ tmp142,
 833 0090 C4F20003 		movt	r3, 16384	@ tmp143,
 834 0094 1360     		str	r3, [r2, #0]	@ tmp143, AUDIO_MAL_DMA_DREG
 280:src/stm32f4_discovery_audio_codec.c ****     AUDIO_MAL_DMA_CHANNEL  = AUDIO_I2S_DMA_CHANNEL;
 835              		.loc 1 280 0
 836 0096 114B     		ldr	r3, .L90+16	@ tmp144,
 281:src/stm32f4_discovery_audio_codec.c ****     AUDIO_MAL_DMA_IRQ      = AUDIO_I2S_DMA_IRQ  ;
 837              		.loc 1 281 0
 838 0098 114A     		ldr	r2, .L90+20	@ tmp146,
 280:src/stm32f4_discovery_audio_codec.c ****     AUDIO_MAL_DMA_CHANNEL  = AUDIO_I2S_DMA_CHANNEL;
 839              		.loc 1 280 0
 840 009a 0021     		movs	r1, #0	@ tmp145,
 841 009c 1960     		str	r1, [r3, #0]	@ tmp145, AUDIO_MAL_DMA_CHANNEL
 282:src/stm32f4_discovery_audio_codec.c ****     AUDIO_MAL_DMA_FLAG_TC  = AUDIO_I2S_DMA_FLAG_TC;
 842              		.loc 1 282 0
 843 009e 114B     		ldr	r3, .L90+24	@ tmp148,
 281:src/stm32f4_discovery_audio_codec.c ****     AUDIO_MAL_DMA_IRQ      = AUDIO_I2S_DMA_IRQ  ;
 844              		.loc 1 281 0
 845 00a0 2F20     		movs	r0, #47	@ tmp147,
 282:src/stm32f4_discovery_audio_codec.c ****     AUDIO_MAL_DMA_FLAG_TC  = AUDIO_I2S_DMA_FLAG_TC;
 846              		.loc 1 282 0
 847 00a2 4FF02051 		mov	r1, #671088640	@ tmp149,
 281:src/stm32f4_discovery_audio_codec.c ****     AUDIO_MAL_DMA_IRQ      = AUDIO_I2S_DMA_IRQ  ;
 848              		.loc 1 281 0
 849 00a6 1060     		str	r0, [r2, #0]	@ tmp147, AUDIO_MAL_DMA_IRQ
 282:src/stm32f4_discovery_audio_codec.c ****     AUDIO_MAL_DMA_FLAG_TC  = AUDIO_I2S_DMA_FLAG_TC;
 850              		.loc 1 282 0
 851 00a8 1960     		str	r1, [r3, #0]	@ tmp149, AUDIO_MAL_DMA_FLAG_TC
 283:src/stm32f4_discovery_audio_codec.c ****     AUDIO_MAL_DMA_FLAG_HT  = AUDIO_I2S_DMA_FLAG_HT;
 852              		.loc 1 283 0
 853 00aa 0F4A     		ldr	r2, .L90+28	@ tmp150,
 284:src/stm32f4_discovery_audio_codec.c ****     AUDIO_MAL_DMA_FLAG_FE  = AUDIO_I2S_DMA_FLAG_FE;
 854              		.loc 1 284 0
 855 00ac 0F4B     		ldr	r3, .L90+32	@ tmp152,
 283:src/stm32f4_discovery_audio_codec.c ****     AUDIO_MAL_DMA_FLAG_HT  = AUDIO_I2S_DMA_FLAG_HT;
 856              		.loc 1 283 0
 857 00ae 4FF01050 		mov	r0, #603979776	@ tmp151,
 284:src/stm32f4_discovery_audio_codec.c ****     AUDIO_MAL_DMA_FLAG_FE  = AUDIO_I2S_DMA_FLAG_FE;
 858              		.loc 1 284 0
 859 00b2 4FF00151 		mov	r1, #541065216	@ tmp153,
 283:src/stm32f4_discovery_audio_codec.c ****     AUDIO_MAL_DMA_FLAG_HT  = AUDIO_I2S_DMA_FLAG_HT;
 860              		.loc 1 283 0
 861 00b6 1060     		str	r0, [r2, #0]	@ tmp151, AUDIO_MAL_DMA_FLAG_HT
 284:src/stm32f4_discovery_audio_codec.c ****     AUDIO_MAL_DMA_FLAG_FE  = AUDIO_I2S_DMA_FLAG_FE;
ARM GAS  C:\Users\CNous\AppData\Local\Temp\ccPT5vWC.s 			page 41


 862              		.loc 1 284 0
 863 00b8 1960     		str	r1, [r3, #0]	@ tmp153, AUDIO_MAL_DMA_FLAG_FE
 285:src/stm32f4_discovery_audio_codec.c ****     AUDIO_MAL_DMA_FLAG_TE  = AUDIO_I2S_DMA_FLAG_TE;
 864              		.loc 1 285 0
 865 00ba 0D4A     		ldr	r2, .L90+36	@ tmp154,
 286:src/stm32f4_discovery_audio_codec.c ****     AUDIO_MAL_DMA_FLAG_DME = AUDIO_I2S_DMA_FLAG_DME;
 866              		.loc 1 286 0
 867 00bc 0D4B     		ldr	r3, .L90+40	@ tmp156,
 285:src/stm32f4_discovery_audio_codec.c ****     AUDIO_MAL_DMA_FLAG_TE  = AUDIO_I2S_DMA_FLAG_TE;
 868              		.loc 1 285 0
 869 00be 4FF00850 		mov	r0, #570425344	@ tmp155,
 286:src/stm32f4_discovery_audio_codec.c ****     AUDIO_MAL_DMA_FLAG_DME = AUDIO_I2S_DMA_FLAG_DME;
 870              		.loc 1 286 0
 871 00c2 4FF00451 		mov	r1, #553648128	@ tmp157,
 285:src/stm32f4_discovery_audio_codec.c ****     AUDIO_MAL_DMA_FLAG_TE  = AUDIO_I2S_DMA_FLAG_TE;
 872              		.loc 1 285 0
 873 00c6 1060     		str	r0, [r2, #0]	@ tmp155, AUDIO_MAL_DMA_FLAG_TE
 286:src/stm32f4_discovery_audio_codec.c ****     AUDIO_MAL_DMA_FLAG_DME = AUDIO_I2S_DMA_FLAG_DME;
 874              		.loc 1 286 0
 875 00c8 1960     		str	r1, [r3, #0]	@ tmp157, AUDIO_MAL_DMA_FLAG_DME
 876 00ca A1E7     		b	.L85	@
 877              	.L91:
 878              		.align	2
 879              	.L90:
 880 00cc 00000000 		.word	.LANCHOR5
 881 00d0 00000000 		.word	.LANCHOR6
 882 00d4 00000000 		.word	.LANCHOR1
 883 00d8 00000000 		.word	.LANCHOR7
 884 00dc 00000000 		.word	.LANCHOR8
 885 00e0 00000000 		.word	.LANCHOR9
 886 00e4 00000000 		.word	.LANCHOR2
 887 00e8 00000000 		.word	.LANCHOR3
 888 00ec 00000000 		.word	.LANCHOR10
 889 00f0 00000000 		.word	.LANCHOR11
 890 00f4 00000000 		.word	.LANCHOR12
 891              		.cfi_endproc
 892              	.LFE110:
 893              		.size	EVAL_AUDIO_SetAudioInterface, .-EVAL_AUDIO_SetAudioInterface
 894              		.section	.text.EVAL_AUDIO_DeInit,"ax",%progbits
 895              		.align	2
 896              		.global	EVAL_AUDIO_DeInit
 897              		.thumb
 898              		.thumb_func
 899              		.type	EVAL_AUDIO_DeInit, %function
 900              	EVAL_AUDIO_DeInit:
 901              	.LFB112:
 337:src/stm32f4_discovery_audio_codec.c **** { 
 902              		.loc 1 337 0
 903              		.cfi_startproc
 904              		@ args = 0, pretend = 0, frame = 16
 905              		@ frame_needed = 0, uses_anonymous_args = 0
 906 0000 70B5     		push	{r4, r5, r6, lr}	@
 907              	.LCFI5:
 908              		.cfi_def_cfa_offset 16
 909              		.cfi_offset 4, -16
 910              		.cfi_offset 5, -12
 911              		.cfi_offset 6, -8
ARM GAS  C:\Users\CNous\AppData\Local\Temp\ccPT5vWC.s 			page 42


 912              		.cfi_offset 14, -4
 913              	.LBB40:
 914              	.LBB41:
1286:src/stm32f4_discovery_audio_codec.c **** }
1287:src/stm32f4_discovery_audio_codec.c **** 
1288:src/stm32f4_discovery_audio_codec.c **** #ifdef USE_DEFAULT_TIMEOUT_CALLBACK
1289:src/stm32f4_discovery_audio_codec.c **** /**
1290:src/stm32f4_discovery_audio_codec.c ****   * @brief  Basic management of the timeout situation.
1291:src/stm32f4_discovery_audio_codec.c ****   * @param  None
1292:src/stm32f4_discovery_audio_codec.c ****   * @retval None
1293:src/stm32f4_discovery_audio_codec.c ****   */
1294:src/stm32f4_discovery_audio_codec.c **** uint32_t Codec_TIMEOUT_UserCallback(void)
1295:src/stm32f4_discovery_audio_codec.c **** {
1296:src/stm32f4_discovery_audio_codec.c ****   /* Block communication and all processes */
1297:src/stm32f4_discovery_audio_codec.c ****   while (1)
1298:src/stm32f4_discovery_audio_codec.c ****   {   
1299:src/stm32f4_discovery_audio_codec.c ****   }
1300:src/stm32f4_discovery_audio_codec.c **** }
1301:src/stm32f4_discovery_audio_codec.c **** #endif /* USE_DEFAULT_TIMEOUT_CALLBACK */
1302:src/stm32f4_discovery_audio_codec.c **** /*========================
1303:src/stm32f4_discovery_audio_codec.c **** 
1304:src/stm32f4_discovery_audio_codec.c ****                 Audio MAL Interface Control Functions
1305:src/stm32f4_discovery_audio_codec.c **** 
1306:src/stm32f4_discovery_audio_codec.c ****                                                 ==============================*/
1307:src/stm32f4_discovery_audio_codec.c **** 
1308:src/stm32f4_discovery_audio_codec.c **** /**
1309:src/stm32f4_discovery_audio_codec.c ****   * @brief  Initializes and prepares the Media to perform audio data transfer 
1310:src/stm32f4_discovery_audio_codec.c ****   *         from Media to the I2S peripheral.
1311:src/stm32f4_discovery_audio_codec.c ****   * @param  None
1312:src/stm32f4_discovery_audio_codec.c ****   * @retval None
1313:src/stm32f4_discovery_audio_codec.c ****   */
1314:src/stm32f4_discovery_audio_codec.c **** static void Audio_MAL_Init(void)  
1315:src/stm32f4_discovery_audio_codec.c **** { 
1316:src/stm32f4_discovery_audio_codec.c ****   
1317:src/stm32f4_discovery_audio_codec.c **** #ifdef I2S_INTERRUPT  
1318:src/stm32f4_discovery_audio_codec.c ****   NVIC_InitTypeDef   NVIC_InitStructure;
1319:src/stm32f4_discovery_audio_codec.c **** 
1320:src/stm32f4_discovery_audio_codec.c ****   NVIC_InitStructure.NVIC_IRQChannel = SPI3_IRQn;
1321:src/stm32f4_discovery_audio_codec.c ****   NVIC_InitStructure.NVIC_IRQChannelPreemptionPriority = 0;
1322:src/stm32f4_discovery_audio_codec.c ****   NVIC_InitStructure.NVIC_IRQChannelSubPriority =0;
1323:src/stm32f4_discovery_audio_codec.c ****   NVIC_InitStructure.NVIC_IRQChannelCmd = ENABLE;
1324:src/stm32f4_discovery_audio_codec.c ****   NVIC_Init(&NVIC_InitStructure);
1325:src/stm32f4_discovery_audio_codec.c ****   
1326:src/stm32f4_discovery_audio_codec.c ****   SPI_I2S_ITConfig(SPI3, SPI_I2S_IT_TXE, ENABLE);
1327:src/stm32f4_discovery_audio_codec.c **** 
1328:src/stm32f4_discovery_audio_codec.c ****   I2S_Cmd(SPI3, ENABLE); 
1329:src/stm32f4_discovery_audio_codec.c **** #else  
1330:src/stm32f4_discovery_audio_codec.c **** #if defined(AUDIO_MAL_DMA_IT_TC_EN) || defined(AUDIO_MAL_DMA_IT_HT_EN) || defined(AUDIO_MAL_DMA_IT_
1331:src/stm32f4_discovery_audio_codec.c ****   NVIC_InitTypeDef NVIC_InitStructure;
1332:src/stm32f4_discovery_audio_codec.c **** #endif
1333:src/stm32f4_discovery_audio_codec.c **** 
1334:src/stm32f4_discovery_audio_codec.c ****   if (CurrAudioInterface == AUDIO_INTERFACE_I2S)
1335:src/stm32f4_discovery_audio_codec.c ****   {
1336:src/stm32f4_discovery_audio_codec.c ****     /* Enable the DMA clock */
1337:src/stm32f4_discovery_audio_codec.c ****     RCC_AHB1PeriphClockCmd(AUDIO_MAL_DMA_CLOCK, ENABLE); 
1338:src/stm32f4_discovery_audio_codec.c ****     
1339:src/stm32f4_discovery_audio_codec.c ****     /* Configure the DMA Stream */
ARM GAS  C:\Users\CNous\AppData\Local\Temp\ccPT5vWC.s 			page 43


1340:src/stm32f4_discovery_audio_codec.c ****     DMA_Cmd(AUDIO_MAL_DMA_STREAM, DISABLE);
1341:src/stm32f4_discovery_audio_codec.c ****     DMA_DeInit(AUDIO_MAL_DMA_STREAM);
1342:src/stm32f4_discovery_audio_codec.c ****     /* Set the parameters to be configured */
1343:src/stm32f4_discovery_audio_codec.c ****     DMA_InitStructure.DMA_Channel = AUDIO_MAL_DMA_CHANNEL;  
1344:src/stm32f4_discovery_audio_codec.c ****     DMA_InitStructure.DMA_PeripheralBaseAddr = AUDIO_MAL_DMA_DREG;
1345:src/stm32f4_discovery_audio_codec.c ****     DMA_InitStructure.DMA_Memory0BaseAddr = (uint32_t)0;      /* This field will be configured in p
1346:src/stm32f4_discovery_audio_codec.c ****     DMA_InitStructure.DMA_DIR = DMA_DIR_MemoryToPeripheral;
1347:src/stm32f4_discovery_audio_codec.c ****     DMA_InitStructure.DMA_BufferSize = (uint32_t)0xFFFE;      /* This field will be configured in p
1348:src/stm32f4_discovery_audio_codec.c ****     DMA_InitStructure.DMA_PeripheralInc = DMA_PeripheralInc_Disable;
1349:src/stm32f4_discovery_audio_codec.c ****     DMA_InitStructure.DMA_MemoryInc = DMA_MemoryInc_Enable;
1350:src/stm32f4_discovery_audio_codec.c ****     DMA_InitStructure.DMA_PeripheralDataSize = AUDIO_MAL_DMA_PERIPH_DATA_SIZE;
1351:src/stm32f4_discovery_audio_codec.c ****     DMA_InitStructure.DMA_MemoryDataSize = AUDIO_MAL_DMA_MEM_DATA_SIZE; 
1352:src/stm32f4_discovery_audio_codec.c **** #ifdef AUDIO_MAL_MODE_NORMAL
1353:src/stm32f4_discovery_audio_codec.c ****     DMA_InitStructure.DMA_Mode = DMA_Mode_Normal;
1354:src/stm32f4_discovery_audio_codec.c **** #elif defined(AUDIO_MAL_MODE_CIRCULAR)
1355:src/stm32f4_discovery_audio_codec.c ****     DMA_InitStructure.DMA_Mode = DMA_Mode_Circular;
1356:src/stm32f4_discovery_audio_codec.c **** #else
1357:src/stm32f4_discovery_audio_codec.c **** #error "AUDIO_MAL_MODE_NORMAL or AUDIO_MAL_MODE_CIRCULAR should be selected !!"
1358:src/stm32f4_discovery_audio_codec.c **** #endif /* AUDIO_MAL_MODE_NORMAL */  
1359:src/stm32f4_discovery_audio_codec.c ****     DMA_InitStructure.DMA_Priority = DMA_Priority_VeryHigh;
1360:src/stm32f4_discovery_audio_codec.c ****     DMA_InitStructure.DMA_FIFOMode = DMA_FIFOMode_Disable;         
1361:src/stm32f4_discovery_audio_codec.c ****     DMA_InitStructure.DMA_FIFOThreshold = DMA_FIFOThreshold_1QuarterFull;
1362:src/stm32f4_discovery_audio_codec.c ****     DMA_InitStructure.DMA_MemoryBurst = DMA_MemoryBurst_Single;
1363:src/stm32f4_discovery_audio_codec.c ****     DMA_InitStructure.DMA_PeripheralBurst = DMA_PeripheralBurst_Single;  
1364:src/stm32f4_discovery_audio_codec.c ****     DMA_Init(AUDIO_MAL_DMA_STREAM, &DMA_InitStructure);  
1365:src/stm32f4_discovery_audio_codec.c ****     
1366:src/stm32f4_discovery_audio_codec.c ****     /* Enable the selected DMA interrupts (selected in "stm32f4_discovery_eval_audio_codec.h" defin
1367:src/stm32f4_discovery_audio_codec.c **** #ifdef AUDIO_MAL_DMA_IT_TC_EN
1368:src/stm32f4_discovery_audio_codec.c ****     DMA_ITConfig(AUDIO_MAL_DMA_STREAM, DMA_IT_TC, ENABLE);
1369:src/stm32f4_discovery_audio_codec.c **** #endif /* AUDIO_MAL_DMA_IT_TC_EN */
1370:src/stm32f4_discovery_audio_codec.c **** #ifdef AUDIO_MAL_DMA_IT_HT_EN
1371:src/stm32f4_discovery_audio_codec.c ****     DMA_ITConfig(AUDIO_MAL_DMA_STREAM, DMA_IT_HT, ENABLE);
1372:src/stm32f4_discovery_audio_codec.c **** #endif /* AUDIO_MAL_DMA_IT_HT_EN */
1373:src/stm32f4_discovery_audio_codec.c **** #ifdef AUDIO_MAL_DMA_IT_TE_EN
1374:src/stm32f4_discovery_audio_codec.c ****     DMA_ITConfig(AUDIO_MAL_DMA_STREAM, DMA_IT_TE | DMA_IT_FE | DMA_IT_DME, ENABLE);
1375:src/stm32f4_discovery_audio_codec.c **** #endif /* AUDIO_MAL_DMA_IT_TE_EN */
1376:src/stm32f4_discovery_audio_codec.c ****     
1377:src/stm32f4_discovery_audio_codec.c **** #if defined(AUDIO_MAL_DMA_IT_TC_EN) || defined(AUDIO_MAL_DMA_IT_HT_EN) || defined(AUDIO_MAL_DMA_IT_
1378:src/stm32f4_discovery_audio_codec.c ****     /* I2S DMA IRQ Channel configuration */
1379:src/stm32f4_discovery_audio_codec.c ****     NVIC_InitStructure.NVIC_IRQChannel = AUDIO_MAL_DMA_IRQ;
1380:src/stm32f4_discovery_audio_codec.c ****     NVIC_InitStructure.NVIC_IRQChannelPreemptionPriority = EVAL_AUDIO_IRQ_PREPRIO;
1381:src/stm32f4_discovery_audio_codec.c ****     NVIC_InitStructure.NVIC_IRQChannelSubPriority = EVAL_AUDIO_IRQ_SUBRIO;
1382:src/stm32f4_discovery_audio_codec.c ****     NVIC_InitStructure.NVIC_IRQChannelCmd = ENABLE;
1383:src/stm32f4_discovery_audio_codec.c ****     NVIC_Init(&NVIC_InitStructure);
1384:src/stm32f4_discovery_audio_codec.c **** #endif     
1385:src/stm32f4_discovery_audio_codec.c ****   }
1386:src/stm32f4_discovery_audio_codec.c **** 
1387:src/stm32f4_discovery_audio_codec.c **** #ifdef DAC_USE_I2S_DMA
1388:src/stm32f4_discovery_audio_codec.c ****   else
1389:src/stm32f4_discovery_audio_codec.c ****   {
1390:src/stm32f4_discovery_audio_codec.c ****     /* Enable the DMA clock */
1391:src/stm32f4_discovery_audio_codec.c ****     RCC_AHB1PeriphClockCmd(AUDIO_MAL_DMA_CLOCK, ENABLE); 
1392:src/stm32f4_discovery_audio_codec.c ****     
1393:src/stm32f4_discovery_audio_codec.c ****     /* Configure the DMA Stream */
1394:src/stm32f4_discovery_audio_codec.c ****     DMA_Cmd(AUDIO_MAL_DMA_STREAM, DISABLE);
1395:src/stm32f4_discovery_audio_codec.c ****     DMA_DeInit(AUDIO_MAL_DMA_STREAM);
1396:src/stm32f4_discovery_audio_codec.c ****     /* Set the parameters to be configured */
ARM GAS  C:\Users\CNous\AppData\Local\Temp\ccPT5vWC.s 			page 44


1397:src/stm32f4_discovery_audio_codec.c ****     DMA_InitStructure.DMA_Channel = AUDIO_MAL_DMA_CHANNEL;  
1398:src/stm32f4_discovery_audio_codec.c ****     DMA_InitStructure.DMA_PeripheralBaseAddr = AUDIO_MAL_DMA_DREG;
1399:src/stm32f4_discovery_audio_codec.c ****     DMA_InitStructure.DMA_Memory0BaseAddr = (uint32_t)0;      /* This field will be configured in p
1400:src/stm32f4_discovery_audio_codec.c ****     DMA_InitStructure.DMA_DIR = DMA_DIR_MemoryToPeripheral;
1401:src/stm32f4_discovery_audio_codec.c ****     DMA_InitStructure.DMA_BufferSize = (uint32_t)0xFFFE;      /* This field will be configured in p
1402:src/stm32f4_discovery_audio_codec.c ****     DMA_InitStructure.DMA_PeripheralInc = DMA_PeripheralInc_Disable;
1403:src/stm32f4_discovery_audio_codec.c ****     DMA_InitStructure.DMA_MemoryInc = DMA_MemoryInc_Enable;
1404:src/stm32f4_discovery_audio_codec.c ****     DMA_InitStructure.DMA_PeripheralDataSize = AUDIO_MAL_DMA_PERIPH_DATA_SIZE;
1405:src/stm32f4_discovery_audio_codec.c ****     DMA_InitStructure.DMA_MemoryDataSize = AUDIO_MAL_DMA_MEM_DATA_SIZE; 
1406:src/stm32f4_discovery_audio_codec.c **** #ifdef AUDIO_MAL_MODE_NORMAL
1407:src/stm32f4_discovery_audio_codec.c ****     DMA_InitStructure.DMA_Mode = DMA_Mode_Normal;
1408:src/stm32f4_discovery_audio_codec.c **** #elif defined(AUDIO_MAL_MODE_CIRCULAR)
1409:src/stm32f4_discovery_audio_codec.c ****     DMA_InitStructure.DMA_Mode = DMA_Mode_Circular;
1410:src/stm32f4_discovery_audio_codec.c **** #else
1411:src/stm32f4_discovery_audio_codec.c **** #error "AUDIO_MAL_MODE_NORMAL or AUDIO_MAL_MODE_CIRCULAR should be selected !!"
1412:src/stm32f4_discovery_audio_codec.c **** #endif /* AUDIO_MAL_MODE_NORMAL */  
1413:src/stm32f4_discovery_audio_codec.c ****     DMA_InitStructure.DMA_Priority = DMA_Priority_High;
1414:src/stm32f4_discovery_audio_codec.c ****     DMA_InitStructure.DMA_FIFOMode = DMA_FIFOMode_Enable;         
1415:src/stm32f4_discovery_audio_codec.c ****     DMA_InitStructure.DMA_FIFOThreshold = DMA_FIFOThreshold_Full;
1416:src/stm32f4_discovery_audio_codec.c ****     DMA_InitStructure.DMA_MemoryBurst = DMA_MemoryBurst_Single;
1417:src/stm32f4_discovery_audio_codec.c ****     DMA_InitStructure.DMA_PeripheralBurst = DMA_PeripheralBurst_Single;  
1418:src/stm32f4_discovery_audio_codec.c ****     DMA_Init(AUDIO_MAL_DMA_STREAM, &DMA_InitStructure);  
1419:src/stm32f4_discovery_audio_codec.c ****     
1420:src/stm32f4_discovery_audio_codec.c ****     /* Enable the selected DMA interrupts (selected in "stm32f4_discovery_eval_audio_codec.h" defin
1421:src/stm32f4_discovery_audio_codec.c **** #ifdef AUDIO_MAL_DMA_IT_TC_EN
1422:src/stm32f4_discovery_audio_codec.c ****     DMA_ITConfig(AUDIO_MAL_DMA_STREAM, DMA_IT_TC, ENABLE);
1423:src/stm32f4_discovery_audio_codec.c **** #endif /* AUDIO_MAL_DMA_IT_TC_EN */
1424:src/stm32f4_discovery_audio_codec.c **** #ifdef AUDIO_MAL_DMA_IT_HT_EN
1425:src/stm32f4_discovery_audio_codec.c ****     DMA_ITConfig(AUDIO_MAL_DMA_STREAM, DMA_IT_HT, ENABLE);
1426:src/stm32f4_discovery_audio_codec.c **** #endif /* AUDIO_MAL_DMA_IT_HT_EN */
1427:src/stm32f4_discovery_audio_codec.c **** #ifdef AUDIO_MAL_DMA_IT_TE_EN
1428:src/stm32f4_discovery_audio_codec.c ****     DMA_ITConfig(AUDIO_MAL_DMA_STREAM, DMA_IT_TE | DMA_IT_FE | DMA_IT_DME, ENABLE);
1429:src/stm32f4_discovery_audio_codec.c **** #endif /* AUDIO_MAL_DMA_IT_TE_EN */
1430:src/stm32f4_discovery_audio_codec.c ****     
1431:src/stm32f4_discovery_audio_codec.c **** #if defined(AUDIO_MAL_DMA_IT_TC_EN) || defined(AUDIO_MAL_DMA_IT_HT_EN) || defined(AUDIO_MAL_DMA_IT_
1432:src/stm32f4_discovery_audio_codec.c ****     /* I2S DMA IRQ Channel configuration */
1433:src/stm32f4_discovery_audio_codec.c ****     NVIC_InitStructure.NVIC_IRQChannel = AUDIO_MAL_DMA_IRQ;
1434:src/stm32f4_discovery_audio_codec.c ****     NVIC_InitStructure.NVIC_IRQChannelPreemptionPriority = EVAL_AUDIO_IRQ_PREPRIO;
1435:src/stm32f4_discovery_audio_codec.c ****     NVIC_InitStructure.NVIC_IRQChannelSubPriority = EVAL_AUDIO_IRQ_SUBRIO;
1436:src/stm32f4_discovery_audio_codec.c ****     NVIC_InitStructure.NVIC_IRQChannelCmd = ENABLE;
1437:src/stm32f4_discovery_audio_codec.c ****     NVIC_Init(&NVIC_InitStructure);
1438:src/stm32f4_discovery_audio_codec.c **** #endif 
1439:src/stm32f4_discovery_audio_codec.c ****   }
1440:src/stm32f4_discovery_audio_codec.c **** #endif /* DAC_USE_I2S_DMA */
1441:src/stm32f4_discovery_audio_codec.c ****   
1442:src/stm32f4_discovery_audio_codec.c ****   if (CurrAudioInterface == AUDIO_INTERFACE_I2S)
1443:src/stm32f4_discovery_audio_codec.c ****   {
1444:src/stm32f4_discovery_audio_codec.c ****     /* Enable the I2S DMA request */
1445:src/stm32f4_discovery_audio_codec.c ****     SPI_I2S_DMACmd(CODEC_I2S, SPI_I2S_DMAReq_Tx, ENABLE);  
1446:src/stm32f4_discovery_audio_codec.c ****   }
1447:src/stm32f4_discovery_audio_codec.c ****   else
1448:src/stm32f4_discovery_audio_codec.c ****   {
1449:src/stm32f4_discovery_audio_codec.c ****     /* Configure the STM32 DAC to geenrate audio analog signal */
1450:src/stm32f4_discovery_audio_codec.c ****     DAC_Config();
1451:src/stm32f4_discovery_audio_codec.c ****     
1452:src/stm32f4_discovery_audio_codec.c **** #ifndef DAC_USE_I2S_DMA
1453:src/stm32f4_discovery_audio_codec.c ****     /* Enable the I2S interrupt used to write into the DAC register */
ARM GAS  C:\Users\CNous\AppData\Local\Temp\ccPT5vWC.s 			page 45


1454:src/stm32f4_discovery_audio_codec.c ****     SPI_I2S_ITConfig(SPI3, SPI_I2S_IT_TXE, ENABLE);
1455:src/stm32f4_discovery_audio_codec.c ****     
1456:src/stm32f4_discovery_audio_codec.c ****     /* I2S DMA IRQ Channel configuration */
1457:src/stm32f4_discovery_audio_codec.c ****     NVIC_InitStructure.NVIC_IRQChannel = CODEC_I2S_IRQ;
1458:src/stm32f4_discovery_audio_codec.c ****     NVIC_InitStructure.NVIC_IRQChannelPreemptionPriority = EVAL_AUDIO_IRQ_PREPRIO;
1459:src/stm32f4_discovery_audio_codec.c ****     NVIC_InitStructure.NVIC_IRQChannelSubPriority = EVAL_AUDIO_IRQ_SUBRIO;
1460:src/stm32f4_discovery_audio_codec.c ****     NVIC_InitStructure.NVIC_IRQChannelCmd = ENABLE;
1461:src/stm32f4_discovery_audio_codec.c ****     NVIC_Init(&NVIC_InitStructure); 
1462:src/stm32f4_discovery_audio_codec.c **** #else
1463:src/stm32f4_discovery_audio_codec.c ****     /* Enable the I2S DMA request */
1464:src/stm32f4_discovery_audio_codec.c ****     SPI_I2S_DMACmd(CODEC_I2S, SPI_I2S_DMAReq_Rx, ENABLE);   
1465:src/stm32f4_discovery_audio_codec.c **** #endif /* DAC_USE_I2S_DMA */
1466:src/stm32f4_discovery_audio_codec.c ****   }
1467:src/stm32f4_discovery_audio_codec.c **** #endif
1468:src/stm32f4_discovery_audio_codec.c **** }
1469:src/stm32f4_discovery_audio_codec.c **** 
1470:src/stm32f4_discovery_audio_codec.c **** /**
1471:src/stm32f4_discovery_audio_codec.c ****   * @brief  Restore default state of the used Media.
1472:src/stm32f4_discovery_audio_codec.c ****   * @param  None
1473:src/stm32f4_discovery_audio_codec.c ****   * @retval None
1474:src/stm32f4_discovery_audio_codec.c ****   */
1475:src/stm32f4_discovery_audio_codec.c **** static void Audio_MAL_DeInit(void)  
1476:src/stm32f4_discovery_audio_codec.c **** {   
1477:src/stm32f4_discovery_audio_codec.c **** #if defined(AUDIO_MAL_DMA_IT_TC_EN) || defined(AUDIO_MAL_DMA_IT_HT_EN) || defined(AUDIO_MAL_DMA_IT_
1478:src/stm32f4_discovery_audio_codec.c ****   NVIC_InitTypeDef NVIC_InitStructure;  
1479:src/stm32f4_discovery_audio_codec.c ****   
1480:src/stm32f4_discovery_audio_codec.c ****   /* Deinitialize the NVIC interrupt for the I2S DMA Stream */
1481:src/stm32f4_discovery_audio_codec.c ****   NVIC_InitStructure.NVIC_IRQChannel = AUDIO_MAL_DMA_IRQ;
 915              		.loc 1 1481 0
 916 0002 40F20003 		movw	r3, #:lower16:.LANCHOR9	@ tmp177,
 917 0006 C0F20003 		movt	r3, #:upper16:.LANCHOR9	@ tmp177,
1482:src/stm32f4_discovery_audio_codec.c ****   NVIC_InitStructure.NVIC_IRQChannelPreemptionPriority = EVAL_AUDIO_IRQ_PREPRIO;
1483:src/stm32f4_discovery_audio_codec.c ****   NVIC_InitStructure.NVIC_IRQChannelSubPriority = EVAL_AUDIO_IRQ_SUBRIO;
1484:src/stm32f4_discovery_audio_codec.c ****   NVIC_InitStructure.NVIC_IRQChannelCmd = DISABLE;
1485:src/stm32f4_discovery_audio_codec.c ****   NVIC_Init(&NVIC_InitStructure);  
1486:src/stm32f4_discovery_audio_codec.c **** #endif 
1487:src/stm32f4_discovery_audio_codec.c ****   
1488:src/stm32f4_discovery_audio_codec.c ****   /* Disable the DMA stream before the deinit */
1489:src/stm32f4_discovery_audio_codec.c ****   DMA_Cmd(AUDIO_MAL_DMA_STREAM, DISABLE);
 918              		.loc 1 1489 0
 919 000a 40F20006 		movw	r6, #:lower16:.LANCHOR1	@ tmp178,
 920              	.LBE41:
 921              	.LBE40:
 337:src/stm32f4_discovery_audio_codec.c **** { 
 922              		.loc 1 337 0
 923 000e 84B0     		sub	sp, sp, #16	@,,
 924              	.LCFI6:
 925              		.cfi_def_cfa_offset 32
 926              	.LBB45:
 927              	.LBB42:
1481:src/stm32f4_discovery_audio_codec.c ****   NVIC_InitStructure.NVIC_IRQChannel = AUDIO_MAL_DMA_IRQ;
 928              		.loc 1 1481 0
 929 0010 1968     		ldr	r1, [r3, #0]	@ AUDIO_MAL_DMA_IRQ, AUDIO_MAL_DMA_IRQ
 930              		.loc 1 1489 0
 931 0012 C0F20006 		movt	r6, #:upper16:.LANCHOR1	@ tmp178,
1482:src/stm32f4_discovery_audio_codec.c ****   NVIC_InitStructure.NVIC_IRQChannelPreemptionPriority = EVAL_AUDIO_IRQ_PREPRIO;
 932              		.loc 1 1482 0
ARM GAS  C:\Users\CNous\AppData\Local\Temp\ccPT5vWC.s 			page 46


 933 0016 0024     		movs	r4, #0	@ tmp142,
1485:src/stm32f4_discovery_audio_codec.c ****   NVIC_Init(&NVIC_InitStructure);  
 934              		.loc 1 1485 0
 935 0018 01A8     		add	r0, sp, #4	@,,
1481:src/stm32f4_discovery_audio_codec.c ****   NVIC_InitStructure.NVIC_IRQChannel = AUDIO_MAL_DMA_IRQ;
 936              		.loc 1 1481 0
 937 001a 8DF80410 		strb	r1, [sp, #4]	@ AUDIO_MAL_DMA_IRQ, NVIC_InitStructure.NVIC_IRQChannel
1482:src/stm32f4_discovery_audio_codec.c ****   NVIC_InitStructure.NVIC_IRQChannelPreemptionPriority = EVAL_AUDIO_IRQ_PREPRIO;
 938              		.loc 1 1482 0
 939 001e 8DF80540 		strb	r4, [sp, #5]	@ tmp142, NVIC_InitStructure.NVIC_IRQChannelPreemptionPriority
1483:src/stm32f4_discovery_audio_codec.c ****   NVIC_InitStructure.NVIC_IRQChannelSubPriority = EVAL_AUDIO_IRQ_SUBRIO;
 940              		.loc 1 1483 0
 941 0022 8DF80640 		strb	r4, [sp, #6]	@ tmp142, NVIC_InitStructure.NVIC_IRQChannelSubPriority
1484:src/stm32f4_discovery_audio_codec.c ****   NVIC_InitStructure.NVIC_IRQChannelCmd = DISABLE;
 942              		.loc 1 1484 0
 943 0026 8DF80740 		strb	r4, [sp, #7]	@ tmp142, NVIC_InitStructure.NVIC_IRQChannelCmd
1485:src/stm32f4_discovery_audio_codec.c ****   NVIC_Init(&NVIC_InitStructure);  
 944              		.loc 1 1485 0
 945 002a FFF7FEFF 		bl	NVIC_Init	@
 946              	.LVL65:
 947              		.loc 1 1489 0
 948 002e 2146     		mov	r1, r4	@, tmp142
 949 0030 3068     		ldr	r0, [r6, #0]	@, AUDIO_MAL_DMA_STREAM
 950 0032 FFF7FEFF 		bl	DMA_Cmd	@
 951              	.LVL66:
 952              	.LBE42:
 953              	.LBE45:
 954              	.LBB46:
 955              	.LBB47:
 956              	.LBB48:
 957              	.LBB49:
1258:src/stm32f4_discovery_audio_codec.c ****   GPIO_Init(CODEC_I2S_GPIO, &GPIO_InitStructure);  
 958              		.loc 1 1258 0
 959 0036 4FF40065 		mov	r5, #2048	@ tmp162,
 960              	.LBE49:
 961              	.LBE48:
 962              	.LBE47:
 963              	.LBE46:
 964              	.LBB68:
 965              	.LBB43:
1490:src/stm32f4_discovery_audio_codec.c ****   
1491:src/stm32f4_discovery_audio_codec.c ****   /* Dinitialize the DMA Stream */
1492:src/stm32f4_discovery_audio_codec.c ****   DMA_DeInit(AUDIO_MAL_DMA_STREAM);
 966              		.loc 1 1492 0
 967 003a 3068     		ldr	r0, [r6, #0]	@, AUDIO_MAL_DMA_STREAM
 968              	.LBE43:
 969              	.LBE68:
 970              	.LBB69:
 971              	.LBB66:
 972              	.LBB55:
 973              	.LBB50:
1258:src/stm32f4_discovery_audio_codec.c ****   GPIO_Init(CODEC_I2S_GPIO, &GPIO_InitStructure);  
 974              		.loc 1 1258 0
 975 003c C4F20205 		movt	r5, 16386	@ tmp162,
 976              	.LBE50:
 977              	.LBE55:
 978              	.LBE66:
ARM GAS  C:\Users\CNous\AppData\Local\Temp\ccPT5vWC.s 			page 47


 979              	.LBE69:
 980              	.LBB70:
 981              	.LBB44:
 982              		.loc 1 1492 0
 983 0040 FFF7FEFF 		bl	DMA_DeInit	@
 984              	.LVL67:
 985              	.LBE44:
 986              	.LBE70:
 987              	.LBB71:
 988              	.LBB67:
 989              	.LBB56:
 990              	.LBB51:
1261:src/stm32f4_discovery_audio_codec.c ****   GPIO_Init(CODEC_I2S_WS_GPIO, &GPIO_InitStructure); 
 991              		.loc 1 1261 0
 992 0044 2646     		mov	r6, r4	@ tmp165, tmp142
 993              	.LBE51:
 994              	.LBE56:
 694:src/stm32f4_discovery_audio_codec.c ****   Codec_Reset();  
 995              		.loc 1 694 0
 996 0046 FFF7FEFF 		bl	Codec_Reset	@
 997              	.LVL68:
 697:src/stm32f4_discovery_audio_codec.c ****   counter += Codec_WriteRegister(0x02, 0x01);    
 998              		.loc 1 697 0
 999 004a 0121     		movs	r1, #1	@,
 1000 004c 0220     		movs	r0, #2	@,
 1001 004e FFF7FEFF 		bl	Codec_WriteRegister	@
 1002              	.LVL69:
 1003              	.LBB57:
 1004              	.LBB52:
1261:src/stm32f4_discovery_audio_codec.c ****   GPIO_Init(CODEC_I2S_WS_GPIO, &GPIO_InitStructure); 
 1005              		.loc 1 1261 0
 1006 0052 C4F20206 		movt	r6, 16386	@ tmp165,
1253:src/stm32f4_discovery_audio_codec.c ****   GPIO_InitStructure.GPIO_Pin =  CODEC_I2S_SCK_PIN | CODEC_I2S_SD_PIN;
 1007              		.loc 1 1253 0
 1008 0056 4FF4A052 		mov	r2, #5120	@ tmp153,
1258:src/stm32f4_discovery_audio_codec.c ****   GPIO_Init(CODEC_I2S_GPIO, &GPIO_InitStructure);  
 1009              		.loc 1 1258 0
 1010 005a 2846     		mov	r0, r5	@, tmp162
 1011 005c 02A9     		add	r1, sp, #8	@,,
1253:src/stm32f4_discovery_audio_codec.c ****   GPIO_InitStructure.GPIO_Pin =  CODEC_I2S_SCK_PIN | CODEC_I2S_SD_PIN;
 1012              		.loc 1 1253 0
 1013 005e 0292     		str	r2, [sp, #8]	@ tmp153, GPIO_InitStructure.GPIO_Pin
1254:src/stm32f4_discovery_audio_codec.c ****   GPIO_InitStructure.GPIO_Mode = GPIO_Mode_IN;
 1014              		.loc 1 1254 0
 1015 0060 8DF80C40 		strb	r4, [sp, #12]	@ tmp142, GPIO_InitStructure.GPIO_Mode
1255:src/stm32f4_discovery_audio_codec.c ****   GPIO_InitStructure.GPIO_Speed = GPIO_Speed_2MHz;
 1016              		.loc 1 1255 0
 1017 0064 8DF80D40 		strb	r4, [sp, #13]	@ tmp142, GPIO_InitStructure.GPIO_Speed
1256:src/stm32f4_discovery_audio_codec.c ****   GPIO_InitStructure.GPIO_OType = GPIO_OType_PP;
 1018              		.loc 1 1256 0
 1019 0068 8DF80E40 		strb	r4, [sp, #14]	@ tmp142, GPIO_InitStructure.GPIO_OType
1257:src/stm32f4_discovery_audio_codec.c ****   GPIO_InitStructure.GPIO_PuPd  = GPIO_PuPd_NOPULL;
 1020              		.loc 1 1257 0
 1021 006c 8DF80F40 		strb	r4, [sp, #15]	@ tmp142, GPIO_InitStructure.GPIO_PuPd
1258:src/stm32f4_discovery_audio_codec.c ****   GPIO_Init(CODEC_I2S_GPIO, &GPIO_InitStructure);  
 1022              		.loc 1 1258 0
 1023 0070 FFF7FEFF 		bl	GPIO_Init	@
ARM GAS  C:\Users\CNous\AppData\Local\Temp\ccPT5vWC.s 			page 48


 1024              	.LVL70:
1260:src/stm32f4_discovery_audio_codec.c ****   GPIO_InitStructure.GPIO_Pin = CODEC_I2S_WS_PIN ;
 1025              		.loc 1 1260 0
 1026 0074 1023     		movs	r3, #16	@ tmp164,
1261:src/stm32f4_discovery_audio_codec.c ****   GPIO_Init(CODEC_I2S_WS_GPIO, &GPIO_InitStructure); 
 1027              		.loc 1 1261 0
 1028 0076 02A9     		add	r1, sp, #8	@,,
 1029 0078 3046     		mov	r0, r6	@, tmp165
1260:src/stm32f4_discovery_audio_codec.c ****   GPIO_InitStructure.GPIO_Pin = CODEC_I2S_WS_PIN ;
 1030              		.loc 1 1260 0
 1031 007a 0293     		str	r3, [sp, #8]	@ tmp164, GPIO_InitStructure.GPIO_Pin
1261:src/stm32f4_discovery_audio_codec.c ****   GPIO_Init(CODEC_I2S_WS_GPIO, &GPIO_InitStructure); 
 1032              		.loc 1 1261 0
 1033 007c FFF7FEFF 		bl	GPIO_Init	@
 1034              	.LVL71:
1264:src/stm32f4_discovery_audio_codec.c ****   GPIO_PinAFConfig(CODEC_I2S_WS_GPIO, CODEC_I2S_WS_PINSRC, 0x00);  
 1035              		.loc 1 1264 0
 1036 0080 3046     		mov	r0, r6	@, tmp165
 1037 0082 0421     		movs	r1, #4	@,
 1038 0084 2246     		mov	r2, r4	@, tmp142
 1039 0086 FFF7FEFF 		bl	GPIO_PinAFConfig	@
 1040              	.LVL72:
1265:src/stm32f4_discovery_audio_codec.c ****   GPIO_PinAFConfig(CODEC_I2S_GPIO, CODEC_I2S_SCK_PINSRC, 0x00);
 1041              		.loc 1 1265 0
 1042 008a 2846     		mov	r0, r5	@, tmp162
 1043 008c 0A21     		movs	r1, #10	@,
 1044 008e 2246     		mov	r2, r4	@, tmp142
 1045 0090 FFF7FEFF 		bl	GPIO_PinAFConfig	@
 1046              	.LVL73:
1266:src/stm32f4_discovery_audio_codec.c ****   GPIO_PinAFConfig(CODEC_I2S_GPIO, CODEC_I2S_SD_PINSRC, 0x00);  
 1047              		.loc 1 1266 0
 1048 0094 2846     		mov	r0, r5	@, tmp162
 1049 0096 2246     		mov	r2, r4	@, tmp142
 1050 0098 0C21     		movs	r1, #12	@,
 1051 009a FFF7FEFF 		bl	GPIO_PinAFConfig	@
 1052              	.LVL74:
 1053              	.LBE52:
 1054              	.LBE57:
 1055              	.LBB58:
 1056              	.LBB59:
1156:src/stm32f4_discovery_audio_codec.c ****   I2S_Cmd(CODEC_I2S, DISABLE);
 1057              		.loc 1 1156 0
 1058 009e 4FF47056 		mov	r6, #15360	@ tmp174,
 1059              	.LBE59:
 1060              	.LBE58:
 1061              	.LBB62:
 1062              	.LBB53:
1270:src/stm32f4_discovery_audio_codec.c ****   GPIO_InitStructure.GPIO_Pin = CODEC_I2S_MCK_PIN; 
 1063              		.loc 1 1270 0
 1064 00a2 8022     		movs	r2, #128	@ tmp170,
1271:src/stm32f4_discovery_audio_codec.c ****   GPIO_Init(CODEC_I2S_MCK_GPIO, &GPIO_InitStructure);   
 1065              		.loc 1 1271 0
 1066 00a4 02A9     		add	r1, sp, #8	@,,
 1067 00a6 2846     		mov	r0, r5	@, tmp162
 1068              	.LBE53:
 1069              	.LBE62:
 1070              	.LBB63:
ARM GAS  C:\Users\CNous\AppData\Local\Temp\ccPT5vWC.s 			page 49


 1071              	.LBB60:
1156:src/stm32f4_discovery_audio_codec.c ****   I2S_Cmd(CODEC_I2S, DISABLE);
 1072              		.loc 1 1156 0
 1073 00a8 C4F20006 		movt	r6, 16384	@ tmp174,
 1074              	.LBE60:
 1075              	.LBE63:
 1076              	.LBB64:
 1077              	.LBB54:
1270:src/stm32f4_discovery_audio_codec.c ****   GPIO_InitStructure.GPIO_Pin = CODEC_I2S_MCK_PIN; 
 1078              		.loc 1 1270 0
 1079 00ac 0292     		str	r2, [sp, #8]	@ tmp170, GPIO_InitStructure.GPIO_Pin
1271:src/stm32f4_discovery_audio_codec.c ****   GPIO_Init(CODEC_I2S_MCK_GPIO, &GPIO_InitStructure);   
 1080              		.loc 1 1271 0
 1081 00ae FFF7FEFF 		bl	GPIO_Init	@
 1082              	.LVL75:
1273:src/stm32f4_discovery_audio_codec.c ****   GPIO_PinAFConfig(CODEC_I2S_MCK_GPIO, CODEC_I2S_MCK_PINSRC, CODEC_I2S_GPIO_AF); 
 1083              		.loc 1 1273 0
 1084 00b2 0622     		movs	r2, #6	@,
 1085 00b4 2846     		mov	r0, r5	@, tmp162
 1086 00b6 0721     		movs	r1, #7	@,
 1087 00b8 FFF7FEFF 		bl	GPIO_PinAFConfig	@
 1088              	.LVL76:
 1089              	.LBE54:
 1090              	.LBE64:
 1091              	.LBB65:
 1092              	.LBB61:
1156:src/stm32f4_discovery_audio_codec.c ****   I2S_Cmd(CODEC_I2S, DISABLE);
 1093              		.loc 1 1156 0
 1094 00bc 2146     		mov	r1, r4	@, tmp142
 1095 00be 3046     		mov	r0, r6	@, tmp174
 1096 00c0 FFF7FEFF 		bl	I2S_Cmd	@
 1097              	.LVL77:
1159:src/stm32f4_discovery_audio_codec.c ****   SPI_I2S_DeInit(CODEC_I2S);
 1098              		.loc 1 1159 0
 1099 00c4 3046     		mov	r0, r6	@, tmp174
 1100 00c6 FFF7FEFF 		bl	SPI_I2S_DeInit	@
 1101              	.LVL78:
1162:src/stm32f4_discovery_audio_codec.c ****   RCC_APB1PeriphClockCmd(CODEC_I2S_CLK, DISABLE); 
 1102              		.loc 1 1162 0
 1103 00ca 4FF40040 		mov	r0, #32768	@,
 1104 00ce 2146     		mov	r1, r4	@, tmp142
 1105 00d0 FFF7FEFF 		bl	RCC_APB1PeriphClockCmd	@
 1106              	.LVL79:
 1107              	.LBE61:
 1108              	.LBE65:
 1109              	.LBE67:
 1110              	.LBE71:
 345:src/stm32f4_discovery_audio_codec.c **** }
 1111              		.loc 1 345 0
 1112 00d4 2046     		mov	r0, r4	@, tmp142
 1113 00d6 04B0     		add	sp, sp, #16	@,,
 1114 00d8 70BD     		pop	{r4, r5, r6, pc}
 1115              		.cfi_endproc
 1116              	.LFE112:
 1117              		.size	EVAL_AUDIO_DeInit, .-EVAL_AUDIO_DeInit
 1118 00da 00BF     		.section	.text.EVAL_AUDIO_PauseResume,"ax",%progbits
 1119              		.align	2
ARM GAS  C:\Users\CNous\AppData\Local\Temp\ccPT5vWC.s 			page 50


 1120              		.global	EVAL_AUDIO_PauseResume
 1121              		.thumb
 1122              		.thumb_func
 1123              		.type	EVAL_AUDIO_PauseResume, %function
 1124              	EVAL_AUDIO_PauseResume:
 1125              	.LFB114:
 387:src/stm32f4_discovery_audio_codec.c **** {    
 1126              		.loc 1 387 0
 1127              		.cfi_startproc
 1128              		@ args = 0, pretend = 0, frame = 0
 1129              		@ frame_needed = 0, uses_anonymous_args = 0
 1130              	.LVL80:
 1131 0000 70B5     		push	{r4, r5, r6, lr}	@
 1132              	.LCFI7:
 1133              		.cfi_def_cfa_offset 16
 1134              		.cfi_offset 4, -16
 1135              		.cfi_offset 5, -12
 1136              		.cfi_offset 6, -8
 1137              		.cfi_offset 14, -4
 1138              	.LBB80:
 1139              	.LBB81:
 739:src/stm32f4_discovery_audio_codec.c ****   if (Cmd == AUDIO_PAUSE)
 1140              		.loc 1 739 0
 1141 0002 40B3     		cbz	r0, .L101	@ Cmd,
 1142              	.LVL81:
 1143              	.LBB82:
 1144              	.LBB83:
 843:src/stm32f4_discovery_audio_codec.c ****     counter += Codec_WriteRegister(0x04, OutputDev);
 1145              		.loc 1 843 0
 1146 0004 234D     		ldr	r5, .L104	@ tmp152,
 1147 0006 0420     		movs	r0, #4	@,
 1148              	.LVL82:
 1149 0008 2978     		ldrb	r1, [r5, #0]	@ zero_extendqisi2	@ OutputDev, OutputDev
 1150 000a FFF7FEFF 		bl	Codec_WriteRegister	@
 1151              	.LVL83:
 1152              	.LBE83:
 1153              	.LBE82:
 752:src/stm32f4_discovery_audio_codec.c ****     counter += Codec_WriteRegister(0x04, OutputDev);
 1154              		.loc 1 752 0
 1155 000e 2978     		ldrb	r1, [r5, #0]	@ zero_extendqisi2	@ OutputDev, OutputDev
 1156              	.LBB85:
 1157              	.LBB84:
 843:src/stm32f4_discovery_audio_codec.c ****     counter += Codec_WriteRegister(0x04, OutputDev);
 1158              		.loc 1 843 0
 1159 0010 0446     		mov	r4, r0	@ D.9190,
 1160              	.LVL84:
 1161              	.LBE84:
 1162              	.LBE85:
 752:src/stm32f4_discovery_audio_codec.c ****     counter += Codec_WriteRegister(0x04, OutputDev);
 1163              		.loc 1 752 0
 1164 0012 0420     		movs	r0, #4	@,
 1165              	.LVL85:
 1166 0014 FFF7FEFF 		bl	Codec_WriteRegister	@
 1167              	.LVL86:
 755:src/stm32f4_discovery_audio_codec.c ****     counter += Codec_WriteRegister(0x02, 0x9E); 
 1168              		.loc 1 755 0
 1169 0018 9E21     		movs	r1, #158	@,
ARM GAS  C:\Users\CNous\AppData\Local\Temp\ccPT5vWC.s 			page 51


 752:src/stm32f4_discovery_audio_codec.c ****     counter += Codec_WriteRegister(0x04, OutputDev);
 1170              		.loc 1 752 0
 1171 001a 0546     		mov	r5, r0	@ D.9178,
 1172              	.LVL87:
 755:src/stm32f4_discovery_audio_codec.c ****     counter += Codec_WriteRegister(0x02, 0x9E); 
 1173              		.loc 1 755 0
 1174 001c 0220     		movs	r0, #2	@,
 1175              	.LVL88:
 1176 001e FFF7FEFF 		bl	Codec_WriteRegister	@
 1177              	.LVL89:
 752:src/stm32f4_discovery_audio_codec.c ****     counter += Codec_WriteRegister(0x04, OutputDev);
 1178              		.loc 1 752 0
 1179 0022 4019     		adds	r0, r0, r5	@ counter,, D.9178
 1180              	.LVL90:
 1181              	.LBE81:
 1182              	.LBE80:
 389:src/stm32f4_discovery_audio_codec.c ****   if (Codec_PauseResume(Cmd) != 0)
 1183              		.loc 1 389 0
 1184 0024 0419     		adds	r4, r0, r4	@ tmp158, counter, D.9190
 1185              	.LVL91:
 1186 0026 01D0     		beq	.L102	@,
 1187              	.LVL92:
 1188              	.L97:
 391:src/stm32f4_discovery_audio_codec.c ****     return 1;
 1189              		.loc 1 391 0
 1190 0028 0120     		movs	r0, #1	@ D.8826,
 1191 002a 70BD     		pop	{r4, r5, r6, pc}	@
 1192              	.LVL93:
 1193              	.L102:
 1194              	.LBB87:
 1195              	.LBB88:
1493:src/stm32f4_discovery_audio_codec.c ****   
1494:src/stm32f4_discovery_audio_codec.c ****   /* 
1495:src/stm32f4_discovery_audio_codec.c ****      The DMA clock is not disabled, since it can be used by other streams 
1496:src/stm32f4_discovery_audio_codec.c ****                                                                           */ 
1497:src/stm32f4_discovery_audio_codec.c **** }
1498:src/stm32f4_discovery_audio_codec.c **** 
1499:src/stm32f4_discovery_audio_codec.c **** /**
1500:src/stm32f4_discovery_audio_codec.c ****   * @brief  Starts playing audio stream from the audio Media.
1501:src/stm32f4_discovery_audio_codec.c ****   * @param  None
1502:src/stm32f4_discovery_audio_codec.c ****   * @retval None
1503:src/stm32f4_discovery_audio_codec.c ****   */
1504:src/stm32f4_discovery_audio_codec.c **** void Audio_MAL_Play(uint32_t Addr, uint32_t Size)
1505:src/stm32f4_discovery_audio_codec.c **** {         
1506:src/stm32f4_discovery_audio_codec.c ****   if (CurrAudioInterface == AUDIO_INTERFACE_I2S)
1507:src/stm32f4_discovery_audio_codec.c ****   {
1508:src/stm32f4_discovery_audio_codec.c ****     /* Configure the buffer address and size */
1509:src/stm32f4_discovery_audio_codec.c ****     DMA_InitStructure.DMA_Memory0BaseAddr = (uint32_t)Addr;
1510:src/stm32f4_discovery_audio_codec.c ****     DMA_InitStructure.DMA_BufferSize = (uint32_t)Size;
1511:src/stm32f4_discovery_audio_codec.c ****     
1512:src/stm32f4_discovery_audio_codec.c ****     /* Configure the DMA Stream with the new parameters */
1513:src/stm32f4_discovery_audio_codec.c ****     DMA_Init(AUDIO_MAL_DMA_STREAM, &DMA_InitStructure);
1514:src/stm32f4_discovery_audio_codec.c ****     
1515:src/stm32f4_discovery_audio_codec.c ****     /* Enable the I2S DMA Stream*/
1516:src/stm32f4_discovery_audio_codec.c ****     DMA_Cmd(AUDIO_MAL_DMA_STREAM, ENABLE);   
1517:src/stm32f4_discovery_audio_codec.c ****   }
1518:src/stm32f4_discovery_audio_codec.c **** #ifndef DAC_USE_I2S_DMA
ARM GAS  C:\Users\CNous\AppData\Local\Temp\ccPT5vWC.s 			page 52


1519:src/stm32f4_discovery_audio_codec.c ****   else
1520:src/stm32f4_discovery_audio_codec.c ****   {
1521:src/stm32f4_discovery_audio_codec.c ****     /* Configure the buffer address and size */
1522:src/stm32f4_discovery_audio_codec.c ****     DMA_InitStructure.DMA_Memory0BaseAddr = (uint32_t)Addr;
1523:src/stm32f4_discovery_audio_codec.c ****     DMA_InitStructure.DMA_BufferSize = (uint32_t)Size;
1524:src/stm32f4_discovery_audio_codec.c ****     
1525:src/stm32f4_discovery_audio_codec.c ****     /* Configure the DMA Stream with the new parameters */
1526:src/stm32f4_discovery_audio_codec.c ****     DMA_Init(AUDIO_MAL_DMA_STREAM, &DMA_InitStructure);
1527:src/stm32f4_discovery_audio_codec.c ****     
1528:src/stm32f4_discovery_audio_codec.c ****     /* Enable the I2S DMA Stream*/
1529:src/stm32f4_discovery_audio_codec.c ****     DMA_Cmd(AUDIO_MAL_DMA_STREAM, ENABLE);
1530:src/stm32f4_discovery_audio_codec.c ****   }
1531:src/stm32f4_discovery_audio_codec.c **** #endif /* DAC_USE_I2S_DMA */
1532:src/stm32f4_discovery_audio_codec.c ****   
1533:src/stm32f4_discovery_audio_codec.c ****   /* If the I2S peripheral is still not enabled, enable it */
1534:src/stm32f4_discovery_audio_codec.c ****   if ((CODEC_I2S->I2SCFGR & I2S_ENABLE_MASK) == 0)
1535:src/stm32f4_discovery_audio_codec.c ****   {
1536:src/stm32f4_discovery_audio_codec.c ****     I2S_Cmd(CODEC_I2S, ENABLE);
1537:src/stm32f4_discovery_audio_codec.c ****   }
1538:src/stm32f4_discovery_audio_codec.c **** }
1539:src/stm32f4_discovery_audio_codec.c **** 
1540:src/stm32f4_discovery_audio_codec.c **** /**
1541:src/stm32f4_discovery_audio_codec.c ****   * @brief  Pauses or Resumes the audio stream playing from the Media.
1542:src/stm32f4_discovery_audio_codec.c ****   * @param  Cmd: AUDIO_PAUSE (or 0) to pause, AUDIO_RESUME (or any value different
1543:src/stm32f4_discovery_audio_codec.c ****   *              from 0) to resume. 
1544:src/stm32f4_discovery_audio_codec.c ****   * @param  Addr: Address from/at which the audio stream should resume/pause.
1545:src/stm32f4_discovery_audio_codec.c ****   * @retval None
1546:src/stm32f4_discovery_audio_codec.c ****   */
1547:src/stm32f4_discovery_audio_codec.c **** static void Audio_MAL_PauseResume(uint32_t Cmd, uint32_t Addr)
1548:src/stm32f4_discovery_audio_codec.c **** {
1549:src/stm32f4_discovery_audio_codec.c ****   /* Pause the audio file playing */
1550:src/stm32f4_discovery_audio_codec.c ****   if (Cmd == AUDIO_PAUSE)
1551:src/stm32f4_discovery_audio_codec.c ****   {   
1552:src/stm32f4_discovery_audio_codec.c ****     /* Disable the I2S DMA request */
1553:src/stm32f4_discovery_audio_codec.c ****     SPI_I2S_DMACmd(CODEC_I2S, SPI_I2S_DMAReq_Tx, DISABLE);
1554:src/stm32f4_discovery_audio_codec.c **** 
1555:src/stm32f4_discovery_audio_codec.c ****     /* Pause the I2S DMA Stream 
1556:src/stm32f4_discovery_audio_codec.c ****         Note. For the STM32F40x devices, the DMA implements a pause feature, 
1557:src/stm32f4_discovery_audio_codec.c ****               by disabling the stream, all configuration is preserved and data 
1558:src/stm32f4_discovery_audio_codec.c ****               transfer is paused till the next enable of the stream.
1559:src/stm32f4_discovery_audio_codec.c ****               This feature is not available on STM32F40x devices. */
1560:src/stm32f4_discovery_audio_codec.c ****     DMA_Cmd(AUDIO_MAL_DMA_STREAM, DISABLE);
1561:src/stm32f4_discovery_audio_codec.c ****   }
1562:src/stm32f4_discovery_audio_codec.c ****   else /* AUDIO_RESUME */
1563:src/stm32f4_discovery_audio_codec.c ****   {
1564:src/stm32f4_discovery_audio_codec.c ****     /* Enable the I2S DMA request */
1565:src/stm32f4_discovery_audio_codec.c ****     SPI_I2S_DMACmd(CODEC_I2S, SPI_I2S_DMAReq_Tx, ENABLE);
 1196              		.loc 1 1565 0
 1197 002c 4FF47055 		mov	r5, #15360	@ tmp162,
 1198 0030 C4F20005 		movt	r5, 16384	@ tmp162,
 1199 0034 2846     		mov	r0, r5	@, tmp162
 1200 0036 0221     		movs	r1, #2	@,
 1201 0038 0122     		movs	r2, #1	@,
 1202 003a FFF7FEFF 		bl	SPI_I2S_DMACmd	@
 1203              	.LVL94:
1566:src/stm32f4_discovery_audio_codec.c ****   
1567:src/stm32f4_discovery_audio_codec.c ****     /* Resume the I2S DMA Stream 
ARM GAS  C:\Users\CNous\AppData\Local\Temp\ccPT5vWC.s 			page 53


1568:src/stm32f4_discovery_audio_codec.c ****         Note. For the STM32F40x devices, the DMA implements a pause feature, 
1569:src/stm32f4_discovery_audio_codec.c ****               by disabling the stream, all configuration is preserved and data 
1570:src/stm32f4_discovery_audio_codec.c ****               transfer is paused till the next enable of the stream.
1571:src/stm32f4_discovery_audio_codec.c ****               This feature is not available on STM32F40x devices. */
1572:src/stm32f4_discovery_audio_codec.c ****     DMA_Cmd(AUDIO_MAL_DMA_STREAM, ENABLE);
 1204              		.loc 1 1572 0
 1205 003e 164B     		ldr	r3, .L104+4	@ tmp163,
 1206 0040 0121     		movs	r1, #1	@,
 1207 0042 1868     		ldr	r0, [r3, #0]	@, AUDIO_MAL_DMA_STREAM
 1208 0044 FFF7FEFF 		bl	DMA_Cmd	@
 1209              	.LVL95:
1573:src/stm32f4_discovery_audio_codec.c ****     
1574:src/stm32f4_discovery_audio_codec.c ****     /* If the I2S peripheral is still not enabled, enable it */
1575:src/stm32f4_discovery_audio_codec.c ****     if ((CODEC_I2S->I2SCFGR & I2S_ENABLE_MASK) == 0)
 1210              		.loc 1 1575 0
 1211 0048 AE8B     		ldrh	r6, [r5, #28]	@, MEM[(struct SPI_TypeDef *)1073757184B].I2SCFGR
 1212 004a 06F48061 		and	r1, r6, #1024	@ tmp169, MEM[(struct SPI_TypeDef *)1073757184B].I2SCFGR,
 1213 004e 8EB2     		uxth	r6, r1	@ tmp170, tmp169
 1214 0050 CEB1     		cbz	r6, .L103	@ tmp170,
 399:src/stm32f4_discovery_audio_codec.c ****     return 0;
 1215              		.loc 1 399 0
 1216 0052 2046     		mov	r0, r4	@ D.8826, tmp158
 1217              	.LBE88:
 1218              	.LBE87:
 401:src/stm32f4_discovery_audio_codec.c **** }
 1219              		.loc 1 401 0
 1220 0054 70BD     		pop	{r4, r5, r6, pc}	@
 1221              	.LVL96:
 1222              	.L101:
 1223 0056 FFF7FEFF 		bl	Codec_Mute.part.1	@
 1224              	.LVL97:
 1225              	.LBB90:
 1226              	.LBB86:
 745:src/stm32f4_discovery_audio_codec.c ****     counter += Codec_WriteRegister(0x02, 0x01);    
 1227              		.loc 1 745 0
 1228 005a 0121     		movs	r1, #1	@,
 1229 005c 0446     		mov	r4, r0	@ counter,
 1230              	.LVL98:
 1231 005e 0220     		movs	r0, #2	@,
 1232              	.LVL99:
 1233 0060 FFF7FEFF 		bl	Codec_WriteRegister	@
 1234              	.LVL100:
 1235              	.LBE86:
 1236              	.LBE90:
 389:src/stm32f4_discovery_audio_codec.c ****   if (Codec_PauseResume(Cmd) != 0)
 1237              		.loc 1 389 0
 1238 0064 2418     		adds	r4, r4, r0	@ tmp151, counter,
 1239              	.LVL101:
 1240 0066 DFD1     		bne	.L97	@,
 1241              	.LBB91:
 1242              	.LBB89:
1553:src/stm32f4_discovery_audio_codec.c ****     SPI_I2S_DMACmd(CODEC_I2S, SPI_I2S_DMAReq_Tx, DISABLE);
 1243              		.loc 1 1553 0
 1244 0068 4FF47050 		mov	r0, #15360	@,
 1245 006c 0221     		movs	r1, #2	@,
 1246 006e 2246     		mov	r2, r4	@, tmp151
 1247 0070 C4F20000 		movt	r0, 16384	@,
ARM GAS  C:\Users\CNous\AppData\Local\Temp\ccPT5vWC.s 			page 54


 1248 0074 FFF7FEFF 		bl	SPI_I2S_DMACmd	@
 1249              	.LVL102:
1560:src/stm32f4_discovery_audio_codec.c ****     DMA_Cmd(AUDIO_MAL_DMA_STREAM, DISABLE);
 1250              		.loc 1 1560 0
 1251 0078 074A     		ldr	r2, .L104+4	@ tmp160,
 1252 007a 2146     		mov	r1, r4	@, tmp151
 1253 007c 1068     		ldr	r0, [r2, #0]	@, AUDIO_MAL_DMA_STREAM
 1254 007e FFF7FEFF 		bl	DMA_Cmd	@
 1255              	.LVL103:
 399:src/stm32f4_discovery_audio_codec.c ****     return 0;
 1256              		.loc 1 399 0
 1257 0082 2046     		mov	r0, r4	@ D.8826, tmp151
 1258 0084 70BD     		pop	{r4, r5, r6, pc}	@
 1259              	.LVL104:
 1260              	.L103:
1576:src/stm32f4_discovery_audio_codec.c ****     {
1577:src/stm32f4_discovery_audio_codec.c ****       I2S_Cmd(CODEC_I2S, ENABLE);
 1261              		.loc 1 1577 0
 1262 0086 2846     		mov	r0, r5	@, tmp162
 1263 0088 0121     		movs	r1, #1	@,
 1264 008a FFF7FEFF 		bl	I2S_Cmd	@
 1265              	.LVL105:
 399:src/stm32f4_discovery_audio_codec.c ****     return 0;
 1266              		.loc 1 399 0
 1267 008e 3046     		mov	r0, r6	@ D.8826, tmp170
 1268 0090 70BD     		pop	{r4, r5, r6, pc}	@
 1269              	.L105:
 1270 0092 00BF     		.align	2
 1271              	.L104:
 1272 0094 00000000 		.word	.LANCHOR13
 1273 0098 00000000 		.word	.LANCHOR1
 1274              	.LBE89:
 1275              	.LBE91:
 1276              		.cfi_endproc
 1277              	.LFE114:
 1278              		.size	EVAL_AUDIO_PauseResume, .-EVAL_AUDIO_PauseResume
 1279              		.section	.text.EVAL_AUDIO_Stop,"ax",%progbits
 1280              		.align	2
 1281              		.global	EVAL_AUDIO_Stop
 1282              		.thumb
 1283              		.thumb_func
 1284              		.type	EVAL_AUDIO_Stop, %function
 1285              	EVAL_AUDIO_Stop:
 1286              	.LFB115:
 413:src/stm32f4_discovery_audio_codec.c **** {
 1287              		.loc 1 413 0
 1288              		.cfi_startproc
 1289              		@ args = 0, pretend = 0, frame = 0
 1290              		@ frame_needed = 0, uses_anonymous_args = 0
 1291              	.LVL106:
 1292 0000 70B5     		push	{r4, r5, r6, lr}	@
 1293              	.LCFI8:
 1294              		.cfi_def_cfa_offset 16
 1295              		.cfi_offset 4, -16
 1296              		.cfi_offset 5, -12
 1297              		.cfi_offset 6, -8
 1298              		.cfi_offset 14, -4
ARM GAS  C:\Users\CNous\AppData\Local\Temp\ccPT5vWC.s 			page 55


 413:src/stm32f4_discovery_audio_codec.c **** {
 1299              		.loc 1 413 0
 1300 0002 0446     		mov	r4, r0	@ Option, Option
 1301              	.LVL107:
 1302 0004 FFF7FEFF 		bl	Codec_Mute.part.1	@
 1303              	.LVL108:
 1304              	.LBB100:
 1305              	.LBB101:
 780:src/stm32f4_discovery_audio_codec.c ****   if (CodecPdwnMode == CODEC_PDWN_SW)
 1306              		.loc 1 780 0
 1307 0008 022C     		cmp	r4, #2	@ Option,
 1308 000a 32D0     		beq	.L116	@,
 788:src/stm32f4_discovery_audio_codec.c ****     counter += Codec_WriteRegister(0x02, 0x9F);
 1309              		.loc 1 788 0
 1310 000c 0220     		movs	r0, #2	@,
 1311 000e 9F21     		movs	r1, #159	@,
 1312 0010 FFF7FEFF 		bl	Codec_WriteRegister	@
 1313              	.LVL109:
 1314 0014 40F6FF72 		movw	r2, #4095	@ nCount,
 1315              	.LVL110:
 1316 0018 0446     		mov	r4, r0	@ counter,
 1317              	.LVL111:
 1318              	.L109:
 1319              	.LBB102:
 1320              	.LBB103:
1285:src/stm32f4_discovery_audio_codec.c ****   for (; nCount != 0; nCount--);
 1321              		.loc 1 1285 0
 1322 001a 033A     		subs	r2, r2, #3	@ nCount, nCount,
 1323              	.LVL112:
 1324 001c FDD1     		bne	.L109	@,
 1325              	.LBE103:
 1326              	.LBE102:
 794:src/stm32f4_discovery_audio_codec.c ****     GPIO_WriteBit(AUDIO_RESET_GPIO, AUDIO_RESET_PIN, Bit_RESET);
 1327              		.loc 1 794 0
 1328 001e 4FF44060 		mov	r0, #3072	@,
 1329              	.LVL113:
 1330 0022 C4F20200 		movt	r0, 16386	@,
 1331 0026 1021     		movs	r1, #16	@,
 1332 0028 FFF7FEFF 		bl	GPIO_WriteBit	@
 1333              	.LVL114:
 1334              	.L108:
 1335              	.LBE101:
 1336              	.LBE100:
 415:src/stm32f4_discovery_audio_codec.c ****   if (Codec_Stop(Option) != 0)
 1337              		.loc 1 415 0
 1338 002c 0CB1     		cbz	r4, .L117	@ counter,
 417:src/stm32f4_discovery_audio_codec.c ****     return 1;
 1339              		.loc 1 417 0
 1340 002e 0120     		movs	r0, #1	@ D.8802,
 430:src/stm32f4_discovery_audio_codec.c **** }
 1341              		.loc 1 430 0
 1342 0030 70BD     		pop	{r4, r5, r6, pc}	@
 1343              	.L117:
 1344              	.LBB105:
 1345              	.LBB106:
1578:src/stm32f4_discovery_audio_codec.c ****     }    
1579:src/stm32f4_discovery_audio_codec.c ****   } 
ARM GAS  C:\Users\CNous\AppData\Local\Temp\ccPT5vWC.s 			page 56


1580:src/stm32f4_discovery_audio_codec.c **** }
1581:src/stm32f4_discovery_audio_codec.c **** 
1582:src/stm32f4_discovery_audio_codec.c **** /**
1583:src/stm32f4_discovery_audio_codec.c ****   * @brief  Stops audio stream playing on the used Media.
1584:src/stm32f4_discovery_audio_codec.c ****   * @param  None
1585:src/stm32f4_discovery_audio_codec.c ****   * @retval None
1586:src/stm32f4_discovery_audio_codec.c ****   */
1587:src/stm32f4_discovery_audio_codec.c **** static void Audio_MAL_Stop(void)
1588:src/stm32f4_discovery_audio_codec.c **** {   
1589:src/stm32f4_discovery_audio_codec.c ****   /* Stop the Transfer on the I2S side: Stop and disable the DMA stream */
1590:src/stm32f4_discovery_audio_codec.c ****   DMA_Cmd(AUDIO_MAL_DMA_STREAM, DISABLE);
 1346              		.loc 1 1590 0
 1347 0032 134D     		ldr	r5, .L118	@ tmp154,
 1348 0034 2146     		mov	r1, r4	@, counter
 1349 0036 2868     		ldr	r0, [r5, #0]	@, AUDIO_MAL_DMA_STREAM
 1350 0038 FFF7FEFF 		bl	DMA_Cmd	@
 1351              	.LVL115:
1591:src/stm32f4_discovery_audio_codec.c **** 
1592:src/stm32f4_discovery_audio_codec.c ****   /* Clear all the DMA flags for the next transfer */
1593:src/stm32f4_discovery_audio_codec.c ****   DMA_ClearFlag(AUDIO_MAL_DMA_STREAM, AUDIO_MAL_DMA_FLAG_TC |AUDIO_MAL_DMA_FLAG_HT | \
 1352              		.loc 1 1593 0
 1353 003c 114B     		ldr	r3, .L118+4	@ tmp158,
 1354 003e 1248     		ldr	r0, .L118+8	@ tmp159,
 1355 0040 124A     		ldr	r2, .L118+12	@ tmp163,
 1356 0042 1E68     		ldr	r6, [r3, #0]	@ AUDIO_MAL_DMA_FLAG_HT, AUDIO_MAL_DMA_FLAG_HT
 1357 0044 0168     		ldr	r1, [r0, #0]	@ AUDIO_MAL_DMA_FLAG_TC, AUDIO_MAL_DMA_FLAG_TC
 1358 0046 124B     		ldr	r3, .L118+16	@ tmp166,
 1359 0048 1268     		ldr	r2, [r2, #0]	@ AUDIO_MAL_DMA_FLAG_FE, AUDIO_MAL_DMA_FLAG_FE
 1360 004a 1B68     		ldr	r3, [r3, #0]	@ AUDIO_MAL_DMA_FLAG_TE, AUDIO_MAL_DMA_FLAG_TE
 1361 004c 2868     		ldr	r0, [r5, #0]	@, AUDIO_MAL_DMA_STREAM
 1362 004e 3143     		orrs	r1, r1, r6	@, tmp160, AUDIO_MAL_DMA_FLAG_TC, AUDIO_MAL_DMA_FLAG_HT
 1363 0050 1143     		orrs	r1, r1, r2	@, tmp164, tmp160, AUDIO_MAL_DMA_FLAG_FE
 1364 0052 1943     		orrs	r1, r1, r3	@,, tmp164, AUDIO_MAL_DMA_FLAG_TE
 1365 0054 FFF7FEFF 		bl	DMA_ClearFlag	@
 1366              	.LVL116:
1594:src/stm32f4_discovery_audio_codec.c ****                                   AUDIO_MAL_DMA_FLAG_FE | AUDIO_MAL_DMA_FLAG_TE);
1595:src/stm32f4_discovery_audio_codec.c ****   
1596:src/stm32f4_discovery_audio_codec.c ****   /*  
1597:src/stm32f4_discovery_audio_codec.c ****            The I2S DMA requests are not disabled here.
1598:src/stm32f4_discovery_audio_codec.c ****                                                             */
1599:src/stm32f4_discovery_audio_codec.c ****   
1600:src/stm32f4_discovery_audio_codec.c ****   /* In all modes, disable the I2S peripheral */
1601:src/stm32f4_discovery_audio_codec.c ****   I2S_Cmd(CODEC_I2S, DISABLE);
 1367              		.loc 1 1601 0
 1368 0058 4FF47050 		mov	r0, #15360	@,
 1369 005c 2146     		mov	r1, r4	@, counter
 1370 005e C4F20000 		movt	r0, 16384	@,
 1371 0062 FFF7FEFF 		bl	I2S_Cmd	@
 1372              	.LVL117:
 1373              	.LBE106:
 1374              	.LBE105:
 425:src/stm32f4_discovery_audio_codec.c ****     AudioRemSize = AudioTotalSize;    
 1375              		.loc 1 425 0
 1376 0066 0B48     		ldr	r0, .L118+20	@ tmp171,
 1377 0068 0B4A     		ldr	r2, .L118+24	@ tmp170,
 1378 006a 0168     		ldr	r1, [r0, #0]	@ AudioTotalSize, AudioTotalSize
 428:src/stm32f4_discovery_audio_codec.c ****     return 0;
ARM GAS  C:\Users\CNous\AppData\Local\Temp\ccPT5vWC.s 			page 57


 1379              		.loc 1 428 0
 1380 006c 2046     		mov	r0, r4	@ D.8802, counter
 425:src/stm32f4_discovery_audio_codec.c ****     AudioRemSize = AudioTotalSize;    
 1381              		.loc 1 425 0
 1382 006e 1160     		str	r1, [r2, #0]	@ AudioTotalSize, AudioRemSize
 428:src/stm32f4_discovery_audio_codec.c ****     return 0;
 1383              		.loc 1 428 0
 1384 0070 70BD     		pop	{r4, r5, r6, pc}	@
 1385              	.LVL118:
 1386              	.L116:
 1387              	.LBB107:
 1388              	.LBB104:
 783:src/stm32f4_discovery_audio_codec.c ****     counter += Codec_WriteRegister(0x02, 0x9F);
 1389              		.loc 1 783 0
 1390 0072 2046     		mov	r0, r4	@, Option
 1391 0074 9F21     		movs	r1, #159	@,
 1392 0076 FFF7FEFF 		bl	Codec_WriteRegister	@
 1393              	.LVL119:
 1394 007a 0446     		mov	r4, r0	@ counter,
 1395              	.LVL120:
 1396 007c D6E7     		b	.L108	@
 1397              	.L119:
 1398 007e 00BF     		.align	2
 1399              	.L118:
 1400 0080 00000000 		.word	.LANCHOR1
 1401 0084 00000000 		.word	.LANCHOR3
 1402 0088 00000000 		.word	.LANCHOR2
 1403 008c 00000000 		.word	.LANCHOR10
 1404 0090 00000000 		.word	.LANCHOR11
 1405 0094 00000000 		.word	.LANCHOR14
 1406 0098 00000000 		.word	.LANCHOR0
 1407              	.LBE104:
 1408              	.LBE107:
 1409              		.cfi_endproc
 1410              	.LFE115:
 1411              		.size	EVAL_AUDIO_Stop, .-EVAL_AUDIO_Stop
 1412              		.section	.text.EVAL_AUDIO_VolumeCtl,"ax",%progbits
 1413              		.align	2
 1414              		.global	EVAL_AUDIO_VolumeCtl
 1415              		.thumb
 1416              		.thumb_func
 1417              		.type	EVAL_AUDIO_VolumeCtl, %function
 1418              	EVAL_AUDIO_VolumeCtl:
 1419              	.LFB116:
 439:src/stm32f4_discovery_audio_codec.c **** {
 1420              		.loc 1 439 0
 1421              		.cfi_startproc
 1422              		@ args = 0, pretend = 0, frame = 0
 1423              		@ frame_needed = 0, uses_anonymous_args = 0
 1424              		@ link register save eliminated.
 1425              	.LVL121:
 441:src/stm32f4_discovery_audio_codec.c ****   return (Codec_VolumeCtrl(VOLUME_CONVERT(Volume)));
 1426              		.loc 1 441 0
 1427 0000 6428     		cmp	r0, #100	@ Volume,
 1428 0002 0DD8     		bhi	.L122	@,
 441:src/stm32f4_discovery_audio_codec.c ****   return (Codec_VolumeCtrl(VOLUME_CONVERT(Volume)));
 1429              		.loc 1 441 0 is_stmt 0 discriminator 1
ARM GAS  C:\Users\CNous\AppData\Local\Temp\ccPT5vWC.s 			page 58


 1430 0004 48F21F53 		movw	r3, #34079	@ tmp149,
 1431 0008 C0EB0020 		rsb	r0, r0, r0, lsl #8	@, tmp146, Volume, Volume,
 1432              	.LVL122:
 1433 000c C5F2EB13 		movt	r3, 20971	@ tmp149,
 1434 0010 83FB0021 		smull	r2, r1, r3, r0	@, tmp148, tmp149, tmp146
 1435 0014 C217     		asrs	r2, r0, #31	@ tmp151, tmp146,
 1436 0016 C2EB6113 		rsb	r3, r2, r1, asr #5	@, tmp147, tmp151, tmp148,
 1437 001a D8B2     		uxtb	r0, r3	@ iftmp.35, tmp147
 1438              	.L121:
 442:src/stm32f4_discovery_audio_codec.c **** }
 1439              		.loc 1 442 0 is_stmt 1 discriminator 3
 441:src/stm32f4_discovery_audio_codec.c ****   return (Codec_VolumeCtrl(VOLUME_CONVERT(Volume)));
 1440              		.loc 1 441 0 discriminator 3
 1441 001c FFF7FEBF 		b	Codec_VolumeCtrl	@
 1442              	.LVL123:
 1443              	.L122:
 441:src/stm32f4_discovery_audio_codec.c ****   return (Codec_VolumeCtrl(VOLUME_CONVERT(Volume)));
 1444              		.loc 1 441 0 is_stmt 0
 1445 0020 6420     		movs	r0, #100	@ iftmp.35,
 1446              	.LVL124:
 1447 0022 FBE7     		b	.L121	@
 1448              		.cfi_endproc
 1449              	.LFE116:
 1450              		.size	EVAL_AUDIO_VolumeCtl, .-EVAL_AUDIO_VolumeCtl
 1451              		.section	.text.EVAL_AUDIO_Mute,"ax",%progbits
 1452              		.align	2
 1453              		.global	EVAL_AUDIO_Mute
 1454              		.thumb
 1455              		.thumb_func
 1456              		.type	EVAL_AUDIO_Mute, %function
 1457              	EVAL_AUDIO_Mute:
 1458              	.LFB117:
 451:src/stm32f4_discovery_audio_codec.c **** { 
 1459              		.loc 1 451 0 is_stmt 1
 1460              		.cfi_startproc
 1461              		@ args = 0, pretend = 0, frame = 0
 1462              		@ frame_needed = 0, uses_anonymous_args = 0
 1463              		@ link register save eliminated.
 1464              	.LVL125:
 1465              	.LBB110:
 1466              	.LBB111:
 837:src/stm32f4_discovery_audio_codec.c ****   if (Cmd == AUDIO_MUTE_ON)
 1467              		.loc 1 837 0
 1468 0000 0128     		cmp	r0, #1	@ Cmd,
 1469 0002 04D0     		beq	.L125	@,
 843:src/stm32f4_discovery_audio_codec.c ****     counter += Codec_WriteRegister(0x04, OutputDev);
 1470              		.loc 1 843 0
 1471 0004 034B     		ldr	r3, .L126	@ tmp138,
 1472 0006 1978     		ldrb	r1, [r3, #0]	@ zero_extendqisi2	@ OutputDev, OutputDev
 1473 0008 0420     		movs	r0, #4	@,
 1474              	.LVL126:
 1475              	.LBE111:
 1476              	.LBE110:
 454:src/stm32f4_discovery_audio_codec.c **** }
 1477              		.loc 1 454 0
 1478              	.LBB113:
 1479              	.LBB112:
ARM GAS  C:\Users\CNous\AppData\Local\Temp\ccPT5vWC.s 			page 59


 843:src/stm32f4_discovery_audio_codec.c ****     counter += Codec_WriteRegister(0x04, OutputDev);
 1480              		.loc 1 843 0
 1481 000a FFF7FEBF 		b	Codec_WriteRegister	@
 1482              	.LVL127:
 1483              	.L125:
 1484              	.LBE112:
 1485              	.LBE113:
 454:src/stm32f4_discovery_audio_codec.c **** }
 1486              		.loc 1 454 0
 1487 000e FFF7FEBF 		b	Codec_Mute.part.1	@
 1488              	.LVL128:
 1489              	.L127:
 1490 0012 00BF     		.align	2
 1491              	.L126:
 1492 0014 00000000 		.word	.LANCHOR13
 1493              		.cfi_endproc
 1494              	.LFE117:
 1495              		.size	EVAL_AUDIO_Mute, .-EVAL_AUDIO_Mute
 1496              		.section	.text.DMA1_Stream7_IRQHandler,"ax",%progbits
 1497              		.align	2
 1498              		.global	DMA1_Stream7_IRQHandler
 1499              		.thumb
 1500              		.thumb_func
 1501              		.type	DMA1_Stream7_IRQHandler, %function
 1502              	DMA1_Stream7_IRQHandler:
 1503              	.LFB119:
 562:src/stm32f4_discovery_audio_codec.c **** { 
 1504              		.loc 1 562 0
 1505              		.cfi_startproc
 1506              		@ args = 0, pretend = 0, frame = 0
 1507              		@ frame_needed = 0, uses_anonymous_args = 0
 1508              		@ link register save eliminated.
 564:src/stm32f4_discovery_audio_codec.c **** }
 1509              		.loc 1 564 0
 563:src/stm32f4_discovery_audio_codec.c ****   Audio_MAL_IRQHandler();
 1510              		.loc 1 563 0
 1511 0000 FFF7FEBF 		b	Audio_MAL_IRQHandler	@
 1512              	.LVL129:
 1513              		.cfi_endproc
 1514              	.LFE119:
 1515              		.size	DMA1_Stream7_IRQHandler, .-DMA1_Stream7_IRQHandler
 1516              		.section	.text.DMA1_Stream0_IRQHandler,"ax",%progbits
 1517              		.align	2
 1518              		.global	DMA1_Stream0_IRQHandler
 1519              		.thumb
 1520              		.thumb_func
 1521              		.type	DMA1_Stream0_IRQHandler, %function
 1522              	DMA1_Stream0_IRQHandler:
 1523              	.LFB120:
 572:src/stm32f4_discovery_audio_codec.c **** { 
 1524              		.loc 1 572 0
 1525              		.cfi_startproc
 1526              		@ args = 0, pretend = 0, frame = 0
 1527              		@ frame_needed = 0, uses_anonymous_args = 0
 1528              		@ link register save eliminated.
 574:src/stm32f4_discovery_audio_codec.c **** }
 1529              		.loc 1 574 0
ARM GAS  C:\Users\CNous\AppData\Local\Temp\ccPT5vWC.s 			page 60


 573:src/stm32f4_discovery_audio_codec.c ****   Audio_MAL_IRQHandler();
 1530              		.loc 1 573 0
 1531 0000 FFF7FEBF 		b	Audio_MAL_IRQHandler	@
 1532              	.LVL130:
 1533              		.cfi_endproc
 1534              	.LFE120:
 1535              		.size	DMA1_Stream0_IRQHandler, .-DMA1_Stream0_IRQHandler
 1536              		.section	.text.SPI3_IRQHandler,"ax",%progbits
 1537              		.align	2
 1538              		.global	SPI3_IRQHandler
 1539              		.thumb
 1540              		.thumb_func
 1541              		.type	SPI3_IRQHandler, %function
 1542              	SPI3_IRQHandler:
 1543              	.LFB121:
 582:src/stm32f4_discovery_audio_codec.c **** {
 1544              		.loc 1 582 0
 1545              		.cfi_startproc
 1546              		@ args = 0, pretend = 0, frame = 0
 1547              		@ frame_needed = 0, uses_anonymous_args = 0
 584:src/stm32f4_discovery_audio_codec.c ****   if (SPI_I2S_GetFlagStatus(SPI3, SPI_I2S_FLAG_TXE) != RESET)
 1548              		.loc 1 584 0
 1549 0000 4FF47050 		mov	r0, #15360	@,
 582:src/stm32f4_discovery_audio_codec.c **** {
 1550              		.loc 1 582 0
 1551 0004 08B5     		push	{r3, lr}	@
 1552              	.LCFI9:
 1553              		.cfi_def_cfa_offset 8
 1554              		.cfi_offset 3, -8
 1555              		.cfi_offset 14, -4
 584:src/stm32f4_discovery_audio_codec.c ****   if (SPI_I2S_GetFlagStatus(SPI3, SPI_I2S_FLAG_TXE) != RESET)
 1556              		.loc 1 584 0
 1557 0006 C4F20000 		movt	r0, 16384	@,
 1558 000a 0221     		movs	r1, #2	@,
 1559 000c FFF7FEFF 		bl	SPI_I2S_GetFlagStatus	@
 1560              	.LVL131:
 1561 0010 70B1     		cbz	r0, .L130	@,
 586:src/stm32f4_discovery_audio_codec.c ****     if (CurrAudioInterface == AUDIO_INTERFACE_DAC)
 1562              		.loc 1 586 0
 1563 0012 0B4B     		ldr	r3, .L134	@ tmp140,
 1564 0014 1868     		ldr	r0, [r3, #0]	@ CurrAudioInterface.2, CurrAudioInterface
 1565 0016 0228     		cmp	r0, #2	@ CurrAudioInterface.2,
 1566 0018 0BD0     		beq	.L133	@,
 1567              	.L132:
 593:src/stm32f4_discovery_audio_codec.c ****     SPI_I2S_SendData(CODEC_I2S, EVAL_AUDIO_GetSampleCallBack()); 
 1568              		.loc 1 593 0
 1569 001a FFF7FEFF 		bl	EVAL_AUDIO_GetSampleCallBack	@
 1570              	.LVL132:
 1571 001e 0146     		mov	r1, r0	@ tmp142,
 1572 0020 4FF47050 		mov	r0, #15360	@,
 1573 0024 C4F20000 		movt	r0, 16384	@,
 595:src/stm32f4_discovery_audio_codec.c **** }
 1574              		.loc 1 595 0
 1575 0028 BDE80840 		pop	{r3, lr}	@
 593:src/stm32f4_discovery_audio_codec.c ****     SPI_I2S_SendData(CODEC_I2S, EVAL_AUDIO_GetSampleCallBack()); 
 1576              		.loc 1 593 0
 1577 002c FFF7FEBF 		b	SPI_I2S_SendData	@
ARM GAS  C:\Users\CNous\AppData\Local\Temp\ccPT5vWC.s 			page 61


 1578              	.LVL133:
 1579              	.L130:
 1580 0030 08BD     		pop	{r3, pc}	@
 1581              	.L133:
 589:src/stm32f4_discovery_audio_codec.c ****       DAC_SetChannel1Data(DAC_Align_12b_L, EVAL_AUDIO_GetSampleCallBack()); 
 1582              		.loc 1 589 0
 1583 0032 FFF7FEFF 		bl	EVAL_AUDIO_GetSampleCallBack	@
 1584              	.LVL134:
 1585 0036 0146     		mov	r1, r0	@ tmp141,
 1586 0038 0420     		movs	r0, #4	@,
 1587 003a FFF7FEFF 		bl	DAC_SetChannel1Data	@
 1588              	.LVL135:
 1589 003e ECE7     		b	.L132	@
 1590              	.L135:
 1591              		.align	2
 1592              	.L134:
 1593 0040 00000000 		.word	.LANCHOR5
 1594              		.cfi_endproc
 1595              	.LFE121:
 1596              		.size	SPI3_IRQHandler, .-SPI3_IRQHandler
 1597              		.section	.text.Audio_MAL_Play,"ax",%progbits
 1598              		.align	2
 1599              		.global	Audio_MAL_Play
 1600              		.thumb
 1601              		.thumb_func
 1602              		.type	Audio_MAL_Play, %function
 1603              	Audio_MAL_Play:
 1604              	.LFB141:
1505:src/stm32f4_discovery_audio_codec.c **** {         
 1605              		.loc 1 1505 0
 1606              		.cfi_startproc
 1607              		@ args = 0, pretend = 0, frame = 0
 1608              		@ frame_needed = 0, uses_anonymous_args = 0
 1609              	.LVL136:
 1610 0000 38B5     		push	{r3, r4, r5, lr}	@
 1611              	.LCFI10:
 1612              		.cfi_def_cfa_offset 16
 1613              		.cfi_offset 3, -16
 1614              		.cfi_offset 4, -12
 1615              		.cfi_offset 5, -8
 1616              		.cfi_offset 14, -4
1506:src/stm32f4_discovery_audio_codec.c ****   if (CurrAudioInterface == AUDIO_INTERFACE_I2S)
 1617              		.loc 1 1506 0
 1618 0002 154B     		ldr	r3, .L142	@ tmp143,
1509:src/stm32f4_discovery_audio_codec.c ****     DMA_InitStructure.DMA_Memory0BaseAddr = (uint32_t)Addr;
 1619              		.loc 1 1509 0
 1620 0004 154A     		ldr	r2, .L142+4	@ tmp144,
1506:src/stm32f4_discovery_audio_codec.c ****   if (CurrAudioInterface == AUDIO_INTERFACE_I2S)
 1621              		.loc 1 1506 0
 1622 0006 1C68     		ldr	r4, [r3, #0]	@ CurrAudioInterface.0, CurrAudioInterface
 1623 0008 012C     		cmp	r4, #1	@ CurrAudioInterface.0,
 1624 000a 19D0     		beq	.L140	@,
1526:src/stm32f4_discovery_audio_codec.c ****     DMA_Init(AUDIO_MAL_DMA_STREAM, &DMA_InitStructure);
 1625              		.loc 1 1526 0
 1626 000c 144C     		ldr	r4, .L142+8	@ tmp153,
1522:src/stm32f4_discovery_audio_codec.c ****     DMA_InitStructure.DMA_Memory0BaseAddr = (uint32_t)Addr;
 1627              		.loc 1 1522 0
ARM GAS  C:\Users\CNous\AppData\Local\Temp\ccPT5vWC.s 			page 62


 1628 000e 9060     		str	r0, [r2, #8]	@ Addr, DMA_InitStructure.DMA_Memory0BaseAddr
1523:src/stm32f4_discovery_audio_codec.c ****     DMA_InitStructure.DMA_BufferSize = (uint32_t)Size;
 1629              		.loc 1 1523 0
 1630 0010 1161     		str	r1, [r2, #16]	@ Size, DMA_InitStructure.DMA_BufferSize
1526:src/stm32f4_discovery_audio_codec.c ****     DMA_Init(AUDIO_MAL_DMA_STREAM, &DMA_InitStructure);
 1631              		.loc 1 1526 0
 1632 0012 2068     		ldr	r0, [r4, #0]	@, AUDIO_MAL_DMA_STREAM
 1633              	.LVL137:
 1634 0014 1146     		mov	r1, r2	@, tmp151
 1635              	.LVL138:
 1636 0016 FFF7FEFF 		bl	DMA_Init	@
 1637              	.LVL139:
1529:src/stm32f4_discovery_audio_codec.c ****     DMA_Cmd(AUDIO_MAL_DMA_STREAM, ENABLE);
 1638              		.loc 1 1529 0
 1639 001a 2068     		ldr	r0, [r4, #0]	@, AUDIO_MAL_DMA_STREAM
 1640 001c 0121     		movs	r1, #1	@,
 1641 001e FFF7FEFF 		bl	DMA_Cmd	@
 1642              	.LVL140:
 1643              	.L138:
1534:src/stm32f4_discovery_audio_codec.c ****   if ((CODEC_I2S->I2SCFGR & I2S_ENABLE_MASK) == 0)
 1644              		.loc 1 1534 0
 1645 0022 4FF47050 		mov	r0, #15360	@ tmp158,
 1646 0026 C4F20000 		movt	r0, 16384	@ tmp158,
 1647 002a 818B     		ldrh	r1, [r0, #28]	@, MEM[(struct SPI_TypeDef *)1073757184B].I2SCFGR
 1648 002c 01F48063 		and	r3, r1, #1024	@ tmp162, MEM[(struct SPI_TypeDef *)1073757184B].I2SCFGR,
 1649 0030 9AB2     		uxth	r2, r3	@ tmp163, tmp162
 1650 0032 02B1     		cbz	r2, .L141	@ tmp163,
 1651 0034 38BD     		pop	{r3, r4, r5, pc}	@
 1652              	.L141:
1536:src/stm32f4_discovery_audio_codec.c ****     I2S_Cmd(CODEC_I2S, ENABLE);
 1653              		.loc 1 1536 0
 1654 0036 0121     		movs	r1, #1	@,
1538:src/stm32f4_discovery_audio_codec.c **** }
 1655              		.loc 1 1538 0
 1656 0038 BDE83840 		pop	{r3, r4, r5, lr}	@
1536:src/stm32f4_discovery_audio_codec.c ****     I2S_Cmd(CODEC_I2S, ENABLE);
 1657              		.loc 1 1536 0
 1658 003c FFF7FEBF 		b	I2S_Cmd	@
 1659              	.LVL141:
 1660              	.L140:
1513:src/stm32f4_discovery_audio_codec.c ****     DMA_Init(AUDIO_MAL_DMA_STREAM, &DMA_InitStructure);
 1661              		.loc 1 1513 0
 1662 0040 074D     		ldr	r5, .L142+8	@ tmp146,
1509:src/stm32f4_discovery_audio_codec.c ****     DMA_InitStructure.DMA_Memory0BaseAddr = (uint32_t)Addr;
 1663              		.loc 1 1509 0
 1664 0042 9060     		str	r0, [r2, #8]	@ Addr, DMA_InitStructure.DMA_Memory0BaseAddr
1510:src/stm32f4_discovery_audio_codec.c ****     DMA_InitStructure.DMA_BufferSize = (uint32_t)Size;
 1665              		.loc 1 1510 0
 1666 0044 1161     		str	r1, [r2, #16]	@ Size, DMA_InitStructure.DMA_BufferSize
1513:src/stm32f4_discovery_audio_codec.c ****     DMA_Init(AUDIO_MAL_DMA_STREAM, &DMA_InitStructure);
 1667              		.loc 1 1513 0
 1668 0046 2868     		ldr	r0, [r5, #0]	@, AUDIO_MAL_DMA_STREAM
 1669              	.LVL142:
 1670 0048 1146     		mov	r1, r2	@, tmp144
 1671              	.LVL143:
 1672 004a FFF7FEFF 		bl	DMA_Init	@
 1673              	.LVL144:
ARM GAS  C:\Users\CNous\AppData\Local\Temp\ccPT5vWC.s 			page 63


1516:src/stm32f4_discovery_audio_codec.c ****     DMA_Cmd(AUDIO_MAL_DMA_STREAM, ENABLE);   
 1674              		.loc 1 1516 0
 1675 004e 2868     		ldr	r0, [r5, #0]	@, AUDIO_MAL_DMA_STREAM
 1676 0050 2146     		mov	r1, r4	@, CurrAudioInterface.0
 1677 0052 FFF7FEFF 		bl	DMA_Cmd	@
 1678              	.LVL145:
 1679 0056 E4E7     		b	.L138	@
 1680              	.L143:
 1681              		.align	2
 1682              	.L142:
 1683 0058 00000000 		.word	.LANCHOR5
 1684 005c 00000000 		.word	DMA_InitStructure
 1685 0060 00000000 		.word	.LANCHOR1
 1686              		.cfi_endproc
 1687              	.LFE141:
 1688              		.size	Audio_MAL_Play, .-Audio_MAL_Play
 1689              		.section	.text.EVAL_AUDIO_Play,"ax",%progbits
 1690              		.align	2
 1691              		.global	EVAL_AUDIO_Play
 1692              		.thumb
 1693              		.thumb_func
 1694              		.type	EVAL_AUDIO_Play, %function
 1695              	EVAL_AUDIO_Play:
 1696              	.LFB113:
 354:src/stm32f4_discovery_audio_codec.c **** {
 1697              		.loc 1 354 0
 1698              		.cfi_startproc
 1699              		@ args = 0, pretend = 0, frame = 0
 1700              		@ frame_needed = 0, uses_anonymous_args = 0
 1701              	.LVL146:
 1702 0000 F8B5     		push	{r3, r4, r5, r6, r7, lr}	@
 1703              	.LCFI11:
 1704              		.cfi_def_cfa_offset 24
 1705              		.cfi_offset 3, -24
 1706              		.cfi_offset 4, -20
 1707              		.cfi_offset 5, -16
 1708              		.cfi_offset 6, -12
 1709              		.cfi_offset 7, -8
 1710              		.cfi_offset 14, -4
 356:src/stm32f4_discovery_audio_codec.c ****   AudioTotalSize = Size;
 1711              		.loc 1 356 0
 1712 0002 40F20004 		movw	r4, #:lower16:.LANCHOR14	@ tmp156,
 1713 0006 C0F20004 		movt	r4, #:upper16:.LANCHOR14	@ tmp156,
 362:src/stm32f4_discovery_audio_codec.c ****   Audio_MAL_Play((uint32_t)pBuffer, (uint32_t)(DMA_MAX(Size)));
 1714              		.loc 1 362 0
 1715 000a 4FF6FF76 		movw	r6, #65535	@ tmp146,
 354:src/stm32f4_discovery_audio_codec.c **** {
 1716              		.loc 1 354 0
 1717 000e 0D46     		mov	r5, r1	@ Size, Size
 362:src/stm32f4_discovery_audio_codec.c ****   Audio_MAL_Play((uint32_t)pBuffer, (uint32_t)(DMA_MAX(Size)));
 1718              		.loc 1 362 0
 1719 0010 B142     		cmp	r1, r6	@ Size, tmp146
 1720 0012 28BF     		it	cs
 1721 0014 3146     		movcs	r1, r6	@, tmp146
 1722              	.LVL147:
 354:src/stm32f4_discovery_audio_codec.c **** {
 1723              		.loc 1 354 0
ARM GAS  C:\Users\CNous\AppData\Local\Temp\ccPT5vWC.s 			page 64


 1724 0016 0746     		mov	r7, r0	@ pBuffer, pBuffer
 356:src/stm32f4_discovery_audio_codec.c ****   AudioTotalSize = Size;
 1725              		.loc 1 356 0
 1726 0018 2560     		str	r5, [r4, #0]	@ Size, AudioTotalSize
 362:src/stm32f4_discovery_audio_codec.c ****   Audio_MAL_Play((uint32_t)pBuffer, (uint32_t)(DMA_MAX(Size)));
 1727              		.loc 1 362 0
 1728 001a FFF7FEFF 		bl	Audio_MAL_Play	@
 1729              	.LVL148:
 365:src/stm32f4_discovery_audio_codec.c ****   AudioRemSize = Size - DMA_MAX(AudioTotalSize);
 1730              		.loc 1 365 0
 1731 001e 2168     		ldr	r1, [r4, #0]	@ AudioTotalSize, AudioTotalSize
 1732 0020 40F20002 		movw	r2, #:lower16:.LANCHOR0	@ tmp157,
 368:src/stm32f4_discovery_audio_codec.c ****   CurrentPos = pBuffer + DMA_MAX(AudioTotalSize);
 1733              		.loc 1 368 0
 1734 0024 40F20003 		movw	r3, #:lower16:CurrentPos	@ tmp158,
 365:src/stm32f4_discovery_audio_codec.c ****   AudioRemSize = Size - DMA_MAX(AudioTotalSize);
 1735              		.loc 1 365 0
 1736 0028 B142     		cmp	r1, r6	@ AudioTotalSize, tmp146
 1737 002a 38BF     		it	cc
 1738 002c 0E46     		movcc	r6, r1	@ D.8852, AudioTotalSize
 1739 002e C0F20002 		movt	r2, #:upper16:.LANCHOR0	@ tmp157,
 368:src/stm32f4_discovery_audio_codec.c ****   CurrentPos = pBuffer + DMA_MAX(AudioTotalSize);
 1740              		.loc 1 368 0
 1741 0032 C0F20003 		movt	r3, #:upper16:CurrentPos	@ tmp158,
 365:src/stm32f4_discovery_audio_codec.c ****   AudioRemSize = Size - DMA_MAX(AudioTotalSize);
 1742              		.loc 1 365 0
 1743 0036 AD1B     		subs	r5, r5, r6	@ tmp151, Size, D.8852
 1744              	.LVL149:
 368:src/stm32f4_discovery_audio_codec.c ****   CurrentPos = pBuffer + DMA_MAX(AudioTotalSize);
 1745              		.loc 1 368 0
 1746 0038 07EB4606 		add	r6, r7, r6, lsl #1	@, tmp154, pBuffer, D.8852,
 365:src/stm32f4_discovery_audio_codec.c ****   AudioRemSize = Size - DMA_MAX(AudioTotalSize);
 1747              		.loc 1 365 0
 1748 003c 1560     		str	r5, [r2, #0]	@ tmp151, AudioRemSize
 368:src/stm32f4_discovery_audio_codec.c ****   CurrentPos = pBuffer + DMA_MAX(AudioTotalSize);
 1749              		.loc 1 368 0
 1750 003e 1E60     		str	r6, [r3, #0]	@ tmp154, CurrentPos
 371:src/stm32f4_discovery_audio_codec.c **** }
 1751              		.loc 1 371 0
 1752 0040 0020     		movs	r0, #0	@,
 1753 0042 F8BD     		pop	{r3, r4, r5, r6, r7, pc}	@
 1754              		.cfi_endproc
 1755              	.LFE113:
 1756              		.size	EVAL_AUDIO_Play, .-EVAL_AUDIO_Play
 1757              		.section	.text.DAC_Config,"ax",%progbits
 1758              		.align	2
 1759              		.global	DAC_Config
 1760              		.thumb
 1761              		.thumb_func
 1762              		.type	DAC_Config, %function
 1763              	DAC_Config:
 1764              	.LFB144:
1602:src/stm32f4_discovery_audio_codec.c **** }
1603:src/stm32f4_discovery_audio_codec.c **** 
1604:src/stm32f4_discovery_audio_codec.c **** /**
1605:src/stm32f4_discovery_audio_codec.c ****   * @brief  DAC  Channel1 Configuration
1606:src/stm32f4_discovery_audio_codec.c ****   * @param  None
ARM GAS  C:\Users\CNous\AppData\Local\Temp\ccPT5vWC.s 			page 65


1607:src/stm32f4_discovery_audio_codec.c ****   * @retval None
1608:src/stm32f4_discovery_audio_codec.c ****   */
1609:src/stm32f4_discovery_audio_codec.c **** void DAC_Config(void)
1610:src/stm32f4_discovery_audio_codec.c **** {
 1765              		.loc 1 1610 0
 1766              		.cfi_startproc
 1767              		@ args = 0, pretend = 0, frame = 24
 1768              		@ frame_needed = 0, uses_anonymous_args = 0
 1769 0000 10B5     		push	{r4, lr}	@
 1770              	.LCFI12:
 1771              		.cfi_def_cfa_offset 8
 1772              		.cfi_offset 4, -8
 1773              		.cfi_offset 14, -4
1611:src/stm32f4_discovery_audio_codec.c ****   DAC_InitTypeDef  DAC_InitStructure;
1612:src/stm32f4_discovery_audio_codec.c ****   GPIO_InitTypeDef GPIO_InitStructure;
1613:src/stm32f4_discovery_audio_codec.c **** 
1614:src/stm32f4_discovery_audio_codec.c ****   /* DMA1 clock and GPIOA clock enable (to be used with DAC) */
1615:src/stm32f4_discovery_audio_codec.c ****   RCC_AHB1PeriphClockCmd(RCC_AHB1Periph_DMA1 | RCC_AHB1Periph_GPIOA, ENABLE);
 1774              		.loc 1 1615 0
 1775 0002 0120     		movs	r0, #1	@,
1610:src/stm32f4_discovery_audio_codec.c **** {
 1776              		.loc 1 1610 0
 1777 0004 86B0     		sub	sp, sp, #24	@,,
 1778              	.LCFI13:
 1779              		.cfi_def_cfa_offset 32
 1780              		.loc 1 1615 0
 1781 0006 0121     		movs	r1, #1	@,
 1782 0008 C0F22000 		movt	r0, 32	@,
 1783 000c FFF7FEFF 		bl	RCC_AHB1PeriphClockCmd	@
 1784              	.LVL150:
1616:src/stm32f4_discovery_audio_codec.c **** 
1617:src/stm32f4_discovery_audio_codec.c ****   /* DAC Periph clock enable */
1618:src/stm32f4_discovery_audio_codec.c ****   RCC_APB1PeriphClockCmd(RCC_APB1Periph_DAC, ENABLE);
 1785              		.loc 1 1618 0
 1786 0010 0121     		movs	r1, #1	@,
 1787 0012 4FF00050 		mov	r0, #536870912	@,
 1788 0016 FFF7FEFF 		bl	RCC_APB1PeriphClockCmd	@
 1789              	.LVL151:
1619:src/stm32f4_discovery_audio_codec.c **** 
1620:src/stm32f4_discovery_audio_codec.c ****   /* DAC channel 1 & 2 (DAC_OUT1 = PA.4) configuration */
1621:src/stm32f4_discovery_audio_codec.c ****   GPIO_InitStructure.GPIO_Pin = GPIO_Pin_4;
1622:src/stm32f4_discovery_audio_codec.c ****   GPIO_InitStructure.GPIO_Mode = GPIO_Mode_AN;
1623:src/stm32f4_discovery_audio_codec.c ****   GPIO_InitStructure.GPIO_PuPd = GPIO_PuPd_NOPULL;
1624:src/stm32f4_discovery_audio_codec.c ****   GPIO_Init(GPIOA, &GPIO_InitStructure);
 1790              		.loc 1 1624 0
 1791 001a 0020     		movs	r0, #0	@,
1623:src/stm32f4_discovery_audio_codec.c ****   GPIO_InitStructure.GPIO_PuPd = GPIO_PuPd_NOPULL;
 1792              		.loc 1 1623 0
 1793 001c 0446     		mov	r4, r0	@ tmp138,
1621:src/stm32f4_discovery_audio_codec.c ****   GPIO_InitStructure.GPIO_Pin = GPIO_Pin_4;
 1794              		.loc 1 1621 0
 1795 001e 1023     		movs	r3, #16	@ tmp135,
1622:src/stm32f4_discovery_audio_codec.c ****   GPIO_InitStructure.GPIO_Mode = GPIO_Mode_AN;
 1796              		.loc 1 1622 0
 1797 0020 0322     		movs	r2, #3	@ tmp136,
 1798              		.loc 1 1624 0
 1799 0022 6946     		mov	r1, sp	@,
ARM GAS  C:\Users\CNous\AppData\Local\Temp\ccPT5vWC.s 			page 66


 1800 0024 C4F20200 		movt	r0, 16386	@,
1621:src/stm32f4_discovery_audio_codec.c ****   GPIO_InitStructure.GPIO_Pin = GPIO_Pin_4;
 1801              		.loc 1 1621 0
 1802 0028 0093     		str	r3, [sp, #0]	@ tmp135, GPIO_InitStructure.GPIO_Pin
1622:src/stm32f4_discovery_audio_codec.c ****   GPIO_InitStructure.GPIO_Mode = GPIO_Mode_AN;
 1803              		.loc 1 1622 0
 1804 002a 8DF80420 		strb	r2, [sp, #4]	@ tmp136, GPIO_InitStructure.GPIO_Mode
1623:src/stm32f4_discovery_audio_codec.c ****   GPIO_InitStructure.GPIO_PuPd = GPIO_PuPd_NOPULL;
 1805              		.loc 1 1623 0
 1806 002e 8DF80740 		strb	r4, [sp, #7]	@ tmp138, GPIO_InitStructure.GPIO_PuPd
 1807              		.loc 1 1624 0
 1808 0032 FFF7FEFF 		bl	GPIO_Init	@
 1809              	.LVL152:
1625:src/stm32f4_discovery_audio_codec.c **** 
1626:src/stm32f4_discovery_audio_codec.c ****   /* DAC channel1 Configuration */
1627:src/stm32f4_discovery_audio_codec.c ****   DAC_InitStructure.DAC_Trigger = DAC_Trigger_None;
1628:src/stm32f4_discovery_audio_codec.c ****   DAC_InitStructure.DAC_WaveGeneration = DAC_WaveGeneration_None;
1629:src/stm32f4_discovery_audio_codec.c ****   DAC_InitStructure.DAC_OutputBuffer = DAC_OutputBuffer_Enable;
1630:src/stm32f4_discovery_audio_codec.c ****   DAC_Init(AUDIO_DAC_CHANNEL, &DAC_InitStructure);
 1810              		.loc 1 1630 0
 1811 0036 02A9     		add	r1, sp, #8	@,,
 1812 0038 2046     		mov	r0, r4	@, tmp138
1627:src/stm32f4_discovery_audio_codec.c ****   DAC_InitStructure.DAC_Trigger = DAC_Trigger_None;
 1813              		.loc 1 1627 0
 1814 003a 0294     		str	r4, [sp, #8]	@ tmp138, DAC_InitStructure.DAC_Trigger
1628:src/stm32f4_discovery_audio_codec.c ****   DAC_InitStructure.DAC_WaveGeneration = DAC_WaveGeneration_None;
 1815              		.loc 1 1628 0
 1816 003c 0394     		str	r4, [sp, #12]	@ tmp138, DAC_InitStructure.DAC_WaveGeneration
1629:src/stm32f4_discovery_audio_codec.c ****   DAC_InitStructure.DAC_OutputBuffer = DAC_OutputBuffer_Enable;
 1817              		.loc 1 1629 0
 1818 003e 0594     		str	r4, [sp, #20]	@ tmp138, DAC_InitStructure.DAC_OutputBuffer
 1819              		.loc 1 1630 0
 1820 0040 FFF7FEFF 		bl	DAC_Init	@
 1821              	.LVL153:
1631:src/stm32f4_discovery_audio_codec.c **** 
1632:src/stm32f4_discovery_audio_codec.c ****   /* Enable DAC Channel1 */
1633:src/stm32f4_discovery_audio_codec.c ****   DAC_Cmd(AUDIO_DAC_CHANNEL, ENABLE);
 1822              		.loc 1 1633 0
 1823 0044 2046     		mov	r0, r4	@, tmp138
 1824 0046 0121     		movs	r1, #1	@,
 1825 0048 FFF7FEFF 		bl	DAC_Cmd	@
 1826              	.LVL154:
1634:src/stm32f4_discovery_audio_codec.c **** }
 1827              		.loc 1 1634 0
 1828 004c 06B0     		add	sp, sp, #24	@,,
 1829 004e 10BD     		pop	{r4, pc}
 1830              		.cfi_endproc
 1831              	.LFE144:
 1832              		.size	DAC_Config, .-DAC_Config
 1833              		.section	.text.EVAL_AUDIO_Init,"ax",%progbits
 1834              		.align	2
 1835              		.global	EVAL_AUDIO_Init
 1836              		.thumb
 1837              		.thumb_func
 1838              		.type	EVAL_AUDIO_Init, %function
 1839              	EVAL_AUDIO_Init:
 1840              	.LFB111:
ARM GAS  C:\Users\CNous\AppData\Local\Temp\ccPT5vWC.s 			page 67


 313:src/stm32f4_discovery_audio_codec.c **** {    
 1841              		.loc 1 313 0
 1842              		.cfi_startproc
 1843              		@ args = 0, pretend = 0, frame = 64
 1844              		@ frame_needed = 0, uses_anonymous_args = 0
 1845              	.LVL155:
 1846 0000 2DE9F047 		push	{r4, r5, r6, r7, r8, r9, sl, lr}	@
 1847              	.LCFI14:
 1848              		.cfi_def_cfa_offset 32
 1849              		.cfi_offset 4, -32
 1850              		.cfi_offset 5, -28
 1851              		.cfi_offset 6, -24
 1852              		.cfi_offset 7, -20
 1853              		.cfi_offset 8, -16
 1854              		.cfi_offset 9, -12
 1855              		.cfi_offset 10, -8
 1856              		.cfi_offset 14, -4
 315:src/stm32f4_discovery_audio_codec.c ****   if (Codec_Init(OutputDevice, VOLUME_CONVERT(Volume), AudioFreq) != 0)
 1857              		.loc 1 315 0
 1858 0004 6429     		cmp	r1, #100	@ Volume,
 313:src/stm32f4_discovery_audio_codec.c **** {    
 1859              		.loc 1 313 0
 1860 0006 90B0     		sub	sp, sp, #64	@,,
 1861              	.LCFI15:
 1862              		.cfi_def_cfa_offset 96
 313:src/stm32f4_discovery_audio_codec.c **** {    
 1863              		.loc 1 313 0
 1864 0008 1746     		mov	r7, r2	@ AudioFreq, AudioFreq
 315:src/stm32f4_discovery_audio_codec.c ****   if (Codec_Init(OutputDevice, VOLUME_CONVERT(Volume), AudioFreq) != 0)
 1865              		.loc 1 315 0
 1866 000a 00F23F81 		bhi	.L157	@,
 315:src/stm32f4_discovery_audio_codec.c ****   if (Codec_Init(OutputDevice, VOLUME_CONVERT(Volume), AudioFreq) != 0)
 1867              		.loc 1 315 0 is_stmt 0 discriminator 1
 1868 000e 48F21F58 		movw	r8, #34079	@ tmp196,
 1869 0012 C1EB0121 		rsb	r1, r1, r1, lsl #8	@, tmp193, Volume, Volume,
 1870              	.LVL156:
 1871 0016 C5F2EB18 		movt	r8, 20971	@ tmp196,
 1872 001a 88FB0130 		smull	r3, r0, r8, r1	@, tmp195, tmp196, tmp193
 1873              	.LVL157:
 1874 001e CA17     		asrs	r2, r1, #31	@ tmp198, tmp193,
 1875              	.LVL158:
 1876 0020 C2EB6013 		rsb	r3, r2, r0, asr #5	@, tmp194, tmp198, tmp195,
 1877 0024 5FFA83F8 		uxtb	r8, r3	@ iftmp.53, tmp194
 1878              	.L147:
 1879              	.LVL159:
 1880              	.LBB124:
 1881              	.LBB125:
 1882              	.LBB126:
 1883              	.LBB127:
1176:src/stm32f4_discovery_audio_codec.c ****   RCC_AHB1PeriphClockCmd(AUDIO_RESET_GPIO_CLK,ENABLE);
 1884              		.loc 1 1176 0 is_stmt 1 discriminator 3
 1885 0028 0820     		movs	r0, #8	@,
 1886 002a 0121     		movs	r1, #1	@,
 1887 002c FFF7FEFF 		bl	RCC_AHB1PeriphClockCmd	@
 1888              	.LVL160:
1184:src/stm32f4_discovery_audio_codec.c ****   GPIO_Init(AUDIO_RESET_GPIO, &GPIO_InitStructure);    
 1889              		.loc 1 1184 0 discriminator 3
ARM GAS  C:\Users\CNous\AppData\Local\Temp\ccPT5vWC.s 			page 68


 1890 0030 4FF44060 		mov	r0, #3072	@,
1181:src/stm32f4_discovery_audio_codec.c ****   GPIO_InitStructure.GPIO_Speed = GPIO_Speed_50MHz;
 1891              		.loc 1 1181 0 discriminator 3
 1892 0034 0225     		movs	r5, #2	@ tmp202,
1182:src/stm32f4_discovery_audio_codec.c ****   GPIO_InitStructure.GPIO_OType = GPIO_OType_PP;
 1893              		.loc 1 1182 0 discriminator 3
 1894 0036 0024     		movs	r4, #0	@ tmp204,
1180:src/stm32f4_discovery_audio_codec.c ****   GPIO_InitStructure.GPIO_Mode = GPIO_Mode_OUT;
 1895              		.loc 1 1180 0 discriminator 3
 1896 0038 0126     		movs	r6, #1	@ tmp200,
1184:src/stm32f4_discovery_audio_codec.c ****   GPIO_Init(AUDIO_RESET_GPIO, &GPIO_InitStructure);    
 1897              		.loc 1 1184 0 discriminator 3
 1898 003a C4F20200 		movt	r0, 16386	@,
 1899 003e 02A9     		add	r1, sp, #8	@,,
1179:src/stm32f4_discovery_audio_codec.c ****   GPIO_InitStructure.GPIO_Pin = AUDIO_RESET_PIN; 
 1900              		.loc 1 1179 0 discriminator 3
 1901 0040 4FF01009 		mov	r9, #16	@ tmp199,
1181:src/stm32f4_discovery_audio_codec.c ****   GPIO_InitStructure.GPIO_Speed = GPIO_Speed_50MHz;
 1902              		.loc 1 1181 0 discriminator 3
 1903 0044 8DF80D50 		strb	r5, [sp, #13]	@ tmp202, GPIO_InitStructure.GPIO_Speed
1179:src/stm32f4_discovery_audio_codec.c ****   GPIO_InitStructure.GPIO_Pin = AUDIO_RESET_PIN; 
 1904              		.loc 1 1179 0 discriminator 3
 1905 0048 CDF80890 		str	r9, [sp, #8]	@ tmp199, GPIO_InitStructure.GPIO_Pin
1180:src/stm32f4_discovery_audio_codec.c ****   GPIO_InitStructure.GPIO_Mode = GPIO_Mode_OUT;
 1906              		.loc 1 1180 0 discriminator 3
 1907 004c 8DF80C60 		strb	r6, [sp, #12]	@ tmp200, GPIO_InitStructure.GPIO_Mode
1182:src/stm32f4_discovery_audio_codec.c ****   GPIO_InitStructure.GPIO_OType = GPIO_OType_PP;
 1908              		.loc 1 1182 0 discriminator 3
 1909 0050 8DF80E40 		strb	r4, [sp, #14]	@ tmp204, GPIO_InitStructure.GPIO_OType
1183:src/stm32f4_discovery_audio_codec.c ****   GPIO_InitStructure.GPIO_PuPd  = GPIO_PuPd_NOPULL;
 1910              		.loc 1 1183 0 discriminator 3
 1911 0054 8DF80F40 		strb	r4, [sp, #15]	@ tmp204, GPIO_InitStructure.GPIO_PuPd
1184:src/stm32f4_discovery_audio_codec.c ****   GPIO_Init(AUDIO_RESET_GPIO, &GPIO_InitStructure);    
 1912              		.loc 1 1184 0 discriminator 3
 1913 0058 FFF7FEFF 		bl	GPIO_Init	@
 1914              	.LVL161:
1187:src/stm32f4_discovery_audio_codec.c ****   RCC_AHB1PeriphClockCmd(CODEC_I2C_GPIO_CLOCK | CODEC_I2S_GPIO_CLOCK, ENABLE);
 1915              		.loc 1 1187 0 discriminator 3
 1916 005c 0720     		movs	r0, #7	@,
 1917 005e 3146     		mov	r1, r6	@, tmp200
 1918 0060 FFF7FEFF 		bl	RCC_AHB1PeriphClockCmd	@
 1919              	.LVL162:
1195:src/stm32f4_discovery_audio_codec.c ****   GPIO_Init(CODEC_I2C_GPIO, &GPIO_InitStructure);     
 1920              		.loc 1 1195 0 discriminator 3
 1921 0064 4FF48060 		mov	r0, #1024	@,
1190:src/stm32f4_discovery_audio_codec.c ****   GPIO_InitStructure.GPIO_Pin = CODEC_I2C_SCL_PIN | CODEC_I2C_SDA_PIN; 
 1922              		.loc 1 1190 0 discriminator 3
 1923 0068 4FF41072 		mov	r2, #576	@ tmp210,
1195:src/stm32f4_discovery_audio_codec.c ****   GPIO_Init(CODEC_I2C_GPIO, &GPIO_InitStructure);     
 1924              		.loc 1 1195 0 discriminator 3
 1925 006c C4F20200 		movt	r0, 16386	@,
 1926 0070 02A9     		add	r1, sp, #8	@,,
1190:src/stm32f4_discovery_audio_codec.c ****   GPIO_InitStructure.GPIO_Pin = CODEC_I2C_SCL_PIN | CODEC_I2C_SDA_PIN; 
 1927              		.loc 1 1190 0 discriminator 3
 1928 0072 0292     		str	r2, [sp, #8]	@ tmp210, GPIO_InitStructure.GPIO_Pin
1191:src/stm32f4_discovery_audio_codec.c ****   GPIO_InitStructure.GPIO_Mode = GPIO_Mode_AF;
 1929              		.loc 1 1191 0 discriminator 3
ARM GAS  C:\Users\CNous\AppData\Local\Temp\ccPT5vWC.s 			page 69


 1930 0074 8DF80C50 		strb	r5, [sp, #12]	@ tmp202, GPIO_InitStructure.GPIO_Mode
1192:src/stm32f4_discovery_audio_codec.c ****   GPIO_InitStructure.GPIO_Speed = GPIO_Speed_50MHz;
 1931              		.loc 1 1192 0 discriminator 3
 1932 0078 8DF80D50 		strb	r5, [sp, #13]	@ tmp202, GPIO_InitStructure.GPIO_Speed
1193:src/stm32f4_discovery_audio_codec.c ****   GPIO_InitStructure.GPIO_OType = GPIO_OType_OD;
 1933              		.loc 1 1193 0 discriminator 3
 1934 007c 8DF80E60 		strb	r6, [sp, #14]	@ tmp200, GPIO_InitStructure.GPIO_OType
1194:src/stm32f4_discovery_audio_codec.c ****   GPIO_InitStructure.GPIO_PuPd  = GPIO_PuPd_NOPULL;
 1935              		.loc 1 1194 0 discriminator 3
 1936 0080 8DF80F40 		strb	r4, [sp, #15]	@ tmp204, GPIO_InitStructure.GPIO_PuPd
1195:src/stm32f4_discovery_audio_codec.c ****   GPIO_Init(CODEC_I2C_GPIO, &GPIO_InitStructure);     
 1937              		.loc 1 1195 0 discriminator 3
 1938 0084 FFF7FEFF 		bl	GPIO_Init	@
 1939              	.LVL163:
1197:src/stm32f4_discovery_audio_codec.c ****   GPIO_PinAFConfig(CODEC_I2C_GPIO, CODEC_I2S_SCL_PINSRC, CODEC_I2C_GPIO_AF);  
 1940              		.loc 1 1197 0 discriminator 3
 1941 0088 4FF48060 		mov	r0, #1024	@,
 1942 008c 0621     		movs	r1, #6	@,
 1943 008e 0422     		movs	r2, #4	@,
 1944 0090 C4F20200 		movt	r0, 16386	@,
 1945 0094 FFF7FEFF 		bl	GPIO_PinAFConfig	@
 1946              	.LVL164:
1198:src/stm32f4_discovery_audio_codec.c ****   GPIO_PinAFConfig(CODEC_I2C_GPIO, CODEC_I2S_SDA_PINSRC, CODEC_I2C_GPIO_AF);  
 1947              		.loc 1 1198 0 discriminator 3
 1948 0098 4FF48060 		mov	r0, #1024	@,
 1949 009c 0422     		movs	r2, #4	@,
 1950 009e 0921     		movs	r1, #9	@,
 1951 00a0 C4F20200 		movt	r0, 16386	@,
 1952 00a4 FFF7FEFF 		bl	GPIO_PinAFConfig	@
 1953              	.LVL165:
1206:src/stm32f4_discovery_audio_codec.c ****   GPIO_Init(CODEC_I2S_GPIO, &GPIO_InitStructure);
 1954              		.loc 1 1206 0 discriminator 3
 1955 00a8 4FF40060 		mov	r0, #2048	@,
1201:src/stm32f4_discovery_audio_codec.c ****   GPIO_InitStructure.GPIO_Pin = CODEC_I2S_SCK_PIN | CODEC_I2S_SD_PIN; 
 1956              		.loc 1 1201 0 discriminator 3
 1957 00ac 4FF4A053 		mov	r3, #5120	@ tmp223,
1206:src/stm32f4_discovery_audio_codec.c ****   GPIO_Init(CODEC_I2S_GPIO, &GPIO_InitStructure);
 1958              		.loc 1 1206 0 discriminator 3
 1959 00b0 C4F20200 		movt	r0, 16386	@,
 1960 00b4 02A9     		add	r1, sp, #8	@,,
1201:src/stm32f4_discovery_audio_codec.c ****   GPIO_InitStructure.GPIO_Pin = CODEC_I2S_SCK_PIN | CODEC_I2S_SD_PIN; 
 1961              		.loc 1 1201 0 discriminator 3
 1962 00b6 0293     		str	r3, [sp, #8]	@ tmp223, GPIO_InitStructure.GPIO_Pin
1202:src/stm32f4_discovery_audio_codec.c ****   GPIO_InitStructure.GPIO_Mode = GPIO_Mode_AF;
 1963              		.loc 1 1202 0 discriminator 3
 1964 00b8 8DF80C50 		strb	r5, [sp, #12]	@ tmp202, GPIO_InitStructure.GPIO_Mode
1203:src/stm32f4_discovery_audio_codec.c ****   GPIO_InitStructure.GPIO_Speed = GPIO_Speed_50MHz;
 1965              		.loc 1 1203 0 discriminator 3
 1966 00bc 8DF80D50 		strb	r5, [sp, #13]	@ tmp202, GPIO_InitStructure.GPIO_Speed
1204:src/stm32f4_discovery_audio_codec.c ****   GPIO_InitStructure.GPIO_OType = GPIO_OType_PP;
 1967              		.loc 1 1204 0 discriminator 3
 1968 00c0 8DF80E40 		strb	r4, [sp, #14]	@ tmp204, GPIO_InitStructure.GPIO_OType
1205:src/stm32f4_discovery_audio_codec.c ****   GPIO_InitStructure.GPIO_PuPd = GPIO_PuPd_NOPULL;
 1969              		.loc 1 1205 0 discriminator 3
 1970 00c4 8DF80F40 		strb	r4, [sp, #15]	@ tmp204, GPIO_InitStructure.GPIO_PuPd
1206:src/stm32f4_discovery_audio_codec.c ****   GPIO_Init(CODEC_I2S_GPIO, &GPIO_InitStructure);
 1971              		.loc 1 1206 0 discriminator 3
ARM GAS  C:\Users\CNous\AppData\Local\Temp\ccPT5vWC.s 			page 70


 1972 00c8 FFF7FEFF 		bl	GPIO_Init	@
 1973              	.LVL166:
1209:src/stm32f4_discovery_audio_codec.c ****   GPIO_PinAFConfig(CODEC_I2S_WS_GPIO, CODEC_I2S_WS_PINSRC, CODEC_I2S_GPIO_AF);  
 1974              		.loc 1 1209 0 discriminator 3
 1975 00cc 2046     		mov	r0, r4	@, tmp204
 1976 00ce 0421     		movs	r1, #4	@,
 1977 00d0 0622     		movs	r2, #6	@,
 1978 00d2 C4F20200 		movt	r0, 16386	@,
 1979 00d6 FFF7FEFF 		bl	GPIO_PinAFConfig	@
 1980              	.LVL167:
1212:src/stm32f4_discovery_audio_codec.c ****   if (CurrAudioInterface != AUDIO_INTERFACE_DAC) 
 1981              		.loc 1 1212 0 discriminator 3
 1982 00da C64D     		ldr	r5, .L167	@ tmp368,
1210:src/stm32f4_discovery_audio_codec.c ****   GPIO_PinAFConfig(CODEC_I2S_GPIO, CODEC_I2S_SCK_PINSRC, CODEC_I2S_GPIO_AF);
 1983              		.loc 1 1210 0 discriminator 3
 1984 00dc 4FF40060 		mov	r0, #2048	@,
 1985 00e0 0A21     		movs	r1, #10	@,
 1986 00e2 0622     		movs	r2, #6	@,
 1987 00e4 C4F20200 		movt	r0, 16386	@,
 1988 00e8 FFF7FEFF 		bl	GPIO_PinAFConfig	@
 1989              	.LVL168:
1212:src/stm32f4_discovery_audio_codec.c ****   if (CurrAudioInterface != AUDIO_INTERFACE_DAC) 
 1990              		.loc 1 1212 0 discriminator 3
 1991 00ec 2968     		ldr	r1, [r5, #0]	@ CurrAudioInterface.56, CurrAudioInterface
 1992 00ee 0229     		cmp	r1, #2	@ CurrAudioInterface.56,
 1993 00f0 00F0EF80 		beq	.L148	@,
1215:src/stm32f4_discovery_audio_codec.c ****     GPIO_Init(CODEC_I2S_WS_GPIO, &GPIO_InitStructure); 
 1994              		.loc 1 1215 0
 1995 00f4 2046     		mov	r0, r4	@, tmp204
 1996 00f6 02A9     		add	r1, sp, #8	@,,
 1997 00f8 C4F20200 		movt	r0, 16386	@,
1214:src/stm32f4_discovery_audio_codec.c ****     GPIO_InitStructure.GPIO_Pin = CODEC_I2S_WS_PIN ;
 1998              		.loc 1 1214 0
 1999 00fc CDF80890 		str	r9, [sp, #8]	@ tmp199, GPIO_InitStructure.GPIO_Pin
1215:src/stm32f4_discovery_audio_codec.c ****     GPIO_Init(CODEC_I2S_WS_GPIO, &GPIO_InitStructure); 
 2000              		.loc 1 1215 0
 2001 0100 FFF7FEFF 		bl	GPIO_Init	@
 2002              	.LVL169:
1216:src/stm32f4_discovery_audio_codec.c ****     GPIO_PinAFConfig(CODEC_I2S_GPIO, CODEC_I2S_SD_PINSRC, CODEC_I2S_GPIO_AF);
 2003              		.loc 1 1216 0
 2004 0104 4FF40060 		mov	r0, #2048	@,
 2005 0108 C4F20200 		movt	r0, 16386	@,
 2006 010c 0C21     		movs	r1, #12	@,
 2007 010e 0622     		movs	r2, #6	@,
 2008 0110 FFF7FEFF 		bl	GPIO_PinAFConfig	@
 2009              	.LVL170:
 2010              	.L149:
1237:src/stm32f4_discovery_audio_codec.c ****   GPIO_Init(CODEC_I2S_MCK_GPIO, &GPIO_InitStructure);   
 2011              		.loc 1 1237 0
 2012 0114 4FF40060 		mov	r0, #2048	@,
1233:src/stm32f4_discovery_audio_codec.c ****   GPIO_InitStructure.GPIO_Mode = GPIO_Mode_AF;
 2013              		.loc 1 1233 0
 2014 0118 0226     		movs	r6, #2	@ tmp249,
1235:src/stm32f4_discovery_audio_codec.c ****   GPIO_InitStructure.GPIO_OType = GPIO_OType_PP;
 2015              		.loc 1 1235 0
 2016 011a 0024     		movs	r4, #0	@ tmp253,
1232:src/stm32f4_discovery_audio_codec.c ****   GPIO_InitStructure.GPIO_Pin = CODEC_I2S_MCK_PIN; 
ARM GAS  C:\Users\CNous\AppData\Local\Temp\ccPT5vWC.s 			page 71


 2017              		.loc 1 1232 0
 2018 011c 8022     		movs	r2, #128	@ tmp248,
1237:src/stm32f4_discovery_audio_codec.c ****   GPIO_Init(CODEC_I2S_MCK_GPIO, &GPIO_InitStructure);   
 2019              		.loc 1 1237 0
 2020 011e C4F20200 		movt	r0, 16386	@,
 2021 0122 02A9     		add	r1, sp, #8	@,,
1232:src/stm32f4_discovery_audio_codec.c ****   GPIO_InitStructure.GPIO_Pin = CODEC_I2S_MCK_PIN; 
 2022              		.loc 1 1232 0
 2023 0124 0292     		str	r2, [sp, #8]	@ tmp248, GPIO_InitStructure.GPIO_Pin
1233:src/stm32f4_discovery_audio_codec.c ****   GPIO_InitStructure.GPIO_Mode = GPIO_Mode_AF;
 2024              		.loc 1 1233 0
 2025 0126 8DF80C60 		strb	r6, [sp, #12]	@ tmp249, GPIO_InitStructure.GPIO_Mode
1234:src/stm32f4_discovery_audio_codec.c ****   GPIO_InitStructure.GPIO_Speed = GPIO_Speed_50MHz;
 2026              		.loc 1 1234 0
 2027 012a 8DF80D60 		strb	r6, [sp, #13]	@ tmp249, GPIO_InitStructure.GPIO_Speed
1235:src/stm32f4_discovery_audio_codec.c ****   GPIO_InitStructure.GPIO_OType = GPIO_OType_PP;
 2028              		.loc 1 1235 0
 2029 012e 8DF80E40 		strb	r4, [sp, #14]	@ tmp253, GPIO_InitStructure.GPIO_OType
1236:src/stm32f4_discovery_audio_codec.c ****   GPIO_InitStructure.GPIO_PuPd = GPIO_PuPd_NOPULL;
 2030              		.loc 1 1236 0
 2031 0132 8DF80F40 		strb	r4, [sp, #15]	@ tmp253, GPIO_InitStructure.GPIO_PuPd
1237:src/stm32f4_discovery_audio_codec.c ****   GPIO_Init(CODEC_I2S_MCK_GPIO, &GPIO_InitStructure);   
 2032              		.loc 1 1237 0
 2033 0136 FFF7FEFF 		bl	GPIO_Init	@
 2034              	.LVL171:
1239:src/stm32f4_discovery_audio_codec.c ****   GPIO_PinAFConfig(CODEC_I2S_MCK_GPIO, CODEC_I2S_MCK_PINSRC, CODEC_I2S_GPIO_AF); 
 2035              		.loc 1 1239 0
 2036 013a 4FF40060 		mov	r0, #2048	@,
 2037 013e 0622     		movs	r2, #6	@,
 2038 0140 0721     		movs	r1, #7	@,
 2039 0142 C4F20200 		movt	r0, 16386	@,
 2040 0146 FFF7FEFF 		bl	GPIO_PinAFConfig	@
 2041              	.LVL172:
 2042              	.LBE127:
 2043              	.LBE126:
 617:src/stm32f4_discovery_audio_codec.c ****   Codec_Reset();
 2044              		.loc 1 617 0
 2045 014a FFF7FEFF 		bl	Codec_Reset	@
 2046              	.LVL173:
 2047              	.LBB129:
 2048              	.LBB130:
1052:src/stm32f4_discovery_audio_codec.c ****   RCC_APB1PeriphClockCmd(CODEC_I2C_CLK, ENABLE);
 2049              		.loc 1 1052 0
 2050 014e 0121     		movs	r1, #1	@,
 2051 0150 4FF40010 		mov	r0, #2097152	@,
 2052 0154 FFF7FEFF 		bl	RCC_APB1PeriphClockCmd	@
 2053              	.LVL174:
1055:src/stm32f4_discovery_audio_codec.c ****   I2C_DeInit(CODEC_I2C);
 2054              		.loc 1 1055 0
 2055 0158 4FF4A840 		mov	r0, #21504	@,
 2056 015c C4F20000 		movt	r0, 16384	@,
 2057 0160 FFF7FEFF 		bl	I2C_DeInit	@
 2058              	.LVL175:
1060:src/stm32f4_discovery_audio_codec.c ****   I2C_InitStructure.I2C_AcknowledgedAddress = I2C_AcknowledgedAddress_7bit;
 2059              		.loc 1 1060 0
 2060 0164 4FF4804A 		mov	sl, #16384	@ tmp270,
1061:src/stm32f4_discovery_audio_codec.c ****   I2C_InitStructure.I2C_ClockSpeed = I2C_SPEED;
ARM GAS  C:\Users\CNous\AppData\Local\Temp\ccPT5vWC.s 			page 72


 2061              		.loc 1 1061 0
 2062 0168 0DF14009 		add	r9, sp, #64	@ tmp274,,
 2063 016c 48F2A063 		movw	r3, #34464	@ tmp271,
 2064 0170 C0F20103 		movt	r3, 1	@ tmp271,
1057:src/stm32f4_discovery_audio_codec.c ****   I2C_InitStructure.I2C_DutyCycle = I2C_DutyCycle_2;
 2065              		.loc 1 1057 0
 2066 0174 4BF6FF72 		movw	r2, #49151	@ tmp264,
1063:src/stm32f4_discovery_audio_codec.c ****   I2C_Cmd(CODEC_I2C, ENABLE);  
 2067              		.loc 1 1063 0
 2068 0178 4FEA0A40 		lsl	r0, sl, #16	@ tmp272, tmp270,
1061:src/stm32f4_discovery_audio_codec.c ****   I2C_InitStructure.I2C_ClockSpeed = I2C_SPEED;
 2069              		.loc 1 1061 0
 2070 017c 49F8303D 		str	r3, [r9, #-48]!	@ tmp271, I2C_InitStructure.I2C_ClockSpeed
1063:src/stm32f4_discovery_audio_codec.c ****   I2C_Cmd(CODEC_I2C, ENABLE);  
 2071              		.loc 1 1063 0
 2072 0180 0121     		movs	r1, #1	@,
1058:src/stm32f4_discovery_audio_codec.c ****   I2C_InitStructure.I2C_OwnAddress1 = 0x33;
 2073              		.loc 1 1058 0
 2074 0182 3323     		movs	r3, #51	@ tmp266,
1063:src/stm32f4_discovery_audio_codec.c ****   I2C_Cmd(CODEC_I2C, ENABLE);  
 2075              		.loc 1 1063 0
 2076 0184 40F4A840 		orr	r0, r0, #21504	@, tmp272,
1057:src/stm32f4_discovery_audio_codec.c ****   I2C_InitStructure.I2C_DutyCycle = I2C_DutyCycle_2;
 2077              		.loc 1 1057 0
 2078 0188 ADF81620 		strh	r2, [sp, #22]	@ movhi	@ tmp264, I2C_InitStructure.I2C_DutyCycle
1059:src/stm32f4_discovery_audio_codec.c ****   I2C_InitStructure.I2C_Ack = I2C_Ack_Enable;
 2079              		.loc 1 1059 0
 2080 018c 4FF48062 		mov	r2, #1024	@ tmp268,
1058:src/stm32f4_discovery_audio_codec.c ****   I2C_InitStructure.I2C_OwnAddress1 = 0x33;
 2081              		.loc 1 1058 0
 2082 0190 ADF81830 		strh	r3, [sp, #24]	@ movhi	@ tmp266, I2C_InitStructure.I2C_OwnAddress1
1059:src/stm32f4_discovery_audio_codec.c ****   I2C_InitStructure.I2C_Ack = I2C_Ack_Enable;
 2083              		.loc 1 1059 0
 2084 0194 ADF81A20 		strh	r2, [sp, #26]	@ movhi	@ tmp268, I2C_InitStructure.I2C_Ack
1056:src/stm32f4_discovery_audio_codec.c ****   I2C_InitStructure.I2C_Mode = I2C_Mode_I2C;
 2085              		.loc 1 1056 0
 2086 0198 ADF81440 		strh	r4, [sp, #20]	@ movhi	@ tmp253, I2C_InitStructure.I2C_Mode
1060:src/stm32f4_discovery_audio_codec.c ****   I2C_InitStructure.I2C_AcknowledgedAddress = I2C_AcknowledgedAddress_7bit;
 2087              		.loc 1 1060 0
 2088 019c ADF81CA0 		strh	sl, [sp, #28]	@ movhi	@ tmp270, I2C_InitStructure.I2C_AcknowledgedAddress
1063:src/stm32f4_discovery_audio_codec.c ****   I2C_Cmd(CODEC_I2C, ENABLE);  
 2089              		.loc 1 1063 0
 2090 01a0 FFF7FEFF 		bl	I2C_Cmd	@
 2091              	.LVL176:
1064:src/stm32f4_discovery_audio_codec.c ****   I2C_Init(CODEC_I2C, &I2C_InitStructure);
 2092              		.loc 1 1064 0
 2093 01a4 4FEA0A40 		lsl	r0, sl, #16	@ tmp273, tmp270,
 2094 01a8 4946     		mov	r1, r9	@, tmp274
 2095 01aa 40F4A840 		orr	r0, r0, #21504	@, tmp273,
 2096 01ae FFF7FEFF 		bl	I2C_Init	@
 2097              	.LVL177:
 2098              	.LBE130:
 2099              	.LBE129:
 623:src/stm32f4_discovery_audio_codec.c ****   counter += Codec_WriteRegister(0x02, 0x01);  
 2100              		.loc 1 623 0
 2101 01b2 0121     		movs	r1, #1	@,
 2102 01b4 3046     		mov	r0, r6	@, tmp249
ARM GAS  C:\Users\CNous\AppData\Local\Temp\ccPT5vWC.s 			page 73


 2103 01b6 FFF7FEFF 		bl	Codec_WriteRegister	@
 2104              	.LVL178:
 625:src/stm32f4_discovery_audio_codec.c ****   counter += Codec_WriteRegister(0x04, 0xAF); /* SPK always OFF & HP always ON */
 2105              		.loc 1 625 0
 2106 01ba AF21     		movs	r1, #175	@,
 623:src/stm32f4_discovery_audio_codec.c ****   counter += Codec_WriteRegister(0x02, 0x01);  
 2107              		.loc 1 623 0
 2108 01bc 0646     		mov	r6, r0	@ D.9253,
 2109              	.LVL179:
 625:src/stm32f4_discovery_audio_codec.c ****   counter += Codec_WriteRegister(0x04, 0xAF); /* SPK always OFF & HP always ON */
 2110              		.loc 1 625 0
 2111 01be 0420     		movs	r0, #4	@,
 2112              	.LVL180:
 2113 01c0 FFF7FEFF 		bl	Codec_WriteRegister	@
 2114              	.LVL181:
 626:src/stm32f4_discovery_audio_codec.c ****   OutputDev = 0xAF;
 2115              		.loc 1 626 0
 2116 01c4 8C4B     		ldr	r3, .L167+4	@ tmp275,
 2117 01c6 AF22     		movs	r2, #175	@ tmp276,
 629:src/stm32f4_discovery_audio_codec.c ****   counter += Codec_WriteRegister(0x05, 0x81);
 2118              		.loc 1 629 0
 2119 01c8 8121     		movs	r1, #129	@,
 625:src/stm32f4_discovery_audio_codec.c ****   counter += Codec_WriteRegister(0x04, 0xAF); /* SPK always OFF & HP always ON */
 2120              		.loc 1 625 0
 2121 01ca 8619     		adds	r6, r0, r6	@ counter,, D.9253
 2122              	.LVL182:
 629:src/stm32f4_discovery_audio_codec.c ****   counter += Codec_WriteRegister(0x05, 0x81);
 2123              		.loc 1 629 0
 2124 01cc 0520     		movs	r0, #5	@,
 626:src/stm32f4_discovery_audio_codec.c ****   OutputDev = 0xAF;
 2125              		.loc 1 626 0
 2126 01ce 1A70     		strb	r2, [r3, #0]	@ tmp276, OutputDev
 629:src/stm32f4_discovery_audio_codec.c ****   counter += Codec_WriteRegister(0x05, 0x81);
 2127              		.loc 1 629 0
 2128 01d0 FFF7FEFF 		bl	Codec_WriteRegister	@
 2129              	.LVL183:
 632:src/stm32f4_discovery_audio_codec.c ****   counter += Codec_WriteRegister(0x06, CODEC_STANDARD);
 2130              		.loc 1 632 0
 2131 01d4 0421     		movs	r1, #4	@,
 629:src/stm32f4_discovery_audio_codec.c ****   counter += Codec_WriteRegister(0x05, 0x81);
 2132              		.loc 1 629 0
 2133 01d6 3618     		adds	r6, r6, r0	@ counter, counter,
 2134              	.LVL184:
 632:src/stm32f4_discovery_audio_codec.c ****   counter += Codec_WriteRegister(0x06, CODEC_STANDARD);
 2135              		.loc 1 632 0
 2136 01d8 0620     		movs	r0, #6	@,
 2137 01da FFF7FEFF 		bl	Codec_WriteRegister	@
 2138              	.LVL185:
 2139 01de 3618     		adds	r6, r6, r0	@ counter, counter,
 2140              	.LVL186:
 635:src/stm32f4_discovery_audio_codec.c ****   Codec_VolumeCtrl(Volume);
 2141              		.loc 1 635 0
 2142 01e0 4046     		mov	r0, r8	@, iftmp.53
 2143 01e2 FFF7FEFF 		bl	Codec_VolumeCtrl	@
 2144              	.LVL187:
 637:src/stm32f4_discovery_audio_codec.c ****   if (CurrAudioInterface == AUDIO_INTERFACE_DAC)
 2145              		.loc 1 637 0
ARM GAS  C:\Users\CNous\AppData\Local\Temp\ccPT5vWC.s 			page 74


 2146 01e6 2968     		ldr	r1, [r5, #0]	@ CurrAudioInterface.54, CurrAudioInterface
 2147 01e8 0229     		cmp	r1, #2	@ CurrAudioInterface.54,
 2148 01ea 00F09580 		beq	.L162	@,
 2149              	.LVL188:
 2150              	.L150:
 652:src/stm32f4_discovery_audio_codec.c ****   counter += Codec_WriteRegister(0x02, 0x9E);  
 2151              		.loc 1 652 0
 2152 01ee 9E21     		movs	r1, #158	@,
 2153 01f0 0220     		movs	r0, #2	@,
 2154 01f2 FFF7FEFF 		bl	Codec_WriteRegister	@
 2155              	.LVL189:
 662:src/stm32f4_discovery_audio_codec.c ****   counter += Codec_WriteRegister(0x0A, 0x00);
 2156              		.loc 1 662 0
 2157 01f6 0021     		movs	r1, #0	@,
 652:src/stm32f4_discovery_audio_codec.c ****   counter += Codec_WriteRegister(0x02, 0x9E);  
 2158              		.loc 1 652 0
 2159 01f8 3418     		adds	r4, r6, r0	@ counter, counter,
 2160              	.LVL190:
 662:src/stm32f4_discovery_audio_codec.c ****   counter += Codec_WriteRegister(0x0A, 0x00);
 2161              		.loc 1 662 0
 2162 01fa 0A20     		movs	r0, #10	@,
 2163 01fc FFF7FEFF 		bl	Codec_WriteRegister	@
 2164              	.LVL191:
 663:src/stm32f4_discovery_audio_codec.c ****   if (CurrAudioInterface != AUDIO_INTERFACE_DAC)
 2165              		.loc 1 663 0
 2166 0200 2A68     		ldr	r2, [r5, #0]	@ CurrAudioInterface.55, CurrAudioInterface
 2167 0202 022A     		cmp	r2, #2	@ CurrAudioInterface.55,
 662:src/stm32f4_discovery_audio_codec.c ****   counter += Codec_WriteRegister(0x0A, 0x00);
 2168              		.loc 1 662 0
 2169 0204 04EB0006 		add	r6, r4, r0	@ counter, counter,
 2170              	.LVL192:
 663:src/stm32f4_discovery_audio_codec.c ****   if (CurrAudioInterface != AUDIO_INTERFACE_DAC)
 2171              		.loc 1 663 0
 2172 0208 04D0     		beq	.L151	@,
 666:src/stm32f4_discovery_audio_codec.c ****     counter += Codec_WriteRegister(0x0E, 0x04);
 2173              		.loc 1 666 0
 2174 020a 0E20     		movs	r0, #14	@,
 2175 020c 0421     		movs	r1, #4	@,
 2176 020e FFF7FEFF 		bl	Codec_WriteRegister	@
 2177              	.LVL193:
 2178 0212 3618     		adds	r6, r6, r0	@ counter, counter,
 2179              	.LVL194:
 2180              	.L151:
 669:src/stm32f4_discovery_audio_codec.c ****   counter += Codec_WriteRegister(0x27, 0x00);
 2181              		.loc 1 669 0
 2182 0214 0021     		movs	r1, #0	@,
 2183 0216 2720     		movs	r0, #39	@,
 2184 0218 FFF7FEFF 		bl	Codec_WriteRegister	@
 2185              	.LVL195:
 671:src/stm32f4_discovery_audio_codec.c ****   counter += Codec_WriteRegister(0x1F, 0x0F);
 2186              		.loc 1 671 0
 2187 021c 0F21     		movs	r1, #15	@,
 669:src/stm32f4_discovery_audio_codec.c ****   counter += Codec_WriteRegister(0x27, 0x00);
 2188              		.loc 1 669 0
 2189 021e 3418     		adds	r4, r6, r0	@ counter, counter,
 2190              	.LVL196:
 671:src/stm32f4_discovery_audio_codec.c ****   counter += Codec_WriteRegister(0x1F, 0x0F);
ARM GAS  C:\Users\CNous\AppData\Local\Temp\ccPT5vWC.s 			page 75


 2191              		.loc 1 671 0
 2192 0220 1F20     		movs	r0, #31	@,
 2193 0222 FFF7FEFF 		bl	Codec_WriteRegister	@
 2194              	.LVL197:
 673:src/stm32f4_discovery_audio_codec.c ****   counter += Codec_WriteRegister(0x1A, 0x0A);
 2195              		.loc 1 673 0
 2196 0226 0A21     		movs	r1, #10	@,
 671:src/stm32f4_discovery_audio_codec.c ****   counter += Codec_WriteRegister(0x1F, 0x0F);
 2197              		.loc 1 671 0
 2198 0228 2618     		adds	r6, r4, r0	@ counter, counter,
 2199              	.LVL198:
 673:src/stm32f4_discovery_audio_codec.c ****   counter += Codec_WriteRegister(0x1A, 0x0A);
 2200              		.loc 1 673 0
 2201 022a 1A20     		movs	r0, #26	@,
 2202 022c FFF7FEFF 		bl	Codec_WriteRegister	@
 2203              	.LVL199:
 674:src/stm32f4_discovery_audio_codec.c ****   counter += Codec_WriteRegister(0x1B, 0x0A);
 2204              		.loc 1 674 0
 2205 0230 0A21     		movs	r1, #10	@,
 673:src/stm32f4_discovery_audio_codec.c ****   counter += Codec_WriteRegister(0x1A, 0x0A);
 2206              		.loc 1 673 0
 2207 0232 3418     		adds	r4, r6, r0	@ counter, counter,
 2208              	.LVL200:
 674:src/stm32f4_discovery_audio_codec.c ****   counter += Codec_WriteRegister(0x1B, 0x0A);
 2209              		.loc 1 674 0
 2210 0234 1B20     		movs	r0, #27	@,
 2211 0236 FFF7FEFF 		bl	Codec_WriteRegister	@
 2212              	.LVL201:
 2213              	.LBB131:
 2214              	.LBB132:
1095:src/stm32f4_discovery_audio_codec.c ****   RCC_APB1PeriphClockCmd(CODEC_I2S_CLK, ENABLE);
 2215              		.loc 1 1095 0
 2216 023a 0121     		movs	r1, #1	@,
 2217              	.LBE132:
 2218              	.LBE131:
 674:src/stm32f4_discovery_audio_codec.c ****   counter += Codec_WriteRegister(0x1B, 0x0A);
 2219              		.loc 1 674 0
 2220 023c 2618     		adds	r6, r4, r0	@ counter, counter,
 2221              	.LVL202:
 2222              	.LBB135:
 2223              	.LBB133:
1095:src/stm32f4_discovery_audio_codec.c ****   RCC_APB1PeriphClockCmd(CODEC_I2S_CLK, ENABLE);
 2224              		.loc 1 1095 0
 2225 023e 4FF40040 		mov	r0, #32768	@,
 2226 0242 FFF7FEFF 		bl	RCC_APB1PeriphClockCmd	@
 2227              	.LVL203:
1098:src/stm32f4_discovery_audio_codec.c ****   SPI_I2S_DeInit(CODEC_I2S);
 2228              		.loc 1 1098 0
 2229 0246 4FF47050 		mov	r0, #15360	@,
 2230 024a C4F20000 		movt	r0, 16384	@,
 2231 024e FFF7FEFF 		bl	SPI_I2S_DeInit	@
 2232              	.LVL204:
1125:src/stm32f4_discovery_audio_codec.c ****   I2S_Init(CODEC_I2S, &I2S_InitStructure);
 2233              		.loc 1 1125 0
 2234 0252 4FF47050 		mov	r0, #15360	@,
1100:src/stm32f4_discovery_audio_codec.c ****   I2S_InitStructure.I2S_Standard = I2S_STANDARD;
 2235              		.loc 1 1100 0
ARM GAS  C:\Users\CNous\AppData\Local\Temp\ccPT5vWC.s 			page 76


 2236 0256 0024     		movs	r4, #0	@ tmp282,
1111:src/stm32f4_discovery_audio_codec.c ****    I2S_InitStructure.I2S_Mode = I2S_Mode_MasterTx;
 2237              		.loc 1 1111 0
 2238 0258 4FF40073 		mov	r3, #512	@ tmp288,
1125:src/stm32f4_discovery_audio_codec.c ****   I2S_Init(CODEC_I2S, &I2S_InitStructure);
 2239              		.loc 1 1125 0
 2240 025c C4F20000 		movt	r0, 16384	@,
 2241 0260 08A9     		add	r1, sp, #32	@,,
1099:src/stm32f4_discovery_audio_codec.c ****   I2S_InitStructure.I2S_AudioFreq = AudioFreq;
 2242              		.loc 1 1099 0
 2243 0262 0A97     		str	r7, [sp, #40]	@ AudioFreq, I2S_InitStructure.I2S_AudioFreq
1100:src/stm32f4_discovery_audio_codec.c ****   I2S_InitStructure.I2S_Standard = I2S_STANDARD;
 2244              		.loc 1 1100 0
 2245 0264 ADF82240 		strh	r4, [sp, #34]	@ movhi	@ tmp282, I2S_InitStructure.I2S_Standard
1101:src/stm32f4_discovery_audio_codec.c ****   I2S_InitStructure.I2S_DataFormat = I2S_DataFormat_16b;
 2246              		.loc 1 1101 0
 2247 0268 ADF82440 		strh	r4, [sp, #36]	@ movhi	@ tmp282, I2S_InitStructure.I2S_DataFormat
1102:src/stm32f4_discovery_audio_codec.c ****   I2S_InitStructure.I2S_CPOL = I2S_CPOL_Low;
 2248              		.loc 1 1102 0
 2249 026c ADF82C40 		strh	r4, [sp, #44]	@ movhi	@ tmp282, I2S_InitStructure.I2S_CPOL
1111:src/stm32f4_discovery_audio_codec.c ****    I2S_InitStructure.I2S_Mode = I2S_Mode_MasterTx;
 2250              		.loc 1 1111 0
 2251 0270 ADF82030 		strh	r3, [sp, #32]	@ movhi	@ tmp288, I2S_InitStructure.I2S_Mode
1117:src/stm32f4_discovery_audio_codec.c ****   I2S_InitStructure.I2S_MCLKOutput = I2S_MCLKOutput_Enable;
 2252              		.loc 1 1117 0
 2253 0274 ADF82630 		strh	r3, [sp, #38]	@ movhi	@ tmp288, I2S_InitStructure.I2S_MCLKOutput
1125:src/stm32f4_discovery_audio_codec.c ****   I2S_Init(CODEC_I2S, &I2S_InitStructure);
 2254              		.loc 1 1125 0
 2255 0278 FFF7FEFF 		bl	I2S_Init	@
 2256              	.LVL205:
1129:src/stm32f4_discovery_audio_codec.c ****   if (CurrAudioInterface == AUDIO_INTERFACE_DAC)
 2257              		.loc 1 1129 0
 2258 027c 2868     		ldr	r0, [r5, #0]	@ CurrAudioInterface.57, CurrAudioInterface
 2259 027e 0228     		cmp	r0, #2	@ CurrAudioInterface.57,
 2260 0280 39D0     		beq	.L163	@,
 2261              	.L152:
 2262              	.LBE133:
 2263              	.LBE135:
 2264              	.LBE125:
 2265              	.LBE124:
 315:src/stm32f4_discovery_audio_codec.c ****   if (Codec_Init(OutputDevice, VOLUME_CONVERT(Volume), AudioFreq) != 0)
 2266              		.loc 1 315 0
 2267 0282 36B1     		cbz	r6, .L164	@ counter,
 317:src/stm32f4_discovery_audio_codec.c ****     return 1;                
 2268              		.loc 1 317 0
 2269 0284 0120     		movs	r0, #1	@ D.8878,
 2270              	.LVL206:
 2271              	.L153:
 328:src/stm32f4_discovery_audio_codec.c **** }
 2272              		.loc 1 328 0
 2273 0286 10B0     		add	sp, sp, #64	@,,
 2274 0288 BDE8F087 		pop	{r4, r5, r6, r7, r8, r9, sl, pc}
 2275              	.LVL207:
 2276              	.L157:
 315:src/stm32f4_discovery_audio_codec.c ****   if (Codec_Init(OutputDevice, VOLUME_CONVERT(Volume), AudioFreq) != 0)
 2277              		.loc 1 315 0
 2278 028c 4FF06408 		mov	r8, #100	@ iftmp.53,
ARM GAS  C:\Users\CNous\AppData\Local\Temp\ccPT5vWC.s 			page 77


 2279 0290 CAE6     		b	.L147	@
 2280              	.LVL208:
 2281              	.L164:
 2282              	.LBB139:
 2283              	.LBB140:
1334:src/stm32f4_discovery_audio_codec.c ****   if (CurrAudioInterface == AUDIO_INTERFACE_I2S)
 2284              		.loc 1 1334 0
 2285 0292 2C68     		ldr	r4, [r5, #0]	@ CurrAudioInterface.58, CurrAudioInterface
 2286 0294 012C     		cmp	r4, #1	@ CurrAudioInterface.58,
 2287 0296 63D0     		beq	.L165	@,
 2288              	.LVL209:
 2289              	.L154:
1442:src/stm32f4_discovery_audio_codec.c ****   if (CurrAudioInterface == AUDIO_INTERFACE_I2S)
 2290              		.loc 1 1442 0
 2291 0298 2A68     		ldr	r2, [r5, #0]	@ CurrAudioInterface.64, CurrAudioInterface
 2292 029a 012A     		cmp	r2, #1	@ CurrAudioInterface.64,
 2293 029c 57D0     		beq	.L166	@,
1450:src/stm32f4_discovery_audio_codec.c ****     DAC_Config();
 2294              		.loc 1 1450 0
 2295 029e FFF7FEFF 		bl	DAC_Config	@
 2296              	.LVL210:
1454:src/stm32f4_discovery_audio_codec.c ****     SPI_I2S_ITConfig(SPI3, SPI_I2S_IT_TXE, ENABLE);
 2297              		.loc 1 1454 0
 2298 02a2 4FF47050 		mov	r0, #15360	@,
 2299 02a6 C4F20000 		movt	r0, 16384	@,
 2300 02aa 7121     		movs	r1, #113	@,
 2301 02ac 0122     		movs	r2, #1	@,
 2302 02ae FFF7FEFF 		bl	SPI_I2S_ITConfig	@
 2303              	.LVL211:
1458:src/stm32f4_discovery_audio_codec.c ****     NVIC_InitStructure.NVIC_IRQChannelPreemptionPriority = EVAL_AUDIO_IRQ_PREPRIO;
 2304              		.loc 1 1458 0
 2305 02b2 0023     		movs	r3, #0	@ tmp359,
1461:src/stm32f4_discovery_audio_codec.c ****     NVIC_Init(&NVIC_InitStructure); 
 2306              		.loc 1 1461 0
 2307 02b4 01A8     		add	r0, sp, #4	@,,
1457:src/stm32f4_discovery_audio_codec.c ****     NVIC_InitStructure.NVIC_IRQChannel = CODEC_I2S_IRQ;
 2308              		.loc 1 1457 0
 2309 02b6 3322     		movs	r2, #51	@ tmp357,
1460:src/stm32f4_discovery_audio_codec.c ****     NVIC_InitStructure.NVIC_IRQChannelCmd = ENABLE;
 2310              		.loc 1 1460 0
 2311 02b8 0121     		movs	r1, #1	@ tmp363,
1457:src/stm32f4_discovery_audio_codec.c ****     NVIC_InitStructure.NVIC_IRQChannel = CODEC_I2S_IRQ;
 2312              		.loc 1 1457 0
 2313 02ba 8DF80420 		strb	r2, [sp, #4]	@ tmp357, NVIC_InitStructure.NVIC_IRQChannel
1458:src/stm32f4_discovery_audio_codec.c ****     NVIC_InitStructure.NVIC_IRQChannelPreemptionPriority = EVAL_AUDIO_IRQ_PREPRIO;
 2314              		.loc 1 1458 0
 2315 02be 8DF80530 		strb	r3, [sp, #5]	@ tmp359, NVIC_InitStructure.NVIC_IRQChannelPreemptionPriority
1459:src/stm32f4_discovery_audio_codec.c ****     NVIC_InitStructure.NVIC_IRQChannelSubPriority = EVAL_AUDIO_IRQ_SUBRIO;
 2316              		.loc 1 1459 0
 2317 02c2 8DF80630 		strb	r3, [sp, #6]	@ tmp359, NVIC_InitStructure.NVIC_IRQChannelSubPriority
1460:src/stm32f4_discovery_audio_codec.c ****     NVIC_InitStructure.NVIC_IRQChannelCmd = ENABLE;
 2318              		.loc 1 1460 0
 2319 02c6 8DF80710 		strb	r1, [sp, #7]	@ tmp363, NVIC_InitStructure.NVIC_IRQChannelCmd
1461:src/stm32f4_discovery_audio_codec.c ****     NVIC_Init(&NVIC_InitStructure); 
 2320              		.loc 1 1461 0
 2321 02ca FFF7FEFF 		bl	NVIC_Init	@
 2322              	.LVL212:
ARM GAS  C:\Users\CNous\AppData\Local\Temp\ccPT5vWC.s 			page 78


 326:src/stm32f4_discovery_audio_codec.c ****     return 0;
 2323              		.loc 1 326 0
 2324 02ce 0020     		movs	r0, #0	@ D.8878,
 2325 02d0 D9E7     		b	.L153	@
 2326              	.LVL213:
 2327              	.L148:
 2328              	.LBE140:
 2329              	.LBE139:
 2330              	.LBB142:
 2331              	.LBB138:
 2332              	.LBB136:
 2333              	.LBB128:
1221:src/stm32f4_discovery_audio_codec.c ****     RCC_AHB1PeriphClockCmd(RCC_AHB1Periph_GPIOA, ENABLE);
 2334              		.loc 1 1221 0
 2335 02d2 3046     		mov	r0, r6	@, tmp200
 2336 02d4 3146     		mov	r1, r6	@,
 2337 02d6 FFF7FEFF 		bl	RCC_AHB1PeriphClockCmd	@
 2338              	.LVL214:
1227:src/stm32f4_discovery_audio_codec.c ****     GPIO_Init(GPIOA, &GPIO_InitStructure);
 2339              		.loc 1 1227 0
 2340 02da 0020     		movs	r0, #0	@,
1225:src/stm32f4_discovery_audio_codec.c ****     GPIO_InitStructure.GPIO_Mode = GPIO_Mode_AN;
 2341              		.loc 1 1225 0
 2342 02dc 0326     		movs	r6, #3	@ tmp242,
1227:src/stm32f4_discovery_audio_codec.c ****     GPIO_Init(GPIOA, &GPIO_InitStructure);
 2343              		.loc 1 1227 0
 2344 02de C4F20200 		movt	r0, 16386	@,
 2345 02e2 02A9     		add	r1, sp, #8	@,,
1224:src/stm32f4_discovery_audio_codec.c ****     GPIO_InitStructure.GPIO_Pin = GPIO_Pin_4;
 2346              		.loc 1 1224 0
 2347 02e4 CDF80890 		str	r9, [sp, #8]	@ tmp199, GPIO_InitStructure.GPIO_Pin
1225:src/stm32f4_discovery_audio_codec.c ****     GPIO_InitStructure.GPIO_Mode = GPIO_Mode_AN;
 2348              		.loc 1 1225 0
 2349 02e8 8DF80C60 		strb	r6, [sp, #12]	@ tmp242, GPIO_InitStructure.GPIO_Mode
1226:src/stm32f4_discovery_audio_codec.c ****     GPIO_InitStructure.GPIO_PuPd = GPIO_PuPd_NOPULL;
 2350              		.loc 1 1226 0
 2351 02ec 8DF80F40 		strb	r4, [sp, #15]	@ tmp204, GPIO_InitStructure.GPIO_PuPd
1227:src/stm32f4_discovery_audio_codec.c ****     GPIO_Init(GPIOA, &GPIO_InitStructure);
 2352              		.loc 1 1227 0
 2353 02f0 FFF7FEFF 		bl	GPIO_Init	@
 2354              	.LVL215:
 2355 02f4 0EE7     		b	.L149	@
 2356              	.LVL216:
 2357              	.L163:
 2358              	.LBE128:
 2359              	.LBE136:
 2360              	.LBB137:
 2361              	.LBB134:
1132:src/stm32f4_discovery_audio_codec.c ****     RCC_APB1PeriphClockCmd(RCC_APB1Periph_DAC, ENABLE);
 2362              		.loc 1 1132 0
 2363 02f6 0121     		movs	r1, #1	@,
 2364 02f8 4FF00050 		mov	r0, #536870912	@,
 2365 02fc FFF7FEFF 		bl	RCC_APB1PeriphClockCmd	@
 2366              	.LVL217:
1138:src/stm32f4_discovery_audio_codec.c ****     DAC_Init(AUDIO_DAC_CHANNEL, &DAC_InitStructure);
 2367              		.loc 1 1138 0
 2368 0300 0CA9     		add	r1, sp, #48	@,,
ARM GAS  C:\Users\CNous\AppData\Local\Temp\ccPT5vWC.s 			page 79


 2369 0302 2046     		mov	r0, r4	@, tmp282
1135:src/stm32f4_discovery_audio_codec.c ****     DAC_InitStructure.DAC_Trigger = DAC_Trigger_None;
 2370              		.loc 1 1135 0
 2371 0304 0C94     		str	r4, [sp, #48]	@ tmp282, DAC_InitStructure.DAC_Trigger
1136:src/stm32f4_discovery_audio_codec.c ****     DAC_InitStructure.DAC_WaveGeneration = DAC_WaveGeneration_None;
 2372              		.loc 1 1136 0
 2373 0306 0D94     		str	r4, [sp, #52]	@ tmp282, DAC_InitStructure.DAC_WaveGeneration
1137:src/stm32f4_discovery_audio_codec.c ****     DAC_InitStructure.DAC_OutputBuffer = DAC_OutputBuffer_Enable;
 2374              		.loc 1 1137 0
 2375 0308 0F94     		str	r4, [sp, #60]	@ tmp282, DAC_InitStructure.DAC_OutputBuffer
1138:src/stm32f4_discovery_audio_codec.c ****     DAC_Init(AUDIO_DAC_CHANNEL, &DAC_InitStructure);
 2376              		.loc 1 1138 0
 2377 030a FFF7FEFF 		bl	DAC_Init	@
 2378              	.LVL218:
1141:src/stm32f4_discovery_audio_codec.c ****     DAC_Cmd(AUDIO_DAC_CHANNEL, ENABLE);  
 2379              		.loc 1 1141 0
 2380 030e 2046     		mov	r0, r4	@, tmp282
 2381 0310 0121     		movs	r1, #1	@,
 2382 0312 FFF7FEFF 		bl	DAC_Cmd	@
 2383              	.LVL219:
 2384 0316 B4E7     		b	.L152	@
 2385              	.LVL220:
 2386              	.L162:
 2387              	.LBE134:
 2388              	.LBE137:
 640:src/stm32f4_discovery_audio_codec.c ****     counter += Codec_WriteRegister(0x08, 0x01);
 2389              		.loc 1 640 0
 2390 0318 0121     		movs	r1, #1	@,
 2391 031a 0820     		movs	r0, #8	@,
 2392 031c FFF7FEFF 		bl	Codec_WriteRegister	@
 2393              	.LVL221:
 641:src/stm32f4_discovery_audio_codec.c ****     counter += Codec_WriteRegister(0x09, 0x01);
 2394              		.loc 1 641 0
 2395 0320 0121     		movs	r1, #1	@,
 640:src/stm32f4_discovery_audio_codec.c ****     counter += Codec_WriteRegister(0x08, 0x01);
 2396              		.loc 1 640 0
 2397 0322 8046     		mov	r8, r0	@ D.9258,
 2398              	.LVL222:
 641:src/stm32f4_discovery_audio_codec.c ****     counter += Codec_WriteRegister(0x09, 0x01);
 2399              		.loc 1 641 0
 2400 0324 0920     		movs	r0, #9	@,
 2401              	.LVL223:
 2402 0326 FFF7FEFF 		bl	Codec_WriteRegister	@
 2403              	.LVL224:
 644:src/stm32f4_discovery_audio_codec.c ****     counter += Codec_WriteRegister(0x0E, 0xC0);
 2404              		.loc 1 644 0
 2405 032a C021     		movs	r1, #192	@,
 640:src/stm32f4_discovery_audio_codec.c ****     counter += Codec_WriteRegister(0x08, 0x01);
 2406              		.loc 1 640 0
 2407 032c 8044     		add	r8, r8, r0	@ counter, D.9258,
 2408              	.LVL225:
 644:src/stm32f4_discovery_audio_codec.c ****     counter += Codec_WriteRegister(0x0E, 0xC0);
 2409              		.loc 1 644 0
 2410 032e 0E20     		movs	r0, #14	@,
 2411 0330 FFF7FEFF 		bl	Codec_WriteRegister	@
 2412              	.LVL226:
 641:src/stm32f4_discovery_audio_codec.c ****     counter += Codec_WriteRegister(0x09, 0x01);
ARM GAS  C:\Users\CNous\AppData\Local\Temp\ccPT5vWC.s 			page 80


 2413              		.loc 1 641 0
 2414 0334 4644     		add	r6, r8, r6	@ counter, counter, counter
 2415              	.LVL227:
 647:src/stm32f4_discovery_audio_codec.c ****     counter += Codec_WriteRegister(0x14, 0x00);
 2416              		.loc 1 647 0
 2417 0336 2146     		mov	r1, r4	@, tmp253
 644:src/stm32f4_discovery_audio_codec.c ****     counter += Codec_WriteRegister(0x0E, 0xC0);
 2418              		.loc 1 644 0
 2419 0338 3618     		adds	r6, r6, r0	@ counter, counter,
 2420              	.LVL228:
 647:src/stm32f4_discovery_audio_codec.c ****     counter += Codec_WriteRegister(0x14, 0x00);
 2421              		.loc 1 647 0
 2422 033a 1420     		movs	r0, #20	@,
 2423 033c FFF7FEFF 		bl	Codec_WriteRegister	@
 2424              	.LVL229:
 648:src/stm32f4_discovery_audio_codec.c ****     counter += Codec_WriteRegister(0x15, 0x00);
 2425              		.loc 1 648 0
 2426 0340 2146     		mov	r1, r4	@, tmp253
 647:src/stm32f4_discovery_audio_codec.c ****     counter += Codec_WriteRegister(0x14, 0x00);
 2427              		.loc 1 647 0
 2428 0342 3418     		adds	r4, r6, r0	@ counter, counter,
 2429              	.LVL230:
 648:src/stm32f4_discovery_audio_codec.c ****     counter += Codec_WriteRegister(0x15, 0x00);
 2430              		.loc 1 648 0
 2431 0344 1520     		movs	r0, #21	@,
 2432 0346 FFF7FEFF 		bl	Codec_WriteRegister	@
 2433              	.LVL231:
 2434 034a 2618     		adds	r6, r4, r0	@ counter, counter,
 2435              	.LVL232:
 2436 034c 4FE7     		b	.L150	@
 2437              	.LVL233:
 2438              	.L166:
 2439              	.LBE138:
 2440              	.LBE142:
 2441              	.LBB143:
 2442              	.LBB141:
1445:src/stm32f4_discovery_audio_codec.c ****     SPI_I2S_DMACmd(CODEC_I2S, SPI_I2S_DMAReq_Tx, ENABLE);  
 2443              		.loc 1 1445 0
 2444 034e 4FF47050 		mov	r0, #15360	@,
 2445 0352 C4F20000 		movt	r0, 16384	@,
 2446 0356 0221     		movs	r1, #2	@,
 2447 0358 FFF7FEFF 		bl	SPI_I2S_DMACmd	@
 2448              	.LVL234:
 326:src/stm32f4_discovery_audio_codec.c ****     return 0;
 2449              		.loc 1 326 0
 2450 035c 0020     		movs	r0, #0	@ D.8878,
 2451 035e 92E7     		b	.L153	@
 2452              	.LVL235:
 2453              	.L165:
1337:src/stm32f4_discovery_audio_codec.c ****     RCC_AHB1PeriphClockCmd(AUDIO_MAL_DMA_CLOCK, ENABLE); 
 2454              		.loc 1 1337 0
 2455 0360 2649     		ldr	r1, .L167+8	@ tmp299,
1340:src/stm32f4_discovery_audio_codec.c ****     DMA_Cmd(AUDIO_MAL_DMA_STREAM, DISABLE);
 2456              		.loc 1 1340 0
 2457 0362 274F     		ldr	r7, .L167+12	@ tmp301,
 2458              	.LVL236:
1337:src/stm32f4_discovery_audio_codec.c ****     RCC_AHB1PeriphClockCmd(AUDIO_MAL_DMA_CLOCK, ENABLE); 
ARM GAS  C:\Users\CNous\AppData\Local\Temp\ccPT5vWC.s 			page 81


 2459              		.loc 1 1337 0
 2460 0364 0868     		ldr	r0, [r1, #0]	@, AUDIO_MAL_DMA_CLOCK
 2461 0366 2146     		mov	r1, r4	@, CurrAudioInterface.58
 2462 0368 FFF7FEFF 		bl	RCC_AHB1PeriphClockCmd	@
 2463              	.LVL237:
1340:src/stm32f4_discovery_audio_codec.c ****     DMA_Cmd(AUDIO_MAL_DMA_STREAM, DISABLE);
 2464              		.loc 1 1340 0
 2465 036c 3146     		mov	r1, r6	@, counter
 2466 036e 3868     		ldr	r0, [r7, #0]	@, AUDIO_MAL_DMA_STREAM
 2467 0370 FFF7FEFF 		bl	DMA_Cmd	@
 2468              	.LVL238:
1341:src/stm32f4_discovery_audio_codec.c ****     DMA_DeInit(AUDIO_MAL_DMA_STREAM);
 2469              		.loc 1 1341 0
 2470 0374 3868     		ldr	r0, [r7, #0]	@, AUDIO_MAL_DMA_STREAM
 2471 0376 FFF7FEFF 		bl	DMA_DeInit	@
 2472              	.LVL239:
1343:src/stm32f4_discovery_audio_codec.c ****     DMA_InitStructure.DMA_Channel = AUDIO_MAL_DMA_CHANNEL;  
 2473              		.loc 1 1343 0
 2474 037a 224A     		ldr	r2, .L167+16	@ tmp306,
1344:src/stm32f4_discovery_audio_codec.c ****     DMA_InitStructure.DMA_PeripheralBaseAddr = AUDIO_MAL_DMA_DREG;
 2475              		.loc 1 1344 0
 2476 037c 2248     		ldr	r0, .L167+20	@ tmp309,
1343:src/stm32f4_discovery_audio_codec.c ****     DMA_InitStructure.DMA_Channel = AUDIO_MAL_DMA_CHANNEL;  
 2477              		.loc 1 1343 0
 2478 037e 234B     		ldr	r3, .L167+24	@ tmp305,
 2479 0380 1168     		ldr	r1, [r2, #0]	@ AUDIO_MAL_DMA_CHANNEL, AUDIO_MAL_DMA_CHANNEL
1344:src/stm32f4_discovery_audio_codec.c ****     DMA_InitStructure.DMA_PeripheralBaseAddr = AUDIO_MAL_DMA_DREG;
 2480              		.loc 1 1344 0
 2481 0382 0268     		ldr	r2, [r0, #0]	@ AUDIO_MAL_DMA_DREG, AUDIO_MAL_DMA_DREG
1343:src/stm32f4_discovery_audio_codec.c ****     DMA_InitStructure.DMA_Channel = AUDIO_MAL_DMA_CHANNEL;  
 2482              		.loc 1 1343 0
 2483 0384 1960     		str	r1, [r3, #0]	@ AUDIO_MAL_DMA_CHANNEL, DMA_InitStructure.DMA_Channel
1344:src/stm32f4_discovery_audio_codec.c ****     DMA_InitStructure.DMA_PeripheralBaseAddr = AUDIO_MAL_DMA_DREG;
 2484              		.loc 1 1344 0
 2485 0386 5A60     		str	r2, [r3, #4]	@ AUDIO_MAL_DMA_DREG, DMA_InitStructure.DMA_PeripheralBaseAddr
1346:src/stm32f4_discovery_audio_codec.c ****     DMA_InitStructure.DMA_DIR = DMA_DIR_MemoryToPeripheral;
 2486              		.loc 1 1346 0
 2487 0388 4022     		movs	r2, #64	@ tmp314,
 2488 038a DA60     		str	r2, [r3, #12]	@ tmp314, DMA_InitStructure.DMA_DIR
1347:src/stm32f4_discovery_audio_codec.c ****     DMA_InitStructure.DMA_BufferSize = (uint32_t)0xFFFE;      /* This field will be configured in p
 2489              		.loc 1 1347 0
 2490 038c 4FF6FE72 		movw	r2, #65534	@ tmp316,
 2491 0390 1A61     		str	r2, [r3, #16]	@ tmp316, DMA_InitStructure.DMA_BufferSize
1349:src/stm32f4_discovery_audio_codec.c ****     DMA_InitStructure.DMA_MemoryInc = DMA_MemoryInc_Enable;
 2492              		.loc 1 1349 0
 2493 0392 4FF48062 		mov	r2, #1024	@ tmp320,
 2494 0396 9A61     		str	r2, [r3, #24]	@ tmp320, DMA_InitStructure.DMA_MemoryInc
1350:src/stm32f4_discovery_audio_codec.c ****     DMA_InitStructure.DMA_PeripheralDataSize = AUDIO_MAL_DMA_PERIPH_DATA_SIZE;
 2495              		.loc 1 1350 0
 2496 0398 4FF40062 		mov	r2, #2048	@ tmp322,
 2497 039c DA61     		str	r2, [r3, #28]	@ tmp322, DMA_InitStructure.DMA_PeripheralDataSize
1351:src/stm32f4_discovery_audio_codec.c ****     DMA_InitStructure.DMA_MemoryDataSize = AUDIO_MAL_DMA_MEM_DATA_SIZE; 
 2498              		.loc 1 1351 0
 2499 039e 4FF40052 		mov	r2, #8192	@ tmp324,
 2500 03a2 1A62     		str	r2, [r3, #32]	@ tmp324, DMA_InitStructure.DMA_MemoryDataSize
1355:src/stm32f4_discovery_audio_codec.c ****     DMA_InitStructure.DMA_Mode = DMA_Mode_Circular;
 2501              		.loc 1 1355 0
ARM GAS  C:\Users\CNous\AppData\Local\Temp\ccPT5vWC.s 			page 82


 2502 03a4 4FF48072 		mov	r2, #256	@ tmp326,
1364:src/stm32f4_discovery_audio_codec.c ****     DMA_Init(AUDIO_MAL_DMA_STREAM, &DMA_InitStructure);  
 2503              		.loc 1 1364 0
 2504 03a8 1946     		mov	r1, r3	@, tmp305
1355:src/stm32f4_discovery_audio_codec.c ****     DMA_InitStructure.DMA_Mode = DMA_Mode_Circular;
 2505              		.loc 1 1355 0
 2506 03aa 5A62     		str	r2, [r3, #36]	@ tmp326, DMA_InitStructure.DMA_Mode
1364:src/stm32f4_discovery_audio_codec.c ****     DMA_Init(AUDIO_MAL_DMA_STREAM, &DMA_InitStructure);  
 2507              		.loc 1 1364 0
 2508 03ac 3868     		ldr	r0, [r7, #0]	@, AUDIO_MAL_DMA_STREAM
1345:src/stm32f4_discovery_audio_codec.c ****     DMA_InitStructure.DMA_Memory0BaseAddr = (uint32_t)0;      /* This field will be configured in p
 2509              		.loc 1 1345 0
 2510 03ae 9E60     		str	r6, [r3, #8]	@ counter, DMA_InitStructure.DMA_Memory0BaseAddr
1359:src/stm32f4_discovery_audio_codec.c ****     DMA_InitStructure.DMA_Priority = DMA_Priority_VeryHigh;
 2511              		.loc 1 1359 0
 2512 03b0 4FF44032 		mov	r2, #196608	@ tmp328,
1348:src/stm32f4_discovery_audio_codec.c ****     DMA_InitStructure.DMA_PeripheralInc = DMA_PeripheralInc_Disable;
 2513              		.loc 1 1348 0
 2514 03b4 5E61     		str	r6, [r3, #20]	@ counter, DMA_InitStructure.DMA_PeripheralInc
1359:src/stm32f4_discovery_audio_codec.c ****     DMA_InitStructure.DMA_Priority = DMA_Priority_VeryHigh;
 2515              		.loc 1 1359 0
 2516 03b6 9A62     		str	r2, [r3, #40]	@ tmp328, DMA_InitStructure.DMA_Priority
1360:src/stm32f4_discovery_audio_codec.c ****     DMA_InitStructure.DMA_FIFOMode = DMA_FIFOMode_Disable;         
 2517              		.loc 1 1360 0
 2518 03b8 DE62     		str	r6, [r3, #44]	@ counter, DMA_InitStructure.DMA_FIFOMode
1361:src/stm32f4_discovery_audio_codec.c ****     DMA_InitStructure.DMA_FIFOThreshold = DMA_FIFOThreshold_1QuarterFull;
 2519              		.loc 1 1361 0
 2520 03ba 1E63     		str	r6, [r3, #48]	@ counter, DMA_InitStructure.DMA_FIFOThreshold
1362:src/stm32f4_discovery_audio_codec.c ****     DMA_InitStructure.DMA_MemoryBurst = DMA_MemoryBurst_Single;
 2521              		.loc 1 1362 0
 2522 03bc 5E63     		str	r6, [r3, #52]	@ counter, DMA_InitStructure.DMA_MemoryBurst
1363:src/stm32f4_discovery_audio_codec.c ****     DMA_InitStructure.DMA_PeripheralBurst = DMA_PeripheralBurst_Single;  
 2523              		.loc 1 1363 0
 2524 03be 9E63     		str	r6, [r3, #56]	@ counter, DMA_InitStructure.DMA_PeripheralBurst
1364:src/stm32f4_discovery_audio_codec.c ****     DMA_Init(AUDIO_MAL_DMA_STREAM, &DMA_InitStructure);  
 2525              		.loc 1 1364 0
 2526 03c0 FFF7FEFF 		bl	DMA_Init	@
 2527              	.LVL240:
1368:src/stm32f4_discovery_audio_codec.c ****     DMA_ITConfig(AUDIO_MAL_DMA_STREAM, DMA_IT_TC, ENABLE);
 2528              		.loc 1 1368 0
 2529 03c4 3868     		ldr	r0, [r7, #0]	@, AUDIO_MAL_DMA_STREAM
 2530 03c6 1021     		movs	r1, #16	@,
 2531 03c8 2246     		mov	r2, r4	@, CurrAudioInterface.58
 2532 03ca FFF7FEFF 		bl	DMA_ITConfig	@
 2533              	.LVL241:
1371:src/stm32f4_discovery_audio_codec.c ****     DMA_ITConfig(AUDIO_MAL_DMA_STREAM, DMA_IT_HT, ENABLE);
 2534              		.loc 1 1371 0
 2535 03ce 3868     		ldr	r0, [r7, #0]	@, AUDIO_MAL_DMA_STREAM
 2536 03d0 0821     		movs	r1, #8	@,
 2537 03d2 2246     		mov	r2, r4	@, CurrAudioInterface.58
 2538 03d4 FFF7FEFF 		bl	DMA_ITConfig	@
 2539              	.LVL242:
1379:src/stm32f4_discovery_audio_codec.c ****     NVIC_InitStructure.NVIC_IRQChannel = AUDIO_MAL_DMA_IRQ;
 2540              		.loc 1 1379 0
 2541 03d8 0D4B     		ldr	r3, .L167+28	@ tmp344,
1380:src/stm32f4_discovery_audio_codec.c ****     NVIC_InitStructure.NVIC_IRQChannelPreemptionPriority = EVAL_AUDIO_IRQ_PREPRIO;
 2542              		.loc 1 1380 0
ARM GAS  C:\Users\CNous\AppData\Local\Temp\ccPT5vWC.s 			page 83


 2543 03da 8DF80560 		strb	r6, [sp, #5]	@ counter, NVIC_InitStructure.NVIC_IRQChannelPreemptionPriority
1379:src/stm32f4_discovery_audio_codec.c ****     NVIC_InitStructure.NVIC_IRQChannel = AUDIO_MAL_DMA_IRQ;
 2544              		.loc 1 1379 0
 2545 03de 1968     		ldr	r1, [r3, #0]	@ AUDIO_MAL_DMA_IRQ, AUDIO_MAL_DMA_IRQ
1381:src/stm32f4_discovery_audio_codec.c ****     NVIC_InitStructure.NVIC_IRQChannelSubPriority = EVAL_AUDIO_IRQ_SUBRIO;
 2546              		.loc 1 1381 0
 2547 03e0 8DF80660 		strb	r6, [sp, #6]	@ counter, NVIC_InitStructure.NVIC_IRQChannelSubPriority
1383:src/stm32f4_discovery_audio_codec.c ****     NVIC_Init(&NVIC_InitStructure);
 2548              		.loc 1 1383 0
 2549 03e4 01A8     		add	r0, sp, #4	@,,
1379:src/stm32f4_discovery_audio_codec.c ****     NVIC_InitStructure.NVIC_IRQChannel = AUDIO_MAL_DMA_IRQ;
 2550              		.loc 1 1379 0
 2551 03e6 8DF80410 		strb	r1, [sp, #4]	@ AUDIO_MAL_DMA_IRQ, NVIC_InitStructure.NVIC_IRQChannel
1382:src/stm32f4_discovery_audio_codec.c ****     NVIC_InitStructure.NVIC_IRQChannelCmd = ENABLE;
 2552              		.loc 1 1382 0
 2553 03ea 8DF80740 		strb	r4, [sp, #7]	@ CurrAudioInterface.58, NVIC_InitStructure.NVIC_IRQChannelCmd
1383:src/stm32f4_discovery_audio_codec.c ****     NVIC_Init(&NVIC_InitStructure);
 2554              		.loc 1 1383 0
 2555 03ee FFF7FEFF 		bl	NVIC_Init	@
 2556              	.LVL243:
 2557 03f2 51E7     		b	.L154	@
 2558              	.L168:
 2559              		.align	2
 2560              	.L167:
 2561 03f4 00000000 		.word	.LANCHOR5
 2562 03f8 00000000 		.word	.LANCHOR13
 2563 03fc 00000000 		.word	.LANCHOR6
 2564 0400 00000000 		.word	.LANCHOR1
 2565 0404 00000000 		.word	.LANCHOR8
 2566 0408 00000000 		.word	.LANCHOR7
 2567 040c 00000000 		.word	DMA_InitStructure
 2568 0410 00000000 		.word	.LANCHOR9
 2569              	.LBE141:
 2570              	.LBE143:
 2571              		.cfi_endproc
 2572              	.LFE111:
 2573              		.size	EVAL_AUDIO_Init, .-EVAL_AUDIO_Init
 2574              		.global	AUDIO_MAL_DMA_FLAG_DME
 2575              		.global	AUDIO_MAL_DMA_FLAG_TE
 2576              		.global	AUDIO_MAL_DMA_FLAG_FE
 2577              		.global	AUDIO_MAL_DMA_FLAG_HT
 2578              		.global	AUDIO_MAL_DMA_FLAG_TC
 2579              		.global	AUDIO_MAL_DMA_IRQ
 2580              		.global	AUDIO_MAL_DMA_CHANNEL
 2581              		.global	AUDIO_MAL_DMA_DREG
 2582              		.global	AUDIO_MAL_DMA_STREAM
 2583              		.global	AUDIO_MAL_DMA_CLOCK
 2584              		.global	CurrAudioInterface
 2585              		.global	OutputDev
 2586              		.global	CODECTimeout
 2587              		.comm	CurrentPos,4,4
 2588              		.global	AudioRemSize
 2589              		.global	AudioTotalSize
 2590              		.comm	AUDIO_MAL_DMA_InitStructure,60,4
 2591              		.comm	DMA_InitStructure,60,4
 2592              		.section	.data.AUDIO_MAL_DMA_FLAG_FE,"aw",%progbits
 2593              		.align	2
ARM GAS  C:\Users\CNous\AppData\Local\Temp\ccPT5vWC.s 			page 84


 2594              		.set	.LANCHOR10,. + 0
 2595              		.type	AUDIO_MAL_DMA_FLAG_FE, %object
 2596              		.size	AUDIO_MAL_DMA_FLAG_FE, 4
 2597              	AUDIO_MAL_DMA_FLAG_FE:
 2598 0000 00004020 		.word	541065216
 2599              		.section	.data.AUDIO_MAL_DMA_FLAG_DME,"aw",%progbits
 2600              		.align	2
 2601              		.set	.LANCHOR12,. + 0
 2602              		.type	AUDIO_MAL_DMA_FLAG_DME, %object
 2603              		.size	AUDIO_MAL_DMA_FLAG_DME, 4
 2604              	AUDIO_MAL_DMA_FLAG_DME:
 2605 0000 00000021 		.word	553648128
 2606              		.section	.data.AUDIO_MAL_DMA_FLAG_TC,"aw",%progbits
 2607              		.align	2
 2608              		.set	.LANCHOR2,. + 0
 2609              		.type	AUDIO_MAL_DMA_FLAG_TC, %object
 2610              		.size	AUDIO_MAL_DMA_FLAG_TC, 4
 2611              	AUDIO_MAL_DMA_FLAG_TC:
 2612 0000 00000028 		.word	671088640
 2613              		.section	.data.AUDIO_MAL_DMA_DREG,"aw",%progbits
 2614              		.align	2
 2615              		.set	.LANCHOR7,. + 0
 2616              		.type	AUDIO_MAL_DMA_DREG, %object
 2617              		.size	AUDIO_MAL_DMA_DREG, 4
 2618              	AUDIO_MAL_DMA_DREG:
 2619 0000 0C3C0040 		.word	1073757196
 2620              		.section	.data.AUDIO_MAL_DMA_FLAG_TE,"aw",%progbits
 2621              		.align	2
 2622              		.set	.LANCHOR11,. + 0
 2623              		.type	AUDIO_MAL_DMA_FLAG_TE, %object
 2624              		.size	AUDIO_MAL_DMA_FLAG_TE, 4
 2625              	AUDIO_MAL_DMA_FLAG_TE:
 2626 0000 00000022 		.word	570425344
 2627              		.section	.bss.AUDIO_MAL_DMA_CHANNEL,"aw",%nobits
 2628              		.align	2
 2629              		.set	.LANCHOR8,. + 0
 2630              		.type	AUDIO_MAL_DMA_CHANNEL, %object
 2631              		.size	AUDIO_MAL_DMA_CHANNEL, 4
 2632              	AUDIO_MAL_DMA_CHANNEL:
 2633 0000 00000000 		.space	4
 2634              		.section	.data.AUDIO_MAL_DMA_CLOCK,"aw",%progbits
 2635              		.align	2
 2636              		.set	.LANCHOR6,. + 0
 2637              		.type	AUDIO_MAL_DMA_CLOCK, %object
 2638              		.size	AUDIO_MAL_DMA_CLOCK, 4
 2639              	AUDIO_MAL_DMA_CLOCK:
 2640 0000 00002000 		.word	2097152
 2641              		.section	.data.AUDIO_MAL_DMA_STREAM,"aw",%progbits
 2642              		.align	2
 2643              		.set	.LANCHOR1,. + 0
 2644              		.type	AUDIO_MAL_DMA_STREAM, %object
 2645              		.size	AUDIO_MAL_DMA_STREAM, 4
 2646              	AUDIO_MAL_DMA_STREAM:
 2647 0000 B8600240 		.word	1073897656
 2648              		.section	.data.AudioRemSize,"aw",%progbits
 2649              		.align	2
 2650              		.set	.LANCHOR0,. + 0
ARM GAS  C:\Users\CNous\AppData\Local\Temp\ccPT5vWC.s 			page 85


 2651              		.type	AudioRemSize, %object
 2652              		.size	AudioRemSize, 4
 2653              	AudioRemSize:
 2654 0000 FFFF0000 		.word	65535
 2655              		.section	.data.AudioTotalSize,"aw",%progbits
 2656              		.align	2
 2657              		.set	.LANCHOR14,. + 0
 2658              		.type	AudioTotalSize, %object
 2659              		.size	AudioTotalSize, 4
 2660              	AudioTotalSize:
 2661 0000 FFFF0000 		.word	65535
 2662              		.section	.data.AUDIO_MAL_DMA_IRQ,"aw",%progbits
 2663              		.align	2
 2664              		.set	.LANCHOR9,. + 0
 2665              		.type	AUDIO_MAL_DMA_IRQ, %object
 2666              		.size	AUDIO_MAL_DMA_IRQ, 4
 2667              	AUDIO_MAL_DMA_IRQ:
 2668 0000 2F000000 		.word	47
 2669              		.section	.data.CurrAudioInterface,"aw",%progbits
 2670              		.align	2
 2671              		.set	.LANCHOR5,. + 0
 2672              		.type	CurrAudioInterface, %object
 2673              		.size	CurrAudioInterface, 4
 2674              	CurrAudioInterface:
 2675 0000 01000000 		.word	1
 2676              		.section	.data.AUDIO_MAL_DMA_FLAG_HT,"aw",%progbits
 2677              		.align	2
 2678              		.set	.LANCHOR3,. + 0
 2679              		.type	AUDIO_MAL_DMA_FLAG_HT, %object
 2680              		.size	AUDIO_MAL_DMA_FLAG_HT, 4
 2681              	AUDIO_MAL_DMA_FLAG_HT:
 2682 0000 00000024 		.word	603979776
 2683              		.section	.data.CODECTimeout,"aw",%progbits
 2684              		.align	2
 2685              		.set	.LANCHOR4,. + 0
 2686              		.type	CODECTimeout, %object
 2687              		.size	CODECTimeout, 4
 2688              	CODECTimeout:
 2689 0000 00C01200 		.word	1228800
 2690              		.section	.bss.OutputDev,"aw",%nobits
 2691              		.set	.LANCHOR13,. + 0
 2692              		.type	OutputDev, %object
 2693              		.size	OutputDev, 1
 2694              	OutputDev:
 2695 0000 00       		.space	1
 2696              		.text
 2697              	.Letext0:
 2698              		.file 2 "c:\\gnutoolsarmembedded\\4.7-2012q4\\bin\\../lib/gcc/arm-none-eabi/4.7.3/../../../../arm-
 2699              		.file 3 "./cmsis/device/stm32f4xx.h"
 2700              		.file 4 "./cmsis/device/stm32f4xx_dac.h"
 2701              		.file 5 "./cmsis/device/stm32f4xx_dma.h"
 2702              		.file 6 "./cmsis/device/stm32f4xx_gpio.h"
 2703              		.file 7 "./cmsis/device/stm32f4xx_i2c.h"
 2704              		.file 8 "./cmsis/device/stm32f4xx_spi.h"
 2705              		.file 9 "./cmsis/device/misc.h"
 2706              		.file 10 "./cmsis/core/core_cm4.h"
 2707              		.file 11 "./inc/stm32f4_discovery_audio_codec.h"
ARM GAS  C:\Users\CNous\AppData\Local\Temp\ccPT5vWC.s 			page 86


 2708              		.file 12 "./cmsis/device/stm32f4xx_rcc.h"
 2709              		.section	.debug_info,"",%progbits
 2710              	.Ldebug_info0:
 2711 0000 C8230000 		.4byte	0x23c8
 2712 0004 0200     		.2byte	0x2
 2713 0006 00000000 		.4byte	.Ldebug_abbrev0
 2714 000a 04       		.byte	0x4
 2715 000b 01       		.uleb128 0x1
 2716 000c 74110000 		.4byte	.LASF323
 2717 0010 01       		.byte	0x1
 2718 0011 20060000 		.4byte	.LASF324
 2719 0015 D60C0000 		.4byte	.LASF325
 2720 0019 80030000 		.4byte	.Ldebug_ranges0+0x380
 2721 001d 00000000 		.4byte	0
 2722 0021 00000000 		.4byte	0
 2723 0025 00000000 		.4byte	.Ldebug_line0
 2724 0029 02       		.uleb128 0x2
 2725 002a 8A020000 		.4byte	.LASF326
 2726 002e 01       		.byte	0x1
 2727 002f 03       		.byte	0x3
 2728 0030 8C       		.byte	0x8c
 2729 0031 64020000 		.4byte	0x264
 2730 0035 03       		.uleb128 0x3
 2731 0036 97070000 		.4byte	.LASF0
 2732 003a 72       		.sleb128 -14
 2733 003b 03       		.uleb128 0x3
 2734 003c E8070000 		.4byte	.LASF1
 2735 0040 74       		.sleb128 -12
 2736 0041 03       		.uleb128 0x3
 2737 0042 EE080000 		.4byte	.LASF2
 2738 0046 75       		.sleb128 -11
 2739 0047 03       		.uleb128 0x3
 2740 0048 B7040000 		.4byte	.LASF3
 2741 004c 76       		.sleb128 -10
 2742 004d 03       		.uleb128 0x3
 2743 004e DC090000 		.4byte	.LASF4
 2744 0052 7B       		.sleb128 -5
 2745 0053 03       		.uleb128 0x3
 2746 0054 FA0E0000 		.4byte	.LASF5
 2747 0058 7C       		.sleb128 -4
 2748 0059 03       		.uleb128 0x3
 2749 005a C8110000 		.4byte	.LASF6
 2750 005e 7E       		.sleb128 -2
 2751 005f 03       		.uleb128 0x3
 2752 0060 C1020000 		.4byte	.LASF7
 2753 0064 7F       		.sleb128 -1
 2754 0065 03       		.uleb128 0x3
 2755 0066 AB070000 		.4byte	.LASF8
 2756 006a 00       		.sleb128 0
 2757 006b 03       		.uleb128 0x3
 2758 006c 3D0E0000 		.4byte	.LASF9
 2759 0070 01       		.sleb128 1
 2760 0071 03       		.uleb128 0x3
 2761 0072 10080000 		.4byte	.LASF10
 2762 0076 02       		.sleb128 2
 2763 0077 03       		.uleb128 0x3
 2764 0078 10000000 		.4byte	.LASF11
ARM GAS  C:\Users\CNous\AppData\Local\Temp\ccPT5vWC.s 			page 87


 2765 007c 03       		.sleb128 3
 2766 007d 03       		.uleb128 0x3
 2767 007e EB000000 		.4byte	.LASF12
 2768 0082 04       		.sleb128 4
 2769 0083 03       		.uleb128 0x3
 2770 0084 730F0000 		.4byte	.LASF13
 2771 0088 05       		.sleb128 5
 2772 0089 03       		.uleb128 0x3
 2773 008a 6A0E0000 		.4byte	.LASF14
 2774 008e 06       		.sleb128 6
 2775 008f 03       		.uleb128 0x3
 2776 0090 14070000 		.4byte	.LASF15
 2777 0094 07       		.sleb128 7
 2778 0095 03       		.uleb128 0x3
 2779 0096 1E000000 		.4byte	.LASF16
 2780 009a 08       		.sleb128 8
 2781 009b 03       		.uleb128 0x3
 2782 009c BD110000 		.4byte	.LASF17
 2783 00a0 09       		.sleb128 9
 2784 00a1 03       		.uleb128 0x3
 2785 00a2 7D0A0000 		.4byte	.LASF18
 2786 00a6 0A       		.sleb128 10
 2787 00a7 03       		.uleb128 0x3
 2788 00a8 410C0000 		.4byte	.LASF19
 2789 00ac 0B       		.sleb128 11
 2790 00ad 03       		.uleb128 0x3
 2791 00ae 5A0B0000 		.4byte	.LASF20
 2792 00b2 0C       		.sleb128 12
 2793 00b3 03       		.uleb128 0x3
 2794 00b4 69030000 		.4byte	.LASF21
 2795 00b8 0D       		.sleb128 13
 2796 00b9 03       		.uleb128 0x3
 2797 00ba 8B0F0000 		.4byte	.LASF22
 2798 00be 0E       		.sleb128 14
 2799 00bf 03       		.uleb128 0x3
 2800 00c0 920E0000 		.4byte	.LASF23
 2801 00c4 0F       		.sleb128 15
 2802 00c5 03       		.uleb128 0x3
 2803 00c6 2C070000 		.4byte	.LASF24
 2804 00ca 10       		.sleb128 16
 2805 00cb 03       		.uleb128 0x3
 2806 00cc 29000000 		.4byte	.LASF25
 2807 00d0 11       		.sleb128 17
 2808 00d1 03       		.uleb128 0x3
 2809 00d2 D80D0000 		.4byte	.LASF26
 2810 00d6 12       		.sleb128 18
 2811 00d7 03       		.uleb128 0x3
 2812 00d8 1F070000 		.4byte	.LASF27
 2813 00dc 13       		.sleb128 19
 2814 00dd 03       		.uleb128 0x3
 2815 00de 24050000 		.4byte	.LASF28
 2816 00e2 14       		.sleb128 20
 2817 00e3 03       		.uleb128 0x3
 2818 00e4 D8100000 		.4byte	.LASF29
 2819 00e8 15       		.sleb128 21
 2820 00e9 03       		.uleb128 0x3
 2821 00ea 20080000 		.4byte	.LASF30
ARM GAS  C:\Users\CNous\AppData\Local\Temp\ccPT5vWC.s 			page 88


 2822 00ee 16       		.sleb128 22
 2823 00ef 03       		.uleb128 0x3
 2824 00f0 02110000 		.4byte	.LASF31
 2825 00f4 17       		.sleb128 23
 2826 00f5 03       		.uleb128 0x3
 2827 00f6 07090000 		.4byte	.LASF32
 2828 00fa 18       		.sleb128 24
 2829 00fb 03       		.uleb128 0x3
 2830 00fc 01100000 		.4byte	.LASF33
 2831 0100 19       		.sleb128 25
 2832 0101 03       		.uleb128 0x3
 2833 0102 8F020000 		.4byte	.LASF34
 2834 0106 1A       		.sleb128 26
 2835 0107 03       		.uleb128 0x3
 2836 0108 EF060000 		.4byte	.LASF35
 2837 010c 1B       		.sleb128 27
 2838 010d 03       		.uleb128 0x3
 2839 010e 1B010000 		.4byte	.LASF36
 2840 0112 1C       		.sleb128 28
 2841 0113 03       		.uleb128 0x3
 2842 0114 590D0000 		.4byte	.LASF37
 2843 0118 1D       		.sleb128 29
 2844 0119 03       		.uleb128 0x3
 2845 011a B0050000 		.4byte	.LASF38
 2846 011e 1E       		.sleb128 30
 2847 011f 03       		.uleb128 0x3
 2848 0120 44060000 		.4byte	.LASF39
 2849 0124 1F       		.sleb128 31
 2850 0125 03       		.uleb128 0x3
 2851 0126 4D040000 		.4byte	.LASF40
 2852 012a 20       		.sleb128 32
 2853 012b 03       		.uleb128 0x3
 2854 012c E90A0000 		.4byte	.LASF41
 2855 0130 21       		.sleb128 33
 2856 0131 03       		.uleb128 0x3
 2857 0132 AD080000 		.4byte	.LASF42
 2858 0136 22       		.sleb128 34
 2859 0137 03       		.uleb128 0x3
 2860 0138 BE090000 		.4byte	.LASF43
 2861 013c 23       		.sleb128 35
 2862 013d 03       		.uleb128 0x3
 2863 013e C4010000 		.4byte	.LASF44
 2864 0142 24       		.sleb128 36
 2865 0143 03       		.uleb128 0x3
 2866 0144 630D0000 		.4byte	.LASF45
 2867 0148 25       		.sleb128 37
 2868 0149 03       		.uleb128 0x3
 2869 014a BA050000 		.4byte	.LASF46
 2870 014e 26       		.sleb128 38
 2871 014f 03       		.uleb128 0x3
 2872 0150 CE020000 		.4byte	.LASF47
 2873 0154 27       		.sleb128 39
 2874 0155 03       		.uleb128 0x3
 2875 0156 050D0000 		.4byte	.LASF48
 2876 015a 28       		.sleb128 40
 2877 015b 03       		.uleb128 0x3
 2878 015c 840C0000 		.4byte	.LASF49
ARM GAS  C:\Users\CNous\AppData\Local\Temp\ccPT5vWC.s 			page 89


 2879 0160 29       		.sleb128 41
 2880 0161 03       		.uleb128 0x3
 2881 0162 5A0A0000 		.4byte	.LASF50
 2882 0166 2A       		.sleb128 42
 2883 0167 03       		.uleb128 0x3
 2884 0168 CE010000 		.4byte	.LASF51
 2885 016c 2B       		.sleb128 43
 2886 016d 03       		.uleb128 0x3
 2887 016e 3B000000 		.4byte	.LASF52
 2888 0172 2C       		.sleb128 44
 2889 0173 03       		.uleb128 0x3
 2890 0174 59070000 		.4byte	.LASF53
 2891 0178 2D       		.sleb128 45
 2892 0179 03       		.uleb128 0x3
 2893 017a 53110000 		.4byte	.LASF54
 2894 017e 2E       		.sleb128 46
 2895 017f 03       		.uleb128 0x3
 2896 0180 F9110000 		.4byte	.LASF55
 2897 0184 2F       		.sleb128 47
 2898 0185 03       		.uleb128 0x3
 2899 0186 600E0000 		.4byte	.LASF56
 2900 018a 30       		.sleb128 48
 2901 018b 03       		.uleb128 0x3
 2902 018c 60110000 		.4byte	.LASF57
 2903 0190 31       		.sleb128 49
 2904 0191 03       		.uleb128 0x3
 2905 0192 AD040000 		.4byte	.LASF58
 2906 0196 32       		.sleb128 50
 2907 0197 03       		.uleb128 0x3
 2908 0198 E1000000 		.4byte	.LASF59
 2909 019c 33       		.sleb128 51
 2910 019d 03       		.uleb128 0x3
 2911 019e 200A0000 		.4byte	.LASF60
 2912 01a2 34       		.sleb128 52
 2913 01a3 03       		.uleb128 0x3
 2914 01a4 FC080000 		.4byte	.LASF61
 2915 01a8 35       		.sleb128 53
 2916 01a9 03       		.uleb128 0x3
 2917 01aa 880A0000 		.4byte	.LASF62
 2918 01ae 36       		.sleb128 54
 2919 01af 03       		.uleb128 0x3
 2920 01b0 34090000 		.4byte	.LASF63
 2921 01b4 37       		.sleb128 55
 2922 01b5 03       		.uleb128 0x3
 2923 01b6 3B080000 		.4byte	.LASF64
 2924 01ba 38       		.sleb128 56
 2925 01bb 03       		.uleb128 0x3
 2926 01bc B8000000 		.4byte	.LASF65
 2927 01c0 39       		.sleb128 57
 2928 01c1 03       		.uleb128 0x3
 2929 01c2 AE120000 		.4byte	.LASF66
 2930 01c6 3A       		.sleb128 58
 2931 01c7 03       		.uleb128 0x3
 2932 01c8 6C0B0000 		.4byte	.LASF67
 2933 01cc 3B       		.sleb128 59
 2934 01cd 03       		.uleb128 0x3
 2935 01ce C2030000 		.4byte	.LASF68
ARM GAS  C:\Users\CNous\AppData\Local\Temp\ccPT5vWC.s 			page 90


 2936 01d2 3C       		.sleb128 60
 2937 01d3 03       		.uleb128 0x3
 2938 01d4 530F0000 		.4byte	.LASF69
 2939 01d8 3D       		.sleb128 61
 2940 01d9 03       		.uleb128 0x3
 2941 01da 53090000 		.4byte	.LASF70
 2942 01de 3E       		.sleb128 62
 2943 01df 03       		.uleb128 0x3
 2944 01e0 8C0B0000 		.4byte	.LASF71
 2945 01e4 3F       		.sleb128 63
 2946 01e5 03       		.uleb128 0x3
 2947 01e6 9A010000 		.4byte	.LASF72
 2948 01ea C000     		.sleb128 64
 2949 01ec 03       		.uleb128 0x3
 2950 01ed CA0D0000 		.4byte	.LASF73
 2951 01f1 C100     		.sleb128 65
 2952 01f3 03       		.uleb128 0x3
 2953 01f4 70040000 		.4byte	.LASF74
 2954 01f8 C200     		.sleb128 66
 2955 01fa 03       		.uleb128 0x3
 2956 01fb 8B070000 		.4byte	.LASF75
 2957 01ff C300     		.sleb128 67
 2958 0201 03       		.uleb128 0x3
 2959 0202 54020000 		.4byte	.LASF76
 2960 0206 C400     		.sleb128 68
 2961 0208 03       		.uleb128 0x3
 2962 0209 B80E0000 		.4byte	.LASF77
 2963 020d C500     		.sleb128 69
 2964 020f 03       		.uleb128 0x3
 2965 0210 71070000 		.4byte	.LASF78
 2966 0214 C600     		.sleb128 70
 2967 0216 03       		.uleb128 0x3
 2968 0217 A8010000 		.4byte	.LASF79
 2969 021b C700     		.sleb128 71
 2970 021d 03       		.uleb128 0x3
 2971 021e 150F0000 		.4byte	.LASF80
 2972 0222 C800     		.sleb128 72
 2973 0224 03       		.uleb128 0x3
 2974 0225 C90C0000 		.4byte	.LASF81
 2975 0229 C900     		.sleb128 73
 2976 022b 03       		.uleb128 0x3
 2977 022c 53100000 		.4byte	.LASF82
 2978 0230 CA00     		.sleb128 74
 2979 0232 03       		.uleb128 0x3
 2980 0233 E6110000 		.4byte	.LASF83
 2981 0237 CB00     		.sleb128 75
 2982 0239 03       		.uleb128 0x3
 2983 023a BF070000 		.4byte	.LASF84
 2984 023e CC00     		.sleb128 76
 2985 0240 03       		.uleb128 0x3
 2986 0241 69090000 		.4byte	.LASF85
 2987 0245 CD00     		.sleb128 77
 2988 0247 03       		.uleb128 0x3
 2989 0248 F6000000 		.4byte	.LASF86
 2990 024c CE00     		.sleb128 78
 2991 024e 03       		.uleb128 0x3
 2992 024f FB0C0000 		.4byte	.LASF87
ARM GAS  C:\Users\CNous\AppData\Local\Temp\ccPT5vWC.s 			page 91


 2993 0253 CF00     		.sleb128 79
 2994 0255 03       		.uleb128 0x3
 2995 0256 FC060000 		.4byte	.LASF88
 2996 025a D000     		.sleb128 80
 2997 025c 03       		.uleb128 0x3
 2998 025d 0A0A0000 		.4byte	.LASF89
 2999 0261 D100     		.sleb128 81
 3000 0263 00       		.byte	0
 3001 0264 04       		.uleb128 0x4
 3002 0265 01       		.byte	0x1
 3003 0266 06       		.byte	0x6
 3004 0267 01030000 		.4byte	.LASF90
 3005 026b 05       		.uleb128 0x5
 3006 026c 22030000 		.4byte	.LASF93
 3007 0270 02       		.byte	0x2
 3008 0271 2A       		.byte	0x2a
 3009 0272 76020000 		.4byte	0x276
 3010 0276 04       		.uleb128 0x4
 3011 0277 01       		.byte	0x1
 3012 0278 08       		.byte	0x8
 3013 0279 B4030000 		.4byte	.LASF91
 3014 027d 04       		.uleb128 0x4
 3015 027e 02       		.byte	0x2
 3016 027f 05       		.byte	0x5
 3017 0280 5C0F0000 		.4byte	.LASF92
 3018 0284 05       		.uleb128 0x5
 3019 0285 2B0D0000 		.4byte	.LASF94
 3020 0289 02       		.byte	0x2
 3021 028a 36       		.byte	0x36
 3022 028b 8F020000 		.4byte	0x28f
 3023 028f 04       		.uleb128 0x4
 3024 0290 02       		.byte	0x2
 3025 0291 07       		.byte	0x7
 3026 0292 40110000 		.4byte	.LASF95
 3027 0296 05       		.uleb128 0x5
 3028 0297 8F000000 		.4byte	.LASF96
 3029 029b 02       		.byte	0x2
 3030 029c 4F       		.byte	0x4f
 3031 029d A1020000 		.4byte	0x2a1
 3032 02a1 04       		.uleb128 0x4
 3033 02a2 04       		.byte	0x4
 3034 02a3 05       		.byte	0x5
 3035 02a4 12020000 		.4byte	.LASF97
 3036 02a8 05       		.uleb128 0x5
 3037 02a9 C3100000 		.4byte	.LASF98
 3038 02ad 02       		.byte	0x2
 3039 02ae 50       		.byte	0x50
 3040 02af B3020000 		.4byte	0x2b3
 3041 02b3 04       		.uleb128 0x4
 3042 02b4 04       		.byte	0x4
 3043 02b5 07       		.byte	0x7
 3044 02b6 470D0000 		.4byte	.LASF99
 3045 02ba 04       		.uleb128 0x4
 3046 02bb 08       		.byte	0x8
 3047 02bc 05       		.byte	0x5
 3048 02bd 3E090000 		.4byte	.LASF100
 3049 02c1 04       		.uleb128 0x4
ARM GAS  C:\Users\CNous\AppData\Local\Temp\ccPT5vWC.s 			page 92


 3050 02c2 08       		.byte	0x8
 3051 02c3 07       		.byte	0x7
 3052 02c4 140D0000 		.4byte	.LASF101
 3053 02c8 06       		.uleb128 0x6
 3054 02c9 04       		.byte	0x4
 3055 02ca 05       		.byte	0x5
 3056 02cb 696E7400 		.ascii	"int\000"
 3057 02cf 04       		.uleb128 0x4
 3058 02d0 04       		.byte	0x4
 3059 02d1 07       		.byte	0x7
 3060 02d2 F60A0000 		.4byte	.LASF102
 3061 02d6 04       		.uleb128 0x4
 3062 02d7 04       		.byte	0x4
 3063 02d8 07       		.byte	0x7
 3064 02d9 4E000000 		.4byte	.LASF103
 3065 02dd 07       		.uleb128 0x7
 3066 02de A8020000 		.4byte	0x2a8
 3067 02e2 08       		.uleb128 0x8
 3068 02e3 A8020000 		.4byte	0x2a8
 3069 02e7 F2020000 		.4byte	0x2f2
 3070 02eb 09       		.uleb128 0x9
 3071 02ec D6020000 		.4byte	0x2d6
 3072 02f0 01       		.byte	0x1
 3073 02f1 00       		.byte	0
 3074 02f2 07       		.uleb128 0x7
 3075 02f3 6B020000 		.4byte	0x26b
 3076 02f7 07       		.uleb128 0x7
 3077 02f8 84020000 		.4byte	0x284
 3078 02fc 07       		.uleb128 0x7
 3079 02fd 96020000 		.4byte	0x296
 3080 0301 0A       		.uleb128 0xa
 3081 0302 01       		.byte	0x1
 3082 0303 03       		.byte	0x3
 3083 0304 1801     		.2byte	0x118
 3084 0306 17030000 		.4byte	0x317
 3085 030a 03       		.uleb128 0x3
 3086 030b 2F0E0000 		.4byte	.LASF104
 3087 030f 00       		.sleb128 0
 3088 0310 0B       		.uleb128 0xb
 3089 0311 53455400 		.ascii	"SET\000"
 3090 0315 01       		.sleb128 1
 3091 0316 00       		.byte	0
 3092 0317 0C       		.uleb128 0xc
 3093 0318 810E0000 		.4byte	.LASF105
 3094 031c 03       		.byte	0x3
 3095 031d 1801     		.2byte	0x118
 3096 031f 01030000 		.4byte	0x301
 3097 0323 0A       		.uleb128 0xa
 3098 0324 01       		.byte	0x1
 3099 0325 03       		.byte	0x3
 3100 0326 1A01     		.2byte	0x11a
 3101 0328 39030000 		.4byte	0x339
 3102 032c 03       		.uleb128 0x3
 3103 032d F20B0000 		.4byte	.LASF106
 3104 0331 00       		.sleb128 0
 3105 0332 03       		.uleb128 0x3
 3106 0333 9D0F0000 		.4byte	.LASF107
ARM GAS  C:\Users\CNous\AppData\Local\Temp\ccPT5vWC.s 			page 93


 3107 0337 01       		.sleb128 1
 3108 0338 00       		.byte	0
 3109 0339 0C       		.uleb128 0xc
 3110 033a B90C0000 		.4byte	.LASF108
 3111 033e 03       		.byte	0x3
 3112 033f 1A01     		.2byte	0x11a
 3113 0341 23030000 		.4byte	0x323
 3114 0345 0A       		.uleb128 0xa
 3115 0346 01       		.byte	0x1
 3116 0347 03       		.byte	0x3
 3117 0348 1D01     		.2byte	0x11d
 3118 034a 5B030000 		.4byte	0x35b
 3119 034e 03       		.uleb128 0x3
 3120 034f 80080000 		.4byte	.LASF109
 3121 0353 00       		.sleb128 0
 3122 0354 03       		.uleb128 0x3
 3123 0355 A70D0000 		.4byte	.LASF110
 3124 0359 01       		.sleb128 1
 3125 035a 00       		.byte	0
 3126 035b 0C       		.uleb128 0xc
 3127 035c 1C0C0000 		.4byte	.LASF111
 3128 0360 03       		.byte	0x3
 3129 0361 1D01     		.2byte	0x11d
 3130 0363 45030000 		.4byte	0x345
 3131 0367 0D       		.uleb128 0xd
 3132 0368 18       		.byte	0x18
 3133 0369 03       		.byte	0x3
 3134 036a D201     		.2byte	0x1d2
 3135 036c CA030000 		.4byte	0x3ca
 3136 0370 0E       		.uleb128 0xe
 3137 0371 435200   		.ascii	"CR\000"
 3138 0374 03       		.byte	0x3
 3139 0375 D401     		.2byte	0x1d4
 3140 0377 DD020000 		.4byte	0x2dd
 3141 037b 02       		.byte	0x2
 3142 037c 23       		.byte	0x23
 3143 037d 00       		.uleb128 0
 3144 037e 0F       		.uleb128 0xf
 3145 037f 2D120000 		.4byte	.LASF112
 3146 0383 03       		.byte	0x3
 3147 0384 D501     		.2byte	0x1d5
 3148 0386 DD020000 		.4byte	0x2dd
 3149 038a 02       		.byte	0x2
 3150 038b 23       		.byte	0x23
 3151 038c 04       		.uleb128 0x4
 3152 038d 0E       		.uleb128 0xe
 3153 038e 50415200 		.ascii	"PAR\000"
 3154 0392 03       		.byte	0x3
 3155 0393 D601     		.2byte	0x1d6
 3156 0395 DD020000 		.4byte	0x2dd
 3157 0399 02       		.byte	0x2
 3158 039a 23       		.byte	0x23
 3159 039b 08       		.uleb128 0x8
 3160 039c 0F       		.uleb128 0xf
 3161 039d 4E0F0000 		.4byte	.LASF113
 3162 03a1 03       		.byte	0x3
 3163 03a2 D701     		.2byte	0x1d7
ARM GAS  C:\Users\CNous\AppData\Local\Temp\ccPT5vWC.s 			page 94


 3164 03a4 DD020000 		.4byte	0x2dd
 3165 03a8 02       		.byte	0x2
 3166 03a9 23       		.byte	0x23
 3167 03aa 0C       		.uleb128 0xc
 3168 03ab 0F       		.uleb128 0xf
 3169 03ac 00000000 		.4byte	.LASF114
 3170 03b0 03       		.byte	0x3
 3171 03b1 D801     		.2byte	0x1d8
 3172 03b3 DD020000 		.4byte	0x2dd
 3173 03b7 02       		.byte	0x2
 3174 03b8 23       		.byte	0x23
 3175 03b9 10       		.uleb128 0x10
 3176 03ba 0E       		.uleb128 0xe
 3177 03bb 46435200 		.ascii	"FCR\000"
 3178 03bf 03       		.byte	0x3
 3179 03c0 D901     		.2byte	0x1d9
 3180 03c2 DD020000 		.4byte	0x2dd
 3181 03c6 02       		.byte	0x2
 3182 03c7 23       		.byte	0x23
 3183 03c8 14       		.uleb128 0x14
 3184 03c9 00       		.byte	0
 3185 03ca 0C       		.uleb128 0xc
 3186 03cb 990B0000 		.4byte	.LASF115
 3187 03cf 03       		.byte	0x3
 3188 03d0 DA01     		.2byte	0x1da
 3189 03d2 67030000 		.4byte	0x367
 3190 03d6 0D       		.uleb128 0xd
 3191 03d7 28       		.byte	0x28
 3192 03d8 03       		.byte	0x3
 3193 03d9 8902     		.2byte	0x289
 3194 03db 76040000 		.4byte	0x476
 3195 03df 0F       		.uleb128 0xf
 3196 03e0 D2100000 		.4byte	.LASF116
 3197 03e4 03       		.byte	0x3
 3198 03e5 8B02     		.2byte	0x28b
 3199 03e7 DD020000 		.4byte	0x2dd
 3200 03eb 02       		.byte	0x2
 3201 03ec 23       		.byte	0x23
 3202 03ed 00       		.uleb128 0
 3203 03ee 0F       		.uleb128 0xf
 3204 03ef 460E0000 		.4byte	.LASF117
 3205 03f3 03       		.byte	0x3
 3206 03f4 8C02     		.2byte	0x28c
 3207 03f6 DD020000 		.4byte	0x2dd
 3208 03fa 02       		.byte	0x2
 3209 03fb 23       		.byte	0x23
 3210 03fc 04       		.uleb128 0x4
 3211 03fd 0F       		.uleb128 0xf
 3212 03fe E6080000 		.4byte	.LASF118
 3213 0402 03       		.byte	0x3
 3214 0403 8D02     		.2byte	0x28d
 3215 0405 DD020000 		.4byte	0x2dd
 3216 0409 02       		.byte	0x2
 3217 040a 23       		.byte	0x23
 3218 040b 08       		.uleb128 0x8
 3219 040c 0F       		.uleb128 0xf
 3220 040d 97090000 		.4byte	.LASF119
ARM GAS  C:\Users\CNous\AppData\Local\Temp\ccPT5vWC.s 			page 95


 3221 0411 03       		.byte	0x3
 3222 0412 8E02     		.2byte	0x28e
 3223 0414 DD020000 		.4byte	0x2dd
 3224 0418 02       		.byte	0x2
 3225 0419 23       		.byte	0x23
 3226 041a 0C       		.uleb128 0xc
 3227 041b 0E       		.uleb128 0xe
 3228 041c 49445200 		.ascii	"IDR\000"
 3229 0420 03       		.byte	0x3
 3230 0421 8F02     		.2byte	0x28f
 3231 0423 DD020000 		.4byte	0x2dd
 3232 0427 02       		.byte	0x2
 3233 0428 23       		.byte	0x23
 3234 0429 10       		.uleb128 0x10
 3235 042a 0E       		.uleb128 0xe
 3236 042b 4F445200 		.ascii	"ODR\000"
 3237 042f 03       		.byte	0x3
 3238 0430 9002     		.2byte	0x290
 3239 0432 DD020000 		.4byte	0x2dd
 3240 0436 02       		.byte	0x2
 3241 0437 23       		.byte	0x23
 3242 0438 14       		.uleb128 0x14
 3243 0439 0F       		.uleb128 0xf
 3244 043a 040A0000 		.4byte	.LASF120
 3245 043e 03       		.byte	0x3
 3246 043f 9102     		.2byte	0x291
 3247 0441 F7020000 		.4byte	0x2f7
 3248 0445 02       		.byte	0x2
 3249 0446 23       		.byte	0x23
 3250 0447 18       		.uleb128 0x18
 3251 0448 0F       		.uleb128 0xf
 3252 0449 FE090000 		.4byte	.LASF121
 3253 044d 03       		.byte	0x3
 3254 044e 9202     		.2byte	0x292
 3255 0450 F7020000 		.4byte	0x2f7
 3256 0454 02       		.byte	0x2
 3257 0455 23       		.byte	0x23
 3258 0456 1A       		.uleb128 0x1a
 3259 0457 0F       		.uleb128 0xf
 3260 0458 7B080000 		.4byte	.LASF122
 3261 045c 03       		.byte	0x3
 3262 045d 9302     		.2byte	0x293
 3263 045f DD020000 		.4byte	0x2dd
 3264 0463 02       		.byte	0x2
 3265 0464 23       		.byte	0x23
 3266 0465 1C       		.uleb128 0x1c
 3267 0466 0E       		.uleb128 0xe
 3268 0467 41465200 		.ascii	"AFR\000"
 3269 046b 03       		.byte	0x3
 3270 046c 9402     		.2byte	0x294
 3271 046e 76040000 		.4byte	0x476
 3272 0472 02       		.byte	0x2
 3273 0473 23       		.byte	0x23
 3274 0474 20       		.uleb128 0x20
 3275 0475 00       		.byte	0
 3276 0476 07       		.uleb128 0x7
 3277 0477 E2020000 		.4byte	0x2e2
ARM GAS  C:\Users\CNous\AppData\Local\Temp\ccPT5vWC.s 			page 96


 3278 047b 0C       		.uleb128 0xc
 3279 047c F40F0000 		.4byte	.LASF123
 3280 0480 03       		.byte	0x3
 3281 0481 9502     		.2byte	0x295
 3282 0483 D6030000 		.4byte	0x3d6
 3283 0487 0D       		.uleb128 0xd
 3284 0488 24       		.byte	0x24
 3285 0489 03       		.byte	0x3
 3286 048a A802     		.2byte	0x2a8
 3287 048c 9E050000 		.4byte	0x59e
 3288 0490 0E       		.uleb128 0xe
 3289 0491 43523100 		.ascii	"CR1\000"
 3290 0495 03       		.byte	0x3
 3291 0496 AA02     		.2byte	0x2aa
 3292 0498 F7020000 		.4byte	0x2f7
 3293 049c 02       		.byte	0x2
 3294 049d 23       		.byte	0x23
 3295 049e 00       		.uleb128 0
 3296 049f 0F       		.uleb128 0xf
 3297 04a0 A0030000 		.4byte	.LASF124
 3298 04a4 03       		.byte	0x3
 3299 04a5 AB02     		.2byte	0x2ab
 3300 04a7 84020000 		.4byte	0x284
 3301 04ab 02       		.byte	0x2
 3302 04ac 23       		.byte	0x23
 3303 04ad 02       		.uleb128 0x2
 3304 04ae 0E       		.uleb128 0xe
 3305 04af 43523200 		.ascii	"CR2\000"
 3306 04b3 03       		.byte	0x3
 3307 04b4 AC02     		.2byte	0x2ac
 3308 04b6 F7020000 		.4byte	0x2f7
 3309 04ba 02       		.byte	0x2
 3310 04bb 23       		.byte	0x23
 3311 04bc 04       		.uleb128 0x4
 3312 04bd 0F       		.uleb128 0xf
 3313 04be AA030000 		.4byte	.LASF125
 3314 04c2 03       		.byte	0x3
 3315 04c3 AD02     		.2byte	0x2ad
 3316 04c5 84020000 		.4byte	0x284
 3317 04c9 02       		.byte	0x2
 3318 04ca 23       		.byte	0x23
 3319 04cb 06       		.uleb128 0x6
 3320 04cc 0F       		.uleb128 0xf
 3321 04cd A40E0000 		.4byte	.LASF126
 3322 04d1 03       		.byte	0x3
 3323 04d2 AE02     		.2byte	0x2ae
 3324 04d4 F7020000 		.4byte	0x2f7
 3325 04d8 02       		.byte	0x2
 3326 04d9 23       		.byte	0x23
 3327 04da 08       		.uleb128 0x8
 3328 04db 0F       		.uleb128 0xf
 3329 04dc 99040000 		.4byte	.LASF127
 3330 04e0 03       		.byte	0x3
 3331 04e1 AF02     		.2byte	0x2af
 3332 04e3 84020000 		.4byte	0x284
 3333 04e7 02       		.byte	0x2
 3334 04e8 23       		.byte	0x23
ARM GAS  C:\Users\CNous\AppData\Local\Temp\ccPT5vWC.s 			page 97


 3335 04e9 0A       		.uleb128 0xa
 3336 04ea 0F       		.uleb128 0xf
 3337 04eb A90E0000 		.4byte	.LASF128
 3338 04ef 03       		.byte	0x3
 3339 04f0 B002     		.2byte	0x2b0
 3340 04f2 F7020000 		.4byte	0x2f7
 3341 04f6 02       		.byte	0x2
 3342 04f7 23       		.byte	0x23
 3343 04f8 0C       		.uleb128 0xc
 3344 04f9 0F       		.uleb128 0xf
 3345 04fa A3040000 		.4byte	.LASF129
 3346 04fe 03       		.byte	0x3
 3347 04ff B102     		.2byte	0x2b1
 3348 0501 84020000 		.4byte	0x284
 3349 0505 02       		.byte	0x2
 3350 0506 23       		.byte	0x23
 3351 0507 0E       		.uleb128 0xe
 3352 0508 0E       		.uleb128 0xe
 3353 0509 445200   		.ascii	"DR\000"
 3354 050c 03       		.byte	0x3
 3355 050d B202     		.2byte	0x2b2
 3356 050f F7020000 		.4byte	0x2f7
 3357 0513 02       		.byte	0x2
 3358 0514 23       		.byte	0x23
 3359 0515 10       		.uleb128 0x10
 3360 0516 0F       		.uleb128 0xf
 3361 0517 D4030000 		.4byte	.LASF130
 3362 051b 03       		.byte	0x3
 3363 051c B302     		.2byte	0x2b3
 3364 051e 84020000 		.4byte	0x284
 3365 0522 02       		.byte	0x2
 3366 0523 23       		.byte	0x23
 3367 0524 12       		.uleb128 0x12
 3368 0525 0E       		.uleb128 0xe
 3369 0526 53523100 		.ascii	"SR1\000"
 3370 052a 03       		.byte	0x3
 3371 052b B402     		.2byte	0x2b4
 3372 052d F7020000 		.4byte	0x2f7
 3373 0531 02       		.byte	0x2
 3374 0532 23       		.byte	0x23
 3375 0533 14       		.uleb128 0x14
 3376 0534 0F       		.uleb128 0xf
 3377 0535 DE030000 		.4byte	.LASF131
 3378 0539 03       		.byte	0x3
 3379 053a B502     		.2byte	0x2b5
 3380 053c 84020000 		.4byte	0x284
 3381 0540 02       		.byte	0x2
 3382 0541 23       		.byte	0x23
 3383 0542 16       		.uleb128 0x16
 3384 0543 0E       		.uleb128 0xe
 3385 0544 53523200 		.ascii	"SR2\000"
 3386 0548 03       		.byte	0x3
 3387 0549 B602     		.2byte	0x2b6
 3388 054b F7020000 		.4byte	0x2f7
 3389 054f 02       		.byte	0x2
 3390 0550 23       		.byte	0x23
 3391 0551 18       		.uleb128 0x18
ARM GAS  C:\Users\CNous\AppData\Local\Temp\ccPT5vWC.s 			page 98


 3392 0552 0F       		.uleb128 0xf
 3393 0553 E8030000 		.4byte	.LASF132
 3394 0557 03       		.byte	0x3
 3395 0558 B702     		.2byte	0x2b7
 3396 055a 84020000 		.4byte	0x284
 3397 055e 02       		.byte	0x2
 3398 055f 23       		.byte	0x23
 3399 0560 1A       		.uleb128 0x1a
 3400 0561 0E       		.uleb128 0xe
 3401 0562 43435200 		.ascii	"CCR\000"
 3402 0566 03       		.byte	0x3
 3403 0567 B802     		.2byte	0x2b8
 3404 0569 F7020000 		.4byte	0x2f7
 3405 056d 02       		.byte	0x2
 3406 056e 23       		.byte	0x23
 3407 056f 1C       		.uleb128 0x1c
 3408 0570 0F       		.uleb128 0xf
 3409 0571 F2030000 		.4byte	.LASF133
 3410 0575 03       		.byte	0x3
 3411 0576 B902     		.2byte	0x2b9
 3412 0578 84020000 		.4byte	0x284
 3413 057c 02       		.byte	0x2
 3414 057d 23       		.byte	0x23
 3415 057e 1E       		.uleb128 0x1e
 3416 057f 0F       		.uleb128 0xf
 3417 0580 5F080000 		.4byte	.LASF134
 3418 0584 03       		.byte	0x3
 3419 0585 BA02     		.2byte	0x2ba
 3420 0587 F7020000 		.4byte	0x2f7
 3421 058b 02       		.byte	0x2
 3422 058c 23       		.byte	0x23
 3423 058d 20       		.uleb128 0x20
 3424 058e 0F       		.uleb128 0xf
 3425 058f FC030000 		.4byte	.LASF135
 3426 0593 03       		.byte	0x3
 3427 0594 BB02     		.2byte	0x2bb
 3428 0596 84020000 		.4byte	0x284
 3429 059a 02       		.byte	0x2
 3430 059b 23       		.byte	0x23
 3431 059c 22       		.uleb128 0x22
 3432 059d 00       		.byte	0
 3433 059e 0C       		.uleb128 0xc
 3434 059f E10D0000 		.4byte	.LASF136
 3435 05a3 03       		.byte	0x3
 3436 05a4 BC02     		.2byte	0x2bc
 3437 05a6 87040000 		.4byte	0x487
 3438 05aa 0D       		.uleb128 0xd
 3439 05ab 24       		.byte	0x24
 3440 05ac 03       		.byte	0x3
 3441 05ad 4A03     		.2byte	0x34a
 3442 05af C0060000 		.4byte	0x6c0
 3443 05b3 0E       		.uleb128 0xe
 3444 05b4 43523100 		.ascii	"CR1\000"
 3445 05b8 03       		.byte	0x3
 3446 05b9 4C03     		.2byte	0x34c
 3447 05bb F7020000 		.4byte	0x2f7
 3448 05bf 02       		.byte	0x2
ARM GAS  C:\Users\CNous\AppData\Local\Temp\ccPT5vWC.s 			page 99


 3449 05c0 23       		.byte	0x23
 3450 05c1 00       		.uleb128 0
 3451 05c2 0F       		.uleb128 0xf
 3452 05c3 A0030000 		.4byte	.LASF124
 3453 05c7 03       		.byte	0x3
 3454 05c8 4D03     		.2byte	0x34d
 3455 05ca 84020000 		.4byte	0x284
 3456 05ce 02       		.byte	0x2
 3457 05cf 23       		.byte	0x23
 3458 05d0 02       		.uleb128 0x2
 3459 05d1 0E       		.uleb128 0xe
 3460 05d2 43523200 		.ascii	"CR2\000"
 3461 05d6 03       		.byte	0x3
 3462 05d7 4E03     		.2byte	0x34e
 3463 05d9 F7020000 		.4byte	0x2f7
 3464 05dd 02       		.byte	0x2
 3465 05de 23       		.byte	0x23
 3466 05df 04       		.uleb128 0x4
 3467 05e0 0F       		.uleb128 0xf
 3468 05e1 AA030000 		.4byte	.LASF125
 3469 05e5 03       		.byte	0x3
 3470 05e6 4F03     		.2byte	0x34f
 3471 05e8 84020000 		.4byte	0x284
 3472 05ec 02       		.byte	0x2
 3473 05ed 23       		.byte	0x23
 3474 05ee 06       		.uleb128 0x6
 3475 05ef 0E       		.uleb128 0xe
 3476 05f0 535200   		.ascii	"SR\000"
 3477 05f3 03       		.byte	0x3
 3478 05f4 5003     		.2byte	0x350
 3479 05f6 F7020000 		.4byte	0x2f7
 3480 05fa 02       		.byte	0x2
 3481 05fb 23       		.byte	0x23
 3482 05fc 08       		.uleb128 0x8
 3483 05fd 0F       		.uleb128 0xf
 3484 05fe 99040000 		.4byte	.LASF127
 3485 0602 03       		.byte	0x3
 3486 0603 5103     		.2byte	0x351
 3487 0605 84020000 		.4byte	0x284
 3488 0609 02       		.byte	0x2
 3489 060a 23       		.byte	0x23
 3490 060b 0A       		.uleb128 0xa
 3491 060c 0E       		.uleb128 0xe
 3492 060d 445200   		.ascii	"DR\000"
 3493 0610 03       		.byte	0x3
 3494 0611 5203     		.2byte	0x352
 3495 0613 F7020000 		.4byte	0x2f7
 3496 0617 02       		.byte	0x2
 3497 0618 23       		.byte	0x23
 3498 0619 0C       		.uleb128 0xc
 3499 061a 0F       		.uleb128 0xf
 3500 061b A3040000 		.4byte	.LASF129
 3501 061f 03       		.byte	0x3
 3502 0620 5303     		.2byte	0x353
 3503 0622 84020000 		.4byte	0x284
 3504 0626 02       		.byte	0x2
 3505 0627 23       		.byte	0x23
ARM GAS  C:\Users\CNous\AppData\Local\Temp\ccPT5vWC.s 			page 100


 3506 0628 0E       		.uleb128 0xe
 3507 0629 0F       		.uleb128 0xf
 3508 062a 8C0E0000 		.4byte	.LASF137
 3509 062e 03       		.byte	0x3
 3510 062f 5403     		.2byte	0x354
 3511 0631 F7020000 		.4byte	0x2f7
 3512 0635 02       		.byte	0x2
 3513 0636 23       		.byte	0x23
 3514 0637 10       		.uleb128 0x10
 3515 0638 0F       		.uleb128 0xf
 3516 0639 D4030000 		.4byte	.LASF130
 3517 063d 03       		.byte	0x3
 3518 063e 5503     		.2byte	0x355
 3519 0640 84020000 		.4byte	0x284
 3520 0644 02       		.byte	0x2
 3521 0645 23       		.byte	0x23
 3522 0646 12       		.uleb128 0x12
 3523 0647 0F       		.uleb128 0xf
 3524 0648 130A0000 		.4byte	.LASF138
 3525 064c 03       		.byte	0x3
 3526 064d 5603     		.2byte	0x356
 3527 064f F7020000 		.4byte	0x2f7
 3528 0653 02       		.byte	0x2
 3529 0654 23       		.byte	0x23
 3530 0655 14       		.uleb128 0x14
 3531 0656 0F       		.uleb128 0xf
 3532 0657 DE030000 		.4byte	.LASF131
 3533 065b 03       		.byte	0x3
 3534 065c 5703     		.2byte	0x357
 3535 065e 84020000 		.4byte	0x284
 3536 0662 02       		.byte	0x2
 3537 0663 23       		.byte	0x23
 3538 0664 16       		.uleb128 0x16
 3539 0665 0F       		.uleb128 0xf
 3540 0666 F8010000 		.4byte	.LASF139
 3541 066a 03       		.byte	0x3
 3542 066b 5803     		.2byte	0x358
 3543 066d F7020000 		.4byte	0x2f7
 3544 0671 02       		.byte	0x2
 3545 0672 23       		.byte	0x23
 3546 0673 18       		.uleb128 0x18
 3547 0674 0F       		.uleb128 0xf
 3548 0675 E8030000 		.4byte	.LASF132
 3549 0679 03       		.byte	0x3
 3550 067a 5903     		.2byte	0x359
 3551 067c 84020000 		.4byte	0x284
 3552 0680 02       		.byte	0x2
 3553 0681 23       		.byte	0x23
 3554 0682 1A       		.uleb128 0x1a
 3555 0683 0F       		.uleb128 0xf
 3556 0684 350E0000 		.4byte	.LASF140
 3557 0688 03       		.byte	0x3
 3558 0689 5A03     		.2byte	0x35a
 3559 068b F7020000 		.4byte	0x2f7
 3560 068f 02       		.byte	0x2
 3561 0690 23       		.byte	0x23
 3562 0691 1C       		.uleb128 0x1c
ARM GAS  C:\Users\CNous\AppData\Local\Temp\ccPT5vWC.s 			page 101


 3563 0692 0F       		.uleb128 0xf
 3564 0693 F2030000 		.4byte	.LASF133
 3565 0697 03       		.byte	0x3
 3566 0698 5B03     		.2byte	0x35b
 3567 069a 84020000 		.4byte	0x284
 3568 069e 02       		.byte	0x2
 3569 069f 23       		.byte	0x23
 3570 06a0 1E       		.uleb128 0x1e
 3571 06a1 0F       		.uleb128 0xf
 3572 06a2 CC100000 		.4byte	.LASF141
 3573 06a6 03       		.byte	0x3
 3574 06a7 5C03     		.2byte	0x35c
 3575 06a9 F7020000 		.4byte	0x2f7
 3576 06ad 02       		.byte	0x2
 3577 06ae 23       		.byte	0x23
 3578 06af 20       		.uleb128 0x20
 3579 06b0 0F       		.uleb128 0xf
 3580 06b1 FC030000 		.4byte	.LASF135
 3581 06b5 03       		.byte	0x3
 3582 06b6 5D03     		.2byte	0x35d
 3583 06b8 84020000 		.4byte	0x284
 3584 06bc 02       		.byte	0x2
 3585 06bd 23       		.byte	0x23
 3586 06be 22       		.uleb128 0x22
 3587 06bf 00       		.byte	0
 3588 06c0 0C       		.uleb128 0xc
 3589 06c1 750E0000 		.4byte	.LASF142
 3590 06c5 03       		.byte	0x3
 3591 06c6 5E03     		.2byte	0x35e
 3592 06c8 AA050000 		.4byte	0x5aa
 3593 06cc 10       		.uleb128 0x10
 3594 06cd 10       		.byte	0x10
 3595 06ce 04       		.byte	0x4
 3596 06cf 30       		.byte	0x30
 3597 06d0 0D070000 		.4byte	0x70d
 3598 06d4 11       		.uleb128 0x11
 3599 06d5 60060000 		.4byte	.LASF143
 3600 06d9 04       		.byte	0x4
 3601 06da 32       		.byte	0x32
 3602 06db A8020000 		.4byte	0x2a8
 3603 06df 02       		.byte	0x2
 3604 06e0 23       		.byte	0x23
 3605 06e1 00       		.uleb128 0
 3606 06e2 11       		.uleb128 0x11
 3607 06e3 32050000 		.4byte	.LASF144
 3608 06e7 04       		.byte	0x4
 3609 06e8 35       		.byte	0x35
 3610 06e9 A8020000 		.4byte	0x2a8
 3611 06ed 02       		.byte	0x2
 3612 06ee 23       		.byte	0x23
 3613 06ef 04       		.uleb128 0x4
 3614 06f0 11       		.uleb128 0x11
 3615 06f1 530C0000 		.4byte	.LASF145
 3616 06f5 04       		.byte	0x4
 3617 06f6 39       		.byte	0x39
 3618 06f7 A8020000 		.4byte	0x2a8
 3619 06fb 02       		.byte	0x2
ARM GAS  C:\Users\CNous\AppData\Local\Temp\ccPT5vWC.s 			page 102


 3620 06fc 23       		.byte	0x23
 3621 06fd 08       		.uleb128 0x8
 3622 06fe 11       		.uleb128 0x11
 3623 06ff 5D010000 		.4byte	.LASF146
 3624 0703 04       		.byte	0x4
 3625 0704 3D       		.byte	0x3d
 3626 0705 A8020000 		.4byte	0x2a8
 3627 0709 02       		.byte	0x2
 3628 070a 23       		.byte	0x23
 3629 070b 0C       		.uleb128 0xc
 3630 070c 00       		.byte	0
 3631 070d 05       		.uleb128 0x5
 3632 070e 00060000 		.4byte	.LASF147
 3633 0712 04       		.byte	0x4
 3634 0713 3F       		.byte	0x3f
 3635 0714 CC060000 		.4byte	0x6cc
 3636 0718 10       		.uleb128 0x10
 3637 0719 3C       		.byte	0x3c
 3638 071a 05       		.byte	0x5
 3639 071b 30       		.byte	0x30
 3640 071c F3070000 		.4byte	0x7f3
 3641 0720 11       		.uleb128 0x11
 3642 0721 93050000 		.4byte	.LASF148
 3643 0725 05       		.byte	0x5
 3644 0726 32       		.byte	0x32
 3645 0727 A8020000 		.4byte	0x2a8
 3646 072b 02       		.byte	0x2
 3647 072c 23       		.byte	0x23
 3648 072d 00       		.uleb128 0
 3649 072e 11       		.uleb128 0x11
 3650 072f 81060000 		.4byte	.LASF149
 3651 0733 05       		.byte	0x5
 3652 0734 35       		.byte	0x35
 3653 0735 A8020000 		.4byte	0x2a8
 3654 0739 02       		.byte	0x2
 3655 073a 23       		.byte	0x23
 3656 073b 04       		.uleb128 0x4
 3657 073c 11       		.uleb128 0x11
 3658 073d 40020000 		.4byte	.LASF150
 3659 0741 05       		.byte	0x5
 3660 0742 37       		.byte	0x37
 3661 0743 A8020000 		.4byte	0x2a8
 3662 0747 02       		.byte	0x2
 3663 0748 23       		.byte	0x23
 3664 0749 08       		.uleb128 0x8
 3665 074a 11       		.uleb128 0x11
 3666 074b B10C0000 		.4byte	.LASF151
 3667 074f 05       		.byte	0x5
 3668 0750 3B       		.byte	0x3b
 3669 0751 A8020000 		.4byte	0x2a8
 3670 0755 02       		.byte	0x2
 3671 0756 23       		.byte	0x23
 3672 0757 0C       		.uleb128 0xc
 3673 0758 11       		.uleb128 0x11
 3674 0759 95120000 		.4byte	.LASF152
 3675 075d 05       		.byte	0x5
 3676 075e 3F       		.byte	0x3f
ARM GAS  C:\Users\CNous\AppData\Local\Temp\ccPT5vWC.s 			page 103


 3677 075f A8020000 		.4byte	0x2a8
 3678 0763 02       		.byte	0x2
 3679 0764 23       		.byte	0x23
 3680 0765 10       		.uleb128 0x10
 3681 0766 11       		.uleb128 0x11
 3682 0767 0B120000 		.4byte	.LASF153
 3683 076b 05       		.byte	0x5
 3684 076c 43       		.byte	0x43
 3685 076d A8020000 		.4byte	0x2a8
 3686 0771 02       		.byte	0x2
 3687 0772 23       		.byte	0x23
 3688 0773 14       		.uleb128 0x14
 3689 0774 11       		.uleb128 0x11
 3690 0775 86080000 		.4byte	.LASF154
 3691 0779 05       		.byte	0x5
 3692 077a 46       		.byte	0x46
 3693 077b A8020000 		.4byte	0x2a8
 3694 077f 02       		.byte	0x2
 3695 0780 23       		.byte	0x23
 3696 0781 18       		.uleb128 0x18
 3697 0782 11       		.uleb128 0x11
 3698 0783 57000000 		.4byte	.LASF155
 3699 0787 05       		.byte	0x5
 3700 0788 49       		.byte	0x49
 3701 0789 A8020000 		.4byte	0x2a8
 3702 078d 02       		.byte	0x2
 3703 078e 23       		.byte	0x23
 3704 078f 1C       		.uleb128 0x1c
 3705 0790 11       		.uleb128 0x11
 3706 0791 4D0E0000 		.4byte	.LASF156
 3707 0795 05       		.byte	0x5
 3708 0796 4C       		.byte	0x4c
 3709 0797 A8020000 		.4byte	0x2a8
 3710 079b 02       		.byte	0x2
 3711 079c 23       		.byte	0x23
 3712 079d 20       		.uleb128 0x20
 3713 079e 11       		.uleb128 0x11
 3714 079f F7050000 		.4byte	.LASF157
 3715 07a3 05       		.byte	0x5
 3716 07a4 4F       		.byte	0x4f
 3717 07a5 A8020000 		.4byte	0x2a8
 3718 07a9 02       		.byte	0x2
 3719 07aa 23       		.byte	0x23
 3720 07ab 24       		.uleb128 0x24
 3721 07ac 11       		.uleb128 0x11
 3722 07ad B4020000 		.4byte	.LASF158
 3723 07b1 05       		.byte	0x5
 3724 07b2 54       		.byte	0x54
 3725 07b3 A8020000 		.4byte	0x2a8
 3726 07b7 02       		.byte	0x2
 3727 07b8 23       		.byte	0x23
 3728 07b9 28       		.uleb128 0x28
 3729 07ba 11       		.uleb128 0x11
 3730 07bb 6E000000 		.4byte	.LASF159
 3731 07bf 05       		.byte	0x5
 3732 07c0 57       		.byte	0x57
 3733 07c1 A8020000 		.4byte	0x2a8
ARM GAS  C:\Users\CNous\AppData\Local\Temp\ccPT5vWC.s 			page 104


 3734 07c5 02       		.byte	0x2
 3735 07c6 23       		.byte	0x23
 3736 07c7 2C       		.uleb128 0x2c
 3737 07c8 11       		.uleb128 0x11
 3738 07c9 480B0000 		.4byte	.LASF160
 3739 07cd 05       		.byte	0x5
 3740 07ce 5C       		.byte	0x5c
 3741 07cf A8020000 		.4byte	0x2a8
 3742 07d3 02       		.byte	0x2
 3743 07d4 23       		.byte	0x23
 3744 07d5 30       		.uleb128 0x30
 3745 07d6 11       		.uleb128 0x11
 3746 07d7 94080000 		.4byte	.LASF161
 3747 07db 05       		.byte	0x5
 3748 07dc 5F       		.byte	0x5f
 3749 07dd A8020000 		.4byte	0x2a8
 3750 07e1 02       		.byte	0x2
 3751 07e2 23       		.byte	0x23
 3752 07e3 34       		.uleb128 0x34
 3753 07e4 11       		.uleb128 0x11
 3754 07e5 ED020000 		.4byte	.LASF162
 3755 07e9 05       		.byte	0x5
 3756 07ea 64       		.byte	0x64
 3757 07eb A8020000 		.4byte	0x2a8
 3758 07ef 02       		.byte	0x2
 3759 07f0 23       		.byte	0x23
 3760 07f1 38       		.uleb128 0x38
 3761 07f2 00       		.byte	0
 3762 07f3 05       		.uleb128 0x5
 3763 07f4 3E0F0000 		.4byte	.LASF163
 3764 07f8 05       		.byte	0x5
 3765 07f9 68       		.byte	0x68
 3766 07fa 18070000 		.4byte	0x718
 3767 07fe 12       		.uleb128 0x12
 3768 07ff 01       		.byte	0x1
 3769 0800 06       		.byte	0x6
 3770 0801 3A       		.byte	0x3a
 3771 0802 1F080000 		.4byte	0x81f
 3772 0806 03       		.uleb128 0x3
 3773 0807 2E080000 		.4byte	.LASF164
 3774 080b 00       		.sleb128 0
 3775 080c 03       		.uleb128 0x3
 3776 080d DC060000 		.4byte	.LASF165
 3777 0811 01       		.sleb128 1
 3778 0812 03       		.uleb128 0x3
 3779 0813 7D020000 		.4byte	.LASF166
 3780 0817 02       		.sleb128 2
 3781 0818 03       		.uleb128 0x3
 3782 0819 A7020000 		.4byte	.LASF167
 3783 081d 03       		.sleb128 3
 3784 081e 00       		.byte	0
 3785 081f 05       		.uleb128 0x5
 3786 0820 1E0E0000 		.4byte	.LASF168
 3787 0824 06       		.byte	0x6
 3788 0825 3F       		.byte	0x3f
 3789 0826 FE070000 		.4byte	0x7fe
 3790 082a 12       		.uleb128 0x12
ARM GAS  C:\Users\CNous\AppData\Local\Temp\ccPT5vWC.s 			page 105


 3791 082b 01       		.byte	0x1
 3792 082c 06       		.byte	0x6
 3793 082d 47       		.byte	0x47
 3794 082e 3F080000 		.4byte	0x83f
 3795 0832 03       		.uleb128 0x3
 3796 0833 3F040000 		.4byte	.LASF169
 3797 0837 00       		.sleb128 0
 3798 0838 03       		.uleb128 0x3
 3799 0839 DF020000 		.4byte	.LASF170
 3800 083d 01       		.sleb128 1
 3801 083e 00       		.byte	0
 3802 083f 05       		.uleb128 0x5
 3803 0840 00010000 		.4byte	.LASF171
 3804 0844 06       		.byte	0x6
 3805 0845 4A       		.byte	0x4a
 3806 0846 2A080000 		.4byte	0x82a
 3807 084a 12       		.uleb128 0x12
 3808 084b 01       		.byte	0x1
 3809 084c 06       		.byte	0x6
 3810 084d 52       		.byte	0x52
 3811 084e 6B080000 		.4byte	0x86b
 3812 0852 03       		.uleb128 0x3
 3813 0853 D80E0000 		.4byte	.LASF172
 3814 0857 00       		.sleb128 0
 3815 0858 03       		.uleb128 0x3
 3816 0859 57050000 		.4byte	.LASF173
 3817 085d 01       		.sleb128 1
 3818 085e 03       		.uleb128 0x3
 3819 085f 82050000 		.4byte	.LASF174
 3820 0863 02       		.sleb128 2
 3821 0864 03       		.uleb128 0x3
 3822 0865 36010000 		.4byte	.LASF175
 3823 0869 03       		.sleb128 3
 3824 086a 00       		.byte	0
 3825 086b 05       		.uleb128 0x5
 3826 086c E80E0000 		.4byte	.LASF176
 3827 0870 06       		.byte	0x6
 3828 0871 57       		.byte	0x57
 3829 0872 4A080000 		.4byte	0x84a
 3830 0876 12       		.uleb128 0x12
 3831 0877 01       		.byte	0x1
 3832 0878 06       		.byte	0x6
 3833 0879 5F       		.byte	0x5f
 3834 087a 91080000 		.4byte	0x891
 3835 087e 03       		.uleb128 0x3
 3836 087f CA000000 		.4byte	.LASF177
 3837 0883 00       		.sleb128 0
 3838 0884 03       		.uleb128 0x3
 3839 0885 E6100000 		.4byte	.LASF178
 3840 0889 01       		.sleb128 1
 3841 088a 03       		.uleb128 0x3
 3842 088b E9010000 		.4byte	.LASF179
 3843 088f 02       		.sleb128 2
 3844 0890 00       		.byte	0
 3845 0891 05       		.uleb128 0x5
 3846 0892 E8040000 		.4byte	.LASF180
 3847 0896 06       		.byte	0x6
ARM GAS  C:\Users\CNous\AppData\Local\Temp\ccPT5vWC.s 			page 106


 3848 0897 63       		.byte	0x63
 3849 0898 76080000 		.4byte	0x876
 3850 089c 12       		.uleb128 0x12
 3851 089d 01       		.byte	0x1
 3852 089e 06       		.byte	0x6
 3853 089f 6B       		.byte	0x6b
 3854 08a0 B1080000 		.4byte	0x8b1
 3855 08a4 03       		.uleb128 0x3
 3856 08a5 0A070000 		.4byte	.LASF181
 3857 08a9 00       		.sleb128 0
 3858 08aa 03       		.uleb128 0x3
 3859 08ab 9F0D0000 		.4byte	.LASF182
 3860 08af 01       		.sleb128 1
 3861 08b0 00       		.byte	0
 3862 08b1 05       		.uleb128 0x5
 3863 08b2 6A110000 		.4byte	.LASF183
 3864 08b6 06       		.byte	0x6
 3865 08b7 6E       		.byte	0x6e
 3866 08b8 9C080000 		.4byte	0x89c
 3867 08bc 10       		.uleb128 0x10
 3868 08bd 08       		.byte	0x8
 3869 08be 06       		.byte	0x6
 3870 08bf 75       		.byte	0x75
 3871 08c0 0B090000 		.4byte	0x90b
 3872 08c4 11       		.uleb128 0x11
 3873 08c5 0C0F0000 		.4byte	.LASF184
 3874 08c9 06       		.byte	0x6
 3875 08ca 77       		.byte	0x77
 3876 08cb A8020000 		.4byte	0x2a8
 3877 08cf 02       		.byte	0x2
 3878 08d0 23       		.byte	0x23
 3879 08d1 00       		.uleb128 0
 3880 08d2 11       		.uleb128 0x11
 3881 08d3 AF0D0000 		.4byte	.LASF185
 3882 08d7 06       		.byte	0x6
 3883 08d8 7A       		.byte	0x7a
 3884 08d9 1F080000 		.4byte	0x81f
 3885 08dd 02       		.byte	0x2
 3886 08de 23       		.byte	0x23
 3887 08df 04       		.uleb128 0x4
 3888 08e0 11       		.uleb128 0x11
 3889 08e1 C70A0000 		.4byte	.LASF186
 3890 08e5 06       		.byte	0x6
 3891 08e6 7D       		.byte	0x7d
 3892 08e7 6B080000 		.4byte	0x86b
 3893 08eb 02       		.byte	0x2
 3894 08ec 23       		.byte	0x23
 3895 08ed 05       		.uleb128 0x5
 3896 08ee 11       		.uleb128 0x11
 3897 08ef 05000000 		.4byte	.LASF187
 3898 08f3 06       		.byte	0x6
 3899 08f4 80       		.byte	0x80
 3900 08f5 3F080000 		.4byte	0x83f
 3901 08f9 02       		.byte	0x2
 3902 08fa 23       		.byte	0x23
 3903 08fb 06       		.uleb128 0x6
 3904 08fc 11       		.uleb128 0x11
ARM GAS  C:\Users\CNous\AppData\Local\Temp\ccPT5vWC.s 			page 107


 3905 08fd 220F0000 		.4byte	.LASF188
 3906 0901 06       		.byte	0x6
 3907 0902 83       		.byte	0x83
 3908 0903 91080000 		.4byte	0x891
 3909 0907 02       		.byte	0x2
 3910 0908 23       		.byte	0x23
 3911 0909 07       		.uleb128 0x7
 3912 090a 00       		.byte	0
 3913 090b 05       		.uleb128 0x5
 3914 090c 58030000 		.4byte	.LASF189
 3915 0910 06       		.byte	0x6
 3916 0911 85       		.byte	0x85
 3917 0912 BC080000 		.4byte	0x8bc
 3918 0916 10       		.uleb128 0x10
 3919 0917 10       		.byte	0x10
 3920 0918 07       		.byte	0x7
 3921 0919 30       		.byte	0x30
 3922 091a 73090000 		.4byte	0x973
 3923 091e 11       		.uleb128 0x11
 3924 091f 9C100000 		.4byte	.LASF190
 3925 0923 07       		.byte	0x7
 3926 0924 32       		.byte	0x32
 3927 0925 A8020000 		.4byte	0x2a8
 3928 0929 02       		.byte	0x2
 3929 092a 23       		.byte	0x23
 3930 092b 00       		.uleb128 0
 3931 092c 11       		.uleb128 0x11
 3932 092d 12010000 		.4byte	.LASF191
 3933 0931 07       		.byte	0x7
 3934 0932 35       		.byte	0x35
 3935 0933 84020000 		.4byte	0x284
 3936 0937 02       		.byte	0x2
 3937 0938 23       		.byte	0x23
 3938 0939 04       		.uleb128 0x4
 3939 093a 11       		.uleb128 0x11
 3940 093b 2A030000 		.4byte	.LASF192
 3941 093f 07       		.byte	0x7
 3942 0940 38       		.byte	0x38
 3943 0941 84020000 		.4byte	0x284
 3944 0945 02       		.byte	0x2
 3945 0946 23       		.byte	0x23
 3946 0947 06       		.uleb128 0x6
 3947 0948 11       		.uleb128 0x11
 3948 0949 C9080000 		.4byte	.LASF193
 3949 094d 07       		.byte	0x7
 3950 094e 3B       		.byte	0x3b
 3951 094f 84020000 		.4byte	0x284
 3952 0953 02       		.byte	0x2
 3953 0954 23       		.byte	0x23
 3954 0955 08       		.uleb128 0x8
 3955 0956 11       		.uleb128 0x11
 3956 0957 740C0000 		.4byte	.LASF194
 3957 095b 07       		.byte	0x7
 3958 095c 3E       		.byte	0x3e
 3959 095d 84020000 		.4byte	0x284
 3960 0961 02       		.byte	0x2
 3961 0962 23       		.byte	0x23
ARM GAS  C:\Users\CNous\AppData\Local\Temp\ccPT5vWC.s 			page 108


 3962 0963 0A       		.uleb128 0xa
 3963 0964 11       		.uleb128 0x11
 3964 0965 D0070000 		.4byte	.LASF195
 3965 0969 07       		.byte	0x7
 3966 096a 41       		.byte	0x41
 3967 096b 84020000 		.4byte	0x284
 3968 096f 02       		.byte	0x2
 3969 0970 23       		.byte	0x23
 3970 0971 0C       		.uleb128 0xc
 3971 0972 00       		.byte	0
 3972 0973 05       		.uleb128 0x5
 3973 0974 C6050000 		.4byte	.LASF196
 3974 0978 07       		.byte	0x7
 3975 0979 43       		.byte	0x43
 3976 097a 16090000 		.4byte	0x916
 3977 097e 10       		.uleb128 0x10
 3978 097f 10       		.byte	0x10
 3979 0980 08       		.byte	0x8
 3980 0981 55       		.byte	0x55
 3981 0982 DB090000 		.4byte	0x9db
 3982 0986 11       		.uleb128 0x11
 3983 0987 740A0000 		.4byte	.LASF197
 3984 098b 08       		.byte	0x8
 3985 098c 58       		.byte	0x58
 3986 098d 84020000 		.4byte	0x284
 3987 0991 02       		.byte	0x2
 3988 0992 23       		.byte	0x23
 3989 0993 00       		.uleb128 0
 3990 0994 11       		.uleb128 0x11
 3991 0995 C8090000 		.4byte	.LASF198
 3992 0999 08       		.byte	0x8
 3993 099a 5B       		.byte	0x5b
 3994 099b 84020000 		.4byte	0x284
 3995 099f 02       		.byte	0x2
 3996 09a0 23       		.byte	0x23
 3997 09a1 02       		.uleb128 0x2
 3998 09a2 11       		.uleb128 0x11
 3999 09a3 4F120000 		.4byte	.LASF199
 4000 09a7 08       		.byte	0x8
 4001 09a8 5E       		.byte	0x5e
 4002 09a9 84020000 		.4byte	0x284
 4003 09ad 02       		.byte	0x2
 4004 09ae 23       		.byte	0x23
 4005 09af 04       		.uleb128 0x4
 4006 09b0 11       		.uleb128 0x11
 4007 09b1 030B0000 		.4byte	.LASF200
 4008 09b5 08       		.byte	0x8
 4009 09b6 61       		.byte	0x61
 4010 09b7 84020000 		.4byte	0x284
 4011 09bb 02       		.byte	0x2
 4012 09bc 23       		.byte	0x23
 4013 09bd 06       		.uleb128 0x6
 4014 09be 11       		.uleb128 0x11
 4015 09bf CA0E0000 		.4byte	.LASF201
 4016 09c3 08       		.byte	0x8
 4017 09c4 64       		.byte	0x64
 4018 09c5 A8020000 		.4byte	0x2a8
ARM GAS  C:\Users\CNous\AppData\Local\Temp\ccPT5vWC.s 			page 109


 4019 09c9 02       		.byte	0x2
 4020 09ca 23       		.byte	0x23
 4021 09cb 08       		.uleb128 0x8
 4022 09cc 11       		.uleb128 0x11
 4023 09cd 6B0A0000 		.4byte	.LASF202
 4024 09d1 08       		.byte	0x8
 4025 09d2 67       		.byte	0x67
 4026 09d3 84020000 		.4byte	0x284
 4027 09d7 02       		.byte	0x2
 4028 09d8 23       		.byte	0x23
 4029 09d9 0C       		.uleb128 0xc
 4030 09da 00       		.byte	0
 4031 09db 05       		.uleb128 0x5
 4032 09dc 1D120000 		.4byte	.LASF203
 4033 09e0 08       		.byte	0x8
 4034 09e1 69       		.byte	0x69
 4035 09e2 7E090000 		.4byte	0x97e
 4036 09e6 10       		.uleb128 0x10
 4037 09e7 04       		.byte	0x4
 4038 09e8 09       		.byte	0x9
 4039 09e9 30       		.byte	0x30
 4040 09ea 270A0000 		.4byte	0xa27
 4041 09ee 11       		.uleb128 0x11
 4042 09ef C70B0000 		.4byte	.LASF204
 4043 09f3 09       		.byte	0x9
 4044 09f4 32       		.byte	0x32
 4045 09f5 6B020000 		.4byte	0x26b
 4046 09f9 02       		.byte	0x2
 4047 09fa 23       		.byte	0x23
 4048 09fb 00       		.uleb128 0
 4049 09fc 11       		.uleb128 0x11
 4050 09fd F9040000 		.4byte	.LASF205
 4051 0a01 09       		.byte	0x9
 4052 0a02 37       		.byte	0x37
 4053 0a03 6B020000 		.4byte	0x26b
 4054 0a07 02       		.byte	0x2
 4055 0a08 23       		.byte	0x23
 4056 0a09 01       		.uleb128 0x1
 4057 0a0a 11       		.uleb128 0x11
 4058 0a0b D70B0000 		.4byte	.LASF206
 4059 0a0f 09       		.byte	0x9
 4060 0a10 3C       		.byte	0x3c
 4061 0a11 6B020000 		.4byte	0x26b
 4062 0a15 02       		.byte	0x2
 4063 0a16 23       		.byte	0x23
 4064 0a17 02       		.uleb128 0x2
 4065 0a18 11       		.uleb128 0x11
 4066 0a19 FF010000 		.4byte	.LASF207
 4067 0a1d 09       		.byte	0x9
 4068 0a1e 41       		.byte	0x41
 4069 0a1f 39030000 		.4byte	0x339
 4070 0a23 02       		.byte	0x2
 4071 0a24 23       		.byte	0x23
 4072 0a25 03       		.uleb128 0x3
 4073 0a26 00       		.byte	0
 4074 0a27 05       		.uleb128 0x5
 4075 0a28 2F110000 		.4byte	.LASF208
ARM GAS  C:\Users\CNous\AppData\Local\Temp\ccPT5vWC.s 			page 110


 4076 0a2c 09       		.byte	0x9
 4077 0a2d 44       		.byte	0x44
 4078 0a2e E6090000 		.4byte	0x9e6
 4079 0a32 04       		.uleb128 0x4
 4080 0a33 01       		.byte	0x1
 4081 0a34 08       		.byte	0x8
 4082 0a35 C7040000 		.4byte	.LASF209
 4083 0a39 04       		.uleb128 0x4
 4084 0a3a 08       		.byte	0x8
 4085 0a3b 04       		.byte	0x4
 4086 0a3c D5090000 		.4byte	.LASF210
 4087 0a40 04       		.uleb128 0x4
 4088 0a41 04       		.byte	0x4
 4089 0a42 04       		.byte	0x4
 4090 0a43 540A0000 		.4byte	.LASF211
 4091 0a47 04       		.uleb128 0x4
 4092 0a48 08       		.byte	0x8
 4093 0a49 04       		.byte	0x4
 4094 0a4a FA0B0000 		.4byte	.LASF212
 4095 0a4e 13       		.uleb128 0x13
 4096 0a4f 1A040000 		.4byte	.LASF215
 4097 0a53 01       		.byte	0x1
 4098 0a54 6B03     		.2byte	0x36b
 4099 0a56 01       		.byte	0x1
 4100 0a57 A8020000 		.4byte	0x2a8
 4101 0a5b 01       		.byte	0x1
 4102 0a5c 850A0000 		.4byte	0xa85
 4103 0a60 14       		.uleb128 0x14
 4104 0a61 D9080000 		.4byte	.LASF213
 4105 0a65 01       		.byte	0x1
 4106 0a66 6B03     		.2byte	0x36b
 4107 0a68 6B020000 		.4byte	0x26b
 4108 0a6c 14       		.uleb128 0x14
 4109 0a6d 38030000 		.4byte	.LASF214
 4110 0a71 01       		.byte	0x1
 4111 0a72 6B03     		.2byte	0x36b
 4112 0a74 6B020000 		.4byte	0x26b
 4113 0a78 15       		.uleb128 0x15
 4114 0a79 E2010000 		.4byte	.LASF217
 4115 0a7d 01       		.byte	0x1
 4116 0a7e 6D03     		.2byte	0x36d
 4117 0a80 A8020000 		.4byte	0x2a8
 4118 0a84 00       		.byte	0
 4119 0a85 13       		.uleb128 0x13
 4120 0a86 AB100000 		.4byte	.LASF216
 4121 0a8a 01       		.byte	0x1
 4122 0a8b 4003     		.2byte	0x340
 4123 0a8d 01       		.byte	0x1
 4124 0a8e A8020000 		.4byte	0x2a8
 4125 0a92 01       		.byte	0x1
 4126 0a93 B00A0000 		.4byte	0xab0
 4127 0a97 16       		.uleb128 0x16
 4128 0a98 436D6400 		.ascii	"Cmd\000"
 4129 0a9c 01       		.byte	0x1
 4130 0a9d 4003     		.2byte	0x340
 4131 0a9f A8020000 		.4byte	0x2a8
 4132 0aa3 15       		.uleb128 0x15
ARM GAS  C:\Users\CNous\AppData\Local\Temp\ccPT5vWC.s 			page 111


 4133 0aa4 61090000 		.4byte	.LASF218
 4134 0aa8 01       		.byte	0x1
 4135 0aa9 4203     		.2byte	0x342
 4136 0aab A8020000 		.4byte	0x2a8
 4137 0aaf 00       		.byte	0
 4138 0ab0 13       		.uleb128 0x13
 4139 0ab1 9F050000 		.4byte	.LASF219
 4140 0ab5 01       		.byte	0x1
 4141 0ab6 2603     		.2byte	0x326
 4142 0ab8 01       		.byte	0x1
 4143 0ab9 A8020000 		.4byte	0x2a8
 4144 0abd 01       		.byte	0x1
 4145 0abe DB0A0000 		.4byte	0xadb
 4146 0ac2 14       		.uleb128 0x14
 4147 0ac3 F3100000 		.4byte	.LASF220
 4148 0ac7 01       		.byte	0x1
 4149 0ac8 2603     		.2byte	0x326
 4150 0aca 6B020000 		.4byte	0x26b
 4151 0ace 15       		.uleb128 0x15
 4152 0acf 61090000 		.4byte	.LASF218
 4153 0ad3 01       		.byte	0x1
 4154 0ad4 2803     		.2byte	0x328
 4155 0ad6 A8020000 		.4byte	0x2a8
 4156 0ada 00       		.byte	0
 4157 0adb 17       		.uleb128 0x17
 4158 0adc DB000000 		.4byte	.LASF222
 4159 0ae0 01       		.byte	0x1
 4160 0ae1 0305     		.2byte	0x503
 4161 0ae3 01       		.byte	0x1
 4162 0ae4 01       		.byte	0x1
 4163 0ae5 F60A0000 		.4byte	0xaf6
 4164 0ae9 14       		.uleb128 0x14
 4165 0aea F0050000 		.4byte	.LASF221
 4166 0aee 01       		.byte	0x1
 4167 0aef 0305     		.2byte	0x503
 4168 0af1 DD020000 		.4byte	0x2dd
 4169 0af5 00       		.byte	0
 4170 0af6 17       		.uleb128 0x17
 4171 0af7 65080000 		.4byte	.LASF223
 4172 0afb 01       		.byte	0x1
 4173 0afc 0B06     		.2byte	0x60b
 4174 0afe 01       		.byte	0x1
 4175 0aff 01       		.byte	0x1
 4176 0b00 1D0B0000 		.4byte	0xb1d
 4177 0b04 16       		.uleb128 0x16
 4178 0b05 436D6400 		.ascii	"Cmd\000"
 4179 0b09 01       		.byte	0x1
 4180 0b0a 0B06     		.2byte	0x60b
 4181 0b0c A8020000 		.4byte	0x2a8
 4182 0b10 14       		.uleb128 0x14
 4183 0b11 EA060000 		.4byte	.LASF224
 4184 0b15 01       		.byte	0x1
 4185 0b16 0B06     		.2byte	0x60b
 4186 0b18 A8020000 		.4byte	0x2a8
 4187 0b1c 00       		.byte	0
 4188 0b1d 18       		.uleb128 0x18
 4189 0b1e D90F0000 		.4byte	.LASF238
ARM GAS  C:\Users\CNous\AppData\Local\Temp\ccPT5vWC.s 			page 112


 4190 0b22 01       		.byte	0x1
 4191 0b23 3204     		.2byte	0x432
 4192 0b25 01       		.byte	0x1
 4193 0b26 01       		.byte	0x1
 4194 0b27 13       		.uleb128 0x13
 4195 0b28 7C010000 		.4byte	.LASF225
 4196 0b2c 01       		.byte	0x1
 4197 0b2d 6102     		.2byte	0x261
 4198 0b2f 01       		.byte	0x1
 4199 0b30 A8020000 		.4byte	0x2a8
 4200 0b34 01       		.byte	0x1
 4201 0b35 6A0B0000 		.4byte	0xb6a
 4202 0b39 14       		.uleb128 0x14
 4203 0b3a 660F0000 		.4byte	.LASF226
 4204 0b3e 01       		.byte	0x1
 4205 0b3f 6102     		.2byte	0x261
 4206 0b41 84020000 		.4byte	0x284
 4207 0b45 14       		.uleb128 0x14
 4208 0b46 F3100000 		.4byte	.LASF220
 4209 0b4a 01       		.byte	0x1
 4210 0b4b 6102     		.2byte	0x261
 4211 0b4d 6B020000 		.4byte	0x26b
 4212 0b51 14       		.uleb128 0x14
 4213 0b52 AE0E0000 		.4byte	.LASF227
 4214 0b56 01       		.byte	0x1
 4215 0b57 6102     		.2byte	0x261
 4216 0b59 A8020000 		.4byte	0x2a8
 4217 0b5d 15       		.uleb128 0x15
 4218 0b5e 61090000 		.4byte	.LASF218
 4219 0b62 01       		.byte	0x1
 4220 0b63 6302     		.2byte	0x263
 4221 0b65 A8020000 		.4byte	0x2a8
 4222 0b69 00       		.byte	0
 4223 0b6a 19       		.uleb128 0x19
 4224 0b6b 8A120000 		.4byte	.LASF327
 4225 0b6f 01       		.byte	0x1
 4226 0b70 CE02     		.2byte	0x2ce
 4227 0b72 01       		.byte	0x1
 4228 0b73 A8020000 		.4byte	0x2a8
 4229 0b77 01       		.byte	0x1
 4230 0b78 1A       		.uleb128 0x1a
 4231 0b79 960A0000 		.4byte	.LASF230
 4232 0b7d 01       		.byte	0x1
 4233 0b7e CD01     		.2byte	0x1cd
 4234 0b80 01       		.byte	0x1
 4235 0b81 00000000 		.4byte	.LFB118
 4236 0b85 64000000 		.4byte	.LFE118
 4237 0b89 00000000 		.4byte	.LLST0
 4238 0b8d 01       		.byte	0x1
 4239 0b8e 080C0000 		.4byte	0xc08
 4240 0b92 1B       		.uleb128 0x1b
 4241 0b93 1A0A0000 		.4byte	.LASF228
 4242 0b97 01       		.byte	0x1
 4243 0b98 D001     		.2byte	0x1d0
 4244 0b9a 080C0000 		.4byte	0xc08
 4245 0b9e 01       		.byte	0x1
 4246 0b9f 57       		.byte	0x57
ARM GAS  C:\Users\CNous\AppData\Local\Temp\ccPT5vWC.s 			page 113


 4247 0ba0 1B       		.uleb128 0x1b
 4248 0ba1 DA020000 		.4byte	.LASF229
 4249 0ba5 01       		.byte	0x1
 4250 0ba6 D101     		.2byte	0x1d1
 4251 0ba8 A8020000 		.4byte	0x2a8
 4252 0bac 01       		.byte	0x1
 4253 0bad 56       		.byte	0x56
 4254 0bae 1C       		.uleb128 0x1c
 4255 0baf 16000000 		.4byte	.LVL2
 4256 0bb3 BB1F0000 		.4byte	0x1fbb
 4257 0bb7 1C       		.uleb128 0x1c
 4258 0bb8 22000000 		.4byte	.LVL3
 4259 0bbc BB1F0000 		.4byte	0x1fbb
 4260 0bc0 1D       		.uleb128 0x1d
 4261 0bc1 2E000000 		.4byte	.LVL4
 4262 0bc5 D91F0000 		.4byte	0x1fd9
 4263 0bc9 DA0B0000 		.4byte	0xbda
 4264 0bcd 1E       		.uleb128 0x1e
 4265 0bce 01       		.byte	0x1
 4266 0bcf 51       		.byte	0x51
 4267 0bd0 02       		.byte	0x2
 4268 0bd1 76       		.byte	0x76
 4269 0bd2 00       		.sleb128 0
 4270 0bd3 1E       		.uleb128 0x1e
 4271 0bd4 01       		.byte	0x1
 4272 0bd5 50       		.byte	0x50
 4273 0bd6 02       		.byte	0x2
 4274 0bd7 77       		.byte	0x77
 4275 0bd8 00       		.sleb128 0
 4276 0bd9 00       		.byte	0
 4277 0bda 1F       		.uleb128 0x1f
 4278 0bdb 3C000000 		.4byte	.LVL5
 4279 0bdf 01       		.byte	0x1
 4280 0be0 F31F0000 		.4byte	0x1ff3
 4281 0be4 1D       		.uleb128 0x1d
 4282 0be5 44000000 		.4byte	.LVL6
 4283 0be9 0D200000 		.4byte	0x200d
 4284 0bed FE0B0000 		.4byte	0xbfe
 4285 0bf1 1E       		.uleb128 0x1e
 4286 0bf2 01       		.byte	0x1
 4287 0bf3 51       		.byte	0x51
 4288 0bf4 02       		.byte	0x2
 4289 0bf5 76       		.byte	0x76
 4290 0bf6 00       		.sleb128 0
 4291 0bf7 1E       		.uleb128 0x1e
 4292 0bf8 01       		.byte	0x1
 4293 0bf9 50       		.byte	0x50
 4294 0bfa 02       		.byte	0x2
 4295 0bfb 77       		.byte	0x77
 4296 0bfc 00       		.sleb128 0
 4297 0bfd 00       		.byte	0
 4298 0bfe 1C       		.uleb128 0x1c
 4299 0bff 4C000000 		.4byte	.LVL7
 4300 0c03 F31F0000 		.4byte	0x1ff3
 4301 0c07 00       		.byte	0
 4302 0c08 20       		.uleb128 0x20
 4303 0c09 04       		.byte	0x4
ARM GAS  C:\Users\CNous\AppData\Local\Temp\ccPT5vWC.s 			page 114


 4304 0c0a 84020000 		.4byte	0x284
 4305 0c0e 1A       		.uleb128 0x1a
 4306 0c0f 98060000 		.4byte	.LASF231
 4307 0c13 01       		.byte	0x1
 4308 0c14 5803     		.2byte	0x358
 4309 0c16 01       		.byte	0x1
 4310 0c17 00000000 		.4byte	.LFB129
 4311 0c1b 2C000000 		.4byte	.LFE129
 4312 0c1f 20000000 		.4byte	.LLST1
 4313 0c23 01       		.byte	0x1
 4314 0c24 6F0C0000 		.4byte	0xc6f
 4315 0c28 21       		.uleb128 0x21
 4316 0c29 DB0A0000 		.4byte	0xadb
 4317 0c2d 12000000 		.4byte	.LBB10
 4318 0c31 1A000000 		.4byte	.LBE10
 4319 0c35 01       		.byte	0x1
 4320 0c36 5E03     		.2byte	0x35e
 4321 0c38 420C0000 		.4byte	0xc42
 4322 0c3c 22       		.uleb128 0x22
 4323 0c3d E90A0000 		.4byte	0xae9
 4324 0c41 00       		.byte	0
 4325 0c42 1D       		.uleb128 0x1d
 4326 0c43 12000000 		.4byte	.LVL8
 4327 0c47 27200000 		.4byte	0x2027
 4328 0c4b 5A0C0000 		.4byte	0xc5a
 4329 0c4f 1E       		.uleb128 0x1e
 4330 0c50 01       		.byte	0x1
 4331 0c51 52       		.byte	0x52
 4332 0c52 01       		.byte	0x1
 4333 0c53 30       		.byte	0x30
 4334 0c54 1E       		.uleb128 0x1e
 4335 0c55 01       		.byte	0x1
 4336 0c56 51       		.byte	0x51
 4337 0c57 01       		.byte	0x1
 4338 0c58 40       		.byte	0x40
 4339 0c59 00       		.byte	0
 4340 0c5a 23       		.uleb128 0x23
 4341 0c5b 2A000000 		.4byte	.LVL11
 4342 0c5f 27200000 		.4byte	0x2027
 4343 0c63 1E       		.uleb128 0x1e
 4344 0c64 01       		.byte	0x1
 4345 0c65 52       		.byte	0x52
 4346 0c66 01       		.byte	0x1
 4347 0c67 31       		.byte	0x31
 4348 0c68 1E       		.uleb128 0x1e
 4349 0c69 01       		.byte	0x1
 4350 0c6a 51       		.byte	0x51
 4351 0c6b 01       		.byte	0x1
 4352 0c6c 40       		.byte	0x40
 4353 0c6d 00       		.byte	0
 4354 0c6e 00       		.byte	0
 4355 0c6f 13       		.uleb128 0x13
 4356 0c70 340D0000 		.4byte	.LASF232
 4357 0c74 01       		.byte	0x1
 4358 0c75 B103     		.2byte	0x3b1
 4359 0c77 01       		.byte	0x1
 4360 0c78 A8020000 		.4byte	0x2a8
ARM GAS  C:\Users\CNous\AppData\Local\Temp\ccPT5vWC.s 			page 115


 4361 0c7c 01       		.byte	0x1
 4362 0c7d 9A0C0000 		.4byte	0xc9a
 4363 0c81 14       		.uleb128 0x14
 4364 0c82 D9080000 		.4byte	.LASF213
 4365 0c86 01       		.byte	0x1
 4366 0c87 B103     		.2byte	0x3b1
 4367 0c89 6B020000 		.4byte	0x26b
 4368 0c8d 15       		.uleb128 0x15
 4369 0c8e E2010000 		.4byte	.LASF217
 4370 0c92 01       		.byte	0x1
 4371 0c93 B303     		.2byte	0x3b3
 4372 0c95 A8020000 		.4byte	0x2a8
 4373 0c99 00       		.byte	0
 4374 0c9a 24       		.uleb128 0x24
 4375 0c9b 4E0A0000 		.4byte	0xa4e
 4376 0c9f 00000000 		.4byte	.LFB130
 4377 0ca3 E4020000 		.4byte	.LFE130
 4378 0ca7 40000000 		.4byte	.LLST2
 4379 0cab 01       		.byte	0x1
 4380 0cac F00E0000 		.4byte	0xef0
 4381 0cb0 25       		.uleb128 0x25
 4382 0cb1 600A0000 		.4byte	0xa60
 4383 0cb5 60000000 		.4byte	.LLST3
 4384 0cb9 25       		.uleb128 0x25
 4385 0cba 6C0A0000 		.4byte	0xa6c
 4386 0cbe 81000000 		.4byte	.LLST4
 4387 0cc2 26       		.uleb128 0x26
 4388 0cc3 780A0000 		.4byte	0xa78
 4389 0cc7 00       		.byte	0
 4390 0cc8 27       		.uleb128 0x27
 4391 0cc9 4E0A0000 		.4byte	0xa4e
 4392 0ccd 2E000000 		.4byte	.LBB16
 4393 0cd1 00000000 		.4byte	.Ldebug_ranges0+0
 4394 0cd5 01       		.byte	0x1
 4395 0cd6 6B03     		.2byte	0x36b
 4396 0cd8 BE0E0000 		.4byte	0xebe
 4397 0cdc 28       		.uleb128 0x28
 4398 0cdd 6C0A0000 		.4byte	0xa6c
 4399 0ce1 01       		.byte	0x1
 4400 0ce2 56       		.byte	0x56
 4401 0ce3 25       		.uleb128 0x25
 4402 0ce4 600A0000 		.4byte	0xa60
 4403 0ce8 A2000000 		.4byte	.LLST5
 4404 0cec 29       		.uleb128 0x29
 4405 0ced 20000000 		.4byte	.Ldebug_ranges0+0x20
 4406 0cf1 2A       		.uleb128 0x2a
 4407 0cf2 780A0000 		.4byte	0xa78
 4408 0cf6 CB000000 		.4byte	.LLST6
 4409 0cfa 27       		.uleb128 0x27
 4410 0cfb 6F0C0000 		.4byte	0xc6f
 4411 0cff 16010000 		.4byte	.LBB18
 4412 0d03 40000000 		.4byte	.Ldebug_ranges0+0x40
 4413 0d07 01       		.byte	0x1
 4414 0d08 A303     		.2byte	0x3a3
 4415 0d0a 3E0E0000 		.4byte	0xe3e
 4416 0d0e 25       		.uleb128 0x25
 4417 0d0f 810C0000 		.4byte	0xc81
ARM GAS  C:\Users\CNous\AppData\Local\Temp\ccPT5vWC.s 			page 116


 4418 0d13 E3000000 		.4byte	.LLST7
 4419 0d17 29       		.uleb128 0x29
 4420 0d18 58000000 		.4byte	.Ldebug_ranges0+0x58
 4421 0d1c 2A       		.uleb128 0x2a
 4422 0d1d 8D0C0000 		.4byte	0xc8d
 4423 0d21 0C010000 		.4byte	.LLST8
 4424 0d25 1D       		.uleb128 0x1d
 4425 0d26 2C010000 		.4byte	.LVL27
 4426 0d2a 4C200000 		.4byte	0x204c
 4427 0d2e 3A0D0000 		.4byte	0xd3a
 4428 0d32 1E       		.uleb128 0x1e
 4429 0d33 01       		.byte	0x1
 4430 0d34 51       		.byte	0x51
 4431 0d35 03       		.byte	0x3
 4432 0d36 40       		.byte	0x40
 4433 0d37 3D       		.byte	0x3d
 4434 0d38 24       		.byte	0x24
 4435 0d39 00       		.byte	0
 4436 0d3a 1C       		.uleb128 0x1c
 4437 0d3b 3C010000 		.4byte	.LVL29
 4438 0d3f 70200000 		.4byte	0x2070
 4439 0d43 1D       		.uleb128 0x1d
 4440 0d44 54010000 		.4byte	.LVL32
 4441 0d48 7F200000 		.4byte	0x207f
 4442 0d4c 560D0000 		.4byte	0xd56
 4443 0d50 1E       		.uleb128 0x1e
 4444 0d51 01       		.byte	0x1
 4445 0d52 51       		.byte	0x51
 4446 0d53 01       		.byte	0x1
 4447 0d54 31       		.byte	0x31
 4448 0d55 00       		.byte	0
 4449 0d56 1C       		.uleb128 0x1c
 4450 0d57 6C010000 		.4byte	.LVL33
 4451 0d5b 99200000 		.4byte	0x2099
 4452 0d5f 1D       		.uleb128 0x1d
 4453 0d60 8A010000 		.4byte	.LVL34
 4454 0d64 B7200000 		.4byte	0x20b7
 4455 0d68 780D0000 		.4byte	0xd78
 4456 0d6c 1E       		.uleb128 0x1e
 4457 0d6d 01       		.byte	0x1
 4458 0d6e 52       		.byte	0x52
 4459 0d6f 01       		.byte	0x1
 4460 0d70 30       		.byte	0x30
 4461 0d71 1E       		.uleb128 0x1e
 4462 0d72 01       		.byte	0x1
 4463 0d73 51       		.byte	0x51
 4464 0d74 02       		.byte	0x2
 4465 0d75 09       		.byte	0x9
 4466 0d76 94       		.byte	0x94
 4467 0d77 00       		.byte	0
 4468 0d78 1C       		.uleb128 0x1c
 4469 0d79 A2010000 		.4byte	.LVL35
 4470 0d7d 99200000 		.4byte	0x2099
 4471 0d81 1C       		.uleb128 0x1c
 4472 0d82 C2010000 		.4byte	.LVL37
 4473 0d86 D6200000 		.4byte	0x20d6
 4474 0d8a 1C       		.uleb128 0x1c
ARM GAS  C:\Users\CNous\AppData\Local\Temp\ccPT5vWC.s 			page 117


 4475 0d8b E2010000 		.4byte	.LVL38
 4476 0d8f 4C200000 		.4byte	0x204c
 4477 0d93 1D       		.uleb128 0x1d
 4478 0d94 F4010000 		.4byte	.LVL39
 4479 0d98 7F200000 		.4byte	0x207f
 4480 0d9c A60D0000 		.4byte	0xda6
 4481 0da0 1E       		.uleb128 0x1e
 4482 0da1 01       		.byte	0x1
 4483 0da2 51       		.byte	0x51
 4484 0da3 01       		.byte	0x1
 4485 0da4 31       		.byte	0x31
 4486 0da5 00       		.byte	0
 4487 0da6 1C       		.uleb128 0x1c
 4488 0da7 0C020000 		.4byte	.LVL40
 4489 0dab 99200000 		.4byte	0x2099
 4490 0daf 1D       		.uleb128 0x1d
 4491 0db0 2A020000 		.4byte	.LVL41
 4492 0db4 B7200000 		.4byte	0x20b7
 4493 0db8 C80D0000 		.4byte	0xdc8
 4494 0dbc 1E       		.uleb128 0x1e
 4495 0dbd 01       		.byte	0x1
 4496 0dbe 52       		.byte	0x52
 4497 0dbf 01       		.byte	0x1
 4498 0dc0 31       		.byte	0x31
 4499 0dc1 1E       		.uleb128 0x1e
 4500 0dc2 01       		.byte	0x1
 4501 0dc3 51       		.byte	0x51
 4502 0dc4 02       		.byte	0x2
 4503 0dc5 09       		.byte	0x9
 4504 0dc6 94       		.byte	0x94
 4505 0dc7 00       		.byte	0
 4506 0dc8 1D       		.uleb128 0x1d
 4507 0dc9 44020000 		.4byte	.LVL42
 4508 0dcd 4C200000 		.4byte	0x204c
 4509 0dd1 DC0D0000 		.4byte	0xddc
 4510 0dd5 1E       		.uleb128 0x1e
 4511 0dd6 01       		.byte	0x1
 4512 0dd7 50       		.byte	0x50
 4513 0dd8 02       		.byte	0x2
 4514 0dd9 75       		.byte	0x75
 4515 0dda 00       		.sleb128 0
 4516 0ddb 00       		.byte	0
 4517 0ddc 1D       		.uleb128 0x1d
 4518 0ddd 5A020000 		.4byte	.LVL43
 4519 0de1 F0200000 		.4byte	0x20f0
 4520 0de5 F50D0000 		.4byte	0xdf5
 4521 0de9 1E       		.uleb128 0x1e
 4522 0dea 01       		.byte	0x1
 4523 0deb 51       		.byte	0x51
 4524 0dec 01       		.byte	0x1
 4525 0ded 30       		.byte	0x30
 4526 0dee 1E       		.uleb128 0x1e
 4527 0def 01       		.byte	0x1
 4528 0df0 50       		.byte	0x50
 4529 0df1 02       		.byte	0x2
 4530 0df2 75       		.byte	0x75
 4531 0df3 00       		.sleb128 0
ARM GAS  C:\Users\CNous\AppData\Local\Temp\ccPT5vWC.s 			page 118


 4532 0df4 00       		.byte	0
 4533 0df5 1D       		.uleb128 0x1d
 4534 0df6 64020000 		.4byte	.LVL44
 4535 0dfa 0A210000 		.4byte	0x210a
 4536 0dfe 0E0E0000 		.4byte	0xe0e
 4537 0e02 1E       		.uleb128 0x1e
 4538 0e03 01       		.byte	0x1
 4539 0e04 51       		.byte	0x51
 4540 0e05 01       		.byte	0x1
 4541 0e06 31       		.byte	0x31
 4542 0e07 1E       		.uleb128 0x1e
 4543 0e08 01       		.byte	0x1
 4544 0e09 50       		.byte	0x50
 4545 0e0a 02       		.byte	0x2
 4546 0e0b 75       		.byte	0x75
 4547 0e0c 00       		.sleb128 0
 4548 0e0d 00       		.byte	0
 4549 0e0e 1C       		.uleb128 0x1c
 4550 0e0f 7C020000 		.4byte	.LVL45
 4551 0e13 4C200000 		.4byte	0x204c
 4552 0e17 1C       		.uleb128 0x1c
 4553 0e18 96020000 		.4byte	.LVL46
 4554 0e1c 24210000 		.4byte	0x2124
 4555 0e20 1D       		.uleb128 0x1d
 4556 0e21 CE020000 		.4byte	.LVL49
 4557 0e25 F0200000 		.4byte	0x20f0
 4558 0e29 330E0000 		.4byte	0xe33
 4559 0e2d 1E       		.uleb128 0x1e
 4560 0e2e 01       		.byte	0x1
 4561 0e2f 51       		.byte	0x51
 4562 0e30 01       		.byte	0x1
 4563 0e31 31       		.byte	0x31
 4564 0e32 00       		.byte	0
 4565 0e33 1C       		.uleb128 0x1c
 4566 0e34 E2020000 		.4byte	.LVL50
 4567 0e38 3D210000 		.4byte	0x213d
 4568 0e3c 00       		.byte	0
 4569 0e3d 00       		.byte	0
 4570 0e3e 1F       		.uleb128 0x1f
 4571 0e3f 32000000 		.4byte	.LVL15
 4572 0e43 01       		.byte	0x1
 4573 0e44 70200000 		.4byte	0x2070
 4574 0e48 1D       		.uleb128 0x1d
 4575 0e49 76000000 		.4byte	.LVL19
 4576 0e4d B7200000 		.4byte	0x20b7
 4577 0e51 610E0000 		.4byte	0xe61
 4578 0e55 1E       		.uleb128 0x1e
 4579 0e56 01       		.byte	0x1
 4580 0e57 52       		.byte	0x52
 4581 0e58 01       		.byte	0x1
 4582 0e59 30       		.byte	0x30
 4583 0e5a 1E       		.uleb128 0x1e
 4584 0e5b 01       		.byte	0x1
 4585 0e5c 51       		.byte	0x51
 4586 0e5d 02       		.byte	0x2
 4587 0e5e 09       		.byte	0x9
 4588 0e5f 94       		.byte	0x94
ARM GAS  C:\Users\CNous\AppData\Local\Temp\ccPT5vWC.s 			page 119


 4589 0e60 00       		.byte	0
 4590 0e61 1C       		.uleb128 0x1c
 4591 0e62 8E000000 		.4byte	.LVL20
 4592 0e66 99200000 		.4byte	0x2099
 4593 0e6a 1D       		.uleb128 0x1d
 4594 0e6b AA000000 		.4byte	.LVL21
 4595 0e6f D6200000 		.4byte	0x20d6
 4596 0e73 7E0E0000 		.4byte	0xe7e
 4597 0e77 1E       		.uleb128 0x1e
 4598 0e78 01       		.byte	0x1
 4599 0e79 51       		.byte	0x51
 4600 0e7a 02       		.byte	0x2
 4601 0e7b 75       		.byte	0x75
 4602 0e7c 00       		.sleb128 0
 4603 0e7d 00       		.byte	0
 4604 0e7e 1C       		.uleb128 0x1c
 4605 0e7f C2000000 		.4byte	.LVL22
 4606 0e83 99200000 		.4byte	0x2099
 4607 0e87 1D       		.uleb128 0x1d
 4608 0e88 DE000000 		.4byte	.LVL23
 4609 0e8c D6200000 		.4byte	0x20d6
 4610 0e90 9B0E0000 		.4byte	0xe9b
 4611 0e94 1E       		.uleb128 0x1e
 4612 0e95 01       		.byte	0x1
 4613 0e96 51       		.byte	0x51
 4614 0e97 02       		.byte	0x2
 4615 0e98 76       		.byte	0x76
 4616 0e99 00       		.sleb128 0
 4617 0e9a 00       		.byte	0
 4618 0e9b 1C       		.uleb128 0x1c
 4619 0e9c F6000000 		.4byte	.LVL24
 4620 0ea0 4C200000 		.4byte	0x204c
 4621 0ea4 1C       		.uleb128 0x1c
 4622 0ea5 06010000 		.4byte	.LVL25
 4623 0ea9 70200000 		.4byte	0x2070
 4624 0ead 23       		.uleb128 0x23
 4625 0eae 16010000 		.4byte	.LVL26
 4626 0eb2 0A210000 		.4byte	0x210a
 4627 0eb6 1E       		.uleb128 0x1e
 4628 0eb7 01       		.byte	0x1
 4629 0eb8 51       		.byte	0x51
 4630 0eb9 01       		.byte	0x1
 4631 0eba 31       		.byte	0x31
 4632 0ebb 00       		.byte	0
 4633 0ebc 00       		.byte	0
 4634 0ebd 00       		.byte	0
 4635 0ebe 1D       		.uleb128 0x1d
 4636 0ebf 1E000000 		.4byte	.LVL14
 4637 0ec3 4C200000 		.4byte	0x204c
 4638 0ec7 D30E0000 		.4byte	0xed3
 4639 0ecb 1E       		.uleb128 0x1e
 4640 0ecc 01       		.byte	0x1
 4641 0ecd 51       		.byte	0x51
 4642 0ece 03       		.byte	0x3
 4643 0ecf 40       		.byte	0x40
 4644 0ed0 3D       		.byte	0x3d
 4645 0ed1 24       		.byte	0x24
ARM GAS  C:\Users\CNous\AppData\Local\Temp\ccPT5vWC.s 			page 120


 4646 0ed2 00       		.byte	0
 4647 0ed3 1D       		.uleb128 0x1d
 4648 0ed4 40000000 		.4byte	.LVL16
 4649 0ed8 7F200000 		.4byte	0x207f
 4650 0edc E60E0000 		.4byte	0xee6
 4651 0ee0 1E       		.uleb128 0x1e
 4652 0ee1 01       		.byte	0x1
 4653 0ee2 51       		.byte	0x51
 4654 0ee3 01       		.byte	0x1
 4655 0ee4 31       		.byte	0x31
 4656 0ee5 00       		.byte	0
 4657 0ee6 1C       		.uleb128 0x1c
 4658 0ee7 58000000 		.4byte	.LVL17
 4659 0eeb 99200000 		.4byte	0x2099
 4660 0eef 00       		.byte	0
 4661 0ef0 2B       		.uleb128 0x2b
 4662 0ef1 850A0000 		.4byte	0xa85
 4663 0ef5 00000000 		.4byte	.LFB146
 4664 0ef9 08000000 		.4byte	.LFE146
 4665 0efd 02       		.byte	0x2
 4666 0efe 7D       		.byte	0x7d
 4667 0eff 00       		.sleb128 0
 4668 0f00 01       		.byte	0x1
 4669 0f01 260F0000 		.4byte	0xf26
 4670 0f05 2C       		.uleb128 0x2c
 4671 0f06 A30A0000 		.4byte	0xaa3
 4672 0f0a 22       		.uleb128 0x22
 4673 0f0b 970A0000 		.4byte	0xa97
 4674 0f0f 2D       		.uleb128 0x2d
 4675 0f10 08000000 		.4byte	.LVL51
 4676 0f14 01       		.byte	0x1
 4677 0f15 4E0A0000 		.4byte	0xa4e
 4678 0f19 1E       		.uleb128 0x1e
 4679 0f1a 01       		.byte	0x1
 4680 0f1b 51       		.byte	0x51
 4681 0f1c 02       		.byte	0x2
 4682 0f1d 09       		.byte	0x9
 4683 0f1e FF       		.byte	0xff
 4684 0f1f 1E       		.uleb128 0x1e
 4685 0f20 01       		.byte	0x1
 4686 0f21 50       		.byte	0x50
 4687 0f22 01       		.byte	0x1
 4688 0f23 34       		.byte	0x34
 4689 0f24 00       		.byte	0
 4690 0f25 00       		.byte	0
 4691 0f26 24       		.uleb128 0x24
 4692 0f27 B00A0000 		.4byte	0xab0
 4693 0f2b 00000000 		.4byte	.LFB127
 4694 0f2f 1C000000 		.4byte	.LFE127
 4695 0f33 42010000 		.4byte	.LLST9
 4696 0f37 01       		.byte	0x1
 4697 0f38 A40F0000 		.4byte	0xfa4
 4698 0f3c 25       		.uleb128 0x25
 4699 0f3d C20A0000 		.4byte	0xac2
 4700 0f41 62010000 		.4byte	.LLST10
 4701 0f45 2A       		.uleb128 0x2a
 4702 0f46 CE0A0000 		.4byte	0xace
ARM GAS  C:\Users\CNous\AppData\Local\Temp\ccPT5vWC.s 			page 121


 4703 0f4a 83010000 		.4byte	.LLST11
 4704 0f4e 27       		.uleb128 0x27
 4705 0f4f B00A0000 		.4byte	0xab0
 4706 0f53 00000000 		.4byte	.LBB28
 4707 0f57 70000000 		.4byte	.Ldebug_ranges0+0x70
 4708 0f5b 01       		.byte	0x1
 4709 0f5c 2603     		.2byte	0x326
 4710 0f5e 730F0000 		.4byte	0xf73
 4711 0f62 22       		.uleb128 0x22
 4712 0f63 C20A0000 		.4byte	0xac2
 4713 0f67 29       		.uleb128 0x29
 4714 0f68 88000000 		.4byte	.Ldebug_ranges0+0x88
 4715 0f6c 2C       		.uleb128 0x2c
 4716 0f6d CE0A0000 		.4byte	0xace
 4717 0f71 00       		.byte	0
 4718 0f72 00       		.byte	0
 4719 0f73 1D       		.uleb128 0x1d
 4720 0f74 0E000000 		.4byte	.LVL54
 4721 0f78 4E0A0000 		.4byte	0xa4e
 4722 0f7c 8D0F0000 		.4byte	0xf8d
 4723 0f80 1E       		.uleb128 0x1e
 4724 0f81 01       		.byte	0x1
 4725 0f82 51       		.byte	0x51
 4726 0f83 02       		.byte	0x2
 4727 0f84 74       		.byte	0x74
 4728 0f85 00       		.sleb128 0
 4729 0f86 1E       		.uleb128 0x1e
 4730 0f87 01       		.byte	0x1
 4731 0f88 50       		.byte	0x50
 4732 0f89 02       		.byte	0x2
 4733 0f8a 08       		.byte	0x8
 4734 0f8b 20       		.byte	0x20
 4735 0f8c 00       		.byte	0
 4736 0f8d 23       		.uleb128 0x23
 4737 0f8e 18000000 		.4byte	.LVL57
 4738 0f92 4E0A0000 		.4byte	0xa4e
 4739 0f96 1E       		.uleb128 0x1e
 4740 0f97 01       		.byte	0x1
 4741 0f98 51       		.byte	0x51
 4742 0f99 02       		.byte	0x2
 4743 0f9a 74       		.byte	0x74
 4744 0f9b 00       		.sleb128 0
 4745 0f9c 1E       		.uleb128 0x1e
 4746 0f9d 01       		.byte	0x1
 4747 0f9e 50       		.byte	0x50
 4748 0f9f 02       		.byte	0x2
 4749 0fa0 08       		.byte	0x8
 4750 0fa1 21       		.byte	0x21
 4751 0fa2 00       		.byte	0
 4752 0fa3 00       		.byte	0
 4753 0fa4 2E       		.uleb128 0x2e
 4754 0fa5 01       		.byte	0x1
 4755 0fa6 010E0000 		.4byte	.LASF251
 4756 0faa 01       		.byte	0x1
 4757 0fab 0E01     		.2byte	0x10e
 4758 0fad 01       		.byte	0x1
 4759 0fae 00000000 		.4byte	.LFB110
ARM GAS  C:\Users\CNous\AppData\Local\Temp\ccPT5vWC.s 			page 122


 4760 0fb2 F8000000 		.4byte	.LFE110
 4761 0fb6 B8010000 		.4byte	.LLST12
 4762 0fba 01       		.byte	0x1
 4763 0fbb D00F0000 		.4byte	0xfd0
 4764 0fbf 2F       		.uleb128 0x2f
 4765 0fc0 78050000 		.4byte	.LASF243
 4766 0fc4 01       		.byte	0x1
 4767 0fc5 0E01     		.2byte	0x10e
 4768 0fc7 A8020000 		.4byte	0x2a8
 4769 0fcb D8010000 		.4byte	.LLST13
 4770 0fcf 00       		.byte	0
 4771 0fd0 17       		.uleb128 0x17
 4772 0fd1 2E040000 		.4byte	.LASF233
 4773 0fd5 01       		.byte	0x1
 4774 0fd6 C305     		.2byte	0x5c3
 4775 0fd8 01       		.byte	0x1
 4776 0fd9 01       		.byte	0x1
 4777 0fda EB0F0000 		.4byte	0xfeb
 4778 0fde 15       		.uleb128 0x15
 4779 0fdf 87010000 		.4byte	.LASF234
 4780 0fe3 01       		.byte	0x1
 4781 0fe4 C605     		.2byte	0x5c6
 4782 0fe6 270A0000 		.4byte	0xa27
 4783 0fea 00       		.byte	0
 4784 0feb 13       		.uleb128 0x13
 4785 0fec 470A0000 		.4byte	.LASF235
 4786 0ff0 01       		.byte	0x1
 4787 0ff1 B102     		.2byte	0x2b1
 4788 0ff3 01       		.byte	0x1
 4789 0ff4 A8020000 		.4byte	0x2a8
 4790 0ff8 01       		.byte	0x1
 4791 0ff9 0A100000 		.4byte	0x100a
 4792 0ffd 15       		.uleb128 0x15
 4793 0ffe 61090000 		.4byte	.LASF218
 4794 1002 01       		.byte	0x1
 4795 1003 B302     		.2byte	0x2b3
 4796 1005 A8020000 		.4byte	0x2a8
 4797 1009 00       		.byte	0
 4798 100a 17       		.uleb128 0x17
 4799 100b FE070000 		.4byte	.LASF236
 4800 100f 01       		.byte	0x1
 4801 1010 E004     		.2byte	0x4e0
 4802 1012 01       		.byte	0x1
 4803 1013 01       		.byte	0x1
 4804 1014 25100000 		.4byte	0x1025
 4805 1018 15       		.uleb128 0x15
 4806 1019 8C0D0000 		.4byte	.LASF237
 4807 101d 01       		.byte	0x1
 4808 101e E204     		.2byte	0x4e2
 4809 1020 0B090000 		.4byte	0x90b
 4810 1024 00       		.byte	0
 4811 1025 18       		.uleb128 0x18
 4812 1026 CC040000 		.4byte	.LASF239
 4813 102a 01       		.byte	0x1
 4814 102b 8104     		.2byte	0x481
 4815 102d 01       		.byte	0x1
 4816 102e 01       		.byte	0x1
ARM GAS  C:\Users\CNous\AppData\Local\Temp\ccPT5vWC.s 			page 123


 4817 102f 30       		.uleb128 0x30
 4818 1030 01       		.byte	0x1
 4819 1031 46030000 		.4byte	.LASF241
 4820 1035 01       		.byte	0x1
 4821 1036 5001     		.2byte	0x150
 4822 1038 01       		.byte	0x1
 4823 1039 A8020000 		.4byte	0x2a8
 4824 103d 00000000 		.4byte	.LFB112
 4825 1041 DA000000 		.4byte	.LFE112
 4826 1045 2E020000 		.4byte	.LLST14
 4827 1049 01       		.byte	0x1
 4828 104a 22120000 		.4byte	0x1222
 4829 104e 27       		.uleb128 0x27
 4830 104f D00F0000 		.4byte	0xfd0
 4831 1053 02000000 		.4byte	.LBB40
 4832 1057 A0000000 		.4byte	.Ldebug_ranges0+0xa0
 4833 105b 01       		.byte	0x1
 4834 105c 5301     		.2byte	0x153
 4835 105e A2100000 		.4byte	0x10a2
 4836 1062 29       		.uleb128 0x29
 4837 1063 C8000000 		.4byte	.Ldebug_ranges0+0xc8
 4838 1067 31       		.uleb128 0x31
 4839 1068 DE0F0000 		.4byte	0xfde
 4840 106c 02       		.byte	0x2
 4841 106d 91       		.byte	0x91
 4842 106e 64       		.sleb128 -28
 4843 106f 1D       		.uleb128 0x1d
 4844 1070 2E000000 		.4byte	.LVL65
 4845 1074 57210000 		.4byte	0x2157
 4846 1078 83100000 		.4byte	0x1083
 4847 107c 1E       		.uleb128 0x1e
 4848 107d 01       		.byte	0x1
 4849 107e 50       		.byte	0x50
 4850 107f 02       		.byte	0x2
 4851 1080 91       		.byte	0x91
 4852 1081 64       		.sleb128 -28
 4853 1082 00       		.byte	0
 4854 1083 1D       		.uleb128 0x1d
 4855 1084 36000000 		.4byte	.LVL66
 4856 1088 71210000 		.4byte	0x2171
 4857 108c 97100000 		.4byte	0x1097
 4858 1090 1E       		.uleb128 0x1e
 4859 1091 01       		.byte	0x1
 4860 1092 51       		.byte	0x51
 4861 1093 02       		.byte	0x2
 4862 1094 74       		.byte	0x74
 4863 1095 00       		.sleb128 0
 4864 1096 00       		.byte	0
 4865 1097 1C       		.uleb128 0x1c
 4866 1098 44000000 		.4byte	.LVL67
 4867 109c 8B210000 		.4byte	0x218b
 4868 10a0 00       		.byte	0
 4869 10a1 00       		.byte	0
 4870 10a2 32       		.uleb128 0x32
 4871 10a3 EB0F0000 		.4byte	0xfeb
 4872 10a7 36000000 		.4byte	.LBB46
 4873 10ab F0000000 		.4byte	.Ldebug_ranges0+0xf0
ARM GAS  C:\Users\CNous\AppData\Local\Temp\ccPT5vWC.s 			page 124


 4874 10af 01       		.byte	0x1
 4875 10b0 5601     		.2byte	0x156
 4876 10b2 29       		.uleb128 0x29
 4877 10b3 10010000 		.4byte	.Ldebug_ranges0+0x110
 4878 10b7 2A       		.uleb128 0x2a
 4879 10b8 FD0F0000 		.4byte	0xffd
 4880 10bc 5A020000 		.4byte	.LLST15
 4881 10c0 27       		.uleb128 0x27
 4882 10c1 0A100000 		.4byte	0x100a
 4883 10c5 36000000 		.4byte	.LBB48
 4884 10c9 30010000 		.4byte	.Ldebug_ranges0+0x130
 4885 10cd 01       		.byte	0x1
 4886 10ce BC02     		.2byte	0x2bc
 4887 10d0 A8110000 		.4byte	0x11a8
 4888 10d4 29       		.uleb128 0x29
 4889 10d5 68010000 		.4byte	.Ldebug_ranges0+0x168
 4890 10d9 31       		.uleb128 0x31
 4891 10da 18100000 		.4byte	0x1018
 4892 10de 02       		.byte	0x2
 4893 10df 91       		.byte	0x91
 4894 10e0 68       		.sleb128 -24
 4895 10e1 1D       		.uleb128 0x1d
 4896 10e2 74000000 		.4byte	.LVL70
 4897 10e6 A0210000 		.4byte	0x21a0
 4898 10ea FB100000 		.4byte	0x10fb
 4899 10ee 1E       		.uleb128 0x1e
 4900 10ef 01       		.byte	0x1
 4901 10f0 51       		.byte	0x51
 4902 10f1 02       		.byte	0x2
 4903 10f2 91       		.byte	0x91
 4904 10f3 68       		.sleb128 -24
 4905 10f4 1E       		.uleb128 0x1e
 4906 10f5 01       		.byte	0x1
 4907 10f6 50       		.byte	0x50
 4908 10f7 02       		.byte	0x2
 4909 10f8 75       		.byte	0x75
 4910 10f9 00       		.sleb128 0
 4911 10fa 00       		.byte	0
 4912 10fb 1D       		.uleb128 0x1d
 4913 10fc 80000000 		.4byte	.LVL71
 4914 1100 A0210000 		.4byte	0x21a0
 4915 1104 15110000 		.4byte	0x1115
 4916 1108 1E       		.uleb128 0x1e
 4917 1109 01       		.byte	0x1
 4918 110a 51       		.byte	0x51
 4919 110b 02       		.byte	0x2
 4920 110c 91       		.byte	0x91
 4921 110d 68       		.sleb128 -24
 4922 110e 1E       		.uleb128 0x1e
 4923 110f 01       		.byte	0x1
 4924 1110 50       		.byte	0x50
 4925 1111 02       		.byte	0x2
 4926 1112 76       		.byte	0x76
 4927 1113 00       		.sleb128 0
 4928 1114 00       		.byte	0
 4929 1115 1D       		.uleb128 0x1d
 4930 1116 8A000000 		.4byte	.LVL72
ARM GAS  C:\Users\CNous\AppData\Local\Temp\ccPT5vWC.s 			page 125


 4931 111a C0210000 		.4byte	0x21c0
 4932 111e 34110000 		.4byte	0x1134
 4933 1122 1E       		.uleb128 0x1e
 4934 1123 01       		.byte	0x1
 4935 1124 52       		.byte	0x52
 4936 1125 02       		.byte	0x2
 4937 1126 74       		.byte	0x74
 4938 1127 00       		.sleb128 0
 4939 1128 1E       		.uleb128 0x1e
 4940 1129 01       		.byte	0x1
 4941 112a 51       		.byte	0x51
 4942 112b 01       		.byte	0x1
 4943 112c 34       		.byte	0x34
 4944 112d 1E       		.uleb128 0x1e
 4945 112e 01       		.byte	0x1
 4946 112f 50       		.byte	0x50
 4947 1130 02       		.byte	0x2
 4948 1131 76       		.byte	0x76
 4949 1132 00       		.sleb128 0
 4950 1133 00       		.byte	0
 4951 1134 1D       		.uleb128 0x1d
 4952 1135 94000000 		.4byte	.LVL73
 4953 1139 C0210000 		.4byte	0x21c0
 4954 113d 53110000 		.4byte	0x1153
 4955 1141 1E       		.uleb128 0x1e
 4956 1142 01       		.byte	0x1
 4957 1143 52       		.byte	0x52
 4958 1144 02       		.byte	0x2
 4959 1145 74       		.byte	0x74
 4960 1146 00       		.sleb128 0
 4961 1147 1E       		.uleb128 0x1e
 4962 1148 01       		.byte	0x1
 4963 1149 51       		.byte	0x51
 4964 114a 01       		.byte	0x1
 4965 114b 3A       		.byte	0x3a
 4966 114c 1E       		.uleb128 0x1e
 4967 114d 01       		.byte	0x1
 4968 114e 50       		.byte	0x50
 4969 114f 02       		.byte	0x2
 4970 1150 75       		.byte	0x75
 4971 1151 00       		.sleb128 0
 4972 1152 00       		.byte	0
 4973 1153 1D       		.uleb128 0x1d
 4974 1154 9E000000 		.4byte	.LVL74
 4975 1158 C0210000 		.4byte	0x21c0
 4976 115c 72110000 		.4byte	0x1172
 4977 1160 1E       		.uleb128 0x1e
 4978 1161 01       		.byte	0x1
 4979 1162 52       		.byte	0x52
 4980 1163 02       		.byte	0x2
 4981 1164 74       		.byte	0x74
 4982 1165 00       		.sleb128 0
 4983 1166 1E       		.uleb128 0x1e
 4984 1167 01       		.byte	0x1
 4985 1168 51       		.byte	0x51
 4986 1169 01       		.byte	0x1
 4987 116a 3C       		.byte	0x3c
ARM GAS  C:\Users\CNous\AppData\Local\Temp\ccPT5vWC.s 			page 126


 4988 116b 1E       		.uleb128 0x1e
 4989 116c 01       		.byte	0x1
 4990 116d 50       		.byte	0x50
 4991 116e 02       		.byte	0x2
 4992 116f 75       		.byte	0x75
 4993 1170 00       		.sleb128 0
 4994 1171 00       		.byte	0
 4995 1172 1D       		.uleb128 0x1d
 4996 1173 B2000000 		.4byte	.LVL75
 4997 1177 A0210000 		.4byte	0x21a0
 4998 117b 8C110000 		.4byte	0x118c
 4999 117f 1E       		.uleb128 0x1e
 5000 1180 01       		.byte	0x1
 5001 1181 51       		.byte	0x51
 5002 1182 02       		.byte	0x2
 5003 1183 91       		.byte	0x91
 5004 1184 68       		.sleb128 -24
 5005 1185 1E       		.uleb128 0x1e
 5006 1186 01       		.byte	0x1
 5007 1187 50       		.byte	0x50
 5008 1188 02       		.byte	0x2
 5009 1189 75       		.byte	0x75
 5010 118a 00       		.sleb128 0
 5011 118b 00       		.byte	0
 5012 118c 23       		.uleb128 0x23
 5013 118d BC000000 		.4byte	.LVL76
 5014 1191 C0210000 		.4byte	0x21c0
 5015 1195 1E       		.uleb128 0x1e
 5016 1196 01       		.byte	0x1
 5017 1197 52       		.byte	0x52
 5018 1198 01       		.byte	0x1
 5019 1199 36       		.byte	0x36
 5020 119a 1E       		.uleb128 0x1e
 5021 119b 01       		.byte	0x1
 5022 119c 51       		.byte	0x51
 5023 119d 01       		.byte	0x1
 5024 119e 37       		.byte	0x37
 5025 119f 1E       		.uleb128 0x1e
 5026 11a0 01       		.byte	0x1
 5027 11a1 50       		.byte	0x50
 5028 11a2 02       		.byte	0x2
 5029 11a3 75       		.byte	0x75
 5030 11a4 00       		.sleb128 0
 5031 11a5 00       		.byte	0
 5032 11a6 00       		.byte	0
 5033 11a7 00       		.byte	0
 5034 11a8 27       		.uleb128 0x27
 5035 11a9 25100000 		.4byte	0x1025
 5036 11ad 9E000000 		.4byte	.LBB58
 5037 11b1 A0010000 		.4byte	.Ldebug_ranges0+0x1a0
 5038 11b5 01       		.byte	0x1
 5039 11b6 C202     		.2byte	0x2c2
 5040 11b8 02120000 		.4byte	0x1202
 5041 11bc 1D       		.uleb128 0x1d
 5042 11bd C4000000 		.4byte	.LVL77
 5043 11c1 DF210000 		.4byte	0x21df
 5044 11c5 D6110000 		.4byte	0x11d6
ARM GAS  C:\Users\CNous\AppData\Local\Temp\ccPT5vWC.s 			page 127


 5045 11c9 1E       		.uleb128 0x1e
 5046 11ca 01       		.byte	0x1
 5047 11cb 51       		.byte	0x51
 5048 11cc 02       		.byte	0x2
 5049 11cd 74       		.byte	0x74
 5050 11ce 00       		.sleb128 0
 5051 11cf 1E       		.uleb128 0x1e
 5052 11d0 01       		.byte	0x1
 5053 11d1 50       		.byte	0x50
 5054 11d2 02       		.byte	0x2
 5055 11d3 76       		.byte	0x76
 5056 11d4 00       		.sleb128 0
 5057 11d5 00       		.byte	0
 5058 11d6 1D       		.uleb128 0x1d
 5059 11d7 CA000000 		.4byte	.LVL78
 5060 11db FF210000 		.4byte	0x21ff
 5061 11df EA110000 		.4byte	0x11ea
 5062 11e3 1E       		.uleb128 0x1e
 5063 11e4 01       		.byte	0x1
 5064 11e5 50       		.byte	0x50
 5065 11e6 02       		.byte	0x2
 5066 11e7 76       		.byte	0x76
 5067 11e8 00       		.sleb128 0
 5068 11e9 00       		.byte	0
 5069 11ea 23       		.uleb128 0x23
 5070 11eb D4000000 		.4byte	.LVL79
 5071 11ef 14220000 		.4byte	0x2214
 5072 11f3 1E       		.uleb128 0x1e
 5073 11f4 01       		.byte	0x1
 5074 11f5 51       		.byte	0x51
 5075 11f6 02       		.byte	0x2
 5076 11f7 74       		.byte	0x74
 5077 11f8 00       		.sleb128 0
 5078 11f9 1E       		.uleb128 0x1e
 5079 11fa 01       		.byte	0x1
 5080 11fb 50       		.byte	0x50
 5081 11fc 03       		.byte	0x3
 5082 11fd 0A       		.byte	0xa
 5083 11fe 0080     		.2byte	0x8000
 5084 1200 00       		.byte	0
 5085 1201 00       		.byte	0
 5086 1202 1C       		.uleb128 0x1c
 5087 1203 4A000000 		.4byte	.LVL68
 5088 1207 0E0C0000 		.4byte	0xc0e
 5089 120b 23       		.uleb128 0x23
 5090 120c 52000000 		.4byte	.LVL69
 5091 1210 4E0A0000 		.4byte	0xa4e
 5092 1214 1E       		.uleb128 0x1e
 5093 1215 01       		.byte	0x1
 5094 1216 51       		.byte	0x51
 5095 1217 01       		.byte	0x1
 5096 1218 31       		.byte	0x31
 5097 1219 1E       		.uleb128 0x1e
 5098 121a 01       		.byte	0x1
 5099 121b 50       		.byte	0x50
 5100 121c 01       		.byte	0x1
 5101 121d 32       		.byte	0x32
ARM GAS  C:\Users\CNous\AppData\Local\Temp\ccPT5vWC.s 			page 128


 5102 121e 00       		.byte	0
 5103 121f 00       		.byte	0
 5104 1220 00       		.byte	0
 5105 1221 00       		.byte	0
 5106 1222 13       		.uleb128 0x13
 5107 1223 97000000 		.4byte	.LASF240
 5108 1227 01       		.byte	0x1
 5109 1228 DE02     		.2byte	0x2de
 5110 122a 01       		.byte	0x1
 5111 122b A8020000 		.4byte	0x2a8
 5112 122f 01       		.byte	0x1
 5113 1230 4D120000 		.4byte	0x124d
 5114 1234 16       		.uleb128 0x16
 5115 1235 436D6400 		.ascii	"Cmd\000"
 5116 1239 01       		.byte	0x1
 5117 123a DE02     		.2byte	0x2de
 5118 123c A8020000 		.4byte	0x2a8
 5119 1240 15       		.uleb128 0x15
 5120 1241 61090000 		.4byte	.LASF218
 5121 1245 01       		.byte	0x1
 5122 1246 E002     		.2byte	0x2e0
 5123 1248 A8020000 		.4byte	0x2a8
 5124 124c 00       		.byte	0
 5125 124d 30       		.uleb128 0x30
 5126 124e 01       		.byte	0x1
 5127 124f D20A0000 		.4byte	.LASF242
 5128 1253 01       		.byte	0x1
 5129 1254 8201     		.2byte	0x182
 5130 1256 01       		.byte	0x1
 5131 1257 A8020000 		.4byte	0x2a8
 5132 125b 00000000 		.4byte	.LFB114
 5133 125f 9C000000 		.4byte	.LFE114
 5134 1263 6E020000 		.4byte	.LLST16
 5135 1267 01       		.byte	0x1
 5136 1268 C7130000 		.4byte	0x13c7
 5137 126c 33       		.uleb128 0x33
 5138 126d 436D6400 		.ascii	"Cmd\000"
 5139 1271 01       		.byte	0x1
 5140 1272 8201     		.2byte	0x182
 5141 1274 A8020000 		.4byte	0x2a8
 5142 1278 8E020000 		.4byte	.LLST17
 5143 127c 27       		.uleb128 0x27
 5144 127d 22120000 		.4byte	0x1222
 5145 1281 02000000 		.4byte	.LBB80
 5146 1285 C0010000 		.4byte	.Ldebug_ranges0+0x1c0
 5147 1289 01       		.byte	0x1
 5148 128a 8501     		.2byte	0x185
 5149 128c 25130000 		.4byte	0x1325
 5150 1290 25       		.uleb128 0x25
 5151 1291 34120000 		.4byte	0x1234
 5152 1295 8E020000 		.4byte	.LLST17
 5153 1299 29       		.uleb128 0x29
 5154 129a D8010000 		.4byte	.Ldebug_ranges0+0x1d8
 5155 129e 2A       		.uleb128 0x2a
 5156 129f 40120000 		.4byte	0x1240
 5157 12a3 C8020000 		.4byte	.LLST19
 5158 12a7 27       		.uleb128 0x27
ARM GAS  C:\Users\CNous\AppData\Local\Temp\ccPT5vWC.s 			page 129


 5159 12a8 850A0000 		.4byte	0xa85
 5160 12ac 04000000 		.4byte	.LBB82
 5161 12b0 F0010000 		.4byte	.Ldebug_ranges0+0x1f0
 5162 12b4 01       		.byte	0x1
 5163 12b5 EE02     		.2byte	0x2ee
 5164 12b7 E3120000 		.4byte	0x12e3
 5165 12bb 25       		.uleb128 0x25
 5166 12bc 970A0000 		.4byte	0xa97
 5167 12c0 3E030000 		.4byte	.LLST20
 5168 12c4 29       		.uleb128 0x29
 5169 12c5 08020000 		.4byte	.Ldebug_ranges0+0x208
 5170 12c9 2A       		.uleb128 0x2a
 5171 12ca A30A0000 		.4byte	0xaa3
 5172 12ce 6A030000 		.4byte	.LLST21
 5173 12d2 23       		.uleb128 0x23
 5174 12d3 0E000000 		.4byte	.LVL83
 5175 12d7 4E0A0000 		.4byte	0xa4e
 5176 12db 1E       		.uleb128 0x1e
 5177 12dc 01       		.byte	0x1
 5178 12dd 50       		.byte	0x50
 5179 12de 01       		.byte	0x1
 5180 12df 34       		.byte	0x34
 5181 12e0 00       		.byte	0
 5182 12e1 00       		.byte	0
 5183 12e2 00       		.byte	0
 5184 12e3 1D       		.uleb128 0x1d
 5185 12e4 18000000 		.4byte	.LVL86
 5186 12e8 4E0A0000 		.4byte	0xa4e
 5187 12ec F6120000 		.4byte	0x12f6
 5188 12f0 1E       		.uleb128 0x1e
 5189 12f1 01       		.byte	0x1
 5190 12f2 50       		.byte	0x50
 5191 12f3 01       		.byte	0x1
 5192 12f4 34       		.byte	0x34
 5193 12f5 00       		.byte	0
 5194 12f6 1D       		.uleb128 0x1d
 5195 12f7 22000000 		.4byte	.LVL89
 5196 12fb 4E0A0000 		.4byte	0xa4e
 5197 12ff 0F130000 		.4byte	0x130f
 5198 1303 1E       		.uleb128 0x1e
 5199 1304 01       		.byte	0x1
 5200 1305 51       		.byte	0x51
 5201 1306 02       		.byte	0x2
 5202 1307 09       		.byte	0x9
 5203 1308 9E       		.byte	0x9e
 5204 1309 1E       		.uleb128 0x1e
 5205 130a 01       		.byte	0x1
 5206 130b 50       		.byte	0x50
 5207 130c 01       		.byte	0x1
 5208 130d 32       		.byte	0x32
 5209 130e 00       		.byte	0
 5210 130f 23       		.uleb128 0x23
 5211 1310 64000000 		.4byte	.LVL100
 5212 1314 4E0A0000 		.4byte	0xa4e
 5213 1318 1E       		.uleb128 0x1e
 5214 1319 01       		.byte	0x1
 5215 131a 51       		.byte	0x51
ARM GAS  C:\Users\CNous\AppData\Local\Temp\ccPT5vWC.s 			page 130


 5216 131b 01       		.byte	0x1
 5217 131c 31       		.byte	0x31
 5218 131d 1E       		.uleb128 0x1e
 5219 131e 01       		.byte	0x1
 5220 131f 50       		.byte	0x50
 5221 1320 01       		.byte	0x1
 5222 1321 32       		.byte	0x32
 5223 1322 00       		.byte	0
 5224 1323 00       		.byte	0
 5225 1324 00       		.byte	0
 5226 1325 27       		.uleb128 0x27
 5227 1326 F60A0000 		.4byte	0xaf6
 5228 132a 2C000000 		.4byte	.LBB87
 5229 132e 20020000 		.4byte	.Ldebug_ranges0+0x220
 5230 1332 01       		.byte	0x1
 5231 1333 8C01     		.2byte	0x18c
 5232 1335 BD130000 		.4byte	0x13bd
 5233 1339 22       		.uleb128 0x22
 5234 133a 040B0000 		.4byte	0xb04
 5235 133e 29       		.uleb128 0x29
 5236 133f 38020000 		.4byte	.Ldebug_ranges0+0x238
 5237 1343 22       		.uleb128 0x22
 5238 1344 100B0000 		.4byte	0xb10
 5239 1348 1D       		.uleb128 0x1d
 5240 1349 3E000000 		.4byte	.LVL94
 5241 134d 2E220000 		.4byte	0x222e
 5242 1351 66130000 		.4byte	0x1366
 5243 1355 1E       		.uleb128 0x1e
 5244 1356 01       		.byte	0x1
 5245 1357 52       		.byte	0x52
 5246 1358 01       		.byte	0x1
 5247 1359 31       		.byte	0x31
 5248 135a 1E       		.uleb128 0x1e
 5249 135b 01       		.byte	0x1
 5250 135c 51       		.byte	0x51
 5251 135d 01       		.byte	0x1
 5252 135e 32       		.byte	0x32
 5253 135f 1E       		.uleb128 0x1e
 5254 1360 01       		.byte	0x1
 5255 1361 50       		.byte	0x50
 5256 1362 02       		.byte	0x2
 5257 1363 75       		.byte	0x75
 5258 1364 00       		.sleb128 0
 5259 1365 00       		.byte	0
 5260 1366 1D       		.uleb128 0x1d
 5261 1367 48000000 		.4byte	.LVL95
 5262 136b 71210000 		.4byte	0x2171
 5263 136f 79130000 		.4byte	0x1379
 5264 1373 1E       		.uleb128 0x1e
 5265 1374 01       		.byte	0x1
 5266 1375 51       		.byte	0x51
 5267 1376 01       		.byte	0x1
 5268 1377 31       		.byte	0x31
 5269 1378 00       		.byte	0
 5270 1379 1D       		.uleb128 0x1d
 5271 137a 78000000 		.4byte	.LVL102
 5272 137e 2E220000 		.4byte	0x222e
ARM GAS  C:\Users\CNous\AppData\Local\Temp\ccPT5vWC.s 			page 131


 5273 1382 92130000 		.4byte	0x1392
 5274 1386 1E       		.uleb128 0x1e
 5275 1387 01       		.byte	0x1
 5276 1388 52       		.byte	0x52
 5277 1389 02       		.byte	0x2
 5278 138a 74       		.byte	0x74
 5279 138b 00       		.sleb128 0
 5280 138c 1E       		.uleb128 0x1e
 5281 138d 01       		.byte	0x1
 5282 138e 51       		.byte	0x51
 5283 138f 01       		.byte	0x1
 5284 1390 32       		.byte	0x32
 5285 1391 00       		.byte	0
 5286 1392 1D       		.uleb128 0x1d
 5287 1393 82000000 		.4byte	.LVL103
 5288 1397 71210000 		.4byte	0x2171
 5289 139b A6130000 		.4byte	0x13a6
 5290 139f 1E       		.uleb128 0x1e
 5291 13a0 01       		.byte	0x1
 5292 13a1 51       		.byte	0x51
 5293 13a2 02       		.byte	0x2
 5294 13a3 74       		.byte	0x74
 5295 13a4 00       		.sleb128 0
 5296 13a5 00       		.byte	0
 5297 13a6 23       		.uleb128 0x23
 5298 13a7 8E000000 		.4byte	.LVL105
 5299 13ab DF210000 		.4byte	0x21df
 5300 13af 1E       		.uleb128 0x1e
 5301 13b0 01       		.byte	0x1
 5302 13b1 51       		.byte	0x51
 5303 13b2 01       		.byte	0x1
 5304 13b3 31       		.byte	0x31
 5305 13b4 1E       		.uleb128 0x1e
 5306 13b5 01       		.byte	0x1
 5307 13b6 50       		.byte	0x50
 5308 13b7 02       		.byte	0x2
 5309 13b8 75       		.byte	0x75
 5310 13b9 00       		.sleb128 0
 5311 13ba 00       		.byte	0
 5312 13bb 00       		.byte	0
 5313 13bc 00       		.byte	0
 5314 13bd 1C       		.uleb128 0x1c
 5315 13be 5A000000 		.4byte	.LVL97
 5316 13c2 F00E0000 		.4byte	0xef0
 5317 13c6 00       		.byte	0
 5318 13c7 13       		.uleb128 0x13
 5319 13c8 AB0A0000 		.4byte	.LASF244
 5320 13cc 01       		.byte	0x1
 5321 13cd 0503     		.2byte	0x305
 5322 13cf 01       		.byte	0x1
 5323 13d0 A8020000 		.4byte	0x2a8
 5324 13d4 01       		.byte	0x1
 5325 13d5 F2130000 		.4byte	0x13f2
 5326 13d9 14       		.uleb128 0x14
 5327 13da 7E0B0000 		.4byte	.LASF245
 5328 13de 01       		.byte	0x1
 5329 13df 0503     		.2byte	0x305
ARM GAS  C:\Users\CNous\AppData\Local\Temp\ccPT5vWC.s 			page 132


 5330 13e1 A8020000 		.4byte	0x2a8
 5331 13e5 15       		.uleb128 0x15
 5332 13e6 61090000 		.4byte	.LASF218
 5333 13ea 01       		.byte	0x1
 5334 13eb 0703     		.2byte	0x307
 5335 13ed A8020000 		.4byte	0x2a8
 5336 13f1 00       		.byte	0
 5337 13f2 18       		.uleb128 0x18
 5338 13f3 A9000000 		.4byte	.LASF246
 5339 13f7 01       		.byte	0x1
 5340 13f8 3306     		.2byte	0x633
 5341 13fa 01       		.byte	0x1
 5342 13fb 01       		.byte	0x1
 5343 13fc 30       		.uleb128 0x30
 5344 13fd 01       		.byte	0x1
 5345 13fe 68050000 		.4byte	.LASF247
 5346 1402 01       		.byte	0x1
 5347 1403 9C01     		.2byte	0x19c
 5348 1405 01       		.byte	0x1
 5349 1406 A8020000 		.4byte	0x2a8
 5350 140a 00000000 		.4byte	.LFB115
 5351 140e 9C000000 		.4byte	.LFE115
 5352 1412 94030000 		.4byte	.LLST22
 5353 1416 01       		.byte	0x1
 5354 1417 00150000 		.4byte	0x1500
 5355 141b 2F       		.uleb128 0x2f
 5356 141c 4C090000 		.4byte	.LASF248
 5357 1420 01       		.byte	0x1
 5358 1421 9C01     		.2byte	0x19c
 5359 1423 A8020000 		.4byte	0x2a8
 5360 1427 B4030000 		.4byte	.LLST23
 5361 142b 27       		.uleb128 0x27
 5362 142c C7130000 		.4byte	0x13c7
 5363 1430 08000000 		.4byte	.LBB100
 5364 1434 50020000 		.4byte	.Ldebug_ranges0+0x250
 5365 1438 01       		.byte	0x1
 5366 1439 9F01     		.2byte	0x19f
 5367 143b B4140000 		.4byte	0x14b4
 5368 143f 25       		.uleb128 0x25
 5369 1440 D9130000 		.4byte	0x13d9
 5370 1444 F9030000 		.4byte	.LLST24
 5371 1448 29       		.uleb128 0x29
 5372 1449 68020000 		.4byte	.Ldebug_ranges0+0x268
 5373 144d 2A       		.uleb128 0x2a
 5374 144e E5130000 		.4byte	0x13e5
 5375 1452 3E040000 		.4byte	.LLST25
 5376 1456 21       		.uleb128 0x21
 5377 1457 DB0A0000 		.4byte	0xadb
 5378 145b 1A000000 		.4byte	.LBB102
 5379 145f 1E000000 		.4byte	.LBE102
 5380 1463 01       		.byte	0x1
 5381 1464 1703     		.2byte	0x317
 5382 1466 70140000 		.4byte	0x1470
 5383 146a 22       		.uleb128 0x22
 5384 146b E90A0000 		.4byte	0xae9
 5385 146f 00       		.byte	0
 5386 1470 1D       		.uleb128 0x1d
ARM GAS  C:\Users\CNous\AppData\Local\Temp\ccPT5vWC.s 			page 133


 5387 1471 14000000 		.4byte	.LVL109
 5388 1475 4E0A0000 		.4byte	0xa4e
 5389 1479 89140000 		.4byte	0x1489
 5390 147d 1E       		.uleb128 0x1e
 5391 147e 01       		.byte	0x1
 5392 147f 51       		.byte	0x51
 5393 1480 02       		.byte	0x2
 5394 1481 09       		.byte	0x9
 5395 1482 9F       		.byte	0x9f
 5396 1483 1E       		.uleb128 0x1e
 5397 1484 01       		.byte	0x1
 5398 1485 50       		.byte	0x50
 5399 1486 01       		.byte	0x1
 5400 1487 32       		.byte	0x32
 5401 1488 00       		.byte	0
 5402 1489 1D       		.uleb128 0x1d
 5403 148a 2C000000 		.4byte	.LVL114
 5404 148e 27200000 		.4byte	0x2027
 5405 1492 9C140000 		.4byte	0x149c
 5406 1496 1E       		.uleb128 0x1e
 5407 1497 01       		.byte	0x1
 5408 1498 51       		.byte	0x51
 5409 1499 01       		.byte	0x1
 5410 149a 40       		.byte	0x40
 5411 149b 00       		.byte	0
 5412 149c 23       		.uleb128 0x23
 5413 149d 7A000000 		.4byte	.LVL119
 5414 14a1 4E0A0000 		.4byte	0xa4e
 5415 14a5 1E       		.uleb128 0x1e
 5416 14a6 01       		.byte	0x1
 5417 14a7 51       		.byte	0x51
 5418 14a8 02       		.byte	0x2
 5419 14a9 09       		.byte	0x9
 5420 14aa 9F       		.byte	0x9f
 5421 14ab 1E       		.uleb128 0x1e
 5422 14ac 01       		.byte	0x1
 5423 14ad 50       		.byte	0x50
 5424 14ae 02       		.byte	0x2
 5425 14af 74       		.byte	0x74
 5426 14b0 00       		.sleb128 0
 5427 14b1 00       		.byte	0
 5428 14b2 00       		.byte	0
 5429 14b3 00       		.byte	0
 5430 14b4 21       		.uleb128 0x21
 5431 14b5 F2130000 		.4byte	0x13f2
 5432 14b9 32000000 		.4byte	.LBB105
 5433 14bd 66000000 		.4byte	.LBE105
 5434 14c1 01       		.byte	0x1
 5435 14c2 A601     		.2byte	0x1a6
 5436 14c4 F6140000 		.4byte	0x14f6
 5437 14c8 1D       		.uleb128 0x1d
 5438 14c9 3C000000 		.4byte	.LVL115
 5439 14cd 71210000 		.4byte	0x2171
 5440 14d1 DC140000 		.4byte	0x14dc
 5441 14d5 1E       		.uleb128 0x1e
 5442 14d6 01       		.byte	0x1
 5443 14d7 51       		.byte	0x51
ARM GAS  C:\Users\CNous\AppData\Local\Temp\ccPT5vWC.s 			page 134


 5444 14d8 02       		.byte	0x2
 5445 14d9 74       		.byte	0x74
 5446 14da 00       		.sleb128 0
 5447 14db 00       		.byte	0
 5448 14dc 1C       		.uleb128 0x1c
 5449 14dd 58000000 		.4byte	.LVL116
 5450 14e1 F31F0000 		.4byte	0x1ff3
 5451 14e5 23       		.uleb128 0x23
 5452 14e6 66000000 		.4byte	.LVL117
 5453 14ea DF210000 		.4byte	0x21df
 5454 14ee 1E       		.uleb128 0x1e
 5455 14ef 01       		.byte	0x1
 5456 14f0 51       		.byte	0x51
 5457 14f1 02       		.byte	0x2
 5458 14f2 74       		.byte	0x74
 5459 14f3 00       		.sleb128 0
 5460 14f4 00       		.byte	0
 5461 14f5 00       		.byte	0
 5462 14f6 1C       		.uleb128 0x1c
 5463 14f7 08000000 		.4byte	.LVL108
 5464 14fb F00E0000 		.4byte	0xef0
 5465 14ff 00       		.byte	0
 5466 1500 34       		.uleb128 0x34
 5467 1501 01       		.byte	0x1
 5468 1502 48010000 		.4byte	.LASF249
 5469 1506 01       		.byte	0x1
 5470 1507 B601     		.2byte	0x1b6
 5471 1509 01       		.byte	0x1
 5472 150a A8020000 		.4byte	0x2a8
 5473 150e 00000000 		.4byte	.LFB116
 5474 1512 24000000 		.4byte	.LFE116
 5475 1516 02       		.byte	0x2
 5476 1517 7D       		.byte	0x7d
 5477 1518 00       		.sleb128 0
 5478 1519 01       		.byte	0x1
 5479 151a 39150000 		.4byte	0x1539
 5480 151e 2F       		.uleb128 0x2f
 5481 151f F3100000 		.4byte	.LASF220
 5482 1523 01       		.byte	0x1
 5483 1524 B601     		.2byte	0x1b6
 5484 1526 6B020000 		.4byte	0x26b
 5485 152a 7F040000 		.4byte	.LLST26
 5486 152e 1F       		.uleb128 0x1f
 5487 152f 20000000 		.4byte	.LVL123
 5488 1533 01       		.byte	0x1
 5489 1534 B00A0000 		.4byte	0xab0
 5490 1538 00       		.byte	0
 5491 1539 34       		.uleb128 0x34
 5492 153a 01       		.byte	0x1
 5493 153b B70B0000 		.4byte	.LASF250
 5494 153f 01       		.byte	0x1
 5495 1540 C201     		.2byte	0x1c2
 5496 1542 01       		.byte	0x1
 5497 1543 A8020000 		.4byte	0x2a8
 5498 1547 00000000 		.4byte	.LFB117
 5499 154b 18000000 		.4byte	.LFE117
 5500 154f 02       		.byte	0x2
ARM GAS  C:\Users\CNous\AppData\Local\Temp\ccPT5vWC.s 			page 135


 5501 1550 7D       		.byte	0x7d
 5502 1551 00       		.sleb128 0
 5503 1552 01       		.byte	0x1
 5504 1553 AC150000 		.4byte	0x15ac
 5505 1557 33       		.uleb128 0x33
 5506 1558 436D6400 		.ascii	"Cmd\000"
 5507 155c 01       		.byte	0x1
 5508 155d C201     		.2byte	0x1c2
 5509 155f A8020000 		.4byte	0x2a8
 5510 1563 B9040000 		.4byte	.LLST27
 5511 1567 27       		.uleb128 0x27
 5512 1568 850A0000 		.4byte	0xa85
 5513 156c 00000000 		.4byte	.LBB110
 5514 1570 80020000 		.4byte	.Ldebug_ranges0+0x280
 5515 1574 01       		.byte	0x1
 5516 1575 C501     		.2byte	0x1c5
 5517 1577 A1150000 		.4byte	0x15a1
 5518 157b 25       		.uleb128 0x25
 5519 157c 970A0000 		.4byte	0xa97
 5520 1580 B9040000 		.4byte	.LLST27
 5521 1584 29       		.uleb128 0x29
 5522 1585 98020000 		.4byte	.Ldebug_ranges0+0x298
 5523 1589 26       		.uleb128 0x26
 5524 158a A30A0000 		.4byte	0xaa3
 5525 158e 00       		.byte	0
 5526 158f 2D       		.uleb128 0x2d
 5527 1590 0E000000 		.4byte	.LVL127
 5528 1594 01       		.byte	0x1
 5529 1595 4E0A0000 		.4byte	0xa4e
 5530 1599 1E       		.uleb128 0x1e
 5531 159a 01       		.byte	0x1
 5532 159b 50       		.byte	0x50
 5533 159c 01       		.byte	0x1
 5534 159d 34       		.byte	0x34
 5535 159e 00       		.byte	0
 5536 159f 00       		.byte	0
 5537 15a0 00       		.byte	0
 5538 15a1 1F       		.uleb128 0x1f
 5539 15a2 12000000 		.4byte	.LVL128
 5540 15a6 01       		.byte	0x1
 5541 15a7 F00E0000 		.4byte	0xef0
 5542 15ab 00       		.byte	0
 5543 15ac 35       		.uleb128 0x35
 5544 15ad 01       		.byte	0x1
 5545 15ae 67100000 		.4byte	.LASF252
 5546 15b2 01       		.byte	0x1
 5547 15b3 3102     		.2byte	0x231
 5548 15b5 01       		.byte	0x1
 5549 15b6 00000000 		.4byte	.LFB119
 5550 15ba 04000000 		.4byte	.LFE119
 5551 15be 02       		.byte	0x2
 5552 15bf 7D       		.byte	0x7d
 5553 15c0 00       		.sleb128 0
 5554 15c1 01       		.byte	0x1
 5555 15c2 D1150000 		.4byte	0x15d1
 5556 15c6 1F       		.uleb128 0x1f
 5557 15c7 04000000 		.4byte	.LVL129
ARM GAS  C:\Users\CNous\AppData\Local\Temp\ccPT5vWC.s 			page 136


 5558 15cb 01       		.byte	0x1
 5559 15cc 780B0000 		.4byte	0xb78
 5560 15d0 00       		.byte	0
 5561 15d1 35       		.uleb128 0x35
 5562 15d2 01       		.byte	0x1
 5563 15d3 A6090000 		.4byte	.LASF253
 5564 15d7 01       		.byte	0x1
 5565 15d8 3B02     		.2byte	0x23b
 5566 15da 01       		.byte	0x1
 5567 15db 00000000 		.4byte	.LFB120
 5568 15df 04000000 		.4byte	.LFE120
 5569 15e3 02       		.byte	0x2
 5570 15e4 7D       		.byte	0x7d
 5571 15e5 00       		.sleb128 0
 5572 15e6 01       		.byte	0x1
 5573 15e7 F6150000 		.4byte	0x15f6
 5574 15eb 1F       		.uleb128 0x1f
 5575 15ec 04000000 		.4byte	.LVL130
 5576 15f0 01       		.byte	0x1
 5577 15f1 780B0000 		.4byte	0xb78
 5578 15f5 00       		.byte	0
 5579 15f6 2E       		.uleb128 0x2e
 5580 15f7 01       		.byte	0x1
 5581 15f8 75090000 		.4byte	.LASF254
 5582 15fc 01       		.byte	0x1
 5583 15fd 4502     		.2byte	0x245
 5584 15ff 01       		.byte	0x1
 5585 1600 00000000 		.4byte	.LFB121
 5586 1604 44000000 		.4byte	.LFE121
 5587 1608 F3040000 		.4byte	.LLST29
 5588 160c 01       		.byte	0x1
 5589 160d 50160000 		.4byte	0x1650
 5590 1611 1D       		.uleb128 0x1d
 5591 1612 10000000 		.4byte	.LVL131
 5592 1616 4D220000 		.4byte	0x224d
 5593 161a 24160000 		.4byte	0x1624
 5594 161e 1E       		.uleb128 0x1e
 5595 161f 01       		.byte	0x1
 5596 1620 51       		.byte	0x51
 5597 1621 01       		.byte	0x1
 5598 1622 32       		.byte	0x32
 5599 1623 00       		.byte	0
 5600 1624 1C       		.uleb128 0x1c
 5601 1625 1E000000 		.4byte	.LVL132
 5602 1629 6B220000 		.4byte	0x226b
 5603 162d 1F       		.uleb128 0x1f
 5604 162e 30000000 		.4byte	.LVL133
 5605 1632 01       		.byte	0x1
 5606 1633 7A220000 		.4byte	0x227a
 5607 1637 1C       		.uleb128 0x1c
 5608 1638 36000000 		.4byte	.LVL134
 5609 163c 6B220000 		.4byte	0x226b
 5610 1640 23       		.uleb128 0x23
 5611 1641 3E000000 		.4byte	.LVL135
 5612 1645 94220000 		.4byte	0x2294
 5613 1649 1E       		.uleb128 0x1e
 5614 164a 01       		.byte	0x1
ARM GAS  C:\Users\CNous\AppData\Local\Temp\ccPT5vWC.s 			page 137


 5615 164b 50       		.byte	0x50
 5616 164c 01       		.byte	0x1
 5617 164d 34       		.byte	0x34
 5618 164e 00       		.byte	0
 5619 164f 00       		.byte	0
 5620 1650 2E       		.uleb128 0x2e
 5621 1651 01       		.byte	0x1
 5622 1652 BA080000 		.4byte	.LASF255
 5623 1656 01       		.byte	0x1
 5624 1657 E005     		.2byte	0x5e0
 5625 1659 01       		.byte	0x1
 5626 165a 00000000 		.4byte	.LFB141
 5627 165e 64000000 		.4byte	.LFE141
 5628 1662 13050000 		.4byte	.LLST30
 5629 1666 01       		.byte	0x1
 5630 1667 F1160000 		.4byte	0x16f1
 5631 166b 2F       		.uleb128 0x2f
 5632 166c EA060000 		.4byte	.LASF224
 5633 1670 01       		.byte	0x1
 5634 1671 E005     		.2byte	0x5e0
 5635 1673 A8020000 		.4byte	0x2a8
 5636 1677 33050000 		.4byte	.LLST31
 5637 167b 2F       		.uleb128 0x2f
 5638 167c DA020000 		.4byte	.LASF229
 5639 1680 01       		.byte	0x1
 5640 1681 E005     		.2byte	0x5e0
 5641 1683 A8020000 		.4byte	0x2a8
 5642 1687 8B050000 		.4byte	.LLST32
 5643 168b 1D       		.uleb128 0x1d
 5644 168c 1A000000 		.4byte	.LVL139
 5645 1690 AE220000 		.4byte	0x22ae
 5646 1694 A2160000 		.4byte	0x16a2
 5647 1698 1E       		.uleb128 0x1e
 5648 1699 01       		.byte	0x1
 5649 169a 51       		.byte	0x51
 5650 169b 05       		.byte	0x5
 5651 169c 03       		.byte	0x3
 5652 169d 00000000 		.4byte	DMA_InitStructure
 5653 16a1 00       		.byte	0
 5654 16a2 1D       		.uleb128 0x1d
 5655 16a3 22000000 		.4byte	.LVL140
 5656 16a7 71210000 		.4byte	0x2171
 5657 16ab B5160000 		.4byte	0x16b5
 5658 16af 1E       		.uleb128 0x1e
 5659 16b0 01       		.byte	0x1
 5660 16b1 51       		.byte	0x51
 5661 16b2 01       		.byte	0x1
 5662 16b3 31       		.byte	0x31
 5663 16b4 00       		.byte	0
 5664 16b5 36       		.uleb128 0x36
 5665 16b6 40000000 		.4byte	.LVL141
 5666 16ba 01       		.byte	0x1
 5667 16bb DF210000 		.4byte	0x21df
 5668 16bf C9160000 		.4byte	0x16c9
 5669 16c3 1E       		.uleb128 0x1e
 5670 16c4 01       		.byte	0x1
 5671 16c5 51       		.byte	0x51
ARM GAS  C:\Users\CNous\AppData\Local\Temp\ccPT5vWC.s 			page 138


 5672 16c6 01       		.byte	0x1
 5673 16c7 31       		.byte	0x31
 5674 16c8 00       		.byte	0
 5675 16c9 1D       		.uleb128 0x1d
 5676 16ca 4E000000 		.4byte	.LVL144
 5677 16ce AE220000 		.4byte	0x22ae
 5678 16d2 E0160000 		.4byte	0x16e0
 5679 16d6 1E       		.uleb128 0x1e
 5680 16d7 01       		.byte	0x1
 5681 16d8 51       		.byte	0x51
 5682 16d9 05       		.byte	0x5
 5683 16da 03       		.byte	0x3
 5684 16db 00000000 		.4byte	DMA_InitStructure
 5685 16df 00       		.byte	0
 5686 16e0 23       		.uleb128 0x23
 5687 16e1 56000000 		.4byte	.LVL145
 5688 16e5 71210000 		.4byte	0x2171
 5689 16e9 1E       		.uleb128 0x1e
 5690 16ea 01       		.byte	0x1
 5691 16eb 51       		.byte	0x51
 5692 16ec 02       		.byte	0x2
 5693 16ed 74       		.byte	0x74
 5694 16ee 00       		.sleb128 0
 5695 16ef 00       		.byte	0
 5696 16f0 00       		.byte	0
 5697 16f1 30       		.uleb128 0x30
 5698 16f2 01       		.byte	0x1
 5699 16f3 6F0D0000 		.4byte	.LASF256
 5700 16f7 01       		.byte	0x1
 5701 16f8 6101     		.2byte	0x161
 5702 16fa 01       		.byte	0x1
 5703 16fb A8020000 		.4byte	0x2a8
 5704 16ff 00000000 		.4byte	.LFB113
 5705 1703 44000000 		.4byte	.LFE113
 5706 1707 E3050000 		.4byte	.LLST33
 5707 170b 01       		.byte	0x1
 5708 170c 5A170000 		.4byte	0x175a
 5709 1710 2F       		.uleb128 0x2f
 5710 1711 A4060000 		.4byte	.LASF257
 5711 1715 01       		.byte	0x1
 5712 1716 6101     		.2byte	0x161
 5713 1718 080C0000 		.4byte	0xc08
 5714 171c 03060000 		.4byte	.LLST34
 5715 1720 2F       		.uleb128 0x2f
 5716 1721 DA020000 		.4byte	.LASF229
 5717 1725 01       		.byte	0x1
 5718 1726 6101     		.2byte	0x161
 5719 1728 A8020000 		.4byte	0x2a8
 5720 172c 21060000 		.4byte	.LLST35
 5721 1730 23       		.uleb128 0x23
 5722 1731 1E000000 		.4byte	.LVL148
 5723 1735 50160000 		.4byte	0x1650
 5724 1739 1E       		.uleb128 0x1e
 5725 173a 01       		.byte	0x1
 5726 173b 51       		.byte	0x51
 5727 173c 15       		.byte	0x15
 5728 173d 75       		.byte	0x75
ARM GAS  C:\Users\CNous\AppData\Local\Temp\ccPT5vWC.s 			page 139


 5729 173e 00       		.sleb128 0
 5730 173f 12       		.byte	0x12
 5731 1740 40       		.byte	0x40
 5732 1741 4B       		.byte	0x4b
 5733 1742 24       		.byte	0x24
 5734 1743 22       		.byte	0x22
 5735 1744 76       		.byte	0x76
 5736 1745 00       		.sleb128 0
 5737 1746 16       		.byte	0x16
 5738 1747 14       		.byte	0x14
 5739 1748 40       		.byte	0x40
 5740 1749 4B       		.byte	0x4b
 5741 174a 24       		.byte	0x24
 5742 174b 22       		.byte	0x22
 5743 174c 2D       		.byte	0x2d
 5744 174d 28       		.byte	0x28
 5745 174e 0100     		.2byte	0x1
 5746 1750 16       		.byte	0x16
 5747 1751 13       		.byte	0x13
 5748 1752 1E       		.uleb128 0x1e
 5749 1753 01       		.byte	0x1
 5750 1754 50       		.byte	0x50
 5751 1755 02       		.byte	0x2
 5752 1756 77       		.byte	0x77
 5753 1757 00       		.sleb128 0
 5754 1758 00       		.byte	0
 5755 1759 00       		.byte	0
 5756 175a 2E       		.uleb128 0x2e
 5757 175b 01       		.byte	0x1
 5758 175c 29090000 		.4byte	.LASF258
 5759 1760 01       		.byte	0x1
 5760 1761 4906     		.2byte	0x649
 5761 1763 01       		.byte	0x1
 5762 1764 00000000 		.4byte	.LFB144
 5763 1768 50000000 		.4byte	.LFE144
 5764 176c 4D060000 		.4byte	.LLST36
 5765 1770 01       		.byte	0x1
 5766 1771 04180000 		.4byte	0x1804
 5767 1775 1B       		.uleb128 0x1b
 5768 1776 3D120000 		.4byte	.LASF259
 5769 177a 01       		.byte	0x1
 5770 177b 4B06     		.2byte	0x64b
 5771 177d 0D070000 		.4byte	0x70d
 5772 1781 02       		.byte	0x2
 5773 1782 91       		.byte	0x91
 5774 1783 68       		.sleb128 -24
 5775 1784 1B       		.uleb128 0x1b
 5776 1785 8C0D0000 		.4byte	.LASF237
 5777 1789 01       		.byte	0x1
 5778 178a 4C06     		.2byte	0x64c
 5779 178c 0B090000 		.4byte	0x90b
 5780 1790 02       		.byte	0x2
 5781 1791 91       		.byte	0x91
 5782 1792 60       		.sleb128 -32
 5783 1793 1D       		.uleb128 0x1d
 5784 1794 10000000 		.4byte	.LVL150
 5785 1798 CE220000 		.4byte	0x22ce
ARM GAS  C:\Users\CNous\AppData\Local\Temp\ccPT5vWC.s 			page 140


 5786 179c A6170000 		.4byte	0x17a6
 5787 17a0 1E       		.uleb128 0x1e
 5788 17a1 01       		.byte	0x1
 5789 17a2 51       		.byte	0x51
 5790 17a3 01       		.byte	0x1
 5791 17a4 31       		.byte	0x31
 5792 17a5 00       		.byte	0
 5793 17a6 1D       		.uleb128 0x1d
 5794 17a7 1A000000 		.4byte	.LVL151
 5795 17ab 14220000 		.4byte	0x2214
 5796 17af C0170000 		.4byte	0x17c0
 5797 17b3 1E       		.uleb128 0x1e
 5798 17b4 01       		.byte	0x1
 5799 17b5 51       		.byte	0x51
 5800 17b6 01       		.byte	0x1
 5801 17b7 31       		.byte	0x31
 5802 17b8 1E       		.uleb128 0x1e
 5803 17b9 01       		.byte	0x1
 5804 17ba 50       		.byte	0x50
 5805 17bb 03       		.byte	0x3
 5806 17bc 40       		.byte	0x40
 5807 17bd 49       		.byte	0x49
 5808 17be 24       		.byte	0x24
 5809 17bf 00       		.byte	0
 5810 17c0 1D       		.uleb128 0x1d
 5811 17c1 36000000 		.4byte	.LVL152
 5812 17c5 A0210000 		.4byte	0x21a0
 5813 17c9 D4170000 		.4byte	0x17d4
 5814 17cd 1E       		.uleb128 0x1e
 5815 17ce 01       		.byte	0x1
 5816 17cf 51       		.byte	0x51
 5817 17d0 02       		.byte	0x2
 5818 17d1 7D       		.byte	0x7d
 5819 17d2 00       		.sleb128 0
 5820 17d3 00       		.byte	0
 5821 17d4 1D       		.uleb128 0x1d
 5822 17d5 44000000 		.4byte	.LVL153
 5823 17d9 E8220000 		.4byte	0x22e8
 5824 17dd EE170000 		.4byte	0x17ee
 5825 17e1 1E       		.uleb128 0x1e
 5826 17e2 01       		.byte	0x1
 5827 17e3 51       		.byte	0x51
 5828 17e4 02       		.byte	0x2
 5829 17e5 91       		.byte	0x91
 5830 17e6 68       		.sleb128 -24
 5831 17e7 1E       		.uleb128 0x1e
 5832 17e8 01       		.byte	0x1
 5833 17e9 50       		.byte	0x50
 5834 17ea 02       		.byte	0x2
 5835 17eb 74       		.byte	0x74
 5836 17ec 00       		.sleb128 0
 5837 17ed 00       		.byte	0
 5838 17ee 23       		.uleb128 0x23
 5839 17ef 4C000000 		.4byte	.LVL154
 5840 17f3 08230000 		.4byte	0x2308
 5841 17f7 1E       		.uleb128 0x1e
 5842 17f8 01       		.byte	0x1
ARM GAS  C:\Users\CNous\AppData\Local\Temp\ccPT5vWC.s 			page 141


 5843 17f9 51       		.byte	0x51
 5844 17fa 01       		.byte	0x1
 5845 17fb 31       		.byte	0x31
 5846 17fc 1E       		.uleb128 0x1e
 5847 17fd 01       		.byte	0x1
 5848 17fe 50       		.byte	0x50
 5849 17ff 02       		.byte	0x2
 5850 1800 74       		.byte	0x74
 5851 1801 00       		.sleb128 0
 5852 1802 00       		.byte	0
 5853 1803 00       		.byte	0
 5854 1804 17       		.uleb128 0x17
 5855 1805 10060000 		.4byte	.LASF260
 5856 1809 01       		.byte	0x1
 5857 180a 9304     		.2byte	0x493
 5858 180c 01       		.byte	0x1
 5859 180d 01       		.byte	0x1
 5860 180e 1F180000 		.4byte	0x181f
 5861 1812 15       		.uleb128 0x15
 5862 1813 8C0D0000 		.4byte	.LASF237
 5863 1817 01       		.byte	0x1
 5864 1818 9504     		.2byte	0x495
 5865 181a 0B090000 		.4byte	0x90b
 5866 181e 00       		.byte	0
 5867 181f 17       		.uleb128 0x17
 5868 1820 280C0000 		.4byte	.LASF261
 5869 1824 01       		.byte	0x1
 5870 1825 1704     		.2byte	0x417
 5871 1827 01       		.byte	0x1
 5872 1828 01       		.byte	0x1
 5873 1829 3A180000 		.4byte	0x183a
 5874 182d 15       		.uleb128 0x15
 5875 182e 1B020000 		.4byte	.LASF262
 5876 1832 01       		.byte	0x1
 5877 1833 1904     		.2byte	0x419
 5878 1835 73090000 		.4byte	0x973
 5879 1839 00       		.byte	0
 5880 183a 17       		.uleb128 0x17
 5881 183b D6050000 		.4byte	.LASF263
 5882 183f 01       		.byte	0x1
 5883 1840 4104     		.2byte	0x441
 5884 1842 01       		.byte	0x1
 5885 1843 01       		.byte	0x1
 5886 1844 6D180000 		.4byte	0x186d
 5887 1848 14       		.uleb128 0x14
 5888 1849 AE0E0000 		.4byte	.LASF227
 5889 184d 01       		.byte	0x1
 5890 184e 4104     		.2byte	0x441
 5891 1850 A8020000 		.4byte	0x2a8
 5892 1854 15       		.uleb128 0x15
 5893 1855 4D080000 		.4byte	.LASF264
 5894 1859 01       		.byte	0x1
 5895 185a 4304     		.2byte	0x443
 5896 185c DB090000 		.4byte	0x9db
 5897 1860 15       		.uleb128 0x15
 5898 1861 3D120000 		.4byte	.LASF259
 5899 1865 01       		.byte	0x1
ARM GAS  C:\Users\CNous\AppData\Local\Temp\ccPT5vWC.s 			page 142


 5900 1866 4404     		.2byte	0x444
 5901 1868 0D070000 		.4byte	0x70d
 5902 186c 00       		.byte	0
 5903 186d 17       		.uleb128 0x17
 5904 186e 120B0000 		.4byte	.LASF265
 5905 1872 01       		.byte	0x1
 5906 1873 2205     		.2byte	0x522
 5907 1875 01       		.byte	0x1
 5908 1876 01       		.byte	0x1
 5909 1877 88180000 		.4byte	0x1888
 5910 187b 15       		.uleb128 0x15
 5911 187c 87010000 		.4byte	.LASF234
 5912 1880 01       		.byte	0x1
 5913 1881 3305     		.2byte	0x533
 5914 1883 270A0000 		.4byte	0xa27
 5915 1887 00       		.byte	0
 5916 1888 30       		.uleb128 0x30
 5917 1889 01       		.byte	0x1
 5918 188a B60F0000 		.4byte	.LASF266
 5919 188e 01       		.byte	0x1
 5920 188f 3801     		.2byte	0x138
 5921 1891 01       		.byte	0x1
 5922 1892 A8020000 		.4byte	0x2a8
 5923 1896 00000000 		.4byte	.LFB111
 5924 189a 14040000 		.4byte	.LFE111
 5925 189e 79060000 		.4byte	.LLST37
 5926 18a2 01       		.byte	0x1
 5927 18a3 5B1E0000 		.4byte	0x1e5b
 5928 18a7 2F       		.uleb128 0x2f
 5929 18a8 660F0000 		.4byte	.LASF226
 5930 18ac 01       		.byte	0x1
 5931 18ad 3801     		.2byte	0x138
 5932 18af 84020000 		.4byte	0x284
 5933 18b3 A6060000 		.4byte	.LLST38
 5934 18b7 2F       		.uleb128 0x2f
 5935 18b8 F3100000 		.4byte	.LASF220
 5936 18bc 01       		.byte	0x1
 5937 18bd 3801     		.2byte	0x138
 5938 18bf 6B020000 		.4byte	0x26b
 5939 18c3 E0060000 		.4byte	.LLST39
 5940 18c7 2F       		.uleb128 0x2f
 5941 18c8 AE0E0000 		.4byte	.LASF227
 5942 18cc 01       		.byte	0x1
 5943 18cd 3801     		.2byte	0x138
 5944 18cf A8020000 		.4byte	0x2a8
 5945 18d3 1A070000 		.4byte	.LLST40
 5946 18d7 27       		.uleb128 0x27
 5947 18d8 270B0000 		.4byte	0xb27
 5948 18dc 28000000 		.4byte	.LBB124
 5949 18e0 B0020000 		.4byte	.Ldebug_ranges0+0x2b0
 5950 18e4 01       		.byte	0x1
 5951 18e5 3B01     		.2byte	0x13b
 5952 18e7 651D0000 		.4byte	0x1d65
 5953 18eb 25       		.uleb128 0x25
 5954 18ec 510B0000 		.4byte	0xb51
 5955 18f0 9C070000 		.4byte	.LLST41
 5956 18f4 25       		.uleb128 0x25
ARM GAS  C:\Users\CNous\AppData\Local\Temp\ccPT5vWC.s 			page 143


 5957 18f5 450B0000 		.4byte	0xb45
 5958 18f9 08080000 		.4byte	.LLST42
 5959 18fd 29       		.uleb128 0x29
 5960 18fe C8020000 		.4byte	.Ldebug_ranges0+0x2c8
 5961 1902 22       		.uleb128 0x22
 5962 1903 390B0000 		.4byte	0xb39
 5963 1907 2A       		.uleb128 0x2a
 5964 1908 5D0B0000 		.4byte	0xb5d
 5965 190c 31080000 		.4byte	.LLST43
 5966 1910 27       		.uleb128 0x27
 5967 1911 04180000 		.4byte	0x1804
 5968 1915 28000000 		.4byte	.LBB126
 5969 1919 E0020000 		.4byte	.Ldebug_ranges0+0x2e0
 5970 191d 01       		.byte	0x1
 5971 191e 6602     		.2byte	0x266
 5972 1920 891A0000 		.4byte	0x1a89
 5973 1924 29       		.uleb128 0x29
 5974 1925 F8020000 		.4byte	.Ldebug_ranges0+0x2f8
 5975 1929 31       		.uleb128 0x31
 5976 192a 12180000 		.4byte	0x1812
 5977 192e 03       		.byte	0x3
 5978 192f 91       		.byte	0x91
 5979 1930 A87F     		.sleb128 -88
 5980 1932 1D       		.uleb128 0x1d
 5981 1933 30000000 		.4byte	.LVL160
 5982 1937 CE220000 		.4byte	0x22ce
 5983 193b 4A190000 		.4byte	0x194a
 5984 193f 1E       		.uleb128 0x1e
 5985 1940 01       		.byte	0x1
 5986 1941 51       		.byte	0x51
 5987 1942 01       		.byte	0x1
 5988 1943 31       		.byte	0x31
 5989 1944 1E       		.uleb128 0x1e
 5990 1945 01       		.byte	0x1
 5991 1946 50       		.byte	0x50
 5992 1947 01       		.byte	0x1
 5993 1948 38       		.byte	0x38
 5994 1949 00       		.byte	0
 5995 194a 1D       		.uleb128 0x1d
 5996 194b 5C000000 		.4byte	.LVL161
 5997 194f A0210000 		.4byte	0x21a0
 5998 1953 5F190000 		.4byte	0x195f
 5999 1957 1E       		.uleb128 0x1e
 6000 1958 01       		.byte	0x1
 6001 1959 51       		.byte	0x51
 6002 195a 03       		.byte	0x3
 6003 195b 91       		.byte	0x91
 6004 195c A87F     		.sleb128 -88
 6005 195e 00       		.byte	0
 6006 195f 1D       		.uleb128 0x1d
 6007 1960 64000000 		.4byte	.LVL162
 6008 1964 CE220000 		.4byte	0x22ce
 6009 1968 78190000 		.4byte	0x1978
 6010 196c 1E       		.uleb128 0x1e
 6011 196d 01       		.byte	0x1
 6012 196e 51       		.byte	0x51
 6013 196f 02       		.byte	0x2
ARM GAS  C:\Users\CNous\AppData\Local\Temp\ccPT5vWC.s 			page 144


 6014 1970 76       		.byte	0x76
 6015 1971 00       		.sleb128 0
 6016 1972 1E       		.uleb128 0x1e
 6017 1973 01       		.byte	0x1
 6018 1974 50       		.byte	0x50
 6019 1975 01       		.byte	0x1
 6020 1976 37       		.byte	0x37
 6021 1977 00       		.byte	0
 6022 1978 1D       		.uleb128 0x1d
 6023 1979 88000000 		.4byte	.LVL163
 6024 197d A0210000 		.4byte	0x21a0
 6025 1981 8D190000 		.4byte	0x198d
 6026 1985 1E       		.uleb128 0x1e
 6027 1986 01       		.byte	0x1
 6028 1987 51       		.byte	0x51
 6029 1988 03       		.byte	0x3
 6030 1989 91       		.byte	0x91
 6031 198a A87F     		.sleb128 -88
 6032 198c 00       		.byte	0
 6033 198d 1D       		.uleb128 0x1d
 6034 198e 98000000 		.4byte	.LVL164
 6035 1992 C0210000 		.4byte	0x21c0
 6036 1996 A5190000 		.4byte	0x19a5
 6037 199a 1E       		.uleb128 0x1e
 6038 199b 01       		.byte	0x1
 6039 199c 52       		.byte	0x52
 6040 199d 01       		.byte	0x1
 6041 199e 34       		.byte	0x34
 6042 199f 1E       		.uleb128 0x1e
 6043 19a0 01       		.byte	0x1
 6044 19a1 51       		.byte	0x51
 6045 19a2 01       		.byte	0x1
 6046 19a3 36       		.byte	0x36
 6047 19a4 00       		.byte	0
 6048 19a5 1D       		.uleb128 0x1d
 6049 19a6 A8000000 		.4byte	.LVL165
 6050 19aa C0210000 		.4byte	0x21c0
 6051 19ae BD190000 		.4byte	0x19bd
 6052 19b2 1E       		.uleb128 0x1e
 6053 19b3 01       		.byte	0x1
 6054 19b4 52       		.byte	0x52
 6055 19b5 01       		.byte	0x1
 6056 19b6 34       		.byte	0x34
 6057 19b7 1E       		.uleb128 0x1e
 6058 19b8 01       		.byte	0x1
 6059 19b9 51       		.byte	0x51
 6060 19ba 01       		.byte	0x1
 6061 19bb 39       		.byte	0x39
 6062 19bc 00       		.byte	0
 6063 19bd 1D       		.uleb128 0x1d
 6064 19be CC000000 		.4byte	.LVL166
 6065 19c2 A0210000 		.4byte	0x21a0
 6066 19c6 D2190000 		.4byte	0x19d2
 6067 19ca 1E       		.uleb128 0x1e
 6068 19cb 01       		.byte	0x1
 6069 19cc 51       		.byte	0x51
 6070 19cd 03       		.byte	0x3
ARM GAS  C:\Users\CNous\AppData\Local\Temp\ccPT5vWC.s 			page 145


 6071 19ce 91       		.byte	0x91
 6072 19cf A87F     		.sleb128 -88
 6073 19d1 00       		.byte	0
 6074 19d2 1D       		.uleb128 0x1d
 6075 19d3 DA000000 		.4byte	.LVL167
 6076 19d7 C0210000 		.4byte	0x21c0
 6077 19db EA190000 		.4byte	0x19ea
 6078 19df 1E       		.uleb128 0x1e
 6079 19e0 01       		.byte	0x1
 6080 19e1 52       		.byte	0x52
 6081 19e2 01       		.byte	0x1
 6082 19e3 36       		.byte	0x36
 6083 19e4 1E       		.uleb128 0x1e
 6084 19e5 01       		.byte	0x1
 6085 19e6 51       		.byte	0x51
 6086 19e7 01       		.byte	0x1
 6087 19e8 34       		.byte	0x34
 6088 19e9 00       		.byte	0
 6089 19ea 1D       		.uleb128 0x1d
 6090 19eb EC000000 		.4byte	.LVL168
 6091 19ef C0210000 		.4byte	0x21c0
 6092 19f3 021A0000 		.4byte	0x1a02
 6093 19f7 1E       		.uleb128 0x1e
 6094 19f8 01       		.byte	0x1
 6095 19f9 52       		.byte	0x52
 6096 19fa 01       		.byte	0x1
 6097 19fb 36       		.byte	0x36
 6098 19fc 1E       		.uleb128 0x1e
 6099 19fd 01       		.byte	0x1
 6100 19fe 51       		.byte	0x51
 6101 19ff 01       		.byte	0x1
 6102 1a00 3A       		.byte	0x3a
 6103 1a01 00       		.byte	0
 6104 1a02 1D       		.uleb128 0x1d
 6105 1a03 04010000 		.4byte	.LVL169
 6106 1a07 A0210000 		.4byte	0x21a0
 6107 1a0b 171A0000 		.4byte	0x1a17
 6108 1a0f 1E       		.uleb128 0x1e
 6109 1a10 01       		.byte	0x1
 6110 1a11 51       		.byte	0x51
 6111 1a12 03       		.byte	0x3
 6112 1a13 91       		.byte	0x91
 6113 1a14 A87F     		.sleb128 -88
 6114 1a16 00       		.byte	0
 6115 1a17 1D       		.uleb128 0x1d
 6116 1a18 14010000 		.4byte	.LVL170
 6117 1a1c C0210000 		.4byte	0x21c0
 6118 1a20 2F1A0000 		.4byte	0x1a2f
 6119 1a24 1E       		.uleb128 0x1e
 6120 1a25 01       		.byte	0x1
 6121 1a26 52       		.byte	0x52
 6122 1a27 01       		.byte	0x1
 6123 1a28 36       		.byte	0x36
 6124 1a29 1E       		.uleb128 0x1e
 6125 1a2a 01       		.byte	0x1
 6126 1a2b 51       		.byte	0x51
 6127 1a2c 01       		.byte	0x1
ARM GAS  C:\Users\CNous\AppData\Local\Temp\ccPT5vWC.s 			page 146


 6128 1a2d 3C       		.byte	0x3c
 6129 1a2e 00       		.byte	0
 6130 1a2f 1D       		.uleb128 0x1d
 6131 1a30 3A010000 		.4byte	.LVL171
 6132 1a34 A0210000 		.4byte	0x21a0
 6133 1a38 441A0000 		.4byte	0x1a44
 6134 1a3c 1E       		.uleb128 0x1e
 6135 1a3d 01       		.byte	0x1
 6136 1a3e 51       		.byte	0x51
 6137 1a3f 03       		.byte	0x3
 6138 1a40 91       		.byte	0x91
 6139 1a41 A87F     		.sleb128 -88
 6140 1a43 00       		.byte	0
 6141 1a44 1D       		.uleb128 0x1d
 6142 1a45 4A010000 		.4byte	.LVL172
 6143 1a49 C0210000 		.4byte	0x21c0
 6144 1a4d 5C1A0000 		.4byte	0x1a5c
 6145 1a51 1E       		.uleb128 0x1e
 6146 1a52 01       		.byte	0x1
 6147 1a53 52       		.byte	0x52
 6148 1a54 01       		.byte	0x1
 6149 1a55 36       		.byte	0x36
 6150 1a56 1E       		.uleb128 0x1e
 6151 1a57 01       		.byte	0x1
 6152 1a58 51       		.byte	0x51
 6153 1a59 01       		.byte	0x1
 6154 1a5a 37       		.byte	0x37
 6155 1a5b 00       		.byte	0
 6156 1a5c 1D       		.uleb128 0x1d
 6157 1a5d DA020000 		.4byte	.LVL214
 6158 1a61 CE220000 		.4byte	0x22ce
 6159 1a65 761A0000 		.4byte	0x1a76
 6160 1a69 1E       		.uleb128 0x1e
 6161 1a6a 01       		.byte	0x1
 6162 1a6b 51       		.byte	0x51
 6163 1a6c 02       		.byte	0x2
 6164 1a6d 76       		.byte	0x76
 6165 1a6e 00       		.sleb128 0
 6166 1a6f 1E       		.uleb128 0x1e
 6167 1a70 01       		.byte	0x1
 6168 1a71 50       		.byte	0x50
 6169 1a72 02       		.byte	0x2
 6170 1a73 76       		.byte	0x76
 6171 1a74 00       		.sleb128 0
 6172 1a75 00       		.byte	0
 6173 1a76 23       		.uleb128 0x23
 6174 1a77 F4020000 		.4byte	.LVL215
 6175 1a7b A0210000 		.4byte	0x21a0
 6176 1a7f 1E       		.uleb128 0x1e
 6177 1a80 01       		.byte	0x1
 6178 1a81 51       		.byte	0x51
 6179 1a82 03       		.byte	0x3
 6180 1a83 91       		.byte	0x91
 6181 1a84 A87F     		.sleb128 -88
 6182 1a86 00       		.byte	0
 6183 1a87 00       		.byte	0
 6184 1a88 00       		.byte	0
ARM GAS  C:\Users\CNous\AppData\Local\Temp\ccPT5vWC.s 			page 147


 6185 1a89 21       		.uleb128 0x21
 6186 1a8a 1F180000 		.4byte	0x181f
 6187 1a8e 4E010000 		.4byte	.LBB129
 6188 1a92 B2010000 		.4byte	.LBE129
 6189 1a96 01       		.byte	0x1
 6190 1a97 6C02     		.2byte	0x26c
 6191 1a99 0F1B0000 		.4byte	0x1b0f
 6192 1a9d 37       		.uleb128 0x37
 6193 1a9e 4E010000 		.4byte	.LBB130
 6194 1aa2 B2010000 		.4byte	.LBE130
 6195 1aa6 31       		.uleb128 0x31
 6196 1aa7 2D180000 		.4byte	0x182d
 6197 1aab 03       		.byte	0x3
 6198 1aac 91       		.byte	0x91
 6199 1aad B07F     		.sleb128 -80
 6200 1aaf 1D       		.uleb128 0x1d
 6201 1ab0 58010000 		.4byte	.LVL174
 6202 1ab4 14220000 		.4byte	0x2214
 6203 1ab8 C91A0000 		.4byte	0x1ac9
 6204 1abc 1E       		.uleb128 0x1e
 6205 1abd 01       		.byte	0x1
 6206 1abe 51       		.byte	0x51
 6207 1abf 01       		.byte	0x1
 6208 1ac0 31       		.byte	0x31
 6209 1ac1 1E       		.uleb128 0x1e
 6210 1ac2 01       		.byte	0x1
 6211 1ac3 50       		.byte	0x50
 6212 1ac4 03       		.byte	0x3
 6213 1ac5 40       		.byte	0x40
 6214 1ac6 41       		.byte	0x41
 6215 1ac7 24       		.byte	0x24
 6216 1ac8 00       		.byte	0
 6217 1ac9 1C       		.uleb128 0x1c
 6218 1aca 64010000 		.4byte	.LVL175
 6219 1ace 22230000 		.4byte	0x2322
 6220 1ad2 1D       		.uleb128 0x1d
 6221 1ad3 A4010000 		.4byte	.LVL176
 6222 1ad7 37230000 		.4byte	0x2337
 6223 1adb F11A0000 		.4byte	0x1af1
 6224 1adf 1E       		.uleb128 0x1e
 6225 1ae0 01       		.byte	0x1
 6226 1ae1 51       		.byte	0x51
 6227 1ae2 01       		.byte	0x1
 6228 1ae3 31       		.byte	0x31
 6229 1ae4 1E       		.uleb128 0x1e
 6230 1ae5 01       		.byte	0x1
 6231 1ae6 50       		.byte	0x50
 6232 1ae7 08       		.byte	0x8
 6233 1ae8 7A       		.byte	0x7a
 6234 1ae9 00       		.sleb128 0
 6235 1aea 40       		.byte	0x40
 6236 1aeb 24       		.byte	0x24
 6237 1aec 0A       		.byte	0xa
 6238 1aed 0054     		.2byte	0x5400
 6239 1aef 21       		.byte	0x21
 6240 1af0 00       		.byte	0
 6241 1af1 23       		.uleb128 0x23
ARM GAS  C:\Users\CNous\AppData\Local\Temp\ccPT5vWC.s 			page 148


 6242 1af2 B2010000 		.4byte	.LVL177
 6243 1af6 51230000 		.4byte	0x2351
 6244 1afa 1E       		.uleb128 0x1e
 6245 1afb 01       		.byte	0x1
 6246 1afc 51       		.byte	0x51
 6247 1afd 02       		.byte	0x2
 6248 1afe 79       		.byte	0x79
 6249 1aff 00       		.sleb128 0
 6250 1b00 1E       		.uleb128 0x1e
 6251 1b01 01       		.byte	0x1
 6252 1b02 50       		.byte	0x50
 6253 1b03 08       		.byte	0x8
 6254 1b04 7A       		.byte	0x7a
 6255 1b05 00       		.sleb128 0
 6256 1b06 40       		.byte	0x40
 6257 1b07 24       		.byte	0x24
 6258 1b08 0A       		.byte	0xa
 6259 1b09 0054     		.2byte	0x5400
 6260 1b0b 21       		.byte	0x21
 6261 1b0c 00       		.byte	0
 6262 1b0d 00       		.byte	0
 6263 1b0e 00       		.byte	0
 6264 1b0f 27       		.uleb128 0x27
 6265 1b10 3A180000 		.4byte	0x183a
 6266 1b14 3A020000 		.4byte	.LBB131
 6267 1b18 10030000 		.4byte	.Ldebug_ranges0+0x310
 6268 1b1c 01       		.byte	0x1
 6269 1b1d A502     		.2byte	0x2a5
 6270 1b1f C31B0000 		.4byte	0x1bc3
 6271 1b23 25       		.uleb128 0x25
 6272 1b24 48180000 		.4byte	0x1848
 6273 1b28 00090000 		.4byte	.LLST44
 6274 1b2c 29       		.uleb128 0x29
 6275 1b2d 30030000 		.4byte	.Ldebug_ranges0+0x330
 6276 1b31 31       		.uleb128 0x31
 6277 1b32 54180000 		.4byte	0x1854
 6278 1b36 02       		.byte	0x2
 6279 1b37 91       		.byte	0x91
 6280 1b38 40       		.sleb128 -64
 6281 1b39 31       		.uleb128 0x31
 6282 1b3a 60180000 		.4byte	0x1860
 6283 1b3e 02       		.byte	0x2
 6284 1b3f 91       		.byte	0x91
 6285 1b40 50       		.sleb128 -48
 6286 1b41 1D       		.uleb128 0x1d
 6287 1b42 46020000 		.4byte	.LVL203
 6288 1b46 14220000 		.4byte	0x2214
 6289 1b4a 5B1B0000 		.4byte	0x1b5b
 6290 1b4e 1E       		.uleb128 0x1e
 6291 1b4f 01       		.byte	0x1
 6292 1b50 51       		.byte	0x51
 6293 1b51 01       		.byte	0x1
 6294 1b52 31       		.byte	0x31
 6295 1b53 1E       		.uleb128 0x1e
 6296 1b54 01       		.byte	0x1
 6297 1b55 50       		.byte	0x50
 6298 1b56 03       		.byte	0x3
ARM GAS  C:\Users\CNous\AppData\Local\Temp\ccPT5vWC.s 			page 149


 6299 1b57 0A       		.byte	0xa
 6300 1b58 0080     		.2byte	0x8000
 6301 1b5a 00       		.byte	0
 6302 1b5b 1C       		.uleb128 0x1c
 6303 1b5c 52020000 		.4byte	.LVL204
 6304 1b60 FF210000 		.4byte	0x21ff
 6305 1b64 1D       		.uleb128 0x1d
 6306 1b65 7C020000 		.4byte	.LVL205
 6307 1b69 71230000 		.4byte	0x2371
 6308 1b6d 781B0000 		.4byte	0x1b78
 6309 1b71 1E       		.uleb128 0x1e
 6310 1b72 01       		.byte	0x1
 6311 1b73 51       		.byte	0x51
 6312 1b74 02       		.byte	0x2
 6313 1b75 91       		.byte	0x91
 6314 1b76 40       		.sleb128 -64
 6315 1b77 00       		.byte	0
 6316 1b78 1D       		.uleb128 0x1d
 6317 1b79 00030000 		.4byte	.LVL217
 6318 1b7d 14220000 		.4byte	0x2214
 6319 1b81 921B0000 		.4byte	0x1b92
 6320 1b85 1E       		.uleb128 0x1e
 6321 1b86 01       		.byte	0x1
 6322 1b87 51       		.byte	0x51
 6323 1b88 01       		.byte	0x1
 6324 1b89 31       		.byte	0x31
 6325 1b8a 1E       		.uleb128 0x1e
 6326 1b8b 01       		.byte	0x1
 6327 1b8c 50       		.byte	0x50
 6328 1b8d 03       		.byte	0x3
 6329 1b8e 40       		.byte	0x40
 6330 1b8f 49       		.byte	0x49
 6331 1b90 24       		.byte	0x24
 6332 1b91 00       		.byte	0
 6333 1b92 1D       		.uleb128 0x1d
 6334 1b93 0E030000 		.4byte	.LVL218
 6335 1b97 E8220000 		.4byte	0x22e8
 6336 1b9b AC1B0000 		.4byte	0x1bac
 6337 1b9f 1E       		.uleb128 0x1e
 6338 1ba0 01       		.byte	0x1
 6339 1ba1 51       		.byte	0x51
 6340 1ba2 02       		.byte	0x2
 6341 1ba3 91       		.byte	0x91
 6342 1ba4 50       		.sleb128 -48
 6343 1ba5 1E       		.uleb128 0x1e
 6344 1ba6 01       		.byte	0x1
 6345 1ba7 50       		.byte	0x50
 6346 1ba8 02       		.byte	0x2
 6347 1ba9 74       		.byte	0x74
 6348 1baa 00       		.sleb128 0
 6349 1bab 00       		.byte	0
 6350 1bac 23       		.uleb128 0x23
 6351 1bad 16030000 		.4byte	.LVL219
 6352 1bb1 08230000 		.4byte	0x2308
 6353 1bb5 1E       		.uleb128 0x1e
 6354 1bb6 01       		.byte	0x1
 6355 1bb7 51       		.byte	0x51
ARM GAS  C:\Users\CNous\AppData\Local\Temp\ccPT5vWC.s 			page 150


 6356 1bb8 01       		.byte	0x1
 6357 1bb9 31       		.byte	0x31
 6358 1bba 1E       		.uleb128 0x1e
 6359 1bbb 01       		.byte	0x1
 6360 1bbc 50       		.byte	0x50
 6361 1bbd 02       		.byte	0x2
 6362 1bbe 74       		.byte	0x74
 6363 1bbf 00       		.sleb128 0
 6364 1bc0 00       		.byte	0
 6365 1bc1 00       		.byte	0
 6366 1bc2 00       		.byte	0
 6367 1bc3 1C       		.uleb128 0x1c
 6368 1bc4 4E010000 		.4byte	.LVL173
 6369 1bc8 0E0C0000 		.4byte	0xc0e
 6370 1bcc 1D       		.uleb128 0x1d
 6371 1bcd BA010000 		.4byte	.LVL178
 6372 1bd1 4E0A0000 		.4byte	0xa4e
 6373 1bd5 E51B0000 		.4byte	0x1be5
 6374 1bd9 1E       		.uleb128 0x1e
 6375 1bda 01       		.byte	0x1
 6376 1bdb 51       		.byte	0x51
 6377 1bdc 01       		.byte	0x1
 6378 1bdd 31       		.byte	0x31
 6379 1bde 1E       		.uleb128 0x1e
 6380 1bdf 01       		.byte	0x1
 6381 1be0 50       		.byte	0x50
 6382 1be1 02       		.byte	0x2
 6383 1be2 76       		.byte	0x76
 6384 1be3 00       		.sleb128 0
 6385 1be4 00       		.byte	0
 6386 1be5 1D       		.uleb128 0x1d
 6387 1be6 C4010000 		.4byte	.LVL181
 6388 1bea 4E0A0000 		.4byte	0xa4e
 6389 1bee FE1B0000 		.4byte	0x1bfe
 6390 1bf2 1E       		.uleb128 0x1e
 6391 1bf3 01       		.byte	0x1
 6392 1bf4 51       		.byte	0x51
 6393 1bf5 02       		.byte	0x2
 6394 1bf6 09       		.byte	0x9
 6395 1bf7 AF       		.byte	0xaf
 6396 1bf8 1E       		.uleb128 0x1e
 6397 1bf9 01       		.byte	0x1
 6398 1bfa 50       		.byte	0x50
 6399 1bfb 01       		.byte	0x1
 6400 1bfc 34       		.byte	0x34
 6401 1bfd 00       		.byte	0
 6402 1bfe 1D       		.uleb128 0x1d
 6403 1bff D4010000 		.4byte	.LVL183
 6404 1c03 4E0A0000 		.4byte	0xa4e
 6405 1c07 171C0000 		.4byte	0x1c17
 6406 1c0b 1E       		.uleb128 0x1e
 6407 1c0c 01       		.byte	0x1
 6408 1c0d 51       		.byte	0x51
 6409 1c0e 02       		.byte	0x2
 6410 1c0f 09       		.byte	0x9
 6411 1c10 81       		.byte	0x81
 6412 1c11 1E       		.uleb128 0x1e
ARM GAS  C:\Users\CNous\AppData\Local\Temp\ccPT5vWC.s 			page 151


 6413 1c12 01       		.byte	0x1
 6414 1c13 50       		.byte	0x50
 6415 1c14 01       		.byte	0x1
 6416 1c15 35       		.byte	0x35
 6417 1c16 00       		.byte	0
 6418 1c17 1D       		.uleb128 0x1d
 6419 1c18 DE010000 		.4byte	.LVL185
 6420 1c1c 4E0A0000 		.4byte	0xa4e
 6421 1c20 2F1C0000 		.4byte	0x1c2f
 6422 1c24 1E       		.uleb128 0x1e
 6423 1c25 01       		.byte	0x1
 6424 1c26 51       		.byte	0x51
 6425 1c27 01       		.byte	0x1
 6426 1c28 34       		.byte	0x34
 6427 1c29 1E       		.uleb128 0x1e
 6428 1c2a 01       		.byte	0x1
 6429 1c2b 50       		.byte	0x50
 6430 1c2c 01       		.byte	0x1
 6431 1c2d 36       		.byte	0x36
 6432 1c2e 00       		.byte	0
 6433 1c2f 1D       		.uleb128 0x1d
 6434 1c30 E6010000 		.4byte	.LVL187
 6435 1c34 B00A0000 		.4byte	0xab0
 6436 1c38 431C0000 		.4byte	0x1c43
 6437 1c3c 1E       		.uleb128 0x1e
 6438 1c3d 01       		.byte	0x1
 6439 1c3e 50       		.byte	0x50
 6440 1c3f 02       		.byte	0x2
 6441 1c40 78       		.byte	0x78
 6442 1c41 00       		.sleb128 0
 6443 1c42 00       		.byte	0
 6444 1c43 1D       		.uleb128 0x1d
 6445 1c44 F6010000 		.4byte	.LVL189
 6446 1c48 4E0A0000 		.4byte	0xa4e
 6447 1c4c 5C1C0000 		.4byte	0x1c5c
 6448 1c50 1E       		.uleb128 0x1e
 6449 1c51 01       		.byte	0x1
 6450 1c52 51       		.byte	0x51
 6451 1c53 02       		.byte	0x2
 6452 1c54 09       		.byte	0x9
 6453 1c55 9E       		.byte	0x9e
 6454 1c56 1E       		.uleb128 0x1e
 6455 1c57 01       		.byte	0x1
 6456 1c58 50       		.byte	0x50
 6457 1c59 01       		.byte	0x1
 6458 1c5a 32       		.byte	0x32
 6459 1c5b 00       		.byte	0
 6460 1c5c 1D       		.uleb128 0x1d
 6461 1c5d 00020000 		.4byte	.LVL191
 6462 1c61 4E0A0000 		.4byte	0xa4e
 6463 1c65 741C0000 		.4byte	0x1c74
 6464 1c69 1E       		.uleb128 0x1e
 6465 1c6a 01       		.byte	0x1
 6466 1c6b 51       		.byte	0x51
 6467 1c6c 01       		.byte	0x1
 6468 1c6d 30       		.byte	0x30
 6469 1c6e 1E       		.uleb128 0x1e
ARM GAS  C:\Users\CNous\AppData\Local\Temp\ccPT5vWC.s 			page 152


 6470 1c6f 01       		.byte	0x1
 6471 1c70 50       		.byte	0x50
 6472 1c71 01       		.byte	0x1
 6473 1c72 3A       		.byte	0x3a
 6474 1c73 00       		.byte	0
 6475 1c74 1D       		.uleb128 0x1d
 6476 1c75 12020000 		.4byte	.LVL193
 6477 1c79 4E0A0000 		.4byte	0xa4e
 6478 1c7d 8C1C0000 		.4byte	0x1c8c
 6479 1c81 1E       		.uleb128 0x1e
 6480 1c82 01       		.byte	0x1
 6481 1c83 51       		.byte	0x51
 6482 1c84 01       		.byte	0x1
 6483 1c85 34       		.byte	0x34
 6484 1c86 1E       		.uleb128 0x1e
 6485 1c87 01       		.byte	0x1
 6486 1c88 50       		.byte	0x50
 6487 1c89 01       		.byte	0x1
 6488 1c8a 3E       		.byte	0x3e
 6489 1c8b 00       		.byte	0
 6490 1c8c 1D       		.uleb128 0x1d
 6491 1c8d 1C020000 		.4byte	.LVL195
 6492 1c91 4E0A0000 		.4byte	0xa4e
 6493 1c95 A51C0000 		.4byte	0x1ca5
 6494 1c99 1E       		.uleb128 0x1e
 6495 1c9a 01       		.byte	0x1
 6496 1c9b 51       		.byte	0x51
 6497 1c9c 01       		.byte	0x1
 6498 1c9d 30       		.byte	0x30
 6499 1c9e 1E       		.uleb128 0x1e
 6500 1c9f 01       		.byte	0x1
 6501 1ca0 50       		.byte	0x50
 6502 1ca1 02       		.byte	0x2
 6503 1ca2 08       		.byte	0x8
 6504 1ca3 27       		.byte	0x27
 6505 1ca4 00       		.byte	0
 6506 1ca5 1D       		.uleb128 0x1d
 6507 1ca6 26020000 		.4byte	.LVL197
 6508 1caa 4E0A0000 		.4byte	0xa4e
 6509 1cae BD1C0000 		.4byte	0x1cbd
 6510 1cb2 1E       		.uleb128 0x1e
 6511 1cb3 01       		.byte	0x1
 6512 1cb4 51       		.byte	0x51
 6513 1cb5 01       		.byte	0x1
 6514 1cb6 3F       		.byte	0x3f
 6515 1cb7 1E       		.uleb128 0x1e
 6516 1cb8 01       		.byte	0x1
 6517 1cb9 50       		.byte	0x50
 6518 1cba 01       		.byte	0x1
 6519 1cbb 4F       		.byte	0x4f
 6520 1cbc 00       		.byte	0
 6521 1cbd 1D       		.uleb128 0x1d
 6522 1cbe 30020000 		.4byte	.LVL199
 6523 1cc2 4E0A0000 		.4byte	0xa4e
 6524 1cc6 D51C0000 		.4byte	0x1cd5
 6525 1cca 1E       		.uleb128 0x1e
 6526 1ccb 01       		.byte	0x1
ARM GAS  C:\Users\CNous\AppData\Local\Temp\ccPT5vWC.s 			page 153


 6527 1ccc 51       		.byte	0x51
 6528 1ccd 01       		.byte	0x1
 6529 1cce 3A       		.byte	0x3a
 6530 1ccf 1E       		.uleb128 0x1e
 6531 1cd0 01       		.byte	0x1
 6532 1cd1 50       		.byte	0x50
 6533 1cd2 01       		.byte	0x1
 6534 1cd3 4A       		.byte	0x4a
 6535 1cd4 00       		.byte	0
 6536 1cd5 1D       		.uleb128 0x1d
 6537 1cd6 3A020000 		.4byte	.LVL201
 6538 1cda 4E0A0000 		.4byte	0xa4e
 6539 1cde ED1C0000 		.4byte	0x1ced
 6540 1ce2 1E       		.uleb128 0x1e
 6541 1ce3 01       		.byte	0x1
 6542 1ce4 51       		.byte	0x51
 6543 1ce5 01       		.byte	0x1
 6544 1ce6 3A       		.byte	0x3a
 6545 1ce7 1E       		.uleb128 0x1e
 6546 1ce8 01       		.byte	0x1
 6547 1ce9 50       		.byte	0x50
 6548 1cea 01       		.byte	0x1
 6549 1ceb 4B       		.byte	0x4b
 6550 1cec 00       		.byte	0
 6551 1ced 1D       		.uleb128 0x1d
 6552 1cee 20030000 		.4byte	.LVL221
 6553 1cf2 4E0A0000 		.4byte	0xa4e
 6554 1cf6 051D0000 		.4byte	0x1d05
 6555 1cfa 1E       		.uleb128 0x1e
 6556 1cfb 01       		.byte	0x1
 6557 1cfc 51       		.byte	0x51
 6558 1cfd 01       		.byte	0x1
 6559 1cfe 31       		.byte	0x31
 6560 1cff 1E       		.uleb128 0x1e
 6561 1d00 01       		.byte	0x1
 6562 1d01 50       		.byte	0x50
 6563 1d02 01       		.byte	0x1
 6564 1d03 38       		.byte	0x38
 6565 1d04 00       		.byte	0
 6566 1d05 1D       		.uleb128 0x1d
 6567 1d06 2A030000 		.4byte	.LVL224
 6568 1d0a 4E0A0000 		.4byte	0xa4e
 6569 1d0e 1D1D0000 		.4byte	0x1d1d
 6570 1d12 1E       		.uleb128 0x1e
 6571 1d13 01       		.byte	0x1
 6572 1d14 51       		.byte	0x51
 6573 1d15 01       		.byte	0x1
 6574 1d16 31       		.byte	0x31
 6575 1d17 1E       		.uleb128 0x1e
 6576 1d18 01       		.byte	0x1
 6577 1d19 50       		.byte	0x50
 6578 1d1a 01       		.byte	0x1
 6579 1d1b 39       		.byte	0x39
 6580 1d1c 00       		.byte	0
 6581 1d1d 1D       		.uleb128 0x1d
 6582 1d1e 34030000 		.4byte	.LVL226
 6583 1d22 4E0A0000 		.4byte	0xa4e
ARM GAS  C:\Users\CNous\AppData\Local\Temp\ccPT5vWC.s 			page 154


 6584 1d26 361D0000 		.4byte	0x1d36
 6585 1d2a 1E       		.uleb128 0x1e
 6586 1d2b 01       		.byte	0x1
 6587 1d2c 51       		.byte	0x51
 6588 1d2d 02       		.byte	0x2
 6589 1d2e 09       		.byte	0x9
 6590 1d2f C0       		.byte	0xc0
 6591 1d30 1E       		.uleb128 0x1e
 6592 1d31 01       		.byte	0x1
 6593 1d32 50       		.byte	0x50
 6594 1d33 01       		.byte	0x1
 6595 1d34 3E       		.byte	0x3e
 6596 1d35 00       		.byte	0
 6597 1d36 1D       		.uleb128 0x1d
 6598 1d37 40030000 		.4byte	.LVL229
 6599 1d3b 4E0A0000 		.4byte	0xa4e
 6600 1d3f 4F1D0000 		.4byte	0x1d4f
 6601 1d43 1E       		.uleb128 0x1e
 6602 1d44 01       		.byte	0x1
 6603 1d45 51       		.byte	0x51
 6604 1d46 02       		.byte	0x2
 6605 1d47 74       		.byte	0x74
 6606 1d48 00       		.sleb128 0
 6607 1d49 1E       		.uleb128 0x1e
 6608 1d4a 01       		.byte	0x1
 6609 1d4b 50       		.byte	0x50
 6610 1d4c 01       		.byte	0x1
 6611 1d4d 44       		.byte	0x44
 6612 1d4e 00       		.byte	0
 6613 1d4f 23       		.uleb128 0x23
 6614 1d50 4A030000 		.4byte	.LVL231
 6615 1d54 4E0A0000 		.4byte	0xa4e
 6616 1d58 1E       		.uleb128 0x1e
 6617 1d59 01       		.byte	0x1
 6618 1d5a 51       		.byte	0x51
 6619 1d5b 01       		.byte	0x1
 6620 1d5c 30       		.byte	0x30
 6621 1d5d 1E       		.uleb128 0x1e
 6622 1d5e 01       		.byte	0x1
 6623 1d5f 50       		.byte	0x50
 6624 1d60 01       		.byte	0x1
 6625 1d61 45       		.byte	0x45
 6626 1d62 00       		.byte	0
 6627 1d63 00       		.byte	0
 6628 1d64 00       		.byte	0
 6629 1d65 32       		.uleb128 0x32
 6630 1d66 6D180000 		.4byte	0x186d
 6631 1d6a 92020000 		.4byte	.LBB139
 6632 1d6e 50030000 		.4byte	.Ldebug_ranges0+0x350
 6633 1d72 01       		.byte	0x1
 6634 1d73 4301     		.2byte	0x143
 6635 1d75 29       		.uleb128 0x29
 6636 1d76 68030000 		.4byte	.Ldebug_ranges0+0x368
 6637 1d7a 31       		.uleb128 0x31
 6638 1d7b 7B180000 		.4byte	0x187b
 6639 1d7f 03       		.byte	0x3
 6640 1d80 91       		.byte	0x91
ARM GAS  C:\Users\CNous\AppData\Local\Temp\ccPT5vWC.s 			page 155


 6641 1d81 A47F     		.sleb128 -92
 6642 1d83 1C       		.uleb128 0x1c
 6643 1d84 A2020000 		.4byte	.LVL210
 6644 1d88 5A170000 		.4byte	0x175a
 6645 1d8c 1D       		.uleb128 0x1d
 6646 1d8d B2020000 		.4byte	.LVL211
 6647 1d91 91230000 		.4byte	0x2391
 6648 1d95 A51D0000 		.4byte	0x1da5
 6649 1d99 1E       		.uleb128 0x1e
 6650 1d9a 01       		.byte	0x1
 6651 1d9b 52       		.byte	0x52
 6652 1d9c 01       		.byte	0x1
 6653 1d9d 31       		.byte	0x31
 6654 1d9e 1E       		.uleb128 0x1e
 6655 1d9f 01       		.byte	0x1
 6656 1da0 51       		.byte	0x51
 6657 1da1 02       		.byte	0x2
 6658 1da2 08       		.byte	0x8
 6659 1da3 71       		.byte	0x71
 6660 1da4 00       		.byte	0
 6661 1da5 1D       		.uleb128 0x1d
 6662 1da6 CE020000 		.4byte	.LVL212
 6663 1daa 57210000 		.4byte	0x2157
 6664 1dae BA1D0000 		.4byte	0x1dba
 6665 1db2 1E       		.uleb128 0x1e
 6666 1db3 01       		.byte	0x1
 6667 1db4 50       		.byte	0x50
 6668 1db5 03       		.byte	0x3
 6669 1db6 91       		.byte	0x91
 6670 1db7 A47F     		.sleb128 -92
 6671 1db9 00       		.byte	0
 6672 1dba 1D       		.uleb128 0x1d
 6673 1dbb 5C030000 		.4byte	.LVL234
 6674 1dbf 2E220000 		.4byte	0x222e
 6675 1dc3 CD1D0000 		.4byte	0x1dcd
 6676 1dc7 1E       		.uleb128 0x1e
 6677 1dc8 01       		.byte	0x1
 6678 1dc9 51       		.byte	0x51
 6679 1dca 01       		.byte	0x1
 6680 1dcb 32       		.byte	0x32
 6681 1dcc 00       		.byte	0
 6682 1dcd 1D       		.uleb128 0x1d
 6683 1dce 6C030000 		.4byte	.LVL237
 6684 1dd2 CE220000 		.4byte	0x22ce
 6685 1dd6 E11D0000 		.4byte	0x1de1
 6686 1dda 1E       		.uleb128 0x1e
 6687 1ddb 01       		.byte	0x1
 6688 1ddc 51       		.byte	0x51
 6689 1ddd 02       		.byte	0x2
 6690 1dde 74       		.byte	0x74
 6691 1ddf 00       		.sleb128 0
 6692 1de0 00       		.byte	0
 6693 1de1 1D       		.uleb128 0x1d
 6694 1de2 74030000 		.4byte	.LVL238
 6695 1de6 71210000 		.4byte	0x2171
 6696 1dea F51D0000 		.4byte	0x1df5
 6697 1dee 1E       		.uleb128 0x1e
ARM GAS  C:\Users\CNous\AppData\Local\Temp\ccPT5vWC.s 			page 156


 6698 1def 01       		.byte	0x1
 6699 1df0 51       		.byte	0x51
 6700 1df1 02       		.byte	0x2
 6701 1df2 76       		.byte	0x76
 6702 1df3 00       		.sleb128 0
 6703 1df4 00       		.byte	0
 6704 1df5 1C       		.uleb128 0x1c
 6705 1df6 7A030000 		.4byte	.LVL239
 6706 1dfa 8B210000 		.4byte	0x218b
 6707 1dfe 1D       		.uleb128 0x1d
 6708 1dff C4030000 		.4byte	.LVL240
 6709 1e03 AE220000 		.4byte	0x22ae
 6710 1e07 151E0000 		.4byte	0x1e15
 6711 1e0b 1E       		.uleb128 0x1e
 6712 1e0c 01       		.byte	0x1
 6713 1e0d 51       		.byte	0x51
 6714 1e0e 05       		.byte	0x5
 6715 1e0f 03       		.byte	0x3
 6716 1e10 00000000 		.4byte	DMA_InitStructure
 6717 1e14 00       		.byte	0
 6718 1e15 1D       		.uleb128 0x1d
 6719 1e16 CE030000 		.4byte	.LVL241
 6720 1e1a B0230000 		.4byte	0x23b0
 6721 1e1e 2E1E0000 		.4byte	0x1e2e
 6722 1e22 1E       		.uleb128 0x1e
 6723 1e23 01       		.byte	0x1
 6724 1e24 52       		.byte	0x52
 6725 1e25 02       		.byte	0x2
 6726 1e26 74       		.byte	0x74
 6727 1e27 00       		.sleb128 0
 6728 1e28 1E       		.uleb128 0x1e
 6729 1e29 01       		.byte	0x1
 6730 1e2a 51       		.byte	0x51
 6731 1e2b 01       		.byte	0x1
 6732 1e2c 40       		.byte	0x40
 6733 1e2d 00       		.byte	0
 6734 1e2e 1D       		.uleb128 0x1d
 6735 1e2f D8030000 		.4byte	.LVL242
 6736 1e33 B0230000 		.4byte	0x23b0
 6737 1e37 471E0000 		.4byte	0x1e47
 6738 1e3b 1E       		.uleb128 0x1e
 6739 1e3c 01       		.byte	0x1
 6740 1e3d 52       		.byte	0x52
 6741 1e3e 02       		.byte	0x2
 6742 1e3f 74       		.byte	0x74
 6743 1e40 00       		.sleb128 0
 6744 1e41 1E       		.uleb128 0x1e
 6745 1e42 01       		.byte	0x1
 6746 1e43 51       		.byte	0x51
 6747 1e44 01       		.byte	0x1
 6748 1e45 38       		.byte	0x38
 6749 1e46 00       		.byte	0
 6750 1e47 23       		.uleb128 0x23
 6751 1e48 F2030000 		.4byte	.LVL243
 6752 1e4c 57210000 		.4byte	0x2157
 6753 1e50 1E       		.uleb128 0x1e
 6754 1e51 01       		.byte	0x1
ARM GAS  C:\Users\CNous\AppData\Local\Temp\ccPT5vWC.s 			page 157


 6755 1e52 50       		.byte	0x50
 6756 1e53 03       		.byte	0x3
 6757 1e54 91       		.byte	0x91
 6758 1e55 A47F     		.sleb128 -92
 6759 1e57 00       		.byte	0
 6760 1e58 00       		.byte	0
 6761 1e59 00       		.byte	0
 6762 1e5a 00       		.byte	0
 6763 1e5b 38       		.uleb128 0x38
 6764 1e5c 14100000 		.4byte	.LASF267
 6765 1e60 0A       		.byte	0xa
 6766 1e61 1A05     		.2byte	0x51a
 6767 1e63 FC020000 		.4byte	0x2fc
 6768 1e67 01       		.byte	0x1
 6769 1e68 01       		.byte	0x1
 6770 1e69 39       		.uleb128 0x39
 6771 1e6a D4110000 		.4byte	.LASF268
 6772 1e6e 01       		.byte	0x1
 6773 1e6f C0       		.byte	0xc0
 6774 1e70 F3070000 		.4byte	0x7f3
 6775 1e74 01       		.byte	0x1
 6776 1e75 05       		.byte	0x5
 6777 1e76 03       		.byte	0x3
 6778 1e77 00000000 		.4byte	DMA_InitStructure
 6779 1e7b 39       		.uleb128 0x39
 6780 1e7c 2B0A0000 		.4byte	.LASF269
 6781 1e80 01       		.byte	0x1
 6782 1e81 C1       		.byte	0xc1
 6783 1e82 F3070000 		.4byte	0x7f3
 6784 1e86 01       		.byte	0x1
 6785 1e87 05       		.byte	0x5
 6786 1e88 03       		.byte	0x3
 6787 1e89 00000000 		.4byte	AUDIO_MAL_DMA_InitStructure
 6788 1e8d 39       		.uleb128 0x39
 6789 1e8e CD060000 		.4byte	.LASF270
 6790 1e92 01       		.byte	0x1
 6791 1e93 C3       		.byte	0xc3
 6792 1e94 A8020000 		.4byte	0x2a8
 6793 1e98 01       		.byte	0x1
 6794 1e99 05       		.byte	0x5
 6795 1e9a 03       		.byte	0x3
 6796 1e9b 00000000 		.4byte	AudioTotalSize
 6797 1e9f 39       		.uleb128 0x39
 6798 1ea0 46100000 		.4byte	.LASF271
 6799 1ea4 01       		.byte	0x1
 6800 1ea5 C4       		.byte	0xc4
 6801 1ea6 A8020000 		.4byte	0x2a8
 6802 1eaa 01       		.byte	0x1
 6803 1eab 05       		.byte	0x5
 6804 1eac 03       		.byte	0x3
 6805 1ead 00000000 		.4byte	AudioRemSize
 6806 1eb1 39       		.uleb128 0x39
 6807 1eb2 AC0B0000 		.4byte	.LASF272
 6808 1eb6 01       		.byte	0x1
 6809 1eb7 C5       		.byte	0xc5
 6810 1eb8 080C0000 		.4byte	0xc08
 6811 1ebc 01       		.byte	0x1
ARM GAS  C:\Users\CNous\AppData\Local\Temp\ccPT5vWC.s 			page 158


 6812 1ebd 05       		.byte	0x5
 6813 1ebe 03       		.byte	0x3
 6814 1ebf 00000000 		.4byte	CurrentPos
 6815 1ec3 39       		.uleb128 0x39
 6816 1ec4 8C040000 		.4byte	.LASF273
 6817 1ec8 01       		.byte	0x1
 6818 1ec9 C7       		.byte	0xc7
 6819 1eca DD020000 		.4byte	0x2dd
 6820 1ece 01       		.byte	0x1
 6821 1ecf 05       		.byte	0x5
 6822 1ed0 03       		.byte	0x3
 6823 1ed1 00000000 		.4byte	CODECTimeout
 6824 1ed5 39       		.uleb128 0x39
 6825 1ed6 A4120000 		.4byte	.LASF274
 6826 1eda 01       		.byte	0x1
 6827 1edb C8       		.byte	0xc8
 6828 1edc F2020000 		.4byte	0x2f2
 6829 1ee0 01       		.byte	0x1
 6830 1ee1 05       		.byte	0x5
 6831 1ee2 03       		.byte	0x3
 6832 1ee3 00000000 		.4byte	OutputDev
 6833 1ee7 39       		.uleb128 0x39
 6834 1ee8 2D020000 		.4byte	.LASF275
 6835 1eec 01       		.byte	0x1
 6836 1eed CB       		.byte	0xcb
 6837 1eee DD020000 		.4byte	0x2dd
 6838 1ef2 01       		.byte	0x1
 6839 1ef3 05       		.byte	0x5
 6840 1ef4 03       		.byte	0x3
 6841 1ef5 00000000 		.4byte	CurrAudioInterface
 6842 1ef9 39       		.uleb128 0x39
 6843 1efa 06040000 		.4byte	.LASF276
 6844 1efe 01       		.byte	0x1
 6845 1eff FE       		.byte	0xfe
 6846 1f00 A8020000 		.4byte	0x2a8
 6847 1f04 01       		.byte	0x1
 6848 1f05 05       		.byte	0x5
 6849 1f06 03       		.byte	0x3
 6850 1f07 00000000 		.4byte	AUDIO_MAL_DMA_CLOCK
 6851 1f0b 39       		.uleb128 0x39
 6852 1f0c 0D030000 		.4byte	.LASF277
 6853 1f10 01       		.byte	0x1
 6854 1f11 FF       		.byte	0xff
 6855 1f12 1D1F0000 		.4byte	0x1f1d
 6856 1f16 01       		.byte	0x1
 6857 1f17 05       		.byte	0x5
 6858 1f18 03       		.byte	0x3
 6859 1f19 00000000 		.4byte	AUDIO_MAL_DMA_STREAM
 6860 1f1d 20       		.uleb128 0x20
 6861 1f1e 04       		.byte	0x4
 6862 1f1f CA030000 		.4byte	0x3ca
 6863 1f23 3A       		.uleb128 0x3a
 6864 1f24 C60F0000 		.4byte	.LASF278
 6865 1f28 01       		.byte	0x1
 6866 1f29 0001     		.2byte	0x100
 6867 1f2b A8020000 		.4byte	0x2a8
 6868 1f2f 01       		.byte	0x1
ARM GAS  C:\Users\CNous\AppData\Local\Temp\ccPT5vWC.s 			page 159


 6869 1f30 05       		.byte	0x5
 6870 1f31 03       		.byte	0x3
 6871 1f32 00000000 		.4byte	AUDIO_MAL_DMA_DREG
 6872 1f36 3A       		.uleb128 0x3a
 6873 1f37 060C0000 		.4byte	.LASF279
 6874 1f3b 01       		.byte	0x1
 6875 1f3c 0101     		.2byte	0x101
 6876 1f3e A8020000 		.4byte	0x2a8
 6877 1f42 01       		.byte	0x1
 6878 1f43 05       		.byte	0x5
 6879 1f44 03       		.byte	0x3
 6880 1f45 00000000 		.4byte	AUDIO_MAL_DMA_CHANNEL
 6881 1f49 3A       		.uleb128 0x3a
 6882 1f4a 2C0F0000 		.4byte	.LASF280
 6883 1f4e 01       		.byte	0x1
 6884 1f4f 0201     		.2byte	0x102
 6885 1f51 A8020000 		.4byte	0x2a8
 6886 1f55 01       		.byte	0x1
 6887 1f56 05       		.byte	0x5
 6888 1f57 03       		.byte	0x3
 6889 1f58 00000000 		.4byte	AUDIO_MAL_DMA_IRQ
 6890 1f5c 3A       		.uleb128 0x3a
 6891 1f5d 5E120000 		.4byte	.LASF281
 6892 1f61 01       		.byte	0x1
 6893 1f62 0301     		.2byte	0x103
 6894 1f64 A8020000 		.4byte	0x2a8
 6895 1f68 01       		.byte	0x1
 6896 1f69 05       		.byte	0x5
 6897 1f6a 03       		.byte	0x3
 6898 1f6b 00000000 		.4byte	AUDIO_MAL_DMA_FLAG_TC
 6899 1f6f 3A       		.uleb128 0x3a
 6900 1f70 210B0000 		.4byte	.LASF282
 6901 1f74 01       		.byte	0x1
 6902 1f75 0401     		.2byte	0x104
 6903 1f77 A8020000 		.4byte	0x2a8
 6904 1f7b 01       		.byte	0x1
 6905 1f7c 05       		.byte	0x5
 6906 1f7d 03       		.byte	0x3
 6907 1f7e 00000000 		.4byte	AUDIO_MAL_DMA_FLAG_HT
 6908 1f82 3A       		.uleb128 0x3a
 6909 1f83 E8090000 		.4byte	.LASF283
 6910 1f87 01       		.byte	0x1
 6911 1f88 0501     		.2byte	0x105
 6912 1f8a A8020000 		.4byte	0x2a8
 6913 1f8e 01       		.byte	0x1
 6914 1f8f 05       		.byte	0x5
 6915 1f90 03       		.byte	0x3
 6916 1f91 00000000 		.4byte	AUDIO_MAL_DMA_FLAG_FE
 6917 1f95 3A       		.uleb128 0x3a
 6918 1f96 74120000 		.4byte	.LASF284
 6919 1f9a 01       		.byte	0x1
 6920 1f9b 0601     		.2byte	0x106
 6921 1f9d A8020000 		.4byte	0x2a8
 6922 1fa1 01       		.byte	0x1
 6923 1fa2 05       		.byte	0x5
 6924 1fa3 03       		.byte	0x3
 6925 1fa4 00000000 		.4byte	AUDIO_MAL_DMA_FLAG_TE
ARM GAS  C:\Users\CNous\AppData\Local\Temp\ccPT5vWC.s 			page 160


 6926 1fa8 3A       		.uleb128 0x3a
 6927 1fa9 66020000 		.4byte	.LASF285
 6928 1fad 01       		.byte	0x1
 6929 1fae 0701     		.2byte	0x107
 6930 1fb0 A8020000 		.4byte	0x2a8
 6931 1fb4 01       		.byte	0x1
 6932 1fb5 05       		.byte	0x5
 6933 1fb6 03       		.byte	0x3
 6934 1fb7 00000000 		.4byte	AUDIO_MAL_DMA_FLAG_DME
 6935 1fbb 3B       		.uleb128 0x3b
 6936 1fbc 01       		.byte	0x1
 6937 1fbd 45050000 		.4byte	.LASF290
 6938 1fc1 05       		.byte	0x5
 6939 1fc2 4602     		.2byte	0x246
 6940 1fc4 01       		.byte	0x1
 6941 1fc5 17030000 		.4byte	0x317
 6942 1fc9 01       		.byte	0x1
 6943 1fca D91F0000 		.4byte	0x1fd9
 6944 1fce 3C       		.uleb128 0x3c
 6945 1fcf 1D1F0000 		.4byte	0x1f1d
 6946 1fd3 3C       		.uleb128 0x3c
 6947 1fd4 A8020000 		.4byte	0x2a8
 6948 1fd8 00       		.byte	0
 6949 1fd9 3D       		.uleb128 0x3d
 6950 1fda 01       		.byte	0x1
 6951 1fdb AC060000 		.4byte	.LASF286
 6952 1fdf 0B       		.byte	0xb
 6953 1fe0 1401     		.2byte	0x114
 6954 1fe2 01       		.byte	0x1
 6955 1fe3 01       		.byte	0x1
 6956 1fe4 F31F0000 		.4byte	0x1ff3
 6957 1fe8 3C       		.uleb128 0x3c
 6958 1fe9 A8020000 		.4byte	0x2a8
 6959 1fed 3C       		.uleb128 0x3c
 6960 1fee A8020000 		.4byte	0x2a8
 6961 1ff2 00       		.byte	0
 6962 1ff3 3D       		.uleb128 0x3d
 6963 1ff4 01       		.byte	0x1
 6964 1ff5 7E040000 		.4byte	.LASF287
 6965 1ff9 05       		.byte	0x5
 6966 1ffa 4702     		.2byte	0x247
 6967 1ffc 01       		.byte	0x1
 6968 1ffd 01       		.byte	0x1
 6969 1ffe 0D200000 		.4byte	0x200d
 6970 2002 3C       		.uleb128 0x3c
 6971 2003 1D1F0000 		.4byte	0x1f1d
 6972 2007 3C       		.uleb128 0x3c
 6973 2008 A8020000 		.4byte	0x2a8
 6974 200c 00       		.byte	0
 6975 200d 3D       		.uleb128 0x3d
 6976 200e 01       		.byte	0x1
 6977 200f 21100000 		.4byte	.LASF288
 6978 2013 0B       		.byte	0xb
 6979 2014 0F01     		.2byte	0x10f
 6980 2016 01       		.byte	0x1
 6981 2017 01       		.byte	0x1
 6982 2018 27200000 		.4byte	0x2027
ARM GAS  C:\Users\CNous\AppData\Local\Temp\ccPT5vWC.s 			page 161


 6983 201c 3C       		.uleb128 0x3c
 6984 201d A8020000 		.4byte	0x2a8
 6985 2021 3C       		.uleb128 0x3c
 6986 2022 A8020000 		.4byte	0x2a8
 6987 2026 00       		.byte	0
 6988 2027 3D       		.uleb128 0x3d
 6989 2028 01       		.byte	0x1
 6990 2029 6E010000 		.4byte	.LASF289
 6991 202d 06       		.byte	0x6
 6992 202e 8101     		.2byte	0x181
 6993 2030 01       		.byte	0x1
 6994 2031 01       		.byte	0x1
 6995 2032 46200000 		.4byte	0x2046
 6996 2036 3C       		.uleb128 0x3c
 6997 2037 46200000 		.4byte	0x2046
 6998 203b 3C       		.uleb128 0x3c
 6999 203c 84020000 		.4byte	0x284
 7000 2040 3C       		.uleb128 0x3c
 7001 2041 B1080000 		.4byte	0x8b1
 7002 2045 00       		.byte	0
 7003 2046 20       		.uleb128 0x20
 7004 2047 04       		.byte	0x4
 7005 2048 7B040000 		.4byte	0x47b
 7006 204c 3B       		.uleb128 0x3b
 7007 204d 01       		.byte	0x1
 7008 204e 85090000 		.4byte	.LASF291
 7009 2052 07       		.byte	0x7
 7010 2053 9F02     		.2byte	0x29f
 7011 2055 01       		.byte	0x1
 7012 2056 17030000 		.4byte	0x317
 7013 205a 01       		.byte	0x1
 7014 205b 6A200000 		.4byte	0x206a
 7015 205f 3C       		.uleb128 0x3c
 7016 2060 6A200000 		.4byte	0x206a
 7017 2064 3C       		.uleb128 0x3c
 7018 2065 A8020000 		.4byte	0x2a8
 7019 2069 00       		.byte	0
 7020 206a 20       		.uleb128 0x20
 7021 206b 04       		.byte	0x4
 7022 206c 9E050000 		.4byte	0x59e
 7023 2070 3E       		.uleb128 0x3e
 7024 2071 01       		.byte	0x1
 7025 2072 3E070000 		.4byte	.LASF310
 7026 2076 0B       		.byte	0xb
 7027 2077 2101     		.2byte	0x121
 7028 2079 01       		.byte	0x1
 7029 207a A8020000 		.4byte	0x2a8
 7030 207e 01       		.byte	0x1
 7031 207f 3D       		.uleb128 0x3d
 7032 2080 01       		.byte	0x1
 7033 2081 A40F0000 		.4byte	.LASF292
 7034 2085 07       		.byte	0x7
 7035 2086 1902     		.2byte	0x219
 7036 2088 01       		.byte	0x1
 7037 2089 01       		.byte	0x1
 7038 208a 99200000 		.4byte	0x2099
 7039 208e 3C       		.uleb128 0x3c
ARM GAS  C:\Users\CNous\AppData\Local\Temp\ccPT5vWC.s 			page 162


 7040 208f 6A200000 		.4byte	0x206a
 7041 2093 3C       		.uleb128 0x3c
 7042 2094 39030000 		.4byte	0x339
 7043 2098 00       		.byte	0
 7044 2099 3B       		.uleb128 0x3b
 7045 209a 01       		.byte	0x1
 7046 209b 7C0F0000 		.4byte	.LASF293
 7047 209f 07       		.byte	0x7
 7048 20a0 9302     		.2byte	0x293
 7049 20a2 01       		.byte	0x1
 7050 20a3 5B030000 		.4byte	0x35b
 7051 20a7 01       		.byte	0x1
 7052 20a8 B7200000 		.4byte	0x20b7
 7053 20ac 3C       		.uleb128 0x3c
 7054 20ad 6A200000 		.4byte	0x206a
 7055 20b1 3C       		.uleb128 0x3c
 7056 20b2 A8020000 		.4byte	0x2a8
 7057 20b6 00       		.byte	0
 7058 20b7 3D       		.uleb128 0x3d
 7059 20b8 01       		.byte	0x1
 7060 20b9 ED0D0000 		.4byte	.LASF294
 7061 20bd 07       		.byte	0x7
 7062 20be 1B02     		.2byte	0x21b
 7063 20c0 01       		.byte	0x1
 7064 20c1 01       		.byte	0x1
 7065 20c2 D6200000 		.4byte	0x20d6
 7066 20c6 3C       		.uleb128 0x3c
 7067 20c7 6A200000 		.4byte	0x206a
 7068 20cb 3C       		.uleb128 0x3c
 7069 20cc 6B020000 		.4byte	0x26b
 7070 20d0 3C       		.uleb128 0x3c
 7071 20d1 6B020000 		.4byte	0x26b
 7072 20d5 00       		.byte	0
 7073 20d6 3D       		.uleb128 0x3d
 7074 20d7 01       		.byte	0x1
 7075 20d8 7F0D0000 		.4byte	.LASF295
 7076 20dc 07       		.byte	0x7
 7077 20dd 2802     		.2byte	0x228
 7078 20df 01       		.byte	0x1
 7079 20e0 01       		.byte	0x1
 7080 20e1 F0200000 		.4byte	0x20f0
 7081 20e5 3C       		.uleb128 0x3c
 7082 20e6 6A200000 		.4byte	0x206a
 7083 20ea 3C       		.uleb128 0x3c
 7084 20eb 6B020000 		.4byte	0x26b
 7085 20ef 00       		.byte	0
 7086 20f0 3D       		.uleb128 0x3d
 7087 20f1 01       		.byte	0x1
 7088 20f2 5A040000 		.4byte	.LASF296
 7089 20f6 07       		.byte	0x7
 7090 20f7 1C02     		.2byte	0x21c
 7091 20f9 01       		.byte	0x1
 7092 20fa 01       		.byte	0x1
 7093 20fb 0A210000 		.4byte	0x210a
 7094 20ff 3C       		.uleb128 0x3c
 7095 2100 6A200000 		.4byte	0x206a
 7096 2104 3C       		.uleb128 0x3c
ARM GAS  C:\Users\CNous\AppData\Local\Temp\ccPT5vWC.s 			page 163


 7097 2105 39030000 		.4byte	0x339
 7098 2109 00       		.byte	0
 7099 210a 3D       		.uleb128 0x3d
 7100 210b 01       		.byte	0x1
 7101 210c 370B0000 		.4byte	.LASF297
 7102 2110 07       		.byte	0x7
 7103 2111 1A02     		.2byte	0x21a
 7104 2113 01       		.byte	0x1
 7105 2114 01       		.byte	0x1
 7106 2115 24210000 		.4byte	0x2124
 7107 2119 3C       		.uleb128 0x3c
 7108 211a 6A200000 		.4byte	0x206a
 7109 211e 3C       		.uleb128 0x3c
 7110 211f 39030000 		.4byte	0x339
 7111 2123 00       		.byte	0
 7112 2124 3B       		.uleb128 0x3b
 7113 2125 01       		.byte	0x1
 7114 2126 B4010000 		.4byte	.LASF298
 7115 212a 07       		.byte	0x7
 7116 212b 2902     		.2byte	0x229
 7117 212d 01       		.byte	0x1
 7118 212e 6B020000 		.4byte	0x26b
 7119 2132 01       		.byte	0x1
 7120 2133 3D210000 		.4byte	0x213d
 7121 2137 3C       		.uleb128 0x3c
 7122 2138 6A200000 		.4byte	0x206a
 7123 213c 00       		.byte	0
 7124 213d 3D       		.uleb128 0x3d
 7125 213e 01       		.byte	0x1
 7126 213f 92030000 		.4byte	.LASF299
 7127 2143 07       		.byte	0x7
 7128 2144 A202     		.2byte	0x2a2
 7129 2146 01       		.byte	0x1
 7130 2147 01       		.byte	0x1
 7131 2148 57210000 		.4byte	0x2157
 7132 214c 3C       		.uleb128 0x3c
 7133 214d 6A200000 		.4byte	0x206a
 7134 2151 3C       		.uleb128 0x3c
 7135 2152 A8020000 		.4byte	0x2a8
 7136 2156 00       		.byte	0
 7137 2157 3F       		.uleb128 0x3f
 7138 2158 01       		.byte	0x1
 7139 2159 B5070000 		.4byte	.LASF300
 7140 215d 09       		.byte	0x9
 7141 215e 99       		.byte	0x99
 7142 215f 01       		.byte	0x1
 7143 2160 01       		.byte	0x1
 7144 2161 6B210000 		.4byte	0x216b
 7145 2165 3C       		.uleb128 0x3c
 7146 2166 6B210000 		.4byte	0x216b
 7147 216a 00       		.byte	0
 7148 216b 20       		.uleb128 0x20
 7149 216c 04       		.byte	0x4
 7150 216d 270A0000 		.4byte	0xa27
 7151 2171 3D       		.uleb128 0x3d
 7152 2172 01       		.byte	0x1
 7153 2173 7C0C0000 		.4byte	.LASF301
ARM GAS  C:\Users\CNous\AppData\Local\Temp\ccPT5vWC.s 			page 164


 7154 2177 05       		.byte	0x5
 7155 2178 3102     		.2byte	0x231
 7156 217a 01       		.byte	0x1
 7157 217b 01       		.byte	0x1
 7158 217c 8B210000 		.4byte	0x218b
 7159 2180 3C       		.uleb128 0x3c
 7160 2181 1D1F0000 		.4byte	0x1f1d
 7161 2185 3C       		.uleb128 0x3c
 7162 2186 39030000 		.4byte	0x339
 7163 218a 00       		.byte	0
 7164 218b 3D       		.uleb128 0x3d
 7165 218c 01       		.byte	0x1
 7166 218d 32120000 		.4byte	.LASF302
 7167 2191 05       		.byte	0x5
 7168 2192 2C02     		.2byte	0x22c
 7169 2194 01       		.byte	0x1
 7170 2195 01       		.byte	0x1
 7171 2196 A0210000 		.4byte	0x21a0
 7172 219a 3C       		.uleb128 0x3c
 7173 219b 1D1F0000 		.4byte	0x1f1d
 7174 219f 00       		.byte	0
 7175 21a0 3D       		.uleb128 0x3d
 7176 21a1 01       		.byte	0x1
 7177 21a2 6C060000 		.4byte	.LASF303
 7178 21a6 06       		.byte	0x6
 7179 21a7 7601     		.2byte	0x176
 7180 21a9 01       		.byte	0x1
 7181 21aa 01       		.byte	0x1
 7182 21ab BA210000 		.4byte	0x21ba
 7183 21af 3C       		.uleb128 0x3c
 7184 21b0 46200000 		.4byte	0x2046
 7185 21b4 3C       		.uleb128 0x3c
 7186 21b5 BA210000 		.4byte	0x21ba
 7187 21b9 00       		.byte	0
 7188 21ba 20       		.uleb128 0x20
 7189 21bb 04       		.byte	0x4
 7190 21bc 0B090000 		.4byte	0x90b
 7191 21c0 3D       		.uleb128 0x3d
 7192 21c1 01       		.byte	0x1
 7193 21c2 B60A0000 		.4byte	.LASF304
 7194 21c6 06       		.byte	0x6
 7195 21c7 8601     		.2byte	0x186
 7196 21c9 01       		.byte	0x1
 7197 21ca 01       		.byte	0x1
 7198 21cb DF210000 		.4byte	0x21df
 7199 21cf 3C       		.uleb128 0x3c
 7200 21d0 46200000 		.4byte	0x2046
 7201 21d4 3C       		.uleb128 0x3c
 7202 21d5 84020000 		.4byte	0x284
 7203 21d9 3C       		.uleb128 0x3c
 7204 21da 6B020000 		.4byte	0x26b
 7205 21de 00       		.byte	0
 7206 21df 3D       		.uleb128 0x3d
 7207 21e0 01       		.byte	0x1
 7208 21e1 FA100000 		.4byte	.LASF305
 7209 21e5 08       		.byte	0x8
 7210 21e6 EE01     		.2byte	0x1ee
ARM GAS  C:\Users\CNous\AppData\Local\Temp\ccPT5vWC.s 			page 165


 7211 21e8 01       		.byte	0x1
 7212 21e9 01       		.byte	0x1
 7213 21ea F9210000 		.4byte	0x21f9
 7214 21ee 3C       		.uleb128 0x3c
 7215 21ef F9210000 		.4byte	0x21f9
 7216 21f3 3C       		.uleb128 0x3c
 7217 21f4 39030000 		.4byte	0x339
 7218 21f8 00       		.byte	0
 7219 21f9 20       		.uleb128 0x20
 7220 21fa 04       		.byte	0x4
 7221 21fb C0060000 		.4byte	0x6c0
 7222 21ff 3D       		.uleb128 0x3d
 7223 2200 01       		.byte	0x1
 7224 2201 51060000 		.4byte	.LASF306
 7225 2205 08       		.byte	0x8
 7226 2206 E601     		.2byte	0x1e6
 7227 2208 01       		.byte	0x1
 7228 2209 01       		.byte	0x1
 7229 220a 14220000 		.4byte	0x2214
 7230 220e 3C       		.uleb128 0x3c
 7231 220f F9210000 		.4byte	0x21f9
 7232 2213 00       		.byte	0
 7233 2214 3D       		.uleb128 0x3d
 7234 2215 01       		.byte	0x1
 7235 2216 7B030000 		.4byte	.LASF307
 7236 221a 0C       		.byte	0xc
 7237 221b DA01     		.2byte	0x1da
 7238 221d 01       		.byte	0x1
 7239 221e 01       		.byte	0x1
 7240 221f 2E220000 		.4byte	0x222e
 7241 2223 3C       		.uleb128 0x3c
 7242 2224 A8020000 		.4byte	0x2a8
 7243 2228 3C       		.uleb128 0x3c
 7244 2229 39030000 		.4byte	0x339
 7245 222d 00       		.byte	0
 7246 222e 3D       		.uleb128 0x3d
 7247 222f 01       		.byte	0x1
 7248 2230 1A090000 		.4byte	.LASF308
 7249 2234 08       		.byte	0x8
 7250 2235 0202     		.2byte	0x202
 7251 2237 01       		.byte	0x1
 7252 2238 01       		.byte	0x1
 7253 2239 4D220000 		.4byte	0x224d
 7254 223d 3C       		.uleb128 0x3c
 7255 223e F9210000 		.4byte	0x21f9
 7256 2242 3C       		.uleb128 0x3c
 7257 2243 84020000 		.4byte	0x284
 7258 2247 3C       		.uleb128 0x3c
 7259 2248 39030000 		.4byte	0x339
 7260 224c 00       		.byte	0
 7261 224d 3B       		.uleb128 0x3b
 7262 224e 01       		.byte	0x1
 7263 224f 9B0C0000 		.4byte	.LASF309
 7264 2253 08       		.byte	0x8
 7265 2254 0602     		.2byte	0x206
 7266 2256 01       		.byte	0x1
 7267 2257 17030000 		.4byte	0x317
ARM GAS  C:\Users\CNous\AppData\Local\Temp\ccPT5vWC.s 			page 166


 7268 225b 01       		.byte	0x1
 7269 225c 6B220000 		.4byte	0x226b
 7270 2260 3C       		.uleb128 0x3c
 7271 2261 F9210000 		.4byte	0x21f9
 7272 2265 3C       		.uleb128 0x3c
 7273 2266 84020000 		.4byte	0x284
 7274 226a 00       		.byte	0
 7275 226b 3E       		.uleb128 0x3e
 7276 226c 01       		.byte	0x1
 7277 226d 7F100000 		.4byte	.LASF311
 7278 2271 0B       		.byte	0xb
 7279 2272 0801     		.2byte	0x108
 7280 2274 01       		.byte	0x1
 7281 2275 84020000 		.4byte	0x284
 7282 2279 01       		.byte	0x1
 7283 227a 3D       		.uleb128 0x3d
 7284 227b 01       		.byte	0x1
 7285 227c B90D0000 		.4byte	.LASF312
 7286 2280 08       		.byte	0x8
 7287 2281 F801     		.2byte	0x1f8
 7288 2283 01       		.byte	0x1
 7289 2284 01       		.byte	0x1
 7290 2285 94220000 		.4byte	0x2294
 7291 2289 3C       		.uleb128 0x3c
 7292 228a F9210000 		.4byte	0x21f9
 7293 228e 3C       		.uleb128 0x3c
 7294 228f 84020000 		.4byte	0x284
 7295 2293 00       		.byte	0
 7296 2294 3D       		.uleb128 0x3d
 7297 2295 01       		.byte	0x1
 7298 2296 7B000000 		.4byte	.LASF313
 7299 229a 04       		.byte	0x4
 7300 229b 0D01     		.2byte	0x10d
 7301 229d 01       		.byte	0x1
 7302 229e 01       		.byte	0x1
 7303 229f AE220000 		.4byte	0x22ae
 7304 22a3 3C       		.uleb128 0x3c
 7305 22a4 A8020000 		.4byte	0x2a8
 7306 22a8 3C       		.uleb128 0x3c
 7307 22a9 84020000 		.4byte	0x284
 7308 22ad 00       		.byte	0
 7309 22ae 3D       		.uleb128 0x3d
 7310 22af 01       		.byte	0x1
 7311 22b0 1B050000 		.4byte	.LASF314
 7312 22b4 05       		.byte	0x5
 7313 22b5 2F02     		.2byte	0x22f
 7314 22b7 01       		.byte	0x1
 7315 22b8 01       		.byte	0x1
 7316 22b9 C8220000 		.4byte	0x22c8
 7317 22bd 3C       		.uleb128 0x3c
 7318 22be 1D1F0000 		.4byte	0x1f1d
 7319 22c2 3C       		.uleb128 0x3c
 7320 22c3 C8220000 		.4byte	0x22c8
 7321 22c7 00       		.byte	0
 7322 22c8 20       		.uleb128 0x20
 7323 22c9 04       		.byte	0x4
 7324 22ca F3070000 		.4byte	0x7f3
ARM GAS  C:\Users\CNous\AppData\Local\Temp\ccPT5vWC.s 			page 167


 7325 22ce 3D       		.uleb128 0x3d
 7326 22cf 01       		.byte	0x1
 7327 22d0 18110000 		.4byte	.LASF315
 7328 22d4 0C       		.byte	0xc
 7329 22d5 D701     		.2byte	0x1d7
 7330 22d7 01       		.byte	0x1
 7331 22d8 01       		.byte	0x1
 7332 22d9 E8220000 		.4byte	0x22e8
 7333 22dd 3C       		.uleb128 0x3c
 7334 22de A8020000 		.4byte	0x2a8
 7335 22e2 3C       		.uleb128 0x3c
 7336 22e3 39030000 		.4byte	0x339
 7337 22e7 00       		.byte	0
 7338 22e8 3D       		.uleb128 0x3d
 7339 22e9 01       		.byte	0x1
 7340 22ea 0F110000 		.4byte	.LASF316
 7341 22ee 04       		.byte	0x4
 7342 22ef 0701     		.2byte	0x107
 7343 22f1 01       		.byte	0x1
 7344 22f2 01       		.byte	0x1
 7345 22f3 02230000 		.4byte	0x2302
 7346 22f7 3C       		.uleb128 0x3c
 7347 22f8 A8020000 		.4byte	0x2a8
 7348 22fc 3C       		.uleb128 0x3c
 7349 22fd 02230000 		.4byte	0x2302
 7350 2301 00       		.byte	0
 7351 2302 20       		.uleb128 0x20
 7352 2303 04       		.byte	0x4
 7353 2304 0D070000 		.4byte	0x70d
 7354 2308 3D       		.uleb128 0x3d
 7355 2309 01       		.byte	0x1
 7356 230a 930C0000 		.4byte	.LASF317
 7357 230e 04       		.byte	0x4
 7358 230f 0901     		.2byte	0x109
 7359 2311 01       		.byte	0x1
 7360 2312 01       		.byte	0x1
 7361 2313 22230000 		.4byte	0x2322
 7362 2317 3C       		.uleb128 0x3c
 7363 2318 A8020000 		.4byte	0x2a8
 7364 231c 3C       		.uleb128 0x3c
 7365 231d 39030000 		.4byte	0x339
 7366 2321 00       		.byte	0
 7367 2322 3D       		.uleb128 0x3d
 7368 2323 01       		.byte	0x1
 7369 2324 76060000 		.4byte	.LASF318
 7370 2328 07       		.byte	0x7
 7371 2329 1302     		.2byte	0x213
 7372 232b 01       		.byte	0x1
 7373 232c 01       		.byte	0x1
 7374 232d 37230000 		.4byte	0x2337
 7375 2331 3C       		.uleb128 0x3c
 7376 2332 6A200000 		.4byte	0x206a
 7377 2336 00       		.byte	0
 7378 2337 3D       		.uleb128 0x3d
 7379 2338 01       		.byte	0x1
 7380 2339 83070000 		.4byte	.LASF319
 7381 233d 07       		.byte	0x7
ARM GAS  C:\Users\CNous\AppData\Local\Temp\ccPT5vWC.s 			page 168


 7382 233e 1802     		.2byte	0x218
 7383 2340 01       		.byte	0x1
 7384 2341 01       		.byte	0x1
 7385 2342 51230000 		.4byte	0x2351
 7386 2346 3C       		.uleb128 0x3c
 7387 2347 6A200000 		.4byte	0x206a
 7388 234b 3C       		.uleb128 0x3c
 7389 234c 39030000 		.4byte	0x339
 7390 2350 00       		.byte	0
 7391 2351 3D       		.uleb128 0x3d
 7392 2352 01       		.byte	0x1
 7393 2353 A4080000 		.4byte	.LASF320
 7394 2357 07       		.byte	0x7
 7395 2358 1602     		.2byte	0x216
 7396 235a 01       		.byte	0x1
 7397 235b 01       		.byte	0x1
 7398 235c 6B230000 		.4byte	0x236b
 7399 2360 3C       		.uleb128 0x3c
 7400 2361 6A200000 		.4byte	0x206a
 7401 2365 3C       		.uleb128 0x3c
 7402 2366 6B230000 		.4byte	0x236b
 7403 236a 00       		.byte	0
 7404 236b 20       		.uleb128 0x20
 7405 236c 04       		.byte	0x4
 7406 236d 73090000 		.4byte	0x973
 7407 2371 3D       		.uleb128 0x3d
 7408 2372 01       		.byte	0x1
 7409 2373 9D090000 		.4byte	.LASF321
 7410 2377 08       		.byte	0x8
 7411 2378 EA01     		.2byte	0x1ea
 7412 237a 01       		.byte	0x1
 7413 237b 01       		.byte	0x1
 7414 237c 8B230000 		.4byte	0x238b
 7415 2380 3C       		.uleb128 0x3c
 7416 2381 F9210000 		.4byte	0x21f9
 7417 2385 3C       		.uleb128 0x3c
 7418 2386 8B230000 		.4byte	0x238b
 7419 238a 00       		.byte	0
 7420 238b 20       		.uleb128 0x20
 7421 238c 04       		.byte	0x4
 7422 238d DB090000 		.4byte	0x9db
 7423 2391 3D       		.uleb128 0x3d
 7424 2392 01       		.byte	0x1
 7425 2393 25010000 		.4byte	.LASF322
 7426 2397 08       		.byte	0x8
 7427 2398 0502     		.2byte	0x205
 7428 239a 01       		.byte	0x1
 7429 239b 01       		.byte	0x1
 7430 239c B0230000 		.4byte	0x23b0
 7431 23a0 3C       		.uleb128 0x3c
 7432 23a1 F9210000 		.4byte	0x21f9
 7433 23a5 3C       		.uleb128 0x3c
 7434 23a6 6B020000 		.4byte	0x26b
 7435 23aa 3C       		.uleb128 0x3c
 7436 23ab 39030000 		.4byte	0x339
 7437 23af 00       		.byte	0
 7438 23b0 40       		.uleb128 0x40
ARM GAS  C:\Users\CNous\AppData\Local\Temp\ccPT5vWC.s 			page 169


 7439 23b1 01       		.byte	0x1
 7440 23b2 B6100000 		.4byte	.LASF328
 7441 23b6 05       		.byte	0x5
 7442 23b7 4802     		.2byte	0x248
 7443 23b9 01       		.byte	0x1
 7444 23ba 01       		.byte	0x1
 7445 23bb 3C       		.uleb128 0x3c
 7446 23bc 1D1F0000 		.4byte	0x1f1d
 7447 23c0 3C       		.uleb128 0x3c
 7448 23c1 A8020000 		.4byte	0x2a8
 7449 23c5 3C       		.uleb128 0x3c
 7450 23c6 39030000 		.4byte	0x339
 7451 23ca 00       		.byte	0
 7452 23cb 00       		.byte	0
 7453              		.section	.debug_abbrev,"",%progbits
 7454              	.Ldebug_abbrev0:
 7455 0000 01       		.uleb128 0x1
 7456 0001 11       		.uleb128 0x11
 7457 0002 01       		.byte	0x1
 7458 0003 25       		.uleb128 0x25
 7459 0004 0E       		.uleb128 0xe
 7460 0005 13       		.uleb128 0x13
 7461 0006 0B       		.uleb128 0xb
 7462 0007 03       		.uleb128 0x3
 7463 0008 0E       		.uleb128 0xe
 7464 0009 1B       		.uleb128 0x1b
 7465 000a 0E       		.uleb128 0xe
 7466 000b 55       		.uleb128 0x55
 7467 000c 06       		.uleb128 0x6
 7468 000d 11       		.uleb128 0x11
 7469 000e 01       		.uleb128 0x1
 7470 000f 52       		.uleb128 0x52
 7471 0010 01       		.uleb128 0x1
 7472 0011 10       		.uleb128 0x10
 7473 0012 06       		.uleb128 0x6
 7474 0013 00       		.byte	0
 7475 0014 00       		.byte	0
 7476 0015 02       		.uleb128 0x2
 7477 0016 04       		.uleb128 0x4
 7478 0017 01       		.byte	0x1
 7479 0018 03       		.uleb128 0x3
 7480 0019 0E       		.uleb128 0xe
 7481 001a 0B       		.uleb128 0xb
 7482 001b 0B       		.uleb128 0xb
 7483 001c 3A       		.uleb128 0x3a
 7484 001d 0B       		.uleb128 0xb
 7485 001e 3B       		.uleb128 0x3b
 7486 001f 0B       		.uleb128 0xb
 7487 0020 01       		.uleb128 0x1
 7488 0021 13       		.uleb128 0x13
 7489 0022 00       		.byte	0
 7490 0023 00       		.byte	0
 7491 0024 03       		.uleb128 0x3
 7492 0025 28       		.uleb128 0x28
 7493 0026 00       		.byte	0
 7494 0027 03       		.uleb128 0x3
 7495 0028 0E       		.uleb128 0xe
ARM GAS  C:\Users\CNous\AppData\Local\Temp\ccPT5vWC.s 			page 170


 7496 0029 1C       		.uleb128 0x1c
 7497 002a 0D       		.uleb128 0xd
 7498 002b 00       		.byte	0
 7499 002c 00       		.byte	0
 7500 002d 04       		.uleb128 0x4
 7501 002e 24       		.uleb128 0x24
 7502 002f 00       		.byte	0
 7503 0030 0B       		.uleb128 0xb
 7504 0031 0B       		.uleb128 0xb
 7505 0032 3E       		.uleb128 0x3e
 7506 0033 0B       		.uleb128 0xb
 7507 0034 03       		.uleb128 0x3
 7508 0035 0E       		.uleb128 0xe
 7509 0036 00       		.byte	0
 7510 0037 00       		.byte	0
 7511 0038 05       		.uleb128 0x5
 7512 0039 16       		.uleb128 0x16
 7513 003a 00       		.byte	0
 7514 003b 03       		.uleb128 0x3
 7515 003c 0E       		.uleb128 0xe
 7516 003d 3A       		.uleb128 0x3a
 7517 003e 0B       		.uleb128 0xb
 7518 003f 3B       		.uleb128 0x3b
 7519 0040 0B       		.uleb128 0xb
 7520 0041 49       		.uleb128 0x49
 7521 0042 13       		.uleb128 0x13
 7522 0043 00       		.byte	0
 7523 0044 00       		.byte	0
 7524 0045 06       		.uleb128 0x6
 7525 0046 24       		.uleb128 0x24
 7526 0047 00       		.byte	0
 7527 0048 0B       		.uleb128 0xb
 7528 0049 0B       		.uleb128 0xb
 7529 004a 3E       		.uleb128 0x3e
 7530 004b 0B       		.uleb128 0xb
 7531 004c 03       		.uleb128 0x3
 7532 004d 08       		.uleb128 0x8
 7533 004e 00       		.byte	0
 7534 004f 00       		.byte	0
 7535 0050 07       		.uleb128 0x7
 7536 0051 35       		.uleb128 0x35
 7537 0052 00       		.byte	0
 7538 0053 49       		.uleb128 0x49
 7539 0054 13       		.uleb128 0x13
 7540 0055 00       		.byte	0
 7541 0056 00       		.byte	0
 7542 0057 08       		.uleb128 0x8
 7543 0058 01       		.uleb128 0x1
 7544 0059 01       		.byte	0x1
 7545 005a 49       		.uleb128 0x49
 7546 005b 13       		.uleb128 0x13
 7547 005c 01       		.uleb128 0x1
 7548 005d 13       		.uleb128 0x13
 7549 005e 00       		.byte	0
 7550 005f 00       		.byte	0
 7551 0060 09       		.uleb128 0x9
 7552 0061 21       		.uleb128 0x21
ARM GAS  C:\Users\CNous\AppData\Local\Temp\ccPT5vWC.s 			page 171


 7553 0062 00       		.byte	0
 7554 0063 49       		.uleb128 0x49
 7555 0064 13       		.uleb128 0x13
 7556 0065 2F       		.uleb128 0x2f
 7557 0066 0B       		.uleb128 0xb
 7558 0067 00       		.byte	0
 7559 0068 00       		.byte	0
 7560 0069 0A       		.uleb128 0xa
 7561 006a 04       		.uleb128 0x4
 7562 006b 01       		.byte	0x1
 7563 006c 0B       		.uleb128 0xb
 7564 006d 0B       		.uleb128 0xb
 7565 006e 3A       		.uleb128 0x3a
 7566 006f 0B       		.uleb128 0xb
 7567 0070 3B       		.uleb128 0x3b
 7568 0071 05       		.uleb128 0x5
 7569 0072 01       		.uleb128 0x1
 7570 0073 13       		.uleb128 0x13
 7571 0074 00       		.byte	0
 7572 0075 00       		.byte	0
 7573 0076 0B       		.uleb128 0xb
 7574 0077 28       		.uleb128 0x28
 7575 0078 00       		.byte	0
 7576 0079 03       		.uleb128 0x3
 7577 007a 08       		.uleb128 0x8
 7578 007b 1C       		.uleb128 0x1c
 7579 007c 0D       		.uleb128 0xd
 7580 007d 00       		.byte	0
 7581 007e 00       		.byte	0
 7582 007f 0C       		.uleb128 0xc
 7583 0080 16       		.uleb128 0x16
 7584 0081 00       		.byte	0
 7585 0082 03       		.uleb128 0x3
 7586 0083 0E       		.uleb128 0xe
 7587 0084 3A       		.uleb128 0x3a
 7588 0085 0B       		.uleb128 0xb
 7589 0086 3B       		.uleb128 0x3b
 7590 0087 05       		.uleb128 0x5
 7591 0088 49       		.uleb128 0x49
 7592 0089 13       		.uleb128 0x13
 7593 008a 00       		.byte	0
 7594 008b 00       		.byte	0
 7595 008c 0D       		.uleb128 0xd
 7596 008d 13       		.uleb128 0x13
 7597 008e 01       		.byte	0x1
 7598 008f 0B       		.uleb128 0xb
 7599 0090 0B       		.uleb128 0xb
 7600 0091 3A       		.uleb128 0x3a
 7601 0092 0B       		.uleb128 0xb
 7602 0093 3B       		.uleb128 0x3b
 7603 0094 05       		.uleb128 0x5
 7604 0095 01       		.uleb128 0x1
 7605 0096 13       		.uleb128 0x13
 7606 0097 00       		.byte	0
 7607 0098 00       		.byte	0
 7608 0099 0E       		.uleb128 0xe
 7609 009a 0D       		.uleb128 0xd
ARM GAS  C:\Users\CNous\AppData\Local\Temp\ccPT5vWC.s 			page 172


 7610 009b 00       		.byte	0
 7611 009c 03       		.uleb128 0x3
 7612 009d 08       		.uleb128 0x8
 7613 009e 3A       		.uleb128 0x3a
 7614 009f 0B       		.uleb128 0xb
 7615 00a0 3B       		.uleb128 0x3b
 7616 00a1 05       		.uleb128 0x5
 7617 00a2 49       		.uleb128 0x49
 7618 00a3 13       		.uleb128 0x13
 7619 00a4 38       		.uleb128 0x38
 7620 00a5 0A       		.uleb128 0xa
 7621 00a6 00       		.byte	0
 7622 00a7 00       		.byte	0
 7623 00a8 0F       		.uleb128 0xf
 7624 00a9 0D       		.uleb128 0xd
 7625 00aa 00       		.byte	0
 7626 00ab 03       		.uleb128 0x3
 7627 00ac 0E       		.uleb128 0xe
 7628 00ad 3A       		.uleb128 0x3a
 7629 00ae 0B       		.uleb128 0xb
 7630 00af 3B       		.uleb128 0x3b
 7631 00b0 05       		.uleb128 0x5
 7632 00b1 49       		.uleb128 0x49
 7633 00b2 13       		.uleb128 0x13
 7634 00b3 38       		.uleb128 0x38
 7635 00b4 0A       		.uleb128 0xa
 7636 00b5 00       		.byte	0
 7637 00b6 00       		.byte	0
 7638 00b7 10       		.uleb128 0x10
 7639 00b8 13       		.uleb128 0x13
 7640 00b9 01       		.byte	0x1
 7641 00ba 0B       		.uleb128 0xb
 7642 00bb 0B       		.uleb128 0xb
 7643 00bc 3A       		.uleb128 0x3a
 7644 00bd 0B       		.uleb128 0xb
 7645 00be 3B       		.uleb128 0x3b
 7646 00bf 0B       		.uleb128 0xb
 7647 00c0 01       		.uleb128 0x1
 7648 00c1 13       		.uleb128 0x13
 7649 00c2 00       		.byte	0
 7650 00c3 00       		.byte	0
 7651 00c4 11       		.uleb128 0x11
 7652 00c5 0D       		.uleb128 0xd
 7653 00c6 00       		.byte	0
 7654 00c7 03       		.uleb128 0x3
 7655 00c8 0E       		.uleb128 0xe
 7656 00c9 3A       		.uleb128 0x3a
 7657 00ca 0B       		.uleb128 0xb
 7658 00cb 3B       		.uleb128 0x3b
 7659 00cc 0B       		.uleb128 0xb
 7660 00cd 49       		.uleb128 0x49
 7661 00ce 13       		.uleb128 0x13
 7662 00cf 38       		.uleb128 0x38
 7663 00d0 0A       		.uleb128 0xa
 7664 00d1 00       		.byte	0
 7665 00d2 00       		.byte	0
 7666 00d3 12       		.uleb128 0x12
ARM GAS  C:\Users\CNous\AppData\Local\Temp\ccPT5vWC.s 			page 173


 7667 00d4 04       		.uleb128 0x4
 7668 00d5 01       		.byte	0x1
 7669 00d6 0B       		.uleb128 0xb
 7670 00d7 0B       		.uleb128 0xb
 7671 00d8 3A       		.uleb128 0x3a
 7672 00d9 0B       		.uleb128 0xb
 7673 00da 3B       		.uleb128 0x3b
 7674 00db 0B       		.uleb128 0xb
 7675 00dc 01       		.uleb128 0x1
 7676 00dd 13       		.uleb128 0x13
 7677 00de 00       		.byte	0
 7678 00df 00       		.byte	0
 7679 00e0 13       		.uleb128 0x13
 7680 00e1 2E       		.uleb128 0x2e
 7681 00e2 01       		.byte	0x1
 7682 00e3 03       		.uleb128 0x3
 7683 00e4 0E       		.uleb128 0xe
 7684 00e5 3A       		.uleb128 0x3a
 7685 00e6 0B       		.uleb128 0xb
 7686 00e7 3B       		.uleb128 0x3b
 7687 00e8 05       		.uleb128 0x5
 7688 00e9 27       		.uleb128 0x27
 7689 00ea 0C       		.uleb128 0xc
 7690 00eb 49       		.uleb128 0x49
 7691 00ec 13       		.uleb128 0x13
 7692 00ed 20       		.uleb128 0x20
 7693 00ee 0B       		.uleb128 0xb
 7694 00ef 01       		.uleb128 0x1
 7695 00f0 13       		.uleb128 0x13
 7696 00f1 00       		.byte	0
 7697 00f2 00       		.byte	0
 7698 00f3 14       		.uleb128 0x14
 7699 00f4 05       		.uleb128 0x5
 7700 00f5 00       		.byte	0
 7701 00f6 03       		.uleb128 0x3
 7702 00f7 0E       		.uleb128 0xe
 7703 00f8 3A       		.uleb128 0x3a
 7704 00f9 0B       		.uleb128 0xb
 7705 00fa 3B       		.uleb128 0x3b
 7706 00fb 05       		.uleb128 0x5
 7707 00fc 49       		.uleb128 0x49
 7708 00fd 13       		.uleb128 0x13
 7709 00fe 00       		.byte	0
 7710 00ff 00       		.byte	0
 7711 0100 15       		.uleb128 0x15
 7712 0101 34       		.uleb128 0x34
 7713 0102 00       		.byte	0
 7714 0103 03       		.uleb128 0x3
 7715 0104 0E       		.uleb128 0xe
 7716 0105 3A       		.uleb128 0x3a
 7717 0106 0B       		.uleb128 0xb
 7718 0107 3B       		.uleb128 0x3b
 7719 0108 05       		.uleb128 0x5
 7720 0109 49       		.uleb128 0x49
 7721 010a 13       		.uleb128 0x13
 7722 010b 00       		.byte	0
 7723 010c 00       		.byte	0
ARM GAS  C:\Users\CNous\AppData\Local\Temp\ccPT5vWC.s 			page 174


 7724 010d 16       		.uleb128 0x16
 7725 010e 05       		.uleb128 0x5
 7726 010f 00       		.byte	0
 7727 0110 03       		.uleb128 0x3
 7728 0111 08       		.uleb128 0x8
 7729 0112 3A       		.uleb128 0x3a
 7730 0113 0B       		.uleb128 0xb
 7731 0114 3B       		.uleb128 0x3b
 7732 0115 05       		.uleb128 0x5
 7733 0116 49       		.uleb128 0x49
 7734 0117 13       		.uleb128 0x13
 7735 0118 00       		.byte	0
 7736 0119 00       		.byte	0
 7737 011a 17       		.uleb128 0x17
 7738 011b 2E       		.uleb128 0x2e
 7739 011c 01       		.byte	0x1
 7740 011d 03       		.uleb128 0x3
 7741 011e 0E       		.uleb128 0xe
 7742 011f 3A       		.uleb128 0x3a
 7743 0120 0B       		.uleb128 0xb
 7744 0121 3B       		.uleb128 0x3b
 7745 0122 05       		.uleb128 0x5
 7746 0123 27       		.uleb128 0x27
 7747 0124 0C       		.uleb128 0xc
 7748 0125 20       		.uleb128 0x20
 7749 0126 0B       		.uleb128 0xb
 7750 0127 01       		.uleb128 0x1
 7751 0128 13       		.uleb128 0x13
 7752 0129 00       		.byte	0
 7753 012a 00       		.byte	0
 7754 012b 18       		.uleb128 0x18
 7755 012c 2E       		.uleb128 0x2e
 7756 012d 00       		.byte	0
 7757 012e 03       		.uleb128 0x3
 7758 012f 0E       		.uleb128 0xe
 7759 0130 3A       		.uleb128 0x3a
 7760 0131 0B       		.uleb128 0xb
 7761 0132 3B       		.uleb128 0x3b
 7762 0133 05       		.uleb128 0x5
 7763 0134 27       		.uleb128 0x27
 7764 0135 0C       		.uleb128 0xc
 7765 0136 20       		.uleb128 0x20
 7766 0137 0B       		.uleb128 0xb
 7767 0138 00       		.byte	0
 7768 0139 00       		.byte	0
 7769 013a 19       		.uleb128 0x19
 7770 013b 2E       		.uleb128 0x2e
 7771 013c 00       		.byte	0
 7772 013d 03       		.uleb128 0x3
 7773 013e 0E       		.uleb128 0xe
 7774 013f 3A       		.uleb128 0x3a
 7775 0140 0B       		.uleb128 0xb
 7776 0141 3B       		.uleb128 0x3b
 7777 0142 05       		.uleb128 0x5
 7778 0143 27       		.uleb128 0x27
 7779 0144 0C       		.uleb128 0xc
 7780 0145 49       		.uleb128 0x49
ARM GAS  C:\Users\CNous\AppData\Local\Temp\ccPT5vWC.s 			page 175


 7781 0146 13       		.uleb128 0x13
 7782 0147 20       		.uleb128 0x20
 7783 0148 0B       		.uleb128 0xb
 7784 0149 00       		.byte	0
 7785 014a 00       		.byte	0
 7786 014b 1A       		.uleb128 0x1a
 7787 014c 2E       		.uleb128 0x2e
 7788 014d 01       		.byte	0x1
 7789 014e 03       		.uleb128 0x3
 7790 014f 0E       		.uleb128 0xe
 7791 0150 3A       		.uleb128 0x3a
 7792 0151 0B       		.uleb128 0xb
 7793 0152 3B       		.uleb128 0x3b
 7794 0153 05       		.uleb128 0x5
 7795 0154 27       		.uleb128 0x27
 7796 0155 0C       		.uleb128 0xc
 7797 0156 11       		.uleb128 0x11
 7798 0157 01       		.uleb128 0x1
 7799 0158 12       		.uleb128 0x12
 7800 0159 01       		.uleb128 0x1
 7801 015a 40       		.uleb128 0x40
 7802 015b 06       		.uleb128 0x6
 7803 015c 9742     		.uleb128 0x2117
 7804 015e 0C       		.uleb128 0xc
 7805 015f 01       		.uleb128 0x1
 7806 0160 13       		.uleb128 0x13
 7807 0161 00       		.byte	0
 7808 0162 00       		.byte	0
 7809 0163 1B       		.uleb128 0x1b
 7810 0164 34       		.uleb128 0x34
 7811 0165 00       		.byte	0
 7812 0166 03       		.uleb128 0x3
 7813 0167 0E       		.uleb128 0xe
 7814 0168 3A       		.uleb128 0x3a
 7815 0169 0B       		.uleb128 0xb
 7816 016a 3B       		.uleb128 0x3b
 7817 016b 05       		.uleb128 0x5
 7818 016c 49       		.uleb128 0x49
 7819 016d 13       		.uleb128 0x13
 7820 016e 02       		.uleb128 0x2
 7821 016f 0A       		.uleb128 0xa
 7822 0170 00       		.byte	0
 7823 0171 00       		.byte	0
 7824 0172 1C       		.uleb128 0x1c
 7825 0173 898201   		.uleb128 0x4109
 7826 0176 00       		.byte	0
 7827 0177 11       		.uleb128 0x11
 7828 0178 01       		.uleb128 0x1
 7829 0179 31       		.uleb128 0x31
 7830 017a 13       		.uleb128 0x13
 7831 017b 00       		.byte	0
 7832 017c 00       		.byte	0
 7833 017d 1D       		.uleb128 0x1d
 7834 017e 898201   		.uleb128 0x4109
 7835 0181 01       		.byte	0x1
 7836 0182 11       		.uleb128 0x11
 7837 0183 01       		.uleb128 0x1
ARM GAS  C:\Users\CNous\AppData\Local\Temp\ccPT5vWC.s 			page 176


 7838 0184 31       		.uleb128 0x31
 7839 0185 13       		.uleb128 0x13
 7840 0186 01       		.uleb128 0x1
 7841 0187 13       		.uleb128 0x13
 7842 0188 00       		.byte	0
 7843 0189 00       		.byte	0
 7844 018a 1E       		.uleb128 0x1e
 7845 018b 8A8201   		.uleb128 0x410a
 7846 018e 00       		.byte	0
 7847 018f 02       		.uleb128 0x2
 7848 0190 0A       		.uleb128 0xa
 7849 0191 9142     		.uleb128 0x2111
 7850 0193 0A       		.uleb128 0xa
 7851 0194 00       		.byte	0
 7852 0195 00       		.byte	0
 7853 0196 1F       		.uleb128 0x1f
 7854 0197 898201   		.uleb128 0x4109
 7855 019a 00       		.byte	0
 7856 019b 11       		.uleb128 0x11
 7857 019c 01       		.uleb128 0x1
 7858 019d 9542     		.uleb128 0x2115
 7859 019f 0C       		.uleb128 0xc
 7860 01a0 31       		.uleb128 0x31
 7861 01a1 13       		.uleb128 0x13
 7862 01a2 00       		.byte	0
 7863 01a3 00       		.byte	0
 7864 01a4 20       		.uleb128 0x20
 7865 01a5 0F       		.uleb128 0xf
 7866 01a6 00       		.byte	0
 7867 01a7 0B       		.uleb128 0xb
 7868 01a8 0B       		.uleb128 0xb
 7869 01a9 49       		.uleb128 0x49
 7870 01aa 13       		.uleb128 0x13
 7871 01ab 00       		.byte	0
 7872 01ac 00       		.byte	0
 7873 01ad 21       		.uleb128 0x21
 7874 01ae 1D       		.uleb128 0x1d
 7875 01af 01       		.byte	0x1
 7876 01b0 31       		.uleb128 0x31
 7877 01b1 13       		.uleb128 0x13
 7878 01b2 11       		.uleb128 0x11
 7879 01b3 01       		.uleb128 0x1
 7880 01b4 12       		.uleb128 0x12
 7881 01b5 01       		.uleb128 0x1
 7882 01b6 58       		.uleb128 0x58
 7883 01b7 0B       		.uleb128 0xb
 7884 01b8 59       		.uleb128 0x59
 7885 01b9 05       		.uleb128 0x5
 7886 01ba 01       		.uleb128 0x1
 7887 01bb 13       		.uleb128 0x13
 7888 01bc 00       		.byte	0
 7889 01bd 00       		.byte	0
 7890 01be 22       		.uleb128 0x22
 7891 01bf 05       		.uleb128 0x5
 7892 01c0 00       		.byte	0
 7893 01c1 31       		.uleb128 0x31
 7894 01c2 13       		.uleb128 0x13
ARM GAS  C:\Users\CNous\AppData\Local\Temp\ccPT5vWC.s 			page 177


 7895 01c3 00       		.byte	0
 7896 01c4 00       		.byte	0
 7897 01c5 23       		.uleb128 0x23
 7898 01c6 898201   		.uleb128 0x4109
 7899 01c9 01       		.byte	0x1
 7900 01ca 11       		.uleb128 0x11
 7901 01cb 01       		.uleb128 0x1
 7902 01cc 31       		.uleb128 0x31
 7903 01cd 13       		.uleb128 0x13
 7904 01ce 00       		.byte	0
 7905 01cf 00       		.byte	0
 7906 01d0 24       		.uleb128 0x24
 7907 01d1 2E       		.uleb128 0x2e
 7908 01d2 01       		.byte	0x1
 7909 01d3 31       		.uleb128 0x31
 7910 01d4 13       		.uleb128 0x13
 7911 01d5 11       		.uleb128 0x11
 7912 01d6 01       		.uleb128 0x1
 7913 01d7 12       		.uleb128 0x12
 7914 01d8 01       		.uleb128 0x1
 7915 01d9 40       		.uleb128 0x40
 7916 01da 06       		.uleb128 0x6
 7917 01db 9742     		.uleb128 0x2117
 7918 01dd 0C       		.uleb128 0xc
 7919 01de 01       		.uleb128 0x1
 7920 01df 13       		.uleb128 0x13
 7921 01e0 00       		.byte	0
 7922 01e1 00       		.byte	0
 7923 01e2 25       		.uleb128 0x25
 7924 01e3 05       		.uleb128 0x5
 7925 01e4 00       		.byte	0
 7926 01e5 31       		.uleb128 0x31
 7927 01e6 13       		.uleb128 0x13
 7928 01e7 02       		.uleb128 0x2
 7929 01e8 06       		.uleb128 0x6
 7930 01e9 00       		.byte	0
 7931 01ea 00       		.byte	0
 7932 01eb 26       		.uleb128 0x26
 7933 01ec 34       		.uleb128 0x34
 7934 01ed 00       		.byte	0
 7935 01ee 31       		.uleb128 0x31
 7936 01ef 13       		.uleb128 0x13
 7937 01f0 1C       		.uleb128 0x1c
 7938 01f1 0B       		.uleb128 0xb
 7939 01f2 00       		.byte	0
 7940 01f3 00       		.byte	0
 7941 01f4 27       		.uleb128 0x27
 7942 01f5 1D       		.uleb128 0x1d
 7943 01f6 01       		.byte	0x1
 7944 01f7 31       		.uleb128 0x31
 7945 01f8 13       		.uleb128 0x13
 7946 01f9 52       		.uleb128 0x52
 7947 01fa 01       		.uleb128 0x1
 7948 01fb 55       		.uleb128 0x55
 7949 01fc 06       		.uleb128 0x6
 7950 01fd 58       		.uleb128 0x58
 7951 01fe 0B       		.uleb128 0xb
ARM GAS  C:\Users\CNous\AppData\Local\Temp\ccPT5vWC.s 			page 178


 7952 01ff 59       		.uleb128 0x59
 7953 0200 05       		.uleb128 0x5
 7954 0201 01       		.uleb128 0x1
 7955 0202 13       		.uleb128 0x13
 7956 0203 00       		.byte	0
 7957 0204 00       		.byte	0
 7958 0205 28       		.uleb128 0x28
 7959 0206 05       		.uleb128 0x5
 7960 0207 00       		.byte	0
 7961 0208 31       		.uleb128 0x31
 7962 0209 13       		.uleb128 0x13
 7963 020a 02       		.uleb128 0x2
 7964 020b 0A       		.uleb128 0xa
 7965 020c 00       		.byte	0
 7966 020d 00       		.byte	0
 7967 020e 29       		.uleb128 0x29
 7968 020f 0B       		.uleb128 0xb
 7969 0210 01       		.byte	0x1
 7970 0211 55       		.uleb128 0x55
 7971 0212 06       		.uleb128 0x6
 7972 0213 00       		.byte	0
 7973 0214 00       		.byte	0
 7974 0215 2A       		.uleb128 0x2a
 7975 0216 34       		.uleb128 0x34
 7976 0217 00       		.byte	0
 7977 0218 31       		.uleb128 0x31
 7978 0219 13       		.uleb128 0x13
 7979 021a 02       		.uleb128 0x2
 7980 021b 06       		.uleb128 0x6
 7981 021c 00       		.byte	0
 7982 021d 00       		.byte	0
 7983 021e 2B       		.uleb128 0x2b
 7984 021f 2E       		.uleb128 0x2e
 7985 0220 01       		.byte	0x1
 7986 0221 31       		.uleb128 0x31
 7987 0222 13       		.uleb128 0x13
 7988 0223 11       		.uleb128 0x11
 7989 0224 01       		.uleb128 0x1
 7990 0225 12       		.uleb128 0x12
 7991 0226 01       		.uleb128 0x1
 7992 0227 40       		.uleb128 0x40
 7993 0228 0A       		.uleb128 0xa
 7994 0229 9742     		.uleb128 0x2117
 7995 022b 0C       		.uleb128 0xc
 7996 022c 01       		.uleb128 0x1
 7997 022d 13       		.uleb128 0x13
 7998 022e 00       		.byte	0
 7999 022f 00       		.byte	0
 8000 0230 2C       		.uleb128 0x2c
 8001 0231 34       		.uleb128 0x34
 8002 0232 00       		.byte	0
 8003 0233 31       		.uleb128 0x31
 8004 0234 13       		.uleb128 0x13
 8005 0235 00       		.byte	0
 8006 0236 00       		.byte	0
 8007 0237 2D       		.uleb128 0x2d
 8008 0238 898201   		.uleb128 0x4109
ARM GAS  C:\Users\CNous\AppData\Local\Temp\ccPT5vWC.s 			page 179


 8009 023b 01       		.byte	0x1
 8010 023c 11       		.uleb128 0x11
 8011 023d 01       		.uleb128 0x1
 8012 023e 9542     		.uleb128 0x2115
 8013 0240 0C       		.uleb128 0xc
 8014 0241 31       		.uleb128 0x31
 8015 0242 13       		.uleb128 0x13
 8016 0243 00       		.byte	0
 8017 0244 00       		.byte	0
 8018 0245 2E       		.uleb128 0x2e
 8019 0246 2E       		.uleb128 0x2e
 8020 0247 01       		.byte	0x1
 8021 0248 3F       		.uleb128 0x3f
 8022 0249 0C       		.uleb128 0xc
 8023 024a 03       		.uleb128 0x3
 8024 024b 0E       		.uleb128 0xe
 8025 024c 3A       		.uleb128 0x3a
 8026 024d 0B       		.uleb128 0xb
 8027 024e 3B       		.uleb128 0x3b
 8028 024f 05       		.uleb128 0x5
 8029 0250 27       		.uleb128 0x27
 8030 0251 0C       		.uleb128 0xc
 8031 0252 11       		.uleb128 0x11
 8032 0253 01       		.uleb128 0x1
 8033 0254 12       		.uleb128 0x12
 8034 0255 01       		.uleb128 0x1
 8035 0256 40       		.uleb128 0x40
 8036 0257 06       		.uleb128 0x6
 8037 0258 9742     		.uleb128 0x2117
 8038 025a 0C       		.uleb128 0xc
 8039 025b 01       		.uleb128 0x1
 8040 025c 13       		.uleb128 0x13
 8041 025d 00       		.byte	0
 8042 025e 00       		.byte	0
 8043 025f 2F       		.uleb128 0x2f
 8044 0260 05       		.uleb128 0x5
 8045 0261 00       		.byte	0
 8046 0262 03       		.uleb128 0x3
 8047 0263 0E       		.uleb128 0xe
 8048 0264 3A       		.uleb128 0x3a
 8049 0265 0B       		.uleb128 0xb
 8050 0266 3B       		.uleb128 0x3b
 8051 0267 05       		.uleb128 0x5
 8052 0268 49       		.uleb128 0x49
 8053 0269 13       		.uleb128 0x13
 8054 026a 02       		.uleb128 0x2
 8055 026b 06       		.uleb128 0x6
 8056 026c 00       		.byte	0
 8057 026d 00       		.byte	0
 8058 026e 30       		.uleb128 0x30
 8059 026f 2E       		.uleb128 0x2e
 8060 0270 01       		.byte	0x1
 8061 0271 3F       		.uleb128 0x3f
 8062 0272 0C       		.uleb128 0xc
 8063 0273 03       		.uleb128 0x3
 8064 0274 0E       		.uleb128 0xe
 8065 0275 3A       		.uleb128 0x3a
ARM GAS  C:\Users\CNous\AppData\Local\Temp\ccPT5vWC.s 			page 180


 8066 0276 0B       		.uleb128 0xb
 8067 0277 3B       		.uleb128 0x3b
 8068 0278 05       		.uleb128 0x5
 8069 0279 27       		.uleb128 0x27
 8070 027a 0C       		.uleb128 0xc
 8071 027b 49       		.uleb128 0x49
 8072 027c 13       		.uleb128 0x13
 8073 027d 11       		.uleb128 0x11
 8074 027e 01       		.uleb128 0x1
 8075 027f 12       		.uleb128 0x12
 8076 0280 01       		.uleb128 0x1
 8077 0281 40       		.uleb128 0x40
 8078 0282 06       		.uleb128 0x6
 8079 0283 9742     		.uleb128 0x2117
 8080 0285 0C       		.uleb128 0xc
 8081 0286 01       		.uleb128 0x1
 8082 0287 13       		.uleb128 0x13
 8083 0288 00       		.byte	0
 8084 0289 00       		.byte	0
 8085 028a 31       		.uleb128 0x31
 8086 028b 34       		.uleb128 0x34
 8087 028c 00       		.byte	0
 8088 028d 31       		.uleb128 0x31
 8089 028e 13       		.uleb128 0x13
 8090 028f 02       		.uleb128 0x2
 8091 0290 0A       		.uleb128 0xa
 8092 0291 00       		.byte	0
 8093 0292 00       		.byte	0
 8094 0293 32       		.uleb128 0x32
 8095 0294 1D       		.uleb128 0x1d
 8096 0295 01       		.byte	0x1
 8097 0296 31       		.uleb128 0x31
 8098 0297 13       		.uleb128 0x13
 8099 0298 52       		.uleb128 0x52
 8100 0299 01       		.uleb128 0x1
 8101 029a 55       		.uleb128 0x55
 8102 029b 06       		.uleb128 0x6
 8103 029c 58       		.uleb128 0x58
 8104 029d 0B       		.uleb128 0xb
 8105 029e 59       		.uleb128 0x59
 8106 029f 05       		.uleb128 0x5
 8107 02a0 00       		.byte	0
 8108 02a1 00       		.byte	0
 8109 02a2 33       		.uleb128 0x33
 8110 02a3 05       		.uleb128 0x5
 8111 02a4 00       		.byte	0
 8112 02a5 03       		.uleb128 0x3
 8113 02a6 08       		.uleb128 0x8
 8114 02a7 3A       		.uleb128 0x3a
 8115 02a8 0B       		.uleb128 0xb
 8116 02a9 3B       		.uleb128 0x3b
 8117 02aa 05       		.uleb128 0x5
 8118 02ab 49       		.uleb128 0x49
 8119 02ac 13       		.uleb128 0x13
 8120 02ad 02       		.uleb128 0x2
 8121 02ae 06       		.uleb128 0x6
 8122 02af 00       		.byte	0
ARM GAS  C:\Users\CNous\AppData\Local\Temp\ccPT5vWC.s 			page 181


 8123 02b0 00       		.byte	0
 8124 02b1 34       		.uleb128 0x34
 8125 02b2 2E       		.uleb128 0x2e
 8126 02b3 01       		.byte	0x1
 8127 02b4 3F       		.uleb128 0x3f
 8128 02b5 0C       		.uleb128 0xc
 8129 02b6 03       		.uleb128 0x3
 8130 02b7 0E       		.uleb128 0xe
 8131 02b8 3A       		.uleb128 0x3a
 8132 02b9 0B       		.uleb128 0xb
 8133 02ba 3B       		.uleb128 0x3b
 8134 02bb 05       		.uleb128 0x5
 8135 02bc 27       		.uleb128 0x27
 8136 02bd 0C       		.uleb128 0xc
 8137 02be 49       		.uleb128 0x49
 8138 02bf 13       		.uleb128 0x13
 8139 02c0 11       		.uleb128 0x11
 8140 02c1 01       		.uleb128 0x1
 8141 02c2 12       		.uleb128 0x12
 8142 02c3 01       		.uleb128 0x1
 8143 02c4 40       		.uleb128 0x40
 8144 02c5 0A       		.uleb128 0xa
 8145 02c6 9742     		.uleb128 0x2117
 8146 02c8 0C       		.uleb128 0xc
 8147 02c9 01       		.uleb128 0x1
 8148 02ca 13       		.uleb128 0x13
 8149 02cb 00       		.byte	0
 8150 02cc 00       		.byte	0
 8151 02cd 35       		.uleb128 0x35
 8152 02ce 2E       		.uleb128 0x2e
 8153 02cf 01       		.byte	0x1
 8154 02d0 3F       		.uleb128 0x3f
 8155 02d1 0C       		.uleb128 0xc
 8156 02d2 03       		.uleb128 0x3
 8157 02d3 0E       		.uleb128 0xe
 8158 02d4 3A       		.uleb128 0x3a
 8159 02d5 0B       		.uleb128 0xb
 8160 02d6 3B       		.uleb128 0x3b
 8161 02d7 05       		.uleb128 0x5
 8162 02d8 27       		.uleb128 0x27
 8163 02d9 0C       		.uleb128 0xc
 8164 02da 11       		.uleb128 0x11
 8165 02db 01       		.uleb128 0x1
 8166 02dc 12       		.uleb128 0x12
 8167 02dd 01       		.uleb128 0x1
 8168 02de 40       		.uleb128 0x40
 8169 02df 0A       		.uleb128 0xa
 8170 02e0 9742     		.uleb128 0x2117
 8171 02e2 0C       		.uleb128 0xc
 8172 02e3 01       		.uleb128 0x1
 8173 02e4 13       		.uleb128 0x13
 8174 02e5 00       		.byte	0
 8175 02e6 00       		.byte	0
 8176 02e7 36       		.uleb128 0x36
 8177 02e8 898201   		.uleb128 0x4109
 8178 02eb 01       		.byte	0x1
 8179 02ec 11       		.uleb128 0x11
ARM GAS  C:\Users\CNous\AppData\Local\Temp\ccPT5vWC.s 			page 182


 8180 02ed 01       		.uleb128 0x1
 8181 02ee 9542     		.uleb128 0x2115
 8182 02f0 0C       		.uleb128 0xc
 8183 02f1 31       		.uleb128 0x31
 8184 02f2 13       		.uleb128 0x13
 8185 02f3 01       		.uleb128 0x1
 8186 02f4 13       		.uleb128 0x13
 8187 02f5 00       		.byte	0
 8188 02f6 00       		.byte	0
 8189 02f7 37       		.uleb128 0x37
 8190 02f8 0B       		.uleb128 0xb
 8191 02f9 01       		.byte	0x1
 8192 02fa 11       		.uleb128 0x11
 8193 02fb 01       		.uleb128 0x1
 8194 02fc 12       		.uleb128 0x12
 8195 02fd 01       		.uleb128 0x1
 8196 02fe 00       		.byte	0
 8197 02ff 00       		.byte	0
 8198 0300 38       		.uleb128 0x38
 8199 0301 34       		.uleb128 0x34
 8200 0302 00       		.byte	0
 8201 0303 03       		.uleb128 0x3
 8202 0304 0E       		.uleb128 0xe
 8203 0305 3A       		.uleb128 0x3a
 8204 0306 0B       		.uleb128 0xb
 8205 0307 3B       		.uleb128 0x3b
 8206 0308 05       		.uleb128 0x5
 8207 0309 49       		.uleb128 0x49
 8208 030a 13       		.uleb128 0x13
 8209 030b 3F       		.uleb128 0x3f
 8210 030c 0C       		.uleb128 0xc
 8211 030d 3C       		.uleb128 0x3c
 8212 030e 0C       		.uleb128 0xc
 8213 030f 00       		.byte	0
 8214 0310 00       		.byte	0
 8215 0311 39       		.uleb128 0x39
 8216 0312 34       		.uleb128 0x34
 8217 0313 00       		.byte	0
 8218 0314 03       		.uleb128 0x3
 8219 0315 0E       		.uleb128 0xe
 8220 0316 3A       		.uleb128 0x3a
 8221 0317 0B       		.uleb128 0xb
 8222 0318 3B       		.uleb128 0x3b
 8223 0319 0B       		.uleb128 0xb
 8224 031a 49       		.uleb128 0x49
 8225 031b 13       		.uleb128 0x13
 8226 031c 3F       		.uleb128 0x3f
 8227 031d 0C       		.uleb128 0xc
 8228 031e 02       		.uleb128 0x2
 8229 031f 0A       		.uleb128 0xa
 8230 0320 00       		.byte	0
 8231 0321 00       		.byte	0
 8232 0322 3A       		.uleb128 0x3a
 8233 0323 34       		.uleb128 0x34
 8234 0324 00       		.byte	0
 8235 0325 03       		.uleb128 0x3
 8236 0326 0E       		.uleb128 0xe
ARM GAS  C:\Users\CNous\AppData\Local\Temp\ccPT5vWC.s 			page 183


 8237 0327 3A       		.uleb128 0x3a
 8238 0328 0B       		.uleb128 0xb
 8239 0329 3B       		.uleb128 0x3b
 8240 032a 05       		.uleb128 0x5
 8241 032b 49       		.uleb128 0x49
 8242 032c 13       		.uleb128 0x13
 8243 032d 3F       		.uleb128 0x3f
 8244 032e 0C       		.uleb128 0xc
 8245 032f 02       		.uleb128 0x2
 8246 0330 0A       		.uleb128 0xa
 8247 0331 00       		.byte	0
 8248 0332 00       		.byte	0
 8249 0333 3B       		.uleb128 0x3b
 8250 0334 2E       		.uleb128 0x2e
 8251 0335 01       		.byte	0x1
 8252 0336 3F       		.uleb128 0x3f
 8253 0337 0C       		.uleb128 0xc
 8254 0338 03       		.uleb128 0x3
 8255 0339 0E       		.uleb128 0xe
 8256 033a 3A       		.uleb128 0x3a
 8257 033b 0B       		.uleb128 0xb
 8258 033c 3B       		.uleb128 0x3b
 8259 033d 05       		.uleb128 0x5
 8260 033e 27       		.uleb128 0x27
 8261 033f 0C       		.uleb128 0xc
 8262 0340 49       		.uleb128 0x49
 8263 0341 13       		.uleb128 0x13
 8264 0342 3C       		.uleb128 0x3c
 8265 0343 0C       		.uleb128 0xc
 8266 0344 01       		.uleb128 0x1
 8267 0345 13       		.uleb128 0x13
 8268 0346 00       		.byte	0
 8269 0347 00       		.byte	0
 8270 0348 3C       		.uleb128 0x3c
 8271 0349 05       		.uleb128 0x5
 8272 034a 00       		.byte	0
 8273 034b 49       		.uleb128 0x49
 8274 034c 13       		.uleb128 0x13
 8275 034d 00       		.byte	0
 8276 034e 00       		.byte	0
 8277 034f 3D       		.uleb128 0x3d
 8278 0350 2E       		.uleb128 0x2e
 8279 0351 01       		.byte	0x1
 8280 0352 3F       		.uleb128 0x3f
 8281 0353 0C       		.uleb128 0xc
 8282 0354 03       		.uleb128 0x3
 8283 0355 0E       		.uleb128 0xe
 8284 0356 3A       		.uleb128 0x3a
 8285 0357 0B       		.uleb128 0xb
 8286 0358 3B       		.uleb128 0x3b
 8287 0359 05       		.uleb128 0x5
 8288 035a 27       		.uleb128 0x27
 8289 035b 0C       		.uleb128 0xc
 8290 035c 3C       		.uleb128 0x3c
 8291 035d 0C       		.uleb128 0xc
 8292 035e 01       		.uleb128 0x1
 8293 035f 13       		.uleb128 0x13
ARM GAS  C:\Users\CNous\AppData\Local\Temp\ccPT5vWC.s 			page 184


 8294 0360 00       		.byte	0
 8295 0361 00       		.byte	0
 8296 0362 3E       		.uleb128 0x3e
 8297 0363 2E       		.uleb128 0x2e
 8298 0364 00       		.byte	0
 8299 0365 3F       		.uleb128 0x3f
 8300 0366 0C       		.uleb128 0xc
 8301 0367 03       		.uleb128 0x3
 8302 0368 0E       		.uleb128 0xe
 8303 0369 3A       		.uleb128 0x3a
 8304 036a 0B       		.uleb128 0xb
 8305 036b 3B       		.uleb128 0x3b
 8306 036c 05       		.uleb128 0x5
 8307 036d 27       		.uleb128 0x27
 8308 036e 0C       		.uleb128 0xc
 8309 036f 49       		.uleb128 0x49
 8310 0370 13       		.uleb128 0x13
 8311 0371 3C       		.uleb128 0x3c
 8312 0372 0C       		.uleb128 0xc
 8313 0373 00       		.byte	0
 8314 0374 00       		.byte	0
 8315 0375 3F       		.uleb128 0x3f
 8316 0376 2E       		.uleb128 0x2e
 8317 0377 01       		.byte	0x1
 8318 0378 3F       		.uleb128 0x3f
 8319 0379 0C       		.uleb128 0xc
 8320 037a 03       		.uleb128 0x3
 8321 037b 0E       		.uleb128 0xe
 8322 037c 3A       		.uleb128 0x3a
 8323 037d 0B       		.uleb128 0xb
 8324 037e 3B       		.uleb128 0x3b
 8325 037f 0B       		.uleb128 0xb
 8326 0380 27       		.uleb128 0x27
 8327 0381 0C       		.uleb128 0xc
 8328 0382 3C       		.uleb128 0x3c
 8329 0383 0C       		.uleb128 0xc
 8330 0384 01       		.uleb128 0x1
 8331 0385 13       		.uleb128 0x13
 8332 0386 00       		.byte	0
 8333 0387 00       		.byte	0
 8334 0388 40       		.uleb128 0x40
 8335 0389 2E       		.uleb128 0x2e
 8336 038a 01       		.byte	0x1
 8337 038b 3F       		.uleb128 0x3f
 8338 038c 0C       		.uleb128 0xc
 8339 038d 03       		.uleb128 0x3
 8340 038e 0E       		.uleb128 0xe
 8341 038f 3A       		.uleb128 0x3a
 8342 0390 0B       		.uleb128 0xb
 8343 0391 3B       		.uleb128 0x3b
 8344 0392 05       		.uleb128 0x5
 8345 0393 27       		.uleb128 0x27
 8346 0394 0C       		.uleb128 0xc
 8347 0395 3C       		.uleb128 0x3c
 8348 0396 0C       		.uleb128 0xc
 8349 0397 00       		.byte	0
 8350 0398 00       		.byte	0
ARM GAS  C:\Users\CNous\AppData\Local\Temp\ccPT5vWC.s 			page 185


 8351 0399 00       		.byte	0
 8352              		.section	.debug_loc,"",%progbits
 8353              	.Ldebug_loc0:
 8354              	.LLST0:
 8355 0000 00000000 		.4byte	.LFB118
 8356 0004 02000000 		.4byte	.LCFI0
 8357 0008 0200     		.2byte	0x2
 8358 000a 7D       		.byte	0x7d
 8359 000b 00       		.sleb128 0
 8360 000c 02000000 		.4byte	.LCFI0
 8361 0010 64000000 		.4byte	.LFE118
 8362 0014 0200     		.2byte	0x2
 8363 0016 7D       		.byte	0x7d
 8364 0017 18       		.sleb128 24
 8365 0018 00000000 		.4byte	0
 8366 001c 00000000 		.4byte	0
 8367              	.LLST1:
 8368 0020 00000000 		.4byte	.LFB129
 8369 0024 06000000 		.4byte	.LCFI1
 8370 0028 0200     		.2byte	0x2
 8371 002a 7D       		.byte	0x7d
 8372 002b 00       		.sleb128 0
 8373 002c 06000000 		.4byte	.LCFI1
 8374 0030 2C000000 		.4byte	.LFE129
 8375 0034 0200     		.2byte	0x2
 8376 0036 7D       		.byte	0x7d
 8377 0037 08       		.sleb128 8
 8378 0038 00000000 		.4byte	0
 8379 003c 00000000 		.4byte	0
 8380              	.LLST2:
 8381 0040 00000000 		.4byte	.LFB130
 8382 0044 02000000 		.4byte	.LCFI2
 8383 0048 0200     		.2byte	0x2
 8384 004a 7D       		.byte	0x7d
 8385 004b 00       		.sleb128 0
 8386 004c 02000000 		.4byte	.LCFI2
 8387 0050 E4020000 		.4byte	.LFE130
 8388 0054 0200     		.2byte	0x2
 8389 0056 7D       		.byte	0x7d
 8390 0057 10       		.sleb128 16
 8391 0058 00000000 		.4byte	0
 8392 005c 00000000 		.4byte	0
 8393              	.LLST3:
 8394 0060 00000000 		.4byte	.LVL12
 8395 0064 0E000000 		.4byte	.LVL13
 8396 0068 0100     		.2byte	0x1
 8397 006a 50       		.byte	0x50
 8398 006b 0E000000 		.4byte	.LVL13
 8399 006f E4020000 		.4byte	.LFE130
 8400 0073 0400     		.2byte	0x4
 8401 0075 F3       		.byte	0xf3
 8402 0076 01       		.uleb128 0x1
 8403 0077 50       		.byte	0x50
 8404 0078 9F       		.byte	0x9f
 8405 0079 00000000 		.4byte	0
 8406 007d 00000000 		.4byte	0
 8407              	.LLST4:
ARM GAS  C:\Users\CNous\AppData\Local\Temp\ccPT5vWC.s 			page 186


 8408 0081 00000000 		.4byte	.LVL12
 8409 0085 0E000000 		.4byte	.LVL13
 8410 0089 0100     		.2byte	0x1
 8411 008b 51       		.byte	0x51
 8412 008c 0E000000 		.4byte	.LVL13
 8413 0090 E4020000 		.4byte	.LFE130
 8414 0094 0400     		.2byte	0x4
 8415 0096 F3       		.byte	0xf3
 8416 0097 01       		.uleb128 0x1
 8417 0098 51       		.byte	0x51
 8418 0099 9F       		.byte	0x9f
 8419 009a 00000000 		.4byte	0
 8420 009e 00000000 		.4byte	0
 8421              	.LLST5:
 8422 00a2 66000000 		.4byte	.LVL18
 8423 00a6 38010000 		.4byte	.LVL28
 8424 00aa 0100     		.2byte	0x1
 8425 00ac 55       		.byte	0x55
 8426 00ad 46010000 		.4byte	.LVL31
 8427 00b1 BE010000 		.4byte	.LVL36
 8428 00b5 0100     		.2byte	0x1
 8429 00b7 55       		.byte	0x55
 8430 00b8 BE010000 		.4byte	.LVL36
 8431 00bc C1010000 		.4byte	.LVL37-1
 8432 00c0 0100     		.2byte	0x1
 8433 00c2 51       		.byte	0x51
 8434 00c3 00000000 		.4byte	0
 8435 00c7 00000000 		.4byte	0
 8436              	.LLST6:
 8437 00cb 3E010000 		.4byte	.LVL30
 8438 00cf 46010000 		.4byte	.LVL31
 8439 00d3 0600     		.2byte	0x6
 8440 00d5 76       		.byte	0x76
 8441 00d6 00       		.sleb128 0
 8442 00d7 75       		.byte	0x75
 8443 00d8 00       		.sleb128 0
 8444 00d9 2E       		.byte	0x2e
 8445 00da 9F       		.byte	0x9f
 8446 00db 00000000 		.4byte	0
 8447 00df 00000000 		.4byte	0
 8448              	.LLST7:
 8449 00e3 16010000 		.4byte	.LVL26
 8450 00e7 38010000 		.4byte	.LVL28
 8451 00eb 0100     		.2byte	0x1
 8452 00ed 55       		.byte	0x55
 8453 00ee 46010000 		.4byte	.LVL31
 8454 00f2 BE010000 		.4byte	.LVL36
 8455 00f6 0100     		.2byte	0x1
 8456 00f8 55       		.byte	0x55
 8457 00f9 BE010000 		.4byte	.LVL36
 8458 00fd C1010000 		.4byte	.LVL37-1
 8459 0101 0100     		.2byte	0x1
 8460 0103 51       		.byte	0x51
 8461 0104 00000000 		.4byte	0
 8462 0108 00000000 		.4byte	0
 8463              	.LLST8:
 8464 010c 16010000 		.4byte	.LVL26
ARM GAS  C:\Users\CNous\AppData\Local\Temp\ccPT5vWC.s 			page 187


 8465 0110 38010000 		.4byte	.LVL28
 8466 0114 0200     		.2byte	0x2
 8467 0116 30       		.byte	0x30
 8468 0117 9F       		.byte	0x9f
 8469 0118 46010000 		.4byte	.LVL31
 8470 011c A0020000 		.4byte	.LVL47
 8471 0120 0200     		.2byte	0x2
 8472 0122 30       		.byte	0x30
 8473 0123 9F       		.byte	0x9f
 8474 0124 A0020000 		.4byte	.LVL47
 8475 0128 A6020000 		.4byte	.LVL48
 8476 012c 0100     		.2byte	0x1
 8477 012e 50       		.byte	0x50
 8478 012f A6020000 		.4byte	.LVL48
 8479 0133 E4020000 		.4byte	.LFE130
 8480 0137 0100     		.2byte	0x1
 8481 0139 55       		.byte	0x55
 8482 013a 00000000 		.4byte	0
 8483 013e 00000000 		.4byte	0
 8484              	.LLST9:
 8485 0142 00000000 		.4byte	.LFB127
 8486 0146 04000000 		.4byte	.LCFI3
 8487 014a 0200     		.2byte	0x2
 8488 014c 7D       		.byte	0x7d
 8489 014d 00       		.sleb128 0
 8490 014e 04000000 		.4byte	.LCFI3
 8491 0152 1C000000 		.4byte	.LFE127
 8492 0156 0200     		.2byte	0x2
 8493 0158 7D       		.byte	0x7d
 8494 0159 10       		.sleb128 16
 8495 015a 00000000 		.4byte	0
 8496 015e 00000000 		.4byte	0
 8497              	.LLST10:
 8498 0162 00000000 		.4byte	.LVL52
 8499 0166 02000000 		.4byte	.LVL53
 8500 016a 0100     		.2byte	0x1
 8501 016c 50       		.byte	0x50
 8502 016d 02000000 		.4byte	.LVL53
 8503 0171 1C000000 		.4byte	.LFE127
 8504 0175 0400     		.2byte	0x4
 8505 0177 F3       		.byte	0xf3
 8506 0178 01       		.uleb128 0x1
 8507 0179 50       		.byte	0x50
 8508 017a 9F       		.byte	0x9f
 8509 017b 00000000 		.4byte	0
 8510 017f 00000000 		.4byte	0
 8511              	.LLST11:
 8512 0183 00000000 		.4byte	.LVL52
 8513 0187 12000000 		.4byte	.LVL55
 8514 018b 0200     		.2byte	0x2
 8515 018d 30       		.byte	0x30
 8516 018e 9F       		.byte	0x9f
 8517 018f 12000000 		.4byte	.LVL55
 8518 0193 14000000 		.4byte	.LVL56
 8519 0197 0100     		.2byte	0x1
 8520 0199 50       		.byte	0x50
 8521 019a 14000000 		.4byte	.LVL56
ARM GAS  C:\Users\CNous\AppData\Local\Temp\ccPT5vWC.s 			page 188


 8522 019e 1A000000 		.4byte	.LVL58
 8523 01a2 0100     		.2byte	0x1
 8524 01a4 55       		.byte	0x55
 8525 01a5 1A000000 		.4byte	.LVL58
 8526 01a9 1C000000 		.4byte	.LFE127
 8527 01ad 0100     		.2byte	0x1
 8528 01af 50       		.byte	0x50
 8529 01b0 00000000 		.4byte	0
 8530 01b4 00000000 		.4byte	0
 8531              	.LLST12:
 8532 01b8 00000000 		.4byte	.LFB110
 8533 01bc 04000000 		.4byte	.LCFI4
 8534 01c0 0200     		.2byte	0x2
 8535 01c2 7D       		.byte	0x7d
 8536 01c3 00       		.sleb128 0
 8537 01c4 04000000 		.4byte	.LCFI4
 8538 01c8 F8000000 		.4byte	.LFE110
 8539 01cc 0200     		.2byte	0x2
 8540 01ce 7D       		.byte	0x7d
 8541 01cf 10       		.sleb128 16
 8542 01d0 00000000 		.4byte	0
 8543 01d4 00000000 		.4byte	0
 8544              	.LLST13:
 8545 01d8 00000000 		.4byte	.LVL59
 8546 01dc 10000000 		.4byte	.LVL60
 8547 01e0 0100     		.2byte	0x1
 8548 01e2 50       		.byte	0x50
 8549 01e3 10000000 		.4byte	.LVL60
 8550 01e7 14000000 		.4byte	.LVL61
 8551 01eb 0500     		.2byte	0x5
 8552 01ed 03       		.byte	0x3
 8553 01ee 00000000 		.4byte	CurrAudioInterface
 8554 01f2 14000000 		.4byte	.LVL61
 8555 01f6 4C000000 		.4byte	.LVL62
 8556 01fa 0100     		.2byte	0x1
 8557 01fc 50       		.byte	0x50
 8558 01fd 4C000000 		.4byte	.LVL62
 8559 0201 76000000 		.4byte	.LVL63
 8560 0205 0500     		.2byte	0x5
 8561 0207 03       		.byte	0x3
 8562 0208 00000000 		.4byte	CurrAudioInterface
 8563 020c 76000000 		.4byte	.LVL63
 8564 0210 7C000000 		.4byte	.LVL64
 8565 0214 0100     		.2byte	0x1
 8566 0216 50       		.byte	0x50
 8567 0217 7C000000 		.4byte	.LVL64
 8568 021b F8000000 		.4byte	.LFE110
 8569 021f 0500     		.2byte	0x5
 8570 0221 03       		.byte	0x3
 8571 0222 00000000 		.4byte	CurrAudioInterface
 8572 0226 00000000 		.4byte	0
 8573 022a 00000000 		.4byte	0
 8574              	.LLST14:
 8575 022e 00000000 		.4byte	.LFB112
 8576 0232 02000000 		.4byte	.LCFI5
 8577 0236 0200     		.2byte	0x2
 8578 0238 7D       		.byte	0x7d
ARM GAS  C:\Users\CNous\AppData\Local\Temp\ccPT5vWC.s 			page 189


 8579 0239 00       		.sleb128 0
 8580 023a 02000000 		.4byte	.LCFI5
 8581 023e 10000000 		.4byte	.LCFI6
 8582 0242 0200     		.2byte	0x2
 8583 0244 7D       		.byte	0x7d
 8584 0245 10       		.sleb128 16
 8585 0246 10000000 		.4byte	.LCFI6
 8586 024a DA000000 		.4byte	.LFE112
 8587 024e 0200     		.2byte	0x2
 8588 0250 7D       		.byte	0x7d
 8589 0251 20       		.sleb128 32
 8590 0252 00000000 		.4byte	0
 8591 0256 00000000 		.4byte	0
 8592              	.LLST15:
 8593 025a 44000000 		.4byte	.LVL67
 8594 025e 52000000 		.4byte	.LVL69
 8595 0262 0200     		.2byte	0x2
 8596 0264 30       		.byte	0x30
 8597 0265 9F       		.byte	0x9f
 8598 0266 00000000 		.4byte	0
 8599 026a 00000000 		.4byte	0
 8600              	.LLST16:
 8601 026e 00000000 		.4byte	.LFB114
 8602 0272 02000000 		.4byte	.LCFI7
 8603 0276 0200     		.2byte	0x2
 8604 0278 7D       		.byte	0x7d
 8605 0279 00       		.sleb128 0
 8606 027a 02000000 		.4byte	.LCFI7
 8607 027e 9C000000 		.4byte	.LFE114
 8608 0282 0200     		.2byte	0x2
 8609 0284 7D       		.byte	0x7d
 8610 0285 10       		.sleb128 16
 8611 0286 00000000 		.4byte	0
 8612 028a 00000000 		.4byte	0
 8613              	.LLST17:
 8614 028e 00000000 		.4byte	.LVL80
 8615 0292 08000000 		.4byte	.LVL82
 8616 0296 0100     		.2byte	0x1
 8617 0298 50       		.byte	0x50
 8618 0299 08000000 		.4byte	.LVL82
 8619 029d 56000000 		.4byte	.LVL96
 8620 02a1 0400     		.2byte	0x4
 8621 02a3 F3       		.byte	0xf3
 8622 02a4 01       		.uleb128 0x1
 8623 02a5 50       		.byte	0x50
 8624 02a6 9F       		.byte	0x9f
 8625 02a7 56000000 		.4byte	.LVL96
 8626 02ab 59000000 		.4byte	.LVL97-1
 8627 02af 0100     		.2byte	0x1
 8628 02b1 50       		.byte	0x50
 8629 02b2 59000000 		.4byte	.LVL97-1
 8630 02b6 9C000000 		.4byte	.LFE114
 8631 02ba 0400     		.2byte	0x4
 8632 02bc F3       		.byte	0xf3
 8633 02bd 01       		.uleb128 0x1
 8634 02be 50       		.byte	0x50
 8635 02bf 9F       		.byte	0x9f
ARM GAS  C:\Users\CNous\AppData\Local\Temp\ccPT5vWC.s 			page 190


 8636 02c0 00000000 		.4byte	0
 8637 02c4 00000000 		.4byte	0
 8638              	.LLST19:
 8639 02c8 00000000 		.4byte	.LVL80
 8640 02cc 12000000 		.4byte	.LVL84
 8641 02d0 0200     		.2byte	0x2
 8642 02d2 30       		.byte	0x30
 8643 02d3 9F       		.byte	0x9f
 8644 02d4 1C000000 		.4byte	.LVL87
 8645 02d8 1E000000 		.4byte	.LVL88
 8646 02dc 0600     		.2byte	0x6
 8647 02de 70       		.byte	0x70
 8648 02df 00       		.sleb128 0
 8649 02e0 74       		.byte	0x74
 8650 02e1 00       		.sleb128 0
 8651 02e2 22       		.byte	0x22
 8652 02e3 9F       		.byte	0x9f
 8653 02e4 1E000000 		.4byte	.LVL88
 8654 02e8 24000000 		.4byte	.LVL90
 8655 02ec 0600     		.2byte	0x6
 8656 02ee 75       		.byte	0x75
 8657 02ef 00       		.sleb128 0
 8658 02f0 74       		.byte	0x74
 8659 02f1 00       		.sleb128 0
 8660 02f2 22       		.byte	0x22
 8661 02f3 9F       		.byte	0x9f
 8662 02f4 24000000 		.4byte	.LVL90
 8663 02f8 26000000 		.4byte	.LVL91
 8664 02fc 0600     		.2byte	0x6
 8665 02fe 70       		.byte	0x70
 8666 02ff 00       		.sleb128 0
 8667 0300 74       		.byte	0x74
 8668 0301 00       		.sleb128 0
 8669 0302 22       		.byte	0x22
 8670 0303 9F       		.byte	0x9f
 8671 0304 26000000 		.4byte	.LVL91
 8672 0308 56000000 		.4byte	.LVL96
 8673 030c 0100     		.2byte	0x1
 8674 030e 54       		.byte	0x54
 8675 030f 56000000 		.4byte	.LVL96
 8676 0313 5E000000 		.4byte	.LVL98
 8677 0317 0200     		.2byte	0x2
 8678 0319 30       		.byte	0x30
 8679 031a 9F       		.byte	0x9f
 8680 031b 64000000 		.4byte	.LVL100
 8681 031f 66000000 		.4byte	.LVL101
 8682 0323 0600     		.2byte	0x6
 8683 0325 74       		.byte	0x74
 8684 0326 00       		.sleb128 0
 8685 0327 70       		.byte	0x70
 8686 0328 00       		.sleb128 0
 8687 0329 22       		.byte	0x22
 8688 032a 9F       		.byte	0x9f
 8689 032b 66000000 		.4byte	.LVL101
 8690 032f 9C000000 		.4byte	.LFE114
 8691 0333 0100     		.2byte	0x1
 8692 0335 54       		.byte	0x54
ARM GAS  C:\Users\CNous\AppData\Local\Temp\ccPT5vWC.s 			page 191


 8693 0336 00000000 		.4byte	0
 8694 033a 00000000 		.4byte	0
 8695              	.LLST20:
 8696 033e 04000000 		.4byte	.LVL81
 8697 0342 28000000 		.4byte	.LVL92
 8698 0346 0200     		.2byte	0x2
 8699 0348 30       		.byte	0x30
 8700 0349 9F       		.byte	0x9f
 8701 034a 2C000000 		.4byte	.LVL93
 8702 034e 56000000 		.4byte	.LVL96
 8703 0352 0200     		.2byte	0x2
 8704 0354 30       		.byte	0x30
 8705 0355 9F       		.byte	0x9f
 8706 0356 86000000 		.4byte	.LVL104
 8707 035a 9C000000 		.4byte	.LFE114
 8708 035e 0200     		.2byte	0x2
 8709 0360 30       		.byte	0x30
 8710 0361 9F       		.byte	0x9f
 8711 0362 00000000 		.4byte	0
 8712 0366 00000000 		.4byte	0
 8713              	.LLST21:
 8714 036a 04000000 		.4byte	.LVL81
 8715 036e 12000000 		.4byte	.LVL84
 8716 0372 0200     		.2byte	0x2
 8717 0374 30       		.byte	0x30
 8718 0375 9F       		.byte	0x9f
 8719 0376 12000000 		.4byte	.LVL84
 8720 037a 14000000 		.4byte	.LVL85
 8721 037e 0100     		.2byte	0x1
 8722 0380 50       		.byte	0x50
 8723 0381 14000000 		.4byte	.LVL85
 8724 0385 26000000 		.4byte	.LVL91
 8725 0389 0100     		.2byte	0x1
 8726 038b 54       		.byte	0x54
 8727 038c 00000000 		.4byte	0
 8728 0390 00000000 		.4byte	0
 8729              	.LLST22:
 8730 0394 00000000 		.4byte	.LFB115
 8731 0398 02000000 		.4byte	.LCFI8
 8732 039c 0200     		.2byte	0x2
 8733 039e 7D       		.byte	0x7d
 8734 039f 00       		.sleb128 0
 8735 03a0 02000000 		.4byte	.LCFI8
 8736 03a4 9C000000 		.4byte	.LFE115
 8737 03a8 0200     		.2byte	0x2
 8738 03aa 7D       		.byte	0x7d
 8739 03ab 10       		.sleb128 16
 8740 03ac 00000000 		.4byte	0
 8741 03b0 00000000 		.4byte	0
 8742              	.LLST23:
 8743 03b4 00000000 		.4byte	.LVL106
 8744 03b8 07000000 		.4byte	.LVL108-1
 8745 03bc 0100     		.2byte	0x1
 8746 03be 50       		.byte	0x50
 8747 03bf 07000000 		.4byte	.LVL108-1
 8748 03c3 1A000000 		.4byte	.LVL111
 8749 03c7 0100     		.2byte	0x1
ARM GAS  C:\Users\CNous\AppData\Local\Temp\ccPT5vWC.s 			page 192


 8750 03c9 54       		.byte	0x54
 8751 03ca 1A000000 		.4byte	.LVL111
 8752 03ce 72000000 		.4byte	.LVL118
 8753 03d2 0400     		.2byte	0x4
 8754 03d4 F3       		.byte	0xf3
 8755 03d5 01       		.uleb128 0x1
 8756 03d6 50       		.byte	0x50
 8757 03d7 9F       		.byte	0x9f
 8758 03d8 72000000 		.4byte	.LVL118
 8759 03dc 7C000000 		.4byte	.LVL120
 8760 03e0 0100     		.2byte	0x1
 8761 03e2 54       		.byte	0x54
 8762 03e3 7C000000 		.4byte	.LVL120
 8763 03e7 9C000000 		.4byte	.LFE115
 8764 03eb 0400     		.2byte	0x4
 8765 03ed F3       		.byte	0xf3
 8766 03ee 01       		.uleb128 0x1
 8767 03ef 50       		.byte	0x50
 8768 03f0 9F       		.byte	0x9f
 8769 03f1 00000000 		.4byte	0
 8770 03f5 00000000 		.4byte	0
 8771              	.LLST24:
 8772 03f9 04000000 		.4byte	.LVL107
 8773 03fd 07000000 		.4byte	.LVL108-1
 8774 0401 0100     		.2byte	0x1
 8775 0403 50       		.byte	0x50
 8776 0404 07000000 		.4byte	.LVL108-1
 8777 0408 1A000000 		.4byte	.LVL111
 8778 040c 0100     		.2byte	0x1
 8779 040e 54       		.byte	0x54
 8780 040f 1A000000 		.4byte	.LVL111
 8781 0413 72000000 		.4byte	.LVL118
 8782 0417 0400     		.2byte	0x4
 8783 0419 F3       		.byte	0xf3
 8784 041a 01       		.uleb128 0x1
 8785 041b 50       		.byte	0x50
 8786 041c 9F       		.byte	0x9f
 8787 041d 72000000 		.4byte	.LVL118
 8788 0421 7C000000 		.4byte	.LVL120
 8789 0425 0100     		.2byte	0x1
 8790 0427 54       		.byte	0x54
 8791 0428 7C000000 		.4byte	.LVL120
 8792 042c 9C000000 		.4byte	.LFE115
 8793 0430 0400     		.2byte	0x4
 8794 0432 F3       		.byte	0xf3
 8795 0433 01       		.uleb128 0x1
 8796 0434 50       		.byte	0x50
 8797 0435 9F       		.byte	0x9f
 8798 0436 00000000 		.4byte	0
 8799 043a 00000000 		.4byte	0
 8800              	.LLST25:
 8801 043e 04000000 		.4byte	.LVL107
 8802 0442 1A000000 		.4byte	.LVL111
 8803 0446 0200     		.2byte	0x2
 8804 0448 30       		.byte	0x30
 8805 0449 9F       		.byte	0x9f
 8806 044a 1A000000 		.4byte	.LVL111
ARM GAS  C:\Users\CNous\AppData\Local\Temp\ccPT5vWC.s 			page 193


 8807 044e 22000000 		.4byte	.LVL113
 8808 0452 0100     		.2byte	0x1
 8809 0454 50       		.byte	0x50
 8810 0455 22000000 		.4byte	.LVL113
 8811 0459 72000000 		.4byte	.LVL118
 8812 045d 0100     		.2byte	0x1
 8813 045f 54       		.byte	0x54
 8814 0460 72000000 		.4byte	.LVL118
 8815 0464 7C000000 		.4byte	.LVL120
 8816 0468 0200     		.2byte	0x2
 8817 046a 30       		.byte	0x30
 8818 046b 9F       		.byte	0x9f
 8819 046c 7C000000 		.4byte	.LVL120
 8820 0470 9C000000 		.4byte	.LFE115
 8821 0474 0100     		.2byte	0x1
 8822 0476 50       		.byte	0x50
 8823 0477 00000000 		.4byte	0
 8824 047b 00000000 		.4byte	0
 8825              	.LLST26:
 8826 047f 00000000 		.4byte	.LVL121
 8827 0483 0C000000 		.4byte	.LVL122
 8828 0487 0100     		.2byte	0x1
 8829 0489 50       		.byte	0x50
 8830 048a 0C000000 		.4byte	.LVL122
 8831 048e 20000000 		.4byte	.LVL123
 8832 0492 0400     		.2byte	0x4
 8833 0494 F3       		.byte	0xf3
 8834 0495 01       		.uleb128 0x1
 8835 0496 50       		.byte	0x50
 8836 0497 9F       		.byte	0x9f
 8837 0498 20000000 		.4byte	.LVL123
 8838 049c 22000000 		.4byte	.LVL124
 8839 04a0 0100     		.2byte	0x1
 8840 04a2 50       		.byte	0x50
 8841 04a3 22000000 		.4byte	.LVL124
 8842 04a7 24000000 		.4byte	.LFE116
 8843 04ab 0400     		.2byte	0x4
 8844 04ad F3       		.byte	0xf3
 8845 04ae 01       		.uleb128 0x1
 8846 04af 50       		.byte	0x50
 8847 04b0 9F       		.byte	0x9f
 8848 04b1 00000000 		.4byte	0
 8849 04b5 00000000 		.4byte	0
 8850              	.LLST27:
 8851 04b9 00000000 		.4byte	.LVL125
 8852 04bd 0A000000 		.4byte	.LVL126
 8853 04c1 0100     		.2byte	0x1
 8854 04c3 50       		.byte	0x50
 8855 04c4 0A000000 		.4byte	.LVL126
 8856 04c8 0E000000 		.4byte	.LVL127
 8857 04cc 0400     		.2byte	0x4
 8858 04ce F3       		.byte	0xf3
 8859 04cf 01       		.uleb128 0x1
 8860 04d0 50       		.byte	0x50
 8861 04d1 9F       		.byte	0x9f
 8862 04d2 0E000000 		.4byte	.LVL127
 8863 04d6 11000000 		.4byte	.LVL128-1
ARM GAS  C:\Users\CNous\AppData\Local\Temp\ccPT5vWC.s 			page 194


 8864 04da 0100     		.2byte	0x1
 8865 04dc 50       		.byte	0x50
 8866 04dd 11000000 		.4byte	.LVL128-1
 8867 04e1 18000000 		.4byte	.LFE117
 8868 04e5 0400     		.2byte	0x4
 8869 04e7 F3       		.byte	0xf3
 8870 04e8 01       		.uleb128 0x1
 8871 04e9 50       		.byte	0x50
 8872 04ea 9F       		.byte	0x9f
 8873 04eb 00000000 		.4byte	0
 8874 04ef 00000000 		.4byte	0
 8875              	.LLST29:
 8876 04f3 00000000 		.4byte	.LFB121
 8877 04f7 06000000 		.4byte	.LCFI9
 8878 04fb 0200     		.2byte	0x2
 8879 04fd 7D       		.byte	0x7d
 8880 04fe 00       		.sleb128 0
 8881 04ff 06000000 		.4byte	.LCFI9
 8882 0503 44000000 		.4byte	.LFE121
 8883 0507 0200     		.2byte	0x2
 8884 0509 7D       		.byte	0x7d
 8885 050a 08       		.sleb128 8
 8886 050b 00000000 		.4byte	0
 8887 050f 00000000 		.4byte	0
 8888              	.LLST30:
 8889 0513 00000000 		.4byte	.LFB141
 8890 0517 02000000 		.4byte	.LCFI10
 8891 051b 0200     		.2byte	0x2
 8892 051d 7D       		.byte	0x7d
 8893 051e 00       		.sleb128 0
 8894 051f 02000000 		.4byte	.LCFI10
 8895 0523 64000000 		.4byte	.LFE141
 8896 0527 0200     		.2byte	0x2
 8897 0529 7D       		.byte	0x7d
 8898 052a 10       		.sleb128 16
 8899 052b 00000000 		.4byte	0
 8900 052f 00000000 		.4byte	0
 8901              	.LLST31:
 8902 0533 00000000 		.4byte	.LVL136
 8903 0537 14000000 		.4byte	.LVL137
 8904 053b 0100     		.2byte	0x1
 8905 053d 50       		.byte	0x50
 8906 053e 14000000 		.4byte	.LVL137
 8907 0542 19000000 		.4byte	.LVL139-1
 8908 0546 0500     		.2byte	0x5
 8909 0548 03       		.byte	0x3
 8910 0549 08000000 		.4byte	DMA_InitStructure+8
 8911 054d 19000000 		.4byte	.LVL139-1
 8912 0551 40000000 		.4byte	.LVL141
 8913 0555 0400     		.2byte	0x4
 8914 0557 F3       		.byte	0xf3
 8915 0558 01       		.uleb128 0x1
 8916 0559 50       		.byte	0x50
 8917 055a 9F       		.byte	0x9f
 8918 055b 40000000 		.4byte	.LVL141
 8919 055f 48000000 		.4byte	.LVL142
 8920 0563 0100     		.2byte	0x1
ARM GAS  C:\Users\CNous\AppData\Local\Temp\ccPT5vWC.s 			page 195


 8921 0565 50       		.byte	0x50
 8922 0566 48000000 		.4byte	.LVL142
 8923 056a 4D000000 		.4byte	.LVL144-1
 8924 056e 0500     		.2byte	0x5
 8925 0570 03       		.byte	0x3
 8926 0571 08000000 		.4byte	DMA_InitStructure+8
 8927 0575 4D000000 		.4byte	.LVL144-1
 8928 0579 64000000 		.4byte	.LFE141
 8929 057d 0400     		.2byte	0x4
 8930 057f F3       		.byte	0xf3
 8931 0580 01       		.uleb128 0x1
 8932 0581 50       		.byte	0x50
 8933 0582 9F       		.byte	0x9f
 8934 0583 00000000 		.4byte	0
 8935 0587 00000000 		.4byte	0
 8936              	.LLST32:
 8937 058b 00000000 		.4byte	.LVL136
 8938 058f 16000000 		.4byte	.LVL138
 8939 0593 0100     		.2byte	0x1
 8940 0595 51       		.byte	0x51
 8941 0596 16000000 		.4byte	.LVL138
 8942 059a 19000000 		.4byte	.LVL139-1
 8943 059e 0500     		.2byte	0x5
 8944 05a0 03       		.byte	0x3
 8945 05a1 10000000 		.4byte	DMA_InitStructure+16
 8946 05a5 19000000 		.4byte	.LVL139-1
 8947 05a9 40000000 		.4byte	.LVL141
 8948 05ad 0400     		.2byte	0x4
 8949 05af F3       		.byte	0xf3
 8950 05b0 01       		.uleb128 0x1
 8951 05b1 51       		.byte	0x51
 8952 05b2 9F       		.byte	0x9f
 8953 05b3 40000000 		.4byte	.LVL141
 8954 05b7 4A000000 		.4byte	.LVL143
 8955 05bb 0100     		.2byte	0x1
 8956 05bd 51       		.byte	0x51
 8957 05be 4A000000 		.4byte	.LVL143
 8958 05c2 4D000000 		.4byte	.LVL144-1
 8959 05c6 0500     		.2byte	0x5
 8960 05c8 03       		.byte	0x3
 8961 05c9 10000000 		.4byte	DMA_InitStructure+16
 8962 05cd 4D000000 		.4byte	.LVL144-1
 8963 05d1 64000000 		.4byte	.LFE141
 8964 05d5 0400     		.2byte	0x4
 8965 05d7 F3       		.byte	0xf3
 8966 05d8 01       		.uleb128 0x1
 8967 05d9 51       		.byte	0x51
 8968 05da 9F       		.byte	0x9f
 8969 05db 00000000 		.4byte	0
 8970 05df 00000000 		.4byte	0
 8971              	.LLST33:
 8972 05e3 00000000 		.4byte	.LFB113
 8973 05e7 02000000 		.4byte	.LCFI11
 8974 05eb 0200     		.2byte	0x2
 8975 05ed 7D       		.byte	0x7d
 8976 05ee 00       		.sleb128 0
 8977 05ef 02000000 		.4byte	.LCFI11
ARM GAS  C:\Users\CNous\AppData\Local\Temp\ccPT5vWC.s 			page 196


 8978 05f3 44000000 		.4byte	.LFE113
 8979 05f7 0200     		.2byte	0x2
 8980 05f9 7D       		.byte	0x7d
 8981 05fa 18       		.sleb128 24
 8982 05fb 00000000 		.4byte	0
 8983 05ff 00000000 		.4byte	0
 8984              	.LLST34:
 8985 0603 00000000 		.4byte	.LVL146
 8986 0607 1D000000 		.4byte	.LVL148-1
 8987 060b 0100     		.2byte	0x1
 8988 060d 50       		.byte	0x50
 8989 060e 1D000000 		.4byte	.LVL148-1
 8990 0612 44000000 		.4byte	.LFE113
 8991 0616 0100     		.2byte	0x1
 8992 0618 57       		.byte	0x57
 8993 0619 00000000 		.4byte	0
 8994 061d 00000000 		.4byte	0
 8995              	.LLST35:
 8996 0621 00000000 		.4byte	.LVL146
 8997 0625 16000000 		.4byte	.LVL147
 8998 0629 0100     		.2byte	0x1
 8999 062b 51       		.byte	0x51
 9000 062c 16000000 		.4byte	.LVL147
 9001 0630 38000000 		.4byte	.LVL149
 9002 0634 0100     		.2byte	0x1
 9003 0636 55       		.byte	0x55
 9004 0637 38000000 		.4byte	.LVL149
 9005 063b 44000000 		.4byte	.LFE113
 9006 063f 0400     		.2byte	0x4
 9007 0641 F3       		.byte	0xf3
 9008 0642 01       		.uleb128 0x1
 9009 0643 51       		.byte	0x51
 9010 0644 9F       		.byte	0x9f
 9011 0645 00000000 		.4byte	0
 9012 0649 00000000 		.4byte	0
 9013              	.LLST36:
 9014 064d 00000000 		.4byte	.LFB144
 9015 0651 02000000 		.4byte	.LCFI12
 9016 0655 0200     		.2byte	0x2
 9017 0657 7D       		.byte	0x7d
 9018 0658 00       		.sleb128 0
 9019 0659 02000000 		.4byte	.LCFI12
 9020 065d 06000000 		.4byte	.LCFI13
 9021 0661 0200     		.2byte	0x2
 9022 0663 7D       		.byte	0x7d
 9023 0664 08       		.sleb128 8
 9024 0665 06000000 		.4byte	.LCFI13
 9025 0669 50000000 		.4byte	.LFE144
 9026 066d 0200     		.2byte	0x2
 9027 066f 7D       		.byte	0x7d
 9028 0670 20       		.sleb128 32
 9029 0671 00000000 		.4byte	0
 9030 0675 00000000 		.4byte	0
 9031              	.LLST37:
 9032 0679 00000000 		.4byte	.LFB111
 9033 067d 04000000 		.4byte	.LCFI14
 9034 0681 0200     		.2byte	0x2
ARM GAS  C:\Users\CNous\AppData\Local\Temp\ccPT5vWC.s 			page 197


 9035 0683 7D       		.byte	0x7d
 9036 0684 00       		.sleb128 0
 9037 0685 04000000 		.4byte	.LCFI14
 9038 0689 08000000 		.4byte	.LCFI15
 9039 068d 0200     		.2byte	0x2
 9040 068f 7D       		.byte	0x7d
 9041 0690 20       		.sleb128 32
 9042 0691 08000000 		.4byte	.LCFI15
 9043 0695 14040000 		.4byte	.LFE111
 9044 0699 0300     		.2byte	0x3
 9045 069b 7D       		.byte	0x7d
 9046 069c E000     		.sleb128 96
 9047 069e 00000000 		.4byte	0
 9048 06a2 00000000 		.4byte	0
 9049              	.LLST38:
 9050 06a6 00000000 		.4byte	.LVL155
 9051 06aa 1E000000 		.4byte	.LVL157
 9052 06ae 0100     		.2byte	0x1
 9053 06b0 50       		.byte	0x50
 9054 06b1 1E000000 		.4byte	.LVL157
 9055 06b5 8C020000 		.4byte	.LVL207
 9056 06b9 0400     		.2byte	0x4
 9057 06bb F3       		.byte	0xf3
 9058 06bc 01       		.uleb128 0x1
 9059 06bd 50       		.byte	0x50
 9060 06be 9F       		.byte	0x9f
 9061 06bf 8C020000 		.4byte	.LVL207
 9062 06c3 92020000 		.4byte	.LVL208
 9063 06c7 0100     		.2byte	0x1
 9064 06c9 50       		.byte	0x50
 9065 06ca 92020000 		.4byte	.LVL208
 9066 06ce 14040000 		.4byte	.LFE111
 9067 06d2 0400     		.2byte	0x4
 9068 06d4 F3       		.byte	0xf3
 9069 06d5 01       		.uleb128 0x1
 9070 06d6 50       		.byte	0x50
 9071 06d7 9F       		.byte	0x9f
 9072 06d8 00000000 		.4byte	0
 9073 06dc 00000000 		.4byte	0
 9074              	.LLST39:
 9075 06e0 00000000 		.4byte	.LVL155
 9076 06e4 16000000 		.4byte	.LVL156
 9077 06e8 0100     		.2byte	0x1
 9078 06ea 51       		.byte	0x51
 9079 06eb 16000000 		.4byte	.LVL156
 9080 06ef 8C020000 		.4byte	.LVL207
 9081 06f3 0400     		.2byte	0x4
 9082 06f5 F3       		.byte	0xf3
 9083 06f6 01       		.uleb128 0x1
 9084 06f7 51       		.byte	0x51
 9085 06f8 9F       		.byte	0x9f
 9086 06f9 8C020000 		.4byte	.LVL207
 9087 06fd 92020000 		.4byte	.LVL208
 9088 0701 0100     		.2byte	0x1
 9089 0703 51       		.byte	0x51
 9090 0704 92020000 		.4byte	.LVL208
 9091 0708 14040000 		.4byte	.LFE111
ARM GAS  C:\Users\CNous\AppData\Local\Temp\ccPT5vWC.s 			page 198


 9092 070c 0400     		.2byte	0x4
 9093 070e F3       		.byte	0xf3
 9094 070f 01       		.uleb128 0x1
 9095 0710 51       		.byte	0x51
 9096 0711 9F       		.byte	0x9f
 9097 0712 00000000 		.4byte	0
 9098 0716 00000000 		.4byte	0
 9099              	.LLST40:
 9100 071a 00000000 		.4byte	.LVL155
 9101 071e 20000000 		.4byte	.LVL158
 9102 0722 0100     		.2byte	0x1
 9103 0724 52       		.byte	0x52
 9104 0725 20000000 		.4byte	.LVL158
 9105 0729 86020000 		.4byte	.LVL206
 9106 072d 0100     		.2byte	0x1
 9107 072f 57       		.byte	0x57
 9108 0730 86020000 		.4byte	.LVL206
 9109 0734 8C020000 		.4byte	.LVL207
 9110 0738 0400     		.2byte	0x4
 9111 073a F3       		.byte	0xf3
 9112 073b 01       		.uleb128 0x1
 9113 073c 52       		.byte	0x52
 9114 073d 9F       		.byte	0x9f
 9115 073e 8C020000 		.4byte	.LVL207
 9116 0742 92020000 		.4byte	.LVL208
 9117 0746 0100     		.2byte	0x1
 9118 0748 52       		.byte	0x52
 9119 0749 92020000 		.4byte	.LVL208
 9120 074d 98020000 		.4byte	.LVL209
 9121 0751 0100     		.2byte	0x1
 9122 0753 57       		.byte	0x57
 9123 0754 98020000 		.4byte	.LVL209
 9124 0758 D2020000 		.4byte	.LVL213
 9125 075c 0400     		.2byte	0x4
 9126 075e F3       		.byte	0xf3
 9127 075f 01       		.uleb128 0x1
 9128 0760 52       		.byte	0x52
 9129 0761 9F       		.byte	0x9f
 9130 0762 D2020000 		.4byte	.LVL213
 9131 0766 4E030000 		.4byte	.LVL233
 9132 076a 0100     		.2byte	0x1
 9133 076c 57       		.byte	0x57
 9134 076d 4E030000 		.4byte	.LVL233
 9135 0771 60030000 		.4byte	.LVL235
 9136 0775 0400     		.2byte	0x4
 9137 0777 F3       		.byte	0xf3
 9138 0778 01       		.uleb128 0x1
 9139 0779 52       		.byte	0x52
 9140 077a 9F       		.byte	0x9f
 9141 077b 60030000 		.4byte	.LVL235
 9142 077f 64030000 		.4byte	.LVL236
 9143 0783 0100     		.2byte	0x1
 9144 0785 57       		.byte	0x57
 9145 0786 64030000 		.4byte	.LVL236
 9146 078a 14040000 		.4byte	.LFE111
 9147 078e 0400     		.2byte	0x4
 9148 0790 F3       		.byte	0xf3
ARM GAS  C:\Users\CNous\AppData\Local\Temp\ccPT5vWC.s 			page 199


 9149 0791 01       		.uleb128 0x1
 9150 0792 52       		.byte	0x52
 9151 0793 9F       		.byte	0x9f
 9152 0794 00000000 		.4byte	0
 9153 0798 00000000 		.4byte	0
 9154              	.LLST41:
 9155 079c 28000000 		.4byte	.LVL159
 9156 07a0 86020000 		.4byte	.LVL206
 9157 07a4 0100     		.2byte	0x1
 9158 07a6 57       		.byte	0x57
 9159 07a7 86020000 		.4byte	.LVL206
 9160 07ab 8C020000 		.4byte	.LVL207
 9161 07af 0400     		.2byte	0x4
 9162 07b1 F3       		.byte	0xf3
 9163 07b2 01       		.uleb128 0x1
 9164 07b3 52       		.byte	0x52
 9165 07b4 9F       		.byte	0x9f
 9166 07b5 92020000 		.4byte	.LVL208
 9167 07b9 98020000 		.4byte	.LVL209
 9168 07bd 0100     		.2byte	0x1
 9169 07bf 57       		.byte	0x57
 9170 07c0 98020000 		.4byte	.LVL209
 9171 07c4 D2020000 		.4byte	.LVL213
 9172 07c8 0400     		.2byte	0x4
 9173 07ca F3       		.byte	0xf3
 9174 07cb 01       		.uleb128 0x1
 9175 07cc 52       		.byte	0x52
 9176 07cd 9F       		.byte	0x9f
 9177 07ce D2020000 		.4byte	.LVL213
 9178 07d2 4E030000 		.4byte	.LVL233
 9179 07d6 0100     		.2byte	0x1
 9180 07d8 57       		.byte	0x57
 9181 07d9 4E030000 		.4byte	.LVL233
 9182 07dd 60030000 		.4byte	.LVL235
 9183 07e1 0400     		.2byte	0x4
 9184 07e3 F3       		.byte	0xf3
 9185 07e4 01       		.uleb128 0x1
 9186 07e5 52       		.byte	0x52
 9187 07e6 9F       		.byte	0x9f
 9188 07e7 60030000 		.4byte	.LVL235
 9189 07eb 64030000 		.4byte	.LVL236
 9190 07ef 0100     		.2byte	0x1
 9191 07f1 57       		.byte	0x57
 9192 07f2 64030000 		.4byte	.LVL236
 9193 07f6 14040000 		.4byte	.LFE111
 9194 07fa 0400     		.2byte	0x4
 9195 07fc F3       		.byte	0xf3
 9196 07fd 01       		.uleb128 0x1
 9197 07fe 52       		.byte	0x52
 9198 07ff 9F       		.byte	0x9f
 9199 0800 00000000 		.4byte	0
 9200 0804 00000000 		.4byte	0
 9201              	.LLST42:
 9202 0808 28000000 		.4byte	.LVL159
 9203 080c EE010000 		.4byte	.LVL188
 9204 0810 0100     		.2byte	0x1
 9205 0812 58       		.byte	0x58
ARM GAS  C:\Users\CNous\AppData\Local\Temp\ccPT5vWC.s 			page 200


 9206 0813 D2020000 		.4byte	.LVL213
 9207 0817 F6020000 		.4byte	.LVL216
 9208 081b 0100     		.2byte	0x1
 9209 081d 58       		.byte	0x58
 9210 081e 18030000 		.4byte	.LVL220
 9211 0822 24030000 		.4byte	.LVL222
 9212 0826 0100     		.2byte	0x1
 9213 0828 58       		.byte	0x58
 9214 0829 00000000 		.4byte	0
 9215 082d 00000000 		.4byte	0
 9216              	.LLST43:
 9217 0831 28000000 		.4byte	.LVL159
 9218 0835 BE010000 		.4byte	.LVL179
 9219 0839 0200     		.2byte	0x2
 9220 083b 30       		.byte	0x30
 9221 083c 9F       		.byte	0x9f
 9222 083d BE010000 		.4byte	.LVL179
 9223 0841 C0010000 		.4byte	.LVL180
 9224 0845 0100     		.2byte	0x1
 9225 0847 50       		.byte	0x50
 9226 0848 C0010000 		.4byte	.LVL180
 9227 084c FA010000 		.4byte	.LVL190
 9228 0850 0100     		.2byte	0x1
 9229 0852 56       		.byte	0x56
 9230 0853 FA010000 		.4byte	.LVL190
 9231 0857 08020000 		.4byte	.LVL192
 9232 085b 0100     		.2byte	0x1
 9233 085d 54       		.byte	0x54
 9234 085e 08020000 		.4byte	.LVL192
 9235 0862 20020000 		.4byte	.LVL196
 9236 0866 0100     		.2byte	0x1
 9237 0868 56       		.byte	0x56
 9238 0869 20020000 		.4byte	.LVL196
 9239 086d 2A020000 		.4byte	.LVL198
 9240 0871 0100     		.2byte	0x1
 9241 0873 54       		.byte	0x54
 9242 0874 2A020000 		.4byte	.LVL198
 9243 0878 34020000 		.4byte	.LVL200
 9244 087c 0100     		.2byte	0x1
 9245 087e 56       		.byte	0x56
 9246 087f 34020000 		.4byte	.LVL200
 9247 0883 3E020000 		.4byte	.LVL202
 9248 0887 0100     		.2byte	0x1
 9249 0889 54       		.byte	0x54
 9250 088a 3E020000 		.4byte	.LVL202
 9251 088e 8C020000 		.4byte	.LVL207
 9252 0892 0100     		.2byte	0x1
 9253 0894 56       		.byte	0x56
 9254 0895 92020000 		.4byte	.LVL208
 9255 0899 D2020000 		.4byte	.LVL213
 9256 089d 0100     		.2byte	0x1
 9257 089f 56       		.byte	0x56
 9258 08a0 D2020000 		.4byte	.LVL213
 9259 08a4 F6020000 		.4byte	.LVL216
 9260 08a8 0200     		.2byte	0x2
 9261 08aa 30       		.byte	0x30
 9262 08ab 9F       		.byte	0x9f
ARM GAS  C:\Users\CNous\AppData\Local\Temp\ccPT5vWC.s 			page 201


 9263 08ac F6020000 		.4byte	.LVL216
 9264 08b0 24030000 		.4byte	.LVL222
 9265 08b4 0100     		.2byte	0x1
 9266 08b6 56       		.byte	0x56
 9267 08b7 24030000 		.4byte	.LVL222
 9268 08bb 26030000 		.4byte	.LVL223
 9269 08bf 0600     		.2byte	0x6
 9270 08c1 76       		.byte	0x76
 9271 08c2 00       		.sleb128 0
 9272 08c3 70       		.byte	0x70
 9273 08c4 00       		.sleb128 0
 9274 08c5 22       		.byte	0x22
 9275 08c6 9F       		.byte	0x9f
 9276 08c7 26030000 		.4byte	.LVL223
 9277 08cb 2E030000 		.4byte	.LVL225
 9278 08cf 0600     		.2byte	0x6
 9279 08d1 76       		.byte	0x76
 9280 08d2 00       		.sleb128 0
 9281 08d3 78       		.byte	0x78
 9282 08d4 00       		.sleb128 0
 9283 08d5 22       		.byte	0x22
 9284 08d6 9F       		.byte	0x9f
 9285 08d7 36030000 		.4byte	.LVL227
 9286 08db 44030000 		.4byte	.LVL230
 9287 08df 0100     		.2byte	0x1
 9288 08e1 56       		.byte	0x56
 9289 08e2 44030000 		.4byte	.LVL230
 9290 08e6 4C030000 		.4byte	.LVL232
 9291 08ea 0100     		.2byte	0x1
 9292 08ec 54       		.byte	0x54
 9293 08ed 4C030000 		.4byte	.LVL232
 9294 08f1 14040000 		.4byte	.LFE111
 9295 08f5 0100     		.2byte	0x1
 9296 08f7 56       		.byte	0x56
 9297 08f8 00000000 		.4byte	0
 9298 08fc 00000000 		.4byte	0
 9299              	.LLST44:
 9300 0900 3E020000 		.4byte	.LVL202
 9301 0904 86020000 		.4byte	.LVL206
 9302 0908 0100     		.2byte	0x1
 9303 090a 57       		.byte	0x57
 9304 090b 86020000 		.4byte	.LVL206
 9305 090f 8C020000 		.4byte	.LVL207
 9306 0913 0400     		.2byte	0x4
 9307 0915 F3       		.byte	0xf3
 9308 0916 01       		.uleb128 0x1
 9309 0917 52       		.byte	0x52
 9310 0918 9F       		.byte	0x9f
 9311 0919 92020000 		.4byte	.LVL208
 9312 091d 98020000 		.4byte	.LVL209
 9313 0921 0100     		.2byte	0x1
 9314 0923 57       		.byte	0x57
 9315 0924 98020000 		.4byte	.LVL209
 9316 0928 D2020000 		.4byte	.LVL213
 9317 092c 0400     		.2byte	0x4
 9318 092e F3       		.byte	0xf3
 9319 092f 01       		.uleb128 0x1
ARM GAS  C:\Users\CNous\AppData\Local\Temp\ccPT5vWC.s 			page 202


 9320 0930 52       		.byte	0x52
 9321 0931 9F       		.byte	0x9f
 9322 0932 F6020000 		.4byte	.LVL216
 9323 0936 18030000 		.4byte	.LVL220
 9324 093a 0100     		.2byte	0x1
 9325 093c 57       		.byte	0x57
 9326 093d 4E030000 		.4byte	.LVL233
 9327 0941 60030000 		.4byte	.LVL235
 9328 0945 0400     		.2byte	0x4
 9329 0947 F3       		.byte	0xf3
 9330 0948 01       		.uleb128 0x1
 9331 0949 52       		.byte	0x52
 9332 094a 9F       		.byte	0x9f
 9333 094b 60030000 		.4byte	.LVL235
 9334 094f 64030000 		.4byte	.LVL236
 9335 0953 0100     		.2byte	0x1
 9336 0955 57       		.byte	0x57
 9337 0956 64030000 		.4byte	.LVL236
 9338 095a 14040000 		.4byte	.LFE111
 9339 095e 0400     		.2byte	0x4
 9340 0960 F3       		.byte	0xf3
 9341 0961 01       		.uleb128 0x1
 9342 0962 52       		.byte	0x52
 9343 0963 9F       		.byte	0x9f
 9344 0964 00000000 		.4byte	0
 9345 0968 00000000 		.4byte	0
 9346              		.section	.debug_aranges,"",%progbits
 9347 0000 A4000000 		.4byte	0xa4
 9348 0004 0200     		.2byte	0x2
 9349 0006 00000000 		.4byte	.Ldebug_info0
 9350 000a 04       		.byte	0x4
 9351 000b 00       		.byte	0
 9352 000c 0000     		.2byte	0
 9353 000e 0000     		.2byte	0
 9354 0010 00000000 		.4byte	.LFB118
 9355 0014 64000000 		.4byte	.LFE118-.LFB118
 9356 0018 00000000 		.4byte	.LFB129
 9357 001c 2C000000 		.4byte	.LFE129-.LFB129
 9358 0020 00000000 		.4byte	.LFB130
 9359 0024 E4020000 		.4byte	.LFE130-.LFB130
 9360 0028 00000000 		.4byte	.LFB146
 9361 002c 08000000 		.4byte	.LFE146-.LFB146
 9362 0030 00000000 		.4byte	.LFB127
 9363 0034 1C000000 		.4byte	.LFE127-.LFB127
 9364 0038 00000000 		.4byte	.LFB110
 9365 003c F8000000 		.4byte	.LFE110-.LFB110
 9366 0040 00000000 		.4byte	.LFB112
 9367 0044 DA000000 		.4byte	.LFE112-.LFB112
 9368 0048 00000000 		.4byte	.LFB114
 9369 004c 9C000000 		.4byte	.LFE114-.LFB114
 9370 0050 00000000 		.4byte	.LFB115
 9371 0054 9C000000 		.4byte	.LFE115-.LFB115
 9372 0058 00000000 		.4byte	.LFB116
 9373 005c 24000000 		.4byte	.LFE116-.LFB116
 9374 0060 00000000 		.4byte	.LFB117
 9375 0064 18000000 		.4byte	.LFE117-.LFB117
 9376 0068 00000000 		.4byte	.LFB119
ARM GAS  C:\Users\CNous\AppData\Local\Temp\ccPT5vWC.s 			page 203


 9377 006c 04000000 		.4byte	.LFE119-.LFB119
 9378 0070 00000000 		.4byte	.LFB120
 9379 0074 04000000 		.4byte	.LFE120-.LFB120
 9380 0078 00000000 		.4byte	.LFB121
 9381 007c 44000000 		.4byte	.LFE121-.LFB121
 9382 0080 00000000 		.4byte	.LFB141
 9383 0084 64000000 		.4byte	.LFE141-.LFB141
 9384 0088 00000000 		.4byte	.LFB113
 9385 008c 44000000 		.4byte	.LFE113-.LFB113
 9386 0090 00000000 		.4byte	.LFB144
 9387 0094 50000000 		.4byte	.LFE144-.LFB144
 9388 0098 00000000 		.4byte	.LFB111
 9389 009c 14040000 		.4byte	.LFE111-.LFB111
 9390 00a0 00000000 		.4byte	0
 9391 00a4 00000000 		.4byte	0
 9392              		.section	.debug_ranges,"",%progbits
 9393              	.Ldebug_ranges0:
 9394 0000 2E000000 		.4byte	.LBB16
 9395 0004 32000000 		.4byte	.LBE16
 9396 0008 66000000 		.4byte	.LBB24
 9397 000c 3E010000 		.4byte	.LBE24
 9398 0010 46010000 		.4byte	.LBB25
 9399 0014 E4020000 		.4byte	.LBE25
 9400 0018 00000000 		.4byte	0
 9401 001c 00000000 		.4byte	0
 9402 0020 2E000000 		.4byte	.LBB17
 9403 0024 32000000 		.4byte	.LBE17
 9404 0028 66000000 		.4byte	.LBB22
 9405 002c 3E010000 		.4byte	.LBE22
 9406 0030 46010000 		.4byte	.LBB23
 9407 0034 E4020000 		.4byte	.LBE23
 9408 0038 00000000 		.4byte	0
 9409 003c 00000000 		.4byte	0
 9410 0040 16010000 		.4byte	.LBB18
 9411 0044 3E010000 		.4byte	.LBE18
 9412 0048 46010000 		.4byte	.LBB21
 9413 004c E4020000 		.4byte	.LBE21
 9414 0050 00000000 		.4byte	0
 9415 0054 00000000 		.4byte	0
 9416 0058 16010000 		.4byte	.LBB19
 9417 005c 3E010000 		.4byte	.LBE19
 9418 0060 46010000 		.4byte	.LBB20
 9419 0064 E4020000 		.4byte	.LBE20
 9420 0068 00000000 		.4byte	0
 9421 006c 00000000 		.4byte	0
 9422 0070 00000000 		.4byte	.LBB28
 9423 0074 02000000 		.4byte	.LBE28
 9424 0078 04000000 		.4byte	.LBB31
 9425 007c 0A000000 		.4byte	.LBE31
 9426 0080 00000000 		.4byte	0
 9427 0084 00000000 		.4byte	0
 9428 0088 00000000 		.4byte	.LBB29
 9429 008c 02000000 		.4byte	.LBE29
 9430 0090 04000000 		.4byte	.LBB30
 9431 0094 0A000000 		.4byte	.LBE30
 9432 0098 00000000 		.4byte	0
 9433 009c 00000000 		.4byte	0
ARM GAS  C:\Users\CNous\AppData\Local\Temp\ccPT5vWC.s 			page 204


 9434 00a0 02000000 		.4byte	.LBB40
 9435 00a4 0E000000 		.4byte	.LBE40
 9436 00a8 10000000 		.4byte	.LBB45
 9437 00ac 36000000 		.4byte	.LBE45
 9438 00b0 3A000000 		.4byte	.LBB68
 9439 00b4 3C000000 		.4byte	.LBE68
 9440 00b8 40000000 		.4byte	.LBB70
 9441 00bc 44000000 		.4byte	.LBE70
 9442 00c0 00000000 		.4byte	0
 9443 00c4 00000000 		.4byte	0
 9444 00c8 02000000 		.4byte	.LBB41
 9445 00cc 0E000000 		.4byte	.LBE41
 9446 00d0 10000000 		.4byte	.LBB42
 9447 00d4 36000000 		.4byte	.LBE42
 9448 00d8 3A000000 		.4byte	.LBB43
 9449 00dc 3C000000 		.4byte	.LBE43
 9450 00e0 40000000 		.4byte	.LBB44
 9451 00e4 44000000 		.4byte	.LBE44
 9452 00e8 00000000 		.4byte	0
 9453 00ec 00000000 		.4byte	0
 9454 00f0 36000000 		.4byte	.LBB46
 9455 00f4 3A000000 		.4byte	.LBE46
 9456 00f8 3C000000 		.4byte	.LBB69
 9457 00fc 40000000 		.4byte	.LBE69
 9458 0100 44000000 		.4byte	.LBB71
 9459 0104 D4000000 		.4byte	.LBE71
 9460 0108 00000000 		.4byte	0
 9461 010c 00000000 		.4byte	0
 9462 0110 36000000 		.4byte	.LBB47
 9463 0114 3A000000 		.4byte	.LBE47
 9464 0118 3C000000 		.4byte	.LBB66
 9465 011c 40000000 		.4byte	.LBE66
 9466 0120 44000000 		.4byte	.LBB67
 9467 0124 D4000000 		.4byte	.LBE67
 9468 0128 00000000 		.4byte	0
 9469 012c 00000000 		.4byte	0
 9470 0130 36000000 		.4byte	.LBB48
 9471 0134 3A000000 		.4byte	.LBE48
 9472 0138 3C000000 		.4byte	.LBB55
 9473 013c 40000000 		.4byte	.LBE55
 9474 0140 44000000 		.4byte	.LBB56
 9475 0144 46000000 		.4byte	.LBE56
 9476 0148 52000000 		.4byte	.LBB57
 9477 014c 9E000000 		.4byte	.LBE57
 9478 0150 A2000000 		.4byte	.LBB62
 9479 0154 A8000000 		.4byte	.LBE62
 9480 0158 AC000000 		.4byte	.LBB64
 9481 015c BC000000 		.4byte	.LBE64
 9482 0160 00000000 		.4byte	0
 9483 0164 00000000 		.4byte	0
 9484 0168 36000000 		.4byte	.LBB49
 9485 016c 3A000000 		.4byte	.LBE49
 9486 0170 3C000000 		.4byte	.LBB50
 9487 0174 40000000 		.4byte	.LBE50
 9488 0178 44000000 		.4byte	.LBB51
 9489 017c 46000000 		.4byte	.LBE51
 9490 0180 52000000 		.4byte	.LBB52
ARM GAS  C:\Users\CNous\AppData\Local\Temp\ccPT5vWC.s 			page 205


 9491 0184 9E000000 		.4byte	.LBE52
 9492 0188 A2000000 		.4byte	.LBB53
 9493 018c A8000000 		.4byte	.LBE53
 9494 0190 AC000000 		.4byte	.LBB54
 9495 0194 BC000000 		.4byte	.LBE54
 9496 0198 00000000 		.4byte	0
 9497 019c 00000000 		.4byte	0
 9498 01a0 9E000000 		.4byte	.LBB58
 9499 01a4 A2000000 		.4byte	.LBE58
 9500 01a8 A8000000 		.4byte	.LBB63
 9501 01ac AC000000 		.4byte	.LBE63
 9502 01b0 BC000000 		.4byte	.LBB65
 9503 01b4 D4000000 		.4byte	.LBE65
 9504 01b8 00000000 		.4byte	0
 9505 01bc 00000000 		.4byte	0
 9506 01c0 02000000 		.4byte	.LBB80
 9507 01c4 24000000 		.4byte	.LBE80
 9508 01c8 5A000000 		.4byte	.LBB90
 9509 01cc 64000000 		.4byte	.LBE90
 9510 01d0 00000000 		.4byte	0
 9511 01d4 00000000 		.4byte	0
 9512 01d8 02000000 		.4byte	.LBB81
 9513 01dc 24000000 		.4byte	.LBE81
 9514 01e0 5A000000 		.4byte	.LBB86
 9515 01e4 64000000 		.4byte	.LBE86
 9516 01e8 00000000 		.4byte	0
 9517 01ec 00000000 		.4byte	0
 9518 01f0 04000000 		.4byte	.LBB82
 9519 01f4 0E000000 		.4byte	.LBE82
 9520 01f8 10000000 		.4byte	.LBB85
 9521 01fc 12000000 		.4byte	.LBE85
 9522 0200 00000000 		.4byte	0
 9523 0204 00000000 		.4byte	0
 9524 0208 04000000 		.4byte	.LBB83
 9525 020c 0E000000 		.4byte	.LBE83
 9526 0210 10000000 		.4byte	.LBB84
 9527 0214 12000000 		.4byte	.LBE84
 9528 0218 00000000 		.4byte	0
 9529 021c 00000000 		.4byte	0
 9530 0220 2C000000 		.4byte	.LBB87
 9531 0224 54000000 		.4byte	.LBE87
 9532 0228 68000000 		.4byte	.LBB91
 9533 022c 9C000000 		.4byte	.LBE91
 9534 0230 00000000 		.4byte	0
 9535 0234 00000000 		.4byte	0
 9536 0238 2C000000 		.4byte	.LBB88
 9537 023c 54000000 		.4byte	.LBE88
 9538 0240 68000000 		.4byte	.LBB89
 9539 0244 9C000000 		.4byte	.LBE89
 9540 0248 00000000 		.4byte	0
 9541 024c 00000000 		.4byte	0
 9542 0250 08000000 		.4byte	.LBB100
 9543 0254 2C000000 		.4byte	.LBE100
 9544 0258 72000000 		.4byte	.LBB107
 9545 025c 9C000000 		.4byte	.LBE107
 9546 0260 00000000 		.4byte	0
 9547 0264 00000000 		.4byte	0
ARM GAS  C:\Users\CNous\AppData\Local\Temp\ccPT5vWC.s 			page 206


 9548 0268 08000000 		.4byte	.LBB101
 9549 026c 2C000000 		.4byte	.LBE101
 9550 0270 72000000 		.4byte	.LBB104
 9551 0274 9C000000 		.4byte	.LBE104
 9552 0278 00000000 		.4byte	0
 9553 027c 00000000 		.4byte	0
 9554 0280 00000000 		.4byte	.LBB110
 9555 0284 0A000000 		.4byte	.LBE110
 9556 0288 0A000000 		.4byte	.LBB113
 9557 028c 0E000000 		.4byte	.LBE113
 9558 0290 00000000 		.4byte	0
 9559 0294 00000000 		.4byte	0
 9560 0298 00000000 		.4byte	.LBB111
 9561 029c 0A000000 		.4byte	.LBE111
 9562 02a0 0A000000 		.4byte	.LBB112
 9563 02a4 0E000000 		.4byte	.LBE112
 9564 02a8 00000000 		.4byte	0
 9565 02ac 00000000 		.4byte	0
 9566 02b0 28000000 		.4byte	.LBB124
 9567 02b4 82020000 		.4byte	.LBE124
 9568 02b8 D2020000 		.4byte	.LBB142
 9569 02bc 4E030000 		.4byte	.LBE142
 9570 02c0 00000000 		.4byte	0
 9571 02c4 00000000 		.4byte	0
 9572 02c8 28000000 		.4byte	.LBB125
 9573 02cc 82020000 		.4byte	.LBE125
 9574 02d0 D2020000 		.4byte	.LBB138
 9575 02d4 4E030000 		.4byte	.LBE138
 9576 02d8 00000000 		.4byte	0
 9577 02dc 00000000 		.4byte	0
 9578 02e0 28000000 		.4byte	.LBB126
 9579 02e4 4A010000 		.4byte	.LBE126
 9580 02e8 D2020000 		.4byte	.LBB136
 9581 02ec F6020000 		.4byte	.LBE136
 9582 02f0 00000000 		.4byte	0
 9583 02f4 00000000 		.4byte	0
 9584 02f8 28000000 		.4byte	.LBB127
 9585 02fc 4A010000 		.4byte	.LBE127
 9586 0300 D2020000 		.4byte	.LBB128
 9587 0304 F6020000 		.4byte	.LBE128
 9588 0308 00000000 		.4byte	0
 9589 030c 00000000 		.4byte	0
 9590 0310 3A020000 		.4byte	.LBB131
 9591 0314 3C020000 		.4byte	.LBE131
 9592 0318 3E020000 		.4byte	.LBB135
 9593 031c 82020000 		.4byte	.LBE135
 9594 0320 F6020000 		.4byte	.LBB137
 9595 0324 18030000 		.4byte	.LBE137
 9596 0328 00000000 		.4byte	0
 9597 032c 00000000 		.4byte	0
 9598 0330 3A020000 		.4byte	.LBB132
 9599 0334 3C020000 		.4byte	.LBE132
 9600 0338 3E020000 		.4byte	.LBB133
 9601 033c 82020000 		.4byte	.LBE133
 9602 0340 F6020000 		.4byte	.LBB134
 9603 0344 18030000 		.4byte	.LBE134
 9604 0348 00000000 		.4byte	0
ARM GAS  C:\Users\CNous\AppData\Local\Temp\ccPT5vWC.s 			page 207


 9605 034c 00000000 		.4byte	0
 9606 0350 92020000 		.4byte	.LBB139
 9607 0354 D2020000 		.4byte	.LBE139
 9608 0358 4E030000 		.4byte	.LBB143
 9609 035c 14040000 		.4byte	.LBE143
 9610 0360 00000000 		.4byte	0
 9611 0364 00000000 		.4byte	0
 9612 0368 92020000 		.4byte	.LBB140
 9613 036c D2020000 		.4byte	.LBE140
 9614 0370 4E030000 		.4byte	.LBB141
 9615 0374 14040000 		.4byte	.LBE141
 9616 0378 00000000 		.4byte	0
 9617 037c 00000000 		.4byte	0
 9618 0380 00000000 		.4byte	.LFB118
 9619 0384 64000000 		.4byte	.LFE118
 9620 0388 00000000 		.4byte	.LFB129
 9621 038c 2C000000 		.4byte	.LFE129
 9622 0390 00000000 		.4byte	.LFB130
 9623 0394 E4020000 		.4byte	.LFE130
 9624 0398 00000000 		.4byte	.LFB146
 9625 039c 08000000 		.4byte	.LFE146
 9626 03a0 00000000 		.4byte	.LFB127
 9627 03a4 1C000000 		.4byte	.LFE127
 9628 03a8 00000000 		.4byte	.LFB110
 9629 03ac F8000000 		.4byte	.LFE110
 9630 03b0 00000000 		.4byte	.LFB112
 9631 03b4 DA000000 		.4byte	.LFE112
 9632 03b8 00000000 		.4byte	.LFB114
 9633 03bc 9C000000 		.4byte	.LFE114
 9634 03c0 00000000 		.4byte	.LFB115
 9635 03c4 9C000000 		.4byte	.LFE115
 9636 03c8 00000000 		.4byte	.LFB116
 9637 03cc 24000000 		.4byte	.LFE116
 9638 03d0 00000000 		.4byte	.LFB117
 9639 03d4 18000000 		.4byte	.LFE117
 9640 03d8 00000000 		.4byte	.LFB119
 9641 03dc 04000000 		.4byte	.LFE119
 9642 03e0 00000000 		.4byte	.LFB120
 9643 03e4 04000000 		.4byte	.LFE120
 9644 03e8 00000000 		.4byte	.LFB121
 9645 03ec 44000000 		.4byte	.LFE121
 9646 03f0 00000000 		.4byte	.LFB141
 9647 03f4 64000000 		.4byte	.LFE141
 9648 03f8 00000000 		.4byte	.LFB113
 9649 03fc 44000000 		.4byte	.LFE113
 9650 0400 00000000 		.4byte	.LFB144
 9651 0404 50000000 		.4byte	.LFE144
 9652 0408 00000000 		.4byte	.LFB111
 9653 040c 14040000 		.4byte	.LFE111
 9654 0410 00000000 		.4byte	0
 9655 0414 00000000 		.4byte	0
 9656              		.section	.debug_line,"",%progbits
 9657              	.Ldebug_line0:
 9658 0000 85060000 		.section	.debug_str,"MS",%progbits,1
 9658      02008C01 
 9658      00000201 
 9658      FB0E0D00 
ARM GAS  C:\Users\CNous\AppData\Local\Temp\ccPT5vWC.s 			page 208


 9658      01010101 
 9659              	.LASF114:
 9660 0000 4D314152 		.ascii	"M1AR\000"
 9660      00
 9661              	.LASF187:
 9662 0005 4750494F 		.ascii	"GPIO_OType\000"
 9662      5F4F5479 
 9662      706500
 9663              	.LASF11:
 9664 0010 5254435F 		.ascii	"RTC_WKUP_IRQn\000"
 9664      574B5550 
 9664      5F495251 
 9664      6E00
 9665              	.LASF16:
 9666 001e 45585449 		.ascii	"EXTI2_IRQn\000"
 9666      325F4952 
 9666      516E00
 9667              	.LASF25:
 9668 0029 444D4131 		.ascii	"DMA1_Stream6_IRQn\000"
 9668      5F537472 
 9668      65616D36 
 9668      5F495251 
 9668      6E00
 9669              	.LASF52:
 9670 003b 54494D38 		.ascii	"TIM8_UP_TIM13_IRQn\000"
 9670      5F55505F 
 9670      54494D31 
 9670      335F4952 
 9670      516E00
 9671              	.LASF103:
 9672 004e 73697A65 		.ascii	"sizetype\000"
 9672      74797065 
 9672      00
 9673              	.LASF155:
 9674 0057 444D415F 		.ascii	"DMA_PeripheralDataSize\000"
 9674      50657269 
 9674      70686572 
 9674      616C4461 
 9674      74615369 
 9675              	.LASF159:
 9676 006e 444D415F 		.ascii	"DMA_FIFOMode\000"
 9676      4649464F 
 9676      4D6F6465 
 9676      00
 9677              	.LASF313:
 9678 007b 4441435F 		.ascii	"DAC_SetChannel1Data\000"
 9678      53657443 
 9678      68616E6E 
 9678      656C3144 
 9678      61746100 
 9679              	.LASF96:
 9680 008f 696E7433 		.ascii	"int32_t\000"
 9680      325F7400 
 9681              	.LASF240:
 9682 0097 436F6465 		.ascii	"Codec_PauseResume\000"
 9682      635F5061 
 9682      75736552 
ARM GAS  C:\Users\CNous\AppData\Local\Temp\ccPT5vWC.s 			page 209


 9682      6573756D 
 9682      6500
 9683              	.LASF246:
 9684 00a9 41756469 		.ascii	"Audio_MAL_Stop\000"
 9684      6F5F4D41 
 9684      4C5F5374 
 9684      6F7000
 9685              	.LASF65:
 9686 00b8 444D4132 		.ascii	"DMA2_Stream1_IRQn\000"
 9686      5F537472 
 9686      65616D31 
 9686      5F495251 
 9686      6E00
 9687              	.LASF177:
 9688 00ca 4750494F 		.ascii	"GPIO_PuPd_NOPULL\000"
 9688      5F507550 
 9688      645F4E4F 
 9688      50554C4C 
 9688      00
 9689              	.LASF222:
 9690 00db 44656C61 		.ascii	"Delay\000"
 9690      7900
 9691              	.LASF59:
 9692 00e1 53504933 		.ascii	"SPI3_IRQn\000"
 9692      5F495251 
 9692      6E00
 9693              	.LASF12:
 9694 00eb 464C4153 		.ascii	"FLASH_IRQn\000"
 9694      485F4952 
 9694      516E00
 9695              	.LASF86:
 9696 00f6 44434D49 		.ascii	"DCMI_IRQn\000"
 9696      5F495251 
 9696      6E00
 9697              	.LASF171:
 9698 0100 4750494F 		.ascii	"GPIOOType_TypeDef\000"
 9698      4F547970 
 9698      655F5479 
 9698      70654465 
 9698      6600
 9699              	.LASF191:
 9700 0112 4932435F 		.ascii	"I2C_Mode\000"
 9700      4D6F6465 
 9700      00
 9701              	.LASF36:
 9702 011b 54494D32 		.ascii	"TIM2_IRQn\000"
 9702      5F495251 
 9702      6E00
 9703              	.LASF322:
 9704 0125 5350495F 		.ascii	"SPI_I2S_ITConfig\000"
 9704      4932535F 
 9704      4954436F 
 9704      6E666967 
 9704      00
 9705              	.LASF175:
 9706 0136 4750494F 		.ascii	"GPIO_Speed_100MHz\000"
 9706      5F537065 
ARM GAS  C:\Users\CNous\AppData\Local\Temp\ccPT5vWC.s 			page 210


 9706      65645F31 
 9706      30304D48 
 9706      7A00
 9707              	.LASF249:
 9708 0148 4556414C 		.ascii	"EVAL_AUDIO_VolumeCtl\000"
 9708      5F415544 
 9708      494F5F56 
 9708      6F6C756D 
 9708      6543746C 
 9709              	.LASF146:
 9710 015d 4441435F 		.ascii	"DAC_OutputBuffer\000"
 9710      4F757470 
 9710      75744275 
 9710      66666572 
 9710      00
 9711              	.LASF289:
 9712 016e 4750494F 		.ascii	"GPIO_WriteBit\000"
 9712      5F577269 
 9712      74654269 
 9712      7400
 9713              	.LASF225:
 9714 017c 436F6465 		.ascii	"Codec_Init\000"
 9714      635F496E 
 9714      697400
 9715              	.LASF234:
 9716 0187 4E564943 		.ascii	"NVIC_InitStructure\000"
 9716      5F496E69 
 9716      74537472 
 9716      75637475 
 9716      726500
 9717              	.LASF72:
 9718 019a 43414E32 		.ascii	"CAN2_RX0_IRQn\000"
 9718      5F525830 
 9718      5F495251 
 9718      6E00
 9719              	.LASF79:
 9720 01a8 55534152 		.ascii	"USART6_IRQn\000"
 9720      54365F49 
 9720      52516E00 
 9721              	.LASF298:
 9722 01b4 4932435F 		.ascii	"I2C_ReceiveData\000"
 9722      52656365 
 9722      69766544 
 9722      61746100 
 9723              	.LASF44:
 9724 01c4 53504932 		.ascii	"SPI2_IRQn\000"
 9724      5F495251 
 9724      6E00
 9725              	.LASF51:
 9726 01ce 54494D38 		.ascii	"TIM8_BRK_TIM12_IRQn\000"
 9726      5F42524B 
 9726      5F54494D 
 9726      31325F49 
 9726      52516E00 
 9727              	.LASF217:
 9728 01e2 72657375 		.ascii	"result\000"
 9728      6C7400
ARM GAS  C:\Users\CNous\AppData\Local\Temp\ccPT5vWC.s 			page 211


 9729              	.LASF179:
 9730 01e9 4750494F 		.ascii	"GPIO_PuPd_DOWN\000"
 9730      5F507550 
 9730      645F444F 
 9730      574E00
 9731              	.LASF139:
 9732 01f8 54584352 		.ascii	"TXCRCR\000"
 9732      435200
 9733              	.LASF207:
 9734 01ff 4E564943 		.ascii	"NVIC_IRQChannelCmd\000"
 9734      5F495251 
 9734      4368616E 
 9734      6E656C43 
 9734      6D6400
 9735              	.LASF97:
 9736 0212 6C6F6E67 		.ascii	"long int\000"
 9736      20696E74 
 9736      00
 9737              	.LASF262:
 9738 021b 4932435F 		.ascii	"I2C_InitStructure\000"
 9738      496E6974 
 9738      53747275 
 9738      63747572 
 9738      6500
 9739              	.LASF275:
 9740 022d 43757272 		.ascii	"CurrAudioInterface\000"
 9740      41756469 
 9740      6F496E74 
 9740      65726661 
 9740      636500
 9741              	.LASF150:
 9742 0240 444D415F 		.ascii	"DMA_Memory0BaseAddr\000"
 9742      4D656D6F 
 9742      72793042 
 9742      61736541 
 9742      64647200 
 9743              	.LASF76:
 9744 0254 444D4132 		.ascii	"DMA2_Stream5_IRQn\000"
 9744      5F537472 
 9744      65616D35 
 9744      5F495251 
 9744      6E00
 9745              	.LASF285:
 9746 0266 41554449 		.ascii	"AUDIO_MAL_DMA_FLAG_DME\000"
 9746      4F5F4D41 
 9746      4C5F444D 
 9746      415F464C 
 9746      41475F44 
 9747              	.LASF166:
 9748 027d 4750494F 		.ascii	"GPIO_Mode_AF\000"
 9748      5F4D6F64 
 9748      655F4146 
 9748      00
 9749              	.LASF326:
 9750 028a 4952516E 		.ascii	"IRQn\000"
 9750      00
 9751              	.LASF34:
ARM GAS  C:\Users\CNous\AppData\Local\Temp\ccPT5vWC.s 			page 212


 9752 028f 54494D31 		.ascii	"TIM1_TRG_COM_TIM11_IRQn\000"
 9752      5F545247 
 9752      5F434F4D 
 9752      5F54494D 
 9752      31315F49 
 9753              	.LASF167:
 9754 02a7 4750494F 		.ascii	"GPIO_Mode_AN\000"
 9754      5F4D6F64 
 9754      655F414E 
 9754      00
 9755              	.LASF158:
 9756 02b4 444D415F 		.ascii	"DMA_Priority\000"
 9756      5072696F 
 9756      72697479 
 9756      00
 9757              	.LASF7:
 9758 02c1 53797354 		.ascii	"SysTick_IRQn\000"
 9758      69636B5F 
 9758      4952516E 
 9758      00
 9759              	.LASF47:
 9760 02ce 55534152 		.ascii	"USART3_IRQn\000"
 9760      54335F49 
 9760      52516E00 
 9761              	.LASF229:
 9762 02da 53697A65 		.ascii	"Size\000"
 9762      00
 9763              	.LASF170:
 9764 02df 4750494F 		.ascii	"GPIO_OType_OD\000"
 9764      5F4F5479 
 9764      70655F4F 
 9764      4400
 9765              	.LASF162:
 9766 02ed 444D415F 		.ascii	"DMA_PeripheralBurst\000"
 9766      50657269 
 9766      70686572 
 9766      616C4275 
 9766      72737400 
 9767              	.LASF90:
 9768 0301 7369676E 		.ascii	"signed char\000"
 9768      65642063 
 9768      68617200 
 9769              	.LASF277:
 9770 030d 41554449 		.ascii	"AUDIO_MAL_DMA_STREAM\000"
 9770      4F5F4D41 
 9770      4C5F444D 
 9770      415F5354 
 9770      5245414D 
 9771              	.LASF93:
 9772 0322 75696E74 		.ascii	"uint8_t\000"
 9772      385F7400 
 9773              	.LASF192:
 9774 032a 4932435F 		.ascii	"I2C_DutyCycle\000"
 9774      44757479 
 9774      4379636C 
 9774      6500
 9775              	.LASF214:
ARM GAS  C:\Users\CNous\AppData\Local\Temp\ccPT5vWC.s 			page 213


 9776 0338 52656769 		.ascii	"RegisterValue\000"
 9776      73746572 
 9776      56616C75 
 9776      6500
 9777              	.LASF241:
 9778 0346 4556414C 		.ascii	"EVAL_AUDIO_DeInit\000"
 9778      5F415544 
 9778      494F5F44 
 9778      65496E69 
 9778      7400
 9779              	.LASF189:
 9780 0358 4750494F 		.ascii	"GPIO_InitTypeDef\000"
 9780      5F496E69 
 9780      74547970 
 9780      65446566 
 9780      00
 9781              	.LASF21:
 9782 0369 444D4131 		.ascii	"DMA1_Stream2_IRQn\000"
 9782      5F537472 
 9782      65616D32 
 9782      5F495251 
 9782      6E00
 9783              	.LASF307:
 9784 037b 5243435F 		.ascii	"RCC_APB1PeriphClockCmd\000"
 9784      41504231 
 9784      50657269 
 9784      7068436C 
 9784      6F636B43 
 9785              	.LASF299:
 9786 0392 4932435F 		.ascii	"I2C_ClearFlag\000"
 9786      436C6561 
 9786      72466C61 
 9786      6700
 9787              	.LASF124:
 9788 03a0 52455345 		.ascii	"RESERVED0\000"
 9788      52564544 
 9788      3000
 9789              	.LASF125:
 9790 03aa 52455345 		.ascii	"RESERVED1\000"
 9790      52564544 
 9790      3100
 9791              	.LASF91:
 9792 03b4 756E7369 		.ascii	"unsigned char\000"
 9792      676E6564 
 9792      20636861 
 9792      7200
 9793              	.LASF68:
 9794 03c2 444D4132 		.ascii	"DMA2_Stream4_IRQn\000"
 9794      5F537472 
 9794      65616D34 
 9794      5F495251 
 9794      6E00
 9795              	.LASF130:
 9796 03d4 52455345 		.ascii	"RESERVED4\000"
 9796      52564544 
 9796      3400
 9797              	.LASF131:
ARM GAS  C:\Users\CNous\AppData\Local\Temp\ccPT5vWC.s 			page 214


 9798 03de 52455345 		.ascii	"RESERVED5\000"
 9798      52564544 
 9798      3500
 9799              	.LASF132:
 9800 03e8 52455345 		.ascii	"RESERVED6\000"
 9800      52564544 
 9800      3600
 9801              	.LASF133:
 9802 03f2 52455345 		.ascii	"RESERVED7\000"
 9802      52564544 
 9802      3700
 9803              	.LASF135:
 9804 03fc 52455345 		.ascii	"RESERVED8\000"
 9804      52564544 
 9804      3800
 9805              	.LASF276:
 9806 0406 41554449 		.ascii	"AUDIO_MAL_DMA_CLOCK\000"
 9806      4F5F4D41 
 9806      4C5F444D 
 9806      415F434C 
 9806      4F434B00 
 9807              	.LASF215:
 9808 041a 436F6465 		.ascii	"Codec_WriteRegister\000"
 9808      635F5772 
 9808      69746552 
 9808      65676973 
 9808      74657200 
 9809              	.LASF233:
 9810 042e 41756469 		.ascii	"Audio_MAL_DeInit\000"
 9810      6F5F4D41 
 9810      4C5F4465 
 9810      496E6974 
 9810      00
 9811              	.LASF169:
 9812 043f 4750494F 		.ascii	"GPIO_OType_PP\000"
 9812      5F4F5479 
 9812      70655F50 
 9812      5000
 9813              	.LASF40:
 9814 044d 49324331 		.ascii	"I2C1_ER_IRQn\000"
 9814      5F45525F 
 9814      4952516E 
 9814      00
 9815              	.LASF296:
 9816 045a 4932435F 		.ascii	"I2C_AcknowledgeConfig\000"
 9816      41636B6E 
 9816      6F776C65 
 9816      64676543 
 9816      6F6E6669 
 9817              	.LASF74:
 9818 0470 43414E32 		.ascii	"CAN2_SCE_IRQn\000"
 9818      5F534345 
 9818      5F495251 
 9818      6E00
 9819              	.LASF287:
 9820 047e 444D415F 		.ascii	"DMA_ClearFlag\000"
 9820      436C6561 
ARM GAS  C:\Users\CNous\AppData\Local\Temp\ccPT5vWC.s 			page 215


 9820      72466C61 
 9820      6700
 9821              	.LASF273:
 9822 048c 434F4445 		.ascii	"CODECTimeout\000"
 9822      4354696D 
 9822      656F7574 
 9822      00
 9823              	.LASF127:
 9824 0499 52455345 		.ascii	"RESERVED2\000"
 9824      52564544 
 9824      3200
 9825              	.LASF129:
 9826 04a3 52455345 		.ascii	"RESERVED3\000"
 9826      52564544 
 9826      3300
 9827              	.LASF58:
 9828 04ad 54494D35 		.ascii	"TIM5_IRQn\000"
 9828      5F495251 
 9828      6E00
 9829              	.LASF3:
 9830 04b7 55736167 		.ascii	"UsageFault_IRQn\000"
 9830      65466175 
 9830      6C745F49 
 9830      52516E00 
 9831              	.LASF209:
 9832 04c7 63686172 		.ascii	"char\000"
 9832      00
 9833              	.LASF239:
 9834 04cc 436F6465 		.ascii	"Codec_AudioInterface_DeInit\000"
 9834      635F4175 
 9834      64696F49 
 9834      6E746572 
 9834      66616365 
 9835              	.LASF180:
 9836 04e8 4750494F 		.ascii	"GPIOPuPd_TypeDef\000"
 9836      50755064 
 9836      5F547970 
 9836      65446566 
 9836      00
 9837              	.LASF205:
 9838 04f9 4E564943 		.ascii	"NVIC_IRQChannelPreemptionPriority\000"
 9838      5F495251 
 9838      4368616E 
 9838      6E656C50 
 9838      7265656D 
 9839              	.LASF314:
 9840 051b 444D415F 		.ascii	"DMA_Init\000"
 9840      496E6974 
 9840      00
 9841              	.LASF28:
 9842 0524 43414E31 		.ascii	"CAN1_RX0_IRQn\000"
 9842      5F525830 
 9842      5F495251 
 9842      6E00
 9843              	.LASF144:
 9844 0532 4441435F 		.ascii	"DAC_WaveGeneration\000"
 9844      57617665 
ARM GAS  C:\Users\CNous\AppData\Local\Temp\ccPT5vWC.s 			page 216


 9844      47656E65 
 9844      72617469 
 9844      6F6E00
 9845              	.LASF290:
 9846 0545 444D415F 		.ascii	"DMA_GetFlagStatus\000"
 9846      47657446 
 9846      6C616753 
 9846      74617475 
 9846      7300
 9847              	.LASF173:
 9848 0557 4750494F 		.ascii	"GPIO_Speed_25MHz\000"
 9848      5F537065 
 9848      65645F32 
 9848      354D487A 
 9848      00
 9849              	.LASF247:
 9850 0568 4556414C 		.ascii	"EVAL_AUDIO_Stop\000"
 9850      5F415544 
 9850      494F5F53 
 9850      746F7000 
 9851              	.LASF243:
 9852 0578 496E7465 		.ascii	"Interface\000"
 9852      72666163 
 9852      6500
 9853              	.LASF174:
 9854 0582 4750494F 		.ascii	"GPIO_Speed_50MHz\000"
 9854      5F537065 
 9854      65645F35 
 9854      304D487A 
 9854      00
 9855              	.LASF148:
 9856 0593 444D415F 		.ascii	"DMA_Channel\000"
 9856      4368616E 
 9856      6E656C00 
 9857              	.LASF219:
 9858 059f 436F6465 		.ascii	"Codec_VolumeCtrl\000"
 9858      635F566F 
 9858      6C756D65 
 9858      4374726C 
 9858      00
 9859              	.LASF38:
 9860 05b0 54494D34 		.ascii	"TIM4_IRQn\000"
 9860      5F495251 
 9860      6E00
 9861              	.LASF46:
 9862 05ba 55534152 		.ascii	"USART2_IRQn\000"
 9862      54325F49 
 9862      52516E00 
 9863              	.LASF196:
 9864 05c6 4932435F 		.ascii	"I2C_InitTypeDef\000"
 9864      496E6974 
 9864      54797065 
 9864      44656600 
 9865              	.LASF263:
 9866 05d6 436F6465 		.ascii	"Codec_AudioInterface_Init\000"
 9866      635F4175 
 9866      64696F49 
ARM GAS  C:\Users\CNous\AppData\Local\Temp\ccPT5vWC.s 			page 217


 9866      6E746572 
 9866      66616365 
 9867              	.LASF221:
 9868 05f0 6E436F75 		.ascii	"nCount\000"
 9868      6E7400
 9869              	.LASF157:
 9870 05f7 444D415F 		.ascii	"DMA_Mode\000"
 9870      4D6F6465 
 9870      00
 9871              	.LASF147:
 9872 0600 4441435F 		.ascii	"DAC_InitTypeDef\000"
 9872      496E6974 
 9872      54797065 
 9872      44656600 
 9873              	.LASF260:
 9874 0610 436F6465 		.ascii	"Codec_GPIO_Init\000"
 9874      635F4750 
 9874      494F5F49 
 9874      6E697400 
 9875              	.LASF324:
 9876 0620 7372632F 		.ascii	"src/stm32f4_discovery_audio_codec.c\000"
 9876      73746D33 
 9876      3266345F 
 9876      64697363 
 9876      6F766572 
 9877              	.LASF39:
 9878 0644 49324331 		.ascii	"I2C1_EV_IRQn\000"
 9878      5F45565F 
 9878      4952516E 
 9878      00
 9879              	.LASF306:
 9880 0651 5350495F 		.ascii	"SPI_I2S_DeInit\000"
 9880      4932535F 
 9880      4465496E 
 9880      697400
 9881              	.LASF143:
 9882 0660 4441435F 		.ascii	"DAC_Trigger\000"
 9882      54726967 
 9882      67657200 
 9883              	.LASF303:
 9884 066c 4750494F 		.ascii	"GPIO_Init\000"
 9884      5F496E69 
 9884      7400
 9885              	.LASF318:
 9886 0676 4932435F 		.ascii	"I2C_DeInit\000"
 9886      4465496E 
 9886      697400
 9887              	.LASF149:
 9888 0681 444D415F 		.ascii	"DMA_PeripheralBaseAddr\000"
 9888      50657269 
 9888      70686572 
 9888      616C4261 
 9888      73654164 
 9889              	.LASF231:
 9890 0698 436F6465 		.ascii	"Codec_Reset\000"
 9890      635F5265 
 9890      73657400 
ARM GAS  C:\Users\CNous\AppData\Local\Temp\ccPT5vWC.s 			page 218


 9891              	.LASF257:
 9892 06a4 70427566 		.ascii	"pBuffer\000"
 9892      66657200 
 9893              	.LASF286:
 9894 06ac 4556414C 		.ascii	"EVAL_AUDIO_HalfTransfer_CallBack\000"
 9894      5F415544 
 9894      494F5F48 
 9894      616C6654 
 9894      72616E73 
 9895              	.LASF270:
 9896 06cd 41756469 		.ascii	"AudioTotalSize\000"
 9896      6F546F74 
 9896      616C5369 
 9896      7A6500
 9897              	.LASF165:
 9898 06dc 4750494F 		.ascii	"GPIO_Mode_OUT\000"
 9898      5F4D6F64 
 9898      655F4F55 
 9898      5400
 9899              	.LASF224:
 9900 06ea 41646472 		.ascii	"Addr\000"
 9900      00
 9901              	.LASF35:
 9902 06ef 54494D31 		.ascii	"TIM1_CC_IRQn\000"
 9902      5F43435F 
 9902      4952516E 
 9902      00
 9903              	.LASF88:
 9904 06fc 48415348 		.ascii	"HASH_RNG_IRQn\000"
 9904      5F524E47 
 9904      5F495251 
 9904      6E00
 9905              	.LASF181:
 9906 070a 4269745F 		.ascii	"Bit_RESET\000"
 9906      52455345 
 9906      5400
 9907              	.LASF15:
 9908 0714 45585449 		.ascii	"EXTI1_IRQn\000"
 9908      315F4952 
 9908      516E00
 9909              	.LASF27:
 9910 071f 43414E31 		.ascii	"CAN1_TX_IRQn\000"
 9910      5F54585F 
 9910      4952516E 
 9910      00
 9911              	.LASF24:
 9912 072c 444D4131 		.ascii	"DMA1_Stream5_IRQn\000"
 9912      5F537472 
 9912      65616D35 
 9912      5F495251 
 9912      6E00
 9913              	.LASF310:
 9914 073e 436F6465 		.ascii	"Codec_TIMEOUT_UserCallback\000"
 9914      635F5449 
 9914      4D454F55 
 9914      545F5573 
 9914      65724361 
ARM GAS  C:\Users\CNous\AppData\Local\Temp\ccPT5vWC.s 			page 219


 9915              	.LASF53:
 9916 0759 54494D38 		.ascii	"TIM8_TRG_COM_TIM14_IRQn\000"
 9916      5F545247 
 9916      5F434F4D 
 9916      5F54494D 
 9916      31345F49 
 9917              	.LASF78:
 9918 0771 444D4132 		.ascii	"DMA2_Stream7_IRQn\000"
 9918      5F537472 
 9918      65616D37 
 9918      5F495251 
 9918      6E00
 9919              	.LASF319:
 9920 0783 4932435F 		.ascii	"I2C_Cmd\000"
 9920      436D6400 
 9921              	.LASF75:
 9922 078b 4F54475F 		.ascii	"OTG_FS_IRQn\000"
 9922      46535F49 
 9922      52516E00 
 9923              	.LASF0:
 9924 0797 4E6F6E4D 		.ascii	"NonMaskableInt_IRQn\000"
 9924      61736B61 
 9924      626C6549 
 9924      6E745F49 
 9924      52516E00 
 9925              	.LASF8:
 9926 07ab 57574447 		.ascii	"WWDG_IRQn\000"
 9926      5F495251 
 9926      6E00
 9927              	.LASF300:
 9928 07b5 4E564943 		.ascii	"NVIC_Init\000"
 9928      5F496E69 
 9928      7400
 9929              	.LASF84:
 9930 07bf 4F54475F 		.ascii	"OTG_HS_WKUP_IRQn\000"
 9930      48535F57 
 9930      4B55505F 
 9930      4952516E 
 9930      00
 9931              	.LASF195:
 9932 07d0 4932435F 		.ascii	"I2C_AcknowledgedAddress\000"
 9932      41636B6E 
 9932      6F776C65 
 9932      64676564 
 9932      41646472 
 9933              	.LASF1:
 9934 07e8 4D656D6F 		.ascii	"MemoryManagement_IRQn\000"
 9934      72794D61 
 9934      6E616765 
 9934      6D656E74 
 9934      5F495251 
 9935              	.LASF236:
 9936 07fe 436F6465 		.ascii	"Codec_GPIO_DeInit\000"
 9936      635F4750 
 9936      494F5F44 
 9936      65496E69 
 9936      7400
ARM GAS  C:\Users\CNous\AppData\Local\Temp\ccPT5vWC.s 			page 220


 9937              	.LASF10:
 9938 0810 54414D50 		.ascii	"TAMP_STAMP_IRQn\000"
 9938      5F535441 
 9938      4D505F49 
 9938      52516E00 
 9939              	.LASF30:
 9940 0820 43414E31 		.ascii	"CAN1_SCE_IRQn\000"
 9940      5F534345 
 9940      5F495251 
 9940      6E00
 9941              	.LASF164:
 9942 082e 4750494F 		.ascii	"GPIO_Mode_IN\000"
 9942      5F4D6F64 
 9942      655F494E 
 9942      00
 9943              	.LASF64:
 9944 083b 444D4132 		.ascii	"DMA2_Stream0_IRQn\000"
 9944      5F537472 
 9944      65616D30 
 9944      5F495251 
 9944      6E00
 9945              	.LASF264:
 9946 084d 4932535F 		.ascii	"I2S_InitStructure\000"
 9946      496E6974 
 9946      53747275 
 9946      63747572 
 9946      6500
 9947              	.LASF134:
 9948 085f 54524953 		.ascii	"TRISE\000"
 9948      4500
 9949              	.LASF223:
 9950 0865 41756469 		.ascii	"Audio_MAL_PauseResume\000"
 9950      6F5F4D41 
 9950      4C5F5061 
 9950      75736552 
 9950      6573756D 
 9951              	.LASF122:
 9952 087b 4C434B52 		.ascii	"LCKR\000"
 9952      00
 9953              	.LASF109:
 9954 0880 4552524F 		.ascii	"ERROR\000"
 9954      5200
 9955              	.LASF154:
 9956 0886 444D415F 		.ascii	"DMA_MemoryInc\000"
 9956      4D656D6F 
 9956      7279496E 
 9956      6300
 9957              	.LASF161:
 9958 0894 444D415F 		.ascii	"DMA_MemoryBurst\000"
 9958      4D656D6F 
 9958      72794275 
 9958      72737400 
 9959              	.LASF320:
 9960 08a4 4932435F 		.ascii	"I2C_Init\000"
 9960      496E6974 
 9960      00
 9961              	.LASF42:
ARM GAS  C:\Users\CNous\AppData\Local\Temp\ccPT5vWC.s 			page 221


 9962 08ad 49324332 		.ascii	"I2C2_ER_IRQn\000"
 9962      5F45525F 
 9962      4952516E 
 9962      00
 9963              	.LASF255:
 9964 08ba 41756469 		.ascii	"Audio_MAL_Play\000"
 9964      6F5F4D41 
 9964      4C5F506C 
 9964      617900
 9965              	.LASF193:
 9966 08c9 4932435F 		.ascii	"I2C_OwnAddress1\000"
 9966      4F776E41 
 9966      64647265 
 9966      73733100 
 9967              	.LASF213:
 9968 08d9 52656769 		.ascii	"RegisterAddr\000"
 9968      73746572 
 9968      41646472 
 9968      00
 9969              	.LASF118:
 9970 08e6 4F535045 		.ascii	"OSPEEDR\000"
 9970      45445200 
 9971              	.LASF2:
 9972 08ee 42757346 		.ascii	"BusFault_IRQn\000"
 9972      61756C74 
 9972      5F495251 
 9972      6E00
 9973              	.LASF61:
 9974 08fc 55415254 		.ascii	"UART5_IRQn\000"
 9974      355F4952 
 9974      516E00
 9975              	.LASF32:
 9976 0907 54494D31 		.ascii	"TIM1_BRK_TIM9_IRQn\000"
 9976      5F42524B 
 9976      5F54494D 
 9976      395F4952 
 9976      516E00
 9977              	.LASF308:
 9978 091a 5350495F 		.ascii	"SPI_I2S_DMACmd\000"
 9978      4932535F 
 9978      444D4143 
 9978      6D6400
 9979              	.LASF258:
 9980 0929 4441435F 		.ascii	"DAC_Config\000"
 9980      436F6E66 
 9980      696700
 9981              	.LASF63:
 9982 0934 54494D37 		.ascii	"TIM7_IRQn\000"
 9982      5F495251 
 9982      6E00
 9983              	.LASF100:
 9984 093e 6C6F6E67 		.ascii	"long long int\000"
 9984      206C6F6E 
 9984      6720696E 
 9984      7400
 9985              	.LASF248:
 9986 094c 4F707469 		.ascii	"Option\000"
ARM GAS  C:\Users\CNous\AppData\Local\Temp\ccPT5vWC.s 			page 222


 9986      6F6E00
 9987              	.LASF70:
 9988 0953 4554485F 		.ascii	"ETH_WKUP_IRQn\000"
 9988      574B5550 
 9988      5F495251 
 9988      6E00
 9989              	.LASF218:
 9990 0961 636F756E 		.ascii	"counter\000"
 9990      74657200 
 9991              	.LASF85:
 9992 0969 4F54475F 		.ascii	"OTG_HS_IRQn\000"
 9992      48535F49 
 9992      52516E00 
 9993              	.LASF254:
 9994 0975 53504933 		.ascii	"SPI3_IRQHandler\000"
 9994      5F495251 
 9994      48616E64 
 9994      6C657200 
 9995              	.LASF291:
 9996 0985 4932435F 		.ascii	"I2C_GetFlagStatus\000"
 9996      47657446 
 9996      6C616753 
 9996      74617475 
 9996      7300
 9997              	.LASF119:
 9998 0997 50555044 		.ascii	"PUPDR\000"
 9998      5200
 9999              	.LASF321:
 10000 099d 4932535F 		.ascii	"I2S_Init\000"
 10000      496E6974 
 10000      00
 10001              	.LASF253:
 10002 09a6 444D4131 		.ascii	"DMA1_Stream0_IRQHandler\000"
 10002      5F537472 
 10002      65616D30 
 10002      5F495251 
 10002      48616E64 
 10003              	.LASF43:
 10004 09be 53504931 		.ascii	"SPI1_IRQn\000"
 10004      5F495251 
 10004      6E00
 10005              	.LASF198:
 10006 09c8 4932535F 		.ascii	"I2S_Standard\000"
 10006      5374616E 
 10006      64617264 
 10006      00
 10007              	.LASF210:
 10008 09d5 646F7562 		.ascii	"double\000"
 10008      6C6500
 10009              	.LASF4:
 10010 09dc 53564361 		.ascii	"SVCall_IRQn\000"
 10010      6C6C5F49 
 10010      52516E00 
 10011              	.LASF283:
 10012 09e8 41554449 		.ascii	"AUDIO_MAL_DMA_FLAG_FE\000"
 10012      4F5F4D41 
 10012      4C5F444D 
ARM GAS  C:\Users\CNous\AppData\Local\Temp\ccPT5vWC.s 			page 223


 10012      415F464C 
 10012      41475F46 
 10013              	.LASF121:
 10014 09fe 42535252 		.ascii	"BSRRH\000"
 10014      4800
 10015              	.LASF120:
 10016 0a04 42535252 		.ascii	"BSRRL\000"
 10016      4C00
 10017              	.LASF89:
 10018 0a0a 4650555F 		.ascii	"FPU_IRQn\000"
 10018      4952516E 
 10018      00
 10019              	.LASF138:
 10020 0a13 52584352 		.ascii	"RXCRCR\000"
 10020      435200
 10021              	.LASF228:
 10022 0a1a 70416464 		.ascii	"pAddr\000"
 10022      7200
 10023              	.LASF60:
 10024 0a20 55415254 		.ascii	"UART4_IRQn\000"
 10024      345F4952 
 10024      516E00
 10025              	.LASF269:
 10026 0a2b 41554449 		.ascii	"AUDIO_MAL_DMA_InitStructure\000"
 10026      4F5F4D41 
 10026      4C5F444D 
 10026      415F496E 
 10026      69745374 
 10027              	.LASF235:
 10028 0a47 436F6465 		.ascii	"Codec_DeInit\000"
 10028      635F4465 
 10028      496E6974 
 10028      00
 10029              	.LASF211:
 10030 0a54 666C6F61 		.ascii	"float\000"
 10030      7400
 10031              	.LASF50:
 10032 0a5a 4F54475F 		.ascii	"OTG_FS_WKUP_IRQn\000"
 10032      46535F57 
 10032      4B55505F 
 10032      4952516E 
 10032      00
 10033              	.LASF202:
 10034 0a6b 4932535F 		.ascii	"I2S_CPOL\000"
 10034      43504F4C 
 10034      00
 10035              	.LASF197:
 10036 0a74 4932535F 		.ascii	"I2S_Mode\000"
 10036      4D6F6465 
 10036      00
 10037              	.LASF18:
 10038 0a7d 45585449 		.ascii	"EXTI4_IRQn\000"
 10038      345F4952 
 10038      516E00
 10039              	.LASF62:
 10040 0a88 54494D36 		.ascii	"TIM6_DAC_IRQn\000"
 10040      5F444143 
ARM GAS  C:\Users\CNous\AppData\Local\Temp\ccPT5vWC.s 			page 224


 10040      5F495251 
 10040      6E00
 10041              	.LASF230:
 10042 0a96 41756469 		.ascii	"Audio_MAL_IRQHandler\000"
 10042      6F5F4D41 
 10042      4C5F4952 
 10042      5148616E 
 10042      646C6572 
 10043              	.LASF244:
 10044 0aab 436F6465 		.ascii	"Codec_Stop\000"
 10044      635F5374 
 10044      6F7000
 10045              	.LASF304:
 10046 0ab6 4750494F 		.ascii	"GPIO_PinAFConfig\000"
 10046      5F50696E 
 10046      4146436F 
 10046      6E666967 
 10046      00
 10047              	.LASF186:
 10048 0ac7 4750494F 		.ascii	"GPIO_Speed\000"
 10048      5F537065 
 10048      656400
 10049              	.LASF242:
 10050 0ad2 4556414C 		.ascii	"EVAL_AUDIO_PauseResume\000"
 10050      5F415544 
 10050      494F5F50 
 10050      61757365 
 10050      52657375 
 10051              	.LASF41:
 10052 0ae9 49324332 		.ascii	"I2C2_EV_IRQn\000"
 10052      5F45565F 
 10052      4952516E 
 10052      00
 10053              	.LASF102:
 10054 0af6 756E7369 		.ascii	"unsigned int\000"
 10054      676E6564 
 10054      20696E74 
 10054      00
 10055              	.LASF200:
 10056 0b03 4932535F 		.ascii	"I2S_MCLKOutput\000"
 10056      4D434C4B 
 10056      4F757470 
 10056      757400
 10057              	.LASF265:
 10058 0b12 41756469 		.ascii	"Audio_MAL_Init\000"
 10058      6F5F4D41 
 10058      4C5F496E 
 10058      697400
 10059              	.LASF282:
 10060 0b21 41554449 		.ascii	"AUDIO_MAL_DMA_FLAG_HT\000"
 10060      4F5F4D41 
 10060      4C5F444D 
 10060      415F464C 
 10060      41475F48 
 10061              	.LASF297:
 10062 0b37 4932435F 		.ascii	"I2C_GenerateSTOP\000"
 10062      47656E65 
ARM GAS  C:\Users\CNous\AppData\Local\Temp\ccPT5vWC.s 			page 225


 10062      72617465 
 10062      53544F50 
 10062      00
 10063              	.LASF160:
 10064 0b48 444D415F 		.ascii	"DMA_FIFOThreshold\000"
 10064      4649464F 
 10064      54687265 
 10064      73686F6C 
 10064      6400
 10065              	.LASF20:
 10066 0b5a 444D4131 		.ascii	"DMA1_Stream1_IRQn\000"
 10066      5F537472 
 10066      65616D31 
 10066      5F495251 
 10066      6E00
 10067              	.LASF67:
 10068 0b6c 444D4132 		.ascii	"DMA2_Stream3_IRQn\000"
 10068      5F537472 
 10068      65616D33 
 10068      5F495251 
 10068      6E00
 10069              	.LASF245:
 10070 0b7e 436F6465 		.ascii	"CodecPdwnMode\000"
 10070      63506477 
 10070      6E4D6F64 
 10070      6500
 10071              	.LASF71:
 10072 0b8c 43414E32 		.ascii	"CAN2_TX_IRQn\000"
 10072      5F54585F 
 10072      4952516E 
 10072      00
 10073              	.LASF115:
 10074 0b99 444D415F 		.ascii	"DMA_Stream_TypeDef\000"
 10074      53747265 
 10074      616D5F54 
 10074      79706544 
 10074      656600
 10075              	.LASF272:
 10076 0bac 43757272 		.ascii	"CurrentPos\000"
 10076      656E7450 
 10076      6F7300
 10077              	.LASF250:
 10078 0bb7 4556414C 		.ascii	"EVAL_AUDIO_Mute\000"
 10078      5F415544 
 10078      494F5F4D 
 10078      75746500 
 10079              	.LASF204:
 10080 0bc7 4E564943 		.ascii	"NVIC_IRQChannel\000"
 10080      5F495251 
 10080      4368616E 
 10080      6E656C00 
 10081              	.LASF206:
 10082 0bd7 4E564943 		.ascii	"NVIC_IRQChannelSubPriority\000"
 10082      5F495251 
 10082      4368616E 
 10082      6E656C53 
 10082      75625072 
ARM GAS  C:\Users\CNous\AppData\Local\Temp\ccPT5vWC.s 			page 226


 10083              	.LASF106:
 10084 0bf2 44495341 		.ascii	"DISABLE\000"
 10084      424C4500 
 10085              	.LASF212:
 10086 0bfa 6C6F6E67 		.ascii	"long double\000"
 10086      20646F75 
 10086      626C6500 
 10087              	.LASF279:
 10088 0c06 41554449 		.ascii	"AUDIO_MAL_DMA_CHANNEL\000"
 10088      4F5F4D41 
 10088      4C5F444D 
 10088      415F4348 
 10088      414E4E45 
 10089              	.LASF111:
 10090 0c1c 4572726F 		.ascii	"ErrorStatus\000"
 10090      72537461 
 10090      74757300 
 10091              	.LASF261:
 10092 0c28 436F6465 		.ascii	"Codec_CtrlInterface_Init\000"
 10092      635F4374 
 10092      726C496E 
 10092      74657266 
 10092      6163655F 
 10093              	.LASF19:
 10094 0c41 444D4131 		.ascii	"DMA1_Stream0_IRQn\000"
 10094      5F537472 
 10094      65616D30 
 10094      5F495251 
 10094      6E00
 10095              	.LASF145:
 10096 0c53 4441435F 		.ascii	"DAC_LFSRUnmask_TriangleAmplitude\000"
 10096      4C465352 
 10096      556E6D61 
 10096      736B5F54 
 10096      7269616E 
 10097              	.LASF194:
 10098 0c74 4932435F 		.ascii	"I2C_Ack\000"
 10098      41636B00 
 10099              	.LASF301:
 10100 0c7c 444D415F 		.ascii	"DMA_Cmd\000"
 10100      436D6400 
 10101              	.LASF49:
 10102 0c84 5254435F 		.ascii	"RTC_Alarm_IRQn\000"
 10102      416C6172 
 10102      6D5F4952 
 10102      516E00
 10103              	.LASF317:
 10104 0c93 4441435F 		.ascii	"DAC_Cmd\000"
 10104      436D6400 
 10105              	.LASF309:
 10106 0c9b 5350495F 		.ascii	"SPI_I2S_GetFlagStatus\000"
 10106      4932535F 
 10106      47657446 
 10106      6C616753 
 10106      74617475 
 10107              	.LASF151:
 10108 0cb1 444D415F 		.ascii	"DMA_DIR\000"
ARM GAS  C:\Users\CNous\AppData\Local\Temp\ccPT5vWC.s 			page 227


 10108      44495200 
 10109              	.LASF108:
 10110 0cb9 46756E63 		.ascii	"FunctionalState\000"
 10110      74696F6E 
 10110      616C5374 
 10110      61746500 
 10111              	.LASF81:
 10112 0cc9 49324333 		.ascii	"I2C3_ER_IRQn\000"
 10112      5F45525F 
 10112      4952516E 
 10112      00
 10113              	.LASF325:
 10114 0cd6 433A5C78 		.ascii	"C:\\xav_dev\\eclipse\\ambiantiseur-make\000"
 10114      61765F64 
 10114      65765C65 
 10114      636C6970 
 10114      73655C61 
 10115              	.LASF87:
 10116 0cfb 43525950 		.ascii	"CRYP_IRQn\000"
 10116      5F495251 
 10116      6E00
 10117              	.LASF48:
 10118 0d05 45585449 		.ascii	"EXTI15_10_IRQn\000"
 10118      31355F31 
 10118      305F4952 
 10118      516E00
 10119              	.LASF101:
 10120 0d14 6C6F6E67 		.ascii	"long long unsigned int\000"
 10120      206C6F6E 
 10120      6720756E 
 10120      7369676E 
 10120      65642069 
 10121              	.LASF94:
 10122 0d2b 75696E74 		.ascii	"uint16_t\000"
 10122      31365F74 
 10122      00
 10123              	.LASF232:
 10124 0d34 436F6465 		.ascii	"Codec_ReadRegister\000"
 10124      635F5265 
 10124      61645265 
 10124      67697374 
 10124      657200
 10125              	.LASF99:
 10126 0d47 6C6F6E67 		.ascii	"long unsigned int\000"
 10126      20756E73 
 10126      69676E65 
 10126      6420696E 
 10126      7400
 10127              	.LASF37:
 10128 0d59 54494D33 		.ascii	"TIM3_IRQn\000"
 10128      5F495251 
 10128      6E00
 10129              	.LASF45:
 10130 0d63 55534152 		.ascii	"USART1_IRQn\000"
 10130      54315F49 
 10130      52516E00 
 10131              	.LASF256:
ARM GAS  C:\Users\CNous\AppData\Local\Temp\ccPT5vWC.s 			page 228


 10132 0d6f 4556414C 		.ascii	"EVAL_AUDIO_Play\000"
 10132      5F415544 
 10132      494F5F50 
 10132      6C617900 
 10133              	.LASF295:
 10134 0d7f 4932435F 		.ascii	"I2C_SendData\000"
 10134      53656E64 
 10134      44617461 
 10134      00
 10135              	.LASF237:
 10136 0d8c 4750494F 		.ascii	"GPIO_InitStructure\000"
 10136      5F496E69 
 10136      74537472 
 10136      75637475 
 10136      726500
 10137              	.LASF182:
 10138 0d9f 4269745F 		.ascii	"Bit_SET\000"
 10138      53455400 
 10139              	.LASF110:
 10140 0da7 53554343 		.ascii	"SUCCESS\000"
 10140      45535300 
 10141              	.LASF185:
 10142 0daf 4750494F 		.ascii	"GPIO_Mode\000"
 10142      5F4D6F64 
 10142      6500
 10143              	.LASF312:
 10144 0db9 5350495F 		.ascii	"SPI_I2S_SendData\000"
 10144      4932535F 
 10144      53656E64 
 10144      44617461 
 10144      00
 10145              	.LASF73:
 10146 0dca 43414E32 		.ascii	"CAN2_RX1_IRQn\000"
 10146      5F525831 
 10146      5F495251 
 10146      6E00
 10147              	.LASF26:
 10148 0dd8 4144435F 		.ascii	"ADC_IRQn\000"
 10148      4952516E 
 10148      00
 10149              	.LASF136:
 10150 0de1 4932435F 		.ascii	"I2C_TypeDef\000"
 10150      54797065 
 10150      44656600 
 10151              	.LASF294:
 10152 0ded 4932435F 		.ascii	"I2C_Send7bitAddress\000"
 10152      53656E64 
 10152      37626974 
 10152      41646472 
 10152      65737300 
 10153              	.LASF251:
 10154 0e01 4556414C 		.ascii	"EVAL_AUDIO_SetAudioInterface\000"
 10154      5F415544 
 10154      494F5F53 
 10154      65744175 
 10154      64696F49 
 10155              	.LASF168:
ARM GAS  C:\Users\CNous\AppData\Local\Temp\ccPT5vWC.s 			page 229


 10156 0e1e 4750494F 		.ascii	"GPIOMode_TypeDef\000"
 10156      4D6F6465 
 10156      5F547970 
 10156      65446566 
 10156      00
 10157              	.LASF104:
 10158 0e2f 52455345 		.ascii	"RESET\000"
 10158      5400
 10159              	.LASF140:
 10160 0e35 49325343 		.ascii	"I2SCFGR\000"
 10160      46475200 
 10161              	.LASF9:
 10162 0e3d 5056445F 		.ascii	"PVD_IRQn\000"
 10162      4952516E 
 10162      00
 10163              	.LASF117:
 10164 0e46 4F545950 		.ascii	"OTYPER\000"
 10164      455200
 10165              	.LASF156:
 10166 0e4d 444D415F 		.ascii	"DMA_MemoryDataSize\000"
 10166      4D656D6F 
 10166      72794461 
 10166      74615369 
 10166      7A6500
 10167              	.LASF56:
 10168 0e60 46534D43 		.ascii	"FSMC_IRQn\000"
 10168      5F495251 
 10168      6E00
 10169              	.LASF14:
 10170 0e6a 45585449 		.ascii	"EXTI0_IRQn\000"
 10170      305F4952 
 10170      516E00
 10171              	.LASF142:
 10172 0e75 5350495F 		.ascii	"SPI_TypeDef\000"
 10172      54797065 
 10172      44656600 
 10173              	.LASF105:
 10174 0e81 466C6167 		.ascii	"FlagStatus\000"
 10174      53746174 
 10174      757300
 10175              	.LASF137:
 10176 0e8c 43524350 		.ascii	"CRCPR\000"
 10176      5200
 10177              	.LASF23:
 10178 0e92 444D4131 		.ascii	"DMA1_Stream4_IRQn\000"
 10178      5F537472 
 10178      65616D34 
 10178      5F495251 
 10178      6E00
 10179              	.LASF126:
 10180 0ea4 4F415231 		.ascii	"OAR1\000"
 10180      00
 10181              	.LASF128:
 10182 0ea9 4F415232 		.ascii	"OAR2\000"
 10182      00
 10183              	.LASF227:
 10184 0eae 41756469 		.ascii	"AudioFreq\000"
ARM GAS  C:\Users\CNous\AppData\Local\Temp\ccPT5vWC.s 			page 230


 10184      6F467265 
 10184      7100
 10185              	.LASF77:
 10186 0eb8 444D4132 		.ascii	"DMA2_Stream6_IRQn\000"
 10186      5F537472 
 10186      65616D36 
 10186      5F495251 
 10186      6E00
 10187              	.LASF201:
 10188 0eca 4932535F 		.ascii	"I2S_AudioFreq\000"
 10188      41756469 
 10188      6F467265 
 10188      7100
 10189              	.LASF172:
 10190 0ed8 4750494F 		.ascii	"GPIO_Speed_2MHz\000"
 10190      5F537065 
 10190      65645F32 
 10190      4D487A00 
 10191              	.LASF176:
 10192 0ee8 4750494F 		.ascii	"GPIOSpeed_TypeDef\000"
 10192      53706565 
 10192      645F5479 
 10192      70654465 
 10192      6600
 10193              	.LASF5:
 10194 0efa 44656275 		.ascii	"DebugMonitor_IRQn\000"
 10194      674D6F6E 
 10194      69746F72 
 10194      5F495251 
 10194      6E00
 10195              	.LASF184:
 10196 0f0c 4750494F 		.ascii	"GPIO_Pin\000"
 10196      5F50696E 
 10196      00
 10197              	.LASF80:
 10198 0f15 49324333 		.ascii	"I2C3_EV_IRQn\000"
 10198      5F45565F 
 10198      4952516E 
 10198      00
 10199              	.LASF188:
 10200 0f22 4750494F 		.ascii	"GPIO_PuPd\000"
 10200      5F507550 
 10200      6400
 10201              	.LASF280:
 10202 0f2c 41554449 		.ascii	"AUDIO_MAL_DMA_IRQ\000"
 10202      4F5F4D41 
 10202      4C5F444D 
 10202      415F4952 
 10202      5100
 10203              	.LASF163:
 10204 0f3e 444D415F 		.ascii	"DMA_InitTypeDef\000"
 10204      496E6974 
 10204      54797065 
 10204      44656600 
 10205              	.LASF113:
 10206 0f4e 4D304152 		.ascii	"M0AR\000"
 10206      00
ARM GAS  C:\Users\CNous\AppData\Local\Temp\ccPT5vWC.s 			page 231


 10207              	.LASF69:
 10208 0f53 4554485F 		.ascii	"ETH_IRQn\000"
 10208      4952516E 
 10208      00
 10209              	.LASF92:
 10210 0f5c 73686F72 		.ascii	"short int\000"
 10210      7420696E 
 10210      7400
 10211              	.LASF226:
 10212 0f66 4F757470 		.ascii	"OutputDevice\000"
 10212      75744465 
 10212      76696365 
 10212      00
 10213              	.LASF13:
 10214 0f73 5243435F 		.ascii	"RCC_IRQn\000"
 10214      4952516E 
 10214      00
 10215              	.LASF293:
 10216 0f7c 4932435F 		.ascii	"I2C_CheckEvent\000"
 10216      43686563 
 10216      6B457665 
 10216      6E7400
 10217              	.LASF22:
 10218 0f8b 444D4131 		.ascii	"DMA1_Stream3_IRQn\000"
 10218      5F537472 
 10218      65616D33 
 10218      5F495251 
 10218      6E00
 10219              	.LASF107:
 10220 0f9d 454E4142 		.ascii	"ENABLE\000"
 10220      4C4500
 10221              	.LASF292:
 10222 0fa4 4932435F 		.ascii	"I2C_GenerateSTART\000"
 10222      47656E65 
 10222      72617465 
 10222      53544152 
 10222      5400
 10223              	.LASF266:
 10224 0fb6 4556414C 		.ascii	"EVAL_AUDIO_Init\000"
 10224      5F415544 
 10224      494F5F49 
 10224      6E697400 
 10225              	.LASF278:
 10226 0fc6 41554449 		.ascii	"AUDIO_MAL_DMA_DREG\000"
 10226      4F5F4D41 
 10226      4C5F444D 
 10226      415F4452 
 10226      454700
 10227              	.LASF238:
 10228 0fd9 436F6465 		.ascii	"Codec_CtrlInterface_DeInit\000"
 10228      635F4374 
 10228      726C496E 
 10228      74657266 
 10228      6163655F 
 10229              	.LASF123:
 10230 0ff4 4750494F 		.ascii	"GPIO_TypeDef\000"
 10230      5F547970 
ARM GAS  C:\Users\CNous\AppData\Local\Temp\ccPT5vWC.s 			page 232


 10230      65446566 
 10230      00
 10231              	.LASF33:
 10232 1001 54494D31 		.ascii	"TIM1_UP_TIM10_IRQn\000"
 10232      5F55505F 
 10232      54494D31 
 10232      305F4952 
 10232      516E00
 10233              	.LASF267:
 10234 1014 49544D5F 		.ascii	"ITM_RxBuffer\000"
 10234      52784275 
 10234      66666572 
 10234      00
 10235              	.LASF288:
 10236 1021 4556414C 		.ascii	"EVAL_AUDIO_TransferComplete_CallBack\000"
 10236      5F415544 
 10236      494F5F54 
 10236      72616E73 
 10236      66657243 
 10237              	.LASF271:
 10238 1046 41756469 		.ascii	"AudioRemSize\000"
 10238      6F52656D 
 10238      53697A65 
 10238      00
 10239              	.LASF82:
 10240 1053 4F54475F 		.ascii	"OTG_HS_EP1_OUT_IRQn\000"
 10240      48535F45 
 10240      50315F4F 
 10240      55545F49 
 10240      52516E00 
 10241              	.LASF252:
 10242 1067 444D4131 		.ascii	"DMA1_Stream7_IRQHandler\000"
 10242      5F537472 
 10242      65616D37 
 10242      5F495251 
 10242      48616E64 
 10243              	.LASF311:
 10244 107f 4556414C 		.ascii	"EVAL_AUDIO_GetSampleCallBack\000"
 10244      5F415544 
 10244      494F5F47 
 10244      65745361 
 10244      6D706C65 
 10245              	.LASF190:
 10246 109c 4932435F 		.ascii	"I2C_ClockSpeed\000"
 10246      436C6F63 
 10246      6B537065 
 10246      656400
 10247              	.LASF216:
 10248 10ab 436F6465 		.ascii	"Codec_Mute\000"
 10248      635F4D75 
 10248      746500
 10249              	.LASF328:
 10250 10b6 444D415F 		.ascii	"DMA_ITConfig\000"
 10250      4954436F 
 10250      6E666967 
 10250      00
 10251              	.LASF98:
ARM GAS  C:\Users\CNous\AppData\Local\Temp\ccPT5vWC.s 			page 233


 10252 10c3 75696E74 		.ascii	"uint32_t\000"
 10252      33325F74 
 10252      00
 10253              	.LASF141:
 10254 10cc 49325350 		.ascii	"I2SPR\000"
 10254      5200
 10255              	.LASF116:
 10256 10d2 4D4F4445 		.ascii	"MODER\000"
 10256      5200
 10257              	.LASF29:
 10258 10d8 43414E31 		.ascii	"CAN1_RX1_IRQn\000"
 10258      5F525831 
 10258      5F495251 
 10258      6E00
 10259              	.LASF178:
 10260 10e6 4750494F 		.ascii	"GPIO_PuPd_UP\000"
 10260      5F507550 
 10260      645F5550 
 10260      00
 10261              	.LASF220:
 10262 10f3 566F6C75 		.ascii	"Volume\000"
 10262      6D6500
 10263              	.LASF305:
 10264 10fa 4932535F 		.ascii	"I2S_Cmd\000"
 10264      436D6400 
 10265              	.LASF31:
 10266 1102 45585449 		.ascii	"EXTI9_5_IRQn\000"
 10266      395F355F 
 10266      4952516E 
 10266      00
 10267              	.LASF316:
 10268 110f 4441435F 		.ascii	"DAC_Init\000"
 10268      496E6974 
 10268      00
 10269              	.LASF315:
 10270 1118 5243435F 		.ascii	"RCC_AHB1PeriphClockCmd\000"
 10270      41484231 
 10270      50657269 
 10270      7068436C 
 10270      6F636B43 
 10271              	.LASF208:
 10272 112f 4E564943 		.ascii	"NVIC_InitTypeDef\000"
 10272      5F496E69 
 10272      74547970 
 10272      65446566 
 10272      00
 10273              	.LASF95:
 10274 1140 73686F72 		.ascii	"short unsigned int\000"
 10274      7420756E 
 10274      7369676E 
 10274      65642069 
 10274      6E7400
 10275              	.LASF54:
 10276 1153 54494D38 		.ascii	"TIM8_CC_IRQn\000"
 10276      5F43435F 
 10276      4952516E 
 10276      00
ARM GAS  C:\Users\CNous\AppData\Local\Temp\ccPT5vWC.s 			page 234


 10277              	.LASF57:
 10278 1160 5344494F 		.ascii	"SDIO_IRQn\000"
 10278      5F495251 
 10278      6E00
 10279              	.LASF183:
 10280 116a 42697441 		.ascii	"BitAction\000"
 10280      6374696F 
 10280      6E00
 10281              	.LASF323:
 10282 1174 474E5520 		.ascii	"GNU C 4.7.3 20121207 (release) [ARM/embedded-4_7-br"
 10282      4320342E 
 10282      372E3320 
 10282      32303132 
 10282      31323037 
 10283 11a7 616E6368 		.ascii	"anch revision 194305]\000"
 10283      20726576 
 10283      6973696F 
 10283      6E203139 
 10283      34333035 
 10284              	.LASF17:
 10285 11bd 45585449 		.ascii	"EXTI3_IRQn\000"
 10285      335F4952 
 10285      516E00
 10286              	.LASF6:
 10287 11c8 50656E64 		.ascii	"PendSV_IRQn\000"
 10287      53565F49 
 10287      52516E00 
 10288              	.LASF268:
 10289 11d4 444D415F 		.ascii	"DMA_InitStructure\000"
 10289      496E6974 
 10289      53747275 
 10289      63747572 
 10289      6500
 10290              	.LASF83:
 10291 11e6 4F54475F 		.ascii	"OTG_HS_EP1_IN_IRQn\000"
 10291      48535F45 
 10291      50315F49 
 10291      4E5F4952 
 10291      516E00
 10292              	.LASF55:
 10293 11f9 444D4131 		.ascii	"DMA1_Stream7_IRQn\000"
 10293      5F537472 
 10293      65616D37 
 10293      5F495251 
 10293      6E00
 10294              	.LASF153:
 10295 120b 444D415F 		.ascii	"DMA_PeripheralInc\000"
 10295      50657269 
 10295      70686572 
 10295      616C496E 
 10295      6300
 10296              	.LASF203:
 10297 121d 4932535F 		.ascii	"I2S_InitTypeDef\000"
 10297      496E6974 
 10297      54797065 
 10297      44656600 
 10298              	.LASF112:
ARM GAS  C:\Users\CNous\AppData\Local\Temp\ccPT5vWC.s 			page 235


 10299 122d 4E445452 		.ascii	"NDTR\000"
 10299      00
 10300              	.LASF302:
 10301 1232 444D415F 		.ascii	"DMA_DeInit\000"
 10301      4465496E 
 10301      697400
 10302              	.LASF259:
 10303 123d 4441435F 		.ascii	"DAC_InitStructure\000"
 10303      496E6974 
 10303      53747275 
 10303      63747572 
 10303      6500
 10304              	.LASF199:
 10305 124f 4932535F 		.ascii	"I2S_DataFormat\000"
 10305      44617461 
 10305      466F726D 
 10305      617400
 10306              	.LASF281:
 10307 125e 41554449 		.ascii	"AUDIO_MAL_DMA_FLAG_TC\000"
 10307      4F5F4D41 
 10307      4C5F444D 
 10307      415F464C 
 10307      41475F54 
 10308              	.LASF284:
 10309 1274 41554449 		.ascii	"AUDIO_MAL_DMA_FLAG_TE\000"
 10309      4F5F4D41 
 10309      4C5F444D 
 10309      415F464C 
 10309      41475F54 
 10310              	.LASF327:
 10311 128a 436F6465 		.ascii	"Codec_Play\000"
 10311      635F506C 
 10311      617900
 10312              	.LASF152:
 10313 1295 444D415F 		.ascii	"DMA_BufferSize\000"
 10313      42756666 
 10313      65725369 
 10313      7A6500
 10314              	.LASF274:
 10315 12a4 4F757470 		.ascii	"OutputDev\000"
 10315      75744465 
 10315      7600
 10316              	.LASF66:
 10317 12ae 444D4132 		.ascii	"DMA2_Stream2_IRQn\000"
 10317      5F537472 
 10317      65616D32 
 10317      5F495251 
 10317      6E00
 10318              		.ident	"GCC: (GNU Tools for ARM Embedded Processors) 4.7.3 20121207 (release) [ARM/embedded-4_7-br
ARM GAS  C:\Users\CNous\AppData\Local\Temp\ccPT5vWC.s 			page 236


DEFINED SYMBOLS
                            *ABS*:00000000 stm32f4_discovery_audio_codec.c
C:\Users\CNous\AppData\Local\Temp\ccPT5vWC.s:72     .text.Audio_MAL_IRQHandler:00000000 $t
C:\Users\CNous\AppData\Local\Temp\ccPT5vWC.s:76     .text.Audio_MAL_IRQHandler:00000000 Audio_MAL_IRQHandler
C:\Users\CNous\AppData\Local\Temp\ccPT5vWC.s:151    .text.Audio_MAL_IRQHandler:00000050 $d
                            *COM*:00000004 CurrentPos
C:\Users\CNous\AppData\Local\Temp\ccPT5vWC.s:160    .text.Codec_Reset:00000000 $t
C:\Users\CNous\AppData\Local\Temp\ccPT5vWC.s:164    .text.Codec_Reset:00000000 Codec_Reset
C:\Users\CNous\AppData\Local\Temp\ccPT5vWC.s:207    .text.Codec_WriteRegister:00000000 $t
C:\Users\CNous\AppData\Local\Temp\ccPT5vWC.s:211    .text.Codec_WriteRegister:00000000 Codec_WriteRegister
C:\Users\CNous\AppData\Local\Temp\ccPT5vWC.s:619    .text.Codec_WriteRegister:000002bc $d
C:\Users\CNous\AppData\Local\Temp\ccPT5vWC.s:622    .text.Codec_WriteRegister:000002c0 $t
C:\Users\CNous\AppData\Local\Temp\ccPT5vWC.s:643    .text.Codec_Mute.part.1:00000000 $t
C:\Users\CNous\AppData\Local\Temp\ccPT5vWC.s:647    .text.Codec_Mute.part.1:00000000 Codec_Mute.part.1
C:\Users\CNous\AppData\Local\Temp\ccPT5vWC.s:665    .text.Codec_VolumeCtrl:00000000 $t
C:\Users\CNous\AppData\Local\Temp\ccPT5vWC.s:669    .text.Codec_VolumeCtrl:00000000 Codec_VolumeCtrl
C:\Users\CNous\AppData\Local\Temp\ccPT5vWC.s:720    .text.EVAL_AUDIO_SetAudioInterface:00000000 $t
C:\Users\CNous\AppData\Local\Temp\ccPT5vWC.s:725    .text.EVAL_AUDIO_SetAudioInterface:00000000 EVAL_AUDIO_SetAudioInterface
C:\Users\CNous\AppData\Local\Temp\ccPT5vWC.s:880    .text.EVAL_AUDIO_SetAudioInterface:000000cc $d
C:\Users\CNous\AppData\Local\Temp\ccPT5vWC.s:895    .text.EVAL_AUDIO_DeInit:00000000 $t
C:\Users\CNous\AppData\Local\Temp\ccPT5vWC.s:900    .text.EVAL_AUDIO_DeInit:00000000 EVAL_AUDIO_DeInit
C:\Users\CNous\AppData\Local\Temp\ccPT5vWC.s:2664   .data.AUDIO_MAL_DMA_IRQ:00000000 .LANCHOR9
C:\Users\CNous\AppData\Local\Temp\ccPT5vWC.s:2643   .data.AUDIO_MAL_DMA_STREAM:00000000 .LANCHOR1
C:\Users\CNous\AppData\Local\Temp\ccPT5vWC.s:1119   .text.EVAL_AUDIO_PauseResume:00000000 $t
C:\Users\CNous\AppData\Local\Temp\ccPT5vWC.s:1124   .text.EVAL_AUDIO_PauseResume:00000000 EVAL_AUDIO_PauseResume
C:\Users\CNous\AppData\Local\Temp\ccPT5vWC.s:1272   .text.EVAL_AUDIO_PauseResume:00000094 $d
C:\Users\CNous\AppData\Local\Temp\ccPT5vWC.s:1280   .text.EVAL_AUDIO_Stop:00000000 $t
C:\Users\CNous\AppData\Local\Temp\ccPT5vWC.s:1285   .text.EVAL_AUDIO_Stop:00000000 EVAL_AUDIO_Stop
C:\Users\CNous\AppData\Local\Temp\ccPT5vWC.s:1400   .text.EVAL_AUDIO_Stop:00000080 $d
C:\Users\CNous\AppData\Local\Temp\ccPT5vWC.s:1413   .text.EVAL_AUDIO_VolumeCtl:00000000 $t
C:\Users\CNous\AppData\Local\Temp\ccPT5vWC.s:1418   .text.EVAL_AUDIO_VolumeCtl:00000000 EVAL_AUDIO_VolumeCtl
C:\Users\CNous\AppData\Local\Temp\ccPT5vWC.s:1452   .text.EVAL_AUDIO_Mute:00000000 $t
C:\Users\CNous\AppData\Local\Temp\ccPT5vWC.s:1457   .text.EVAL_AUDIO_Mute:00000000 EVAL_AUDIO_Mute
C:\Users\CNous\AppData\Local\Temp\ccPT5vWC.s:1492   .text.EVAL_AUDIO_Mute:00000014 $d
C:\Users\CNous\AppData\Local\Temp\ccPT5vWC.s:1497   .text.DMA1_Stream7_IRQHandler:00000000 $t
C:\Users\CNous\AppData\Local\Temp\ccPT5vWC.s:1502   .text.DMA1_Stream7_IRQHandler:00000000 DMA1_Stream7_IRQHandler
C:\Users\CNous\AppData\Local\Temp\ccPT5vWC.s:1517   .text.DMA1_Stream0_IRQHandler:00000000 $t
C:\Users\CNous\AppData\Local\Temp\ccPT5vWC.s:1522   .text.DMA1_Stream0_IRQHandler:00000000 DMA1_Stream0_IRQHandler
C:\Users\CNous\AppData\Local\Temp\ccPT5vWC.s:1537   .text.SPI3_IRQHandler:00000000 $t
C:\Users\CNous\AppData\Local\Temp\ccPT5vWC.s:1542   .text.SPI3_IRQHandler:00000000 SPI3_IRQHandler
C:\Users\CNous\AppData\Local\Temp\ccPT5vWC.s:1593   .text.SPI3_IRQHandler:00000040 $d
C:\Users\CNous\AppData\Local\Temp\ccPT5vWC.s:1598   .text.Audio_MAL_Play:00000000 $t
C:\Users\CNous\AppData\Local\Temp\ccPT5vWC.s:1603   .text.Audio_MAL_Play:00000000 Audio_MAL_Play
C:\Users\CNous\AppData\Local\Temp\ccPT5vWC.s:1683   .text.Audio_MAL_Play:00000058 $d
                            *COM*:0000003c DMA_InitStructure
C:\Users\CNous\AppData\Local\Temp\ccPT5vWC.s:1690   .text.EVAL_AUDIO_Play:00000000 $t
C:\Users\CNous\AppData\Local\Temp\ccPT5vWC.s:1695   .text.EVAL_AUDIO_Play:00000000 EVAL_AUDIO_Play
C:\Users\CNous\AppData\Local\Temp\ccPT5vWC.s:2657   .data.AudioTotalSize:00000000 .LANCHOR14
C:\Users\CNous\AppData\Local\Temp\ccPT5vWC.s:2650   .data.AudioRemSize:00000000 .LANCHOR0
C:\Users\CNous\AppData\Local\Temp\ccPT5vWC.s:1758   .text.DAC_Config:00000000 $t
C:\Users\CNous\AppData\Local\Temp\ccPT5vWC.s:1763   .text.DAC_Config:00000000 DAC_Config
C:\Users\CNous\AppData\Local\Temp\ccPT5vWC.s:1834   .text.EVAL_AUDIO_Init:00000000 $t
C:\Users\CNous\AppData\Local\Temp\ccPT5vWC.s:1839   .text.EVAL_AUDIO_Init:00000000 EVAL_AUDIO_Init
C:\Users\CNous\AppData\Local\Temp\ccPT5vWC.s:2561   .text.EVAL_AUDIO_Init:000003f4 $d
C:\Users\CNous\AppData\Local\Temp\ccPT5vWC.s:2604   .data.AUDIO_MAL_DMA_FLAG_DME:00000000 AUDIO_MAL_DMA_FLAG_DME
C:\Users\CNous\AppData\Local\Temp\ccPT5vWC.s:2625   .data.AUDIO_MAL_DMA_FLAG_TE:00000000 AUDIO_MAL_DMA_FLAG_TE
C:\Users\CNous\AppData\Local\Temp\ccPT5vWC.s:2597   .data.AUDIO_MAL_DMA_FLAG_FE:00000000 AUDIO_MAL_DMA_FLAG_FE
ARM GAS  C:\Users\CNous\AppData\Local\Temp\ccPT5vWC.s 			page 237


C:\Users\CNous\AppData\Local\Temp\ccPT5vWC.s:2681   .data.AUDIO_MAL_DMA_FLAG_HT:00000000 AUDIO_MAL_DMA_FLAG_HT
C:\Users\CNous\AppData\Local\Temp\ccPT5vWC.s:2611   .data.AUDIO_MAL_DMA_FLAG_TC:00000000 AUDIO_MAL_DMA_FLAG_TC
C:\Users\CNous\AppData\Local\Temp\ccPT5vWC.s:2667   .data.AUDIO_MAL_DMA_IRQ:00000000 AUDIO_MAL_DMA_IRQ
C:\Users\CNous\AppData\Local\Temp\ccPT5vWC.s:2632   .bss.AUDIO_MAL_DMA_CHANNEL:00000000 AUDIO_MAL_DMA_CHANNEL
C:\Users\CNous\AppData\Local\Temp\ccPT5vWC.s:2618   .data.AUDIO_MAL_DMA_DREG:00000000 AUDIO_MAL_DMA_DREG
C:\Users\CNous\AppData\Local\Temp\ccPT5vWC.s:2646   .data.AUDIO_MAL_DMA_STREAM:00000000 AUDIO_MAL_DMA_STREAM
C:\Users\CNous\AppData\Local\Temp\ccPT5vWC.s:2639   .data.AUDIO_MAL_DMA_CLOCK:00000000 AUDIO_MAL_DMA_CLOCK
C:\Users\CNous\AppData\Local\Temp\ccPT5vWC.s:2674   .data.CurrAudioInterface:00000000 CurrAudioInterface
C:\Users\CNous\AppData\Local\Temp\ccPT5vWC.s:2694   .bss.OutputDev:00000000 OutputDev
C:\Users\CNous\AppData\Local\Temp\ccPT5vWC.s:2688   .data.CODECTimeout:00000000 CODECTimeout
C:\Users\CNous\AppData\Local\Temp\ccPT5vWC.s:2653   .data.AudioRemSize:00000000 AudioRemSize
C:\Users\CNous\AppData\Local\Temp\ccPT5vWC.s:2660   .data.AudioTotalSize:00000000 AudioTotalSize
                            *COM*:0000003c AUDIO_MAL_DMA_InitStructure
C:\Users\CNous\AppData\Local\Temp\ccPT5vWC.s:2593   .data.AUDIO_MAL_DMA_FLAG_FE:00000000 $d
C:\Users\CNous\AppData\Local\Temp\ccPT5vWC.s:2600   .data.AUDIO_MAL_DMA_FLAG_DME:00000000 $d
C:\Users\CNous\AppData\Local\Temp\ccPT5vWC.s:2607   .data.AUDIO_MAL_DMA_FLAG_TC:00000000 $d
C:\Users\CNous\AppData\Local\Temp\ccPT5vWC.s:2614   .data.AUDIO_MAL_DMA_DREG:00000000 $d
C:\Users\CNous\AppData\Local\Temp\ccPT5vWC.s:2621   .data.AUDIO_MAL_DMA_FLAG_TE:00000000 $d
C:\Users\CNous\AppData\Local\Temp\ccPT5vWC.s:2628   .bss.AUDIO_MAL_DMA_CHANNEL:00000000 $d
C:\Users\CNous\AppData\Local\Temp\ccPT5vWC.s:2635   .data.AUDIO_MAL_DMA_CLOCK:00000000 $d
C:\Users\CNous\AppData\Local\Temp\ccPT5vWC.s:2642   .data.AUDIO_MAL_DMA_STREAM:00000000 $d
C:\Users\CNous\AppData\Local\Temp\ccPT5vWC.s:2649   .data.AudioRemSize:00000000 $d
C:\Users\CNous\AppData\Local\Temp\ccPT5vWC.s:2656   .data.AudioTotalSize:00000000 $d
C:\Users\CNous\AppData\Local\Temp\ccPT5vWC.s:2663   .data.AUDIO_MAL_DMA_IRQ:00000000 $d
C:\Users\CNous\AppData\Local\Temp\ccPT5vWC.s:2670   .data.CurrAudioInterface:00000000 $d
C:\Users\CNous\AppData\Local\Temp\ccPT5vWC.s:2677   .data.AUDIO_MAL_DMA_FLAG_HT:00000000 $d
C:\Users\CNous\AppData\Local\Temp\ccPT5vWC.s:2684   .data.CODECTimeout:00000000 $d
C:\Users\CNous\AppData\Local\Temp\ccPT5vWC.s:2695   .bss.OutputDev:00000000 $d
                     .debug_frame:00000010 $d

UNDEFINED SYMBOLS
DMA_GetFlagStatus
EVAL_AUDIO_HalfTransfer_CallBack
DMA_ClearFlag
EVAL_AUDIO_TransferComplete_CallBack
GPIO_WriteBit
I2C_GetFlagStatus
Codec_TIMEOUT_UserCallback
I2C_GenerateSTART
I2C_CheckEvent
I2C_Send7bitAddress
I2C_SendData
I2C_GenerateSTOP
I2C_AcknowledgeConfig
I2C_ReceiveData
I2C_ClearFlag
NVIC_Init
DMA_Cmd
DMA_DeInit
GPIO_Init
GPIO_PinAFConfig
I2S_Cmd
SPI_I2S_DeInit
RCC_APB1PeriphClockCmd
SPI_I2S_DMACmd
SPI_I2S_GetFlagStatus
EVAL_AUDIO_GetSampleCallBack
ARM GAS  C:\Users\CNous\AppData\Local\Temp\ccPT5vWC.s 			page 238


SPI_I2S_SendData
DAC_SetChannel1Data
DMA_Init
RCC_AHB1PeriphClockCmd
DAC_Init
DAC_Cmd
I2C_DeInit
I2C_Cmd
I2C_Init
I2S_Init
SPI_I2S_ITConfig
DMA_ITConfig
