ARM GAS  C:\Users\CNous\AppData\Local\Temp\ccPT5vWC.s 			page 1


   1              		.syntax unified
   2              		.cpu cortex-m4
   3              		.eabi_attribute 27, 3	@ Tag_ABI_HardFP_use
   4              		.eabi_attribute 28, 1	@ Tag_ABI_VFP_args
   5              		.fpu fpv4-sp-d16
   6              		.eabi_attribute 20, 1	@ Tag_ABI_FP_denormal
   7              		.eabi_attribute 21, 1	@ Tag_ABI_FP_exceptions
   8              		.eabi_attribute 23, 3	@ Tag_ABI_FP_number_model
   9              		.eabi_attribute 24, 1	@ Tag_ABI_align8_needed
  10              		.eabi_attribute 25, 1	@ Tag_ABI_align8_preserved
  11              		.eabi_attribute 26, 1	@ Tag_ABI_enum_size
  12              		.eabi_attribute 30, 2	@ Tag_ABI_optimization_goals
  13              		.eabi_attribute 34, 1	@ Tag_CPU_unaligned_access
  14              		.eabi_attribute 18, 4	@ Tag_ABI_PCS_wchar_t
  15              		.file	"stm32f4_discovery_audio_codec.c"
  16              	@ GNU C (GNU Tools for ARM Embedded Processors) version 4.7.3 20121207 (release) [ARM/embedded-4_7-
  17              	@	compiled by GNU C version 4.2.1-sjlj (mingw32-2), GMP version 4.3.2, MPFR version 2.4.2, MPC vers
  18              	@ GGC heuristics: --param ggc-min-expand=100 --param ggc-min-heapsize=131072
  19              	@ options passed:  -I . -I ./inc -I ./cmsis/core -I ./cmsis/device
  20              	@ -imultilib armv7e-m/fpu
  21              	@ -iprefix c:\gnutoolsarmembedded\4.7-2012q4\bin\../lib/gcc/arm-none-eabi/4.7.3/
  22              	@ -isysroot c:\gnutoolsarmembedded\4.7-2012q4\bin\../arm-none-eabi
  23              	@ -MD src/stm32f4_discovery_audio_codec.d
  24              	@ -MF .dep/stm32f4_discovery_audio_codec.o.d -MP
  25              	@ -MQ src/stm32f4_discovery_audio_codec.o -D__USES_INITFINI__
  26              	@ -D __FPU_USED=1 -D __arm__ -D __ASSEMBLY__ -D USE_STDPERIPH_DRIVER
  27              	@ -D STM32F4XX -D HSE_VALUE=8000000 -D __FPU_PRESENT=1 -D STM32F407VG
  28              	@ -D RUN_FROM_FLASH=1 src/stm32f4_discovery_audio_codec.c -mthumb
  29              	@ -mcpu=cortex-m4 -mfloat-abi=hard -mfpu=fpv4-sp-d16
  30              	@ -auxbase-strip src/stm32f4_discovery_audio_codec.o -gdwarf-2 -O2 -Wall
  31              	@ -Wstrict-prototypes -fverbose-asm -ffunction-sections -fdata-sections
  32              	@ options enabled:  -fauto-inc-dec -fbranch-count-reg -fcaller-saves
  33              	@ -fcombine-stack-adjustments -fcommon -fcompare-elim -fcprop-registers
  34              	@ -fcrossjumping -fcse-follow-jumps -fdata-sections -fdebug-types-section
  35              	@ -fdefer-pop -fdelete-null-pointer-checks -fdevirtualize -fdwarf2-cfi-asm
  36              	@ -fearly-inlining -feliminate-unused-debug-types -fexpensive-optimizations
  37              	@ -fforward-propagate -ffunction-cse -ffunction-sections -fgcse -fgcse-lm
  38              	@ -fgnu-runtime -fguess-branch-probability -fident -fif-conversion
  39              	@ -fif-conversion2 -findirect-inlining -finline -finline-atomics
  40              	@ -finline-functions-called-once -finline-small-functions -fipa-cp
  41              	@ -fipa-profile -fipa-pure-const -fipa-reference -fipa-sra
  42              	@ -fira-share-save-slots -fira-share-spill-slots -fivopts
  43              	@ -fkeep-static-consts -fleading-underscore -fmath-errno -fmerge-constants
  44              	@ -fmerge-debug-strings -fmove-loop-invariants -fomit-frame-pointer
  45              	@ -foptimize-register-move -foptimize-sibling-calls -foptimize-strlen
  46              	@ -fpartial-inlining -fpeephole -fpeephole2 -fprefetch-loop-arrays
  47              	@ -freg-struct-return -fregmove -frename-registers -freorder-blocks
  48              	@ -freorder-functions -frerun-cse-after-loop
  49              	@ -fsched-critical-path-heuristic -fsched-dep-count-heuristic
  50              	@ -fsched-group-heuristic -fsched-interblock -fsched-last-insn-heuristic
  51              	@ -fsched-rank-heuristic -fsched-spec -fsched-spec-insn-heuristic
  52              	@ -fsched-stalled-insns-dep -fschedule-insns -fschedule-insns2
  53              	@ -fsection-anchors -fshow-column -fshrink-wrap -fsigned-zeros
  54              	@ -fsplit-ivs-in-unroller -fsplit-wide-types -fstrict-aliasing
  55              	@ -fstrict-overflow -fstrict-volatile-bitfields -fthread-jumps
  56              	@ -ftoplevel-reorder -ftrapping-math -ftree-bit-ccp -ftree-builtin-call-dce
  57              	@ -ftree-ccp -ftree-ch -ftree-copy-prop -ftree-copyrename -ftree-cselim
ARM GAS  C:\Users\CNous\AppData\Local\Temp\ccPT5vWC.s 			page 2


  58              	@ -ftree-dce -ftree-dominator-opts -ftree-dse -ftree-forwprop -ftree-fre
  59              	@ -ftree-loop-if-convert -ftree-loop-im -ftree-loop-ivcanon
  60              	@ -ftree-loop-optimize -ftree-parallelize-loops= -ftree-phiprop -ftree-pre
  61              	@ -ftree-pta -ftree-reassoc -ftree-scev-cprop -ftree-sink
  62              	@ -ftree-slp-vectorize -ftree-sra -ftree-switch-conversion
  63              	@ -ftree-tail-merge -ftree-ter -ftree-vect-loop-version -ftree-vrp
  64              	@ -funit-at-a-time -funroll-loops -fvar-tracking -fvar-tracking-assignments
  65              	@ -fverbose-asm -fweb -fzero-initialized-in-bss -mlittle-endian
  66              	@ -msched-prolog -mthumb -munaligned-access -mvectorize-with-neon-quad
  67              	
  68              		.text
  69              	.Ltext0:
  70              		.cfi_sections	.debug_frame
  71              		.section	.text.Audio_MAL_IRQHandler,"ax",%progbits
  72              		.align	2
  73              		.thumb
  74              		.thumb_func
  75              		.type	Audio_MAL_IRQHandler, %function
  76              	Audio_MAL_IRQHandler:
  77              	.LFB118:
  78              		.file 1 "src/stm32f4_discovery_audio_codec.c"
   1:src/stm32f4_discovery_audio_codec.c **** /**
   2:src/stm32f4_discovery_audio_codec.c ****   ******************************************************************************
   3:src/stm32f4_discovery_audio_codec.c ****   * @file    stm32f4_discovery_audio_codec.c
   4:src/stm32f4_discovery_audio_codec.c ****   * @author  modified by Xavier Halgand , MCD Application Team
   5:src/stm32f4_discovery_audio_codec.c ****   * @version
   6:src/stm32f4_discovery_audio_codec.c ****   * @date    October-2012
   7:src/stm32f4_discovery_audio_codec.c ****   * @brief   This file includes the low layer driver for CS43L22 Audio Codec
   8:src/stm32f4_discovery_audio_codec.c ****   *          available on STM32F4-Discovery Kit.  
   9:src/stm32f4_discovery_audio_codec.c ****   ******************************************************************************
  10:src/stm32f4_discovery_audio_codec.c ****   * @attention
  11:src/stm32f4_discovery_audio_codec.c ****   *
  12:src/stm32f4_discovery_audio_codec.c ****   * THE PRESENT FIRMWARE WHICH IS FOR GUIDANCE ONLY AIMS AT PROVIDING CUSTOMERS
  13:src/stm32f4_discovery_audio_codec.c ****   * WITH CODING INFORMATION REGARDING THEIR PRODUCTS IN ORDER FOR THEM TO SAVE
  14:src/stm32f4_discovery_audio_codec.c ****   * TIME. AS A RESULT, STMICROELECTRONICS SHALL NOT BE HELD LIABLE FOR ANY
  15:src/stm32f4_discovery_audio_codec.c ****   * DIRECT, INDIRECT OR CONSEQUENTIAL DAMAGES WITH RESPECT TO ANY CLAIMS ARISING
  16:src/stm32f4_discovery_audio_codec.c ****   * FROM THE CONTENT OF SUCH FIRMWARE AND/OR THE USE MADE BY CUSTOMERS OF THE
  17:src/stm32f4_discovery_audio_codec.c ****   * CODING INFORMATION CONTAINED HEREIN IN CONNECTION WITH THEIR PRODUCTS.
  18:src/stm32f4_discovery_audio_codec.c ****   *
  19:src/stm32f4_discovery_audio_codec.c ****   * <h2><center>&copy; COPYRIGHT 2011 STMicroelectronics</center></h2>
  20:src/stm32f4_discovery_audio_codec.c ****   ******************************************************************************  
  21:src/stm32f4_discovery_audio_codec.c ****   */
  22:src/stm32f4_discovery_audio_codec.c **** 
  23:src/stm32f4_discovery_audio_codec.c **** /*=================================================================================================
  24:src/stm32f4_discovery_audio_codec.c ****                                              User NOTES
  25:src/stm32f4_discovery_audio_codec.c **** 1. How To use this driver:
  26:src/stm32f4_discovery_audio_codec.c **** --------------------------
  27:src/stm32f4_discovery_audio_codec.c ****    - This driver supports STM32F4xx devices on STM32F4-Discovery Kit.
  28:src/stm32f4_discovery_audio_codec.c **** 
  29:src/stm32f4_discovery_audio_codec.c ****    - Configure the options in file stm32f4_discovery_audio_codec.h in the section CONFIGURATION.
  30:src/stm32f4_discovery_audio_codec.c ****       Refer to the sections 2 and 3 to have more details on the possible configurations.
  31:src/stm32f4_discovery_audio_codec.c **** 
  32:src/stm32f4_discovery_audio_codec.c ****    - Call the function EVAL_AUDIO_Init(
  33:src/stm32f4_discovery_audio_codec.c ****                                     OutputDevice: physical output mode (OUTPUT_DEVICE_SPEAKER, 
  34:src/stm32f4_discovery_audio_codec.c ****                                                  OUTPUT_DEVICE_HEADPHONE, OUTPUT_DEVICE_AUTO or 
  35:src/stm32f4_discovery_audio_codec.c ****                                                  OUTPUT_DEVICE_BOTH)
  36:src/stm32f4_discovery_audio_codec.c ****                                     Volume: initial volume to be set (0 is min (mute), 100 is max (
ARM GAS  C:\Users\CNous\AppData\Local\Temp\ccPT5vWC.s 			page 3


  37:src/stm32f4_discovery_audio_codec.c ****                                     AudioFreq: Audio frequency in Hz (8000, 16000, 22500, 32000 ...
  38:src/stm32f4_discovery_audio_codec.c ****                                     this parameter is relative to the audio file/stream type.
  39:src/stm32f4_discovery_audio_codec.c ****                                    )
  40:src/stm32f4_discovery_audio_codec.c ****       This function configures all the hardware required for the audio application (codec, I2C, I2S
  41:src/stm32f4_discovery_audio_codec.c ****       GPIOs, DMA and interrupt if needed). This function returns 0 if configuration is OK.
  42:src/stm32f4_discovery_audio_codec.c ****       if the returned value is different from 0 or the function is stuck then the communication wit
  43:src/stm32f4_discovery_audio_codec.c ****       the codec (try to un-plug the power or reset device in this case).
  44:src/stm32f4_discovery_audio_codec.c ****       + OUTPUT_DEVICE_SPEAKER: only speaker will be set as output for the audio stream.
  45:src/stm32f4_discovery_audio_codec.c ****       + OUTPUT_DEVICE_HEADPHONE: only headphones will be set as output for the audio stream.
  46:src/stm32f4_discovery_audio_codec.c ****       + OUTPUT_DEVICE_AUTO: Selection of output device is made through external switch (implemented
  47:src/stm32f4_discovery_audio_codec.c ****          into the audio jack on the evaluation board). When the Headphone is connected it is used
  48:src/stm32f4_discovery_audio_codec.c ****          as output. When the headphone is disconnected from the audio jack, the output is
  49:src/stm32f4_discovery_audio_codec.c ****          automatically switched to Speaker.
  50:src/stm32f4_discovery_audio_codec.c ****       + OUTPUT_DEVICE_BOTH: both Speaker and Headphone are used as outputs for the audio stream
  51:src/stm32f4_discovery_audio_codec.c ****          at the same time.
  52:src/stm32f4_discovery_audio_codec.c **** 
  53:src/stm32f4_discovery_audio_codec.c ****    - Call the function EVAL_AUDIO_Play(
  54:src/stm32f4_discovery_audio_codec.c ****                                   pBuffer: pointer to the audio data file address
  55:src/stm32f4_discovery_audio_codec.c ****                                   Size: size of the buffer to be sent in HalfWords (16bits)
  56:src/stm32f4_discovery_audio_codec.c ****                                  )
  57:src/stm32f4_discovery_audio_codec.c ****       to start playing (for the first time) from the audio file/stream.
  58:src/stm32f4_discovery_audio_codec.c **** 
  59:src/stm32f4_discovery_audio_codec.c ****    - Call the function EVAL_AUDIO_PauseResume(
  60:src/stm32f4_discovery_audio_codec.c ****                                          Cmd: AUDIO_PAUSE (or 0) to pause playing or AUDIO_RESUME (
  61:src/stm32f4_discovery_audio_codec.c ****                                                any value different from 0) to resume playing.
  62:src/stm32f4_discovery_audio_codec.c ****                                          )
  63:src/stm32f4_discovery_audio_codec.c ****        Note. After calling EVAL_AUDIO_PauseResume() function for pause, only EVAL_AUDIO_PauseResume
  64:src/stm32f4_discovery_audio_codec.c ****           for resume (it is not allowed to call EVAL_AUDIO_Play() in this case).
  65:src/stm32f4_discovery_audio_codec.c ****        Note. This function should be called only when the audio file is played or paused (not stopp
  66:src/stm32f4_discovery_audio_codec.c **** 
  67:src/stm32f4_discovery_audio_codec.c ****    - For each mode, you may need to implement the relative callback functions into your code.
  68:src/stm32f4_discovery_audio_codec.c ****       The Callback functions are named EVAL_AUDIO_XXX_CallBack() and only their prototypes are decl
  69:src/stm32f4_discovery_audio_codec.c ****       the stm32f4_discovery_audio_codec.h file. (refer to the example for more details on the callb
  70:src/stm32f4_discovery_audio_codec.c **** 
  71:src/stm32f4_discovery_audio_codec.c ****    - To Stop playing, to modify the volume level or to mute, use the functions
  72:src/stm32f4_discovery_audio_codec.c ****        EVAL_AUDIO_Stop(), EVAL_AUDIO_VolumeCtl() and EVAL_AUDIO_Mute().
  73:src/stm32f4_discovery_audio_codec.c **** 
  74:src/stm32f4_discovery_audio_codec.c ****    - The driver API and the callback functions are at the end of the stm32f4_discovery_audio_codec.
  75:src/stm32f4_discovery_audio_codec.c ****  
  76:src/stm32f4_discovery_audio_codec.c **** 
  77:src/stm32f4_discovery_audio_codec.c ****  Driver architecture:
  78:src/stm32f4_discovery_audio_codec.c ****  --------------------
  79:src/stm32f4_discovery_audio_codec.c ****  This driver is composed of three main layers:
  80:src/stm32f4_discovery_audio_codec.c ****    o High Audio Layer: consists of the function API exported in the stm32f4_discovery_audio_codec.h
  81:src/stm32f4_discovery_audio_codec.c ****      (EVAL_AUDIO_Init(), EVAL_AUDIO_Play() ...)
  82:src/stm32f4_discovery_audio_codec.c ****    o Codec Control layer: consists of the functions API controlling the audio codec (CS43L22) and 
  83:src/stm32f4_discovery_audio_codec.c ****      included as local functions in file stm32f4_discovery_audio_codec.c (Codec_Init(), Codec_Play(
  84:src/stm32f4_discovery_audio_codec.c ****    o Media Access Layer (MAL): which consists of functions allowing to access the media containing/
  85:src/stm32f4_discovery_audio_codec.c ****      providing the audio file/stream. These functions are also included as local functions into
  86:src/stm32f4_discovery_audio_codec.c ****      the stm32f4_discovery_audio_codec.c file (Audio_MAL_Init(), Audio_MAL_Play() ...)
  87:src/stm32f4_discovery_audio_codec.c ****   Each set of functions (layer) may be implemented independently of the others and customized when 
  88:src/stm32f4_discovery_audio_codec.c ****   needed.    
  89:src/stm32f4_discovery_audio_codec.c **** 
  90:src/stm32f4_discovery_audio_codec.c **** 2. Modes description:
  91:src/stm32f4_discovery_audio_codec.c **** ---------------------
  92:src/stm32f4_discovery_audio_codec.c ****      + AUDIO_MAL_MODE_NORMAL : is suitable when the audio file is in a memory location.
  93:src/stm32f4_discovery_audio_codec.c ****      + AUDIO_MAL_MODE_CIRCULAR: is suitable when the audio data are read either from a 
ARM GAS  C:\Users\CNous\AppData\Local\Temp\ccPT5vWC.s 			page 4


  94:src/stm32f4_discovery_audio_codec.c ****         memory location or from a device at real time (double buffer could be used).
  95:src/stm32f4_discovery_audio_codec.c **** 
  96:src/stm32f4_discovery_audio_codec.c **** 3. DMA interrupts description:
  97:src/stm32f4_discovery_audio_codec.c **** ------------------------------
  98:src/stm32f4_discovery_audio_codec.c ****      + EVAL_AUDIO_IT_TC_ENABLE: Enable this define to use the DMA end of transfer interrupt.
  99:src/stm32f4_discovery_audio_codec.c ****         then, a callback should be implemented by user to perform specific actions
 100:src/stm32f4_discovery_audio_codec.c ****         when the DMA has finished the transfer.
 101:src/stm32f4_discovery_audio_codec.c ****      + EVAL_AUDIO_IT_HT_ENABLE: Enable this define to use the DMA end of half transfer interrupt.
 102:src/stm32f4_discovery_audio_codec.c ****         then, a callback should be implemented by user to perform specific actions
 103:src/stm32f4_discovery_audio_codec.c ****         when the DMA has reached the half of the buffer transfer (generally, it is useful 
 104:src/stm32f4_discovery_audio_codec.c ****         to load the first half of buffer while DMA is loading from the second half).
 105:src/stm32f4_discovery_audio_codec.c ****      + EVAL_AUDIO_IT_ER_ENABLE: Enable this define to manage the cases of error on DMA transfer.
 106:src/stm32f4_discovery_audio_codec.c **** 
 107:src/stm32f4_discovery_audio_codec.c **** 4. Known Limitations:
 108:src/stm32f4_discovery_audio_codec.c **** ---------------------
 109:src/stm32f4_discovery_audio_codec.c ****    1- When using the Speaker, if the audio file quality is not high enough, the speaker output
 110:src/stm32f4_discovery_audio_codec.c ****       may produce high and uncomfortable noise level. To avoid this issue, to use speaker
 111:src/stm32f4_discovery_audio_codec.c ****       output properly, try to increase audio file sampling rate (typically higher than 48KHz).
 112:src/stm32f4_discovery_audio_codec.c ****       This operation will lead to larger file size.
 113:src/stm32f4_discovery_audio_codec.c ****    2- Communication with the audio codec (through I2C) may be corrupted if it is interrupted by som
 114:src/stm32f4_discovery_audio_codec.c ****       user interrupt routines (in this case, interrupts could be disabled just before the start of 
 115:src/stm32f4_discovery_audio_codec.c ****       communication then re-enabled when it is over). Note that this communication is only done at
 116:src/stm32f4_discovery_audio_codec.c ****       the configuration phase (EVAL_AUDIO_Init() or EVAL_AUDIO_Stop()) and when Volume control modi
 117:src/stm32f4_discovery_audio_codec.c ****       performed (EVAL_AUDIO_VolumeCtl() or EVAL_AUDIO_Mute()). When the audio data is played, no co
 118:src/stm32f4_discovery_audio_codec.c ****       required with the audio codec.
 119:src/stm32f4_discovery_audio_codec.c ****   3- Parsing of audio file is not implemented (in order to determine audio file properties: Mono/St
 120:src/stm32f4_discovery_audio_codec.c ****      File size, Audio Frequency, Audio Data header size ...). The configuration is fixed for the gi
 121:src/stm32f4_discovery_audio_codec.c ****   4- Mono audio streaming is not supported (in order to play mono audio streams, each data should b
 122:src/stm32f4_discovery_audio_codec.c ****      on the I2S or should be duplicated on the source buffer. Or convert the stream in stereo befor
 123:src/stm32f4_discovery_audio_codec.c ****   5- Supports only 16-bit audio data size.
 124:src/stm32f4_discovery_audio_codec.c **** ===================================================================================================
 125:src/stm32f4_discovery_audio_codec.c **** 
 126:src/stm32f4_discovery_audio_codec.c **** 
 127:src/stm32f4_discovery_audio_codec.c **** /* Includes ------------------------------------------------------------------*/
 128:src/stm32f4_discovery_audio_codec.c **** #include "stm32f4_discovery_audio_codec.h"
 129:src/stm32f4_discovery_audio_codec.c **** 
 130:src/stm32f4_discovery_audio_codec.c **** /** @addtogroup Utilities
 131:src/stm32f4_discovery_audio_codec.c ****   * @{
 132:src/stm32f4_discovery_audio_codec.c ****   */
 133:src/stm32f4_discovery_audio_codec.c ****   
 134:src/stm32f4_discovery_audio_codec.c **** /** @addtogroup STM32F4_DISCOVERY
 135:src/stm32f4_discovery_audio_codec.c ****   * @{
 136:src/stm32f4_discovery_audio_codec.c ****   */
 137:src/stm32f4_discovery_audio_codec.c **** 
 138:src/stm32f4_discovery_audio_codec.c **** /** @addtogroup STM32F4_DISCOVERY_AUDIO_CODEC
 139:src/stm32f4_discovery_audio_codec.c ****   * @brief       This file includes the low layer driver for CS43L22 Audio Codec
 140:src/stm32f4_discovery_audio_codec.c ****   *              available on STM32F4-Discovery Kit.
 141:src/stm32f4_discovery_audio_codec.c ****   * @{
 142:src/stm32f4_discovery_audio_codec.c ****   */ 
 143:src/stm32f4_discovery_audio_codec.c **** 
 144:src/stm32f4_discovery_audio_codec.c **** /** @defgroup STM32F4_DISCOVERY_AUDIO_CODEC_Private_Types
 145:src/stm32f4_discovery_audio_codec.c ****   * @{
 146:src/stm32f4_discovery_audio_codec.c ****   */ 
 147:src/stm32f4_discovery_audio_codec.c **** /**
 148:src/stm32f4_discovery_audio_codec.c ****   * @}
 149:src/stm32f4_discovery_audio_codec.c ****   */ 
 150:src/stm32f4_discovery_audio_codec.c ****   
ARM GAS  C:\Users\CNous\AppData\Local\Temp\ccPT5vWC.s 			page 5


 151:src/stm32f4_discovery_audio_codec.c **** /** @defgroup STM32F4_DISCOVERY_AUDIO_CODEC_Private_Defines
 152:src/stm32f4_discovery_audio_codec.c ****   * @{
 153:src/stm32f4_discovery_audio_codec.c ****   */ 
 154:src/stm32f4_discovery_audio_codec.c **** 
 155:src/stm32f4_discovery_audio_codec.c **** /* Mask for the bit EN of the I2S CFGR register */
 156:src/stm32f4_discovery_audio_codec.c **** #define I2S_ENABLE_MASK                 0x0400
 157:src/stm32f4_discovery_audio_codec.c **** 
 158:src/stm32f4_discovery_audio_codec.c **** /* Delay for the Codec to be correctly reset */
 159:src/stm32f4_discovery_audio_codec.c **** #define CODEC_RESET_DELAY               0x4FFF
 160:src/stm32f4_discovery_audio_codec.c **** 
 161:src/stm32f4_discovery_audio_codec.c **** /* Codec audio Standards */
 162:src/stm32f4_discovery_audio_codec.c **** #ifdef I2S_STANDARD_PHILLIPS
 163:src/stm32f4_discovery_audio_codec.c ****  #define  CODEC_STANDARD                0x04
 164:src/stm32f4_discovery_audio_codec.c ****  #define I2S_STANDARD                   I2S_Standard_Phillips         
 165:src/stm32f4_discovery_audio_codec.c **** #elif defined(I2S_STANDARD_MSB)
 166:src/stm32f4_discovery_audio_codec.c ****  #define  CODEC_STANDARD                0x00
 167:src/stm32f4_discovery_audio_codec.c ****  #define I2S_STANDARD                   I2S_Standard_MSB    
 168:src/stm32f4_discovery_audio_codec.c **** #elif defined(I2S_STANDARD_LSB)
 169:src/stm32f4_discovery_audio_codec.c ****  #define  CODEC_STANDARD                0x08
 170:src/stm32f4_discovery_audio_codec.c ****  #define I2S_STANDARD                   I2S_Standard_LSB    
 171:src/stm32f4_discovery_audio_codec.c **** #else 
 172:src/stm32f4_discovery_audio_codec.c ****  #error "Error: No audio communication standard selected !"
 173:src/stm32f4_discovery_audio_codec.c **** #endif /* I2S_STANDARD */
 174:src/stm32f4_discovery_audio_codec.c **** 
 175:src/stm32f4_discovery_audio_codec.c **** /* The 7 bits Codec address (sent through I2C interface) */
 176:src/stm32f4_discovery_audio_codec.c **** #define CODEC_ADDRESS                   0x94  /* b00100111 */
 177:src/stm32f4_discovery_audio_codec.c **** /**
 178:src/stm32f4_discovery_audio_codec.c ****   * @}
 179:src/stm32f4_discovery_audio_codec.c ****   */ 
 180:src/stm32f4_discovery_audio_codec.c **** 
 181:src/stm32f4_discovery_audio_codec.c **** /** @defgroup STM32F4_DISCOVERY_AUDIO_CODEC_Private_Macros
 182:src/stm32f4_discovery_audio_codec.c ****   * @{
 183:src/stm32f4_discovery_audio_codec.c ****   */
 184:src/stm32f4_discovery_audio_codec.c **** /**
 185:src/stm32f4_discovery_audio_codec.c ****   * @}
 186:src/stm32f4_discovery_audio_codec.c ****   */ 
 187:src/stm32f4_discovery_audio_codec.c ****   
 188:src/stm32f4_discovery_audio_codec.c **** /** @defgroup STM32F4_DISCOVERY_AUDIO_CODEC_Private_Variables
 189:src/stm32f4_discovery_audio_codec.c ****   * @{
 190:src/stm32f4_discovery_audio_codec.c ****   */
 191:src/stm32f4_discovery_audio_codec.c **** /* This structure is declared global because it is handled by two different functions */
 192:src/stm32f4_discovery_audio_codec.c **** DMA_InitTypeDef DMA_InitStructure; 
 193:src/stm32f4_discovery_audio_codec.c **** DMA_InitTypeDef AUDIO_MAL_DMA_InitStructure;
 194:src/stm32f4_discovery_audio_codec.c **** 
 195:src/stm32f4_discovery_audio_codec.c **** uint32_t AudioTotalSize = 0xFFFF; /* This variable holds the total size of the audio file */
 196:src/stm32f4_discovery_audio_codec.c **** uint32_t AudioRemSize   = 0xFFFF; /* This variable holds the remaining data in audio file */
 197:src/stm32f4_discovery_audio_codec.c **** uint16_t *CurrentPos ;             /* This variable holds the current position of audio pointer */
 198:src/stm32f4_discovery_audio_codec.c **** 
 199:src/stm32f4_discovery_audio_codec.c **** __IO uint32_t  CODECTimeout = CODEC_LONG_TIMEOUT;   
 200:src/stm32f4_discovery_audio_codec.c **** __IO uint8_t OutputDev = 0;
 201:src/stm32f4_discovery_audio_codec.c **** 
 202:src/stm32f4_discovery_audio_codec.c **** 
 203:src/stm32f4_discovery_audio_codec.c **** __IO uint32_t CurrAudioInterface = AUDIO_INTERFACE_I2S; //AUDIO_INTERFACE_DAC
 204:src/stm32f4_discovery_audio_codec.c **** /**
 205:src/stm32f4_discovery_audio_codec.c ****   * @}
 206:src/stm32f4_discovery_audio_codec.c ****   */ 
 207:src/stm32f4_discovery_audio_codec.c **** 
ARM GAS  C:\Users\CNous\AppData\Local\Temp\ccPT5vWC.s 			page 6


 208:src/stm32f4_discovery_audio_codec.c **** /** @defgroup STM32F4_DISCOVERY_AUDIO_CODEC_Private_Function_Prototypes
 209:src/stm32f4_discovery_audio_codec.c ****   * @{
 210:src/stm32f4_discovery_audio_codec.c ****   */ 
 211:src/stm32f4_discovery_audio_codec.c **** /**
 212:src/stm32f4_discovery_audio_codec.c ****   * @}
 213:src/stm32f4_discovery_audio_codec.c ****   */ 
 214:src/stm32f4_discovery_audio_codec.c **** 
 215:src/stm32f4_discovery_audio_codec.c **** /** @defgroup STM32F4_DISCOVERY_AUDIO_CODEC_Private_Functions
 216:src/stm32f4_discovery_audio_codec.c ****   * @{
 217:src/stm32f4_discovery_audio_codec.c ****   */ 
 218:src/stm32f4_discovery_audio_codec.c **** static void Audio_MAL_IRQHandler(void);
 219:src/stm32f4_discovery_audio_codec.c **** /*-----------------------------------
 220:src/stm32f4_discovery_audio_codec.c ****                            Audio Codec functions 
 221:src/stm32f4_discovery_audio_codec.c ****                                     ------------------------------------------*/
 222:src/stm32f4_discovery_audio_codec.c **** /* High Layer codec functions */
 223:src/stm32f4_discovery_audio_codec.c **** static uint32_t Codec_Init(uint16_t OutputDevice, uint8_t Volume, uint32_t AudioFreq);
 224:src/stm32f4_discovery_audio_codec.c **** static uint32_t Codec_DeInit(void);
 225:src/stm32f4_discovery_audio_codec.c **** static uint32_t Codec_Play(void);
 226:src/stm32f4_discovery_audio_codec.c **** static uint32_t Codec_PauseResume(uint32_t Cmd);
 227:src/stm32f4_discovery_audio_codec.c **** static uint32_t Codec_Stop(uint32_t Cmd);
 228:src/stm32f4_discovery_audio_codec.c **** static uint32_t Codec_VolumeCtrl(uint8_t Volume);
 229:src/stm32f4_discovery_audio_codec.c **** static uint32_t Codec_Mute(uint32_t Cmd);
 230:src/stm32f4_discovery_audio_codec.c **** /* Low layer codec functions */
 231:src/stm32f4_discovery_audio_codec.c **** static void     Codec_CtrlInterface_Init(void);
 232:src/stm32f4_discovery_audio_codec.c **** static void     Codec_CtrlInterface_DeInit(void);
 233:src/stm32f4_discovery_audio_codec.c **** static void     Codec_AudioInterface_Init(uint32_t AudioFreq);
 234:src/stm32f4_discovery_audio_codec.c **** static void     Codec_AudioInterface_DeInit(void);
 235:src/stm32f4_discovery_audio_codec.c **** static void     Codec_Reset(void);
 236:src/stm32f4_discovery_audio_codec.c **** static uint32_t Codec_WriteRegister(uint8_t RegisterAddr, uint8_t RegisterValue);
 237:src/stm32f4_discovery_audio_codec.c **** static uint32_t Codec_ReadRegister(uint8_t RegisterAddr);
 238:src/stm32f4_discovery_audio_codec.c **** static void     Codec_GPIO_Init(void);
 239:src/stm32f4_discovery_audio_codec.c **** static void     Codec_GPIO_DeInit(void);
 240:src/stm32f4_discovery_audio_codec.c **** static void     Delay(__IO uint32_t nCount);
 241:src/stm32f4_discovery_audio_codec.c **** /*----------------------------------------------------------------------------*/
 242:src/stm32f4_discovery_audio_codec.c **** 
 243:src/stm32f4_discovery_audio_codec.c **** /*-----------------------------------
 244:src/stm32f4_discovery_audio_codec.c ****                    MAL (Media Access Layer) functions 
 245:src/stm32f4_discovery_audio_codec.c ****                                     ------------------------------------------*/
 246:src/stm32f4_discovery_audio_codec.c **** /* Peripherals configuration functions */
 247:src/stm32f4_discovery_audio_codec.c **** static void     Audio_MAL_Init(void);
 248:src/stm32f4_discovery_audio_codec.c **** static void     Audio_MAL_DeInit(void);
 249:src/stm32f4_discovery_audio_codec.c **** static void     Audio_MAL_PauseResume(uint32_t Cmd, uint32_t Addr);
 250:src/stm32f4_discovery_audio_codec.c **** static void     Audio_MAL_Stop(void);
 251:src/stm32f4_discovery_audio_codec.c **** /*----------------------------------------------------------------------------*/
 252:src/stm32f4_discovery_audio_codec.c **** 
 253:src/stm32f4_discovery_audio_codec.c ****  /* DMA Stream definitions */
 254:src/stm32f4_discovery_audio_codec.c ****  uint32_t AUDIO_MAL_DMA_CLOCK    = AUDIO_I2S_DMA_CLOCK;
 255:src/stm32f4_discovery_audio_codec.c ****  DMA_Stream_TypeDef * AUDIO_MAL_DMA_STREAM   = AUDIO_I2S_DMA_STREAM ;       
 256:src/stm32f4_discovery_audio_codec.c ****  uint32_t AUDIO_MAL_DMA_DREG     = AUDIO_I2S_DMA_DREG;
 257:src/stm32f4_discovery_audio_codec.c ****  uint32_t AUDIO_MAL_DMA_CHANNEL  = AUDIO_I2S_DMA_CHANNEL;
 258:src/stm32f4_discovery_audio_codec.c ****  uint32_t AUDIO_MAL_DMA_IRQ      = AUDIO_I2S_DMA_IRQ  ;
 259:src/stm32f4_discovery_audio_codec.c ****  uint32_t AUDIO_MAL_DMA_FLAG_TC  = AUDIO_I2S_DMA_FLAG_TC;
 260:src/stm32f4_discovery_audio_codec.c ****  uint32_t AUDIO_MAL_DMA_FLAG_HT  = AUDIO_I2S_DMA_FLAG_HT;
 261:src/stm32f4_discovery_audio_codec.c ****  uint32_t AUDIO_MAL_DMA_FLAG_FE  = AUDIO_I2S_DMA_FLAG_FE;
 262:src/stm32f4_discovery_audio_codec.c ****  uint32_t AUDIO_MAL_DMA_FLAG_TE  = AUDIO_I2S_DMA_FLAG_TE;
 263:src/stm32f4_discovery_audio_codec.c ****  uint32_t AUDIO_MAL_DMA_FLAG_DME = AUDIO_I2S_DMA_FLAG_DME;
 264:src/stm32f4_discovery_audio_codec.c **** 
ARM GAS  C:\Users\CNous\AppData\Local\Temp\ccPT5vWC.s 			page 7


 265:src/stm32f4_discovery_audio_codec.c **** /**
 266:src/stm32f4_discovery_audio_codec.c ****   * @brief  Set the current audio interface (I2S or DAC).
 267:src/stm32f4_discovery_audio_codec.c ****   * @param  Interface: AUDIO_INTERFACE_I2S or AUDIO_INTERFACE_DAC
 268:src/stm32f4_discovery_audio_codec.c ****   * @retval None
 269:src/stm32f4_discovery_audio_codec.c ****   */
 270:src/stm32f4_discovery_audio_codec.c **** void EVAL_AUDIO_SetAudioInterface(uint32_t Interface)
 271:src/stm32f4_discovery_audio_codec.c **** {    
 272:src/stm32f4_discovery_audio_codec.c ****   CurrAudioInterface = Interface;
 273:src/stm32f4_discovery_audio_codec.c ****   
 274:src/stm32f4_discovery_audio_codec.c ****   if (CurrAudioInterface == AUDIO_INTERFACE_I2S)
 275:src/stm32f4_discovery_audio_codec.c ****   {
 276:src/stm32f4_discovery_audio_codec.c ****     /* DMA Stream definitions */
 277:src/stm32f4_discovery_audio_codec.c ****     AUDIO_MAL_DMA_CLOCK    = AUDIO_I2S_DMA_CLOCK;
 278:src/stm32f4_discovery_audio_codec.c ****     AUDIO_MAL_DMA_STREAM   = AUDIO_I2S_DMA_STREAM;        
 279:src/stm32f4_discovery_audio_codec.c ****     AUDIO_MAL_DMA_DREG     = AUDIO_I2S_DMA_DREG;
 280:src/stm32f4_discovery_audio_codec.c ****     AUDIO_MAL_DMA_CHANNEL  = AUDIO_I2S_DMA_CHANNEL;
 281:src/stm32f4_discovery_audio_codec.c ****     AUDIO_MAL_DMA_IRQ      = AUDIO_I2S_DMA_IRQ  ;
 282:src/stm32f4_discovery_audio_codec.c ****     AUDIO_MAL_DMA_FLAG_TC  = AUDIO_I2S_DMA_FLAG_TC;
 283:src/stm32f4_discovery_audio_codec.c ****     AUDIO_MAL_DMA_FLAG_HT  = AUDIO_I2S_DMA_FLAG_HT;
 284:src/stm32f4_discovery_audio_codec.c ****     AUDIO_MAL_DMA_FLAG_FE  = AUDIO_I2S_DMA_FLAG_FE;
 285:src/stm32f4_discovery_audio_codec.c ****     AUDIO_MAL_DMA_FLAG_TE  = AUDIO_I2S_DMA_FLAG_TE;
 286:src/stm32f4_discovery_audio_codec.c ****     AUDIO_MAL_DMA_FLAG_DME = AUDIO_I2S_DMA_FLAG_DME;
 287:src/stm32f4_discovery_audio_codec.c ****   }
 288:src/stm32f4_discovery_audio_codec.c ****   else if (Interface == AUDIO_INTERFACE_DAC)
 289:src/stm32f4_discovery_audio_codec.c ****   {
 290:src/stm32f4_discovery_audio_codec.c ****     /* DMA Stream definitions */
 291:src/stm32f4_discovery_audio_codec.c ****     AUDIO_MAL_DMA_CLOCK    = AUDIO_DAC_DMA_CLOCK;
 292:src/stm32f4_discovery_audio_codec.c ****     AUDIO_MAL_DMA_STREAM   = AUDIO_DAC_DMA_STREAM;        
 293:src/stm32f4_discovery_audio_codec.c ****     AUDIO_MAL_DMA_DREG     = AUDIO_DAC_DMA_DREG;
 294:src/stm32f4_discovery_audio_codec.c ****     AUDIO_MAL_DMA_CHANNEL  = AUDIO_DAC_DMA_CHANNEL;
 295:src/stm32f4_discovery_audio_codec.c ****     AUDIO_MAL_DMA_IRQ      = AUDIO_DAC_DMA_IRQ  ;
 296:src/stm32f4_discovery_audio_codec.c ****     AUDIO_MAL_DMA_FLAG_TC  = AUDIO_DAC_DMA_FLAG_TC;
 297:src/stm32f4_discovery_audio_codec.c ****     AUDIO_MAL_DMA_FLAG_HT  = AUDIO_DAC_DMA_FLAG_HT;
 298:src/stm32f4_discovery_audio_codec.c ****     AUDIO_MAL_DMA_FLAG_FE  = AUDIO_DAC_DMA_FLAG_FE;
 299:src/stm32f4_discovery_audio_codec.c ****     AUDIO_MAL_DMA_FLAG_TE  = AUDIO_DAC_DMA_FLAG_TE;
 300:src/stm32f4_discovery_audio_codec.c ****     AUDIO_MAL_DMA_FLAG_DME = AUDIO_DAC_DMA_FLAG_DME;    
 301:src/stm32f4_discovery_audio_codec.c ****   }
 302:src/stm32f4_discovery_audio_codec.c **** }
 303:src/stm32f4_discovery_audio_codec.c **** 
 304:src/stm32f4_discovery_audio_codec.c **** /**
 305:src/stm32f4_discovery_audio_codec.c ****   * @brief  Configure the audio peripherals.
 306:src/stm32f4_discovery_audio_codec.c ****   * @param  OutputDevice: OUTPUT_DEVICE_SPEAKER, OUTPUT_DEVICE_HEADPHONE,
 307:src/stm32f4_discovery_audio_codec.c ****   *                       OUTPUT_DEVICE_BOTH or OUTPUT_DEVICE_AUTO .
 308:src/stm32f4_discovery_audio_codec.c ****   * @param  Volume: Initial volume level (from 0 (Mute) to 100 (Max))
 309:src/stm32f4_discovery_audio_codec.c ****   * @param  AudioFreq: Audio frequency used to play the audio stream.
 310:src/stm32f4_discovery_audio_codec.c ****   * @retval 0 if correct communication, else wrong communication
 311:src/stm32f4_discovery_audio_codec.c ****   */
 312:src/stm32f4_discovery_audio_codec.c **** uint32_t EVAL_AUDIO_Init(uint16_t OutputDevice, uint8_t Volume, uint32_t AudioFreq)
 313:src/stm32f4_discovery_audio_codec.c **** {    
 314:src/stm32f4_discovery_audio_codec.c ****   /* Perform low layer Codec initialization */
 315:src/stm32f4_discovery_audio_codec.c ****   if (Codec_Init(OutputDevice, VOLUME_CONVERT(Volume), AudioFreq) != 0)
 316:src/stm32f4_discovery_audio_codec.c ****   {
 317:src/stm32f4_discovery_audio_codec.c ****     return 1;                
 318:src/stm32f4_discovery_audio_codec.c ****   }
 319:src/stm32f4_discovery_audio_codec.c ****   else
 320:src/stm32f4_discovery_audio_codec.c ****   {    
 321:src/stm32f4_discovery_audio_codec.c ****     /* I2S data transfer preparation:
ARM GAS  C:\Users\CNous\AppData\Local\Temp\ccPT5vWC.s 			page 8


 322:src/stm32f4_discovery_audio_codec.c ****     Prepare the Media to be used for the audio transfer from memory to I2S peripheral */
 323:src/stm32f4_discovery_audio_codec.c ****     Audio_MAL_Init();
 324:src/stm32f4_discovery_audio_codec.c ****     
 325:src/stm32f4_discovery_audio_codec.c ****     /* Return 0 when all operations are OK */
 326:src/stm32f4_discovery_audio_codec.c ****     return 0;
 327:src/stm32f4_discovery_audio_codec.c ****   }
 328:src/stm32f4_discovery_audio_codec.c **** }
 329:src/stm32f4_discovery_audio_codec.c **** 
 330:src/stm32f4_discovery_audio_codec.c **** /**
 331:src/stm32f4_discovery_audio_codec.c ****   * @brief  Deinitializes all the resources used by the codec (those initialized
 332:src/stm32f4_discovery_audio_codec.c ****   *         by EVAL_AUDIO_Init() function). 
 333:src/stm32f4_discovery_audio_codec.c ****   * @param  None
 334:src/stm32f4_discovery_audio_codec.c ****   * @retval 0 if correct communication, else wrong communication
 335:src/stm32f4_discovery_audio_codec.c ****   */
 336:src/stm32f4_discovery_audio_codec.c **** uint32_t EVAL_AUDIO_DeInit(void)
 337:src/stm32f4_discovery_audio_codec.c **** { 
 338:src/stm32f4_discovery_audio_codec.c ****   /* DeInitialize the Media layer */
 339:src/stm32f4_discovery_audio_codec.c ****   Audio_MAL_DeInit();
 340:src/stm32f4_discovery_audio_codec.c ****   
 341:src/stm32f4_discovery_audio_codec.c ****   /* DeInitialize Codec */  
 342:src/stm32f4_discovery_audio_codec.c ****   Codec_DeInit();  
 343:src/stm32f4_discovery_audio_codec.c ****   
 344:src/stm32f4_discovery_audio_codec.c ****   return 0;
 345:src/stm32f4_discovery_audio_codec.c **** }
 346:src/stm32f4_discovery_audio_codec.c **** 
 347:src/stm32f4_discovery_audio_codec.c **** /**
 348:src/stm32f4_discovery_audio_codec.c ****   * @brief  Starts playing audio stream from a data buffer for a determined size. 
 349:src/stm32f4_discovery_audio_codec.c ****   * @param  pBuffer: Pointer to the buffer 
 350:src/stm32f4_discovery_audio_codec.c ****   * @param  Size: Number of audio data half-words (16bits).
 351:src/stm32f4_discovery_audio_codec.c ****   * @retval 0 if correct communication, else wrong communication
 352:src/stm32f4_discovery_audio_codec.c ****   */
 353:src/stm32f4_discovery_audio_codec.c **** uint32_t EVAL_AUDIO_Play(uint16_t* pBuffer, uint32_t Size)
 354:src/stm32f4_discovery_audio_codec.c **** {
 355:src/stm32f4_discovery_audio_codec.c ****   /* Set the total number of data to be played (count in half-word) */
 356:src/stm32f4_discovery_audio_codec.c ****   AudioTotalSize = Size;
 357:src/stm32f4_discovery_audio_codec.c **** 
 358:src/stm32f4_discovery_audio_codec.c ****   /* Call the audio Codec Play function */
 359:src/stm32f4_discovery_audio_codec.c ****   Codec_Play();
 360:src/stm32f4_discovery_audio_codec.c ****   
 361:src/stm32f4_discovery_audio_codec.c ****   /* Update the Media layer and enable it for play */  
 362:src/stm32f4_discovery_audio_codec.c ****   Audio_MAL_Play((uint32_t)pBuffer, (uint32_t)(DMA_MAX(Size)));
 363:src/stm32f4_discovery_audio_codec.c ****   
 364:src/stm32f4_discovery_audio_codec.c ****   /* Update the remaining number of data to be played */
 365:src/stm32f4_discovery_audio_codec.c ****   AudioRemSize = Size - DMA_MAX(AudioTotalSize);
 366:src/stm32f4_discovery_audio_codec.c ****   
 367:src/stm32f4_discovery_audio_codec.c ****   /* Update the current audio pointer position */
 368:src/stm32f4_discovery_audio_codec.c ****   CurrentPos = pBuffer + DMA_MAX(AudioTotalSize);
 369:src/stm32f4_discovery_audio_codec.c ****   
 370:src/stm32f4_discovery_audio_codec.c ****   return 0;
 371:src/stm32f4_discovery_audio_codec.c **** }
 372:src/stm32f4_discovery_audio_codec.c **** 
 373:src/stm32f4_discovery_audio_codec.c **** /**
 374:src/stm32f4_discovery_audio_codec.c ****   * @brief  This function Pauses or Resumes the audio file stream. In case
 375:src/stm32f4_discovery_audio_codec.c ****   *         of using DMA, the DMA Pause feature is used. In all cases the I2S 
 376:src/stm32f4_discovery_audio_codec.c ****   *         peripheral is disabled. 
 377:src/stm32f4_discovery_audio_codec.c ****   * 
 378:src/stm32f4_discovery_audio_codec.c ****   * @WARNING When calling EVAL_AUDIO_PauseResume() function for pause, only
ARM GAS  C:\Users\CNous\AppData\Local\Temp\ccPT5vWC.s 			page 9


 379:src/stm32f4_discovery_audio_codec.c ****   *          this function should be called for resume (use of EVAL_AUDIO_Play() 
 380:src/stm32f4_discovery_audio_codec.c ****   *          function for resume could lead to unexpected behavior).
 381:src/stm32f4_discovery_audio_codec.c ****   * 
 382:src/stm32f4_discovery_audio_codec.c ****   * @param  Cmd: AUDIO_PAUSE (or 0) to pause, AUDIO_RESUME (or any value different
 383:src/stm32f4_discovery_audio_codec.c ****   *         from 0) to resume. 
 384:src/stm32f4_discovery_audio_codec.c ****   * @retval 0 if correct communication, else wrong communication
 385:src/stm32f4_discovery_audio_codec.c ****   */
 386:src/stm32f4_discovery_audio_codec.c **** uint32_t EVAL_AUDIO_PauseResume(uint32_t Cmd)
 387:src/stm32f4_discovery_audio_codec.c **** {    
 388:src/stm32f4_discovery_audio_codec.c ****   /* Call the Audio Codec Pause/Resume function */
 389:src/stm32f4_discovery_audio_codec.c ****   if (Codec_PauseResume(Cmd) != 0)
 390:src/stm32f4_discovery_audio_codec.c ****   {
 391:src/stm32f4_discovery_audio_codec.c ****     return 1;
 392:src/stm32f4_discovery_audio_codec.c ****   }
 393:src/stm32f4_discovery_audio_codec.c ****   else
 394:src/stm32f4_discovery_audio_codec.c ****   {
 395:src/stm32f4_discovery_audio_codec.c ****     /* Call the Media layer pause/resume function */
 396:src/stm32f4_discovery_audio_codec.c ****     Audio_MAL_PauseResume(Cmd, 0);
 397:src/stm32f4_discovery_audio_codec.c ****     
 398:src/stm32f4_discovery_audio_codec.c ****     /* Return 0 if all operations are OK */
 399:src/stm32f4_discovery_audio_codec.c ****     return 0;
 400:src/stm32f4_discovery_audio_codec.c ****   }
 401:src/stm32f4_discovery_audio_codec.c **** }
 402:src/stm32f4_discovery_audio_codec.c **** 
 403:src/stm32f4_discovery_audio_codec.c **** /**
 404:src/stm32f4_discovery_audio_codec.c ****   * @brief  Stops audio playing and Power down the Audio Codec. 
 405:src/stm32f4_discovery_audio_codec.c ****   * @param  Option: could be one of the following parameters 
 406:src/stm32f4_discovery_audio_codec.c ****   *           - CODEC_PDWN_SW: for software power off (by writing registers). 
 407:src/stm32f4_discovery_audio_codec.c ****   *                            Then no need to reconfigure the Codec after power on.
 408:src/stm32f4_discovery_audio_codec.c ****   *           - CODEC_PDWN_HW: completely shut down the codec (physically). 
 409:src/stm32f4_discovery_audio_codec.c ****   *                            Then need to reconfigure the Codec after power on.  
 410:src/stm32f4_discovery_audio_codec.c ****   * @retval 0 if correct communication, else wrong communication
 411:src/stm32f4_discovery_audio_codec.c ****   */
 412:src/stm32f4_discovery_audio_codec.c **** uint32_t EVAL_AUDIO_Stop(uint32_t Option)
 413:src/stm32f4_discovery_audio_codec.c **** {
 414:src/stm32f4_discovery_audio_codec.c ****   /* Call Audio Codec Stop function */
 415:src/stm32f4_discovery_audio_codec.c ****   if (Codec_Stop(Option) != 0)
 416:src/stm32f4_discovery_audio_codec.c ****   {
 417:src/stm32f4_discovery_audio_codec.c ****     return 1;
 418:src/stm32f4_discovery_audio_codec.c ****   }
 419:src/stm32f4_discovery_audio_codec.c ****   else
 420:src/stm32f4_discovery_audio_codec.c ****   {
 421:src/stm32f4_discovery_audio_codec.c ****     /* Call Media layer Stop function */
 422:src/stm32f4_discovery_audio_codec.c ****     Audio_MAL_Stop();
 423:src/stm32f4_discovery_audio_codec.c ****     
 424:src/stm32f4_discovery_audio_codec.c ****     /* Update the remaining data number */
 425:src/stm32f4_discovery_audio_codec.c ****     AudioRemSize = AudioTotalSize;    
 426:src/stm32f4_discovery_audio_codec.c ****     
 427:src/stm32f4_discovery_audio_codec.c ****     /* Return 0 when all operations are correctly done */
 428:src/stm32f4_discovery_audio_codec.c ****     return 0;
 429:src/stm32f4_discovery_audio_codec.c ****   }
 430:src/stm32f4_discovery_audio_codec.c **** }
 431:src/stm32f4_discovery_audio_codec.c **** 
 432:src/stm32f4_discovery_audio_codec.c **** /**
 433:src/stm32f4_discovery_audio_codec.c ****   * @brief  Controls the current audio volume level. 
 434:src/stm32f4_discovery_audio_codec.c ****   * @param  Volume: Volume level to be set in percentage from 0% to 100% (0 for 
 435:src/stm32f4_discovery_audio_codec.c ****   *         Mute and 100 for Max volume level).
ARM GAS  C:\Users\CNous\AppData\Local\Temp\ccPT5vWC.s 			page 10


 436:src/stm32f4_discovery_audio_codec.c ****   * @retval 0 if correct communication, else wrong communication
 437:src/stm32f4_discovery_audio_codec.c ****   */
 438:src/stm32f4_discovery_audio_codec.c **** uint32_t EVAL_AUDIO_VolumeCtl(uint8_t Volume)
 439:src/stm32f4_discovery_audio_codec.c **** {
 440:src/stm32f4_discovery_audio_codec.c ****   /* Call the codec volume control function with converted volume value */
 441:src/stm32f4_discovery_audio_codec.c ****   return (Codec_VolumeCtrl(VOLUME_CONVERT(Volume)));
 442:src/stm32f4_discovery_audio_codec.c **** }
 443:src/stm32f4_discovery_audio_codec.c **** 
 444:src/stm32f4_discovery_audio_codec.c **** /**
 445:src/stm32f4_discovery_audio_codec.c ****   * @brief  Enables or disables the MUTE mode by software 
 446:src/stm32f4_discovery_audio_codec.c ****   * @param  Command: could be AUDIO_MUTE_ON to mute sound or AUDIO_MUTE_OFF to 
 447:src/stm32f4_discovery_audio_codec.c ****   *         unmute the codec and restore previous volume level.
 448:src/stm32f4_discovery_audio_codec.c ****   * @retval 0 if correct communication, else wrong communication
 449:src/stm32f4_discovery_audio_codec.c ****   */
 450:src/stm32f4_discovery_audio_codec.c **** uint32_t EVAL_AUDIO_Mute(uint32_t Cmd)
 451:src/stm32f4_discovery_audio_codec.c **** { 
 452:src/stm32f4_discovery_audio_codec.c ****   /* Call the Codec Mute function */
 453:src/stm32f4_discovery_audio_codec.c ****   return (Codec_Mute(Cmd));
 454:src/stm32f4_discovery_audio_codec.c **** }
 455:src/stm32f4_discovery_audio_codec.c **** 
 456:src/stm32f4_discovery_audio_codec.c **** /**
 457:src/stm32f4_discovery_audio_codec.c ****   * @brief  This function handles main Media layer interrupt. 
 458:src/stm32f4_discovery_audio_codec.c ****   * @param  None
 459:src/stm32f4_discovery_audio_codec.c ****   * @retval 0 if correct communication, else wrong communication
 460:src/stm32f4_discovery_audio_codec.c ****   */
 461:src/stm32f4_discovery_audio_codec.c **** static void Audio_MAL_IRQHandler(void)
 462:src/stm32f4_discovery_audio_codec.c **** {    
  79              		.loc 1 462 0
  80              		.cfi_startproc
  81              		@ args = 0, pretend = 0, frame = 0
  82              		@ frame_needed = 0, uses_anonymous_args = 0
  83 0000 F8B5     		push	{r3, r4, r5, r6, r7, lr}	@
  84              	.LCFI0:
  85              		.cfi_def_cfa_offset 24
  86              		.cfi_offset 3, -24
  87              		.cfi_offset 4, -20
  88              		.cfi_offset 5, -16
  89              		.cfi_offset 6, -12
  90              		.cfi_offset 7, -8
  91              		.cfi_offset 14, -4
 463:src/stm32f4_discovery_audio_codec.c **** #ifndef AUDIO_MAL_MODE_NORMAL
 464:src/stm32f4_discovery_audio_codec.c ****   uint16_t *pAddr = (uint16_t *)CurrentPos;
 465:src/stm32f4_discovery_audio_codec.c ****   uint32_t Size = AudioRemSize;
 466:src/stm32f4_discovery_audio_codec.c **** #endif /* AUDIO_MAL_MODE_NORMAL */
 467:src/stm32f4_discovery_audio_codec.c ****   
 468:src/stm32f4_discovery_audio_codec.c **** #ifdef AUDIO_MAL_DMA_IT_TC_EN
 469:src/stm32f4_discovery_audio_codec.c ****   /* Transfer complete interrupt */
 470:src/stm32f4_discovery_audio_codec.c ****   if (DMA_GetFlagStatus(AUDIO_MAL_DMA_STREAM, AUDIO_MAL_DMA_FLAG_TC) != RESET)
  92              		.loc 1 470 0
  93 0002 134C     		ldr	r4, .L10	@ tmp168,
  94 0004 134D     		ldr	r5, .L10+4	@ tmp152,
 464:src/stm32f4_discovery_audio_codec.c ****   uint16_t *pAddr = (uint16_t *)CurrentPos;
  95              		.loc 1 464 0
  96 0006 144B     		ldr	r3, .L10+8	@ tmp148,
 465:src/stm32f4_discovery_audio_codec.c ****   uint32_t Size = AudioRemSize;
  97              		.loc 1 465 0
  98 0008 144A     		ldr	r2, .L10+12	@ tmp149,
ARM GAS  C:\Users\CNous\AppData\Local\Temp\ccPT5vWC.s 			page 11


  99              		.loc 1 470 0
 100 000a 2068     		ldr	r0, [r4, #0]	@, AUDIO_MAL_DMA_STREAM
 101 000c 2968     		ldr	r1, [r5, #0]	@, AUDIO_MAL_DMA_FLAG_TC
 464:src/stm32f4_discovery_audio_codec.c ****   uint16_t *pAddr = (uint16_t *)CurrentPos;
 102              		.loc 1 464 0
 103 000e 1F68     		ldr	r7, [r3, #0]	@ pAddr, CurrentPos
 104              	.LVL0:
 465:src/stm32f4_discovery_audio_codec.c ****   uint32_t Size = AudioRemSize;
 105              		.loc 1 465 0
 106 0010 1668     		ldr	r6, [r2, #0]	@ Size, AudioRemSize
 107              	.LVL1:
 108              		.loc 1 470 0
 109 0012 FFF7FEFF 		bl	DMA_GetFlagStatus	@
 110              	.LVL2:
 111 0016 88B9     		cbnz	r0, .L8	@,
 112              	.L2:
 471:src/stm32f4_discovery_audio_codec.c ****   {         
 472:src/stm32f4_discovery_audio_codec.c ****  #ifdef AUDIO_MAL_MODE_NORMAL
 473:src/stm32f4_discovery_audio_codec.c ****     /* Check if the end of file has been reached */
 474:src/stm32f4_discovery_audio_codec.c ****     if (AudioRemSize > 0)
 475:src/stm32f4_discovery_audio_codec.c ****     {      
 476:src/stm32f4_discovery_audio_codec.c ****       /* Wait the DMA Stream to be effectively disabled */
 477:src/stm32f4_discovery_audio_codec.c ****       while (DMA_GetCmdStatus(AUDIO_MAL_DMA_STREAM) != DISABLE)
 478:src/stm32f4_discovery_audio_codec.c ****       {}
 479:src/stm32f4_discovery_audio_codec.c ****       
 480:src/stm32f4_discovery_audio_codec.c ****       /* Clear the Interrupt flag */
 481:src/stm32f4_discovery_audio_codec.c ****       DMA_ClearFlag(AUDIO_MAL_DMA_STREAM, AUDIO_MAL_DMA_FLAG_TC); 
 482:src/stm32f4_discovery_audio_codec.c ****            
 483:src/stm32f4_discovery_audio_codec.c ****       /* Re-Configure the buffer address and size */
 484:src/stm32f4_discovery_audio_codec.c ****       DMA_InitStructure.DMA_Memory0BaseAddr = (uint32_t) CurrentPos;
 485:src/stm32f4_discovery_audio_codec.c ****       DMA_InitStructure.DMA_BufferSize = (uint32_t) (DMA_MAX(AudioRemSize));
 486:src/stm32f4_discovery_audio_codec.c ****             
 487:src/stm32f4_discovery_audio_codec.c ****       /* Configure the DMA Stream with the new parameters */
 488:src/stm32f4_discovery_audio_codec.c ****       DMA_Init(AUDIO_MAL_DMA_STREAM, &DMA_InitStructure);
 489:src/stm32f4_discovery_audio_codec.c ****       
 490:src/stm32f4_discovery_audio_codec.c ****       /* Enable the I2S DMA Stream*/
 491:src/stm32f4_discovery_audio_codec.c ****       DMA_Cmd(AUDIO_MAL_DMA_STREAM, ENABLE);    
 492:src/stm32f4_discovery_audio_codec.c ****       
 493:src/stm32f4_discovery_audio_codec.c ****       /* Update the current pointer position */
 494:src/stm32f4_discovery_audio_codec.c ****       CurrentPos += DMA_MAX(AudioRemSize);        
 495:src/stm32f4_discovery_audio_codec.c ****       
 496:src/stm32f4_discovery_audio_codec.c ****       /* Update the remaining number of data to be played */
 497:src/stm32f4_discovery_audio_codec.c ****       AudioRemSize -= DMA_MAX(AudioRemSize);   
 498:src/stm32f4_discovery_audio_codec.c ****         /* Enable the I2S DMA Stream*/
 499:src/stm32f4_discovery_audio_codec.c ****       DMA_Cmd(AUDIO_MAL_DMA_STREAM, ENABLE); 
 500:src/stm32f4_discovery_audio_codec.c ****     }
 501:src/stm32f4_discovery_audio_codec.c ****     else
 502:src/stm32f4_discovery_audio_codec.c ****     {
 503:src/stm32f4_discovery_audio_codec.c ****       /* Disable the I2S DMA Stream*/
 504:src/stm32f4_discovery_audio_codec.c ****       DMA_Cmd(AUDIO_MAL_DMA_STREAM, DISABLE);   
 505:src/stm32f4_discovery_audio_codec.c ****       
 506:src/stm32f4_discovery_audio_codec.c ****       /* Clear the Interrupt flag */
 507:src/stm32f4_discovery_audio_codec.c ****       DMA_ClearFlag(AUDIO_MAL_DMA_STREAM, AUDIO_MAL_DMA_FLAG_TC);       
 508:src/stm32f4_discovery_audio_codec.c ****       
 509:src/stm32f4_discovery_audio_codec.c ****       /* Manage the remaining file size and new address offset: This function 
 510:src/stm32f4_discovery_audio_codec.c ****       should be coded by user (its prototype is already declared in stm32f4_discovery_audio_codec.h
 511:src/stm32f4_discovery_audio_codec.c ****       EVAL_AUDIO_TransferComplete_CallBack((uint32_t)CurrentPos, 0);       
ARM GAS  C:\Users\CNous\AppData\Local\Temp\ccPT5vWC.s 			page 12


 512:src/stm32f4_discovery_audio_codec.c ****     }
 513:src/stm32f4_discovery_audio_codec.c ****     
 514:src/stm32f4_discovery_audio_codec.c ****  #elif defined(AUDIO_MAL_MODE_CIRCULAR)
 515:src/stm32f4_discovery_audio_codec.c ****     /* Manage the remaining file size and new address offset: This function 
 516:src/stm32f4_discovery_audio_codec.c ****        should be coded by user (its prototype is already declared in stm32f4_discovery_audio_codec.
 517:src/stm32f4_discovery_audio_codec.c ****     EVAL_AUDIO_TransferComplete_CallBack((uint32_t)pAddr, Size);    
 518:src/stm32f4_discovery_audio_codec.c ****     
 519:src/stm32f4_discovery_audio_codec.c ****     /* Clear the Interrupt flag */
 520:src/stm32f4_discovery_audio_codec.c ****     DMA_ClearFlag(AUDIO_MAL_DMA_STREAM, AUDIO_MAL_DMA_FLAG_TC);
 521:src/stm32f4_discovery_audio_codec.c ****  #endif /* AUDIO_MAL_MODE_NORMAL */  
 522:src/stm32f4_discovery_audio_codec.c ****   }
 523:src/stm32f4_discovery_audio_codec.c **** #endif /* AUDIO_MAL_DMA_IT_TC_EN */
 524:src/stm32f4_discovery_audio_codec.c **** 
 525:src/stm32f4_discovery_audio_codec.c **** #ifdef AUDIO_MAL_DMA_IT_HT_EN  
 526:src/stm32f4_discovery_audio_codec.c ****   /* Half Transfer complete interrupt */
 527:src/stm32f4_discovery_audio_codec.c ****   if (DMA_GetFlagStatus(AUDIO_MAL_DMA_STREAM, AUDIO_MAL_DMA_FLAG_HT) != RESET)
 113              		.loc 1 527 0
 114 0018 114D     		ldr	r5, .L10+16	@ tmp161,
 115 001a 2068     		ldr	r0, [r4, #0]	@, AUDIO_MAL_DMA_STREAM
 116 001c 2968     		ldr	r1, [r5, #0]	@, AUDIO_MAL_DMA_FLAG_HT
 117 001e FFF7FEFF 		bl	DMA_GetFlagStatus	@
 118              	.LVL3:
 119 0022 00B9     		cbnz	r0, .L9	@,
 120 0024 F8BD     		pop	{r3, r4, r5, r6, r7, pc}	@
 121              	.L9:
 528:src/stm32f4_discovery_audio_codec.c ****   {
 529:src/stm32f4_discovery_audio_codec.c ****     /* Manage the remaining file size and new address offset: This function 
 530:src/stm32f4_discovery_audio_codec.c ****        should be coded by user (its prototype is already declared in stm32f4_discovery_audio_codec.
 531:src/stm32f4_discovery_audio_codec.c ****     EVAL_AUDIO_HalfTransfer_CallBack((uint32_t)pAddr, Size);    
 122              		.loc 1 531 0
 123 0026 3846     		mov	r0, r7	@, pAddr
 124 0028 3146     		mov	r1, r6	@, Size
 125 002a FFF7FEFF 		bl	EVAL_AUDIO_HalfTransfer_CallBack	@
 126              	.LVL4:
 532:src/stm32f4_discovery_audio_codec.c ****    
 533:src/stm32f4_discovery_audio_codec.c ****     /* Clear the Interrupt flag */
 534:src/stm32f4_discovery_audio_codec.c ****     DMA_ClearFlag(AUDIO_MAL_DMA_STREAM, AUDIO_MAL_DMA_FLAG_HT);    
 127              		.loc 1 534 0
 128 002e 0848     		ldr	r0, .L10	@ tmp159,
 129 0030 2968     		ldr	r1, [r5, #0]	@, AUDIO_MAL_DMA_FLAG_HT
 130 0032 0068     		ldr	r0, [r0, #0]	@, AUDIO_MAL_DMA_STREAM
 535:src/stm32f4_discovery_audio_codec.c ****   }
 536:src/stm32f4_discovery_audio_codec.c **** #endif /* AUDIO_MAL_DMA_IT_HT_EN */
 537:src/stm32f4_discovery_audio_codec.c ****   
 538:src/stm32f4_discovery_audio_codec.c **** #ifdef AUDIO_MAL_DMA_IT_TE_EN  
 539:src/stm32f4_discovery_audio_codec.c ****   /* FIFO Error interrupt */
 540:src/stm32f4_discovery_audio_codec.c ****   if ((DMA_GetFlagStatus(AUDIO_MAL_DMA_STREAM, AUDIO_MAL_DMA_FLAG_TE) != RESET) || \
 541:src/stm32f4_discovery_audio_codec.c ****      (DMA_GetFlagStatus(AUDIO_MAL_DMA_STREAM, AUDIO_MAL_DMA_FLAG_FE) != RESET) || \
 542:src/stm32f4_discovery_audio_codec.c ****      (DMA_GetFlagStatus(AUDIO_MAL_DMA_STREAM, AUDIO_MAL_DMA_FLAG_DME) != RESET))
 543:src/stm32f4_discovery_audio_codec.c ****     
 544:src/stm32f4_discovery_audio_codec.c ****   {
 545:src/stm32f4_discovery_audio_codec.c ****     /* Manage the error generated on DMA FIFO: This function 
 546:src/stm32f4_discovery_audio_codec.c ****        should be coded by user (its prototype is already declared in stm32f4_discovery_audio_codec.
 547:src/stm32f4_discovery_audio_codec.c ****     EVAL_AUDIO_Error_CallBack((uint32_t*)&pAddr);    
 548:src/stm32f4_discovery_audio_codec.c ****     
 549:src/stm32f4_discovery_audio_codec.c ****     /* Clear the Interrupt flag */
 550:src/stm32f4_discovery_audio_codec.c ****     DMA_ClearFlag(AUDIO_MAL_DMA_STREAM, AUDIO_MAL_DMA_FLAG_TE | AUDIO_MAL_DMA_FLAG_FE | \
ARM GAS  C:\Users\CNous\AppData\Local\Temp\ccPT5vWC.s 			page 13


 551:src/stm32f4_discovery_audio_codec.c ****                                         AUDIO_MAL_DMA_FLAG_DME);
 552:src/stm32f4_discovery_audio_codec.c ****   }  
 553:src/stm32f4_discovery_audio_codec.c **** #endif /* AUDIO_MAL_DMA_IT_TE_EN */
 554:src/stm32f4_discovery_audio_codec.c **** }
 131              		.loc 1 554 0
 132 0034 BDE8F840 		pop	{r3, r4, r5, r6, r7, lr}	@
 534:src/stm32f4_discovery_audio_codec.c ****     DMA_ClearFlag(AUDIO_MAL_DMA_STREAM, AUDIO_MAL_DMA_FLAG_HT);    
 133              		.loc 1 534 0
 134 0038 FFF7FEBF 		b	DMA_ClearFlag	@
 135              	.LVL5:
 136              	.L8:
 517:src/stm32f4_discovery_audio_codec.c ****     EVAL_AUDIO_TransferComplete_CallBack((uint32_t)pAddr, Size);    
 137              		.loc 1 517 0
 138 003c 3846     		mov	r0, r7	@, pAddr
 139 003e 3146     		mov	r1, r6	@, Size
 140 0040 FFF7FEFF 		bl	EVAL_AUDIO_TransferComplete_CallBack	@
 141              	.LVL6:
 520:src/stm32f4_discovery_audio_codec.c ****     DMA_ClearFlag(AUDIO_MAL_DMA_STREAM, AUDIO_MAL_DMA_FLAG_TC);
 142              		.loc 1 520 0
 143 0044 2068     		ldr	r0, [r4, #0]	@, AUDIO_MAL_DMA_STREAM
 144 0046 2968     		ldr	r1, [r5, #0]	@, AUDIO_MAL_DMA_FLAG_TC
 145 0048 FFF7FEFF 		bl	DMA_ClearFlag	@
 146              	.LVL7:
 147 004c E4E7     		b	.L2	@
 148              	.L11:
 149 004e 00BF     		.align	2
 150              	.L10:
 151 0050 00000000 		.word	.LANCHOR1
 152 0054 00000000 		.word	.LANCHOR2
 153 0058 00000000 		.word	CurrentPos
 154 005c 00000000 		.word	.LANCHOR0
 155 0060 00000000 		.word	.LANCHOR3
 156              		.cfi_endproc
 157              	.LFE118:
 158              		.size	Audio_MAL_IRQHandler, .-Audio_MAL_IRQHandler
 159              		.section	.text.Codec_Reset,"ax",%progbits
 160              		.align	2
 161              		.thumb
 162              		.thumb_func
 163              		.type	Codec_Reset, %function
 164              	Codec_Reset:
 165              	.LFB129:
 555:src/stm32f4_discovery_audio_codec.c **** 
 556:src/stm32f4_discovery_audio_codec.c **** /**
 557:src/stm32f4_discovery_audio_codec.c ****   * @brief  This function handles main I2S interrupt. 
 558:src/stm32f4_discovery_audio_codec.c ****   * @param  None
 559:src/stm32f4_discovery_audio_codec.c ****   * @retval 0 if correct communication, else wrong communication
 560:src/stm32f4_discovery_audio_codec.c ****   */
 561:src/stm32f4_discovery_audio_codec.c **** void Audio_MAL_I2S_IRQHandler(void)
 562:src/stm32f4_discovery_audio_codec.c **** { 
 563:src/stm32f4_discovery_audio_codec.c ****   Audio_MAL_IRQHandler();
 564:src/stm32f4_discovery_audio_codec.c **** }
 565:src/stm32f4_discovery_audio_codec.c **** 
 566:src/stm32f4_discovery_audio_codec.c **** /**
 567:src/stm32f4_discovery_audio_codec.c ****   * @brief  This function handles main DAC interrupt. 
 568:src/stm32f4_discovery_audio_codec.c ****   * @param  None
 569:src/stm32f4_discovery_audio_codec.c ****   * @retval 0 if correct communication, else wrong communication
ARM GAS  C:\Users\CNous\AppData\Local\Temp\ccPT5vWC.s 			page 14


 570:src/stm32f4_discovery_audio_codec.c ****   */
 571:src/stm32f4_discovery_audio_codec.c **** void Audio_MAL_DAC_IRQHandler(void)
 572:src/stm32f4_discovery_audio_codec.c **** { 
 573:src/stm32f4_discovery_audio_codec.c ****   Audio_MAL_IRQHandler();
 574:src/stm32f4_discovery_audio_codec.c **** }
 575:src/stm32f4_discovery_audio_codec.c **** 
 576:src/stm32f4_discovery_audio_codec.c **** /**
 577:src/stm32f4_discovery_audio_codec.c ****   * @brief  I2S interrupt management
 578:src/stm32f4_discovery_audio_codec.c ****   * @param  None
 579:src/stm32f4_discovery_audio_codec.c ****   * @retval None
 580:src/stm32f4_discovery_audio_codec.c ****   */
 581:src/stm32f4_discovery_audio_codec.c **** void Audio_I2S_IRQHandler(void)
 582:src/stm32f4_discovery_audio_codec.c **** {
 583:src/stm32f4_discovery_audio_codec.c ****   /* Check on the I2S TXE flag */  
 584:src/stm32f4_discovery_audio_codec.c ****   if (SPI_I2S_GetFlagStatus(SPI3, SPI_I2S_FLAG_TXE) != RESET)
 585:src/stm32f4_discovery_audio_codec.c ****   { 
 586:src/stm32f4_discovery_audio_codec.c ****     if (CurrAudioInterface == AUDIO_INTERFACE_DAC)
 587:src/stm32f4_discovery_audio_codec.c ****     {
 588:src/stm32f4_discovery_audio_codec.c ****       /* Wirte data to the DAC interface */
 589:src/stm32f4_discovery_audio_codec.c ****       DAC_SetChannel1Data(DAC_Align_12b_L, EVAL_AUDIO_GetSampleCallBack()); 
 590:src/stm32f4_discovery_audio_codec.c ****     }
 591:src/stm32f4_discovery_audio_codec.c ****     
 592:src/stm32f4_discovery_audio_codec.c ****     /* Send dummy data on I2S to avoid the underrun condition */
 593:src/stm32f4_discovery_audio_codec.c ****     SPI_I2S_SendData(CODEC_I2S, EVAL_AUDIO_GetSampleCallBack()); 
 594:src/stm32f4_discovery_audio_codec.c ****   }
 595:src/stm32f4_discovery_audio_codec.c **** }
 596:src/stm32f4_discovery_audio_codec.c **** /*========================
 597:src/stm32f4_discovery_audio_codec.c **** 
 598:src/stm32f4_discovery_audio_codec.c ****                 CS43L22 Audio Codec Control Functions
 599:src/stm32f4_discovery_audio_codec.c ****                                                 ==============================*/
 600:src/stm32f4_discovery_audio_codec.c **** /**
 601:src/stm32f4_discovery_audio_codec.c ****   * @brief  Initializes the audio codec and all related interfaces (control 
 602:src/stm32f4_discovery_audio_codec.c ****   *         interface: I2C and audio interface: I2S)
 603:src/stm32f4_discovery_audio_codec.c ****   * @param  OutputDevice: can be OUTPUT_DEVICE_SPEAKER, OUTPUT_DEVICE_HEADPHONE,
 604:src/stm32f4_discovery_audio_codec.c ****   *                       OUTPUT_DEVICE_BOTH or OUTPUT_DEVICE_AUTO .
 605:src/stm32f4_discovery_audio_codec.c ****   * @param  Volume: Initial volume level (from 0 (Mute) to 100 (Max))
 606:src/stm32f4_discovery_audio_codec.c ****   * @param  AudioFreq: Audio frequency used to play the audio stream.
 607:src/stm32f4_discovery_audio_codec.c ****   * @retval 0 if correct communication, else wrong communication
 608:src/stm32f4_discovery_audio_codec.c ****   */
 609:src/stm32f4_discovery_audio_codec.c **** static uint32_t Codec_Init(uint16_t OutputDevice, uint8_t Volume, uint32_t AudioFreq)
 610:src/stm32f4_discovery_audio_codec.c **** {
 611:src/stm32f4_discovery_audio_codec.c ****   uint32_t counter = 0; 
 612:src/stm32f4_discovery_audio_codec.c **** 
 613:src/stm32f4_discovery_audio_codec.c ****   /* Configure the Codec related IOs */
 614:src/stm32f4_discovery_audio_codec.c ****   Codec_GPIO_Init();   
 615:src/stm32f4_discovery_audio_codec.c ****   
 616:src/stm32f4_discovery_audio_codec.c ****   /* Reset the Codec Registers */
 617:src/stm32f4_discovery_audio_codec.c ****   Codec_Reset();
 618:src/stm32f4_discovery_audio_codec.c **** 
 619:src/stm32f4_discovery_audio_codec.c ****   /* Initialize the Control interface of the Audio Codec */
 620:src/stm32f4_discovery_audio_codec.c ****   Codec_CtrlInterface_Init();     
 621:src/stm32f4_discovery_audio_codec.c ****   
 622:src/stm32f4_discovery_audio_codec.c ****   /* Keep Codec powered OFF */
 623:src/stm32f4_discovery_audio_codec.c ****   counter += Codec_WriteRegister(0x02, 0x01);  
 624:src/stm32f4_discovery_audio_codec.c ****       
 625:src/stm32f4_discovery_audio_codec.c ****   counter += Codec_WriteRegister(0x04, 0xAF); /* SPK always OFF & HP always ON */
 626:src/stm32f4_discovery_audio_codec.c ****   OutputDev = 0xAF;
ARM GAS  C:\Users\CNous\AppData\Local\Temp\ccPT5vWC.s 			page 15


 627:src/stm32f4_discovery_audio_codec.c ****   
 628:src/stm32f4_discovery_audio_codec.c ****   /* Clock configuration: Auto detection */  
 629:src/stm32f4_discovery_audio_codec.c ****   counter += Codec_WriteRegister(0x05, 0x81);
 630:src/stm32f4_discovery_audio_codec.c ****   
 631:src/stm32f4_discovery_audio_codec.c ****   /* Set the Slave Mode and the audio Standard */  
 632:src/stm32f4_discovery_audio_codec.c ****   counter += Codec_WriteRegister(0x06, CODEC_STANDARD);
 633:src/stm32f4_discovery_audio_codec.c ****       
 634:src/stm32f4_discovery_audio_codec.c ****   /* Set the Master volume */
 635:src/stm32f4_discovery_audio_codec.c ****   Codec_VolumeCtrl(Volume);
 636:src/stm32f4_discovery_audio_codec.c ****   
 637:src/stm32f4_discovery_audio_codec.c ****   if (CurrAudioInterface == AUDIO_INTERFACE_DAC)
 638:src/stm32f4_discovery_audio_codec.c ****   {
 639:src/stm32f4_discovery_audio_codec.c ****     /* Enable the PassThrough on AIN1A and AIN1B */
 640:src/stm32f4_discovery_audio_codec.c ****     counter += Codec_WriteRegister(0x08, 0x01);
 641:src/stm32f4_discovery_audio_codec.c ****     counter += Codec_WriteRegister(0x09, 0x01);
 642:src/stm32f4_discovery_audio_codec.c ****     
 643:src/stm32f4_discovery_audio_codec.c ****     /* Route the analog input to the HP line */
 644:src/stm32f4_discovery_audio_codec.c ****     counter += Codec_WriteRegister(0x0E, 0xC0);
 645:src/stm32f4_discovery_audio_codec.c ****     
 646:src/stm32f4_discovery_audio_codec.c ****     /* Set the Passthough volume */
 647:src/stm32f4_discovery_audio_codec.c ****     counter += Codec_WriteRegister(0x14, 0x00);
 648:src/stm32f4_discovery_audio_codec.c ****     counter += Codec_WriteRegister(0x15, 0x00);
 649:src/stm32f4_discovery_audio_codec.c ****   }
 650:src/stm32f4_discovery_audio_codec.c **** 
 651:src/stm32f4_discovery_audio_codec.c ****   /* Power on the Codec */
 652:src/stm32f4_discovery_audio_codec.c ****   counter += Codec_WriteRegister(0x02, 0x9E);  
 653:src/stm32f4_discovery_audio_codec.c ****   
 654:src/stm32f4_discovery_audio_codec.c ****   /* Additional configuration for the CODEC. These configurations are done to reduce
 655:src/stm32f4_discovery_audio_codec.c ****       the time needed for the Codec to power off. If these configurations are removed, 
 656:src/stm32f4_discovery_audio_codec.c ****       then a long delay should be added between powering off the Codec and switching 
 657:src/stm32f4_discovery_audio_codec.c ****       off the I2S peripheral MCLK clock (which is the operating clock for Codec).
 658:src/stm32f4_discovery_audio_codec.c ****       If this delay is not inserted, then the codec will not shut down properly and
 659:src/stm32f4_discovery_audio_codec.c ****       it results in high noise after shut down. */
 660:src/stm32f4_discovery_audio_codec.c ****   
 661:src/stm32f4_discovery_audio_codec.c ****   /* Disable the analog soft ramp */
 662:src/stm32f4_discovery_audio_codec.c ****   counter += Codec_WriteRegister(0x0A, 0x00);
 663:src/stm32f4_discovery_audio_codec.c ****   if (CurrAudioInterface != AUDIO_INTERFACE_DAC)
 664:src/stm32f4_discovery_audio_codec.c ****   {  
 665:src/stm32f4_discovery_audio_codec.c ****     /* Disable the digital soft ramp */
 666:src/stm32f4_discovery_audio_codec.c ****     counter += Codec_WriteRegister(0x0E, 0x04);
 667:src/stm32f4_discovery_audio_codec.c ****   }
 668:src/stm32f4_discovery_audio_codec.c ****   /* Disable the limiter attack level */
 669:src/stm32f4_discovery_audio_codec.c ****   counter += Codec_WriteRegister(0x27, 0x00);
 670:src/stm32f4_discovery_audio_codec.c ****   /* Adjust Bass and Treble levels */
 671:src/stm32f4_discovery_audio_codec.c ****   counter += Codec_WriteRegister(0x1F, 0x0F);
 672:src/stm32f4_discovery_audio_codec.c ****   /* Adjust PCM volume level */
 673:src/stm32f4_discovery_audio_codec.c ****   counter += Codec_WriteRegister(0x1A, 0x0A);
 674:src/stm32f4_discovery_audio_codec.c ****   counter += Codec_WriteRegister(0x1B, 0x0A);
 675:src/stm32f4_discovery_audio_codec.c **** 
 676:src/stm32f4_discovery_audio_codec.c ****   /* Configure the I2S peripheral */
 677:src/stm32f4_discovery_audio_codec.c ****   Codec_AudioInterface_Init(AudioFreq);  
 678:src/stm32f4_discovery_audio_codec.c ****   
 679:src/stm32f4_discovery_audio_codec.c ****   /* Return communication control value */
 680:src/stm32f4_discovery_audio_codec.c ****   return counter;  
 681:src/stm32f4_discovery_audio_codec.c **** }
 682:src/stm32f4_discovery_audio_codec.c **** 
 683:src/stm32f4_discovery_audio_codec.c **** /**
ARM GAS  C:\Users\CNous\AppData\Local\Temp\ccPT5vWC.s 			page 16


 684:src/stm32f4_discovery_audio_codec.c ****   * @brief  Restore the audio codec state to default state and free all used 
 685:src/stm32f4_discovery_audio_codec.c ****   *         resources.
 686:src/stm32f4_discovery_audio_codec.c ****   * @param  None
 687:src/stm32f4_discovery_audio_codec.c ****   * @retval 0 if correct communication, else wrong communication
 688:src/stm32f4_discovery_audio_codec.c ****   */
 689:src/stm32f4_discovery_audio_codec.c **** static uint32_t Codec_DeInit(void)
 690:src/stm32f4_discovery_audio_codec.c **** {
 691:src/stm32f4_discovery_audio_codec.c ****   uint32_t counter = 0; 
 692:src/stm32f4_discovery_audio_codec.c **** 
 693:src/stm32f4_discovery_audio_codec.c ****   /* Reset the Codec Registers */
 694:src/stm32f4_discovery_audio_codec.c ****   Codec_Reset();  
 695:src/stm32f4_discovery_audio_codec.c ****   
 696:src/stm32f4_discovery_audio_codec.c ****   /* Keep Codec powered OFF */
 697:src/stm32f4_discovery_audio_codec.c ****   counter += Codec_WriteRegister(0x02, 0x01);    
 698:src/stm32f4_discovery_audio_codec.c ****   
 699:src/stm32f4_discovery_audio_codec.c ****   /* Deinitialize all use GPIOs */
 700:src/stm32f4_discovery_audio_codec.c ****   Codec_GPIO_DeInit();
 701:src/stm32f4_discovery_audio_codec.c **** 
 702:src/stm32f4_discovery_audio_codec.c ****   /* Disable the Codec control interface */
 703:src/stm32f4_discovery_audio_codec.c ****   Codec_CtrlInterface_DeInit();
 704:src/stm32f4_discovery_audio_codec.c ****   
 705:src/stm32f4_discovery_audio_codec.c ****   /* Deinitialize the Codec audio interface (I2S) */
 706:src/stm32f4_discovery_audio_codec.c ****   Codec_AudioInterface_DeInit(); 
 707:src/stm32f4_discovery_audio_codec.c ****   
 708:src/stm32f4_discovery_audio_codec.c ****   /* Return communication control value */
 709:src/stm32f4_discovery_audio_codec.c ****   return counter;  
 710:src/stm32f4_discovery_audio_codec.c **** }
 711:src/stm32f4_discovery_audio_codec.c **** 
 712:src/stm32f4_discovery_audio_codec.c **** /**
 713:src/stm32f4_discovery_audio_codec.c ****   * @brief  Start the audio Codec play feature.
 714:src/stm32f4_discovery_audio_codec.c ****   * @note   For this codec no Play options are required.
 715:src/stm32f4_discovery_audio_codec.c ****   * @param  None
 716:src/stm32f4_discovery_audio_codec.c ****   * @retval 0 if correct communication, else wrong communication
 717:src/stm32f4_discovery_audio_codec.c ****   */
 718:src/stm32f4_discovery_audio_codec.c **** static uint32_t Codec_Play(void)
 719:src/stm32f4_discovery_audio_codec.c **** {
 720:src/stm32f4_discovery_audio_codec.c ****   /* 
 721:src/stm32f4_discovery_audio_codec.c ****      No actions required on Codec level for play command
 722:src/stm32f4_discovery_audio_codec.c ****      */  
 723:src/stm32f4_discovery_audio_codec.c **** 
 724:src/stm32f4_discovery_audio_codec.c ****   /* Return communication control value */
 725:src/stm32f4_discovery_audio_codec.c ****   return 0;  
 726:src/stm32f4_discovery_audio_codec.c **** }
 727:src/stm32f4_discovery_audio_codec.c **** 
 728:src/stm32f4_discovery_audio_codec.c **** /**
 729:src/stm32f4_discovery_audio_codec.c ****   * @brief  Pauses and resumes playing on the audio codec.
 730:src/stm32f4_discovery_audio_codec.c ****   * @param  Cmd: AUDIO_PAUSE (or 0) to pause, AUDIO_RESUME (or any value different
 731:src/stm32f4_discovery_audio_codec.c ****   *         from 0) to resume. 
 732:src/stm32f4_discovery_audio_codec.c ****   * @retval 0 if correct communication, else wrong communication
 733:src/stm32f4_discovery_audio_codec.c ****   */
 734:src/stm32f4_discovery_audio_codec.c **** static uint32_t Codec_PauseResume(uint32_t Cmd)
 735:src/stm32f4_discovery_audio_codec.c **** {
 736:src/stm32f4_discovery_audio_codec.c ****   uint32_t counter = 0;   
 737:src/stm32f4_discovery_audio_codec.c ****   
 738:src/stm32f4_discovery_audio_codec.c ****   /* Pause the audio file playing */
 739:src/stm32f4_discovery_audio_codec.c ****   if (Cmd == AUDIO_PAUSE)
 740:src/stm32f4_discovery_audio_codec.c ****   { 
ARM GAS  C:\Users\CNous\AppData\Local\Temp\ccPT5vWC.s 			page 17


 741:src/stm32f4_discovery_audio_codec.c ****     /* Mute the output first */
 742:src/stm32f4_discovery_audio_codec.c ****     counter += Codec_Mute(AUDIO_MUTE_ON);
 743:src/stm32f4_discovery_audio_codec.c **** 
 744:src/stm32f4_discovery_audio_codec.c ****     /* Put the Codec in Power save mode */    
 745:src/stm32f4_discovery_audio_codec.c ****     counter += Codec_WriteRegister(0x02, 0x01);    
 746:src/stm32f4_discovery_audio_codec.c ****   }
 747:src/stm32f4_discovery_audio_codec.c ****   else /* AUDIO_RESUME */
 748:src/stm32f4_discovery_audio_codec.c ****   {
 749:src/stm32f4_discovery_audio_codec.c ****     /* Unmute the output first */
 750:src/stm32f4_discovery_audio_codec.c ****     counter += Codec_Mute(AUDIO_MUTE_OFF);
 751:src/stm32f4_discovery_audio_codec.c ****     
 752:src/stm32f4_discovery_audio_codec.c ****     counter += Codec_WriteRegister(0x04, OutputDev);
 753:src/stm32f4_discovery_audio_codec.c ****     
 754:src/stm32f4_discovery_audio_codec.c ****     /* Exit the Power save mode */
 755:src/stm32f4_discovery_audio_codec.c ****     counter += Codec_WriteRegister(0x02, 0x9E); 
 756:src/stm32f4_discovery_audio_codec.c ****   }
 757:src/stm32f4_discovery_audio_codec.c **** 
 758:src/stm32f4_discovery_audio_codec.c ****   return counter;
 759:src/stm32f4_discovery_audio_codec.c **** }
 760:src/stm32f4_discovery_audio_codec.c **** 
 761:src/stm32f4_discovery_audio_codec.c **** /**
 762:src/stm32f4_discovery_audio_codec.c ****   * @brief  Stops audio Codec playing. It powers down the codec.
 763:src/stm32f4_discovery_audio_codec.c ****   * @param  CodecPdwnMode: selects the  power down mode.
 764:src/stm32f4_discovery_audio_codec.c ****   *          - CODEC_PDWN_SW: only mutes the audio codec. When resuming from this 
 765:src/stm32f4_discovery_audio_codec.c ****   *                           mode the codec keeps the previous initialization
 766:src/stm32f4_discovery_audio_codec.c ****   *                           (no need to re-Initialize the codec registers).
 767:src/stm32f4_discovery_audio_codec.c ****   *          - CODEC_PDWN_HW: Physically power down the codec. When resuming from this
 768:src/stm32f4_discovery_audio_codec.c ****   *                           mode, the codec is set to default configuration 
 769:src/stm32f4_discovery_audio_codec.c ****   *                           (user should re-Initialize the codec in order to 
 770:src/stm32f4_discovery_audio_codec.c ****   *                            play again the audio stream).
 771:src/stm32f4_discovery_audio_codec.c ****   * @retval 0 if correct communication, else wrong communication
 772:src/stm32f4_discovery_audio_codec.c ****   */
 773:src/stm32f4_discovery_audio_codec.c **** static uint32_t Codec_Stop(uint32_t CodecPdwnMode)
 774:src/stm32f4_discovery_audio_codec.c **** {
 775:src/stm32f4_discovery_audio_codec.c ****   uint32_t counter = 0;   
 776:src/stm32f4_discovery_audio_codec.c **** 
 777:src/stm32f4_discovery_audio_codec.c ****   /* Mute the output first */
 778:src/stm32f4_discovery_audio_codec.c ****   Codec_Mute(AUDIO_MUTE_ON);
 779:src/stm32f4_discovery_audio_codec.c ****   
 780:src/stm32f4_discovery_audio_codec.c ****   if (CodecPdwnMode == CODEC_PDWN_SW)
 781:src/stm32f4_discovery_audio_codec.c ****   {    
 782:src/stm32f4_discovery_audio_codec.c ****     /* Power down the DAC and the speaker (PMDAC and PMSPK bits)*/
 783:src/stm32f4_discovery_audio_codec.c ****     counter += Codec_WriteRegister(0x02, 0x9F);
 784:src/stm32f4_discovery_audio_codec.c ****   }
 785:src/stm32f4_discovery_audio_codec.c ****   else /* CODEC_PDWN_HW */
 786:src/stm32f4_discovery_audio_codec.c ****   { 
 787:src/stm32f4_discovery_audio_codec.c ****     /* Power down the DAC components */
 788:src/stm32f4_discovery_audio_codec.c ****     counter += Codec_WriteRegister(0x02, 0x9F);
 789:src/stm32f4_discovery_audio_codec.c ****     
 790:src/stm32f4_discovery_audio_codec.c ****     /* Wait at least 100us */
 791:src/stm32f4_discovery_audio_codec.c ****     Delay(0xFFF);
 792:src/stm32f4_discovery_audio_codec.c ****     
 793:src/stm32f4_discovery_audio_codec.c ****     /* Reset The pin */
 794:src/stm32f4_discovery_audio_codec.c ****     GPIO_WriteBit(AUDIO_RESET_GPIO, AUDIO_RESET_PIN, Bit_RESET);
 795:src/stm32f4_discovery_audio_codec.c ****   }
 796:src/stm32f4_discovery_audio_codec.c ****   
 797:src/stm32f4_discovery_audio_codec.c ****   return counter;    
ARM GAS  C:\Users\CNous\AppData\Local\Temp\ccPT5vWC.s 			page 18


 798:src/stm32f4_discovery_audio_codec.c **** }
 799:src/stm32f4_discovery_audio_codec.c **** 
 800:src/stm32f4_discovery_audio_codec.c **** /**
 801:src/stm32f4_discovery_audio_codec.c ****   * @brief  Sets higher or lower the codec volume level.
 802:src/stm32f4_discovery_audio_codec.c ****   * @param  Volume: a byte value from 0 to 255 (refer to codec registers 
 803:src/stm32f4_discovery_audio_codec.c ****   *         description for more details).
 804:src/stm32f4_discovery_audio_codec.c ****   * @retval 0 if correct communication, else wrong communication
 805:src/stm32f4_discovery_audio_codec.c ****   */
 806:src/stm32f4_discovery_audio_codec.c **** static uint32_t Codec_VolumeCtrl(uint8_t Volume)
 807:src/stm32f4_discovery_audio_codec.c **** {
 808:src/stm32f4_discovery_audio_codec.c ****   uint32_t counter = 0;
 809:src/stm32f4_discovery_audio_codec.c ****   
 810:src/stm32f4_discovery_audio_codec.c ****   if (Volume > 0xE6)
 811:src/stm32f4_discovery_audio_codec.c ****   {
 812:src/stm32f4_discovery_audio_codec.c ****     /* Set the Master volume */
 813:src/stm32f4_discovery_audio_codec.c ****     counter += Codec_WriteRegister(0x20, Volume - 0xE7); 
 814:src/stm32f4_discovery_audio_codec.c ****     counter += Codec_WriteRegister(0x21, Volume - 0xE7);     
 815:src/stm32f4_discovery_audio_codec.c ****   }
 816:src/stm32f4_discovery_audio_codec.c ****   else
 817:src/stm32f4_discovery_audio_codec.c ****   {
 818:src/stm32f4_discovery_audio_codec.c ****     /* Set the Master volume */
 819:src/stm32f4_discovery_audio_codec.c ****     counter += Codec_WriteRegister(0x20, Volume + 0x19); 
 820:src/stm32f4_discovery_audio_codec.c ****     counter += Codec_WriteRegister(0x21, Volume + 0x19); 
 821:src/stm32f4_discovery_audio_codec.c ****   }
 822:src/stm32f4_discovery_audio_codec.c **** 
 823:src/stm32f4_discovery_audio_codec.c ****   return counter;  
 824:src/stm32f4_discovery_audio_codec.c **** }
 825:src/stm32f4_discovery_audio_codec.c **** 
 826:src/stm32f4_discovery_audio_codec.c **** /**
 827:src/stm32f4_discovery_audio_codec.c ****   * @brief  Enables or disables the mute feature on the audio codec.
 828:src/stm32f4_discovery_audio_codec.c ****   * @param  Cmd: AUDIO_MUTE_ON to enable the mute or AUDIO_MUTE_OFF to disable the
 829:src/stm32f4_discovery_audio_codec.c ****   *             mute mode.
 830:src/stm32f4_discovery_audio_codec.c ****   * @retval 0 if correct communication, else wrong communication
 831:src/stm32f4_discovery_audio_codec.c ****   */
 832:src/stm32f4_discovery_audio_codec.c **** static uint32_t Codec_Mute(uint32_t Cmd)
 833:src/stm32f4_discovery_audio_codec.c **** {
 834:src/stm32f4_discovery_audio_codec.c ****   uint32_t counter = 0;  
 835:src/stm32f4_discovery_audio_codec.c ****   
 836:src/stm32f4_discovery_audio_codec.c ****   /* Set the Mute mode */
 837:src/stm32f4_discovery_audio_codec.c ****   if (Cmd == AUDIO_MUTE_ON)
 838:src/stm32f4_discovery_audio_codec.c ****   {
 839:src/stm32f4_discovery_audio_codec.c ****     counter += Codec_WriteRegister(0x04, 0xFF);
 840:src/stm32f4_discovery_audio_codec.c ****   }
 841:src/stm32f4_discovery_audio_codec.c ****   else /* AUDIO_MUTE_OFF Disable the Mute */
 842:src/stm32f4_discovery_audio_codec.c ****   {
 843:src/stm32f4_discovery_audio_codec.c ****     counter += Codec_WriteRegister(0x04, OutputDev);
 844:src/stm32f4_discovery_audio_codec.c ****   }
 845:src/stm32f4_discovery_audio_codec.c ****   
 846:src/stm32f4_discovery_audio_codec.c ****   return counter; 
 847:src/stm32f4_discovery_audio_codec.c **** }
 848:src/stm32f4_discovery_audio_codec.c **** 
 849:src/stm32f4_discovery_audio_codec.c **** /**
 850:src/stm32f4_discovery_audio_codec.c ****   * @brief  Resets the audio codec. It restores the default configuration of the 
 851:src/stm32f4_discovery_audio_codec.c ****   *         codec (this function shall be called before initializing the codec).
 852:src/stm32f4_discovery_audio_codec.c ****   * @note   This function calls an external driver function: The IO Expander driver.
 853:src/stm32f4_discovery_audio_codec.c ****   * @param  None
 854:src/stm32f4_discovery_audio_codec.c ****   * @retval None
ARM GAS  C:\Users\CNous\AppData\Local\Temp\ccPT5vWC.s 			page 19


 855:src/stm32f4_discovery_audio_codec.c ****   */
 856:src/stm32f4_discovery_audio_codec.c **** static void Codec_Reset(void)
 857:src/stm32f4_discovery_audio_codec.c **** {
 166              		.loc 1 857 0
 167              		.cfi_startproc
 168              		@ args = 0, pretend = 0, frame = 0
 169              		@ frame_needed = 0, uses_anonymous_args = 0
 858:src/stm32f4_discovery_audio_codec.c ****   /* Power Down the codec */
 859:src/stm32f4_discovery_audio_codec.c ****   GPIO_WriteBit(AUDIO_RESET_GPIO, AUDIO_RESET_PIN, Bit_RESET);
 170              		.loc 1 859 0
 171 0000 4FF44060 		mov	r0, #3072	@,
 857:src/stm32f4_discovery_audio_codec.c **** {
 172              		.loc 1 857 0
 173 0004 08B5     		push	{r3, lr}	@
 174              	.LCFI1:
 175              		.cfi_def_cfa_offset 8
 176              		.cfi_offset 3, -8
 177              		.cfi_offset 14, -4
 178              		.loc 1 859 0
 179 0006 C4F20200 		movt	r0, 16386	@,
 180 000a 1021     		movs	r1, #16	@,
 181 000c 0022     		movs	r2, #0	@,
 182 000e FFF7FEFF 		bl	GPIO_WriteBit	@
 183              	.LVL8:
 184              	.LBB10:
 185              	.LBB11:
 860:src/stm32f4_discovery_audio_codec.c **** 
 861:src/stm32f4_discovery_audio_codec.c ****   /* wait for a delay to insure registers erasing */
 862:src/stm32f4_discovery_audio_codec.c ****   Delay(CODEC_RESET_DELAY); 
 863:src/stm32f4_discovery_audio_codec.c ****   
 864:src/stm32f4_discovery_audio_codec.c ****   /* Power on the codec */
 865:src/stm32f4_discovery_audio_codec.c ****   GPIO_WriteBit(AUDIO_RESET_GPIO, AUDIO_RESET_PIN, Bit_SET);
 866:src/stm32f4_discovery_audio_codec.c **** }
 867:src/stm32f4_discovery_audio_codec.c **** 
 868:src/stm32f4_discovery_audio_codec.c **** /**
 869:src/stm32f4_discovery_audio_codec.c ****   * @brief  Writes a Byte to a given register into the audio codec through the 
 870:src/stm32f4_discovery_audio_codec.c ****             control interface (I2C)
 871:src/stm32f4_discovery_audio_codec.c ****   * @param  RegisterAddr: The address (location) of the register to be written.
 872:src/stm32f4_discovery_audio_codec.c ****   * @param  RegisterValue: the Byte value to be written into destination register.
 873:src/stm32f4_discovery_audio_codec.c ****   * @retval 0 if correct communication, else wrong communication
 874:src/stm32f4_discovery_audio_codec.c ****   */
 875:src/stm32f4_discovery_audio_codec.c **** static uint32_t Codec_WriteRegister(uint8_t RegisterAddr, uint8_t RegisterValue)
 876:src/stm32f4_discovery_audio_codec.c **** {
 877:src/stm32f4_discovery_audio_codec.c ****   uint32_t result = 0;
 878:src/stm32f4_discovery_audio_codec.c **** 
 879:src/stm32f4_discovery_audio_codec.c ****   /*!< While the bus is busy */
 880:src/stm32f4_discovery_audio_codec.c ****   CODECTimeout = CODEC_LONG_TIMEOUT;
 881:src/stm32f4_discovery_audio_codec.c ****   while(I2C_GetFlagStatus(CODEC_I2C, I2C_FLAG_BUSY))
 882:src/stm32f4_discovery_audio_codec.c ****   {
 883:src/stm32f4_discovery_audio_codec.c ****     if((CODECTimeout--) == 0) return Codec_TIMEOUT_UserCallback();
 884:src/stm32f4_discovery_audio_codec.c ****   }
 885:src/stm32f4_discovery_audio_codec.c ****   
 886:src/stm32f4_discovery_audio_codec.c ****   /* Start the config sequence */
 887:src/stm32f4_discovery_audio_codec.c ****   I2C_GenerateSTART(CODEC_I2C, ENABLE);
 888:src/stm32f4_discovery_audio_codec.c **** 
 889:src/stm32f4_discovery_audio_codec.c ****   /* Test on EV5 and clear it */
 890:src/stm32f4_discovery_audio_codec.c ****   CODECTimeout = CODEC_FLAG_TIMEOUT;
ARM GAS  C:\Users\CNous\AppData\Local\Temp\ccPT5vWC.s 			page 20


 891:src/stm32f4_discovery_audio_codec.c ****   while (!I2C_CheckEvent(CODEC_I2C, I2C_EVENT_MASTER_MODE_SELECT))
 892:src/stm32f4_discovery_audio_codec.c ****   {
 893:src/stm32f4_discovery_audio_codec.c ****     if((CODECTimeout--) == 0) return Codec_TIMEOUT_UserCallback();
 894:src/stm32f4_discovery_audio_codec.c ****   }
 895:src/stm32f4_discovery_audio_codec.c ****   
 896:src/stm32f4_discovery_audio_codec.c ****   /* Transmit the slave address and enable writing operation */
 897:src/stm32f4_discovery_audio_codec.c ****   I2C_Send7bitAddress(CODEC_I2C, CODEC_ADDRESS, I2C_Direction_Transmitter);
 898:src/stm32f4_discovery_audio_codec.c **** 
 899:src/stm32f4_discovery_audio_codec.c ****   /* Test on EV6 and clear it */
 900:src/stm32f4_discovery_audio_codec.c ****   CODECTimeout = CODEC_FLAG_TIMEOUT;
 901:src/stm32f4_discovery_audio_codec.c ****   while (!I2C_CheckEvent(CODEC_I2C, I2C_EVENT_MASTER_TRANSMITTER_MODE_SELECTED))
 902:src/stm32f4_discovery_audio_codec.c ****   {
 903:src/stm32f4_discovery_audio_codec.c ****     if((CODECTimeout--) == 0) return Codec_TIMEOUT_UserCallback();
 904:src/stm32f4_discovery_audio_codec.c ****   }
 905:src/stm32f4_discovery_audio_codec.c **** 
 906:src/stm32f4_discovery_audio_codec.c ****   /* Transmit the first address for write operation */
 907:src/stm32f4_discovery_audio_codec.c ****   I2C_SendData(CODEC_I2C, RegisterAddr);
 908:src/stm32f4_discovery_audio_codec.c **** 
 909:src/stm32f4_discovery_audio_codec.c ****   /* Test on EV8 and clear it */
 910:src/stm32f4_discovery_audio_codec.c ****   CODECTimeout = CODEC_FLAG_TIMEOUT;
 911:src/stm32f4_discovery_audio_codec.c ****   while (!I2C_CheckEvent(CODEC_I2C, I2C_EVENT_MASTER_BYTE_TRANSMITTING))
 912:src/stm32f4_discovery_audio_codec.c ****   {
 913:src/stm32f4_discovery_audio_codec.c ****     if((CODECTimeout--) == 0) return Codec_TIMEOUT_UserCallback();
 914:src/stm32f4_discovery_audio_codec.c ****   }
 915:src/stm32f4_discovery_audio_codec.c ****   
 916:src/stm32f4_discovery_audio_codec.c ****   /* Prepare the register value to be sent */
 917:src/stm32f4_discovery_audio_codec.c ****   I2C_SendData(CODEC_I2C, RegisterValue);
 918:src/stm32f4_discovery_audio_codec.c ****   
 919:src/stm32f4_discovery_audio_codec.c ****   /*!< Wait till all data have been physically transferred on the bus */
 920:src/stm32f4_discovery_audio_codec.c ****   CODECTimeout = CODEC_LONG_TIMEOUT;
 921:src/stm32f4_discovery_audio_codec.c ****   while(!I2C_GetFlagStatus(CODEC_I2C, I2C_FLAG_BTF))
 922:src/stm32f4_discovery_audio_codec.c ****   {
 923:src/stm32f4_discovery_audio_codec.c ****     if((CODECTimeout--) == 0) Codec_TIMEOUT_UserCallback();
 924:src/stm32f4_discovery_audio_codec.c ****   }
 925:src/stm32f4_discovery_audio_codec.c ****   
 926:src/stm32f4_discovery_audio_codec.c ****   /* End the configuration sequence */
 927:src/stm32f4_discovery_audio_codec.c ****   I2C_GenerateSTOP(CODEC_I2C, ENABLE);  
 928:src/stm32f4_discovery_audio_codec.c ****   
 929:src/stm32f4_discovery_audio_codec.c **** #ifdef VERIFY_WRITTENDATA
 930:src/stm32f4_discovery_audio_codec.c ****   /* Verify that the data has been correctly written */  
 931:src/stm32f4_discovery_audio_codec.c ****   result = (Codec_ReadRegister(RegisterAddr) == RegisterValue)? 0:1;
 932:src/stm32f4_discovery_audio_codec.c **** #endif /* VERIFY_WRITTENDATA */
 933:src/stm32f4_discovery_audio_codec.c **** 
 934:src/stm32f4_discovery_audio_codec.c ****   /* Return the verifying value: 0 (Passed) or 1 (Failed) */
 935:src/stm32f4_discovery_audio_codec.c ****   return result;  
 936:src/stm32f4_discovery_audio_codec.c **** }
 937:src/stm32f4_discovery_audio_codec.c **** 
 938:src/stm32f4_discovery_audio_codec.c **** /**
 939:src/stm32f4_discovery_audio_codec.c ****   * @brief  Reads and returns the value of an audio codec register through the
 940:src/stm32f4_discovery_audio_codec.c ****   *         control interface (I2C).
 941:src/stm32f4_discovery_audio_codec.c ****   * @param  RegisterAddr: Address of the register to be read.
 942:src/stm32f4_discovery_audio_codec.c ****   * @retval Value of the register to be read or dummy value if the communication
 943:src/stm32f4_discovery_audio_codec.c ****   *         fails.
 944:src/stm32f4_discovery_audio_codec.c ****   */
 945:src/stm32f4_discovery_audio_codec.c **** static uint32_t Codec_ReadRegister(uint8_t RegisterAddr)
 946:src/stm32f4_discovery_audio_codec.c **** {
 947:src/stm32f4_discovery_audio_codec.c ****   uint32_t result = 0;
ARM GAS  C:\Users\CNous\AppData\Local\Temp\ccPT5vWC.s 			page 21


 948:src/stm32f4_discovery_audio_codec.c **** 
 949:src/stm32f4_discovery_audio_codec.c ****   /*!< While the bus is busy */
 950:src/stm32f4_discovery_audio_codec.c ****   CODECTimeout = CODEC_LONG_TIMEOUT;
 951:src/stm32f4_discovery_audio_codec.c ****   while(I2C_GetFlagStatus(CODEC_I2C, I2C_FLAG_BUSY))
 952:src/stm32f4_discovery_audio_codec.c ****   {
 953:src/stm32f4_discovery_audio_codec.c ****     if((CODECTimeout--) == 0) return Codec_TIMEOUT_UserCallback();
 954:src/stm32f4_discovery_audio_codec.c ****   }
 955:src/stm32f4_discovery_audio_codec.c ****   
 956:src/stm32f4_discovery_audio_codec.c ****   /* Start the config sequence */
 957:src/stm32f4_discovery_audio_codec.c ****   I2C_GenerateSTART(CODEC_I2C, ENABLE);
 958:src/stm32f4_discovery_audio_codec.c **** 
 959:src/stm32f4_discovery_audio_codec.c ****   /* Test on EV5 and clear it */
 960:src/stm32f4_discovery_audio_codec.c ****   CODECTimeout = CODEC_FLAG_TIMEOUT;
 961:src/stm32f4_discovery_audio_codec.c ****   while (!I2C_CheckEvent(CODEC_I2C, I2C_EVENT_MASTER_MODE_SELECT))
 962:src/stm32f4_discovery_audio_codec.c ****   {
 963:src/stm32f4_discovery_audio_codec.c ****     if((CODECTimeout--) == 0) return Codec_TIMEOUT_UserCallback();
 964:src/stm32f4_discovery_audio_codec.c ****   }
 965:src/stm32f4_discovery_audio_codec.c ****   
 966:src/stm32f4_discovery_audio_codec.c ****   /* Transmit the slave address and enable writing operation */
 967:src/stm32f4_discovery_audio_codec.c ****   I2C_Send7bitAddress(CODEC_I2C, CODEC_ADDRESS, I2C_Direction_Transmitter);
 968:src/stm32f4_discovery_audio_codec.c **** 
 969:src/stm32f4_discovery_audio_codec.c ****   /* Test on EV6 and clear it */
 970:src/stm32f4_discovery_audio_codec.c ****   CODECTimeout = CODEC_FLAG_TIMEOUT;
 971:src/stm32f4_discovery_audio_codec.c ****   while (!I2C_CheckEvent(CODEC_I2C, I2C_EVENT_MASTER_TRANSMITTER_MODE_SELECTED))
 972:src/stm32f4_discovery_audio_codec.c ****   {
 973:src/stm32f4_discovery_audio_codec.c ****     if((CODECTimeout--) == 0) return Codec_TIMEOUT_UserCallback();
 974:src/stm32f4_discovery_audio_codec.c ****   }
 975:src/stm32f4_discovery_audio_codec.c **** 
 976:src/stm32f4_discovery_audio_codec.c ****   /* Transmit the register address to be read */
 977:src/stm32f4_discovery_audio_codec.c ****   I2C_SendData(CODEC_I2C, RegisterAddr);
 978:src/stm32f4_discovery_audio_codec.c **** 
 979:src/stm32f4_discovery_audio_codec.c ****   /* Test on EV8 and clear it */
 980:src/stm32f4_discovery_audio_codec.c ****   CODECTimeout = CODEC_FLAG_TIMEOUT;
 981:src/stm32f4_discovery_audio_codec.c ****   while (I2C_GetFlagStatus(CODEC_I2C, I2C_FLAG_BTF) == RESET)
 982:src/stm32f4_discovery_audio_codec.c ****   {
 983:src/stm32f4_discovery_audio_codec.c ****     if((CODECTimeout--) == 0) return Codec_TIMEOUT_UserCallback();
 984:src/stm32f4_discovery_audio_codec.c ****   }
 985:src/stm32f4_discovery_audio_codec.c ****   
 986:src/stm32f4_discovery_audio_codec.c ****   /*!< Send START condition a second time */  
 987:src/stm32f4_discovery_audio_codec.c ****   I2C_GenerateSTART(CODEC_I2C, ENABLE);
 988:src/stm32f4_discovery_audio_codec.c ****   
 989:src/stm32f4_discovery_audio_codec.c ****   /*!< Test on EV5 and clear it (cleared by reading SR1 then writing to DR) */
 990:src/stm32f4_discovery_audio_codec.c ****   CODECTimeout = CODEC_FLAG_TIMEOUT;
 991:src/stm32f4_discovery_audio_codec.c ****   while(!I2C_CheckEvent(CODEC_I2C, I2C_EVENT_MASTER_MODE_SELECT))
 992:src/stm32f4_discovery_audio_codec.c ****   {
 993:src/stm32f4_discovery_audio_codec.c ****     if((CODECTimeout--) == 0) return Codec_TIMEOUT_UserCallback();
 994:src/stm32f4_discovery_audio_codec.c ****   } 
 995:src/stm32f4_discovery_audio_codec.c ****   
 996:src/stm32f4_discovery_audio_codec.c ****   /*!< Send Codec address for read */
 997:src/stm32f4_discovery_audio_codec.c ****   I2C_Send7bitAddress(CODEC_I2C, CODEC_ADDRESS, I2C_Direction_Receiver);  
 998:src/stm32f4_discovery_audio_codec.c ****   
 999:src/stm32f4_discovery_audio_codec.c ****   /* Wait on ADDR flag to be set (ADDR is still not cleared at this level */
1000:src/stm32f4_discovery_audio_codec.c ****   CODECTimeout = CODEC_FLAG_TIMEOUT;
1001:src/stm32f4_discovery_audio_codec.c ****   while(I2C_GetFlagStatus(CODEC_I2C, I2C_FLAG_ADDR) == RESET)
1002:src/stm32f4_discovery_audio_codec.c ****   {
1003:src/stm32f4_discovery_audio_codec.c ****     if((CODECTimeout--) == 0) return Codec_TIMEOUT_UserCallback();
1004:src/stm32f4_discovery_audio_codec.c ****   }     
ARM GAS  C:\Users\CNous\AppData\Local\Temp\ccPT5vWC.s 			page 22


1005:src/stm32f4_discovery_audio_codec.c ****   
1006:src/stm32f4_discovery_audio_codec.c ****   /*!< Disable Acknowledgment */
1007:src/stm32f4_discovery_audio_codec.c ****   I2C_AcknowledgeConfig(CODEC_I2C, DISABLE);   
1008:src/stm32f4_discovery_audio_codec.c ****   
1009:src/stm32f4_discovery_audio_codec.c ****   /* Clear ADDR register by reading SR1 then SR2 register (SR1 has already been read) */
1010:src/stm32f4_discovery_audio_codec.c ****   (void)CODEC_I2C->SR2;
1011:src/stm32f4_discovery_audio_codec.c ****   
1012:src/stm32f4_discovery_audio_codec.c ****   /*!< Send STOP Condition */
1013:src/stm32f4_discovery_audio_codec.c ****   I2C_GenerateSTOP(CODEC_I2C, ENABLE);
1014:src/stm32f4_discovery_audio_codec.c ****   
1015:src/stm32f4_discovery_audio_codec.c ****   /* Wait for the byte to be received */
1016:src/stm32f4_discovery_audio_codec.c ****   CODECTimeout = CODEC_FLAG_TIMEOUT;
1017:src/stm32f4_discovery_audio_codec.c ****   while(I2C_GetFlagStatus(CODEC_I2C, I2C_FLAG_RXNE) == RESET)
1018:src/stm32f4_discovery_audio_codec.c ****   {
1019:src/stm32f4_discovery_audio_codec.c ****     if((CODECTimeout--) == 0) return Codec_TIMEOUT_UserCallback();
1020:src/stm32f4_discovery_audio_codec.c ****   }
1021:src/stm32f4_discovery_audio_codec.c ****   
1022:src/stm32f4_discovery_audio_codec.c ****   /*!< Read the byte received from the Codec */
1023:src/stm32f4_discovery_audio_codec.c ****   result = I2C_ReceiveData(CODEC_I2C);
1024:src/stm32f4_discovery_audio_codec.c ****   
1025:src/stm32f4_discovery_audio_codec.c ****   /* Wait to make sure that STOP flag has been cleared */
1026:src/stm32f4_discovery_audio_codec.c ****   CODECTimeout = CODEC_FLAG_TIMEOUT;
1027:src/stm32f4_discovery_audio_codec.c ****   while(CODEC_I2C->CR1 & I2C_CR1_STOP)
1028:src/stm32f4_discovery_audio_codec.c ****   {
1029:src/stm32f4_discovery_audio_codec.c ****     if((CODECTimeout--) == 0) return Codec_TIMEOUT_UserCallback();
1030:src/stm32f4_discovery_audio_codec.c ****   }  
1031:src/stm32f4_discovery_audio_codec.c ****   
1032:src/stm32f4_discovery_audio_codec.c ****   /*!< Re-Enable Acknowledgment to be ready for another reception */
1033:src/stm32f4_discovery_audio_codec.c ****   I2C_AcknowledgeConfig(CODEC_I2C, ENABLE);  
1034:src/stm32f4_discovery_audio_codec.c ****   
1035:src/stm32f4_discovery_audio_codec.c ****   /* Clear AF flag for next communication */
1036:src/stm32f4_discovery_audio_codec.c ****   I2C_ClearFlag(CODEC_I2C, I2C_FLAG_AF); 
1037:src/stm32f4_discovery_audio_codec.c ****   
1038:src/stm32f4_discovery_audio_codec.c ****   /* Return the byte read from Codec */
1039:src/stm32f4_discovery_audio_codec.c ****   return result;
1040:src/stm32f4_discovery_audio_codec.c **** }
1041:src/stm32f4_discovery_audio_codec.c **** 
1042:src/stm32f4_discovery_audio_codec.c **** /**
1043:src/stm32f4_discovery_audio_codec.c ****   * @brief  Initializes the Audio Codec control interface (I2C).
1044:src/stm32f4_discovery_audio_codec.c ****   * @param  None
1045:src/stm32f4_discovery_audio_codec.c ****   * @retval None
1046:src/stm32f4_discovery_audio_codec.c ****   */
1047:src/stm32f4_discovery_audio_codec.c **** static void Codec_CtrlInterface_Init(void)
1048:src/stm32f4_discovery_audio_codec.c **** {
1049:src/stm32f4_discovery_audio_codec.c ****   I2C_InitTypeDef I2C_InitStructure;
1050:src/stm32f4_discovery_audio_codec.c ****   
1051:src/stm32f4_discovery_audio_codec.c ****   /* Enable the CODEC_I2C peripheral clock */
1052:src/stm32f4_discovery_audio_codec.c ****   RCC_APB1PeriphClockCmd(CODEC_I2C_CLK, ENABLE);
1053:src/stm32f4_discovery_audio_codec.c ****   
1054:src/stm32f4_discovery_audio_codec.c ****   /* CODEC_I2C peripheral configuration */
1055:src/stm32f4_discovery_audio_codec.c ****   I2C_DeInit(CODEC_I2C);
1056:src/stm32f4_discovery_audio_codec.c ****   I2C_InitStructure.I2C_Mode = I2C_Mode_I2C;
1057:src/stm32f4_discovery_audio_codec.c ****   I2C_InitStructure.I2C_DutyCycle = I2C_DutyCycle_2;
1058:src/stm32f4_discovery_audio_codec.c ****   I2C_InitStructure.I2C_OwnAddress1 = 0x33;
1059:src/stm32f4_discovery_audio_codec.c ****   I2C_InitStructure.I2C_Ack = I2C_Ack_Enable;
1060:src/stm32f4_discovery_audio_codec.c ****   I2C_InitStructure.I2C_AcknowledgedAddress = I2C_AcknowledgedAddress_7bit;
1061:src/stm32f4_discovery_audio_codec.c ****   I2C_InitStructure.I2C_ClockSpeed = I2C_SPEED;
ARM GAS  C:\Users\CNous\AppData\Local\Temp\ccPT5vWC.s 			page 23


1062:src/stm32f4_discovery_audio_codec.c ****   /* Enable the I2C peripheral */
1063:src/stm32f4_discovery_audio_codec.c ****   I2C_Cmd(CODEC_I2C, ENABLE);  
1064:src/stm32f4_discovery_audio_codec.c ****   I2C_Init(CODEC_I2C, &I2C_InitStructure);
1065:src/stm32f4_discovery_audio_codec.c **** }
1066:src/stm32f4_discovery_audio_codec.c **** 
1067:src/stm32f4_discovery_audio_codec.c **** /**
1068:src/stm32f4_discovery_audio_codec.c ****   * @brief  Restore the Audio Codec control interface to its default state.
1069:src/stm32f4_discovery_audio_codec.c ****   *         This function doesn't de-initialize the I2C because the I2C peripheral
1070:src/stm32f4_discovery_audio_codec.c ****   *         may be used by other modules.
1071:src/stm32f4_discovery_audio_codec.c ****   * @param  None
1072:src/stm32f4_discovery_audio_codec.c ****   * @retval None
1073:src/stm32f4_discovery_audio_codec.c ****   */
1074:src/stm32f4_discovery_audio_codec.c **** static void Codec_CtrlInterface_DeInit(void)
1075:src/stm32f4_discovery_audio_codec.c **** {
1076:src/stm32f4_discovery_audio_codec.c ****   /* Disable the I2C peripheral */ /* This step is not done here because 
1077:src/stm32f4_discovery_audio_codec.c ****      the I2C interface can be used by other modules */
1078:src/stm32f4_discovery_audio_codec.c ****   /* I2C_DeInit(CODEC_I2C); */
1079:src/stm32f4_discovery_audio_codec.c **** }
1080:src/stm32f4_discovery_audio_codec.c **** 
1081:src/stm32f4_discovery_audio_codec.c **** /**
1082:src/stm32f4_discovery_audio_codec.c ****   * @brief  Initializes the Audio Codec audio interface (I2S)
1083:src/stm32f4_discovery_audio_codec.c ****   * @note   This function assumes that the I2S input clock (through PLL_R in 
1084:src/stm32f4_discovery_audio_codec.c ****   *         Devices RevA/Z and through dedicated PLLI2S_R in Devices RevB/Y)
1085:src/stm32f4_discovery_audio_codec.c ****   *         is already configured and ready to be used.    
1086:src/stm32f4_discovery_audio_codec.c ****   * @param  AudioFreq: Audio frequency to be configured for the I2S peripheral. 
1087:src/stm32f4_discovery_audio_codec.c ****   * @retval None
1088:src/stm32f4_discovery_audio_codec.c ****   */
1089:src/stm32f4_discovery_audio_codec.c **** static void Codec_AudioInterface_Init(uint32_t AudioFreq)
1090:src/stm32f4_discovery_audio_codec.c **** {
1091:src/stm32f4_discovery_audio_codec.c ****   I2S_InitTypeDef I2S_InitStructure;
1092:src/stm32f4_discovery_audio_codec.c ****   DAC_InitTypeDef  DAC_InitStructure;
1093:src/stm32f4_discovery_audio_codec.c **** 
1094:src/stm32f4_discovery_audio_codec.c ****   /* Enable the CODEC_I2S peripheral clock */
1095:src/stm32f4_discovery_audio_codec.c ****   RCC_APB1PeriphClockCmd(CODEC_I2S_CLK, ENABLE);
1096:src/stm32f4_discovery_audio_codec.c ****   
1097:src/stm32f4_discovery_audio_codec.c ****   /* CODEC_I2S peripheral configuration */
1098:src/stm32f4_discovery_audio_codec.c ****   SPI_I2S_DeInit(CODEC_I2S);
1099:src/stm32f4_discovery_audio_codec.c ****   I2S_InitStructure.I2S_AudioFreq = AudioFreq;
1100:src/stm32f4_discovery_audio_codec.c ****   I2S_InitStructure.I2S_Standard = I2S_STANDARD;
1101:src/stm32f4_discovery_audio_codec.c ****   I2S_InitStructure.I2S_DataFormat = I2S_DataFormat_16b;
1102:src/stm32f4_discovery_audio_codec.c ****   I2S_InitStructure.I2S_CPOL = I2S_CPOL_Low;
1103:src/stm32f4_discovery_audio_codec.c **** #ifdef DAC_USE_I2S_DMA
1104:src/stm32f4_discovery_audio_codec.c ****   if (CurrAudioInterface == AUDIO_INTERFACE_DAC)
1105:src/stm32f4_discovery_audio_codec.c ****   {  
1106:src/stm32f4_discovery_audio_codec.c ****     I2S_InitStructure.I2S_Mode = I2S_Mode_MasterRx;
1107:src/stm32f4_discovery_audio_codec.c ****   }
1108:src/stm32f4_discovery_audio_codec.c ****   else
1109:src/stm32f4_discovery_audio_codec.c ****   {
1110:src/stm32f4_discovery_audio_codec.c **** #else
1111:src/stm32f4_discovery_audio_codec.c ****    I2S_InitStructure.I2S_Mode = I2S_Mode_MasterTx;
1112:src/stm32f4_discovery_audio_codec.c **** #endif
1113:src/stm32f4_discovery_audio_codec.c **** #ifdef DAC_USE_I2S_DMA
1114:src/stm32f4_discovery_audio_codec.c ****   }
1115:src/stm32f4_discovery_audio_codec.c **** #endif /* DAC_USE_I2S_DMA */
1116:src/stm32f4_discovery_audio_codec.c **** #ifdef CODEC_MCLK_ENABLED
1117:src/stm32f4_discovery_audio_codec.c ****   I2S_InitStructure.I2S_MCLKOutput = I2S_MCLKOutput_Enable;
1118:src/stm32f4_discovery_audio_codec.c **** #elif defined(CODEC_MCLK_DISABLED)
ARM GAS  C:\Users\CNous\AppData\Local\Temp\ccPT5vWC.s 			page 24


1119:src/stm32f4_discovery_audio_codec.c ****   I2S_InitStructure.I2S_MCLKOutput = I2S_MCLKOutput_Disable;
1120:src/stm32f4_discovery_audio_codec.c **** #else
1121:src/stm32f4_discovery_audio_codec.c **** #error "No selection for the MCLK output has been defined !"
1122:src/stm32f4_discovery_audio_codec.c **** #endif /* CODEC_MCLK_ENABLED */
1123:src/stm32f4_discovery_audio_codec.c ****   
1124:src/stm32f4_discovery_audio_codec.c ****   /* Initialize the I2S peripheral with the structure above */
1125:src/stm32f4_discovery_audio_codec.c ****   I2S_Init(CODEC_I2S, &I2S_InitStructure);
1126:src/stm32f4_discovery_audio_codec.c **** 
1127:src/stm32f4_discovery_audio_codec.c **** 
1128:src/stm32f4_discovery_audio_codec.c ****   /* Configure the DAC interface */
1129:src/stm32f4_discovery_audio_codec.c ****   if (CurrAudioInterface == AUDIO_INTERFACE_DAC)
1130:src/stm32f4_discovery_audio_codec.c ****   {    
1131:src/stm32f4_discovery_audio_codec.c ****     /* DAC Periph clock enable */
1132:src/stm32f4_discovery_audio_codec.c ****     RCC_APB1PeriphClockCmd(RCC_APB1Periph_DAC, ENABLE);
1133:src/stm32f4_discovery_audio_codec.c ****     
1134:src/stm32f4_discovery_audio_codec.c ****     /* DAC channel1 Configuration */
1135:src/stm32f4_discovery_audio_codec.c ****     DAC_InitStructure.DAC_Trigger = DAC_Trigger_None;
1136:src/stm32f4_discovery_audio_codec.c ****     DAC_InitStructure.DAC_WaveGeneration = DAC_WaveGeneration_None;
1137:src/stm32f4_discovery_audio_codec.c ****     DAC_InitStructure.DAC_OutputBuffer = DAC_OutputBuffer_Enable;
1138:src/stm32f4_discovery_audio_codec.c ****     DAC_Init(AUDIO_DAC_CHANNEL, &DAC_InitStructure);
1139:src/stm32f4_discovery_audio_codec.c ****     
1140:src/stm32f4_discovery_audio_codec.c ****     /* Enable DAC Channel1 */
1141:src/stm32f4_discovery_audio_codec.c ****     DAC_Cmd(AUDIO_DAC_CHANNEL, ENABLE);  
1142:src/stm32f4_discovery_audio_codec.c ****   }
1143:src/stm32f4_discovery_audio_codec.c ****   
1144:src/stm32f4_discovery_audio_codec.c ****   /* The I2S peripheral will be enabled only in the EVAL_AUDIO_Play() function 
1145:src/stm32f4_discovery_audio_codec.c ****        or by user functions if DMA mode not enabled */  
1146:src/stm32f4_discovery_audio_codec.c **** }
1147:src/stm32f4_discovery_audio_codec.c **** 
1148:src/stm32f4_discovery_audio_codec.c **** /**
1149:src/stm32f4_discovery_audio_codec.c ****   * @brief  Restores the Audio Codec audio interface to its default state.
1150:src/stm32f4_discovery_audio_codec.c ****   * @param  None
1151:src/stm32f4_discovery_audio_codec.c ****   * @retval None
1152:src/stm32f4_discovery_audio_codec.c ****   */
1153:src/stm32f4_discovery_audio_codec.c **** static void Codec_AudioInterface_DeInit(void)
1154:src/stm32f4_discovery_audio_codec.c **** {
1155:src/stm32f4_discovery_audio_codec.c ****   /* Disable the CODEC_I2S peripheral (in case it hasn't already been disabled) */
1156:src/stm32f4_discovery_audio_codec.c ****   I2S_Cmd(CODEC_I2S, DISABLE);
1157:src/stm32f4_discovery_audio_codec.c ****   
1158:src/stm32f4_discovery_audio_codec.c ****   /* Deinitialize the CODEC_I2S peripheral */
1159:src/stm32f4_discovery_audio_codec.c ****   SPI_I2S_DeInit(CODEC_I2S);
1160:src/stm32f4_discovery_audio_codec.c ****   
1161:src/stm32f4_discovery_audio_codec.c ****   /* Disable the CODEC_I2S peripheral clock */
1162:src/stm32f4_discovery_audio_codec.c ****   RCC_APB1PeriphClockCmd(CODEC_I2S_CLK, DISABLE); 
1163:src/stm32f4_discovery_audio_codec.c **** }
1164:src/stm32f4_discovery_audio_codec.c **** 
1165:src/stm32f4_discovery_audio_codec.c **** /**
1166:src/stm32f4_discovery_audio_codec.c ****   * @brief Initializes IOs used by the Audio Codec (on the control and audio 
1167:src/stm32f4_discovery_audio_codec.c ****   *        interfaces).
1168:src/stm32f4_discovery_audio_codec.c ****   * @param  None
1169:src/stm32f4_discovery_audio_codec.c ****   * @retval None
1170:src/stm32f4_discovery_audio_codec.c ****   */
1171:src/stm32f4_discovery_audio_codec.c **** static void Codec_GPIO_Init(void)
1172:src/stm32f4_discovery_audio_codec.c **** {
1173:src/stm32f4_discovery_audio_codec.c ****   GPIO_InitTypeDef GPIO_InitStructure;
1174:src/stm32f4_discovery_audio_codec.c ****   
1175:src/stm32f4_discovery_audio_codec.c ****   /* Enable Reset GPIO Clock */
ARM GAS  C:\Users\CNous\AppData\Local\Temp\ccPT5vWC.s 			page 25


1176:src/stm32f4_discovery_audio_codec.c ****   RCC_AHB1PeriphClockCmd(AUDIO_RESET_GPIO_CLK,ENABLE);
1177:src/stm32f4_discovery_audio_codec.c ****   
1178:src/stm32f4_discovery_audio_codec.c ****   /* Audio reset pin configuration -------------------------------------------------*/
1179:src/stm32f4_discovery_audio_codec.c ****   GPIO_InitStructure.GPIO_Pin = AUDIO_RESET_PIN; 
1180:src/stm32f4_discovery_audio_codec.c ****   GPIO_InitStructure.GPIO_Mode = GPIO_Mode_OUT;
1181:src/stm32f4_discovery_audio_codec.c ****   GPIO_InitStructure.GPIO_Speed = GPIO_Speed_50MHz;
1182:src/stm32f4_discovery_audio_codec.c ****   GPIO_InitStructure.GPIO_OType = GPIO_OType_PP;
1183:src/stm32f4_discovery_audio_codec.c ****   GPIO_InitStructure.GPIO_PuPd  = GPIO_PuPd_NOPULL;
1184:src/stm32f4_discovery_audio_codec.c ****   GPIO_Init(AUDIO_RESET_GPIO, &GPIO_InitStructure);    
1185:src/stm32f4_discovery_audio_codec.c ****   
1186:src/stm32f4_discovery_audio_codec.c ****   /* Enable I2S and I2C GPIO clocks */
1187:src/stm32f4_discovery_audio_codec.c ****   RCC_AHB1PeriphClockCmd(CODEC_I2C_GPIO_CLOCK | CODEC_I2S_GPIO_CLOCK, ENABLE);
1188:src/stm32f4_discovery_audio_codec.c **** 
1189:src/stm32f4_discovery_audio_codec.c ****   /* CODEC_I2C SCL and SDA pins configuration -------------------------------------*/
1190:src/stm32f4_discovery_audio_codec.c ****   GPIO_InitStructure.GPIO_Pin = CODEC_I2C_SCL_PIN | CODEC_I2C_SDA_PIN; 
1191:src/stm32f4_discovery_audio_codec.c ****   GPIO_InitStructure.GPIO_Mode = GPIO_Mode_AF;
1192:src/stm32f4_discovery_audio_codec.c ****   GPIO_InitStructure.GPIO_Speed = GPIO_Speed_50MHz;
1193:src/stm32f4_discovery_audio_codec.c ****   GPIO_InitStructure.GPIO_OType = GPIO_OType_OD;
1194:src/stm32f4_discovery_audio_codec.c ****   GPIO_InitStructure.GPIO_PuPd  = GPIO_PuPd_NOPULL;
1195:src/stm32f4_discovery_audio_codec.c ****   GPIO_Init(CODEC_I2C_GPIO, &GPIO_InitStructure);     
1196:src/stm32f4_discovery_audio_codec.c ****   /* Connect pins to I2C peripheral */
1197:src/stm32f4_discovery_audio_codec.c ****   GPIO_PinAFConfig(CODEC_I2C_GPIO, CODEC_I2S_SCL_PINSRC, CODEC_I2C_GPIO_AF);  
1198:src/stm32f4_discovery_audio_codec.c ****   GPIO_PinAFConfig(CODEC_I2C_GPIO, CODEC_I2S_SDA_PINSRC, CODEC_I2C_GPIO_AF);  
1199:src/stm32f4_discovery_audio_codec.c **** 
1200:src/stm32f4_discovery_audio_codec.c ****   /* CODEC_I2S pins configuration: WS, SCK and SD pins -----------------------------*/
1201:src/stm32f4_discovery_audio_codec.c ****   GPIO_InitStructure.GPIO_Pin = CODEC_I2S_SCK_PIN | CODEC_I2S_SD_PIN; 
1202:src/stm32f4_discovery_audio_codec.c ****   GPIO_InitStructure.GPIO_Mode = GPIO_Mode_AF;
1203:src/stm32f4_discovery_audio_codec.c ****   GPIO_InitStructure.GPIO_Speed = GPIO_Speed_50MHz;
1204:src/stm32f4_discovery_audio_codec.c ****   GPIO_InitStructure.GPIO_OType = GPIO_OType_PP;
1205:src/stm32f4_discovery_audio_codec.c ****   GPIO_InitStructure.GPIO_PuPd = GPIO_PuPd_NOPULL;
1206:src/stm32f4_discovery_audio_codec.c ****   GPIO_Init(CODEC_I2S_GPIO, &GPIO_InitStructure);
1207:src/stm32f4_discovery_audio_codec.c ****   
1208:src/stm32f4_discovery_audio_codec.c ****   /* Connect pins to I2S peripheral  */
1209:src/stm32f4_discovery_audio_codec.c ****   GPIO_PinAFConfig(CODEC_I2S_WS_GPIO, CODEC_I2S_WS_PINSRC, CODEC_I2S_GPIO_AF);  
1210:src/stm32f4_discovery_audio_codec.c ****   GPIO_PinAFConfig(CODEC_I2S_GPIO, CODEC_I2S_SCK_PINSRC, CODEC_I2S_GPIO_AF);
1211:src/stm32f4_discovery_audio_codec.c **** 
1212:src/stm32f4_discovery_audio_codec.c ****   if (CurrAudioInterface != AUDIO_INTERFACE_DAC) 
1213:src/stm32f4_discovery_audio_codec.c ****   {
1214:src/stm32f4_discovery_audio_codec.c ****     GPIO_InitStructure.GPIO_Pin = CODEC_I2S_WS_PIN ;
1215:src/stm32f4_discovery_audio_codec.c ****     GPIO_Init(CODEC_I2S_WS_GPIO, &GPIO_InitStructure); 
1216:src/stm32f4_discovery_audio_codec.c ****     GPIO_PinAFConfig(CODEC_I2S_GPIO, CODEC_I2S_SD_PINSRC, CODEC_I2S_GPIO_AF);
1217:src/stm32f4_discovery_audio_codec.c ****   }
1218:src/stm32f4_discovery_audio_codec.c ****   else
1219:src/stm32f4_discovery_audio_codec.c ****   {
1220:src/stm32f4_discovery_audio_codec.c ****     /* GPIOA clock enable (to be used with DAC) */
1221:src/stm32f4_discovery_audio_codec.c ****     RCC_AHB1PeriphClockCmd(RCC_AHB1Periph_GPIOA, ENABLE);
1222:src/stm32f4_discovery_audio_codec.c ****    
1223:src/stm32f4_discovery_audio_codec.c ****     /* DAC channel 1 & 2 (DAC_OUT1 = PA.4) configuration */
1224:src/stm32f4_discovery_audio_codec.c ****     GPIO_InitStructure.GPIO_Pin = GPIO_Pin_4;
1225:src/stm32f4_discovery_audio_codec.c ****     GPIO_InitStructure.GPIO_Mode = GPIO_Mode_AN;
1226:src/stm32f4_discovery_audio_codec.c ****     GPIO_InitStructure.GPIO_PuPd = GPIO_PuPd_NOPULL;
1227:src/stm32f4_discovery_audio_codec.c ****     GPIO_Init(GPIOA, &GPIO_InitStructure);
1228:src/stm32f4_discovery_audio_codec.c ****   }
1229:src/stm32f4_discovery_audio_codec.c **** 
1230:src/stm32f4_discovery_audio_codec.c **** #ifdef CODEC_MCLK_ENABLED
1231:src/stm32f4_discovery_audio_codec.c ****   /* CODEC_I2S pins configuration: MCK pin */
1232:src/stm32f4_discovery_audio_codec.c ****   GPIO_InitStructure.GPIO_Pin = CODEC_I2S_MCK_PIN; 
ARM GAS  C:\Users\CNous\AppData\Local\Temp\ccPT5vWC.s 			page 26


1233:src/stm32f4_discovery_audio_codec.c ****   GPIO_InitStructure.GPIO_Mode = GPIO_Mode_AF;
1234:src/stm32f4_discovery_audio_codec.c ****   GPIO_InitStructure.GPIO_Speed = GPIO_Speed_50MHz;
1235:src/stm32f4_discovery_audio_codec.c ****   GPIO_InitStructure.GPIO_OType = GPIO_OType_PP;
1236:src/stm32f4_discovery_audio_codec.c ****   GPIO_InitStructure.GPIO_PuPd = GPIO_PuPd_NOPULL;
1237:src/stm32f4_discovery_audio_codec.c ****   GPIO_Init(CODEC_I2S_MCK_GPIO, &GPIO_InitStructure);   
1238:src/stm32f4_discovery_audio_codec.c ****   /* Connect pins to I2S peripheral  */
1239:src/stm32f4_discovery_audio_codec.c ****   GPIO_PinAFConfig(CODEC_I2S_MCK_GPIO, CODEC_I2S_MCK_PINSRC, CODEC_I2S_GPIO_AF); 
1240:src/stm32f4_discovery_audio_codec.c **** #endif /* CODEC_MCLK_ENABLED */ 
1241:src/stm32f4_discovery_audio_codec.c **** }
1242:src/stm32f4_discovery_audio_codec.c **** 
1243:src/stm32f4_discovery_audio_codec.c **** /**
1244:src/stm32f4_discovery_audio_codec.c ****   * @brief  Restores the IOs used by the Audio Codec interface to their default state.
1245:src/stm32f4_discovery_audio_codec.c ****   * @param  None
1246:src/stm32f4_discovery_audio_codec.c ****   * @retval None
1247:src/stm32f4_discovery_audio_codec.c ****   */
1248:src/stm32f4_discovery_audio_codec.c **** static void Codec_GPIO_DeInit(void)
1249:src/stm32f4_discovery_audio_codec.c **** {
1250:src/stm32f4_discovery_audio_codec.c ****   GPIO_InitTypeDef GPIO_InitStructure;
1251:src/stm32f4_discovery_audio_codec.c ****   
1252:src/stm32f4_discovery_audio_codec.c ****   /* Deinitialize all the GPIOs used by the driver */
1253:src/stm32f4_discovery_audio_codec.c ****   GPIO_InitStructure.GPIO_Pin =  CODEC_I2S_SCK_PIN | CODEC_I2S_SD_PIN;
1254:src/stm32f4_discovery_audio_codec.c ****   GPIO_InitStructure.GPIO_Mode = GPIO_Mode_IN;
1255:src/stm32f4_discovery_audio_codec.c ****   GPIO_InitStructure.GPIO_Speed = GPIO_Speed_2MHz;
1256:src/stm32f4_discovery_audio_codec.c ****   GPIO_InitStructure.GPIO_OType = GPIO_OType_PP;
1257:src/stm32f4_discovery_audio_codec.c ****   GPIO_InitStructure.GPIO_PuPd  = GPIO_PuPd_NOPULL;
1258:src/stm32f4_discovery_audio_codec.c ****   GPIO_Init(CODEC_I2S_GPIO, &GPIO_InitStructure);  
1259:src/stm32f4_discovery_audio_codec.c ****   
1260:src/stm32f4_discovery_audio_codec.c ****   GPIO_InitStructure.GPIO_Pin = CODEC_I2S_WS_PIN ;
1261:src/stm32f4_discovery_audio_codec.c ****   GPIO_Init(CODEC_I2S_WS_GPIO, &GPIO_InitStructure); 
1262:src/stm32f4_discovery_audio_codec.c ****      
1263:src/stm32f4_discovery_audio_codec.c ****   /* Disconnect pins from I2S peripheral  */
1264:src/stm32f4_discovery_audio_codec.c ****   GPIO_PinAFConfig(CODEC_I2S_WS_GPIO, CODEC_I2S_WS_PINSRC, 0x00);  
1265:src/stm32f4_discovery_audio_codec.c ****   GPIO_PinAFConfig(CODEC_I2S_GPIO, CODEC_I2S_SCK_PINSRC, 0x00);
1266:src/stm32f4_discovery_audio_codec.c ****   GPIO_PinAFConfig(CODEC_I2S_GPIO, CODEC_I2S_SD_PINSRC, 0x00);  
1267:src/stm32f4_discovery_audio_codec.c ****   
1268:src/stm32f4_discovery_audio_codec.c **** #ifdef CODEC_MCLK_ENABLED
1269:src/stm32f4_discovery_audio_codec.c ****   /* CODEC_I2S pins deinitialization: MCK pin */
1270:src/stm32f4_discovery_audio_codec.c ****   GPIO_InitStructure.GPIO_Pin = CODEC_I2S_MCK_PIN; 
1271:src/stm32f4_discovery_audio_codec.c ****   GPIO_Init(CODEC_I2S_MCK_GPIO, &GPIO_InitStructure);   
1272:src/stm32f4_discovery_audio_codec.c ****   /* Disconnect pins from I2S peripheral  */
1273:src/stm32f4_discovery_audio_codec.c ****   GPIO_PinAFConfig(CODEC_I2S_MCK_GPIO, CODEC_I2S_MCK_PINSRC, CODEC_I2S_GPIO_AF); 
1274:src/stm32f4_discovery_audio_codec.c **** #endif /* CODEC_MCLK_ENABLED */    
1275:src/stm32f4_discovery_audio_codec.c **** }
1276:src/stm32f4_discovery_audio_codec.c **** 
1277:src/stm32f4_discovery_audio_codec.c **** /**
1278:src/stm32f4_discovery_audio_codec.c ****   * @brief  Inserts a delay time (not accurate timing).
1279:src/stm32f4_discovery_audio_codec.c ****   * @param  nCount: specifies the delay time length.
1280:src/stm32f4_discovery_audio_codec.c ****   * @retval None
1281:src/stm32f4_discovery_audio_codec.c ****   */
1282:src/stm32f4_discovery_audio_codec.c **** 
1283:src/stm32f4_discovery_audio_codec.c **** static void Delay( __IO uint32_t nCount)
1284:src/stm32f4_discovery_audio_codec.c **** {
1285:src/stm32f4_discovery_audio_codec.c ****   for (; nCount != 0; nCount--);
 186              		.loc 1 1285 0
 187 0012 44F6FE73 		movw	r3, #20478	@ nCount,
 188              	.LVL9:
 189              	.L13:
ARM GAS  C:\Users\CNous\AppData\Local\Temp\ccPT5vWC.s 			page 27


 190 0016 023B     		subs	r3, r3, #2	@ nCount, nCount,
 191              	.LVL10:
 192 0018 FDD1     		bne	.L13	@,
 193              	.LBE11:
 194              	.LBE10:
 865:src/stm32f4_discovery_audio_codec.c ****   GPIO_WriteBit(AUDIO_RESET_GPIO, AUDIO_RESET_PIN, Bit_SET);
 195              		.loc 1 865 0
 196 001a 4FF44060 		mov	r0, #3072	@,
 197 001e C4F20200 		movt	r0, 16386	@,
 198 0022 1021     		movs	r1, #16	@,
 199 0024 0122     		movs	r2, #1	@,
 200 0026 FFF7FEFF 		bl	GPIO_WriteBit	@
 201              	.LVL11:
 202 002a 08BD     		pop	{r3, pc}	@
 203              		.cfi_endproc
 204              	.LFE129:
 205              		.size	Codec_Reset, .-Codec_Reset
 206              		.section	.text.Codec_WriteRegister,"ax",%progbits
 207              		.align	2
 208              		.thumb
 209              		.thumb_func
 210              		.type	Codec_WriteRegister, %function
 211              	Codec_WriteRegister:
 212              	.LFB130:
 876:src/stm32f4_discovery_audio_codec.c **** {
 213              		.loc 1 876 0
 214              		.cfi_startproc
 215              		@ args = 0, pretend = 0, frame = 0
 216              		@ frame_needed = 0, uses_anonymous_args = 0
 217              	.LVL12:
 218 0000 70B5     		push	{r4, r5, r6, lr}	@
 219              	.LCFI2:
 220              		.cfi_def_cfa_offset 16
 221              		.cfi_offset 4, -16
 222              		.cfi_offset 5, -12
 223              		.cfi_offset 6, -8
 224              		.cfi_offset 14, -4
 880:src/stm32f4_discovery_audio_codec.c ****   CODECTimeout = CODEC_LONG_TIMEOUT;
 225              		.loc 1 880 0
 226 0002 AE4C     		ldr	r4, .L79	@ tmp306,
 227 0004 4FF49613 		mov	r3, #1228800	@ tmp193,
 876:src/stm32f4_discovery_audio_codec.c **** {
 228              		.loc 1 876 0
 229 0008 0546     		mov	r5, r0	@ RegisterAddr, RegisterAddr
 230 000a 0E46     		mov	r6, r1	@ RegisterValue, RegisterValue
 880:src/stm32f4_discovery_audio_codec.c ****   CODECTimeout = CODEC_LONG_TIMEOUT;
 231              		.loc 1 880 0
 232 000c 2360     		str	r3, [r4, #0]	@ tmp193, CODECTimeout
 233              	.LVL13:
 234              	.L21:
 881:src/stm32f4_discovery_audio_codec.c ****   while(I2C_GetFlagStatus(CODEC_I2C, I2C_FLAG_BUSY))
 235              		.loc 1 881 0 discriminator 1
 236 000e 4FF4A840 		mov	r0, #21504	@,
 237 0012 C4F20000 		movt	r0, 16384	@,
 238 0016 4FF40031 		mov	r1, #131072	@,
 239 001a FFF7FEFF 		bl	I2C_GetFlagStatus	@
 240              	.LVL14:
ARM GAS  C:\Users\CNous\AppData\Local\Temp\ccPT5vWC.s 			page 28


 241 001e 40B1     		cbz	r0, .L67	@,
 883:src/stm32f4_discovery_audio_codec.c ****     if((CODECTimeout--) == 0) return Codec_TIMEOUT_UserCallback();
 242              		.loc 1 883 0
 243 0020 2368     		ldr	r3, [r4, #0]	@ CODECTimeout.8, CODECTimeout
 244 0022 5A1E     		subs	r2, r3, #1	@ CODECTimeout.9, CODECTimeout.8,
 245 0024 2260     		str	r2, [r4, #0]	@ CODECTimeout.9, CODECTimeout
 246 0026 002B     		cmp	r3, #0	@ CODECTimeout.8
 247 0028 F1D1     		bne	.L21	@
 248              	.L66:
 936:src/stm32f4_discovery_audio_codec.c **** }
 249              		.loc 1 936 0
 250 002a BDE87040 		pop	{r4, r5, r6, lr}	@
 251              	.LBB16:
 252              	.LBB17:
 913:src/stm32f4_discovery_audio_codec.c ****     if((CODECTimeout--) == 0) return Codec_TIMEOUT_UserCallback();
 253              		.loc 1 913 0
 254 002e FFF7FEBF 		b	Codec_TIMEOUT_UserCallback	@
 255              	.LVL15:
 256              	.L67:
 257              	.LBE17:
 258              	.LBE16:
 887:src/stm32f4_discovery_audio_codec.c ****   I2C_GenerateSTART(CODEC_I2C, ENABLE);
 259              		.loc 1 887 0
 260 0032 4FF4A840 		mov	r0, #21504	@,
 261 0036 C4F20000 		movt	r0, 16384	@,
 262 003a 0121     		movs	r1, #1	@,
 263 003c FFF7FEFF 		bl	I2C_GenerateSTART	@
 264              	.LVL16:
 890:src/stm32f4_discovery_audio_codec.c ****   CODECTimeout = CODEC_FLAG_TIMEOUT;
 265              		.loc 1 890 0
 266 0040 4FF48050 		mov	r0, #4096	@ tmp200,
 267 0044 2060     		str	r0, [r4, #0]	@ tmp200, CODECTimeout
 268              	.L23:
 891:src/stm32f4_discovery_audio_codec.c ****   while (!I2C_CheckEvent(CODEC_I2C, I2C_EVENT_MASTER_MODE_SELECT))
 269              		.loc 1 891 0 discriminator 1
 270 0046 4FF4A840 		mov	r0, #21504	@,
 271 004a 0121     		movs	r1, #1	@,
 272 004c C4F20000 		movt	r0, 16384	@,
 273 0050 C0F20301 		movt	r1, 3	@,
 274 0054 FFF7FEFF 		bl	I2C_CheckEvent	@
 275              	.LVL17:
 276 0058 28B9     		cbnz	r0, .L68	@,
 893:src/stm32f4_discovery_audio_codec.c ****     if((CODECTimeout--) == 0) return Codec_TIMEOUT_UserCallback();
 277              		.loc 1 893 0
 278 005a 2068     		ldr	r0, [r4, #0]	@ CODECTimeout.10, CODECTimeout
 279 005c 411E     		subs	r1, r0, #1	@ CODECTimeout.11, CODECTimeout.10,
 280 005e 2160     		str	r1, [r4, #0]	@ CODECTimeout.11, CODECTimeout
 281 0060 0028     		cmp	r0, #0	@ CODECTimeout.10
 282 0062 F0D1     		bne	.L23	@
 283 0064 E1E7     		b	.L66	@
 284              	.L68:
 285              	.LVL18:
 286              	.LBB24:
 287              	.LBB22:
 897:src/stm32f4_discovery_audio_codec.c ****   I2C_Send7bitAddress(CODEC_I2C, CODEC_ADDRESS, I2C_Direction_Transmitter);
 288              		.loc 1 897 0
 289 0066 4FF4A840 		mov	r0, #21504	@,
ARM GAS  C:\Users\CNous\AppData\Local\Temp\ccPT5vWC.s 			page 29


 290 006a 9421     		movs	r1, #148	@,
 291 006c C4F20000 		movt	r0, 16384	@,
 292 0070 0022     		movs	r2, #0	@,
 293 0072 FFF7FEFF 		bl	I2C_Send7bitAddress	@
 294              	.LVL19:
 900:src/stm32f4_discovery_audio_codec.c ****   CODECTimeout = CODEC_FLAG_TIMEOUT;
 295              		.loc 1 900 0
 296 0076 4FF48051 		mov	r1, #4096	@ tmp208,
 297 007a 2160     		str	r1, [r4, #0]	@ tmp208, CODECTimeout
 298              	.L25:
 901:src/stm32f4_discovery_audio_codec.c ****   while (!I2C_CheckEvent(CODEC_I2C, I2C_EVENT_MASTER_TRANSMITTER_MODE_SELECTED))
 299              		.loc 1 901 0
 300 007c 4FF4A840 		mov	r0, #21504	@,
 301 0080 8221     		movs	r1, #130	@,
 302 0082 C4F20000 		movt	r0, 16384	@,
 303 0086 C0F20701 		movt	r1, 7	@,
 304 008a FFF7FEFF 		bl	I2C_CheckEvent	@
 305              	.LVL20:
 306 008e 28B9     		cbnz	r0, .L69	@,
 903:src/stm32f4_discovery_audio_codec.c ****     if((CODECTimeout--) == 0) return Codec_TIMEOUT_UserCallback();
 307              		.loc 1 903 0
 308 0090 2368     		ldr	r3, [r4, #0]	@ CODECTimeout.12, CODECTimeout
 309 0092 5A1E     		subs	r2, r3, #1	@ CODECTimeout.13, CODECTimeout.12,
 310 0094 2260     		str	r2, [r4, #0]	@ CODECTimeout.13, CODECTimeout
 311 0096 002B     		cmp	r3, #0	@ CODECTimeout.12
 312 0098 F0D1     		bne	.L25	@
 313 009a C6E7     		b	.L66	@
 314              	.L69:
 907:src/stm32f4_discovery_audio_codec.c ****   I2C_SendData(CODEC_I2C, RegisterAddr);
 315              		.loc 1 907 0
 316 009c 4FF4A840 		mov	r0, #21504	@,
 317 00a0 C4F20000 		movt	r0, 16384	@,
 318 00a4 2946     		mov	r1, r5	@, RegisterAddr
 319 00a6 FFF7FEFF 		bl	I2C_SendData	@
 320              	.LVL21:
 910:src/stm32f4_discovery_audio_codec.c ****   CODECTimeout = CODEC_FLAG_TIMEOUT;
 321              		.loc 1 910 0
 322 00aa 4FF48052 		mov	r2, #4096	@ tmp216,
 323 00ae 2260     		str	r2, [r4, #0]	@ tmp216, CODECTimeout
 324              	.L27:
 911:src/stm32f4_discovery_audio_codec.c ****   while (!I2C_CheckEvent(CODEC_I2C, I2C_EVENT_MASTER_BYTE_TRANSMITTING))
 325              		.loc 1 911 0
 326 00b0 4FF4A840 		mov	r0, #21504	@,
 327 00b4 8021     		movs	r1, #128	@,
 328 00b6 C4F20000 		movt	r0, 16384	@,
 329 00ba C0F20701 		movt	r1, 7	@,
 330 00be FFF7FEFF 		bl	I2C_CheckEvent	@
 331              	.LVL22:
 332 00c2 28B9     		cbnz	r0, .L70	@,
 913:src/stm32f4_discovery_audio_codec.c ****     if((CODECTimeout--) == 0) return Codec_TIMEOUT_UserCallback();
 333              		.loc 1 913 0
 334 00c4 2068     		ldr	r0, [r4, #0]	@ CODECTimeout.14, CODECTimeout
 335 00c6 411E     		subs	r1, r0, #1	@ CODECTimeout.15, CODECTimeout.14,
 336 00c8 2160     		str	r1, [r4, #0]	@ CODECTimeout.15, CODECTimeout
 337 00ca 0028     		cmp	r0, #0	@ CODECTimeout.14
 338 00cc F0D1     		bne	.L27	@
 339 00ce ACE7     		b	.L66	@
ARM GAS  C:\Users\CNous\AppData\Local\Temp\ccPT5vWC.s 			page 30


 340              	.L70:
 917:src/stm32f4_discovery_audio_codec.c ****   I2C_SendData(CODEC_I2C, RegisterValue);
 341              		.loc 1 917 0
 342 00d0 4FF4A840 		mov	r0, #21504	@,
 343 00d4 C4F20000 		movt	r0, 16384	@,
 344 00d8 3146     		mov	r1, r6	@, RegisterValue
 345 00da FFF7FEFF 		bl	I2C_SendData	@
 346              	.LVL23:
 920:src/stm32f4_discovery_audio_codec.c ****   CODECTimeout = CODEC_LONG_TIMEOUT;
 347              		.loc 1 920 0
 348 00de 4FF49613 		mov	r3, #1228800	@ tmp224,
 349 00e2 2360     		str	r3, [r4, #0]	@ tmp224, CODECTimeout
 350              	.L63:
 921:src/stm32f4_discovery_audio_codec.c ****   while(!I2C_GetFlagStatus(CODEC_I2C, I2C_FLAG_BTF))
 351              		.loc 1 921 0
 352 00e4 4FF4A840 		mov	r0, #21504	@,
 353 00e8 0421     		movs	r1, #4	@,
 354 00ea C1F20001 		movt	r1, 4096	@,
 355 00ee C4F20000 		movt	r0, 16384	@,
 356 00f2 FFF7FEFF 		bl	I2C_GetFlagStatus	@
 357              	.LVL24:
 358 00f6 38B9     		cbnz	r0, .L71	@,
 923:src/stm32f4_discovery_audio_codec.c ****     if((CODECTimeout--) == 0) Codec_TIMEOUT_UserCallback();
 359              		.loc 1 923 0
 360 00f8 2368     		ldr	r3, [r4, #0]	@ CODECTimeout.16, CODECTimeout
 361 00fa 5A1E     		subs	r2, r3, #1	@ CODECTimeout.17, CODECTimeout.16,
 362 00fc 2260     		str	r2, [r4, #0]	@ CODECTimeout.17, CODECTimeout
 363 00fe 002B     		cmp	r3, #0	@ CODECTimeout.16
 364 0100 F0D1     		bne	.L63	@
 365 0102 FFF7FEFF 		bl	Codec_TIMEOUT_UserCallback	@
 366              	.LVL25:
 367 0106 EDE7     		b	.L63	@
 368              	.L71:
 927:src/stm32f4_discovery_audio_codec.c ****   I2C_GenerateSTOP(CODEC_I2C, ENABLE);  
 369              		.loc 1 927 0
 370 0108 4FF4A840 		mov	r0, #21504	@,
 371 010c C4F20000 		movt	r0, 16384	@,
 372 0110 0121     		movs	r1, #1	@,
 373 0112 FFF7FEFF 		bl	I2C_GenerateSTOP	@
 374              	.LVL26:
 375              	.LBB18:
 376              	.LBB19:
 950:src/stm32f4_discovery_audio_codec.c ****   CODECTimeout = CODEC_LONG_TIMEOUT;
 377              		.loc 1 950 0
 378 0116 4FF49610 		mov	r0, #1228800	@ tmp232,
 379 011a 2060     		str	r0, [r4, #0]	@ tmp232, CODECTimeout
 380              	.L32:
 951:src/stm32f4_discovery_audio_codec.c ****   while(I2C_GetFlagStatus(CODEC_I2C, I2C_FLAG_BUSY))
 381              		.loc 1 951 0
 382 011c 4FF4A840 		mov	r0, #21504	@,
 383 0120 C4F20000 		movt	r0, 16384	@,
 384 0124 4FF40031 		mov	r1, #131072	@,
 385 0128 FFF7FEFF 		bl	I2C_GetFlagStatus	@
 386              	.LVL27:
 387 012c 58B1     		cbz	r0, .L72	@,
 953:src/stm32f4_discovery_audio_codec.c ****     if((CODECTimeout--) == 0) return Codec_TIMEOUT_UserCallback();
 388              		.loc 1 953 0
ARM GAS  C:\Users\CNous\AppData\Local\Temp\ccPT5vWC.s 			page 31


 389 012e 2068     		ldr	r0, [r4, #0]	@ CODECTimeout.18, CODECTimeout
 390 0130 411E     		subs	r1, r0, #1	@ CODECTimeout.19, CODECTimeout.18,
 391 0132 2160     		str	r1, [r4, #0]	@ CODECTimeout.19, CODECTimeout
 392 0134 0028     		cmp	r0, #0	@ CODECTimeout.18
 393 0136 F1D1     		bne	.L32	@
 394              	.LVL28:
 395              	.L65:
1029:src/stm32f4_discovery_audio_codec.c ****     if((CODECTimeout--) == 0) return Codec_TIMEOUT_UserCallback();
 396              		.loc 1 1029 0
 397 0138 FFF7FEFF 		bl	Codec_TIMEOUT_UserCallback	@
 398              	.LVL29:
 399 013c 0546     		mov	r5, r0	@ result,
 400              	.L33:
 401              	.LVL30:
 402              	.LBE19:
 403              	.LBE18:
 404              	.LBE22:
 405              	.LBE24:
 936:src/stm32f4_discovery_audio_codec.c **** }
 406              		.loc 1 936 0
 407 013e 701B     		subs	r0, r6, r5	@, RegisterValue, result
 408 0140 18BF     		it	ne
 409 0142 0120     		movne	r0, #1	@,
 410 0144 70BD     		pop	{r4, r5, r6, pc}	@
 411              	.LVL31:
 412              	.L72:
 413              	.LBB25:
 414              	.LBB23:
 415              	.LBB21:
 416              	.LBB20:
 957:src/stm32f4_discovery_audio_codec.c ****   I2C_GenerateSTART(CODEC_I2C, ENABLE);
 417              		.loc 1 957 0
 418 0146 4FF4A840 		mov	r0, #21504	@,
 419 014a 0121     		movs	r1, #1	@,
 420 014c C4F20000 		movt	r0, 16384	@,
 421 0150 FFF7FEFF 		bl	I2C_GenerateSTART	@
 422              	.LVL32:
 960:src/stm32f4_discovery_audio_codec.c ****   CODECTimeout = CODEC_FLAG_TIMEOUT;
 423              		.loc 1 960 0
 424 0154 4FF48051 		mov	r1, #4096	@ tmp239,
 425 0158 2160     		str	r1, [r4, #0]	@ tmp239, CODECTimeout
 426              	.L35:
 961:src/stm32f4_discovery_audio_codec.c ****   while (!I2C_CheckEvent(CODEC_I2C, I2C_EVENT_MASTER_MODE_SELECT))
 427              		.loc 1 961 0
 428 015a 4FF4A840 		mov	r0, #21504	@,
 429 015e 0121     		movs	r1, #1	@,
 430 0160 C4F20000 		movt	r0, 16384	@,
 431 0164 C0F20301 		movt	r1, 3	@,
 432 0168 FFF7FEFF 		bl	I2C_CheckEvent	@
 433              	.LVL33:
 434 016c 28B9     		cbnz	r0, .L73	@,
 963:src/stm32f4_discovery_audio_codec.c ****     if((CODECTimeout--) == 0) return Codec_TIMEOUT_UserCallback();
 435              		.loc 1 963 0
 436 016e 2368     		ldr	r3, [r4, #0]	@ CODECTimeout.20, CODECTimeout
 437 0170 5A1E     		subs	r2, r3, #1	@ CODECTimeout.21, CODECTimeout.20,
 438 0172 2260     		str	r2, [r4, #0]	@ CODECTimeout.21, CODECTimeout
 439 0174 002B     		cmp	r3, #0	@ CODECTimeout.20
ARM GAS  C:\Users\CNous\AppData\Local\Temp\ccPT5vWC.s 			page 32


 440 0176 F0D1     		bne	.L35	@
 441 0178 DEE7     		b	.L65	@
 442              	.L73:
 967:src/stm32f4_discovery_audio_codec.c ****   I2C_Send7bitAddress(CODEC_I2C, CODEC_ADDRESS, I2C_Direction_Transmitter);
 443              		.loc 1 967 0
 444 017a 4FF4A840 		mov	r0, #21504	@,
 445 017e 0022     		movs	r2, #0	@,
 446 0180 C4F20000 		movt	r0, 16384	@,
 447 0184 9421     		movs	r1, #148	@,
 448 0186 FFF7FEFF 		bl	I2C_Send7bitAddress	@
 449              	.LVL34:
 970:src/stm32f4_discovery_audio_codec.c ****   CODECTimeout = CODEC_FLAG_TIMEOUT;
 450              		.loc 1 970 0
 451 018a 4FF48052 		mov	r2, #4096	@ tmp247,
 452 018e 2260     		str	r2, [r4, #0]	@ tmp247, CODECTimeout
 453              	.L37:
 971:src/stm32f4_discovery_audio_codec.c ****   while (!I2C_CheckEvent(CODEC_I2C, I2C_EVENT_MASTER_TRANSMITTER_MODE_SELECTED))
 454              		.loc 1 971 0
 455 0190 4FF4A840 		mov	r0, #21504	@,
 456 0194 8221     		movs	r1, #130	@,
 457 0196 C4F20000 		movt	r0, 16384	@,
 458 019a C0F20701 		movt	r1, 7	@,
 459 019e FFF7FEFF 		bl	I2C_CheckEvent	@
 460              	.LVL35:
 461 01a2 28B9     		cbnz	r0, .L74	@,
 973:src/stm32f4_discovery_audio_codec.c ****     if((CODECTimeout--) == 0) return Codec_TIMEOUT_UserCallback();
 462              		.loc 1 973 0
 463 01a4 2068     		ldr	r0, [r4, #0]	@ CODECTimeout.22, CODECTimeout
 464 01a6 411E     		subs	r1, r0, #1	@ CODECTimeout.23, CODECTimeout.22,
 465 01a8 2160     		str	r1, [r4, #0]	@ CODECTimeout.23, CODECTimeout
 466 01aa 0028     		cmp	r0, #0	@ CODECTimeout.22
 467 01ac F0D1     		bne	.L37	@
 468 01ae C3E7     		b	.L65	@
 469              	.L74:
 977:src/stm32f4_discovery_audio_codec.c ****   I2C_SendData(CODEC_I2C, RegisterAddr);
 470              		.loc 1 977 0
 471 01b0 4FF4A840 		mov	r0, #21504	@,
 472 01b4 2946     		mov	r1, r5	@, RegisterAddr
 473 01b6 C4F20000 		movt	r0, 16384	@,
 980:src/stm32f4_discovery_audio_codec.c ****   CODECTimeout = CODEC_FLAG_TIMEOUT;
 474              		.loc 1 980 0
 475 01ba 4FF48055 		mov	r5, #4096	@ tmp255,
 476              	.LVL36:
 977:src/stm32f4_discovery_audio_codec.c ****   I2C_SendData(CODEC_I2C, RegisterAddr);
 477              		.loc 1 977 0
 478 01be FFF7FEFF 		bl	I2C_SendData	@
 479              	.LVL37:
 980:src/stm32f4_discovery_audio_codec.c ****   CODECTimeout = CODEC_FLAG_TIMEOUT;
 480              		.loc 1 980 0
 481 01c2 2560     		str	r5, [r4, #0]	@ tmp255, CODECTimeout
 482 01c4 04E0     		b	.L39	@
 483              	.L40:
 983:src/stm32f4_discovery_audio_codec.c ****     if((CODECTimeout--) == 0) return Codec_TIMEOUT_UserCallback();
 484              		.loc 1 983 0
 485 01c6 2368     		ldr	r3, [r4, #0]	@ CODECTimeout.24, CODECTimeout
 486 01c8 5A1E     		subs	r2, r3, #1	@ CODECTimeout.25, CODECTimeout.24,
 487 01ca 2260     		str	r2, [r4, #0]	@ CODECTimeout.25, CODECTimeout
ARM GAS  C:\Users\CNous\AppData\Local\Temp\ccPT5vWC.s 			page 33


 488 01cc 002B     		cmp	r3, #0	@ CODECTimeout.24
 489 01ce B3D0     		beq	.L65	@
 490              	.L39:
 981:src/stm32f4_discovery_audio_codec.c ****   while (I2C_GetFlagStatus(CODEC_I2C, I2C_FLAG_BTF) == RESET)
 491              		.loc 1 981 0
 492 01d0 4FF4A840 		mov	r0, #21504	@,
 493 01d4 0421     		movs	r1, #4	@,
 494 01d6 C4F20000 		movt	r0, 16384	@,
 495 01da C1F20001 		movt	r1, 4096	@,
 496 01de FFF7FEFF 		bl	I2C_GetFlagStatus	@
 497              	.LVL38:
 498 01e2 0028     		cmp	r0, #0	@
 499 01e4 EFD0     		beq	.L40	@
 987:src/stm32f4_discovery_audio_codec.c ****   I2C_GenerateSTART(CODEC_I2C, ENABLE);
 500              		.loc 1 987 0
 501 01e6 4FF4A840 		mov	r0, #21504	@,
 502 01ea C4F20000 		movt	r0, 16384	@,
 503 01ee 0121     		movs	r1, #1	@,
 504 01f0 FFF7FEFF 		bl	I2C_GenerateSTART	@
 505              	.LVL39:
 990:src/stm32f4_discovery_audio_codec.c ****   CODECTimeout = CODEC_FLAG_TIMEOUT;
 506              		.loc 1 990 0
 507 01f4 4FF48053 		mov	r3, #4096	@ tmp263,
 508 01f8 2360     		str	r3, [r4, #0]	@ tmp263, CODECTimeout
 509              	.L41:
 991:src/stm32f4_discovery_audio_codec.c ****   while(!I2C_CheckEvent(CODEC_I2C, I2C_EVENT_MASTER_MODE_SELECT))
 510              		.loc 1 991 0
 511 01fa 4FF4A840 		mov	r0, #21504	@,
 512 01fe 0121     		movs	r1, #1	@,
 513 0200 C4F20000 		movt	r0, 16384	@,
 514 0204 C0F20301 		movt	r1, 3	@,
 515 0208 FFF7FEFF 		bl	I2C_CheckEvent	@
 516              	.LVL40:
 517 020c 28B9     		cbnz	r0, .L75	@,
 993:src/stm32f4_discovery_audio_codec.c ****     if((CODECTimeout--) == 0) return Codec_TIMEOUT_UserCallback();
 518              		.loc 1 993 0
 519 020e 2168     		ldr	r1, [r4, #0]	@ CODECTimeout.26, CODECTimeout
 520 0210 4D1E     		subs	r5, r1, #1	@ CODECTimeout.27, CODECTimeout.26,
 521 0212 2560     		str	r5, [r4, #0]	@ CODECTimeout.27, CODECTimeout
 522 0214 0029     		cmp	r1, #0	@ CODECTimeout.26
 523 0216 F0D1     		bne	.L41	@
 524 0218 8EE7     		b	.L65	@
 525              	.L75:
 997:src/stm32f4_discovery_audio_codec.c ****   I2C_Send7bitAddress(CODEC_I2C, CODEC_ADDRESS, I2C_Direction_Receiver);  
 526              		.loc 1 997 0
 527 021a 4FF4A840 		mov	r0, #21504	@,
 528 021e C4F20000 		movt	r0, 16384	@,
 529 0222 9421     		movs	r1, #148	@,
 530 0224 0122     		movs	r2, #1	@,
 531 0226 FFF7FEFF 		bl	I2C_Send7bitAddress	@
 532              	.LVL41:
1000:src/stm32f4_discovery_audio_codec.c ****   CODECTimeout = CODEC_FLAG_TIMEOUT;
 533              		.loc 1 1000 0
 534 022a 4FF48050 		mov	r0, #4096	@ tmp271,
 535 022e 2060     		str	r0, [r4, #0]	@ tmp271, CODECTimeout
 536              	.L43:
1001:src/stm32f4_discovery_audio_codec.c ****   while(I2C_GetFlagStatus(CODEC_I2C, I2C_FLAG_ADDR) == RESET)
ARM GAS  C:\Users\CNous\AppData\Local\Temp\ccPT5vWC.s 			page 34


 537              		.loc 1 1001 0
 538 0230 4FF4A845 		mov	r5, #21504	@ tmp274,
 539 0234 C4F20005 		movt	r5, 16384	@ tmp274,
 540 0238 0221     		movs	r1, #2	@,
 541 023a 2846     		mov	r0, r5	@, tmp274
 542 023c C1F20001 		movt	r1, 4096	@,
 543 0240 FFF7FEFF 		bl	I2C_GetFlagStatus	@
 544              	.LVL42:
 545 0244 28B9     		cbnz	r0, .L76	@,
1003:src/stm32f4_discovery_audio_codec.c ****     if((CODECTimeout--) == 0) return Codec_TIMEOUT_UserCallback();
 546              		.loc 1 1003 0
 547 0246 2368     		ldr	r3, [r4, #0]	@ CODECTimeout.28, CODECTimeout
 548 0248 581E     		subs	r0, r3, #1	@ CODECTimeout.29, CODECTimeout.28,
 549 024a 2060     		str	r0, [r4, #0]	@ CODECTimeout.29, CODECTimeout
 550 024c 002B     		cmp	r3, #0	@ CODECTimeout.28
 551 024e EFD1     		bne	.L43	@
 552 0250 72E7     		b	.L65	@
 553              	.L76:
1007:src/stm32f4_discovery_audio_codec.c ****   I2C_AcknowledgeConfig(CODEC_I2C, DISABLE);   
 554              		.loc 1 1007 0
 555 0252 2846     		mov	r0, r5	@, tmp274
 556 0254 0021     		movs	r1, #0	@,
 557 0256 FFF7FEFF 		bl	I2C_AcknowledgeConfig	@
 558              	.LVL43:
1013:src/stm32f4_discovery_audio_codec.c ****   I2C_GenerateSTOP(CODEC_I2C, ENABLE);
 559              		.loc 1 1013 0
 560 025a 0121     		movs	r1, #1	@,
 561 025c 2846     		mov	r0, r5	@, tmp274
1010:src/stm32f4_discovery_audio_codec.c ****   (void)CODEC_I2C->SR2;
 562              		.loc 1 1010 0
 563 025e 2B8B     		ldrh	r3, [r5, #24]	@, MEM[(struct I2C_TypeDef *)1073763328B].SR2
1013:src/stm32f4_discovery_audio_codec.c ****   I2C_GenerateSTOP(CODEC_I2C, ENABLE);
 564              		.loc 1 1013 0
 565 0260 FFF7FEFF 		bl	I2C_GenerateSTOP	@
 566              	.LVL44:
1016:src/stm32f4_discovery_audio_codec.c ****   CODECTimeout = CODEC_FLAG_TIMEOUT;
 567              		.loc 1 1016 0
 568 0264 4FF48051 		mov	r1, #4096	@ tmp283,
 569 0268 2160     		str	r1, [r4, #0]	@ tmp283, CODECTimeout
 570              	.L45:
1017:src/stm32f4_discovery_audio_codec.c ****   while(I2C_GetFlagStatus(CODEC_I2C, I2C_FLAG_RXNE) == RESET)
 571              		.loc 1 1017 0
 572 026a 4FF4A840 		mov	r0, #21504	@,
 573 026e 4021     		movs	r1, #64	@,
 574 0270 C4F20000 		movt	r0, 16384	@,
 575 0274 C1F20001 		movt	r1, 4096	@,
 576 0278 FFF7FEFF 		bl	I2C_GetFlagStatus	@
 577              	.LVL45:
 578 027c 28B9     		cbnz	r0, .L77	@,
1019:src/stm32f4_discovery_audio_codec.c ****     if((CODECTimeout--) == 0) return Codec_TIMEOUT_UserCallback();
 579              		.loc 1 1019 0
 580 027e 2568     		ldr	r5, [r4, #0]	@ CODECTimeout.31, CODECTimeout
 581 0280 6A1E     		subs	r2, r5, #1	@ CODECTimeout.32, CODECTimeout.31,
 582 0282 2260     		str	r2, [r4, #0]	@ CODECTimeout.32, CODECTimeout
 583 0284 002D     		cmp	r5, #0	@ CODECTimeout.31
 584 0286 F0D1     		bne	.L45	@
 585 0288 56E7     		b	.L65	@
ARM GAS  C:\Users\CNous\AppData\Local\Temp\ccPT5vWC.s 			page 35


 586              	.L77:
1023:src/stm32f4_discovery_audio_codec.c ****   result = I2C_ReceiveData(CODEC_I2C);
 587              		.loc 1 1023 0
 588 028a 4FF4A840 		mov	r0, #21504	@,
 589 028e C4F20000 		movt	r0, 16384	@,
 590 0292 FFF7FEFF 		bl	I2C_ReceiveData	@
 591              	.LVL46:
1027:src/stm32f4_discovery_audio_codec.c ****   while(CODEC_I2C->CR1 & I2C_CR1_STOP)
 592              		.loc 1 1027 0
 593 0296 4FF4A843 		mov	r3, #21504	@ tmp307,
1026:src/stm32f4_discovery_audio_codec.c ****   CODECTimeout = CODEC_FLAG_TIMEOUT;
 594              		.loc 1 1026 0
 595 029a 4FF48052 		mov	r2, #4096	@ tmp292,
1023:src/stm32f4_discovery_audio_codec.c ****   result = I2C_ReceiveData(CODEC_I2C);
 596              		.loc 1 1023 0
 597 029e 0546     		mov	r5, r0	@ result,
 598              	.LVL47:
1026:src/stm32f4_discovery_audio_codec.c ****   CODECTimeout = CODEC_FLAG_TIMEOUT;
 599              		.loc 1 1026 0
 600 02a0 2260     		str	r2, [r4, #0]	@ tmp292, CODECTimeout
1027:src/stm32f4_discovery_audio_codec.c ****   while(CODEC_I2C->CR1 & I2C_CR1_STOP)
 601              		.loc 1 1027 0
 602 02a2 C4F20003 		movt	r3, 16384	@ tmp307,
 603              	.LVL48:
 604              	.L47:
 605 02a6 1888     		ldrh	r0, [r3, #0]	@, MEM[(struct I2C_TypeDef *)1073763328B].CR1
 606 02a8 00F40071 		and	r1, r0, #512	@ tmp298, MEM[(struct I2C_TypeDef *)1073763328B].CR1,
 607 02ac 8AB2     		uxth	r2, r1	@ tmp299, tmp298
 608 02ae 3AB1     		cbz	r2, .L78	@ tmp299,
1029:src/stm32f4_discovery_audio_codec.c ****     if((CODECTimeout--) == 0) return Codec_TIMEOUT_UserCallback();
 609              		.loc 1 1029 0
 610 02b0 2068     		ldr	r0, [r4, #0]	@ CODECTimeout.33, CODECTimeout
 611 02b2 411E     		subs	r1, r0, #1	@ CODECTimeout.34, CODECTimeout.33,
 612 02b4 2160     		str	r1, [r4, #0]	@ CODECTimeout.34, CODECTimeout
 613 02b6 0028     		cmp	r0, #0	@ CODECTimeout.33
 614 02b8 F5D1     		bne	.L47	@
 615 02ba 3DE7     		b	.L65	@
 616              	.L80:
 617              		.align	2
 618              	.L79:
 619 02bc 00000000 		.word	.LANCHOR4
 620              	.L78:
1033:src/stm32f4_discovery_audio_codec.c ****   I2C_AcknowledgeConfig(CODEC_I2C, ENABLE);  
 621              		.loc 1 1033 0
 622 02c0 4FF4A840 		mov	r0, #21504	@,
 623 02c4 0121     		movs	r1, #1	@,
 624 02c6 C4F20000 		movt	r0, 16384	@,
 625 02ca FFF7FEFF 		bl	I2C_AcknowledgeConfig	@
 626              	.LVL49:
1036:src/stm32f4_discovery_audio_codec.c ****   I2C_ClearFlag(CODEC_I2C, I2C_FLAG_AF); 
 627              		.loc 1 1036 0
 628 02ce 4FF4A840 		mov	r0, #21504	@,
 629 02d2 4FF48061 		mov	r1, #1024	@,
 630 02d6 C4F20000 		movt	r0, 16384	@,
 631 02da C1F20001 		movt	r1, 4096	@,
 632 02de FFF7FEFF 		bl	I2C_ClearFlag	@
 633              	.LVL50:
ARM GAS  C:\Users\CNous\AppData\Local\Temp\ccPT5vWC.s 			page 36


 634 02e2 2CE7     		b	.L33	@
 635              	.LBE20:
 636              	.LBE21:
 637              	.LBE23:
 638              	.LBE25:
 639              		.cfi_endproc
 640              	.LFE130:
 641              		.size	Codec_WriteRegister, .-Codec_WriteRegister
 642              		.section	.text.Codec_Mute.part.1,"ax",%progbits
 643              		.align	2
 644              		.thumb
 645              		.thumb_func
 646              		.type	Codec_Mute.part.1, %function
 647              	Codec_Mute.part.1:
 648              	.LFB146:
 832:src/stm32f4_discovery_audio_codec.c **** static uint32_t Codec_Mute(uint32_t Cmd)
 649              		.loc 1 832 0
 650              		.cfi_startproc
 651              		@ args = 0, pretend = 0, frame = 0
 652              		@ frame_needed = 0, uses_anonymous_args = 0
 653              		@ link register save eliminated.
 839:src/stm32f4_discovery_audio_codec.c ****     counter += Codec_WriteRegister(0x04, 0xFF);
 654              		.loc 1 839 0
 655 0000 0420     		movs	r0, #4	@,
 656 0002 FF21     		movs	r1, #255	@,
 847:src/stm32f4_discovery_audio_codec.c **** }
 657              		.loc 1 847 0
 839:src/stm32f4_discovery_audio_codec.c ****     counter += Codec_WriteRegister(0x04, 0xFF);
 658              		.loc 1 839 0
 659 0004 FFF7FEBF 		b	Codec_WriteRegister	@
 660              	.LVL51:
 661              		.cfi_endproc
 662              	.LFE146:
 663              		.size	Codec_Mute.part.1, .-Codec_Mute.part.1
 664              		.section	.text.Codec_VolumeCtrl,"ax",%progbits
 665              		.align	2
 666              		.thumb
 667              		.thumb_func
 668              		.type	Codec_VolumeCtrl, %function
 669              	Codec_VolumeCtrl:
 670              	.LFB127:
 807:src/stm32f4_discovery_audio_codec.c **** {
 671              		.loc 1 807 0
 672              		.cfi_startproc
 673              		@ args = 0, pretend = 0, frame = 0
 674              		@ frame_needed = 0, uses_anonymous_args = 0
 675              	.LVL52:
 676              	.LBB28:
 677              	.LBB29:
 813:src/stm32f4_discovery_audio_codec.c ****     counter += Codec_WriteRegister(0x20, Volume - 0xE7); 
 678              		.loc 1 813 0
 679 0000 1930     		adds	r0, r0, #25	@ tmp143, Volume,
 680              	.LVL53:
 681              	.LBE29:
 682              	.LBE28:
 807:src/stm32f4_discovery_audio_codec.c **** {
 683              		.loc 1 807 0
ARM GAS  C:\Users\CNous\AppData\Local\Temp\ccPT5vWC.s 			page 37


 684 0002 38B5     		push	{r3, r4, r5, lr}	@
 685              	.LCFI3:
 686              		.cfi_def_cfa_offset 16
 687              		.cfi_offset 3, -16
 688              		.cfi_offset 4, -12
 689              		.cfi_offset 5, -8
 690              		.cfi_offset 14, -4
 691              	.LBB31:
 692              	.LBB30:
 813:src/stm32f4_discovery_audio_codec.c ****     counter += Codec_WriteRegister(0x20, Volume - 0xE7); 
 693              		.loc 1 813 0
 694 0004 C4B2     		uxtb	r4, r0	@ D.9155, tmp143
 695 0006 2146     		mov	r1, r4	@, D.9155
 696 0008 2020     		movs	r0, #32	@,
 697              	.LBE30:
 698              	.LBE31:
 819:src/stm32f4_discovery_audio_codec.c ****     counter += Codec_WriteRegister(0x20, Volume + 0x19); 
 699              		.loc 1 819 0
 700 000a FFF7FEFF 		bl	Codec_WriteRegister	@
 701              	.LVL54:
 820:src/stm32f4_discovery_audio_codec.c ****     counter += Codec_WriteRegister(0x21, Volume + 0x19); 
 702              		.loc 1 820 0
 703 000e 2146     		mov	r1, r4	@, D.8791
 819:src/stm32f4_discovery_audio_codec.c ****     counter += Codec_WriteRegister(0x20, Volume + 0x19); 
 704              		.loc 1 819 0
 705 0010 0546     		mov	r5, r0	@ D.8795,
 706              	.LVL55:
 820:src/stm32f4_discovery_audio_codec.c ****     counter += Codec_WriteRegister(0x21, Volume + 0x19); 
 707              		.loc 1 820 0
 708 0012 2120     		movs	r0, #33	@,
 709              	.LVL56:
 710 0014 FFF7FEFF 		bl	Codec_WriteRegister	@
 711              	.LVL57:
 712 0018 4019     		adds	r0, r0, r5	@ counter,, D.8795
 713              	.LVL58:
 824:src/stm32f4_discovery_audio_codec.c **** }
 714              		.loc 1 824 0
 715 001a 38BD     		pop	{r3, r4, r5, pc}	@
 716              		.cfi_endproc
 717              	.LFE127:
 718              		.size	Codec_VolumeCtrl, .-Codec_VolumeCtrl
 719              		.section	.text.EVAL_AUDIO_SetAudioInterface,"ax",%progbits
 720              		.align	2
 721              		.global	EVAL_AUDIO_SetAudioInterface
 722              		.thumb
 723              		.thumb_func
 724              		.type	EVAL_AUDIO_SetAudioInterface, %function
 725              	EVAL_AUDIO_SetAudioInterface:
 726              	.LFB110:
 271:src/stm32f4_discovery_audio_codec.c **** {    
 727              		.loc 1 271 0
 728              		.cfi_startproc
 729              		@ args = 0, pretend = 0, frame = 0
 730              		@ frame_needed = 0, uses_anonymous_args = 0
 731              		@ link register save eliminated.
 732              	.LVL59:
 272:src/stm32f4_discovery_audio_codec.c ****   CurrAudioInterface = Interface;
ARM GAS  C:\Users\CNous\AppData\Local\Temp\ccPT5vWC.s 			page 38


 733              		.loc 1 272 0
 734 0000 324B     		ldr	r3, .L90	@ tmp136,
 271:src/stm32f4_discovery_audio_codec.c **** {    
 735              		.loc 1 271 0
 736 0002 F0B4     		push	{r4, r5, r6, r7}	@
 737              	.LCFI4:
 738              		.cfi_def_cfa_offset 16
 739              		.cfi_offset 4, -16
 740              		.cfi_offset 5, -12
 741              		.cfi_offset 6, -8
 742              		.cfi_offset 7, -4
 272:src/stm32f4_discovery_audio_codec.c ****   CurrAudioInterface = Interface;
 743              		.loc 1 272 0
 744 0004 1860     		str	r0, [r3, #0]	@ Interface, CurrAudioInterface
 274:src/stm32f4_discovery_audio_codec.c ****   if (CurrAudioInterface == AUDIO_INTERFACE_I2S)
 745              		.loc 1 274 0
 746 0006 1968     		ldr	r1, [r3, #0]	@ CurrAudioInterface.65, CurrAudioInterface
 747 0008 0129     		cmp	r1, #1	@ CurrAudioInterface.65,
 748 000a 34D0     		beq	.L88	@,
 288:src/stm32f4_discovery_audio_codec.c ****   else if (Interface == AUDIO_INTERFACE_DAC)
 749              		.loc 1 288 0
 750 000c 0228     		cmp	r0, #2	@ Interface,
 751 000e 01D0     		beq	.L89	@,
 752              	.LVL60:
 753              	.L85:
 302:src/stm32f4_discovery_audio_codec.c **** }
 754              		.loc 1 302 0
 755 0010 F0BC     		pop	{r4, r5, r6, r7}
 756 0012 7047     		bx	lr
 757              	.LVL61:
 758              	.L89:
 291:src/stm32f4_discovery_audio_codec.c ****     AUDIO_MAL_DMA_CLOCK    = AUDIO_DAC_DMA_CLOCK;
 759              		.loc 1 291 0
 760 0014 2E4F     		ldr	r7, .L90+4	@ tmp158,
 761 0016 4FF4001C 		mov	ip, #2097152	@ tmp159,
 762 001a C7F800C0 		str	ip, [r7, #0]	@ tmp159, AUDIO_MAL_DMA_CLOCK
 292:src/stm32f4_discovery_audio_codec.c ****     AUDIO_MAL_DMA_STREAM   = AUDIO_DAC_DMA_STREAM;        
 763              		.loc 1 292 0
 764 001e 46F21006 		movw	r6, #24592	@ tmp161,
 765 0022 2C4F     		ldr	r7, .L90+8	@ tmp160,
 766 0024 C4F20206 		movt	r6, 16386	@ tmp161,
 293:src/stm32f4_discovery_audio_codec.c ****     AUDIO_MAL_DMA_DREG     = AUDIO_DAC_DMA_DREG;
 767              		.loc 1 293 0
 768 0028 47F20C45 		movw	r5, #29708	@ tmp163,
 292:src/stm32f4_discovery_audio_codec.c ****     AUDIO_MAL_DMA_STREAM   = AUDIO_DAC_DMA_STREAM;        
 769              		.loc 1 292 0
 770 002c 3E60     		str	r6, [r7, #0]	@ tmp161, AUDIO_MAL_DMA_STREAM
 293:src/stm32f4_discovery_audio_codec.c ****     AUDIO_MAL_DMA_DREG     = AUDIO_DAC_DMA_DREG;
 771              		.loc 1 293 0
 772 002e 2A4E     		ldr	r6, .L90+12	@ tmp162,
 773 0030 C4F20005 		movt	r5, 16384	@ tmp163,
 774 0034 3560     		str	r5, [r6, #0]	@ tmp163, AUDIO_MAL_DMA_DREG
 294:src/stm32f4_discovery_audio_codec.c ****     AUDIO_MAL_DMA_CHANNEL  = AUDIO_DAC_DMA_CHANNEL;
 775              		.loc 1 294 0
 776 0036 294D     		ldr	r5, .L90+16	@ tmp164,
 777 0038 0026     		movs	r6, #0	@ tmp165,
 778 003a 2E60     		str	r6, [r5, #0]	@ tmp165, AUDIO_MAL_DMA_CHANNEL
ARM GAS  C:\Users\CNous\AppData\Local\Temp\ccPT5vWC.s 			page 39


 295:src/stm32f4_discovery_audio_codec.c ****     AUDIO_MAL_DMA_IRQ      = AUDIO_DAC_DMA_IRQ  ;
 779              		.loc 1 295 0
 780 003c 284D     		ldr	r5, .L90+20	@ tmp166,
 781 003e 0B26     		movs	r6, #11	@ tmp167,
 782 0040 2E60     		str	r6, [r5, #0]	@ tmp167, AUDIO_MAL_DMA_IRQ
 296:src/stm32f4_discovery_audio_codec.c ****     AUDIO_MAL_DMA_FLAG_TC  = AUDIO_DAC_DMA_FLAG_TC;
 783              		.loc 1 296 0
 784 0042 2024     		movs	r4, #32	@ tmp169,
 785 0044 274D     		ldr	r5, .L90+24	@ tmp168,
 786 0046 C1F20004 		movt	r4, 4096	@ tmp169,
 297:src/stm32f4_discovery_audio_codec.c ****     AUDIO_MAL_DMA_FLAG_HT  = AUDIO_DAC_DMA_FLAG_HT;
 787              		.loc 1 297 0
 788 004a 1020     		movs	r0, #16	@ tmp171,
 789              	.LVL62:
 296:src/stm32f4_discovery_audio_codec.c ****     AUDIO_MAL_DMA_FLAG_TC  = AUDIO_DAC_DMA_FLAG_TC;
 790              		.loc 1 296 0
 791 004c 2C60     		str	r4, [r5, #0]	@ tmp169, AUDIO_MAL_DMA_FLAG_TC
 297:src/stm32f4_discovery_audio_codec.c ****     AUDIO_MAL_DMA_FLAG_HT  = AUDIO_DAC_DMA_FLAG_HT;
 792              		.loc 1 297 0
 793 004e 264C     		ldr	r4, .L90+28	@ tmp170,
 794 0050 C1F20000 		movt	r0, 4096	@ tmp171,
 298:src/stm32f4_discovery_audio_codec.c ****     AUDIO_MAL_DMA_FLAG_FE  = AUDIO_DAC_DMA_FLAG_FE;
 795              		.loc 1 298 0
 796 0054 0121     		movs	r1, #1	@ tmp173,
 297:src/stm32f4_discovery_audio_codec.c ****     AUDIO_MAL_DMA_FLAG_HT  = AUDIO_DAC_DMA_FLAG_HT;
 797              		.loc 1 297 0
 798 0056 2060     		str	r0, [r4, #0]	@ tmp171, AUDIO_MAL_DMA_FLAG_HT
 298:src/stm32f4_discovery_audio_codec.c ****     AUDIO_MAL_DMA_FLAG_FE  = AUDIO_DAC_DMA_FLAG_FE;
 799              		.loc 1 298 0
 800 0058 2448     		ldr	r0, .L90+32	@ tmp172,
 801 005a C1F28001 		movt	r1, 4224	@ tmp173,
 299:src/stm32f4_discovery_audio_codec.c ****     AUDIO_MAL_DMA_FLAG_TE  = AUDIO_DAC_DMA_FLAG_TE;
 802              		.loc 1 299 0
 803 005e 0822     		movs	r2, #8	@ tmp175,
 298:src/stm32f4_discovery_audio_codec.c ****     AUDIO_MAL_DMA_FLAG_FE  = AUDIO_DAC_DMA_FLAG_FE;
 804              		.loc 1 298 0
 805 0060 0160     		str	r1, [r0, #0]	@ tmp173, AUDIO_MAL_DMA_FLAG_FE
 299:src/stm32f4_discovery_audio_codec.c ****     AUDIO_MAL_DMA_FLAG_TE  = AUDIO_DAC_DMA_FLAG_TE;
 806              		.loc 1 299 0
 807 0062 2349     		ldr	r1, .L90+36	@ tmp174,
 808 0064 C1F20002 		movt	r2, 4096	@ tmp175,
 300:src/stm32f4_discovery_audio_codec.c ****     AUDIO_MAL_DMA_FLAG_DME = AUDIO_DAC_DMA_FLAG_DME;    
 809              		.loc 1 300 0
 810 0068 0423     		movs	r3, #4	@ tmp177,
 299:src/stm32f4_discovery_audio_codec.c ****     AUDIO_MAL_DMA_FLAG_TE  = AUDIO_DAC_DMA_FLAG_TE;
 811              		.loc 1 299 0
 812 006a 0A60     		str	r2, [r1, #0]	@ tmp175, AUDIO_MAL_DMA_FLAG_TE
 300:src/stm32f4_discovery_audio_codec.c ****     AUDIO_MAL_DMA_FLAG_DME = AUDIO_DAC_DMA_FLAG_DME;    
 813              		.loc 1 300 0
 814 006c 214A     		ldr	r2, .L90+40	@ tmp176,
 815 006e C1F28003 		movt	r3, 4224	@ tmp177,
 816 0072 1360     		str	r3, [r2, #0]	@ tmp177, AUDIO_MAL_DMA_FLAG_DME
 817 0074 CCE7     		b	.L85	@
 818              	.LVL63:
 819              	.L88:
 277:src/stm32f4_discovery_audio_codec.c ****     AUDIO_MAL_DMA_CLOCK    = AUDIO_I2S_DMA_CLOCK;
 820              		.loc 1 277 0
ARM GAS  C:\Users\CNous\AppData\Local\Temp\ccPT5vWC.s 			page 40


 821 0076 1649     		ldr	r1, .L90+4	@ tmp138,
 822 0078 4FF40010 		mov	r0, #2097152	@ tmp139,
 823              	.LVL64:
 824 007c 0860     		str	r0, [r1, #0]	@ tmp139, AUDIO_MAL_DMA_CLOCK
 278:src/stm32f4_discovery_audio_codec.c ****     AUDIO_MAL_DMA_STREAM   = AUDIO_I2S_DMA_STREAM;        
 825              		.loc 1 278 0
 826 007e 46F2B802 		movw	r2, #24760	@ tmp141,
 827 0082 1448     		ldr	r0, .L90+8	@ tmp140,
 828 0084 C4F20202 		movt	r2, 16386	@ tmp141,
 829 0088 0260     		str	r2, [r0, #0]	@ tmp141, AUDIO_MAL_DMA_STREAM
 279:src/stm32f4_discovery_audio_codec.c ****     AUDIO_MAL_DMA_DREG     = AUDIO_I2S_DMA_DREG;
 830              		.loc 1 279 0
 831 008a 43F60C43 		movw	r3, #15372	@ tmp143,
 832 008e 124A     		ldr	r2, .L90+12	@ tmp142,
 833 0090 C4F20003 		movt	r3, 16384	@ tmp143,
 834 0094 1360     		str	r3, [r2, #0]	@ tmp143, AUDIO_MAL_DMA_DREG
 280:src/stm32f4_discovery_audio_codec.c ****     AUDIO_MAL_DMA_CHANNEL  = AUDIO_I2S_DMA_CHANNEL;
 835              		.loc 1 280 0
 836 0096 114B     		ldr	r3, .L90+16	@ tmp144,
 281:src/stm32f4_discovery_audio_codec.c ****     AUDIO_MAL_DMA_IRQ      = AUDIO_I2S_DMA_IRQ  ;
 837              		.loc 1 281 0
 838 0098 114A     		ldr	r2, .L90+20	@ tmp146,
 280:src/stm32f4_discovery_audio_codec.c ****     AUDIO_MAL_DMA_CHANNEL  = AUDIO_I2S_DMA_CHANNEL;
 839              		.loc 1 280 0
 840 009a 0021     		movs	r1, #0	@ tmp145,
 841 009c 1960     		str	r1, [r3, #0]	@ tmp145, AUDIO_MAL_DMA_CHANNEL
 282:src/stm32f4_discovery_audio_codec.c ****     AUDIO_MAL_DMA_FLAG_TC  = AUDIO_I2S_DMA_FLAG_TC;
 842              		.loc 1 282 0
 843 009e 114B     		ldr	r3, .L90+24	@ tmp148,
 281:src/stm32f4_discovery_audio_codec.c ****     AUDIO_MAL_DMA_IRQ      = AUDIO_I2S_DMA_IRQ  ;
 844              		.loc 1 281 0
 845 00a0 2F20     		movs	r0, #47	@ tmp147,
 282:src/stm32f4_discovery_audio_codec.c ****     AUDIO_MAL_DMA_FLAG_TC  = AUDIO_I2S_DMA_FLAG_TC;
 846              		.loc 1 282 0
 847 00a2 4FF02051 		mov	r1, #671088640	@ tmp149,
 281:src/stm32f4_discovery_audio_codec.c ****     AUDIO_MAL_DMA_IRQ      = AUDIO_I2S_DMA_IRQ  ;
 848              		.loc 1 281 0
 849 00a6 1060     		str	r0, [r2, #0]	@ tmp147, AUDIO_MAL_DMA_IRQ
 282:src/stm32f4_discovery_audio_codec.c ****     AUDIO_MAL_DMA_FLAG_TC  = AUDIO_I2S_DMA_FLAG_TC;
 850              		.loc 1 282 0
 851 00a8 1960     		str	r1, [r3, #0]	@ tmp149, AUDIO_MAL_DMA_FLAG_TC
 283:src/stm32f4_discovery_audio_codec.c ****     AUDIO_MAL_DMA_FLAG_HT  = AUDIO_I2S_DMA_FLAG_HT;
 852              		.loc 1 283 0
 853 00aa 0F4A     		ldr	r2, .L90+28	@ tmp150,
 284:src/stm32f4_discovery_audio_codec.c ****     AUDIO_MAL_DMA_FLAG_FE  = AUDIO_I2S_DMA_FLAG_FE;
 854              		.loc 1 284 0
 855 00ac 0F4B     		ldr	r3, .L90+32	@ tmp152,
 283:src/stm32f4_discovery_audio_codec.c ****     AUDIO_MAL_DMA_FLAG_HT  = AUDIO_I2S_DMA_FLAG_HT;
 856              		.loc 1 283 0
 857 00ae 4FF01050 		mov	r0, #603979776	@ tmp151,
 284:src/stm32f4_discovery_audio_codec.c ****     AUDIO_MAL_DMA_FLAG_FE  = AUDIO_I2S_DMA_FLAG_FE;
 858              		.loc 1 284 0
 859 00b2 4FF00151 		mov	r1, #541065216	@ tmp153,
 283:src/stm32f4_discovery_audio_codec.c ****     AUDIO_MAL_DMA_FLAG_HT  = AUDIO_I2S_DMA_FLAG_HT;
 860              		.loc 1 283 0
 861 00b6 1060     		str	r0, [r2, #0]	@ tmp151, AUDIO_MAL_DMA_FLAG_HT
 284:src/stm32f4_discovery_audio_codec.c ****     AUDIO_MAL_DMA_FLAG_FE  = AUDIO_I2S_DMA_FLAG_FE;
ARM GAS  C:\Users\CNous\AppData\Local\Temp\ccPT5vWC.s 			page 41


 862              		.loc 1 284 0
 863 00b8 1960     		str	r1, [r3, #0]	@ tmp153, AUDIO_MAL_DMA_FLAG_FE
 285:src/stm32f4_discovery_audio_codec.c ****     AUDIO_MAL_DMA_FLAG_TE  = AUDIO_I2S_DMA_FLAG_TE;
 864              		.loc 1 285 0
 865 00ba 0D4A     		ldr	r2, .L90+36	@ tmp154,
 286:src/stm32f4_discovery_audio_codec.c ****     AUDIO_MAL_DMA_FLAG_DME = AUDIO_I2S_DMA_FLAG_DME;
 866              		.loc 1 286 0
 867 00bc 0D4B     		ldr	r3, .L90+40	@ tmp156,
 285:src/stm32f4_discovery_audio_codec.c ****     AUDIO_MAL_DMA_FLAG_TE  = AUDIO_I2S_DMA_FLAG_TE;
 868              		.loc 1 285 0
 869 00be 4FF00850 		mov	r0, #570425344	@ tmp155,
 286:src/stm32f4_discovery_audio_codec.c ****     AUDIO_MAL_DMA_FLAG_DME = AUDIO_I2S_DMA_FLAG_DME;
 870              		.loc 1 286 0
 871 00c2 4FF00451 		mov	r1, #553648128	@ tmp157,
 285:src/stm32f4_discovery_audio_codec.c ****     AUDIO_MAL_DMA_FLAG_TE  = AUDIO_I2S_DMA_FLAG_TE;
 872              		.loc 1 285 0
 873 00c6 1060     		str	r0, [r2, #0]	@ tmp155, AUDIO_MAL_DMA_FLAG_TE
 286:src/stm32f4_discovery_audio_codec.c ****     AUDIO_MAL_DMA_FLAG_DME = AUDIO_I2S_DMA_FLAG_DME;
 874              		.loc 1 286 0
 875 00c8 1960     		str	r1, [r3, #0]	@ tmp157, AUDIO_MAL_DMA_FLAG_DME
 876 00ca A1E7     		b	.L85	@
 877              	.L91:
 878              		.align	2
 879              	.L90:
 880 00cc 00000000 		.word	.LANCHOR5
 881 00d0 00000000 		.word	.LANCHOR6
 882 00d4 00000000 		.word	.LANCHOR1
 883 00d8 00000000 		.word	.LANCHOR7
 884 00dc 00000000 		.word	.LANCHOR8
 885 00e0 00000000 		.word	.LANCHOR9
 886 00e4 00000000 		.word	.LANCHOR2
 887 00e8 00000000 		.word	.LANCHOR3
 888 00ec 00000000 		.word	.LANCHOR10
 889 00f0 00000000 		.word	.LANCHOR11
 890 00f4 00000000 		.word	.LANCHOR12
 891              		.cfi_endproc
 892              	.LFE110:
 893              		.size	EVAL_AUDIO_SetAudioInterface, .-EVAL_AUDIO_SetAudioInterface
 894              		.section	.text.EVAL_AUDIO_DeInit,"ax",%progbits
 895              		.align	2
 896              		.global	EVAL_AUDIO_DeInit
 897              		.thumb
 898              		.thumb_func
 899              		.type	EVAL_AUDIO_DeInit, %function
 900              	EVAL_AUDIO_DeInit:
 901              	.LFB112:
 337:src/stm32f4_discovery_audio_codec.c **** { 
 902              		.loc 1 337 0
 903              		.cfi_startproc
 904              		@ args = 0, pretend = 0, frame = 16
 905              		@ frame_needed = 0, uses_anonymous_args = 0
 906 0000 70B5     		push	{r4, r5, r6, lr}	@
 907              	.LCFI5:
 908              		.cfi_def_cfa_offset 16
 909              		.cfi_offset 4, -16
 910              		.cfi_offset 5, -12
 911              		.cfi_offset 6, -8
ARM GAS  C:\Users\CNous\AppData\Local\Temp\ccPT5vWC.s 			page 42


 912              		.cfi_offset 14, -4
 913              	.LBB40:
 914              	.LBB41:
1286:src/stm32f4_discovery_audio_codec.c **** }
1287:src/stm32f4_discovery_audio_codec.c **** 
1288:src/stm32f4_discovery_audio_codec.c **** #ifdef USE_DEFAULT_TIMEOUT_CALLBACK
1289:src/stm32f4_discovery_audio_codec.c **** /**
1290:src/stm32f4_discovery_audio_codec.c ****   * @brief  Basic management of the timeout situation.
1291:src/stm32f4_discovery_audio_codec.c ****   * @param  None
1292:src/stm32f4_discovery_audio_codec.c ****   * @retval None
1293:src/stm32f4_discovery_audio_codec.c ****   */
1294:src/stm32f4_discovery_audio_codec.c **** uint32_t Codec_TIMEOUT_UserCallback(void)
1295:src/stm32f4_discovery_audio_codec.c **** {
1296:src/stm32f4_discovery_audio_codec.c ****   /* Block communication and all processes */
1297:src/stm32f4_discovery_audio_codec.c ****   while (1)
1298:src/stm32f4_discovery_audio_codec.c ****   {   
1299:src/stm32f4_discovery_audio_codec.c ****   }
1300:src/stm32f4_discovery_audio_codec.c **** }
1301:src/stm32f4_discovery_audio_codec.c **** #endif /* USE_DEFAULT_TIMEOUT_CALLBACK */
1302:src/stm32f4_discovery_audio_codec.c **** /*========================
1303:src/stm32f4_discovery_audio_codec.c **** 
1304:src/stm32f4_discovery_audio_codec.c ****                 Audio MAL Interface Control Functions
1305:src/stm32f4_discovery_audio_codec.c **** 
1306:src/stm32f4_discovery_audio_codec.c ****                                                 ==============================*/
1307:src/stm32f4_discovery_audio_codec.c **** 
1308:src/stm32f4_discovery_audio_codec.c **** /**
1309:src/stm32f4_discovery_audio_codec.c ****   * @brief  Initializes and prepares the Media to perform audio data transfer 
1310:src/stm32f4_discovery_audio_codec.c ****   *         from Media to the I2S peripheral.
1311:src/stm32f4_discovery_audio_codec.c ****   * @param  None
1312:src/stm32f4_discovery_audio_codec.c ****   * @retval None
1313:src/stm32f4_discovery_audio_codec.c ****   */
1314:src/stm32f4_discovery_audio_codec.c **** static void Audio_MAL_Init(void)  
1315:src/stm32f4_discovery_audio_codec.c **** { 
1316:src/stm32f4_discovery_audio_codec.c ****   
1317:src/stm32f4_discovery_audio_codec.c **** #ifdef I2S_INTERRUPT  
1318:src/stm32f4_discovery_audio_codec.c ****   NVIC_InitTypeDef   NVIC_InitStructure;
1319:src/stm32f4_discovery_audio_codec.c **** 
1320:src/stm32f4_discovery_audio_codec.c ****   NVIC_InitStructure.NVIC_IRQChannel = SPI3_IRQn;
1321:src/stm32f4_discovery_audio_codec.c ****   NVIC_InitStructure.NVIC_IRQChannelPreemptionPriority = 0;
1322:src/stm32f4_discovery_audio_codec.c ****   NVIC_InitStructure.NVIC_IRQChannelSubPriority =0;
1323:src/stm32f4_discovery_audio_codec.c ****   NVIC_InitStructure.NVIC_IRQChannelCmd = ENABLE;
1324:src/stm32f4_discovery_audio_codec.c ****   NVIC_Init(&NVIC_InitStructure);
1325:src/stm32f4_discovery_audio_codec.c ****   
1326:src/stm32f4_discovery_audio_codec.c ****   SPI_I2S_ITConfig(SPI3, SPI_I2S_IT_TXE, ENABLE);
1327:src/stm32f4_discovery_audio_codec.c **** 
1328:src/stm32f4_discovery_audio_codec.c ****   I2S_Cmd(SPI3, ENABLE); 
1329:src/stm32f4_discovery_audio_codec.c **** #else  
1330:src/stm32f4_discovery_audio_codec.c **** #if defined(AUDIO_MAL_DMA_IT_TC_EN) || defined(AUDIO_MAL_DMA_IT_HT_EN) || defined(AUDIO_MAL_DMA_IT_
1331:src/stm32f4_discovery_audio_codec.c ****   NVIC_InitTypeDef NVIC_InitStructure;
1332:src/stm32f4_discovery_audio_codec.c **** #endif
1333:src/stm32f4_discovery_audio_codec.c **** 
1334:src/stm32f4_discovery_audio_codec.c ****   if (CurrAudioInterface == AUDIO_INTERFACE_I2S)
1335:src/stm32f4_discovery_audio_codec.c ****   {
1336:src/stm32f4_discovery_audio_codec.c ****     /* Enable the DMA clock */
1337:src/stm32f4_discovery_audio_codec.c ****     RCC_AHB1PeriphClockCmd(AUDIO_MAL_DMA_CLOCK, ENABLE); 
1338:src/stm32f4_discovery_audio_codec.c ****     
1339:src/stm32f4_discovery_audio_codec.c ****     /* Configure the DMA Stream */
ARM GAS  C:\Users\CNous\AppData\Local\Temp\ccPT5vWC.s 			page 43


1340:src/stm32f4_discovery_audio_codec.c ****     DMA_Cmd(AUDIO_MAL_DMA_STREAM, DISABLE);
1341:src/stm32f4_discovery_audio_codec.c ****     DMA_DeInit(AUDIO_MAL_DMA_STREAM);
1342:src/stm32f4_discovery_audio_codec.c ****     /* Set the parameters to be configured */
1343:src/stm32f4_discovery_audio_codec.c ****     DMA_InitStructure.DMA_Channel = AUDIO_MAL_DMA_CHANNEL;  
1344:src/stm32f4_discovery_audio_codec.c ****     DMA_InitStructure.DMA_PeripheralBaseAddr = AUDIO_MAL_DMA_DREG;
1345:src/stm32f4_discovery_audio_codec.c ****     DMA_InitStructure.DMA_Memory0BaseAddr = (uint32_t)0;      /* This field will be configured in p
1346:src/stm32f4_discovery_audio_codec.c ****     DMA_InitStructure.DMA_DIR = DMA_DIR_MemoryToPeripheral;
1347:src/stm32f4_discovery_audio_codec.c ****     DMA_InitStructure.DMA_BufferSize = (uint32_t)0xFFFE;      /* This field will be configured in p
1348:src/stm32f4_discovery_audio_codec.c ****     DMA_InitStructure.DMA_PeripheralInc = DMA_PeripheralInc_Disable;
1349:src/stm32f4_discovery_audio_codec.c ****     DMA_InitStructure.DMA_MemoryInc = DMA_MemoryInc_Enable;
1350:src/stm32f4_discovery_audio_codec.c ****     DMA_InitStructure.DMA_PeripheralDataSize = AUDIO_MAL_DMA_PERIPH_DATA_SIZE;
1351:src/stm32f4_discovery_audio_codec.c ****     DMA_InitStructure.DMA_MemoryDataSize = AUDIO_MAL_DMA_MEM_DATA_SIZE; 
1352:src/stm32f4_discovery_audio_codec.c **** #ifdef AUDIO_MAL_MODE_NORMAL
1353:src/stm32f4_discovery_audio_codec.c ****     DMA_InitStructure.DMA_Mode = DMA_Mode_Normal;
1354:src/stm32f4_discovery_audio_codec.c **** #elif defined(AUDIO_MAL_MODE_CIRCULAR)
1355:src/stm32f4_discovery_audio_codec.c ****     DMA_InitStructure.DMA_Mode = DMA_Mode_Circular;
1356:src/stm32f4_discovery_audio_codec.c **** #else
1357:src/stm32f4_discovery_audio_codec.c **** #error "AUDIO_MAL_MODE_NORMAL or AUDIO_MAL_MODE_CIRCULAR should be selected !!"
1358:src/stm32f4_discovery_audio_codec.c **** #endif /* AUDIO_MAL_MODE_NORMAL */  
1359:src/stm32f4_discovery_audio_codec.c ****     DMA_InitStructure.DMA_Priority = DMA_Priority_VeryHigh;
1360:src/stm32f4_discovery_audio_codec.c ****     DMA_InitStructure.DMA_FIFOMode = DMA_FIFOMode_Disable;         
1361:src/stm32f4_discovery_audio_codec.c ****     DMA_InitStructure.DMA_FIFOThreshold = DMA_FIFOThreshold_1QuarterFull;
1362:src/stm32f4_discovery_audio_codec.c ****     DMA_InitStructure.DMA_MemoryBurst = DMA_MemoryBurst_Single;
1363:src/stm32f4_discovery_audio_codec.c ****     DMA_InitStructure.DMA_PeripheralBurst = DMA_PeripheralBurst_Single;  
1364:src/stm32f4_discovery_audio_codec.c ****     DMA_Init(AUDIO_MAL_DMA_STREAM, &DMA_InitStructure);  
1365:src/stm32f4_discovery_audio_codec.c ****     
1366:src/stm32f4_discovery_audio_codec.c ****     /* Enable the selected DMA interrupts (selected in "stm32f4_discovery_eval_audio_codec.h" defin
1367:src/stm32f4_discovery_audio_codec.c **** #ifdef AUDIO_MAL_DMA_IT_TC_EN
1368:src/stm32f4_discovery_audio_codec.c ****     DMA_ITConfig(AUDIO_MAL_DMA_STREAM, DMA_IT_TC, ENABLE);
1369:src/stm32f4_discovery_audio_codec.c **** #endif /* AUDIO_MAL_DMA_IT_TC_EN */
1370:src/stm32f4_discovery_audio_codec.c **** #ifdef AUDIO_MAL_DMA_IT_HT_EN
1371:src/stm32f4_discovery_audio_codec.c ****     DMA_ITConfig(AUDIO_MAL_DMA_STREAM, DMA_IT_HT, ENABLE);
1372:src/stm32f4_discovery_audio_codec.c **** #endif /* AUDIO_MAL_DMA_IT_HT_EN */
1373:src/stm32f4_discovery_audio_codec.c **** #ifdef AUDIO_MAL_DMA_IT_TE_EN
1374:src/stm32f4_discovery_audio_codec.c ****     DMA_ITConfig(AUDIO_MAL_DMA_STREAM, DMA_IT_TE | DMA_IT_FE | DMA_IT_DME, ENABLE);
1375:src/stm32f4_discovery_audio_codec.c **** #endif /* AUDIO_MAL_DMA_IT_TE_EN */
1376:src/stm32f4_discovery_audio_codec.c ****     
1377:src/stm32f4_discovery_audio_codec.c **** #if defined(AUDIO_MAL_DMA_IT_TC_EN) || defined(AUDIO_MAL_DMA_IT_HT_EN) || defined(AUDIO_MAL_DMA_IT_
1378:src/stm32f4_discovery_audio_codec.c ****     /* I2S DMA IRQ Channel configuration */
1379:src/stm32f4_discovery_audio_codec.c ****     NVIC_InitStructure.NVIC_IRQChannel = AUDIO_MAL_DMA_IRQ;
1380:src/stm32f4_discovery_audio_codec.c ****     NVIC_InitStructure.NVIC_IRQChannelPreemptionPriority = EVAL_AUDIO_IRQ_PREPRIO;
1381:src/stm32f4_discovery_audio_codec.c ****     NVIC_InitStructure.NVIC_IRQChannelSubPriority = EVAL_AUDIO_IRQ_SUBRIO;
1382:src/stm32f4_discovery_audio_codec.c ****     NVIC_InitStructure.NVIC_IRQChannelCmd = ENABLE;
1383:src/stm32f4_discovery_audio_codec.c ****     NVIC_Init(&NVIC_InitStructure);
1384:src/stm32f4_discovery_audio_codec.c **** #endif     
1385:src/stm32f4_discovery_audio_codec.c ****   }
1386:src/stm32f4_discovery_audio_codec.c **** 
1387:src/stm32f4_discovery_audio_codec.c **** #ifdef DAC_USE_I2S_DMA
1388:src/stm32f4_discovery_audio_codec.c ****   else
1389:src/stm32f4_discovery_audio_codec.c ****   {
1390:src/stm32f4_discovery_audio_codec.c ****     /* Enable the DMA clock */
1391:src/stm32f4_discovery_audio_codec.c ****     RCC_AHB1PeriphClockCmd(AUDIO_MAL_DMA_CLOCK, ENABLE); 
1392:src/stm32f4_discovery_audio_codec.c ****     
1393:src/stm32f4_discovery_audio_codec.c ****     /* Configure the DMA Stream */
1394:src/stm32f4_discovery_audio_codec.c ****     DMA_Cmd(AUDIO_MAL_DMA_STREAM, DISABLE);
1395:src/stm32f4_discovery_audio_codec.c ****     DMA_DeInit(AUDIO_MAL_DMA_STREAM);
1396:src/stm32f4_discovery_audio_codec.c ****     /* Set the parameters to be configured */
ARM GAS  C:\Users\CNous\AppData\Local\Temp\ccPT5vWC.s 			page 44


1397:src/stm32f4_discovery_audio_codec.c ****     DMA_InitStructure.DMA_Channel = AUDIO_MAL_DMA_CHANNEL;  
1398:src/stm32f4_discovery_audio_codec.c ****     DMA_InitStructure.DMA_PeripheralBaseAddr = AUDIO_MAL_DMA_DREG;
1399:src/stm32f4_discovery_audio_codec.c ****     DMA_InitStructure.DMA_Memory0BaseAddr = (uint32_t)0;      /* This field will be configured in p
1400:src/stm32f4_discovery_audio_codec.c ****     DMA_InitStructure.DMA_DIR = DMA_DIR_MemoryToPeripheral;
1401:src/stm32f4_discovery_audio_codec.c ****     DMA_InitStructure.DMA_BufferSize = (uint32_t)0xFFFE;      /* This field will be configured in p
1402:src/stm32f4_discovery_audio_codec.c ****     DMA_InitStructure.DMA_PeripheralInc = DMA_PeripheralInc_Disable;
1403:src/stm32f4_discovery_audio_codec.c ****     DMA_InitStructure.DMA_MemoryInc = DMA_MemoryInc_Enable;
1404:src/stm32f4_discovery_audio_codec.c ****     DMA_InitStructure.DMA_PeripheralDataSize = AUDIO_MAL_DMA_PERIPH_DATA_SIZE;
1405:src/stm32f4_discovery_audio_codec.c ****     DMA_InitStructure.DMA_MemoryDataSize = AUDIO_MAL_DMA_MEM_DATA_SIZE; 
1406:src/stm32f4_discovery_audio_codec.c **** #ifdef AUDIO_MAL_MODE_NORMAL
1407:src/stm32f4_discovery_audio_codec.c ****     DMA_InitStructure.DMA_Mode = DMA_Mode_Normal;
1408:src/stm32f4_discovery_audio_codec.c **** #elif defined(AUDIO_MAL_MODE_CIRCULAR)
1409:src/stm32f4_discovery_audio_codec.c ****     DMA_InitStructure.DMA_Mode = DMA_Mode_Circular;
1410:src/stm32f4_discovery_audio_codec.c **** #else
1411:src/stm32f4_discovery_audio_codec.c **** #error "AUDIO_MAL_MODE_NORMAL or AUDIO_MAL_MODE_CIRCULAR should be selected !!"
1412:src/stm32f4_discovery_audio_codec.c **** #endif /* AUDIO_MAL_MODE_NORMAL */  
1413:src/stm32f4_discovery_audio_codec.c ****     DMA_InitStructure.DMA_Priority = DMA_Priority_High;
1414:src/stm32f4_discovery_audio_codec.c ****     DMA_InitStructure.DMA_FIFOMode = DMA_FIFOMode_Enable;         
1415:src/stm32f4_discovery_audio_codec.c ****     DMA_InitStructure.DMA_FIFOThreshold = DMA_FIFOThreshold_Full;
1416:src/stm32f4_discovery_audio_codec.c ****     DMA_InitStructure.DMA_MemoryBurst = DMA_MemoryBurst_Single;
1417:src/stm32f4_discovery_audio_codec.c ****     DMA_InitStructure.DMA_PeripheralBurst = DMA_PeripheralBurst_Single;  
1418:src/stm32f4_discovery_audio_codec.c ****     DMA_Init(AUDIO_MAL_DMA_STREAM, &DMA_InitStructure);  
1419:src/stm32f4_discovery_audio_codec.c ****     
1420:src/stm32f4_discovery_audio_codec.c ****     /* Enable the selected DMA interrupts (selected in "stm32f4_discovery_eval_audio_codec.h" defin
1421:src/stm32f4_discovery_audio_codec.c **** #ifdef AUDIO_MAL_DMA_IT_TC_EN
1422:src/stm32f4_discovery_audio_codec.c ****     DMA_ITConfig(AUDIO_MAL_DMA_STREAM, DMA_IT_TC, ENABLE);
1423:src/stm32f4_discovery_audio_codec.c **** #endif /* AUDIO_MAL_DMA_IT_TC_EN */
1424:src/stm32f4_discovery_audio_codec.c **** #ifdef AUDIO_MAL_DMA_IT_HT_EN
1425:src/stm32f4_discovery_audio_codec.c ****     DMA_ITConfig(AUDIO_MAL_DMA_STREAM, DMA_IT_HT, ENABLE);
1426:src/stm32f4_discovery_audio_codec.c **** #endif /* AUDIO_MAL_DMA_IT_HT_EN */
1427:src/stm32f4_discovery_audio_codec.c **** #ifdef AUDIO_MAL_DMA_IT_TE_EN
1428:src/stm32f4_discovery_audio_codec.c ****     DMA_ITConfig(AUDIO_MAL_DMA_STREAM, DMA_IT_TE | DMA_IT_FE | DMA_IT_DME, ENABLE);
1429:src/stm32f4_discovery_audio_codec.c **** #endif /* AUDIO_MAL_DMA_IT_TE_EN */
1430:src/stm32f4_discovery_audio_codec.c ****     
1431:src/stm32f4_discovery_audio_codec.c **** #if defined(AUDIO_MAL_DMA_IT_TC_EN) || defined(AUDIO_MAL_DMA_IT_HT_EN) || defined(AUDIO_MAL_DMA_IT_
1432:src/stm32f4_discovery_audio_codec.c ****     /* I2S DMA IRQ Channel configuration */
1433:src/stm32f4_discovery_audio_codec.c ****     NVIC_InitStructure.NVIC_IRQChannel = AUDIO_MAL_DMA_IRQ;
1434:src/stm32f4_discovery_audio_codec.c ****     NVIC_InitStructure.NVIC_IRQChannelPreemptionPriority = EVAL_AUDIO_IRQ_PREPRIO;
1435:src/stm32f4_discovery_audio_codec.c ****     NVIC_InitStructure.NVIC_IRQChannelSubPriority = EVAL_AUDIO_IRQ_SUBRIO;
1436:src/stm32f4_discovery_audio_codec.c ****     NVIC_InitStructure.NVIC_IRQChannelCmd = ENABLE;
1437:src/stm32f4_discovery_audio_codec.c ****     NVIC_Init(&NVIC_InitStructure);
1438:src/stm32f4_discovery_audio_codec.c **** #endif 
1439:src/stm32f4_discovery_audio_codec.c ****   }
1440:src/stm32f4_discovery_audio_codec.c **** #endif /* DAC_USE_I2S_DMA */
1441:src/stm32f4_discovery_audio_codec.c ****   
1442:src/stm32f4_discovery_audio_codec.c ****   if (CurrAudioInterface == AUDIO_INTERFACE_I2S)
1443:src/stm32f4_discovery_audio_codec.c ****   {
1444:src/stm32f4_discovery_audio_codec.c ****     /* Enable the I2S DMA request */
1445:src/stm32f4_discovery_audio_codec.c ****     SPI_I2S_DMACmd(CODEC_I2S, SPI_I2S_DMAReq_Tx, ENABLE);  
1446:src/stm32f4_discovery_audio_codec.c ****   }
1447:src/stm32f4_discovery_audio_codec.c ****   else
1448:src/stm32f4_discovery_audio_codec.c ****   {
1449:src/stm32f4_discovery_audio_codec.c ****     /* Configure the STM32 DAC to geenrate audio analog signal */
1450:src/stm32f4_discovery_audio_codec.c ****     DAC_Config();
1451:src/stm32f4_discovery_audio_codec.c ****     
1452:src/stm32f4_discovery_audio_codec.c **** #ifndef DAC_USE_I2S_DMA
1453:src/stm32f4_discovery_audio_codec.c ****     /* Enable the I2S interrupt used to write into the DAC register */
ARM GAS  C:\Users\CNous\AppData\Local\Temp\ccPT5vWC.s 			page 45


1454:src/stm32f4_discovery_audio_codec.c ****     SPI_I2S_ITConfig(SPI3, SPI_I2S_IT_TXE, ENABLE);
1455:src/stm32f4_discovery_audio_codec.c ****     
1456:src/stm32f4_discovery_audio_codec.c ****     /* I2S DMA IRQ Channel configuration */
1457:src/stm32f4_discovery_audio_codec.c ****     NVIC_InitStructure.NVIC_IRQChannel = CODEC_I2S_IRQ;
1458:src/stm32f4_discovery_audio_codec.c ****     NVIC_InitStructure.NVIC_IRQChannelPreemptionPriority = EVAL_AUDIO_IRQ_PREPRIO;
1459:src/stm32f4_discovery_audio_codec.c ****     NVIC_InitStructure.NVIC_IRQChannelSubPriority = EVAL_AUDIO_IRQ_SUBRIO;
1460:src/stm32f4_discovery_audio_codec.c ****     NVIC_InitStructure.NVIC_IRQChannelCmd = ENABLE;
1461:src/stm32f4_discovery_audio_codec.c ****     NVIC_Init(&NVIC_InitStructure); 
1462:src/stm32f4_discovery_audio_codec.c **** #else
1463:src/stm32f4_discovery_audio_codec.c ****     /* Enable the I2S DMA request */
1464:src/stm32f4_discovery_audio_codec.c ****     SPI_I2S_DMACmd(CODEC_I2S, SPI_I2S_DMAReq_Rx, ENABLE);   
1465:src/stm32f4_discovery_audio_codec.c **** #endif /* DAC_USE_I2S_DMA */
1466:src/stm32f4_discovery_audio_codec.c ****   }
1467:src/stm32f4_discovery_audio_codec.c **** #endif
1468:src/stm32f4_discovery_audio_codec.c **** }
1469:src/stm32f4_discovery_audio_codec.c **** 
1470:src/stm32f4_discovery_audio_codec.c **** /**
1471:src/stm32f4_discovery_audio_codec.c ****   * @brief  Restore default state of the used Media.
1472:src/stm32f4_discovery_audio_codec.c ****   * @param  None
1473:src/stm32f4_discovery_audio_codec.c ****   * @retval None
1474:src/stm32f4_discovery_audio_codec.c ****   */
1475:src/stm32f4_discovery_audio_codec.c **** static void Audio_MAL_DeInit(void)  
1476:src/stm32f4_discovery_audio_codec.c **** {   
1477:src/stm32f4_discovery_audio_codec.c **** #if defined(AUDIO_MAL_DMA_IT_TC_EN) || defined(AUDIO_MAL_DMA_IT_HT_EN) || defined(AUDIO_MAL_DMA_IT_
1478:src/stm32f4_discovery_audio_codec.c ****   NVIC_InitTypeDef NVIC_InitStructure;  
1479:src/stm32f4_discovery_audio_codec.c ****   
1480:src/stm32f4_discovery_audio_codec.c ****   /* Deinitialize the NVIC interrupt for the I2S DMA Stream */
1481:src/stm32f4_discovery_audio_codec.c ****   NVIC_InitStructure.NVIC_IRQChannel = AUDIO_MAL_DMA_IRQ;
 915              		.loc 1 1481 0
 916 0002 40F20003 		movw	r3, #:lower16:.LANCHOR9	@ tmp177,
 917 0006 C0F20003 		movt	r3, #:upper16:.LANCHOR9	@ tmp177,
1482:src/stm32f4_discovery_audio_codec.c ****   NVIC_InitStructure.NVIC_IRQChannelPreemptionPriority = EVAL_AUDIO_IRQ_PREPRIO;
1483:src/stm32f4_discovery_audio_codec.c ****   NVIC_InitStructure.NVIC_IRQChannelSubPriority = EVAL_AUDIO_IRQ_SUBRIO;
1484:src/stm32f4_discovery_audio_codec.c ****   NVIC_InitStructure.NVIC_IRQChannelCmd = DISABLE;
1485:src/stm32f4_discovery_audio_codec.c ****   NVIC_Init(&NVIC_InitStructure);  
1486:src/stm32f4_discovery_audio_codec.c **** #endif 
1487:src/stm32f4_discovery_audio_codec.c ****   
1488:src/stm32f4_discovery_audio_codec.c ****   /* Disable the DMA stream before the deinit */
1489:src/stm32f4_discovery_audio_codec.c ****   DMA_Cmd(AUDIO_MAL_DMA_STREAM, DISABLE);
 918              		.loc 1 1489 0
 919 000a 40F20006 		movw	r6, #:lower16:.LANCHOR1	@ tmp178,
 920              	.LBE41:
 921              	.LBE40:
 337:src/stm32f4_discovery_audio_codec.c **** { 
 922              		.loc 1 337 0
 923 000e 84B0     		sub	sp, sp, #16	@,,
 924              	.LCFI6:
 925              		.cfi_def_cfa_offset 32
 926              	.LBB45:
 927              	.LBB42:
1481:src/stm32f4_discovery_audio_codec.c ****   NVIC_InitStructure.NVIC_IRQChannel = AUDIO_MAL_DMA_IRQ;
 928              		.loc 1 1481 0
 929 0010 1968     		ldr	r1, [r3, #0]	@ AUDIO_MAL_DMA_IRQ, AUDIO_MAL_DMA_IRQ
 930              		.loc 1 1489 0
 931 0012 C0F20006 		movt	r6, #:upper16:.LANCHOR1	@ tmp178,
1482:src/stm32f4_discovery_audio_codec.c ****   NVIC_InitStructure.NVIC_IRQChannelPreemptionPriority = EVAL_AUDIO_IRQ_PREPRIO;
 932              		.loc 1 1482 0
ARM GAS  C:\Users\CNous\AppData\Local\Temp\ccPT5vWC.s 			page 46


 933 0016 0024     		movs	r4, #0	@ tmp142,
1485:src/stm32f4_discovery_audio_codec.c ****   NVIC_Init(&NVIC_InitStructure);  
 934              		.loc 1 1485 0
 935 0018 01A8     		add	r0, sp, #4	@,,
1481:src/stm32f4_discovery_audio_codec.c ****   NVIC_InitStructure.NVIC_IRQChannel = AUDIO_MAL_DMA_IRQ;
 936              		.loc 1 1481 0
 937 001a 8DF80410 		strb	r1, [sp, #4]	@ AUDIO_MAL_DMA_IRQ, NVIC_InitStructure.NVIC_IRQChannel
1482:src/stm32f4_discovery_audio_codec.c ****   NVIC_InitStructure.NVIC_IRQChannelPreemptionPriority = EVAL_AUDIO_IRQ_PREPRIO;
 938              		.loc 1 1482 0
 939 001e 8DF80540 		strb	r4, [sp, #5]	@ tmp142, NVIC_InitStructure.NVIC_IRQChannelPreemptionPriority
1483:src/stm32f4_discovery_audio_codec.c ****   NVIC_InitStructure.NVIC_IRQChannelSubPriority = EVAL_AUDIO_IRQ_SUBRIO;
 940              		.loc 1 1483 0
 941 0022 8DF80640 		strb	r4, [sp, #6]	@ tmp142, NVIC_InitStructure.NVIC_IRQChannelSubPriority
1484:src/stm32f4_discovery_audio_codec.c ****   NVIC_InitStructure.NVIC_IRQChannelCmd = DISABLE;
 942              		.loc 1 1484 0
 943 0026 8DF80740 		strb	r4, [sp, #7]	@ tmp142, NVIC_InitStructure.NVIC_IRQChannelCmd
1485:src/stm32f4_discovery_audio_codec.c ****   NVIC_Init(&NVIC_InitStructure);  
 944              		.loc 1 1485 0
 945 002a FFF7FEFF 		bl	NVIC_Init	@
 946              	.LVL65:
 947              		.loc 1 1489 0
 948 002e 2146     		mov	r1, r4	@, tmp142
 949 0030 3068     		ldr	r0, [r6, #0]	@, AUDIO_MAL_DMA_STREAM
 950 0032 FFF7FEFF 		bl	DMA_Cmd	@
 951              	.LVL66:
 952              	.LBE42:
 953              	.LBE45:
 954              	.LBB46:
 955              	.LBB47:
 956              	.LBB48:
 957              	.LBB49:
1258:src/stm32f4_discovery_audio_codec.c ****   GPIO_Init(CODEC_I2S_GPIO, &GPIO_InitStructure);  
 958              		.loc 1 1258 0
 959 0036 4FF40065 		mov	r5, #2048	@ tmp162,
 960              	.LBE49:
 961              	.LBE48:
 962              	.LBE47:
 963              	.LBE46:
 964              	.LBB68:
 965              	.LBB43:
1490:src/stm32f4_discovery_audio_codec.c ****   
1491:src/stm32f4_discovery_audio_codec.c ****   /* Dinitialize the DMA Stream */
1492:src/stm32f4_discovery_audio_codec.c ****   DMA_DeInit(AUDIO_MAL_DMA_STREAM);
 966              		.loc 1 1492 0
 967 003a 3068     		ldr	r0, [r6, #0]	@, AUDIO_MAL_DMA_STREAM
 968              	.LBE43:
 969              	.LBE68:
 970              	.LBB69:
 971              	.LBB66:
 972              	.LBB55:
 973              	.LBB50:
1258:src/stm32f4_discovery_audio_codec.c ****   GPIO_Init(CODEC_I2S_GPIO, &GPIO_InitStructure);  
 974              		.loc 1 1258 0
 975 003c C4F20205 		movt	r5, 16386	@ tmp162,
 976              	.LBE50:
 977              	.LBE55:
 978              	.LBE66:
ARM GAS  C:\Users\CNous\AppData\Local\Temp\ccPT5vWC.s 			page 47


 979              	.LBE69:
 980              	.LBB70:
 981              	.LBB44:
 982              		.loc 1 1492 0
 983 0040 FFF7FEFF 		bl	DMA_DeInit	@
 984              	.LVL67:
 985              	.LBE44:
 986              	.LBE70:
 987              	.LBB71:
 988              	.LBB67:
 989              	.LBB56:
 990              	.LBB51:
1261:src/stm32f4_discovery_audio_codec.c ****   GPIO_Init(CODEC_I2S_WS_GPIO, &GPIO_InitStructure); 
 991              		.loc 1 1261 0
 992 0044 2646     		mov	r6, r4	@ tmp165, tmp142
 993              	.LBE51:
 994              	.LBE56:
 694:src/stm32f4_discovery_audio_codec.c ****   Codec_Reset();  
 995              		.loc 1 694 0
 996 0046 FFF7FEFF 		bl	Codec_Reset	@
 997              	.LVL68:
 697:src/stm32f4_discovery_audio_codec.c ****   counter += Codec_WriteRegister(0x02, 0x01);    
 998              		.loc 1 697 0
 999 004a 0121     		movs	r1, #1	@,
 1000 004c 0220     		movs	r0, #2	@,
 1001 004e FFF7FEFF 		bl	Codec_WriteRegister	@
 1002              	.LVL69:
 1003              	.LBB57:
 1004              	.LBB52:
1261:src/stm32f4_discovery_audio_codec.c ****   GPIO_Init(CODEC_I2S_WS_GPIO, &GPIO_InitStructure); 
 1005              		.loc 1 1261 0
 1006 0052 C4F20206 		movt	r6, 16386	@ tmp165,
1253:src/stm32f4_discovery_audio_codec.c ****   GPIO_InitStructure.GPIO_Pin =  CODEC_I2S_SCK_PIN | CODEC_I2S_SD_PIN;
 1007              		.loc 1 1253 0
 1008 0056 4FF4A052 		mov	r2, #5120	@ tmp153,
1258:src/stm32f4_discovery_audio_codec.c ****   GPIO_Init(CODEC_I2S_GPIO, &GPIO_InitStructure);  
 1009              		.loc 1 1258 0
 1010 005a 2846     		mov	r0, r5	@, tmp162
 1011 005c 02A9     		add	r1, sp, #8	@,,
1253:src/stm32f4_discovery_audio_codec.c ****   GPIO_InitStructure.GPIO_Pin =  CODEC_I2S_SCK_PIN | CODEC_I2S_SD_PIN;
 1012              		.loc 1 1253 0
 1013 005e 0292     		str	r2, [sp, #8]	@ tmp153, GPIO_InitStructure.GPIO_Pin
1254:src/stm32f4_discovery_audio_codec.c ****   GPIO_InitStructure.GPIO_Mode = GPIO_Mode_IN;
 1014              		.loc 1 1254 0
 1015 0060 8DF80C40 		strb	r4, [sp, #12]	@ tmp142, GPIO_InitStructure.GPIO_Mode
1255:src/stm32f4_discovery_audio_codec.c ****   GPIO_InitStructure.GPIO_Speed = GPIO_Speed_2MHz;
 1016              		.loc 1 1255 0
 1017 0064 8DF80D40 		strb	r4, [sp, #13]	@ tmp142, GPIO_InitStructure.GPIO_Speed
1256:src/stm32f4_discovery_audio_codec.c ****   GPIO_InitStructure.GPIO_OType = GPIO_OType_PP;
 1018              		.loc 1 1256 0
 1019 0068 8DF80E40 		strb	r4, [sp, #14]	@ tmp142, GPIO_InitStructure.GPIO_OType
1257:src/stm32f4_discovery_audio_codec.c ****   GPIO_InitStructure.GPIO_PuPd  = GPIO_PuPd_NOPULL;
 1020              		.loc 1 1257 0
 1021 006c 8DF80F40 		strb	r4, [sp, #15]	@ tmp142, GPIO_InitStructure.GPIO_PuPd
1258:src/stm32f4_discovery_audio_codec.c ****   GPIO_Init(CODEC_I2S_GPIO, &GPIO_InitStructure);  
 1022              		.loc 1 1258 0
 1023 0070 FFF7FEFF 		bl	GPIO_Init	@
ARM GAS  C:\Users\CNous\AppData\Local\Temp\ccPT5vWC.s 			page 48


 1024              	.LVL70:
1260:src/stm32f4_discovery_audio_codec.c ****   GPIO_InitStructure.GPIO_Pin = CODEC_I2S_WS_PIN ;
 1025              		.loc 1 1260 0
 1026 0074 1023     		movs	r3, #16	@ tmp164,
1261:src/stm32f4_discovery_audio_codec.c ****   GPIO_Init(CODEC_I2S_WS_GPIO, &GPIO_InitStructure); 
 1027              		.loc 1 1261 0
 1028 0076 02A9     		add	r1, sp, #8	@,,
 1029 0078 3046     		mov	r0, r6	@, tmp165
1260:src/stm32f4_discovery_audio_codec.c ****   GPIO_InitStructure.GPIO_Pin = CODEC_I2S_WS_PIN ;
 1030              		.loc 1 1260 0
 1031 007a 0293     		str	r3, [sp, #8]	@ tmp164, GPIO_InitStructure.GPIO_Pin
1261:src/stm32f4_discovery_audio_codec.c ****   GPIO_Init(CODEC_I2S_WS_GPIO, &GPIO_InitStructure); 
 1032              		.loc 1 1261 0
 1033 007c FFF7FEFF 		bl	GPIO_Init	@
 1034              	.LVL71:
1264:src/stm32f4_discovery_audio_codec.c ****   GPIO_PinAFConfig(CODEC_I2S_WS_GPIO, CODEC_I2S_WS_PINSRC, 0x00);  
 1035              		.loc 1 1264 0
 1036 0080 3046     		mov	r0, r6	@, tmp165
 1037 0082 0421     		movs	r1, #4	@,
 1038 0084 2246     		mov	r2, r4	@, tmp142
 1039 0086 FFF7FEFF 		bl	GPIO_PinAFConfig	@
 1040              	.LVL72:
1265:src/stm32f4_discovery_audio_codec.c ****   GPIO_PinAFConfig(CODEC_I2S_GPIO, CODEC_I2S_SCK_PINSRC, 0x00);
 1041              		.loc 1 1265 0
 1042 008a 2846     		mov	r0, r5	@, tmp162
 1043 008c 0A21     		movs	r1, #10	@,
 1044 008e 2246     		mov	r2, r4	@, tmp142
 1045 0090 FFF7FEFF 		bl	GPIO_PinAFConfig	@
 1046              	.LVL73:
1266:src/stm32f4_discovery_audio_codec.c ****   GPIO_PinAFConfig(CODEC_I2S_GPIO, CODEC_I2S_SD_PINSRC, 0x00);  
 1047              		.loc 1 1266 0
 1048 0094 2846     		mov	r0, r5	@, tmp162
 1049 0096 2246     		mov	r2, r4	@, tmp142
 1050 0098 0C21     		movs	r1, #12	@,
 1051 009a FFF7FEFF 		bl	GPIO_PinAFConfig	@
 1052              	.LVL74:
 1053              	.LBE52:
 1054              	.LBE57:
 1055              	.LBB58:
 1056              	.LBB59:
1156:src/stm32f4_discovery_audio_codec.c ****   I2S_Cmd(CODEC_I2S, DISABLE);
 1057              		.loc 1 1156 0
 1058 009e 4FF47056 		mov	r6, #15360	@ tmp174,
 1059              	.LBE59:
 1060              	.LBE58:
 1061              	.LBB62:
 1062              	.LBB53:
1270:src/stm32f4_discovery_audio_codec.c ****   GPIO_InitStructure.GPIO_Pin = CODEC_I2S_MCK_PIN; 
 1063              		.loc 1 1270 0
 1064 00a2 8022     		movs	r2, #128	@ tmp170,
1271:src/stm32f4_discovery_audio_codec.c ****   GPIO_Init(CODEC_I2S_MCK_GPIO, &GPIO_InitStructure);   
 1065              		.loc 1 1271 0
 1066 00a4 02A9     		add	r1, sp, #8	@,,
 1067 00a6 2846     		mov	r0, r5	@, tmp162
 1068              	.LBE53:
 1069              	.LBE62:
 1070              	.LBB63:
ARM GAS  C:\Users\CNous\AppData\Local\Temp\ccPT5vWC.s 			page 49


 1071              	.LBB60:
1156:src/stm32f4_discovery_audio_codec.c ****   I2S_Cmd(CODEC_I2S, DISABLE);
 1072              		.loc 1 1156 0
 1073 00a8 C4F20006 		movt	r6, 16384	@ tmp174,
 1074              	.LBE60:
 1075              	.LBE63:
 1076              	.LBB64:
 1077              	.LBB54:
1270:src/stm32f4_discovery_audio_codec.c ****   GPIO_InitStructure.GPIO_Pin = CODEC_I2S_MCK_PIN; 
 1078              		.loc 1 1270 0
 1079 00ac 0292     		str	r2, [sp, #8]	@ tmp170, GPIO_InitStructure.GPIO_Pin
1271:src/stm32f4_discovery_audio_codec.c ****   GPIO_Init(CODEC_I2S_MCK_GPIO, &GPIO_InitStructure);   
 1080              		.loc 1 1271 0
 1081 00ae FFF7FEFF 		bl	GPIO_Init	@
 1082              	.LVL75:
1273:src/stm32f4_discovery_audio_codec.c ****   GPIO_PinAFConfig(CODEC_I2S_MCK_GPIO, CODEC_I2S_MCK_PINSRC, CODEC_I2S_GPIO_AF); 
 1083              		.loc 1 1273 0
 1084 00b2 0622     		movs	r2, #6	@,
 1085 00b4 2846     		mov	r0, r5	@, tmp162
 1086 00b6 0721     		movs	r1, #7	@,
 1087 00b8 FFF7FEFF 		bl	GPIO_PinAFConfig	@
 1088              	.LVL76:
 1089              	.LBE54:
 1090              	.LBE64:
 1091              	.LBB65:
 1092              	.LBB61:
1156:src/stm32f4_discovery_audio_codec.c ****   I2S_Cmd(CODEC_I2S, DISABLE);
 1093              		.loc 1 1156 0
 1094 00bc 2146     		mov	r1, r4	@, tmp142
 1095 00be 3046     		mov	r0, r6	@, tmp174
 1096 00c0 FFF7FEFF 		bl	I2S_Cmd	@
 1097              	.LVL77:
1159:src/stm32f4_discovery_audio_codec.c ****   SPI_I2S_DeInit(CODEC_I2S);
 1098              		.loc 1 1159 0
 1099 00c4 3046     		mov	r0, r6	@, tmp174
 1100 00c6 FFF7FEFF 		bl	SPI_I2S_DeInit	@
 1101              	.LVL78:
1162:src/stm32f4_discovery_audio_codec.c ****   RCC_APB1PeriphClockCmd(CODEC_I2S_CLK, DISABLE); 
 1102              		.loc 1 1162 0
 1103 00ca 4FF40040 		mov	r0, #32768	@,
 1104 00ce 2146     		mov	r1, r4	@, tmp142
 1105 00d0 FFF7FEFF 		bl	RCC_APB1PeriphClockCmd	@
 1106              	.LVL79:
 1107              	.LBE61:
 1108              	.LBE65:
 1109              	.LBE67:
 1110              	.LBE71:
 345:src/stm32f4_discovery_audio_codec.c **** }
 1111              		.loc 1 345 0
 1112 00d4 2046     		mov	r0, r4	@, tmp142
 1113 00d6 04B0     		add	sp, sp, #16	@,,
 1114 00d8 70BD     		pop	{r4, r5, r6, pc}
 1115              		.cfi_endproc
 1116              	.LFE112:
 1117              		.size	EVAL_AUDIO_DeInit, .-EVAL_AUDIO_DeInit
 1118 00da 00BF     		.section	.text.EVAL_AUDIO_PauseResume,"ax",%progbits
 1119              		.align	2
ARM GAS  C:\Users\CNous\AppData\Local\Temp\ccPT5vWC.s 			page 50


 1120              		.global	EVAL_AUDIO_PauseResume
 1121              		.thumb
 1122              		.thumb_func
 1123              		.type	EVAL_AUDIO_PauseResume, %function
 1124              	EVAL_AUDIO_PauseResume:
 1125              	.LFB114:
 387:src/stm32f4_discovery_audio_codec.c **** {    
 1126              		.loc 1 387 0
 1127              		.cfi_startproc
 1128              		@ args = 0, pretend = 0, frame = 0
 1129              		@ frame_needed = 0, uses_anonymous_args = 0
 1130              	.LVL80:
 1131 0000 70B5     		push	{r4, r5, r6, lr}	@
 1132              	.LCFI7:
 1133              		.cfi_def_cfa_offset 16
 1134              		.cfi_offset 4, -16
 1135              		.cfi_offset 5, -12
 1136              		.cfi_offset 6, -8
 1137              		.cfi_offset 14, -4
 1138              	.LBB80:
 1139              	.LBB81:
 739:src/stm32f4_discovery_audio_codec.c ****   if (Cmd == AUDIO_PAUSE)
 1140              		.loc 1 739 0
 1141 0002 40B3     		cbz	r0, .L101	@ Cmd,
 1142              	.LVL81:
 1143              	.LBB82:
 1144              	.LBB83:
 843:src/stm32f4_discovery_audio_codec.c ****     counter += Codec_WriteRegister(0x04, OutputDev);
 1145              		.loc 1 843 0
 1146 0004 234D     		ldr	r5, .L104	@ tmp152,
 1147 0006 0420     		movs	r0, #4	@,
 1148              	.LVL82:
 1149 0008 2978     		ldrb	r1, [r5, #0]	@ zero_extendqisi2	@ OutputDev, OutputDev
 1150 000a FFF7FEFF 		bl	Codec_WriteRegister	@
 1151              	.LVL83:
 1152              	.LBE83:
 1153              	.LBE82:
 752:src/stm32f4_discovery_audio_codec.c ****     counter += Codec_WriteRegister(0x04, OutputDev);
 1154              		.loc 1 752 0
 1155 000e 2978     		ldrb	r1, [r5, #0]	@ zero_extendqisi2	@ OutputDev, OutputDev
 1156              	.LBB85:
 1157              	.LBB84:
 843:src/stm32f4_discovery_audio_codec.c ****     counter += Codec_WriteRegister(0x04, OutputDev);
 1158              		.loc 1 843 0
 1159 0010 0446     		mov	r4, r0	@ D.9190,
 1160              	.LVL84:
 1161              	.LBE84:
 1162              	.LBE85:
 752:src/stm32f4_discovery_audio_codec.c ****     counter += Codec_WriteRegister(0x04, OutputDev);
 1163              		.loc 1 752 0
 1164 0012 0420     		movs	r0, #4	@,
 1165              	.LVL85:
 1166 0014 FFF7FEFF 		bl	Codec_WriteRegister	@
 1167              	.LVL86:
 755:src/stm32f4_discovery_audio_codec.c ****     counter += Codec_WriteRegister(0x02, 0x9E); 
 1168              		.loc 1 755 0
 1169 0018 9E21     		movs	r1, #158	@,
ARM GAS  C:\Users\CNous\AppData\Local\Temp\ccPT5vWC.s 			page 51


 752:src/stm32f4_discovery_audio_codec.c ****     counter += Codec_WriteRegister(0x04, OutputDev);
 1170              		.loc 1 752 0
 1171 001a 0546     		mov	r5, r0	@ D.9178,
 1172              	.LVL87:
 755:src/stm32f4_discovery_audio_codec.c ****     counter += Codec_WriteRegister(0x02, 0x9E); 
 1173              		.loc 1 755 0
 1174 001c 0220     		movs	r0, #2	@,
 1175              	.LVL88:
 1176 001e FFF7FEFF 		bl	Codec_WriteRegister	@
 1177              	.LVL89:
 752:src/stm32f4_discovery_audio_codec.c ****     counter += Codec_WriteRegister(0x04, OutputDev);
 1178              		.loc 1 752 0
 1179 0022 4019     		adds	r0, r0, r5	@ counter,, D.9178
 1180              	.LVL90:
 1181              	.LBE81:
 1182              	.LBE80:
 389:src/stm32f4_discovery_audio_codec.c ****   if (Codec_PauseResume(Cmd) != 0)
 1183              		.loc 1 389 0
 1184 0024 0419     		adds	r4, r0, r4	@ tmp158, counter, D.9190
 1185              	.LVL91:
 1186 0026 01D0     		beq	.L102	@,
 1187              	.LVL92:
 1188              	.L97:
 391:src/stm32f4_discovery_audio_codec.c ****     return 1;
 1189              		.loc 1 391 0
 1190 0028 0120     		movs	r0, #1	@ D.8826,
 1191 002a 70BD     		pop	{r4, r5, r6, pc}	@
 1192              	.LVL93:
 1193              	.L102:
 1194              	.LBB87:
 1195              	.LBB88:
1493:src/stm32f4_discovery_audio_codec.c ****   
1494:src/stm32f4_discovery_audio_codec.c ****   /* 
1495:src/stm32f4_discovery_audio_codec.c ****      The DMA clock is not disabled, since it can be used by other streams 
1496:src/stm32f4_discovery_audio_codec.c ****                                                                           */ 
1497:src/stm32f4_discovery_audio_codec.c **** }
1498:src/stm32f4_discovery_audio_codec.c **** 
1499:src/stm32f4_discovery_audio_codec.c **** /**
1500:src/stm32f4_discovery_audio_codec.c ****   * @brief  Starts playing audio stream from the audio Media.
1501:src/stm32f4_discovery_audio_codec.c ****   * @param  None
1502:src/stm32f4_discovery_audio_codec.c ****   * @retval None
1503:src/stm32f4_discovery_audio_codec.c ****   */
1504:src/stm32f4_discovery_audio_codec.c **** void Audio_MAL_Play(uint32_t Addr, uint32_t Size)
1505:src/stm32f4_discovery_audio_codec.c **** {         
1506:src/stm32f4_discovery_audio_codec.c ****   if (CurrAudioInterface == AUDIO_INTERFACE_I2S)
1507:src/stm32f4_discovery_audio_codec.c ****   {
1508:src/stm32f4_discovery_audio_codec.c ****     /* Configure the buffer address and size */
1509:src/stm32f4_discovery_audio_codec.c ****     DMA_InitStructure.DMA_Memory0BaseAddr = (uint32_t)Addr;
1510:src/stm32f4_discovery_audio_codec.c ****     DMA_InitStructure.DMA_BufferSize = (uint32_t)Size;
1511:src/stm32f4_discovery_audio_codec.c ****     
1512:src/stm32f4_discovery_audio_codec.c ****     /* Configure the DMA Stream with the new parameters */
1513:src/stm32f4_discovery_audio_codec.c ****     DMA_Init(AUDIO_MAL_DMA_STREAM, &DMA_InitStructure);
1514:src/stm32f4_discovery_audio_codec.c ****     
1515:src/stm32f4_discovery_audio_codec.c ****     /* Enable the I2S DMA Stream*/
1516:src/stm32f4_discovery_audio_codec.c ****     DMA_Cmd(AUDIO_MAL_DMA_STREAM, ENABLE);   
1517:src/stm32f4_discovery_audio_codec.c ****   }
1518:src/stm32f4_discovery_audio_codec.c **** #ifndef DAC_USE_I2S_DMA
ARM GAS  C:\Users\CNous\AppData\Local\Temp\ccPT5vWC.s 			page 52


1519:src/stm32f4_discovery_audio_codec.c ****   else
1520:src/stm32f4_discovery_audio_codec.c ****   {
1521:src/stm32f4_discovery_audio_codec.c ****     /* Configure the buffer address and size */
1522:src/stm32f4_discovery_audio_codec.c ****     DMA_InitStructure.DMA_Memory0BaseAddr = (uint32_t)Addr;
1523:src/stm32f4_discovery_audio_codec.c ****     DMA_InitStructure.DMA_BufferSize = (uint32_t)Size;
1524:src/stm32f4_discovery_audio_codec.c ****     
1525:src/stm32f4_discovery_audio_codec.c ****     /* Configure the DMA Stream with the new parameters */
1526:src/stm32f4_discovery_audio_codec.c ****     DMA_Init(AUDIO_MAL_DMA_STREAM, &DMA_InitStructure);
1527:src/stm32f4_discovery_audio_codec.c ****     
1528:src/stm32f4_discovery_audio_codec.c ****     /* Enable the I2S DMA Stream*/
1529:src/stm32f4_discovery_audio_codec.c ****     DMA_Cmd(AUDIO_MAL_DMA_STREAM, ENABLE);
1530:src/stm32f4_discovery_audio_codec.c ****   }
1531:src/stm32f4_discovery_audio_codec.c **** #endif /* DAC_USE_I2S_DMA */
1532:src/stm32f4_discovery_audio_codec.c ****   
1533:src/stm32f4_discovery_audio_codec.c ****   /* If the I2S peripheral is still not enabled, enable it */
1534:src/stm32f4_discovery_audio_codec.c ****   if ((CODEC_I2S->I2SCFGR & I2S_ENABLE_MASK) == 0)
1535:src/stm32f4_discovery_audio_codec.c ****   {
1536:src/stm32f4_discovery_audio_codec.c ****     I2S_Cmd(CODEC_I2S, ENABLE);
1537:src/stm32f4_discovery_audio_codec.c ****   }
1538:src/stm32f4_discovery_audio_codec.c **** }
1539:src/stm32f4_discovery_audio_codec.c **** 
1540:src/stm32f4_discovery_audio_codec.c **** /**
1541:src/stm32f4_discovery_audio_codec.c ****   * @brief  Pauses or Resumes the audio stream playing from the Media.
1542:src/stm32f4_discovery_audio_codec.c ****   * @param  Cmd: AUDIO_PAUSE (or 0) to pause, AUDIO_RESUME (or any value different
1543:src/stm32f4_discovery_audio_codec.c ****   *              from 0) to resume. 
1544:src/stm32f4_discovery_audio_codec.c ****   * @param  Addr: Address from/at which the audio stream should resume/pause.
1545:src/stm32f4_discovery_audio_codec.c ****   * @retval None
1546:src/stm32f4_discovery_audio_codec.c ****   */
1547:src/stm32f4_discovery_audio_codec.c **** static void Audio_MAL_PauseResume(uint32_t Cmd, uint32_t Addr)
1548:src/stm32f4_discovery_audio_codec.c **** {
1549:src/stm32f4_discovery_audio_codec.c ****   /* Pause the audio file playing */
1550:src/stm32f4_discovery_audio_codec.c ****   if (Cmd == AUDIO_PAUSE)
1551:src/stm32f4_discovery_audio_codec.c ****   {   
1552:src/stm32f4_discovery_audio_codec.c ****     /* Disable the I2S DMA request */
1553:src/stm32f4_discovery_audio_codec.c ****     SPI_I2S_DMACmd(CODEC_I2S, SPI_I2S_DMAReq_Tx, DISABLE);
1554:src/stm32f4_discovery_audio_codec.c **** 
1555:src/stm32f4_discovery_audio_codec.c ****     /* Pause the I2S DMA Stream 
1556:src/stm32f4_discovery_audio_codec.c ****         Note. For the STM32F40x devices, the DMA implements a pause feature, 
1557:src/stm32f4_discovery_audio_codec.c ****               by disabling the stream, all configuration is preserved and data 
1558:src/stm32f4_discovery_audio_codec.c ****               transfer is paused till the next enable of the stream.
1559:src/stm32f4_discovery_audio_codec.c ****               This feature is not available on STM32F40x devices. */
1560:src/stm32f4_discovery_audio_codec.c ****     DMA_Cmd(AUDIO_MAL_DMA_STREAM, DISABLE);
1561:src/stm32f4_discovery_audio_codec.c ****   }
1562:src/stm32f4_discovery_audio_codec.c ****   else /* AUDIO_RESUME */
1563:src/stm32f4_discovery_audio_codec.c ****   {
1564:src/stm32f4_discovery_audio_codec.c ****     /* Enable the I2S DMA request */
1565:src/stm32f4_discovery_audio_codec.c ****     SPI_I2S_DMACmd(CODEC_I2S, SPI_I2S_DMAReq_Tx, ENABLE);
 1196              		.loc 1 1565 0
 1197 002c 4FF47055 		mov	r5, #15360	@ tmp162,
 1198 0030 C4F20005 		movt	r5, 16384	@ tmp162,
 1199 0034 2846     		mov	r0, r5	@, tmp162
 1200 0036 0221     		movs	r1, #2	@,
 1201 0038 0122     		movs	r2, #1	@,
 1202 003a FFF7FEFF 		bl	SPI_I2S_DMACmd	@
 1203              	.LVL94:
1566:src/stm32f4_discovery_audio_codec.c ****   
1567:src/stm32f4_discovery_audio_codec.c ****     /* Resume the I2S DMA Stream 
ARM GAS  C:\Users\CNous\AppData\Local\Temp\ccPT5vWC.s 			page 53


1568:src/stm32f4_discovery_audio_codec.c ****         Note. For the STM32F40x devices, the DMA implements a pause feature, 
1569:src/stm32f4_discovery_audio_codec.c ****               by disabling the stream, all configuration is preserved and data 
1570:src/stm32f4_discovery_audio_codec.c ****               transfer is paused till the next enable of the stream.
1571:src/stm32f4_discovery_audio_codec.c ****               This feature is not available on STM32F40x devices. */
1572:src/stm32f4_discovery_audio_codec.c ****     DMA_Cmd(AUDIO_MAL_DMA_STREAM, ENABLE);
 1204              		.loc 1 1572 0
 1205 003e 164B     		ldr	r3, .L104+4	@ tmp163,
 1206 0040 0121     		movs	r1, #1	@,
 1207 0042 1868     		ldr	r0, [r3, #0]	@, AUDIO_MAL_DMA_STREAM
 1208 0044 FFF7FEFF 		bl	DMA_Cmd	@
 1209              	.LVL95:
1573:src/stm32f4_discovery_audio_codec.c ****     
1574:src/stm32f4_discovery_audio_codec.c ****     /* If the I2S peripheral is still not enabled, enable it */
1575:src/stm32f4_discovery_audio_codec.c ****     if ((CODEC_I2S->I2SCFGR & I2S_ENABLE_MASK) == 0)
 1210              		.loc 1 1575 0
 1211 0048 AE8B     		ldrh	r6, [r5, #28]	@, MEM[(struct SPI_TypeDef *)1073757184B].I2SCFGR
 1212 004a 06F48061 		and	r1, r6, #1024	@ tmp169, MEM[(struct SPI_TypeDef *)1073757184B].I2SCFGR,
 1213 004e 8EB2     		uxth	r6, r1	@ tmp170, tmp169
 1214 0050 CEB1     		cbz	r6, .L103	@ tmp170,
 399:src/stm32f4_discovery_audio_codec.c ****     return 0;
 1215              		.loc 1 399 0
 1216 0052 2046     		mov	r0, r4	@ D.8826, tmp158
 1217              	.LBE88:
 1218              	.LBE87:
 401:src/stm32f4_discovery_audio_codec.c **** }
 1219              		.loc 1 401 0
 1220 0054 70BD     		pop	{r4, r5, r6, pc}	@
 1221              	.LVL96:
 1222              	.L101:
 1223 0056 FFF7FEFF 		bl	Codec_Mute.part.1	@
 1224              	.LVL97:
 1225              	.LBB90:
 1226              	.LBB86:
 745:src/stm32f4_discovery_audio_codec.c ****     counter += Codec_WriteRegister(0x02, 0x01);    
 1227              		.loc 1 745 0
 1228 005a 0121     		movs	r1, #1	@,
 1229 005c 0446     		mov	r4, r0	@ counter,
 1230              	.LVL98:
 1231 005e 0220     		movs	r0, #2	@,
 1232              	.LVL99:
 1233 0060 FFF7FEFF 		bl	Codec_WriteRegister	@
 1234              	.LVL100:
 1235              	.LBE86:
 1236              	.LBE90:
 389:src/stm32f4_discovery_audio_codec.c ****   if (Codec_PauseResume(Cmd) != 0)
 1237              		.loc 1 389 0
 1238 0064 2418     		adds	r4, r4, r0	@ tmp151, counter,
 1239              	.LVL101:
 1240 0066 DFD1     		bne	.L97	@,
 1241              	.LBB91:
 1242              	.LBB89:
1553:src/stm32f4_discovery_audio_codec.c ****     SPI_I2S_DMACmd(CODEC_I2S, SPI_I2S_DMAReq_Tx, DISABLE);
 1243              		.loc 1 1553 0
 1244 0068 4FF47050 		mov	r0, #15360	@,
 1245 006c 0221     		movs	r1, #2	@,
 1246 006e 2246     		mov	r2, r4	@, tmp151
 1247 0070 C4F20000 		movt	r0, 16384	@,
ARM GAS  C:\Users\CNous\AppData\Local\Temp\ccPT5vWC.s 			page 54


 1248 0074 FFF7FEFF 		bl	SPI_I2S_DMACmd	@
 1249              	.LVL102:
1560:src/stm32f4_discovery_audio_codec.c ****     DMA_Cmd(AUDIO_MAL_DMA_STREAM, DISABLE);
 1250              		.loc 1 1560 0
 1251 0078 074A     		ldr	r2, .L104+4	@ tmp160,
 1252 007a 2146     		mov	r1, r4	@, tmp151
 1253 007c 1068     		ldr	r0, [r2, #0]	@, AUDIO_MAL_DMA_STREAM
 1254 007e FFF7FEFF 		bl	DMA_Cmd	@
 1255              	.LVL103:
 399:src/stm32f4_discovery_audio_codec.c ****     return 0;
 1256              		.loc 1 399 0
 1257 0082 2046     		mov	r0, r4	@ D.8826, tmp151
 1258 0084 70BD     		pop	{r4, r5, r6, pc}	@
 1259              	.LVL104:
 1260              	.L103:
1576:src/stm32f4_discovery_audio_codec.c ****     {
1577:src/stm32f4_discovery_audio_codec.c ****       I2S_Cmd(CODEC_I2S, ENABLE);
 1261              		.loc 1 1577 0
 1262 0086 2846     		mov	r0, r5	@, tmp162
 1263 0088 0121     		movs	r1, #1	@,
 1264 008a FFF7FEFF 		bl	I2S_Cmd	@
 1265              	.LVL105:
 399:src/stm32f4_discovery_audio_codec.c ****     return 0;
 1266              		.loc 1 399 0
 1267 008e 3046     		mov	r0, r6	@ D.8826, tmp170
 1268 0090 70BD     		pop	{r4, r5, r6, pc}	@
 1269              	.L105:
 1270 0092 00BF     		.align	2
 1271              	.L104:
 1272 0094 00000000 		.word	.LANCHOR13
 1273 0098 00000000 		.word	.LANCHOR1
 1274              	.LBE89:
 1275              	.LBE91:
 1276              		.cfi_endproc
 1277              	.LFE114:
 1278              		.size	EVAL_AUDIO_PauseResume, .-EVAL_AUDIO_PauseResume
 1279              		.section	.text.EVAL_AUDIO_Stop,"ax",%progbits
 1280              		.align	2
 1281              		.global	EVAL_AUDIO_Stop
 1282              		.thumb
 1283              		.thumb_func
 1284              		.type	EVAL_AUDIO_Stop, %function
 1285              	EVAL_AUDIO_Stop:
 1286              	.LFB115:
 413:src/stm32f4_discovery_audio_codec.c **** {
 1287              		.loc 1 413 0
 1288              		.cfi_startproc
 1289              		@ args = 0, pretend = 0, frame = 0
 1290              		@ frame_needed = 0, uses_anonymous_args = 0
 1291              	.LVL106:
 1292 0000 70B5     		push	{r4, r5, r6, lr}	@
 1293              	.LCFI8:
 1294              		.cfi_def_cfa_offset 16
 1295              		.cfi_offset 4, -16
 1296              		.cfi_offset 5, -12
 1297              		.cfi_offset 6, -8
 1298              		.cfi_offset 14, -4
ARM GAS  C:\Users\CNous\AppData\Local\Temp\ccPT5vWC.s 			page 55


 413:src/stm32f4_discovery_audio_codec.c **** {
 1299              		.loc 1 413 0
 1300 0002 0446     		mov	r4, r0	@ Option, Option
 1301              	.LVL107:
 1302 0004 FFF7FEFF 		bl	Codec_Mute.part.1	@
 1303              	.LVL108:
 1304              	.LBB100:
 1305              	.LBB101:
 780:src/stm32f4_discovery_audio_codec.c ****   if (CodecPdwnMode == CODEC_PDWN_SW)
 1306              		.loc 1 780 0
 1307 0008 022C     		cmp	r4, #2	@ Option,
 1308 000a 32D0     		beq	.L116	@,
 788:src/stm32f4_discovery_audio_codec.c ****     counter += Codec_WriteRegister(0x02, 0x9F);
 1309              		.loc 1 788 0
 1310 000c 0220     		movs	r0, #2	@,
 1311 000e 9F21     		movs	r1, #159	@,
 1312 0010 FFF7FEFF 		bl	Codec_WriteRegister	@
 1313              	.LVL109:
 1314 0014 40F6FF72 		movw	r2, #4095	@ nCount,
 1315              	.LVL110:
 1316 0018 0446     		mov	r4, r0	@ counter,
 1317              	.LVL111:
 1318              	.L109:
 1319              	.LBB102:
 1320              	.LBB103:
1285:src/stm32f4_discovery_audio_codec.c ****   for (; nCount != 0; nCount--);
 1321              		.loc 1 1285 0
 1322 001a 033A     		subs	r2, r2, #3	@ nCount, nCount,
 1323              	.LVL112:
 1324 001c FDD1     		bne	.L109	@,
 1325              	.LBE103:
 1326              	.LBE102:
 794:src/stm32f4_discovery_audio_codec.c ****     GPIO_WriteBit(AUDIO_RESET_GPIO, AUDIO_RESET_PIN, Bit_RESET);
 1327              		.loc 1 794 0
 1328 001e 4FF44060 		mov	r0, #3072	@,
 1329              	.LVL113:
 1330 0022 C4F20200 		movt	r0, 16386	@,
 1331 0026 1021     		movs	r1, #16	@,
 1332 0028 FFF7FEFF 		bl	GPIO_WriteBit	@
 1333              	.LVL114:
 1334              	.L108:
 1335              	.LBE101:
 1336              	.LBE100:
 415:src/stm32f4_discovery_audio_codec.c ****   if (Codec_Stop(Option) != 0)
 1337              		.loc 1 415 0
 1338 002c 0CB1     		cbz	r4, .L117	@ counter,
 417:src/stm32f4_discovery_audio_codec.c ****     return 1;
 1339              		.loc 1 417 0
 1340 002e 0120     		movs	r0, #1	@ D.8802,
 430:src/stm32f4_discovery_audio_codec.c **** }
 1341              		.loc 1 430 0
 1342 0030 70BD     		pop	{r4, r5, r6, pc}	@
 1343              	.L117:
 1344              	.LBB105:
 1345              	.LBB106:
1578:src/stm32f4_discovery_audio_codec.c ****     }    
1579:src/stm32f4_discovery_audio_codec.c ****   } 
ARM GAS  C:\Users\CNous\AppData\Local\Temp\ccPT5vWC.s 			page 56


1580:src/stm32f4_discovery_audio_codec.c **** }
1581:src/stm32f4_discovery_audio_codec.c **** 
1582:src/stm32f4_discovery_audio_codec.c **** /**
1583:src/stm32f4_discovery_audio_codec.c ****   * @brief  Stops audio stream playing on the used Media.
1584:src/stm32f4_discovery_audio_codec.c ****   * @param  None
1585:src/stm32f4_discovery_audio_codec.c ****   * @retval None
1586:src/stm32f4_discovery_audio_codec.c ****   */
1587:src/stm32f4_discovery_audio_codec.c **** static void Audio_MAL_Stop(void)
1588:src/stm32f4_discovery_audio_codec.c **** {   
1589:src/stm32f4_discovery_audio_codec.c ****   /* Stop the Transfer on the I2S side: Stop and disable the DMA stream */
1590:src/stm32f4_discovery_audio_codec.c ****   DMA_Cmd(AUDIO_MAL_DMA_STREAM, DISABLE);
 1346              		.loc 1 1590 0
 1347 0032 134D     		ldr	r5, .L118	@ tmp154,
 1348 0034 2146     		mov	r1, r4	@, counter
 1349 0036 2868     		ldr	r0, [r5, #0]	@, AUDIO_MAL_DMA_STREAM
 1350 0038 FFF7FEFF 		bl	DMA_Cmd	@
 1351              	.LVL115:
1591:src/stm32f4_discovery_audio_codec.c **** 
1592:src/stm32f4_discovery_audio_codec.c ****   /* Clear all the DMA flags for the next transfer */
1593:src/stm32f4_discovery_audio_codec.c ****   DMA_ClearFlag(AUDIO_MAL_DMA_STREAM, AUDIO_MAL_DMA_FLAG_TC |AUDIO_MAL_DMA_FLAG_HT | \
 1352              		.loc 1 1593 0
 1353 003c 114B     		ldr	r3, .L118+4	@ tmp158,
 1354 003e 1248     		ldr	r0, .L118+8	@ tmp159,
 1355 0040 124A     		ldr	r2, .L118+12	@ tmp163,
 1356 0042 1E68     		ldr	r6, [r3, #0]	@ AUDIO_MAL_DMA_FLAG_HT, AUDIO_MAL_DMA_FLAG_HT
 1357 0044 0168     		ldr	r1, [r0, #0]	@ AUDIO_MAL_DMA_FLAG_TC, AUDIO_MAL_DMA_FLAG_TC
 1358 0046 124B     		ldr	r3, .L118+16	@ tmp166,
 1359 0048 1268     		ldr	r2, [r2, #0]	@ AUDIO_MAL_DMA_FLAG_FE, AUDIO_MAL_DMA_FLAG_FE
 1360 004a 1B68     		ldr	r3, [r3, #0]	@ AUDIO_MAL_DMA_FLAG_TE, AUDIO_MAL_DMA_FLAG_TE
 1361 004c 2868     		ldr	r0, [r5, #0]	@, AUDIO_MAL_DMA_STREAM
 1362 004e 3143     		orrs	r1, r1, r6	@, tmp160, AUDIO_MAL_DMA_FLAG_TC, AUDIO_MAL_DMA_FLAG_HT
 1363 0050 1143     		orrs	r1, r1, r2	@, tmp164, tmp160, AUDIO_MAL_DMA_FLAG_FE
 1364 0052 1943     		orrs	r1, r1, r3	@,, tmp164, AUDIO_MAL_DMA_FLAG_TE
 1365 0054 FFF7FEFF 		bl	DMA_ClearFlag	@
 1366              	.LVL116:
1594:src/stm32f4_discovery_audio_codec.c ****                                   AUDIO_MAL_DMA_FLAG_FE | AUDIO_MAL_DMA_FLAG_TE);
1595:src/stm32f4_discovery_audio_codec.c ****   
1596:src/stm32f4_discovery_audio_codec.c ****   /*  
1597:src/stm32f4_discovery_audio_codec.c ****            The I2S DMA requests are not disabled here.
1598:src/stm32f4_discovery_audio_codec.c ****                                                             */
1599:src/stm32f4_discovery_audio_codec.c ****   
1600:src/stm32f4_discovery_audio_codec.c ****   /* In all modes, disable the I2S peripheral */
1601:src/stm32f4_discovery_audio_codec.c ****   I2S_Cmd(CODEC_I2S, DISABLE);
 1367              		.loc 1 1601 0
 1368 0058 4FF47050 		mov	r0, #15360	@,
 1369 005c 2146     		mov	r1, r4	@, counter
 1370 005e C4F20000 		movt	r0, 16384	@,
 1371 0062 FFF7FEFF 		bl	I2S_Cmd	@
 1372              	.LVL117:
 1373              	.LBE106:
 1374              	.LBE105:
 425:src/stm32f4_discovery_audio_codec.c ****     AudioRemSize = AudioTotalSize;    
 1375              		.loc 1 425 0
 1376 0066 0B48     		ldr	r0, .L118+20	@ tmp171,
 1377 0068 0B4A     		ldr	r2, .L118+24	@ tmp170,
 1378 006a 0168     		ldr	r1, [r0, #0]	@ AudioTotalSize, AudioTotalSize
 428:src/stm32f4_discovery_audio_codec.c ****     return 0;
ARM GAS  C:\Users\CNous\AppData\Local\Temp\ccPT5vWC.s 			page 57


 1379              		.loc 1 428 0
 1380 006c 2046     		mov	r0, r4	@ D.8802, counter
 425:src/stm32f4_discovery_audio_codec.c ****     AudioRemSize = AudioTotalSize;    
 1381              		.loc 1 425 0
 1382 006e 1160     		str	r1, [r2, #0]	@ AudioTotalSize, AudioRemSize
 428:src/stm32f4_discovery_audio_codec.c ****     return 0;
 1383              		.loc 1 428 0
 1384 0070 70BD     		pop	{r4, r5, r6, pc}	@
 1385              	.LVL118:
 1386              	.L116:
 1387              	.LBB107:
 1388              	.LBB104:
 783:src/stm32f4_discovery_audio_codec.c ****     counter += Codec_WriteRegister(0x02, 0x9F);
 1389              		.loc 1 783 0
 1390 0072 2046     		mov	r0, r4	@, Option
 1391 0074 9F21     		movs	r1, #159	@,
 1392 0076 FFF7FEFF 		bl	Codec_WriteRegister	@
 1393              	.LVL119:
 1394 007a 0446     		mov	r4, r0	@ counter,
 1395              	.LVL120:
 1396 007c D6E7     		b	.L108	@
 1397              	.L119:
 1398 007e 00BF     		.align	2
 1399              	.L118:
 1400 0080 00000000 		.word	.LANCHOR1
 1401 0084 00000000 		.word	.LANCHOR3
 1402 0088 00000000 		.word	.LANCHOR2
 1403 008c 00000000 		.word	.LANCHOR10
 1404 0090 00000000 		.word	.LANCHOR11
 1405 0094 00000000 		.word	.LANCHOR14
 1406 0098 00000000 		.word	.LANCHOR0
 1407              	.LBE104:
 1408              	.LBE107:
 1409              		.cfi_endproc
 1410              	.LFE115:
 1411              		.size	EVAL_AUDIO_Stop, .-EVAL_AUDIO_Stop
 1412              		.section	.text.EVAL_AUDIO_VolumeCtl,"ax",%progbits
 1413              		.align	2
 1414              		.global	EVAL_AUDIO_VolumeCtl
 1415              		.thumb
 1416              		.thumb_func
 1417              		.type	EVAL_AUDIO_VolumeCtl, %function
 1418              	EVAL_AUDIO_VolumeCtl:
 1419              	.LFB116:
 439:src/stm32f4_discovery_audio_codec.c **** {
 1420              		.loc 1 439 0
 1421              		.cfi_startproc
 1422              		@ args = 0, pretend = 0, frame = 0
 1423              		@ frame_needed = 0, uses_anonymous_args = 0
 1424              		@ link register save eliminated.
 1425              	.LVL121:
 441:src/stm32f4_discovery_audio_codec.c ****   return (Codec_VolumeCtrl(VOLUME_CONVERT(Volume)));
 1426              		.loc 1 441 0
 1427 0000 6428     		cmp	r0, #100	@ Volume,
 1428 0002 0DD8     		bhi	.L122	@,
 441:src/stm32f4_discovery_audio_codec.c ****   return (Codec_VolumeCtrl(VOLUME_CONVERT(Volume)));
 1429              		.loc 1 441 0 is_stmt 0 discriminator 1
ARM GAS  C:\Users\CNous\AppData\Local\Temp\ccPT5vWC.s 			page 58


 1430 0004 48F21F53 		movw	r3, #34079	@ tmp149,
 1431 0008 C0EB0020 		rsb	r0, r0, r0, lsl #8	@, tmp146, Volume, Volume,
 1432              	.LVL122:
 1433 000c C5F2EB13 		movt	r3, 20971	@ tmp149,
 1434 0010 83FB0021 		smull	r2, r1, r3, r0	@, tmp148, tmp149, tmp146
 1435 0014 C217     		asrs	r2, r0, #31	@ tmp151, tmp146,
 1436 0016 C2EB6113 		rsb	r3, r2, r1, asr #5	@, tmp147, tmp151, tmp148,
 1437 001a D8B2     		uxtb	r0, r3	@ iftmp.35, tmp147
 1438              	.L121:
 442:src/stm32f4_discovery_audio_codec.c **** }
 1439              		.loc 1 442 0 is_stmt 1 discriminator 3
 441:src/stm32f4_discovery_audio_codec.c ****   return (Codec_VolumeCtrl(VOLUME_CONVERT(Volume)));
 1440              		.loc 1 441 0 discriminator 3
 1441 001c FFF7FEBF 		b	Codec_VolumeCtrl	@
 1442              	.LVL123:
 1443              	.L122:
 441:src/stm32f4_discovery_audio_codec.c ****   return (Codec_VolumeCtrl(VOLUME_CONVERT(Volume)));
 1444              		.loc 1 441 0 is_stmt 0
 1445 0020 6420     		movs	r0, #100	@ iftmp.35,
 1446              	.LVL124:
 1447 0022 FBE7     		b	.L121	@
 1448              		.cfi_endproc
 1449              	.LFE116:
 1450              		.size	EVAL_AUDIO_VolumeCtl, .-EVAL_AUDIO_VolumeCtl
 1451              		.section	.text.EVAL_AUDIO_Mute,"ax",%progbits
 1452              		.align	2
 1453              		.global	EVAL_AUDIO_Mute
 1454              		.thumb
 1455              		.thumb_func
 1456              		.type	EVAL_AUDIO_Mute, %function
 1457              	EVAL_AUDIO_Mute:
 1458              	.LFB117:
 451:src/stm32f4_discovery_audio_codec.c **** { 
 1459              		.loc 1 451 0 is_stmt 1
 1460              		.cfi_startproc
 1461              		@ args = 0, pretend = 0, frame = 0
 1462              		@ frame_needed = 0, uses_anonymous_args = 0
 1463              		@ link register save eliminated.
 1464              	.LVL125:
 1465              	.LBB110:
 1466              	.LBB111:
 837:src/stm32f4_discovery_audio_codec.c ****   if (Cmd == AUDIO_MUTE_ON)
 1467              		.loc 1 837 0
 1468 0000 0128     		cmp	r0, #1	@ Cmd,
 1469 0002 04D0     		beq	.L125	@,
 843:src/stm32f4_discovery_audio_codec.c ****     counter += Codec_WriteRegister(0x04, OutputDev);
 1470              		.loc 1 843 0
 1471 0004 034B     		ldr	r3, .L126	@ tmp138,
 1472 0006 1978     		ldrb	r1, [r3, #0]	@ zero_extendqisi2	@ OutputDev, OutputDev
 1473 0008 0420     		movs	r0, #4	@,
 1474              	.LVL126:
 1475              	.LBE111:
 1476              	.LBE110:
 454:src/stm32f4_discovery_audio_codec.c **** }
 1477              		.loc 1 454 0
 1478              	.LBB113:
 1479              	.LBB112:
ARM GAS  C:\Users\CNous\AppData\Local\Temp\ccPT5vWC.s 			page 59


 843:src/stm32f4_discovery_audio_codec.c ****     counter += Codec_WriteRegister(0x04, OutputDev);
 1480              		.loc 1 843 0
 1481 000a FFF7FEBF 		b	Codec_WriteRegister	@
 1482              	.LVL127:
 1483              	.L125:
 1484              	.LBE112:
 1485              	.LBE113:
 454:src/stm32f4_discovery_audio_codec.c **** }
 1486              		.loc 1 454 0
 1487 000e FFF7FEBF 		b	Codec_Mute.part.1	@
 1488              	.LVL128:
 1489              	.L127:
 1490 0012 00BF     		.align	2
 1491              	.L126:
 1492 0014 00000000 		.word	.LANCHOR13
 1493              		.cfi_endproc
 1494              	.LFE117:
 1495              		.size	EVAL_AUDIO_Mute, .-EVAL_AUDIO_Mute
 1496              		.section	.text.DMA1_Stream7_IRQHandler,"ax",%progbits
 1497              		.align	2
 1498              		.global	DMA1_Stream7_IRQHandler
 1499              		.thumb
 1500              		.thumb_func
 1501              		.type	DMA1_Stream7_IRQHandler, %function
 1502              	DMA1_Stream7_IRQHandler:
 1503              	.LFB119:
 562:src/stm32f4_discovery_audio_codec.c **** { 
 1504              		.loc 1 562 0
 1505              		.cfi_startproc
 1506              		@ args = 0, pretend = 0, frame = 0
 1507              		@ frame_needed = 0, uses_anonymous_args = 0
 1508              		@ link register save eliminated.
 564:src/stm32f4_discovery_audio_codec.c **** }
 1509              		.loc 1 564 0
 563:src/stm32f4_discovery_audio_codec.c ****   Audio_MAL_IRQHandler();
 1510              		.loc 1 563 0
 1511 0000 FFF7FEBF 		b	Audio_MAL_IRQHandler	@
 1512              	.LVL129:
 1513              		.cfi_endproc
 1514              	.LFE119:
 1515              		.size	DMA1_Stream7_IRQHandler, .-DMA1_Stream7_IRQHandler
 1516              		.section	.text.DMA1_Stream0_IRQHandler,"ax",%progbits
 1517              		.align	2
 1518              		.global	DMA1_Stream0_IRQHandler
 1519              		.thumb
 1520              		.thumb_func
 1521              		.type	DMA1_Stream0_IRQHandler, %function
 1522              	DMA1_Stream0_IRQHandler:
 1523              	.LFB120:
 572:src/stm32f4_discovery_audio_codec.c **** { 
 1524              		.loc 1 572 0
 1525              		.cfi_startproc
 1526              		@ args = 0, pretend = 0, frame = 0
 1527              		@ frame_needed = 0, uses_anonymous_args = 0
 1528              		@ link register save eliminated.
 574:src/stm32f4_discovery_audio_codec.c **** }
 1529              		.loc 1 574 0
ARM GAS  C:\Users\CNous\AppData\Local\Temp\ccPT5vWC.s 			page 60


 573:src/stm32f4_discovery_audio_codec.c ****   Audio_MAL_IRQHandler();
 1530              		.loc 1 573 0
 1531 0000 FFF7FEBF 		b	Audio_MAL_IRQHandler	@
 1532              	.LVL130:
 1533              		.cfi_endproc
 1534              	.LFE120:
 1535              		.size	DMA1_Stream0_IRQHandler, .-DMA1_Stream0_IRQHandler
 1536              		.section	.text.SPI3_IRQHandler,"ax",%progbits
 1537              		.align	2
 1538              		.global	SPI3_IRQHandler
 1539              		.thumb
 1540              		.thumb_func
 1541              		.type	SPI3_IRQHandler, %function
 1542              	SPI3_IRQHandler:
 1543              	.LFB121:
 582:src/stm32f4_discovery_audio_codec.c **** {
 1544              		.loc 1 582 0
 1545              		.cfi_startproc
 1546              		@ args = 0, pretend = 0, frame = 0
 1547              		@ frame_needed = 0, uses_anonymous_args = 0
 584:src/stm32f4_discovery_audio_codec.c ****   if (SPI_I2S_GetFlagStatus(SPI3, SPI_I2S_FLAG_TXE) != RESET)
 1548              		.loc 1 584 0
 1549 0000 4FF47050 		mov	r0, #15360	@,
 582:src/stm32f4_discovery_audio_codec.c **** {
 1550              		.loc 1 582 0
 1551 0004 08B5     		push	{r3, lr}	@
 1552              	.LCFI9:
 1553              		.cfi_def_cfa_offset 8
 1554              		.cfi_offset 3, -8
 1555              		.cfi_offset 14, -4
 584:src/stm32f4_discovery_audio_codec.c ****   if (SPI_I2S_GetFlagStatus(SPI3, SPI_I2S_FLAG_TXE) != RESET)
 1556              		.loc 1 584 0
 1557 0006 C4F20000 		movt	r0, 16384	@,
 1558 000a 0221     		movs	r1, #2	@,
 1559 000c FFF7FEFF 		bl	SPI_I2S_GetFlagStatus	@
 1560              	.LVL131:
 1561 0010 70B1     		cbz	r0, .L130	@,
 586:src/stm32f4_discovery_audio_codec.c ****     if (CurrAudioInterface == AUDIO_INTERFACE_DAC)
 1562              		.loc 1 586 0
 1563 0012 0B4B     		ldr	r3, .L134	@ tmp140,
 1564 0014 1868     		ldr	r0, [r3, #0]	@ CurrAudioInterface.2, CurrAudioInterface
 1565 0016 0228     		cmp	r0, #2	@ CurrAudioInterface.2,
 1566 0018 0BD0     		beq	.L133	@,
 1567              	.L132:
 593:src/stm32f4_discovery_audio_codec.c ****     SPI_I2S_SendData(CODEC_I2S, EVAL_AUDIO_GetSampleCallBack()); 
 1568              		.loc 1 593 0
 1569 001a FFF7FEFF 		bl	EVAL_AUDIO_GetSampleCallBack	@
 1570              	.LVL132:
 1571 001e 0146     		mov	r1, r0	@ tmp142,
 1572 0020 4FF47050 		mov	r0, #15360	@,
 1573 0024 C4F20000 		movt	r0, 16384	@,
 595:src/stm32f4_discovery_audio_codec.c **** }
 1574              		.loc 1 595 0
 1575 0028 BDE80840 		pop	{r3, lr}	@
 593:src/stm32f4_discovery_audio_codec.c ****     SPI_I2S_SendData(CODEC_I2S, EVAL_AUDIO_GetSampleCallBack()); 
 1576              		.loc 1 593 0
 1577 002c FFF7FEBF 		b	SPI_I2S_SendData	@
ARM GAS  C:\Users\CNous\AppData\Local\Temp\ccPT5vWC.s 			page 61


 1578              	.LVL133:
 1579              	.L130:
 1580 0030 08BD     		pop	{r3, pc}	@
 1581              	.L133:
 589:src/stm32f4_discovery_audio_codec.c ****       DAC_SetChannel1Data(DAC_Align_12b_L, EVAL_AUDIO_GetSampleCallBack()); 
 1582              		.loc 1 589 0
 1583 0032 FFF7FEFF 		bl	EVAL_AUDIO_GetSampleCallBack	@
 1584              	.LVL134:
 1585 0036 0146     		mov	r1, r0	@ tmp141,
 1586 0038 0420     		movs	r0, #4	@,
 1587 003a FFF7FEFF 		bl	DAC_SetChannel1Data	@
 1588              	.LVL135:
 1589 003e ECE7     		b	.L132	@
 1590              	.L135:
 1591              		.align	2
 1592              	.L134:
 1593 0040 00000000 		.word	.LANCHOR5
 1594              		.cfi_endproc
 1595              	.LFE121:
 1596              		.size	SPI3_IRQHandler, .-SPI3_IRQHandler
 1597              		.section	.text.Audio_MAL_Play,"ax",%progbits
 1598              		.align	2
 1599              		.global	Audio_MAL_Play
 1600              		.thumb
 1601              		.thumb_func
 1602              		.type	Audio_MAL_Play, %function
 1603              	Audio_MAL_Play:
 1604              	.LFB141:
1505:src/stm32f4_discovery_audio_codec.c **** {         
 1605              		.loc 1 1505 0
 1606              		.cfi_startproc
 1607              		@ args = 0, pretend = 0, frame = 0
 1608              		@ frame_needed = 0, uses_anonymous_args = 0
 1609              	.LVL136:
 1610 0000 38B5     		push	{r3, r4, r5, lr}	@
 1611              	.LCFI10:
 1612              		.cfi_def_cfa_offset 16
 1613              		.cfi_offset 3, -16
 1614              		.cfi_offset 4, -12
 1615              		.cfi_offset 5, -8
 1616              		.cfi_offset 14, -4
1506:src/stm32f4_discovery_audio_codec.c ****   if (CurrAudioInterface == AUDIO_INTERFACE_I2S)
 1617              		.loc 1 1506 0
 1618 0002 154B     		ldr	r3, .L142	@ tmp143,
1509:src/stm32f4_discovery_audio_codec.c ****     DMA_InitStructure.DMA_Memory0BaseAddr = (uint32_t)Addr;
 1619              		.loc 1 1509 0
 1620 0004 154A     		ldr	r2, .L142+4	@ tmp144,
1506:src/stm32f4_discovery_audio_codec.c ****   if (CurrAudioInterface == AUDIO_INTERFACE_I2S)
 1621              		.loc 1 1506 0
 1622 0006 1C68     		ldr	r4, [r3, #0]	@ CurrAudioInterface.0, CurrAudioInterface
 1623 0008 012C     		cmp	r4, #1	@ CurrAudioInterface.0,
 1624 000a 19D0     		beq	.L140	@,
1526:src/stm32f4_discovery_audio_codec.c ****     DMA_Init(AUDIO_MAL_DMA_STREAM, &DMA_InitStructure);
 1625              		.loc 1 1526 0
 1626 000c 144C     		ldr	r4, .L142+8	@ tmp153,
1522:src/stm32f4_discovery_audio_codec.c ****     DMA_InitStructure.DMA_Memory0BaseAddr = (uint32_t)Addr;
 1627              		.loc 1 1522 0
ARM GAS  C:\Users\CNous\AppData\Local\Temp\ccPT5vWC.s 			page 62


 1628 000e 9060     		str	r0, [r2, #8]	@ Addr, DMA_InitStructure.DMA_Memory0BaseAddr
1523:src/stm32f4_discovery_audio_codec.c ****     DMA_InitStructure.DMA_BufferSize = (uint32_t)Size;
 1629              		.loc 1 1523 0
 1630 0010 1161     		str	r1, [r2, #16]	@ Size, DMA_InitStructure.DMA_BufferSize
1526:src/stm32f4_discovery_audio_codec.c ****     DMA_Init(AUDIO_MAL_DMA_STREAM, &DMA_InitStructure);
 1631              		.loc 1 1526 0
 1632 0012 2068     		ldr	r0, [r4, #0]	@, AUDIO_MAL_DMA_STREAM
 1633              	.LVL137:
 1634 0014 1146     		mov	r1, r2	@, tmp151
 1635              	.LVL138:
 1636 0016 FFF7FEFF 		bl	DMA_Init	@
 1637              	.LVL139:
1529:src/stm32f4_discovery_audio_codec.c ****     DMA_Cmd(AUDIO_MAL_DMA_STREAM, ENABLE);
 1638              		.loc 1 1529 0
 1639 001a 2068     		ldr	r0, [r4, #0]	@, AUDIO_MAL_DMA_STREAM
 1640 001c 0121     		movs	r1, #1	@,
 1641 001e FFF7FEFF 		bl	DMA_Cmd	@
 1642              	.LVL140:
 1643              	.L138:
1534:src/stm32f4_discovery_audio_codec.c ****   if ((CODEC_I2S->I2SCFGR & I2S_ENABLE_MASK) == 0)
 1644              		.loc 1 1534 0
 1645 0022 4FF47050 		mov	r0, #15360	@ tmp158,
 1646 0026 C4F20000 		movt	r0, 16384	@ tmp158,
 1647 002a 818B     		ldrh	r1, [r0, #28]	@, MEM[(struct SPI_TypeDef *)1073757184B].I2SCFGR
 1648 002c 01F48063 		and	r3, r1, #1024	@ tmp162, MEM[(struct SPI_TypeDef *)1073757184B].I2SCFGR,
 1649 0030 9AB2     		uxth	r2, r3	@ tmp163, tmp162
 1650 0032 02B1     		cbz	r2, .L141	@ tmp163,
 1651 0034 38BD     		pop	{r3, r4, r5, pc}	@
 1652              	.L141:
1536:src/stm32f4_discovery_audio_codec.c ****     I2S_Cmd(CODEC_I2S, ENABLE);
 1653              		.loc 1 1536 0
 1654 0036 0121     		movs	r1, #1	@,
1538:src/stm32f4_discovery_audio_codec.c **** }
 1655              		.loc 1 1538 0
 1656 0038 BDE83840 		pop	{r3, r4, r5, lr}	@
1536:src/stm32f4_discovery_audio_codec.c ****     I2S_Cmd(CODEC_I2S, ENABLE);
 1657              		.loc 1 1536 0
 1658 003c FFF7FEBF 		b	I2S_Cmd	@
 1659              	.LVL141:
 1660              	.L140:
1513:src/stm32f4_discovery_audio_codec.c ****     DMA_Init(AUDIO_MAL_DMA_STREAM, &DMA_InitStructure);
 1661              		.loc 1 1513 0
 1662 0040 074D     		ldr	r5, .L142+8	@ tmp146,
1509:src/stm32f4_discovery_audio_codec.c ****     DMA_InitStructure.DMA_Memory0BaseAddr = (uint32_t)Addr;
 1663              		.loc 1 1509 0
 1664 0042 9060     		str	r0, [r2, #8]	@ Addr, DMA_InitStructure.DMA_Memory0BaseAddr
1510:src/stm32f4_discovery_audio_codec.c ****     DMA_InitStructure.DMA_BufferSize = (uint32_t)Size;
 1665              		.loc 1 1510 0
 1666 0044 1161     		str	r1, [r2, #16]	@ Size, DMA_InitStructure.DMA_BufferSize
1513:src/stm32f4_discovery_audio_codec.c ****     DMA_Init(AUDIO_MAL_DMA_STREAM, &DMA_InitStructure);
 1667              		.loc 1 1513 0
 1668 0046 2868     		ldr	r0, [r5, #0]	@, AUDIO_MAL_DMA_STREAM
 1669              	.LVL142:
 1670 0048 1146     		mov	r1, r2	@, tmp144
 1671              	.LVL143:
 1672 004a FFF7FEFF 		bl	DMA_Init	@
 1673              	.LVL144:
ARM GAS  C:\Users\CNous\AppData\Local\Temp\ccPT5vWC.s 			page 63


1516:src/stm32f4_discovery_audio_codec.c ****     DMA_Cmd(AUDIO_MAL_DMA_STREAM, ENABLE);   
 1674              		.loc 1 1516 0
 1675 004e 2868     		ldr	r0, [r5, #0]	@, AUDIO_MAL_DMA_STREAM
 1676 0050 2146     		mov	r1, r4	@, CurrAudioInterface.0
 1677 0052 FFF7FEFF 		bl	DMA_Cmd	@
 1678              	.LVL145:
 1679 0056 E4E7     		b	.L138	@
 1680              	.L143:
 1681              		.align	2
 1682              	.L142:
 1683 0058 00000000 		.word	.LANCHOR5
 1684 005c 00000000 		.word	DMA_InitStructure
 1685 0060 00000000 		.word	.LANCHOR1
 1686              		.cfi_endproc
 1687              	.LFE141:
 1688              		.size	Audio_MAL_Play, .-Audio_MAL_Play
 1689              		.section	.text.EVAL_AUDIO_Play,"ax",%progbits
 1690              		.align	2
 1691              		.global	EVAL_AUDIO_Play
 1692              		.thumb
 1693              		.thumb_func
 1694              		.type	EVAL_AUDIO_Play, %function
 1695              	EVAL_AUDIO_Play:
 1696              	.LFB113:
 354:src/stm32f4_discovery_audio_codec.c **** {
 1697              		.loc 1 354 0
 1698              		.cfi_startproc
 1699              		@ args = 0, pretend = 0, frame = 0
 1700              		@ frame_needed = 0, uses_anonymous_args = 0
 1701              	.LVL146:
 1702 0000 F8B5     		push	{r3, r4, r5, r6, r7, lr}	@
 1703              	.LCFI11:
 1704              		.cfi_def_cfa_offset 24
 1705              		.cfi_offset 3, -24
 1706              		.cfi_offset 4, -20
 1707              		.cfi_offset 5, -16
 1708              		.cfi_offset 6, -12
 1709              		.cfi_offset 7, -8
 1710              		.cfi_offset 14, -4
 356:src/stm32f4_discovery_audio_codec.c ****   AudioTotalSize = Size;
 1711              		.loc 1 356 0
 1712 0002 40F20004 		movw	r4, #:lower16:.LANCHOR14	@ tmp156,
 1713 0006 C0F20004 		movt	r4, #:upper16:.LANCHOR14	@ tmp156,
 362:src/stm32f4_discovery_audio_codec.c ****   Audio_MAL_Play((uint32_t)pBuffer, (uint32_t)(DMA_MAX(Size)));
 1714              		.loc 1 362 0
 1715 000a 4FF6FF76 		movw	r6, #65535	@ tmp146,
 354:src/stm32f4_discovery_audio_codec.c **** {
 1716              		.loc 1 354 0
 1717 000e 0D46     		mov	r5, r1	@ Size, Size
 362:src/stm32f4_discovery_audio_codec.c ****   Audio_MAL_Play((uint32_t)pBuffer, (uint32_t)(DMA_MAX(Size)));
 1718              		.loc 1 362 0
 1719 0010 B142     		cmp	r1, r6	@ Size, tmp146
 1720 0012 28BF     		it	cs
 1721 0014 3146     		movcs	r1, r6	@, tmp146
 1722              	.LVL147:
 354:src/stm32f4_discovery_audio_codec.c **** {
 1723              		.loc 1 354 0
ARM GAS  C:\Users\CNous\AppData\Local\Temp\ccPT5vWC.s 			page 64


 1724 0016 0746     		mov	r7, r0	@ pBuffer, pBuffer
 356:src/stm32f4_discovery_audio_codec.c ****   AudioTotalSize = Size;
 1725              		.loc 1 356 0
 1726 0018 2560     		str	r5, [r4, #0]	@ Size, AudioTotalSize
 362:src/stm32f4_discovery_audio_codec.c ****   Audio_MAL_Play((uint32_t)pBuffer, (uint32_t)(DMA_MAX(Size)));
 1727              		.loc 1 362 0
 1728 001a FFF7FEFF 		bl	Audio_MAL_Play	@
 1729              	.LVL148:
 365:src/stm32f4_discovery_audio_codec.c ****   AudioRemSize = Size - DMA_MAX(AudioTotalSize);
 1730              		.loc 1 365 0
 1731 001e 2168     		ldr	r1, [r4, #0]	@ AudioTotalSize, AudioTotalSize
 1732 0020 40F20002 		movw	r2, #:lower16:.LANCHOR0	@ tmp157,
 368:src/stm32f4_discovery_audio_codec.c ****   CurrentPos = pBuffer + DMA_MAX(AudioTotalSize);
 1733              		.loc 1 368 0
 1734 0024 40F20003 		movw	r3, #:lower16:CurrentPos	@ tmp158,
 365:src/stm32f4_discovery_audio_codec.c ****   AudioRemSize = Size - DMA_MAX(AudioTotalSize);
 1735              		.loc 1 365 0
 1736 0028 B142     		cmp	r1, r6	@ AudioTotalSize, tmp146
 1737 002a 38BF     		it	cc
 1738 002c 0E46     		movcc	r6, r1	@ D.8852, AudioTotalSize
 1739 002e C0F20002 		movt	r2, #:upper16:.LANCHOR0	@ tmp157,
 368:src/stm32f4_discovery_audio_codec.c ****   CurrentPos = pBuffer + DMA_MAX(AudioTotalSize);
 1740              		.loc 1 368 0
 1741 0032 C0F20003 		movt	r3, #:upper16:CurrentPos	@ tmp158,
 365:src/stm32f4_discovery_audio_codec.c ****   AudioRemSize = Size - DMA_MAX(AudioTotalSize);
 1742              		.loc 1 365 0
 1743 0036 AD1B     		subs	r5, r5, r6	@ tmp151, Size, D.8852
 1744              	.LVL149:
 368:src/stm32f4_discovery_audio_codec.c ****   CurrentPos = pBuffer + DMA_MAX(AudioTotalSize);
 1745              		.loc 1 368 0
 1746 0038 07EB4606 		add	r6, r7, r6, lsl #1	@, tmp154, pBuffer, D.8852,
 365:src/stm32f4_discovery_audio_codec.c ****   AudioRemSize = Size - DMA_MAX(AudioTotalSize);
 1747              		.loc 1 365 0
 1748 003c 1560     		str	r5, [r2, #0]	@ tmp151, AudioRemSize
 368:src/stm32f4_discovery_audio_codec.c ****   CurrentPos = pBuffer + DMA_MAX(AudioTotalSize);
 1749              		.loc 1 368 0
 1750 003e 1E60     		str	r6, [r3, #0]	@ tmp154, CurrentPos
 371:src/stm32f4_discovery_audio_codec.c **** }
 1751              		.loc 1 371 0
 1752 0040 0020     		movs	r0, #0	@,
 1753 0042 F8BD     		pop	{r3, r4, r5, r6, r7, pc}	@
 1754              		.cfi_endproc
 1755              	.LFE113:
 1756              		.size	EVAL_AUDIO_Play, .-EVAL_AUDIO_Play
 1757              		.section	.text.DAC_Config,"ax",%progbits
 1758              		.align	2
 1759              		.global	DAC_Config
 1760              		.thumb
 1761              		.thumb_func
 1762              		.type	DAC_Config, %function
 1763              	DAC_Config:
 1764              	.LFB144:
1602:src/stm32f4_discovery_audio_codec.c **** }
1603:src/stm32f4_discovery_audio_codec.c **** 
1604:src/stm32f4_discovery_audio_codec.c **** /**
1605:src/stm32f4_discovery_audio_codec.c ****   * @brief  DAC  Channel1 Configuration
1606:src/stm32f4_discovery_audio_codec.c ****   * @param  None
ARM GAS  C:\Users\CNous\AppData\Local\Temp\ccPT5vWC.s 			page 65


1607:src/stm32f4_discovery_audio_codec.c ****   * @retval None
1608:src/stm32f4_discovery_audio_codec.c ****   */
1609:src/stm32f4_discovery_audio_codec.c **** void DAC_Config(void)
1610:src/stm32f4_discovery_audio_codec.c **** {
 1765              		.loc 1 1610 0
 1766              		.cfi_startproc
 1767              		@ args = 0, pretend = 0, frame = 24
 1768              		@ frame_needed = 0, uses_anonymous_args = 0
 1769 0000 10B5     		push	{r4, lr}	@
 1770              	.LCFI12:
 1771              		.cfi_def_cfa_offset 8
 1772              		.cfi_offset 4, -8
 1773              		.cfi_offset 14, -4
1611:src/stm32f4_discovery_audio_codec.c ****   DAC_InitTypeDef  DAC_InitStructure;
1612:src/stm32f4_discovery_audio_codec.c ****   GPIO_InitTypeDef GPIO_InitStructure;
1613:src/stm32f4_discovery_audio_codec.c **** 
1614:src/stm32f4_discovery_audio_codec.c ****   /* DMA1 clock and GPIOA clock enable (to be used with DAC) */
1615:src/stm32f4_discovery_audio_codec.c ****   RCC_AHB1PeriphClockCmd(RCC_AHB1Periph_DMA1 | RCC_AHB1Periph_GPIOA, ENABLE);
 1774              		.loc 1 1615 0
 1775 0002 0120     		movs	r0, #1	@,
1610:src/stm32f4_discovery_audio_codec.c **** {
 1776              		.loc 1 1610 0
 1777 0004 86B0     		sub	sp, sp, #24	@,,
 1778              	.LCFI13:
 1779              		.cfi_def_cfa_offset 32
 1780              		.loc 1 1615 0
 1781 0006 0121     		movs	r1, #1	@,
 1782 0008 C0F22000 		movt	r0, 32	@,
 1783 000c FFF7FEFF 		bl	RCC_AHB1PeriphClockCmd	@
 1784              	.LVL150:
1616:src/stm32f4_discovery_audio_codec.c **** 
1617:src/stm32f4_discovery_audio_codec.c ****   /* DAC Periph clock enable */
1618:src/stm32f4_discovery_audio_codec.c ****   RCC_APB1PeriphClockCmd(RCC_APB1Periph_DAC, ENABLE);
 1785              		.loc 1 1618 0
 1786 0010 0121     		movs	r1, #1	@,
 1787 0012 4FF00050 		mov	r0, #536870912	@,
 1788 0016 FFF7FEFF 		bl	RCC_APB1PeriphClockCmd	@
 1789              	.LVL151:
1619:src/stm32f4_discovery_audio_codec.c **** 
1620:src/stm32f4_discovery_audio_codec.c ****   /* DAC channel 1 & 2 (DAC_OUT1 = PA.4) configuration */
1621:src/stm32f4_discovery_audio_codec.c ****   GPIO_InitStructure.GPIO_Pin = GPIO_Pin_4;
1622:src/stm32f4_discovery_audio_codec.c ****   GPIO_InitStructure.GPIO_Mode = GPIO_Mode_AN;
1623:src/stm32f4_discovery_audio_codec.c ****   GPIO_InitStructure.GPIO_PuPd = GPIO_PuPd_NOPULL;
1624:src/stm32f4_discovery_audio_codec.c ****   GPIO_Init(GPIOA, &GPIO_InitStructure);
 1790              		.loc 1 1624 0
 1791 001a 0020     		movs	r0, #0	@,
1623:src/stm32f4_discovery_audio_codec.c ****   GPIO_InitStructure.GPIO_PuPd = GPIO_PuPd_NOPULL;
 1792              		.loc 1 1623 0
 1793 001c 0446     		mov	r4, r0	@ tmp138,
1621:src/stm32f4_discovery_audio_codec.c ****   GPIO_InitStructure.GPIO_Pin = GPIO_Pin_4;
 1794              		.loc 1 1621 0
 1795 001e 1023     		movs	r3, #16	@ tmp135,
1622:src/stm32f4_discovery_audio_codec.c ****   GPIO_InitStructure.GPIO_Mode = GPIO_Mode_AN;
 1796              		.loc 1 1622 0
 1797 0020 0322     		movs	r2, #3	@ tmp136,
 1798              		.loc 1 1624 0
 1799 0022 6946     		mov	r1, sp	@,
ARM GAS  C:\Users\CNous\AppData\Local\Temp\ccPT5vWC.s 			page 66


 1800 0024 C4F20200 		movt	r0, 16386	@,
1621:src/stm32f4_discovery_audio_codec.c ****   GPIO_InitStructure.GPIO_Pin = GPIO_Pin_4;
 1801              		.loc 1 1621 0
 1802 0028 0093     		str	r3, [sp, #0]	@ tmp135, GPIO_InitStructure.GPIO_Pin
1622:src/stm32f4_discovery_audio_codec.c ****   GPIO_InitStructure.GPIO_Mode = GPIO_Mode_AN;
 1803              		.loc 1 1622 0
 1804 002a 8DF80420 		strb	r2, [sp, #4]	@ tmp136, GPIO_InitStructure.GPIO_Mode
1623:src/stm32f4_discovery_audio_codec.c ****   GPIO_InitStructure.GPIO_PuPd = GPIO_PuPd_NOPULL;
 1805              		.loc 1 1623 0
 1806 002e 8DF80740 		strb	r4, [sp, #7]	@ tmp138, GPIO_InitStructure.GPIO_PuPd
 1807              		.loc 1 1624 0
 1808 0032 FFF7FEFF 		bl	GPIO_Init	@
 1809              	.LVL152:
1625:src/stm32f4_discovery_audio_codec.c **** 
1626:src/stm32f4_discovery_audio_codec.c ****   /* DAC channel1 Configuration */
1627:src/stm32f4_discovery_audio_codec.c ****   DAC_InitStructure.DAC_Trigger = DAC_Trigger_None;
1628:src/stm32f4_discovery_audio_codec.c ****   DAC_InitStructure.DAC_WaveGeneration = DAC_WaveGeneration_None;
1629:src/stm32f4_discovery_audio_codec.c ****   DAC_InitStructure.DAC_OutputBuffer = DAC_OutputBuffer_Enable;
1630:src/stm32f4_discovery_audio_codec.c ****   DAC_Init(AUDIO_DAC_CHANNEL, &DAC_InitStructure);
 1810              		.loc 1 1630 0
 1811 0036 02A9     		add	r1, sp, #8	@,,
 1812 0038 2046     		mov	r0, r4	@, tmp138
1627:src/stm32f4_discovery_audio_codec.c ****   DAC_InitStructure.DAC_Trigger = DAC_Trigger_None;
 1813              		.loc 1 1627 0
 1814 003a 0294     		str	r4, [sp, #8]	@ tmp138, DAC_InitStructure.DAC_Trigger
1628:src/stm32f4_discovery_audio_codec.c ****   DAC_InitStructure.DAC_WaveGeneration = DAC_WaveGeneration_None;
 1815              		.loc 1 1628 0
 1816 003c 0394     		str	r4, [sp, #12]	@ tmp138, DAC_InitStructure.DAC_WaveGeneration
1629:src/stm32f4_discovery_audio_codec.c ****   DAC_InitStructure.DAC_OutputBuffer = DAC_OutputBuffer_Enable;
 1817              		.loc 1 1629 0
 1818 003e 0594     		str	r4, [sp, #20]	@ tmp138, DAC_InitStructure.DAC_OutputBuffer
 1819              		.loc 1 1630 0
 1820 0040 FFF7FEFF 		bl	DAC_Init	@
 1821              	.LVL153:
1631:src/stm32f4_discovery_audio_codec.c **** 
1632:src/stm32f4_discovery_audio_codec.c ****   /* Enable DAC Channel1 */
1633:src/stm32f4_discovery_audio_codec.c ****   DAC_Cmd(AUDIO_DAC_CHANNEL, ENABLE);
 1822              		.loc 1 1633 0
 1823 0044 2046     		mov	r0, r4	@, tmp138
 1824 0046 0121     		movs	r1, #1	@,
 1825 0048 FFF7FEFF 		bl	DAC_Cmd	@
 1826              	.LVL154:
1634:src/stm32f4_discovery_audio_codec.c **** }
 1827              		.loc 1 1634 0
 1828 004c 06B0     		add	sp, sp, #24	@,,
 1829 004e 10BD     		pop	{r4, pc}
 1830              		.cfi_endproc
 1831              	.LFE144:
 1832              		.size	DAC_Config, .-DAC_Config
 1833              		.section	.text.EVAL_AUDIO_Init,"ax",%progbits
 1834              		.align	2
 1835              		.global	EVAL_AUDIO_Init
 1836              		.thumb
 1837              		.thumb_func
 1838              		.type	EVAL_AUDIO_Init, %function
 1839              	EVAL_AUDIO_Init:
 1840              	.LFB111:
ARM GAS  C:\Users\CNous\AppData\Local\Temp\ccPT5vWC.s 			page 67


 313:src/stm32f4_discovery_audio_codec.c **** {    
 1841              		.loc 1 313 0
 1842              		.cfi_startproc
 1843              		@ args = 0, pretend = 0, frame = 64
 1844              		@ frame_needed = 0, uses_anonymous_args = 0
 1845              	.LVL155:
 1846 0000 2DE9F047 		push	{r4, r5, r6, r7, r8, r9, sl, lr}	@
 1847              	.LCFI14:
 1848              		.cfi_def_cfa_offset 32
 1849              		.cfi_offset 4, -32
 1850              		.cfi_offset 5, -28
 1851              		.cfi_offset 6, -24
 1852              		.cfi_offset 7, -20
 1853              		.cfi_offset 8, -16
 1854              		.cfi_offset 9, -12
 1855              		.cfi_offset 10, -8
 1856              		.cfi_offset 14, -4
 315:src/stm32f4_discovery_audio_codec.c ****   if (Codec_Init(OutputDevice, VOLUME_CONVERT(Volume), AudioFreq) != 0)
 1857              		.loc 1 315 0
 1858 0004 6429     		cmp	r1, #100	@ Volume,
 313:src/stm32f4_discovery_audio_codec.c **** {    
 1859              		.loc 1 313 0
 1860 0006 90B0     		sub	sp, sp, #64	@,,
 1861              	.LCFI15:
 1862              		.cfi_def_cfa_offset 96
 313:src/stm32f4_discovery_audio_codec.c **** {    
 1863              		.loc 1 313 0
 1864 0008 1746     		mov	r7, r2	@ AudioFreq, AudioFreq
 315:src/stm32f4_discovery_audio_codec.c ****   if (Codec_Init(OutputDevice, VOLUME_CONVERT(Volume), AudioFreq) != 0)
 1865              		.loc 1 315 0
 1866 000a 00F23F81 		bhi	.L157	@,
 315:src/stm32f4_discovery_audio_codec.c ****   if (Codec_Init(OutputDevice, VOLUME_CONVERT(Volume), AudioFreq) != 0)
 1867              		.loc 1 315 0 is_stmt 0 discriminator 1
 1868 000e 48F21F58 		movw	r8, #34079	@ tmp196,
 1869 0012 C1EB0121 		rsb	r1, r1, r1, lsl #8	@, tmp193, Volume, Volume,
 1870              	.LVL156:
 1871 0016 C5F2EB18 		movt	r8, 20971	@ tmp196,
 1872 001a 88FB0130 		smull	r3, r0, r8, r1	@, tmp195, tmp196, tmp193
 1873              	.LVL157:
 1874 001e CA17     		asrs	r2, r1, #31	@ tmp198, tmp193,
 1875              	.LVL158:
 1876 0020 C2EB6013 		rsb	r3, r2, r0, asr #5	@, tmp194, tmp198, tmp195,
 1877 0024 5FFA83F8 		uxtb	r8, r3	@ iftmp.53, tmp194
 1878              	.L147:
 1879              	.LVL159:
 1880              	.LBB124:
 1881              	.LBB125:
 1882              	.LBB126:
 1883              	.LBB127:
1176:src/stm32f4_discovery_audio_codec.c ****   RCC_AHB1PeriphClockCmd(AUDIO_RESET_GPIO_CLK,ENABLE);
 1884              		.loc 1 1176 0 is_stmt 1 discriminator 3
 1885 0028 0820     		movs	r0, #8	@,
 1886 002a 0121     		movs	r1, #1	@,
 1887 002c FFF7FEFF 		bl	RCC_AHB1PeriphClockCmd	@
 1888              	.LVL160:
1184:src/stm32f4_discovery_audio_codec.c ****   GPIO_Init(AUDIO_RESET_GPIO, &GPIO_InitStructure);    
 1889              		.loc 1 1184 0 discriminator 3
ARM GAS  C:\Users\CNous\AppData\Local\Temp\ccPT5vWC.s 			page 68


 1890 0030 4FF44060 		mov	r0, #3072	@,
1181:src/stm32f4_discovery_audio_codec.c ****   GPIO_InitStructure.GPIO_Speed = GPIO_Speed_50MHz;
 1891              		.loc 1 1181 0 discriminator 3
 1892 0034 0225     		movs	r5, #2	@ tmp202,
1182:src/stm32f4_discovery_audio_codec.c ****   GPIO_InitStructure.GPIO_OType = GPIO_OType_PP;
 1893              		.loc 1 1182 0 discriminator 3
 1894 0036 0024     		movs	r4, #0	@ tmp204,
1180:src/stm32f4_discovery_audio_codec.c ****   GPIO_InitStructure.GPIO_Mode = GPIO_Mode_OUT;
 1895              		.loc 1 1180 0 discriminator 3
 1896 0038 0126     		movs	r6, #1	@ tmp200,
1184:src/stm32f4_discovery_audio_codec.c ****   GPIO_Init(AUDIO_RESET_GPIO, &GPIO_InitStructure);    
 1897              		.loc 1 1184 0 discriminator 3
 1898 003a C4F20200 		movt	r0, 16386	@,
 1899 003e 02A9     		add	r1, sp, #8	@,,
1179:src/stm32f4_discovery_audio_codec.c ****   GPIO_InitStructure.GPIO_Pin = AUDIO_RESET_PIN; 
 1900              		.loc 1 1179 0 discriminator 3
 1901 0040 4FF01009 		mov	r9, #16	@ tmp199,
1181:src/stm32f4_discovery_audio_codec.c ****   GPIO_InitStructure.GPIO_Speed = GPIO_Speed_50MHz;
 1902              		.loc 1 1181 0 discriminator 3
 1903 0044 8DF80D50 		strb	r5, [sp, #13]	@ tmp202, GPIO_InitStructure.GPIO_Speed
1179:src/stm32f4_discovery_audio_codec.c ****   GPIO_InitStructure.GPIO_Pin = AUDIO_RESET_PIN; 
 1904              		.loc 1 1179 0 discriminator 3
 1905 0048 CDF80890 		str	r9, [sp, #8]	@ tmp199, GPIO_InitStructure.GPIO_Pin
1180:src/stm32f4_discovery_audio_codec.c ****   GPIO_InitStructure.GPIO_Mode = GPIO_Mode_OUT;
 1906              		.loc 1 1180 0 discriminator 3
 1907 004c 8DF80C60 		strb	r6, [sp, #12]	@ tmp200, GPIO_InitStructure.GPIO_Mode
1182:src/stm32f4_discovery_audio_codec.c ****   GPIO_InitStructure.GPIO_OType = GPIO_OType_PP;
 1908              		.loc 1 1182 0 discriminator 3
 1909 0050 8DF80E40 		strb	r4, [sp, #14]	@ tmp204, GPIO_InitStructure.GPIO_OType
1183:src/stm32f4_discovery_audio_codec.c ****   GPIO_InitStructure.GPIO_PuPd  = GPIO_PuPd_NOPULL;
 1910              		.loc 1 1183 0 discriminator 3
 1911 0054 8DF80F40 		strb	r4, [sp, #15]	@ tmp204, GPIO_InitStructure.GPIO_PuPd
1184:src/stm32f4_discovery_audio_codec.c ****   GPIO_Init(AUDIO_RESET_GPIO, &GPIO_InitStructure);    
 1912              		.loc 1 1184 0 discriminator 3
 1913 0058 FFF7FEFF 		bl	GPIO_Init	@
 1914              	.LVL161:
1187:src/stm32f4_discovery_audio_codec.c ****   RCC_AHB1PeriphClockCmd(CODEC_I2C_GPIO_CLOCK | CODEC_I2S_GPIO_CLOCK, ENABLE);
 1915              		.loc 1 1187 0 discriminator 3
 1916 005c 0720     		movs	r0, #7	@,
 1917 005e 3146     		mov	r1, r6	@, tmp200
 1918 0060 FFF7FEFF 		bl	RCC_AHB1PeriphClockCmd	@
 1919              	.LVL162:
1195:src/stm32f4_discovery_audio_codec.c ****   GPIO_Init(CODEC_I2C_GPIO, &GPIO_InitStructure);     
 1920              		.loc 1 1195 0 discriminator 3
 1921 0064 4FF48060 		mov	r0, #1024	@,
1190:src/stm32f4_discovery_audio_codec.c ****   GPIO_InitStructure.GPIO_Pin = CODEC_I2C_SCL_PIN | CODEC_I2C_SDA_PIN; 
 1922              		.loc 1 1190 0 discriminator 3
 1923 0068 4FF41072 		mov	r2, #576	@ tmp210,
1195:src/stm32f4_discovery_audio_codec.c ****   GPIO_Init(CODEC_I2C_GPIO, &GPIO_InitStructure);     
 1924              		.loc 1 1195 0 discriminator 3
 1925 006c C4F20200 		movt	r0, 16386	@,
 1926 0070 02A9     		add	r1, sp, #8	@,,
1190:src/stm32f4_discovery_audio_codec.c ****   GPIO_InitStructure.GPIO_Pin = CODEC_I2C_SCL_PIN | CODEC_I2C_SDA_PIN; 
 1927              		.loc 1 1190 0 discriminator 3
 1928 0072 0292     		str	r2, [sp, #8]	@ tmp210, GPIO_InitStructure.GPIO_Pin
1191:src/stm32f4_discovery_audio_codec.c ****   GPIO_InitStructure.GPIO_Mode = GPIO_Mode_AF;
 1929              		.loc 1 1191 0 discriminator 3
ARM GAS  C:\Users\CNous\AppData\Local\Temp\ccPT5vWC.s 			page 69


 1930 0074 8DF80C50 		strb	r5, [sp, #12]	@ tmp202, GPIO_InitStructure.GPIO_Mode
1192:src/stm32f4_discovery_audio_codec.c ****   GPIO_InitStructure.GPIO_Speed = GPIO_Speed_50MHz;
 1931              		.loc 1 1192 0 discriminator 3
 1932 0078 8DF80D50 		strb	r5, [sp, #13]	@ tmp202, GPIO_InitStructure.GPIO_Speed
1193:src/stm32f4_discovery_audio_codec.c ****   GPIO_InitStructure.GPIO_OType = GPIO_OType_OD;
 1933              		.loc 1 1193 0 discriminator 3
 1934 007c 8DF80E60 		strb	r6, [sp, #14]	@ tmp200, GPIO_InitStructure.GPIO_OType
1194:src/stm32f4_discovery_audio_codec.c ****   GPIO_InitStructure.GPIO_PuPd  = GPIO_PuPd_NOPULL;
 1935              		.loc 1 1194 0 discriminator 3
 1936 0080 8DF80F40 		strb	r4, [sp, #15]	@ tmp204, GPIO_InitStructure.GPIO_PuPd
1195:src/stm32f4_discovery_audio_codec.c ****   GPIO_Init(CODEC_I2C_GPIO, &GPIO_InitStructure);     
 1937              		.loc 1 1195 0 discriminator 3
 1938 0084 FFF7FEFF 		bl	GPIO_Init	@
 1939              	.LVL163:
1197:src/stm32f4_discovery_audio_codec.c ****   GPIO_PinAFConfig(CODEC_I2C_GPIO, CODEC_I2S_SCL_PINSRC, CODEC_I2C_GPIO_AF);  
 1940              		.loc 1 1197 0 discriminator 3
 1941 0088 4FF48060 		mov	r0, #1024	@,
 1942 008c 0621     		movs	r1, #6	@,
 1943 008e 0422     		movs	r2, #4	@,
 1944 0090 C4F20200 		movt	r0, 16386	@,
 1945 0094 FFF7FEFF 		bl	GPIO_PinAFConfig	@
 1946              	.LVL164:
1198:src/stm32f4_discovery_audio_codec.c ****   GPIO_PinAFConfig(CODEC_I2C_GPIO, CODEC_I2S_SDA_PINSRC, CODEC_I2C_GPIO_AF);  
 1947              		.loc 1 1198 0 discriminator 3
 1948 0098 4FF48060 		mov	r0, #1024	@,
 1949 009c 0422     		movs	r2, #4	@,
 1950 009e 0921     		movs	r1, #9	@,
 1951 00a0 C4F20200 		movt	r0, 16386	@,
 1952 00a4 FFF7FEFF 		bl	GPIO_PinAFConfig	@
 1953              	.LVL165:
1206:src/stm32f4_discovery_audio_codec.c ****   GPIO_Init(CODEC_I2S_GPIO, &GPIO_InitStructure);
 1954              		.loc 1 1206 0 discriminator 3
 1955 00a8 4FF40060 		mov	r0, #2048	@,
