ARM GAS  C:\Users\CNous\AppData\Local\Temp\cc7sxCzv.s 			page 1


   1              		.syntax unified
   2              		.cpu cortex-m4
   3              		.eabi_attribute 27, 3	@ Tag_ABI_HardFP_use
   4              		.eabi_attribute 28, 1	@ Tag_ABI_VFP_args
   5              		.fpu fpv4-sp-d16
   6              		.eabi_attribute 20, 1	@ Tag_ABI_FP_denormal
   7              		.eabi_attribute 21, 1	@ Tag_ABI_FP_exceptions
   8              		.eabi_attribute 23, 3	@ Tag_ABI_FP_number_model
   9              		.eabi_attribute 24, 1	@ Tag_ABI_align8_needed
  10              		.eabi_attribute 25, 1	@ Tag_ABI_align8_preserved
  11              		.eabi_attribute 26, 1	@ Tag_ABI_enum_size
  12              		.eabi_attribute 30, 2	@ Tag_ABI_optimization_goals
  13              		.eabi_attribute 34, 1	@ Tag_CPU_unaligned_access
  14              		.eabi_attribute 18, 4	@ Tag_ABI_PCS_wchar_t
  15              		.file	"synth.c"
  16              	@ GNU C (GNU Tools for ARM Embedded Processors) version 4.7.3 20121207 (release) [ARM/embedded-4_7-
  17              	@	compiled by GNU C version 4.2.1-sjlj (mingw32-2), GMP version 4.3.2, MPFR version 2.4.2, MPC vers
  18              	@ GGC heuristics: --param ggc-min-expand=100 --param ggc-min-heapsize=131072
  19              	@ options passed:  -I . -I ./inc -I ./cmsis/core -I ./cmsis/device
  20              	@ -imultilib armv7e-m/fpu
  21              	@ -iprefix c:\gnutoolsarmembedded\4.7-2012q4\bin\../lib/gcc/arm-none-eabi/4.7.3/
  22              	@ -isysroot c:\gnutoolsarmembedded\4.7-2012q4\bin\../arm-none-eabi
  23              	@ -MD src/synth.d -MF .dep/synth.o.d -MP -MQ src/synth.o
  24              	@ -D__USES_INITFINI__ -D __FPU_USED=1 -D __arm__ -D __ASSEMBLY__
  25              	@ -D USE_STDPERIPH_DRIVER -D STM32F4XX -D HSE_VALUE=8000000
  26              	@ -D __FPU_PRESENT=1 -D STM32F407VG -D RUN_FROM_FLASH=1 src/synth.c -mthumb
  27              	@ -mcpu=cortex-m4 -mfloat-abi=hard -mfpu=fpv4-sp-d16
  28              	@ -auxbase-strip src/synth.o -gdwarf-2 -O2 -Wall -Wstrict-prototypes
  29              	@ -fverbose-asm -ffunction-sections -fdata-sections
  30              	@ options enabled:  -fauto-inc-dec -fbranch-count-reg -fcaller-saves
  31              	@ -fcombine-stack-adjustments -fcommon -fcompare-elim -fcprop-registers
  32              	@ -fcrossjumping -fcse-follow-jumps -fdata-sections -fdebug-types-section
  33              	@ -fdefer-pop -fdelete-null-pointer-checks -fdevirtualize -fdwarf2-cfi-asm
  34              	@ -fearly-inlining -feliminate-unused-debug-types -fexpensive-optimizations
  35              	@ -fforward-propagate -ffunction-cse -ffunction-sections -fgcse -fgcse-lm
  36              	@ -fgnu-runtime -fguess-branch-probability -fident -fif-conversion
  37              	@ -fif-conversion2 -findirect-inlining -finline -finline-atomics
  38              	@ -finline-functions-called-once -finline-small-functions -fipa-cp
  39              	@ -fipa-profile -fipa-pure-const -fipa-reference -fipa-sra
  40              	@ -fira-share-save-slots -fira-share-spill-slots -fivopts
  41              	@ -fkeep-static-consts -fleading-underscore -fmath-errno -fmerge-constants
  42              	@ -fmerge-debug-strings -fmove-loop-invariants -fomit-frame-pointer
  43              	@ -foptimize-register-move -foptimize-sibling-calls -foptimize-strlen
  44              	@ -fpartial-inlining -fpeephole -fpeephole2 -fprefetch-loop-arrays
  45              	@ -freg-struct-return -fregmove -frename-registers -freorder-blocks
  46              	@ -freorder-functions -frerun-cse-after-loop
  47              	@ -fsched-critical-path-heuristic -fsched-dep-count-heuristic
  48              	@ -fsched-group-heuristic -fsched-interblock -fsched-last-insn-heuristic
  49              	@ -fsched-rank-heuristic -fsched-spec -fsched-spec-insn-heuristic
  50              	@ -fsched-stalled-insns-dep -fschedule-insns -fschedule-insns2
  51              	@ -fsection-anchors -fshow-column -fshrink-wrap -fsigned-zeros
  52              	@ -fsplit-ivs-in-unroller -fsplit-wide-types -fstrict-aliasing
  53              	@ -fstrict-overflow -fstrict-volatile-bitfields -fthread-jumps
  54              	@ -ftoplevel-reorder -ftrapping-math -ftree-bit-ccp -ftree-builtin-call-dce
  55              	@ -ftree-ccp -ftree-ch -ftree-copy-prop -ftree-copyrename -ftree-cselim
  56              	@ -ftree-dce -ftree-dominator-opts -ftree-dse -ftree-forwprop -ftree-fre
  57              	@ -ftree-loop-if-convert -ftree-loop-im -ftree-loop-ivcanon
ARM GAS  C:\Users\CNous\AppData\Local\Temp\cc7sxCzv.s 			page 2


  58              	@ -ftree-loop-optimize -ftree-parallelize-loops= -ftree-phiprop -ftree-pre
  59              	@ -ftree-pta -ftree-reassoc -ftree-scev-cprop -ftree-sink
  60              	@ -ftree-slp-vectorize -ftree-sra -ftree-switch-conversion
  61              	@ -ftree-tail-merge -ftree-ter -ftree-vect-loop-version -ftree-vrp
  62              	@ -funit-at-a-time -funroll-loops -fvar-tracking -fvar-tracking-assignments
  63              	@ -fverbose-asm -fweb -fzero-initialized-in-bss -mlittle-endian
  64              	@ -msched-prolog -mthumb -munaligned-access -mvectorize-with-neon-quad
  65              	
  66              		.text
  67              	.Ltext0:
  68              		.cfi_sections	.debug_frame
  69              		.section	.text.nextSawEnv,"ax",%progbits
  70              		.align	2
  71              		.global	nextSawEnv
  72              		.thumb
  73              		.thumb_func
  74              		.type	nextSawEnv, %function
  75              	nextSawEnv:
  76              	.LFB110:
  77              		.file 1 "src/synth.c"
   1:src/synth.c   **** /**
   2:src/synth.c   ****  ******************************************************************************
   3:src/synth.c   ****  * @file     synth.c
   4:src/synth.c   ****  * @author  Xavier Halgand
   5:src/synth.c   ****  * @version
   6:src/synth.c   ****  * @date    december 2012
   7:src/synth.c   ****  * @brief A sawtooth oscillator with light fixed vibrato
   8:src/synth.c   ****  * goes through a very basic envelope (just Decay)
   9:src/synth.c   ****  * then an echo (feedback delay) and a phaser.
  10:src/synth.c   ****  * The oscillator is an alias-free minBLEP based generator :
  11:src/synth.c   ****  * Thanks to Sean Bolton (for his blepvco), Fons Adriaensen, Eli Brandt, ... for their work !
  12:src/synth.c   ****  ******************************************************************************
  13:src/synth.c   ****  * This program is free software; you can redistribute it and/or
  14:src/synth.c   ****  * modify it under the terms of the GNU General Public License as
  15:src/synth.c   ****  * published by the Free Software Foundation; either version 2 of
  16:src/synth.c   ****  * the License, or (at your option) any later version.
  17:src/synth.c   ****  *
  18:src/synth.c   ****  * This program is distributed in the hope that it will be
  19:src/synth.c   ****  * useful, but WITHOUT ANY WARRANTY; without even the implied
  20:src/synth.c   ****  * warranty of MERCHANTABILITY or FITNESS FOR A PARTICULAR
  21:src/synth.c   ****  * PURPOSE.  See the GNU General Public License for more details.
  22:src/synth.c   ****  *
  23:src/synth.c   ****  * You should have received a copy of the GNU General Public
  24:src/synth.c   ****  * License along with this program; if not, write to the Free
  25:src/synth.c   ****  * Software Foundation, Inc., 59 Temple Place, Suite 330, Boston,
  26:src/synth.c   ****  * MA 02111-1307, USA.
  27:src/synth.c   ****  */
  28:src/synth.c   **** 
  29:src/synth.c   **** 
  30:src/synth.c   **** #include <stdio.h>
  31:src/synth.c   **** #include <string.h>
  32:src/synth.c   **** #include <math.h>
  33:src/synth.c   **** #include "main.h"
  34:src/synth.c   **** #include "minblep_tables.h"
  35:src/synth.c   **** #include "synth.h"
  36:src/synth.c   **** #include "phaser2.h"
  37:src/synth.c   **** 
ARM GAS  C:\Users\CNous\AppData\Local\Temp\cc7sxCzv.s 			page 3


  38:src/synth.c   **** //---------------------------------------------------------------------------
  39:src/synth.c   **** 
  40:src/synth.c   **** extern float   		 _p, _w, _z;
  41:src/synth.c   **** extern float  	     _f [FILLEN + STEP_DD_PULSE_LENGTH];
  42:src/synth.c   **** extern int    		 _j, _init;
  43:src/synth.c   **** extern float 		 f1, f2, pass;
  44:src/synth.c   **** extern float         phase2, phase2Step;
  45:src/synth.c   **** extern uint16_t   	 audiobuff[BUFF_LEN];
  46:src/synth.c   **** extern float 	     delayline[DELAYLINE_LEN + 10];
  47:src/synth.c   **** extern float         *readpos;
  48:src/synth.c   **** extern float         *writepos;
  49:src/synth.c   **** extern float		coeff_a1, old_dy;
  50:src/synth.c   **** extern float         fdb, sampleT, envTime;
  51:src/synth.c   **** extern float		envPhase;
  52:src/synth.c   **** extern uint8_t		envTrigger, envAmp;
  53:src/synth.c   **** //extern uint16_t		ADC1ConvertedValues[8] ;
  54:src/synth.c   **** //---------------------------------------------------------------------------
  55:src/synth.c   **** 
  56:src/synth.c   **** //-------------------------Decay Envelope-------------------------------------
  57:src/synth.c   **** float
  58:src/synth.c   **** nextSawEnv(uint8_t *trigger, uint8_t amp, float *t, float envTime)
  59:src/synth.c   **** {
  78              		.loc 1 59 0
  79              		.cfi_startproc
  80              		@ args = 0, pretend = 0, frame = 0
  81              		@ frame_needed = 0, uses_anonymous_args = 0
  82              		@ link register save eliminated.
  83              	.LVL0:
  60:src/synth.c   **** 	float val;
  61:src/synth.c   **** 
  62:src/synth.c   **** 	if (*trigger == ON) // envelope is trigged !
  84              		.loc 1 62 0
  85 0000 0378     		ldrb	r3, [r0, #0]	@ zero_extendqisi2	@ *trigger_2(D), *trigger_2(D)
  86 0002 012B     		cmp	r3, #1	@ *trigger_2(D),
  87 0004 21D0     		beq	.L6	@,
  63:src/synth.c   **** 	{
  64:src/synth.c   **** 		*trigger = OFF;
  65:src/synth.c   **** 		*t = 0.f;
  66:src/synth.c   **** 		(*t) += sampleT;
  67:src/synth.c   **** 		return val = (float)amp / 255.f;
  68:src/synth.c   **** 	}
  69:src/synth.c   **** 	else // no trigger
  70:src/synth.c   **** 	{
  71:src/synth.c   **** 		if ((*t) >= envTime)
  88              		.loc 1 71 0
  89 0006 D2ED007A 		flds	s15, [r2, #0]	@ D.8760, *t_4(D)
  90 000a F4EEC07A 		fcmpes	s15, s0	@ D.8760, envTime
  91 000e F1EE10FA 		fmstat
  92 0012 17DA     		bge	.L4	@,
  72:src/synth.c   **** 		{
  73:src/synth.c   **** 			return val = 0.f;
  74:src/synth.c   **** 		}
  75:src/synth.c   **** 		else
  76:src/synth.c   **** 		{
  77:src/synth.c   **** 			val = (float)amp / 255.f * (1.f - (*t)/envTime);
  93              		.loc 1 77 0
  94 0014 07EE101A 		fmsr	s14, r1	@ int	@, amp
ARM GAS  C:\Users\CNous\AppData\Local\Temp\cc7sxCzv.s 			page 4


  95 0018 87EE800A 		fdivs	s0, s15, s0	@ tmp164, D.8760, envTime
  96              	.LVL1:
  78:src/synth.c   **** 			(*t) += sampleT;
  97              		.loc 1 78 0
  98 001c 1648     		ldr	r0, .L7	@ tmp167,
  99              	.LVL2:
  77:src/synth.c   **** 			val = (float)amp / 255.f * (1.f - (*t)/envTime);
 100              		.loc 1 77 0
 101 001e F8EE476A 		fuitos	s13, s14	@ tmp161,
 102 0022 DFED160A 		flds	s1, .L7+4	@ tmp163,
 103 0026 86EEA01A 		fdivs	s2, s13, s1	@ tmp162, tmp161, tmp163
 104              		.loc 1 78 0
 105 002a D0ED001A 		flds	s3, [r0, #0]	@ sampleT, sampleT
  77:src/synth.c   **** 			val = (float)amp / 255.f * (1.f - (*t)/envTime);
 106              		.loc 1 77 0
 107 002e B7EE006A 		fconsts	s12, #112	@ tmp166,
 108 0032 36EE402A 		fsubs	s4, s12, s0	@ tmp165, tmp166, tmp164
 109              		.loc 1 78 0
 110 0036 77EEA12A 		fadds	s5, s15, s3	@ tmp168, D.8760, sampleT
  77:src/synth.c   **** 			val = (float)amp / 255.f * (1.f - (*t)/envTime);
 111              		.loc 1 77 0
 112 003a 21EE020A 		fmuls	s0, s2, s4	@ val, tmp162, tmp165
 113              	.LVL3:
 114              		.loc 1 78 0
 115 003e C2ED002A 		fsts	s5, [r2, #0]	@ tmp168, *t_4(D)
  79:src/synth.c   **** 			return val;
 116              		.loc 1 79 0
 117 0042 7047     		bx	lr	@
 118              	.LVL4:
 119              	.L4:
  73:src/synth.c   **** 			return val = 0.f;
 120              		.loc 1 73 0
 121 0044 9FED0E0A 		flds	s0, .L7+8	@ val,
 122              	.LVL5:
  80:src/synth.c   **** 		}
  81:src/synth.c   **** 	}
  82:src/synth.c   **** }
 123              		.loc 1 82 0
 124 0048 7047     		bx	lr	@
 125              	.LVL6:
 126              	.L6:
  65:src/synth.c   **** 		*t = 0.f;
 127              		.loc 1 65 0
 128 004a 9FED0D3A 		flds	s6, .L7+8	@ tmp154,
  64:src/synth.c   **** 		*trigger = OFF;
 129              		.loc 1 64 0
 130 004e 0023     		movs	r3, #0	@ tmp152,
 131 0050 0370     		strb	r3, [r0, #0]	@ tmp152, *trigger_2(D)
  65:src/synth.c   **** 		*t = 0.f;
 132              		.loc 1 65 0
 133 0052 82ED003A 		fsts	s6, [r2, #0]	@ tmp154, *t_4(D)
  66:src/synth.c   **** 		(*t) += sampleT;
 134              		.loc 1 66 0
 135 0056 0848     		ldr	r0, .L7	@ tmp155,
 136              	.LVL7:
  67:src/synth.c   **** 		return val = (float)amp / 255.f;
 137              		.loc 1 67 0
ARM GAS  C:\Users\CNous\AppData\Local\Temp\cc7sxCzv.s 			page 5


 138 0058 04EE101A 		fmsr	s8, r1	@ int	@, amp
  66:src/synth.c   **** 		(*t) += sampleT;
 139              		.loc 1 66 0
 140 005c D0ED003A 		flds	s7, [r0, #0]	@ sampleT, sampleT
  67:src/synth.c   **** 		return val = (float)amp / 255.f;
 141              		.loc 1 67 0
 142 0060 F8EE444A 		fuitos	s9, s8	@ tmp159,
  66:src/synth.c   **** 		(*t) += sampleT;
 143              		.loc 1 66 0
 144 0064 33EE835A 		fadds	s10, s7, s6	@ tmp156, sampleT, tmp154
  67:src/synth.c   **** 		return val = (float)amp / 255.f;
 145              		.loc 1 67 0
 146 0068 DFED045A 		flds	s11, .L7+4	@ tmp160,
  66:src/synth.c   **** 		(*t) += sampleT;
 147              		.loc 1 66 0
 148 006c 82ED005A 		fsts	s10, [r2, #0]	@ tmp156, *t_4(D)
  67:src/synth.c   **** 		return val = (float)amp / 255.f;
 149              		.loc 1 67 0
 150 0070 84EEA50A 		fdivs	s0, s9, s11	@ val, tmp159, tmp160
 151              	.LVL8:
 152 0074 7047     		bx	lr	@
 153              	.L8:
 154 0076 00BF     		.align	2
 155              	.L7:
 156 0078 00000000 		.word	sampleT
 157 007c 00007F43 		.word	1132396544
 158 0080 00000000 		.word	0
 159              		.cfi_endproc
 160              	.LFE110:
 161              		.size	nextSawEnv, .-nextSawEnv
 162              		.section	.text.place_step_dd,"ax",%progbits
 163              		.align	2
 164              		.global	place_step_dd
 165              		.thumb
 166              		.thumb_func
 167              		.type	place_step_dd, %function
 168              	place_step_dd:
 169              	.LFB111:
  83:src/synth.c   **** 
  84:src/synth.c   **** //-------------------------this is magic...---------------------------------------
  85:src/synth.c   **** 
  86:src/synth.c   **** void
  87:src/synth.c   **** place_step_dd(float *buffer, int index, float phase, float w, float scale)
  88:src/synth.c   **** {
 170              		.loc 1 88 0
 171              		.cfi_startproc
 172              		@ args = 0, pretend = 0, frame = 0
 173              		@ frame_needed = 0, uses_anonymous_args = 0
 174              	.LVL9:
 175 0000 38B5     		push	{r3, r4, r5, lr}	@
 176              	.LCFI0:
 177              		.cfi_def_cfa_offset 16
 178              		.cfi_offset 3, -16
 179              		.cfi_offset 4, -12
 180              		.cfi_offset 5, -8
 181              		.cfi_offset 14, -4
 182 0002 2DED028B 		fstmfdd	sp!, {d8}	@,
ARM GAS  C:\Users\CNous\AppData\Local\Temp\cc7sxCzv.s 			page 6


 183              	.LCFI1:
 184              		.cfi_def_cfa_offset 24
 185              		.cfi_offset 80, -24
  89:src/synth.c   **** 	float r;
  90:src/synth.c   **** 	int i;
  91:src/synth.c   **** 
  92:src/synth.c   **** 	r = MINBLEP_PHASES * phase / w;
 186              		.loc 1 92 0
 187 0006 DFED338A 		flds	s17, .L20	@ tmp215,
 188 000a 20EE280A 		fmuls	s0, s0, s17	@ tmp214, phase, tmp215
 189              	.LVL10:
  88:src/synth.c   **** {
 190              		.loc 1 88 0
 191 000e 0D46     		mov	r5, r1	@ index, index
 192              		.loc 1 92 0
 193 0010 C0EE208A 		fdivs	s17, s0, s1	@ r, tmp214, w
 194              	.LVL11:
  88:src/synth.c   **** {
 195              		.loc 1 88 0
 196 0014 0446     		mov	r4, r0	@ buffer, buffer
  93:src/synth.c   **** 	i = lrintf(r - 0.5f);
 197              		.loc 1 93 0
 198 0016 F6EE000A 		fconsts	s1, #96	@ tmp217,
 199              	.LVL12:
 200 001a 38EEE00A 		fsubs	s0, s17, s1	@, r, tmp217
  88:src/synth.c   **** {
 201              		.loc 1 88 0
 202 001e B0EE418A 		fcpys	s16, s2	@ scale, scale
 203              		.loc 1 93 0
 204 0022 FFF7FEFF 		bl	lrintf	@
 205              	.LVL13:
  94:src/synth.c   **** 	r -= (float)i;
 206              		.loc 1 94 0
 207 0026 07EE900A 		fmsr	s15, r0	@ int	@, tmp218
  87:src/synth.c   **** place_step_dd(float *buffer, int index, float phase, float w, float scale)
 208              		.loc 1 87 0
 209 002a 2B4B     		ldr	r3, .L20+4	@ tmp222,
  95:src/synth.c   **** 	i &= MINBLEP_PHASE_MASK;  /* extreme modulation can cause i to be out-of-range */
 210              		.loc 1 95 0
 211 002c 00F03F02 		and	r2, r0, #63	@ i, tmp218,
  94:src/synth.c   **** 	r -= (float)i;
 212              		.loc 1 94 0
 213 0030 F8EEE76A 		fsitos	s13, s15	@ tmp219,
  87:src/synth.c   **** place_step_dd(float *buffer, int index, float phase, float w, float scale)
 214              		.loc 1 87 0
 215 0034 03EBC203 		add	r3, r3, r2, lsl #3	@, ivtmp.57, tmp222, i,
  96:src/synth.c   **** 	/* this would be better than the above, but more expensive:
  97:src/synth.c   **** 	 *  while (i < 0) {
  98:src/synth.c   **** 	 *    i += MINBLEP_PHASES;
  99:src/synth.c   **** 	 *    index++;
 100:src/synth.c   **** 	 *  }
 101:src/synth.c   **** 	 */
 102:src/synth.c   **** 
 103:src/synth.c   **** 	while (i < MINBLEP_PHASES * STEP_DD_PULSE_LENGTH) {
 104:src/synth.c   **** 		buffer[index] += scale * (step_dd_table[i].value + r * step_dd_table[i].delta);
 216              		.loc 1 104 0
 217 0038 93ED011A 		flds	s2, [r3, #4]	@ MEM[base: D.8817_63, offset: 4B], MEM[base: D.8817_63, offset: 4B]
ARM GAS  C:\Users\CNous\AppData\Local\Temp\cc7sxCzv.s 			page 7


 218 003c 93ED007A 		flds	s14, [r3, #0]	@ tmp225, MEM[base: D.8817_63, offset: 0B]
  94:src/synth.c   **** 	r -= (float)i;
 219              		.loc 1 94 0
 220 0040 78EEE61A 		fsubs	s3, s17, s13	@ r, r, tmp219
 221              	.LVL14:
  87:src/synth.c   **** place_step_dd(float *buffer, int index, float phase, float w, float scale)
 222              		.loc 1 87 0
 223 0044 04EB8501 		add	r1, r4, r5, lsl #2	@, ivtmp.53, buffer, index,
 224              		.loc 1 104 0
 225 0048 01EE817A 		fmacs	s14, s3, s2	@ tmp225, r, MEM[base: D.8817_63, offset: 4B]
 226 004c 91ED002A 		flds	s4, [r1, #0]	@ tmp228, MEM[base: D.8816_62, offset: 0B]
 227 0050 07EE082A 		fmacs	s4, s14, s16	@ tmp228, tmp225, scale
 105:src/synth.c   **** 		i += MINBLEP_PHASES;
 228              		.loc 1 105 0
 229 0054 02F14000 		add	r0, r2, #64	@ i, i,
 230 0058 0122     		movs	r2, #1	@ tmp233,
 231              	.LVL15:
 103:src/synth.c   **** 	while (i < MINBLEP_PHASES * STEP_DD_PULSE_LENGTH) {
 232              		.loc 1 103 0
 233 005a 41F2FF15 		movw	r5, #4607	@ tmp230,
 234              	.LVL16:
 104:src/synth.c   **** 		buffer[index] += scale * (step_dd_table[i].value + r * step_dd_table[i].delta);
 235              		.loc 1 104 0
 236 005e A1EC012A 		fstmias	r1!, {s4}	@ ivtmp.53, tmp228
 237              	.LVL17:
 238 0062 03F50073 		add	r3, r3, #512	@ ivtmp.57, ivtmp.57,
 239 0066 82B1     		cbz	r2, .L10	@ tmp233,
 240 0068 D3ED012A 		flds	s5, [r3, #4]	@ MEM[base: D.8817_63, offset: 4B], MEM[base: D.8817_63, offset: 4B]
 241 006c 93ED003A 		flds	s6, [r3, #0]	@ tmp264, MEM[base: D.8817_63, offset: 0B]
 242 0070 01EEA23A 		fmacs	s6, s3, s5	@ tmp264, r, MEM[base: D.8817_63, offset: 4B]
 243 0074 D1ED003A 		flds	s7, [r1, #0]	@ tmp266, MEM[base: D.8816_62, offset: 0B]
 244 0078 43EE083A 		fmacs	s7, s6, s16	@ tmp266, tmp264, scale
 245              		.loc 1 105 0
 246 007c 4030     		adds	r0, r0, #64	@ i, i,
 103:src/synth.c   **** 	while (i < MINBLEP_PHASES * STEP_DD_PULSE_LENGTH) {
 247              		.loc 1 103 0
 248 007e A842     		cmp	r0, r5	@ i, tmp230
 104:src/synth.c   **** 		buffer[index] += scale * (step_dd_table[i].value + r * step_dd_table[i].delta);
 249              		.loc 1 104 0
 250 0080 E1EC013A 		fstmias	r1!, {s7}	@ ivtmp.53, tmp266
 251 0084 03F50073 		add	r3, r3, #512	@ ivtmp.57, ivtmp.57,
 103:src/synth.c   **** 	while (i < MINBLEP_PHASES * STEP_DD_PULSE_LENGTH) {
 252              		.loc 1 103 0
 253 0088 20DC     		bgt	.L19	@,
 254              	.LVL18:
 255              	.L10:
 104:src/synth.c   **** 		buffer[index] += scale * (step_dd_table[i].value + r * step_dd_table[i].delta);
 256              		.loc 1 104 0
 257 008a 93ED014A 		flds	s8, [r3, #4]	@ MEM[base: D.8817_63, offset: 4B], MEM[base: D.8817_63, offset: 4B]
 258 008e D3ED004A 		flds	s9, [r3, #0]	@ tmp246, MEM[base: D.8817_63, offset: 0B]
 259 0092 41EE844A 		fmacs	s9, s3, s8	@ tmp246, r, MEM[base: D.8817_63, offset: 4B]
 260 0096 91ED005A 		flds	s10, [r1, #0]	@ tmp248, MEM[base: D.8816_62, offset: 0B]
 261 009a 04EE885A 		fmacs	s10, s9, s16	@ tmp248, tmp246, scale
 262 009e 0A46     		mov	r2, r1	@ tmp234, ivtmp.53
 263 00a0 A2EC015A 		fstmias	r2!, {s10}	@ tmp234, tmp248
 264 00a4 D3ED805A 		flds	s11, [r3, #512]	@ tmp256, MEM[base: D.8817_63, offset: 0B]
 265 00a8 93ED816A 		flds	s12, [r3, #516]	@ MEM[base: D.8817_63, offset: 4B], MEM[base: D.8817_63, offset: 4B]
ARM GAS  C:\Users\CNous\AppData\Local\Temp\cc7sxCzv.s 			page 8


 266 00ac 41EE865A 		fmacs	s11, s3, s12	@ tmp256, r, MEM[base: D.8817_63, offset: 4B]
 267 00b0 91ED010A 		flds	s0, [r1, #4]	@ tmp258, MEM[base: D.8816_62, offset: 0B]
 268 00b4 05EE880A 		fmacs	s0, s11, s16	@ tmp258, tmp256, scale
 269              		.loc 1 105 0
 270 00b8 8030     		adds	r0, r0, #128	@ i, i,
 271 00ba 1146     		mov	r1, r2	@ ivtmp.53, tmp234
 103:src/synth.c   **** 	while (i < MINBLEP_PHASES * STEP_DD_PULSE_LENGTH) {
 272              		.loc 1 103 0
 273 00bc A842     		cmp	r0, r5	@ i, tmp230
 274 00be 03F50074 		add	r4, r3, #512	@ tmp236, ivtmp.57,
 104:src/synth.c   **** 		buffer[index] += scale * (step_dd_table[i].value + r * step_dd_table[i].delta);
 275              		.loc 1 104 0
 276 00c2 A1EC010A 		fstmias	r1!, {s0}	@ ivtmp.53, tmp258
 277 00c6 03F58063 		add	r3, r3, #1024	@ ivtmp.57, ivtmp.57,
 103:src/synth.c   **** 	while (i < MINBLEP_PHASES * STEP_DD_PULSE_LENGTH) {
 278              		.loc 1 103 0
 279 00ca DEDD     		ble	.L10	@,
 280              	.L19:
 106:src/synth.c   **** 		index++;
 107:src/synth.c   **** 	}
 108:src/synth.c   **** }
 281              		.loc 1 108 0
 282 00cc BDEC028B 		fldmfdd	sp!, {d8}
 283 00d0 38BD     		pop	{r3, r4, r5, pc}
 284              	.L21:
 285 00d2 00BF     		.align	2
 286              	.L20:
 287 00d4 00008042 		.word	1115684864
 288 00d8 00000000 		.word	step_dd_table
 289              		.cfi_endproc
 290              	.LFE111:
 291              		.size	place_step_dd, .-place_step_dd
 292              		.section	.text.sawtooth_active,"ax",%progbits
 293              		.align	2
 294              		.global	sawtooth_active
 295              		.thumb
 296              		.thumb_func
 297              		.type	sawtooth_active, %function
 298              	sawtooth_active:
 299              	.LFB112:
 109:src/synth.c   **** //--------------------------Prepare the oscillator----------------------------------------
 110:src/synth.c   **** 
 111:src/synth.c   **** void
 112:src/synth.c   **** sawtooth_active (void)
 113:src/synth.c   **** {
 300              		.loc 1 113 0
 301              		.cfi_startproc
 302              		@ args = 0, pretend = 0, frame = 0
 303              		@ frame_needed = 0, uses_anonymous_args = 0
 304              		@ link register save eliminated.
 305 0000 F0B4     		push	{r4, r5, r6, r7}	@
 306              	.LCFI2:
 307              		.cfi_def_cfa_offset 16
 308              		.cfi_offset 4, -16
 309              		.cfi_offset 5, -12
 310              		.cfi_offset 6, -8
 311              		.cfi_offset 7, -4
ARM GAS  C:\Users\CNous\AppData\Local\Temp\cc7sxCzv.s 			page 9


 114:src/synth.c   **** 	_init = 1;
 312              		.loc 1 114 0
 313 0002 40F20005 		movw	r5, #:lower16:_init	@ tmp144,
 314 0006 C0F20005 		movt	r5, #:upper16:_init	@ tmp144,
 115:src/synth.c   **** 	_z = 0.0f;
 116:src/synth.c   **** 	_j = 0;
 315              		.loc 1 116 0
 316 000a 40F20003 		movw	r3, #:lower16:_j	@ tmp146,
 115:src/synth.c   **** 	_z = 0.0f;
 317              		.loc 1 115 0
 318 000e 40F20004 		movw	r4, #:lower16:_z	@ tmp145,
 319              		.loc 1 116 0
 320 0012 0026     		movs	r6, #0	@ tmp139,
 321 0014 C0F20003 		movt	r3, #:upper16:_j	@ tmp146,
 115:src/synth.c   **** 	_z = 0.0f;
 322              		.loc 1 115 0
 323 0018 C0F20004 		movt	r4, #:upper16:_z	@ tmp145,
 114:src/synth.c   **** 	_init = 1;
 324              		.loc 1 114 0
 325 001c 0127     		movs	r7, #1	@ tmp135,
 117:src/synth.c   **** 	memset (_f, 0, (FILLEN + STEP_DD_PULSE_LENGTH) * sizeof (float));
 326              		.loc 1 117 0
 327 001e 40F20000 		movw	r0, #:lower16:_f	@ tmp140,
 114:src/synth.c   **** 	_init = 1;
 328              		.loc 1 114 0
 329 0022 2F60     		str	r7, [r5, #0]	@ tmp135, _init
 330              		.loc 1 117 0
 331 0024 C0F20000 		movt	r0, #:upper16:_f	@,
 115:src/synth.c   **** 	_z = 0.0f;
 332              		.loc 1 115 0
 333 0028 0025     		movs	r5, #0	@ tmp137,
 334              		.loc 1 117 0
 335 002a 3146     		mov	r1, r6	@, tmp139
 336 002c 4FF4A462 		mov	r2, #1312	@,
 115:src/synth.c   **** 	_z = 0.0f;
 337              		.loc 1 115 0
 338 0030 2560     		str	r5, [r4, #0]	@ float	@ tmp137, _z
 116:src/synth.c   **** 	_j = 0;
 339              		.loc 1 116 0
 340 0032 1E60     		str	r6, [r3, #0]	@ tmp139, _j
 118:src/synth.c   **** }
 341              		.loc 1 118 0
 342 0034 F0BC     		pop	{r4, r5, r6, r7}
 117:src/synth.c   **** 	memset (_f, 0, (FILLEN + STEP_DD_PULSE_LENGTH) * sizeof (float));
 343              		.loc 1 117 0
 344 0036 FFF7FEBF 		b	memset	@
 345              	.LVL19:
 346              		.cfi_endproc
 347              	.LFE112:
 348              		.size	sawtooth_active, .-sawtooth_active
 349              		.global	__aeabi_f2d
 350              		.global	__aeabi_dcmplt
 351 003a 00BF     		.section	.text.sawtooth_runproc,"ax",%progbits
 352              		.align	2
 353              		.global	sawtooth_runproc
 354              		.thumb
 355              		.thumb_func
ARM GAS  C:\Users\CNous\AppData\Local\Temp\cc7sxCzv.s 			page 10


 356              		.type	sawtooth_runproc, %function
 357              	sawtooth_runproc:
 358              	.LFB113:
 119:src/synth.c   **** 
 120:src/synth.c   **** //---------------------------Compute the samples---------------------------------
 121:src/synth.c   **** void
 122:src/synth.c   **** sawtooth_runproc (uint16_t offset, uint16_t len)
 123:src/synth.c   **** {
 359              		.loc 1 123 0
 360              		.cfi_startproc
 361              		@ args = 0, pretend = 0, frame = 8
 362              		@ frame_needed = 0, uses_anonymous_args = 0
 363              	.LVL20:
 364 0000 2DE9F04F 		push	{r4, r5, r6, r7, r8, r9, sl, fp, lr}	@
 365              	.LCFI3:
 366              		.cfi_def_cfa_offset 36
 367              		.cfi_offset 4, -36
 368              		.cfi_offset 5, -32
 369              		.cfi_offset 6, -28
 370              		.cfi_offset 7, -24
 371              		.cfi_offset 8, -20
 372              		.cfi_offset 9, -16
 373              		.cfi_offset 10, -12
 374              		.cfi_offset 11, -8
 375              		.cfi_offset 14, -4
 376 0004 2DED0A8B 		fstmfdd	sp!, {d8, d9, d10, d11, d12}	@,
 377              	.LCFI4:
 378              		.cfi_def_cfa_offset 76
 379              		.cfi_offset 80, -76
 380              		.cfi_offset 82, -68
 381              		.cfi_offset 84, -60
 382              		.cfi_offset 86, -52
 383              		.cfi_offset 88, -44
 124:src/synth.c   **** 	uint16_t	j, n;
 125:src/synth.c   **** 	uint16_t	*outp;
 126:src/synth.c   **** 	float  		a, p, t, w, dw, z, ze, y, dy, freq;
 127:src/synth.c   **** 	uint16_t	value;
 128:src/synth.c   **** 
 129:src/synth.c   **** 	outp    = audiobuff + offset;
 130:src/synth.c   **** 	freq = f1;
 131:src/synth.c   **** 	p = _p;  /* phase [0, 1) */
 132:src/synth.c   **** 	w = _w;  /* phase increment */
 133:src/synth.c   **** 	z = _z;  /* low pass filter state */
 134:src/synth.c   **** 	j = _j;  /* index into buffer _f */
 135:src/synth.c   **** 
 136:src/synth.c   **** 	if (_init)
 384              		.loc 1 136 0
 385 0008 D94D     		ldr	r5, .L59+8	@ tmp410,
 129:src/synth.c   **** 	outp    = audiobuff + offset;
 386              		.loc 1 129 0
 387 000a DA4C     		ldr	r4, .L59+12	@ tmp274,
 388              		.loc 1 136 0
 389 000c 2B68     		ldr	r3, [r5, #0]	@ _init, _init
 123:src/synth.c   **** {
 390              		.loc 1 123 0
 391 000e 83B0     		sub	sp, sp, #12	@,,
 392              	.LCFI5:
ARM GAS  C:\Users\CNous\AppData\Local\Temp\cc7sxCzv.s 			page 11


 393              		.cfi_def_cfa_offset 88
 134:src/synth.c   **** 	j = _j;  /* index into buffer _f */
 394              		.loc 1 134 0
 395 0010 40F20002 		movw	r2, #:lower16:_j	@,
 396 0014 C0F20002 		movt	r2, #:upper16:_j	@,
 123:src/synth.c   **** {
 397              		.loc 1 123 0
 398 0018 0191     		str	r1, [sp, #4]	@ len, %sfp
 129:src/synth.c   **** 	outp    = audiobuff + offset;
 399              		.loc 1 129 0
 400 001a 04EB4004 		add	r4, r4, r0, lsl #1	@, outp, tmp274, offset,
 401              	.LVL21:
 130:src/synth.c   **** 	freq = f1;
 402              		.loc 1 130 0
 403 001e 40F20001 		movw	r1, #:lower16:f1	@,
 404              	.LVL22:
 131:src/synth.c   **** 	p = _p;  /* phase [0, 1) */
 405              		.loc 1 131 0
 406 0022 40F20000 		movw	r0, #:lower16:_p	@,
 407              	.LVL23:
 132:src/synth.c   **** 	w = _w;  /* phase increment */
 408              		.loc 1 132 0
 409 0026 40F20006 		movw	r6, #:lower16:_w	@,
 133:src/synth.c   **** 	z = _z;  /* low pass filter state */
 410              		.loc 1 133 0
 411 002a 40F20007 		movw	r7, #:lower16:_z	@,
 130:src/synth.c   **** 	freq = f1;
 412              		.loc 1 130 0
 413 002e C0F20001 		movt	r1, #:upper16:f1	@,
 131:src/synth.c   **** 	p = _p;  /* phase [0, 1) */
 414              		.loc 1 131 0
 415 0032 C0F20000 		movt	r0, #:upper16:_p	@,
 132:src/synth.c   **** 	w = _w;  /* phase increment */
 416              		.loc 1 132 0
 417 0036 C0F20006 		movt	r6, #:upper16:_w	@,
 133:src/synth.c   **** 	z = _z;  /* low pass filter state */
 418              		.loc 1 133 0
 419 003a C0F20007 		movt	r7, #:upper16:_z	@,
 134:src/synth.c   **** 	j = _j;  /* index into buffer _f */
 420              		.loc 1 134 0
 421 003e B2F80090 		ldrh	r9, [r2, #0]	@ j, _j
 130:src/synth.c   **** 	freq = f1;
 422              		.loc 1 130 0
 423 0042 D1ED009A 		flds	s19, [r1, #0]	@ freq, f1
 424              	.LVL24:
 131:src/synth.c   **** 	p = _p;  /* phase [0, 1) */
 425              		.loc 1 131 0
 426 0046 90ED008A 		flds	s16, [r0, #0]	@ p, _p
 427              	.LVL25:
 132:src/synth.c   **** 	w = _w;  /* phase increment */
 428              		.loc 1 132 0
 429 004a 96ED009A 		flds	s18, [r6, #0]	@ w, _w
 430              	.LVL26:
 133:src/synth.c   **** 	z = _z;  /* low pass filter state */
 431              		.loc 1 133 0
 432 004e D7ED008A 		flds	s17, [r7, #0]	@ z, _z
 433              	.LVL27:
ARM GAS  C:\Users\CNous\AppData\Local\Temp\cc7sxCzv.s 			page 12


 434              		.loc 1 136 0
 435 0052 ABB1     		cbz	r3, .L24	@ _init,
 436              	.LVL28:
 137:src/synth.c   **** 	{
 138:src/synth.c   **** 		p = 0.5f;
 139:src/synth.c   **** 		w = freq / SAMPLERATE;
 437              		.loc 1 139 0
 438 0054 9FEDC88A 		flds	s16, .L59+16	@ tmp283,
 439 0058 89EE88AA 		fdivs	s20, s19, s16	@ w, freq, tmp283
 440              	.LVL29:
 140:src/synth.c   **** 		if (w < 1e-5) w = 1e-5;
 441              		.loc 1 140 0
 442 005c 1AEE100A 		fmrs	r0, s20	@, w
 443 0060 FFF7FEFF 		bl	__aeabi_f2d	@
 444              	.LVL30:
 445 0064 C0A3     		adr	r3, .L59	@,
 446 0066 D3E90023 		ldrd	r2, [r3]	@,
 447 006a FFF7FEFF 		bl	__aeabi_dcmplt	@
 448              	.LVL31:
 449 006e 0028     		cmp	r0, #0	@
 450 0070 00F06F81 		beq	.L56	@
 451 0074 9FEDC19A 		flds	s18, .L59+20	@ w,
 452              	.L25:
 453              	.LVL32:
 141:src/synth.c   **** 		if (w > 0.5) w = 0.5;
 142:src/synth.c   **** 		/* if we valued alias-free startup over low startup time, we could do:
 143:src/synth.c   **** 		 *   p -= w;
 144:src/synth.c   **** 		 *   place_slope_dd(_f, j, 0.0f, w, -1.0f); */
 145:src/synth.c   **** 		_init = 0;
 454              		.loc 1 145 0
 455 0078 0023     		movs	r3, #0	@ tmp289,
 456 007a 2B60     		str	r3, [r5, #0]	@ tmp289, _init
 138:src/synth.c   **** 		p = 0.5f;
 457              		.loc 1 138 0
 458 007c B6EE008A 		fconsts	s16, #96	@ p,
 459              	.LVL33:
 460              	.L24:
 461 0080 4434     		adds	r4, r4, #68	@, outp,
 462              	.LVL34:
 463 0082 DFF830B3 		ldr	fp, .L59+76	@ tmp394,
 464 0086 BE4D     		ldr	r5, .L59+24	@ tmp395,
 465 0088 DFF82C83 		ldr	r8, .L59+80	@ tmp400,
 466 008c DFF82CA3 		ldr	sl, .L59+84	@ tmp398,
 467 0090 BC4F     		ldr	r7, .L59+28	@ tmp399,
 468 0092 BD4E     		ldr	r6, .L59+32	@ pretmp.80,
 469 0094 0094     		str	r4, [sp, #0]	@, %sfp
 146:src/synth.c   **** 	}
 147:src/synth.c   **** 
 148:src/synth.c   **** 	//a = 0.2 + 0.8 * _port [FILT][0];
 149:src/synth.c   **** 	// adjust lowpass filter :
 150:src/synth.c   **** 	a = 0.9f;
 151:src/synth.c   **** 
 152:src/synth.c   **** 	do
 153:src/synth.c   **** 	{
 154:src/synth.c   **** 		n = 16;  //  the osc freq control is undersampled 16 times
 155:src/synth.c   **** 
 156:src/synth.c   **** 		/***** insert a vibrato  ******/
ARM GAS  C:\Users\CNous\AppData\Local\Temp\cc7sxCzv.s 			page 13


 157:src/synth.c   **** 		phase2Step = _2PI * 16.f * f2 / SAMPLERATE;
 470              		.loc 1 157 0
 471 0096 9FEDBDCA 		flds	s24, .L59+36	@ tmp425,
 472 009a DFEDB7AA 		flds	s21, .L59+16	@ tmp426,
 158:src/synth.c   **** 		phase2 += phase2Step;
 159:src/synth.c   **** 		phase2 = (phase2 > _2PI) ? phase2 - _2PI : phase2;
 473              		.loc 1 159 0
 474 009e 9FEDBCBA 		flds	s22, .L59+40	@ tmp427,
 160:src/synth.c   **** 		   /* modulate freq by a sine   */
 161:src/synth.c   **** 		freq = f1 * (1 + 0.01f * sinf(phase2));
 475              		.loc 1 161 0
 476 00a2 DFEDBCBA 		flds	s23, .L59+44	@ tmp428,
 477              	.LVL35:
 478              	.L41:
 157:src/synth.c   **** 		phase2Step = _2PI * 16.f * f2 / SAMPLERATE;
 479              		.loc 1 157 0
 480 00a6 40F20002 		movw	r2, #:lower16:f2	@,
 481 00aa C0F20002 		movt	r2, #:upper16:f2	@,
 482 00ae 92ED007A 		flds	s14, [r2, #0]	@ f2, f2
 483 00b2 27EE0C0A 		fmuls	s0, s14, s24	@ tmp291, f2, tmp425
 158:src/synth.c   **** 		phase2 += phase2Step;
 484              		.loc 1 158 0
 485 00b6 40F20004 		movw	r4, #:lower16:phase2	@,
 157:src/synth.c   **** 		phase2Step = _2PI * 16.f * f2 / SAMPLERATE;
 486              		.loc 1 157 0
 487 00ba C0EE2A0A 		fdivs	s1, s0, s21	@ phase2Step.3, tmp291, tmp426
 488              	.LVL36:
 158:src/synth.c   **** 		phase2 += phase2Step;
 489              		.loc 1 158 0
 490 00be C0F20004 		movt	r4, #:upper16:phase2	@,
 157:src/synth.c   **** 		phase2Step = _2PI * 16.f * f2 / SAMPLERATE;
 491              		.loc 1 157 0
 492 00c2 40F20001 		movw	r1, #:lower16:phase2Step	@,
 159:src/synth.c   **** 		phase2 = (phase2 > _2PI) ? phase2 - _2PI : phase2;
 493              		.loc 1 159 0
 494 00c6 40F20000 		movw	r0, #:lower16:phase2	@,
 157:src/synth.c   **** 		phase2Step = _2PI * 16.f * f2 / SAMPLERATE;
 495              		.loc 1 157 0
 496 00ca C0F20001 		movt	r1, #:upper16:phase2Step	@,
 159:src/synth.c   **** 		phase2 = (phase2 > _2PI) ? phase2 - _2PI : phase2;
 497              		.loc 1 159 0
 498 00ce C0F20000 		movt	r0, #:upper16:phase2	@,
 158:src/synth.c   **** 		phase2 += phase2Step;
 499              		.loc 1 158 0
 500 00d2 D4ED007A 		flds	s15, [r4, #0]	@ phase2, phase2
 501 00d6 30EEA71A 		fadds	s2, s1, s15	@ iftmp.7, phase2Step.3, phase2
 502              	.LVL37:
 157:src/synth.c   **** 		phase2Step = _2PI * 16.f * f2 / SAMPLERATE;
 503              		.loc 1 157 0
 504 00da C1ED000A 		fsts	s1, [r1, #0]	@ phase2Step.3, phase2Step
 159:src/synth.c   **** 		phase2 = (phase2 > _2PI) ? phase2 - _2PI : phase2;
 505              		.loc 1 159 0
 506 00de B4EECB1A 		fcmpes	s2, s22	@ iftmp.7, tmp427
 507              	.LVL38:
 508 00e2 F1EE10FA 		fmstat
 509 00e6 C8BF     		it	gt
 510 00e8 31EE4B1A 		fsubsgt	s2, s2, s22	@ iftmp.7, iftmp.7, tmp427
ARM GAS  C:\Users\CNous\AppData\Local\Temp\cc7sxCzv.s 			page 14


 511              	.LVL39:
 512              		.loc 1 161 0
 513 00ec B0EE410A 		fcpys	s0, s2	@, iftmp.7
 514              	.LVL40:
 159:src/synth.c   **** 		phase2 = (phase2 > _2PI) ? phase2 - _2PI : phase2;
 515              		.loc 1 159 0
 516 00f0 80ED001A 		fsts	s2, [r0, #0]	@ iftmp.7, phase2
 517              		.loc 1 161 0
 518 00f4 FFF7FEFF 		bl	sinf	@
 519              	.LVL41:
 520 00f8 F7EE001A 		fconsts	s3, #112	@ tmp304,
 521 00fc 40EE2B1A 		fmacs	s3, s0, s23	@ tmp304,, tmp428
 162:src/synth.c   **** 
 163:src/synth.c   **** 		len -= n;
 522              		.loc 1 163 0
 523 0100 019B     		ldr	r3, [sp, #4]	@ tmp301, %sfp
 161:src/synth.c   **** 		freq = f1 * (1 + 0.01f * sinf(phase2));
 524              		.loc 1 161 0
 525 0102 61EEA99A 		fmuls	s19, s3, s19	@ tmp306, tmp304, freq
 526              	.LVL42:
 527              		.loc 1 163 0
 528 0106 103B     		subs	r3, r3, #16	@ tmp301, tmp301,
 164:src/synth.c   **** 
 165:src/synth.c   **** 		t = freq / SAMPLERATE;
 529              		.loc 1 165 0
 530 0108 C9EEAACA 		fdivs	s25, s19, s21	@ t, tmp306, tmp426
 163:src/synth.c   **** 		len -= n;
 531              		.loc 1 163 0
 532 010c 9AB2     		uxth	r2, r3	@, tmp301
 533 010e 0192     		str	r2, [sp, #4]	@, %sfp
 534              	.LVL43:
 166:src/synth.c   **** 		if (t < 1e-5) t = 1e-5;
 535              		.loc 1 166 0
 536 0110 1CEE900A 		fmrs	r0, s25	@, t
 537 0114 FFF7FEFF 		bl	__aeabi_f2d	@
 538              	.LVL44:
 539 0118 93A3     		adr	r3, .L59	@,
 540 011a D3E90023 		ldrd	r2, [r3]	@,
 541 011e FFF7FEFF 		bl	__aeabi_dcmplt	@
 542              	.LVL45:
 543 0122 0028     		cmp	r0, #0	@
 544 0124 40F0F580 		bne	.L44	@
 167:src/synth.c   **** 		if (t > 0.5) t = 0.5;
 545              		.loc 1 167 0
 546 0128 B6EE002A 		fconsts	s4, #96	@ tmp311,
 547 012c F4EE42CA 		fcmps	s25, s4	@ t, tmp311
 548 0130 F1EE10FA 		fmstat
 549 0134 C8BF     		it	gt	@
 550 0136 F0EE42CA 		fcpysgt	s25, s4	@, t, tmp311
 551              	.LVL46:
 552              	.L28:
 168:src/synth.c   **** 		dw = (t - w) / n;
 553              		.loc 1 168 0
 554 013a 7CEEC92A 		fsubs	s5, s25, s18	@ tmp312, t, w
 555 013e 9FED963A 		flds	s6, .L59+48	@ tmp313,
 122:src/synth.c   **** sawtooth_runproc (uint16_t offset, uint16_t len)
 556              		.loc 1 122 0
ARM GAS  C:\Users\CNous\AppData\Local\Temp\cc7sxCzv.s 			page 15


 557 0142 009C     		ldr	r4, [sp, #0]	@ ivtmp.103, %sfp
 169:src/synth.c   **** 
 170:src/synth.c   **** 		while (n--) // for each sample...
 171:src/synth.c   **** 		{
 172:src/synth.c   **** 			w += dw;
 173:src/synth.c   **** 			p += w;
 174:src/synth.c   **** 
 175:src/synth.c   **** 			if (p >= 1.0f)
 176:src/synth.c   **** 			{  /* normal phase reset */
 177:src/synth.c   **** 				p -= 1.0f;
 178:src/synth.c   **** 				place_step_dd(_f, j, p, w, 1.0f);
 179:src/synth.c   **** 			}
 180:src/synth.c   **** 
 181:src/synth.c   **** 			_f[j + DD_SAMPLE_DELAY] += 0.5f - p;
 182:src/synth.c   **** 			z += a * (_f[j] - z);
 558              		.loc 1 182 0
 559 0144 9FED95AA 		flds	s20, .L59+52	@ tmp420,
 168:src/synth.c   **** 		dw = (t - w) / n;
 560              		.loc 1 168 0
 561 0148 62EE839A 		fmuls	s19, s5, s6	@ dw, tmp312, tmp313
 562              	.LVL47:
 563 014c DFED94CA 		flds	s25, .L59+56	@ tmp424,
 122:src/synth.c   **** sawtooth_runproc (uint16_t offset, uint16_t len)
 564              		.loc 1 122 0
 565 0150 403C     		subs	r4, r4, #64	@ ivtmp.103, ivtmp.103,
 566 0152 3FE0     		b	.L39	@
 567              	.LVL48:
 568              	.L46:
 183:src/synth.c   **** 
 184:src/synth.c   **** 			/****   insert enveloppe  ****/
 185:src/synth.c   **** 			ze = z * nextSawEnv(&envTrigger, envAmp, &envPhase, envTime);
 186:src/synth.c   **** 
 187:src/synth.c   **** 			/**** insert delay effect  ****/
 188:src/synth.c   **** 			// (*readpos) : delayed sample read at the output of the delay line
 189:src/synth.c   **** 			dy = (1.f - coeff_a1)*(*readpos) + coeff_a1 * old_dy; // apply lowpass filter in the loop
 190:src/synth.c   **** 			old_dy = dy;
 191:src/synth.c   **** 			y = pass *  ze + fdb*dy;
 192:src/synth.c   **** 			y = (y > 1.0f) ? 1.0f : y ; //clip too loud samples
 569              		.loc 1 192 0
 570 0154 B0EE660A 		fcpys	s0, s13	@ y, tmp342
 571              	.LVL49:
 572              	.L32:
 193:src/synth.c   **** 			y = (y < -1.0f) ? -1.0f : y ;
 194:src/synth.c   **** 			*writepos = y; // write new computed sample at the input of the delay line
 573              		.loc 1 194 0 discriminator 3
 574 0158 3B68     		ldr	r3, [r7, #0]	@ writepos.19, writepos
 575              	.LVL50:
 576 015a A3EC010A 		fstmias	r3!, {s0}	@ writepos.19, y
 577              	.LVL51:
 195:src/synth.c   **** 				/* update the delay line pointers : */
 196:src/synth.c   **** 			writepos++;
 197:src/synth.c   **** 			readpos++;
 198:src/synth.c   **** 			if ((writepos - delayline) >= DELAYLINE_LEN)
 578              		.loc 1 198 0 discriminator 3
 579 015e 47F2FF61 		movw	r1, #30463	@ tmp362,
 197:src/synth.c   **** 			readpos++;
 580              		.loc 1 197 0 discriminator 3
ARM GAS  C:\Users\CNous\AppData\Local\Temp\cc7sxCzv.s 			page 16


 581 0162 021D     		adds	r2, r0, #4	@ readpos.20, readpos.12,
 582              	.LVL52:
 583              		.loc 1 198 0 discriminator 3
 584 0164 C0F20101 		movt	r1, 1	@ tmp362,
 585 0168 981B     		subs	r0, r3, r6	@ tmp361, writepos.19, pretmp.80
 586              	.LVL53:
 587 016a 8842     		cmp	r0, r1	@ tmp361, tmp362
 196:src/synth.c   **** 			writepos++;
 588              		.loc 1 196 0 discriminator 3
 589 016c 3B60     		str	r3, [r7, #0]	@ writepos.19, writepos
 197:src/synth.c   **** 			readpos++;
 590              		.loc 1 197 0 discriminator 3
 591 016e 2A60     		str	r2, [r5, #0]	@ readpos.20, readpos
 592              	.LVL54:
 593              		.loc 1 198 0 discriminator 3
 594 0170 08DD     		ble	.L33	@,
 199:src/synth.c   **** 				writepos = delayline; // wrap pointer
 595              		.loc 1 199 0
 596 0172 40F20001 		movw	r1, #:lower16:writepos	@,
 597 0176 40F20003 		movw	r3, #:lower16:delayline	@,
 598              	.LVL55:
 599 017a C0F20001 		movt	r1, #:upper16:writepos	@,
 600 017e C0F20003 		movt	r3, #:upper16:delayline	@,
 601 0182 0B60     		str	r3, [r1, #0]	@, writepos
 602              	.LVL56:
 603              	.L33:
 200:src/synth.c   **** 
 201:src/synth.c   **** 			if ((readpos - delayline) >= DELAYLINE_LEN)
 604              		.loc 1 201 0
 605 0184 47F2FF60 		movw	r0, #30463	@ tmp366,
 606 0188 921B     		subs	r2, r2, r6	@ tmp365, readpos.20, pretmp.80
 607              	.LVL57:
 608 018a C0F20100 		movt	r0, 1	@ tmp366,
 609 018e 8242     		cmp	r2, r0	@ tmp365, tmp366
 610 0190 04DD     		ble	.L34	@,
 202:src/synth.c   **** 				readpos = delayline;  // wrap pointer
 611              		.loc 1 202 0
 612 0192 40F20003 		movw	r3, #:lower16:delayline	@,
 613              	.LVL58:
 614 0196 C0F20003 		movt	r3, #:upper16:delayline	@,
 615 019a 2B60     		str	r3, [r5, #0]	@, readpos
 616              	.LVL59:
 617              	.L34:
 203:src/synth.c   **** 
 204:src/synth.c   **** 			/**** phaser effect *****/
 205:src/synth.c   **** 			y = PhaserProcess(y);
 618              		.loc 1 205 0
 619 019c FFF7FEFF 		bl	PhaserProcess	@
 620              	.LVL60:
 206:src/synth.c   **** 
 207:src/synth.c   **** 			/**** prevent overflow ****/
 208:src/synth.c   **** 			y = (y > 1.0f) ? 1.0f : y ; //clip too loud samples
 621              		.loc 1 208 0
 622 01a0 F7EE003A 		fconsts	s7, #112	@ tmp369,
 623 01a4 B4EEE30A 		fcmpes	s0, s7	@ y, tmp369
 624 01a8 F1EE10FA 		fmstat
 625 01ac 7FDD     		ble	.L57	@,
ARM GAS  C:\Users\CNous\AppData\Local\Temp\cc7sxCzv.s 			page 17


 626 01ae 47F6FF70 		movw	r0, #32767	@ prephitmp.97,
 627              	.L36:
 628              	.LVL61:
 209:src/synth.c   **** 			y = (y < -1.0f) ? -1.0f : y ;
 210:src/synth.c   **** 
 211:src/synth.c   **** 			/****** let's hear the new sample *******/
 212:src/synth.c   **** 			value = (uint16_t)((int16_t)((32767.0f) * y ));
 213:src/synth.c   **** 			*outp++ = value; // left channel sample
 214:src/synth.c   **** 			*outp++ = value; // right channel sample
 215:src/synth.c   **** 
 216:src/synth.c   **** 			if (++j == FILLEN)
 629              		.loc 1 216 0 discriminator 3
 630 01b2 09F1010C 		add	ip, r9, #1	@ tmp377, j,
 631 01b6 1FFA8CF9 		uxth	r9, ip	@ j, tmp377
 632 01ba B9F5807F 		cmp	r9, #256	@ j,
 213:src/synth.c   **** 			*outp++ = value; // left channel sample
 633              		.loc 1 213 0 discriminator 3
 634 01be 24F8040C 		strh	r0, [r4, #-4]	@ movhi	@ prephitmp.97, MEM[base: D.8869_118, offset: 4294967292B]
 214:src/synth.c   **** 			*outp++ = value; // right channel sample
 635              		.loc 1 214 0 discriminator 3
 636 01c2 24F8020C 		strh	r0, [r4, #-2]	@ movhi	@ prephitmp.97, MEM[base: D.8869_118, offset: 4294967294B]
 637              	.LVL62:
 638              		.loc 1 216 0 discriminator 3
 639 01c6 00F08580 		beq	.L37	@,
 170:src/synth.c   **** 		while (n--) // for each sample...
 640              		.loc 1 170 0
 641 01ca 009A     		ldr	r2, [sp, #0]	@, %sfp
 642 01cc 0434     		adds	r4, r4, #4	@ ivtmp.103, ivtmp.103,
 643 01ce A242     		cmp	r2, r4	@, ivtmp.103
 644 01d0 00F09480 		beq	.L58	@,
 645              	.LVL63:
 646              	.L39:
 172:src/synth.c   **** 			w += dw;
 647              		.loc 1 172 0
 648 01d4 39EE299A 		fadds	s18, s18, s19	@ w, w, dw
 649              	.LVL64:
 175:src/synth.c   **** 			if (p >= 1.0f)
 650              		.loc 1 175 0
 651 01d8 B7EE001A 		fconsts	s2, #112	@ tmp314,
 173:src/synth.c   **** 			p += w;
 652              		.loc 1 173 0
 653 01dc 38EE098A 		fadds	s16, s16, s18	@ p, p, w
 654              	.LVL65:
 175:src/synth.c   **** 			if (p >= 1.0f)
 655              		.loc 1 175 0
 656 01e0 B4EEC18A 		fcmpes	s16, s2	@ p, tmp314
 657 01e4 F1EE10FA 		fmstat
 658 01e8 09DB     		blt	.L30	@,
 177:src/synth.c   **** 				p -= 1.0f;
 659              		.loc 1 177 0
 660 01ea 38EE418A 		fsubs	s16, s16, s2	@ p, p, tmp314
 661              	.LVL66:
 178:src/synth.c   **** 				place_step_dd(_f, j, p, w, 1.0f);
 662              		.loc 1 178 0
 663 01ee 6D48     		ldr	r0, .L59+60	@,
 664 01f0 4946     		mov	r1, r9	@, j
 665 01f2 B0EE480A 		fcpys	s0, s16	@, p
ARM GAS  C:\Users\CNous\AppData\Local\Temp\cc7sxCzv.s 			page 18


 666 01f6 F0EE490A 		fcpys	s1, s18	@, w
 667 01fa FFF7FEFF 		bl	place_step_dd	@
 668              	.LVL67:
 669              	.L30:
 181:src/synth.c   **** 			_f[j + DD_SAMPLE_DELAY] += 0.5f - p;
 670              		.loc 1 181 0
 671 01fe 40F20001 		movw	r1, #:lower16:_f	@,
 672 0202 C0F20001 		movt	r1, #:upper16:_f	@,
 673 0206 09F10400 		add	r0, r9, #4	@ D.8690, j,
 674 020a 01EB8003 		add	r3, r1, r0, lsl #2	@, tmp319,, D.8690,
 675 020e B6EE004A 		fconsts	s8, #96	@ tmp324,
 676 0212 D3ED003A 		flds	s7, [r3, #0]	@ tmp326, _f
 677 0216 74EE484A 		fsubs	s9, s8, s16	@ tmp323, tmp324, p
 182:src/synth.c   **** 			z += a * (_f[j] - z);
 678              		.loc 1 182 0
 679 021a 01EB890E 		add	lr, r1, r9, lsl #2	@, tmp329,, j,
 181:src/synth.c   **** 			_f[j + DD_SAMPLE_DELAY] += 0.5f - p;
 680              		.loc 1 181 0
 681 021e 33EEA45A 		fadds	s10, s7, s9	@ tmp325, tmp326, tmp323
 185:src/synth.c   **** 			ze = z * nextSawEnv(&envTrigger, envAmp, &envPhase, envTime);
 682              		.loc 1 185 0
 683 0222 40F20002 		movw	r2, #:lower16:envAmp	@,
 181:src/synth.c   **** 			_f[j + DD_SAMPLE_DELAY] += 0.5f - p;
 684              		.loc 1 181 0
 685 0226 83ED005A 		fsts	s10, [r3, #0]	@ tmp325, _f
 182:src/synth.c   **** 			z += a * (_f[j] - z);
 686              		.loc 1 182 0
 687 022a DEED005A 		flds	s11, [lr, #0]	@ tmp331, _f
 185:src/synth.c   **** 			ze = z * nextSawEnv(&envTrigger, envAmp, &envPhase, envTime);
 688              		.loc 1 185 0
 689 022e C0F20002 		movt	r2, #:upper16:envAmp	@,
 690 0232 40F20003 		movw	r3, #:lower16:envTime	@,
 182:src/synth.c   **** 			z += a * (_f[j] - z);
 691              		.loc 1 182 0
 692 0236 35EEE86A 		fsubs	s12, s11, s17	@ tmp330, tmp331, z
 185:src/synth.c   **** 			ze = z * nextSawEnv(&envTrigger, envAmp, &envPhase, envTime);
 693              		.loc 1 185 0
 694 023a C0F20003 		movt	r3, #:upper16:envTime	@,
 695 023e 1178     		ldrb	r1, [r2, #0]	@ zero_extendqisi2	@, envAmp
 696 0240 5948     		ldr	r0, .L59+64	@,
 697 0242 5A4A     		ldr	r2, .L59+68	@,
 698 0244 93ED000A 		flds	s0, [r3, #0]	@, envTime
 182:src/synth.c   **** 			z += a * (_f[j] - z);
 699              		.loc 1 182 0
 700 0248 46EE0A8A 		fmacs	s17, s12, s20	@ z, tmp330, tmp420
 701              	.LVL68:
 185:src/synth.c   **** 			ze = z * nextSawEnv(&envTrigger, envAmp, &envPhase, envTime);
 702              		.loc 1 185 0
 703 024c FFF7FEFF 		bl	nextSawEnv	@
 704              	.LVL69:
 189:src/synth.c   **** 			dy = (1.f - coeff_a1)*(*readpos) + coeff_a1 * old_dy; // apply lowpass filter in the loop
 705              		.loc 1 189 0
 706 0250 DBED007A 		flds	s15, [fp, #0]	@ coeff_a1.11, coeff_a1
 707 0254 2868     		ldr	r0, [r5, #0]	@ readpos.12, readpos
 708 0256 D8ED000A 		flds	s1, [r8, #0]	@ old_dy, old_dy
 709 025a F7EE006A 		fconsts	s13, #112	@ tmp342,
 710 025e 90ED007A 		flds	s14, [r0, #0]	@ *readpos.12_93, *readpos.12_93
ARM GAS  C:\Users\CNous\AppData\Local\Temp\cc7sxCzv.s 			page 19


 711 0262 36EEE71A 		fsubs	s2, s13, s15	@ tmp341, tmp342, coeff_a1.11
 712 0266 67EEA01A 		fmuls	s3, s15, s1	@ dy, coeff_a1.11, old_dy
 713 026a 41EE071A 		fmacs	s3, s2, s14	@ dy, tmp341, *readpos.12_93
 714              	.LVL70:
 191:src/synth.c   **** 			y = pass *  ze + fdb*dy;
 715              		.loc 1 191 0
 716 026e 40F20001 		movw	r1, #:lower16:fdb	@,
 717 0272 C0F20001 		movt	r1, #:upper16:fdb	@,
 718 0276 91ED002A 		flds	s4, [r1, #0]	@ fdb, fdb
 185:src/synth.c   **** 			ze = z * nextSawEnv(&envTrigger, envAmp, &envPhase, envTime);
 719              		.loc 1 185 0
 720 027a 20EE280A 		fmuls	s0, s0, s17	@ tmp350,, z
 721              	.LVL71:
 191:src/synth.c   **** 			y = pass *  ze + fdb*dy;
 722              		.loc 1 191 0
 723 027e DAED002A 		flds	s5, [sl, #0]	@ pass, pass
 724 0282 21EE823A 		fmuls	s6, s3, s4	@ y, dy, fdb
 725 0286 00EE223A 		fmacs	s6, s0, s5	@ y, tmp350, pass
 726              	.LVL72:
 190:src/synth.c   **** 			old_dy = dy;
 727              		.loc 1 190 0
 728 028a C8ED001A 		fsts	s3, [r8, #0]	@ dy, old_dy
 192:src/synth.c   **** 			y = (y > 1.0f) ? 1.0f : y ; //clip too loud samples
 729              		.loc 1 192 0
 730 028e B4EEE63A 		fcmpes	s6, s13	@ y, tmp342
 731 0292 F1EE10FA 		fmstat
 732 0296 3FF75DAF 		bgt	.L46	@,
 193:src/synth.c   **** 			y = (y < -1.0f) ? -1.0f : y ;
 733              		.loc 1 193 0 discriminator 3
 734 029a BFEE000A 		fconsts	s0, #240	@ tmp357,
 735              	.LVL73:
 736 029e B4EE403A 		fcmps	s6, s0	@ y, tmp357
 737 02a2 F1EE10FA 		fmstat
 738 02a6 58BF     		it	pl	@
 739 02a8 B0EE430A 		fcpyspl	s0, s6	@, y, y
 740 02ac 54E7     		b	.L32	@
 741              	.LVL74:
 742              	.L57:
 209:src/synth.c   **** 			y = (y < -1.0f) ? -1.0f : y ;
 743              		.loc 1 209 0 discriminator 3
 744 02ae BFEE004A 		fconsts	s8, #240	@ tmp370,
 745 02b2 B4EEC40A 		fcmpes	s0, s8	@ y, tmp370
 746 02b6 F1EE10FA 		fmstat
 747 02ba 48BF     		it	mi
 748 02bc 48F20100 		movwmi	r0, #32769	@ prephitmp.97,
 749 02c0 3FF577AF 		bmi	.L36	@,
 750 02c4 60EE2C4A 		fmuls	s9, s0, s25	@ tmp371, y, tmp424
 751 02c8 BDEEE45A 		ftosizs	s10, s9	@, tmp371
 752 02cc 15EE101A 		fmrs	r1, s10	@ int	@,
 753 02d0 88B2     		uxth	r0, r1	@ prephitmp.97, tmp373
 754 02d2 6EE7     		b	.L36	@
 755              	.LVL75:
 756              	.L37:
 217:src/synth.c   **** 			{
 218:src/synth.c   **** 				j = 0;
 219:src/synth.c   **** 				memcpy (_f, _f + FILLEN, STEP_DD_PULSE_LENGTH * sizeof (float));
 757              		.loc 1 219 0
ARM GAS  C:\Users\CNous\AppData\Local\Temp\cc7sxCzv.s 			page 20


 758 02d4 3348     		ldr	r0, .L59+60	@,
 759              	.LVL76:
 760 02d6 4FF49072 		mov	r2, #288	@,
 761 02da 00F58061 		add	r1, r0, #1024	@,,
 220:src/synth.c   **** 				memset (_f + STEP_DD_PULSE_LENGTH, 0,  FILLEN * sizeof (float));
 762              		.loc 1 220 0
 763 02de 4FF00009 		mov	r9, #0	@ j,
 219:src/synth.c   **** 				memcpy (_f, _f + FILLEN, STEP_DD_PULSE_LENGTH * sizeof (float));
 764              		.loc 1 219 0
 765 02e2 FFF7FEFF 		bl	memcpy	@
 766              	.LVL77:
 767              		.loc 1 220 0
 768 02e6 4FF48062 		mov	r2, #1024	@,
 769 02ea 3148     		ldr	r0, .L59+72	@,
 770 02ec 4946     		mov	r1, r9	@, j
 771 02ee FFF7FEFF 		bl	memset	@
 772              	.LVL78:
 170:src/synth.c   **** 		while (n--) // for each sample...
 773              		.loc 1 170 0
 774 02f2 009A     		ldr	r2, [sp, #0]	@, %sfp
 775 02f4 0434     		adds	r4, r4, #4	@ ivtmp.103, ivtmp.103,
 776 02f6 A242     		cmp	r2, r4	@, ivtmp.103
 777 02f8 7FF46CAF 		bne	.L39	@,
 778              	.LVL79:
 779              	.L58:
 221:src/synth.c   **** 			}
 222:src/synth.c   **** 		}
 223:src/synth.c   **** 	}
 224:src/synth.c   **** 	while (len);
 780              		.loc 1 224 0
 781 02fc 0199     		ldr	r1, [sp, #4]	@, %sfp
 782 02fe 4032     		adds	r2, r2, #64	@,,
 783 0300 0092     		str	r2, [sp, #0]	@, %sfp
 784 0302 49B1     		cbz	r1, .L40	@,
 785 0304 40F20004 		movw	r4, #:lower16:f1	@,
 786 0308 C0F20004 		movt	r4, #:upper16:f1	@,
 787 030c D4ED009A 		flds	s19, [r4, #0]	@ freq, f1
 788              	.LVL80:
 789 0310 C9E6     		b	.L41	@
 790              	.LVL81:
 791              	.L44:
 166:src/synth.c   **** 		if (t < 1e-5) t = 1e-5;
 792              		.loc 1 166 0
 793 0312 DFED1ACA 		flds	s25, .L59+20	@ t,
 794              	.LVL82:
 795 0316 10E7     		b	.L28	@
 796              	.LVL83:
 797              	.L40:
 225:src/synth.c   **** 
 226:src/synth.c   **** 	_p = p;
 798              		.loc 1 226 0
 799 0318 40F20000 		movw	r0, #:lower16:_p	@,
 800 031c C0F20000 		movt	r0, #:upper16:_p	@,
 801 0320 80ED008A 		fsts	s16, [r0, #0]	@ p, _p
 227:src/synth.c   **** 	_w = w;
 228:src/synth.c   **** 	_z = z;
 229:src/synth.c   **** 	_j = j;
ARM GAS  C:\Users\CNous\AppData\Local\Temp\cc7sxCzv.s 			page 21


 802              		.loc 1 229 0
 803 0324 40F20000 		movw	r0, #:lower16:_j	@,
 227:src/synth.c   **** 	_w = w;
 804              		.loc 1 227 0
 805 0328 40F20002 		movw	r2, #:lower16:_w	@,
 228:src/synth.c   **** 	_z = z;
 806              		.loc 1 228 0
 807 032c 40F20001 		movw	r1, #:lower16:_z	@,
 808              		.loc 1 229 0
 809 0330 C0F20000 		movt	r0, #:upper16:_j	@,
 227:src/synth.c   **** 	_w = w;
 810              		.loc 1 227 0
 811 0334 C0F20002 		movt	r2, #:upper16:_w	@,
 228:src/synth.c   **** 	_z = z;
 812              		.loc 1 228 0
 813 0338 C0F20001 		movt	r1, #:upper16:_z	@,
 227:src/synth.c   **** 	_w = w;
 814              		.loc 1 227 0
 815 033c 82ED009A 		fsts	s18, [r2, #0]	@ w, _w
 228:src/synth.c   **** 	_z = z;
 816              		.loc 1 228 0
 817 0340 C1ED008A 		fsts	s17, [r1, #0]	@ z, _z
 818              		.loc 1 229 0
 819 0344 C0F80090 		str	r9, [r0, #0]	@ prephitmp.91, _j
 230:src/synth.c   **** }
 820              		.loc 1 230 0
 821 0348 03B0     		add	sp, sp, #12	@,,
 822 034a BDEC0A8B 		fldmfdd	sp!, {d8, d9, d10, d11, d12}
 823 034e BDE8F08F 		pop	{r4, r5, r6, r7, r8, r9, sl, fp, pc}
 824              	.LVL84:
 825              	.L56:
 141:src/synth.c   **** 		if (w > 0.5) w = 0.5;
 826              		.loc 1 141 0
 827 0352 B6EE009A 		fconsts	s18, #96	@ tmp287,
 828 0356 B4EE49AA 		fcmps	s20, s18	@ w, tmp287
 829 035a F1EE10FA 		fmstat
 830 035e D8BF     		it	le	@
 831 0360 B0EE4A9A 		fcpysle	s18, s20	@, w, w
 832 0364 88E6     		b	.L25	@
 833              	.L60:
 834 0366 00BF     		.align	3
 835              	.L59:
 836 0368 F168E388 		.word	-1998362383
 837 036c B5F8E43E 		.word	1055193269
 838 0370 00000000 		.word	_init
 839 0374 00000000 		.word	audiobuff
 840 0378 00803B47 		.word	1195081728
 841 037c ACC52737 		.word	925353388
 842 0380 00000000 		.word	readpos
 843 0384 00000000 		.word	writepos
 844 0388 00000000 		.word	delayline
 845 038c DB0FC942 		.word	1120473051
 846 0390 DB0FC940 		.word	1086918619
 847 0394 0AD7233C 		.word	1008981770
 848 0398 0000803D 		.word	1031798784
 849 039c 6666663F 		.word	1063675494
 850 03a0 00FEFF46 		.word	1191181824
ARM GAS  C:\Users\CNous\AppData\Local\Temp\cc7sxCzv.s 			page 22


 851 03a4 00000000 		.word	_f
 852 03a8 00000000 		.word	envTrigger
 853 03ac 00000000 		.word	envPhase
 854 03b0 20010000 		.word	_f+288
 855 03b4 00000000 		.word	coeff_a1
 856 03b8 00000000 		.word	old_dy
 857 03bc 00000000 		.word	pass
 858              		.cfi_endproc
 859              	.LFE113:
 860              		.size	sawtooth_runproc, .-sawtooth_runproc
 861              		.text
 862              	.Letext0:
 863              		.file 2 "c:\\gnutoolsarmembedded\\4.7-2012q4\\bin\\../lib/gcc/arm-none-eabi/4.7.3/../../../../arm-
 864              		.file 3 "./inc/minblep_tables.h"
 865              		.file 4 "./cmsis/core/core_cm4.h"
 866              		.file 5 "c:\\gnutoolsarmembedded\\4.7-2012q4\\bin\\../lib/gcc/arm-none-eabi/4.7.3/../../../../arm-
 867              		.file 6 "./inc/phaser2.h"